
kernel_addmm.o:     file format elf32-littleriscv


Disassembly of section .group:

00000000 <_ZN8HBTensorIfLl2EEC5EP11hb_tensor_t>:
   0:	0001                	nop
   2:	0000                	unimp
   4:	00000007          	0x7
   8:	0008                	0x8
	...

Disassembly of section .text:

00000000 <tensorlib_addmm>:
       0:	e9010113          	addi	x2,x2,-368
       4:	16112623          	sw	x1,364(x2)
       8:	16812423          	sw	x8,360(x2)
       c:	16912223          	sw	x9,356(x2)
      10:	17010413          	addi	x8,x2,368
      14:	17212023          	sw	x18,352(x2)
      18:	15312e23          	sw	x19,348(x2)
      1c:	15412c23          	sw	x20,344(x2)
      20:	15512a23          	sw	x21,340(x2)
      24:	15612823          	sw	x22,336(x2)
      28:	15712623          	sw	x23,332(x2)
      2c:	15812423          	sw	x24,328(x2)
      30:	15912223          	sw	x25,324(x2)
      34:	15a12023          	sw	x26,320(x2)
      38:	13b12e23          	sw	x27,316(x2)
      3c:	12812627          	fsw	f8,300(x2)
      40:	12912427          	fsw	f9,296(x2)
      44:	00050993          	mv	x19,x10
      48:	f2040513          	addi	x10,x8,-224
      4c:	00060a93          	mv	x21,x12
      50:	00068a13          	mv	x20,x13
      54:	00070913          	mv	x18,x14
      58:	00078493          	mv	x9,x15
      5c:	00000097          	auipc	x1,0x0
      60:	000080e7          	jalr	x1 # 5c <tensorlib_addmm+0x5c>
      64:	000a8593          	mv	x11,x21
      68:	f4440513          	addi	x10,x8,-188
      6c:	00000097          	auipc	x1,0x0
      70:	000080e7          	jalr	x1 # 6c <tensorlib_addmm+0x6c>
      74:	000a0593          	mv	x11,x20
      78:	f6840513          	addi	x10,x8,-152
      7c:	00000097          	auipc	x1,0x0
      80:	000080e7          	jalr	x1 # 7c <tensorlib_addmm+0x7c>
      84:	00098593          	mv	x11,x19
      88:	f8c40513          	addi	x10,x8,-116
      8c:	00000097          	auipc	x1,0x0
      90:	000080e7          	jalr	x1 # 8c <tensorlib_addmm+0x8c>
      94:	000007b7          	lui	x15,0x0
      98:	00000737          	lui	x14,0x0
      9c:	00000337          	lui	x6,0x0
      a0:	000006b7          	lui	x13,0x0
      a4:	0007a283          	lw	x5,0(x15) # 0 <tensorlib_addmm>
      a8:	00072583          	lw	x11,0(x14) # 0 <tensorlib_addmm>
      ac:	00032383          	lw	x7,0(x6) # 0 <tensorlib_addmm>
      b0:	0006a603          	lw	x12,0(x13) # 0 <tensorlib_addmm>
      b4:	00000537          	lui	x10,0x0
      b8:	00052803          	lw	x16,0(x10) # 0 <tensorlib_addmm>
      bc:	00b288b3          	add	x17,x5,x11
      c0:	00c38b33          	add	x22,x7,x12
      c4:	01889b93          	slli	x23,x17,0x18
      c8:	012b1c13          	slli	x24,x22,0x12
      cc:	3f000cb7          	lui	x25,0x3f000
      d0:	00fc0db7          	lui	x27,0xfc0
      d4:	00040fb7          	lui	x31,0x40
      d8:	019bfd33          	and	x26,x23,x25
      dc:	01bc7e33          	and	x28,x24,x27
      e0:	00481e93          	slli	x29,x16,0x4
      e4:	ff0f8993          	addi	x19,x31,-16 # 3fff0 <.L167+0x3ef90>
      e8:	01cd6f33          	or	x30,x26,x28
      ec:	013efab3          	and	x21,x29,x19
      f0:	f4842283          	lw	x5,-184(x8)
      f4:	015f6a33          	or	x20,x30,x21
      f8:	800007b7          	lui	x15,0x80000
      fc:	00092487          	flw	f9,0(x18)
     100:	00fa6733          	or	x14,x20,x15
     104:	41001937          	lui	x18,0x41001
     108:	0004a407          	flw	f8,0(x9)
     10c:	d0e92623          	sw	x14,-756(x18) # 41000d0c <.L167+0x40fffcac>
     110:	7e028263          	beqz	x5,8f4 <.L157>
     114:	00100093          	li	x1,1
     118:	7850f463          	bgeu	x1,x5,8a0 <.L158>
     11c:	f6c42483          	lw	x9,-148(x8)
     120:	060484e3          	beqz	x9,988 <.L159>
     124:	1890fae3          	bgeu	x1,x9,ab8 <.L160>
     128:	f5042583          	lw	x11,-176(x8)
     12c:	f7442303          	lw	x6,-140(x8)
     130:	0045a383          	lw	x7,4(x11)
     134:	00032603          	lw	x12,0(x6)
     138:	ec742c23          	sw	x7,-296(x8)
     13c:	00c396e3          	bne	x7,x12,948 <.L161>
     140:	00432b03          	lw	x22,4(x6)
     144:	0005a683          	lw	x13,0(x11)
     148:	ed842b83          	lw	x23,-296(x8)
     14c:	007b0813          	addi	x16,x22,7
     150:	41f85c93          	srai	x25,x16,0x1f
     154:	00768893          	addi	x17,x13,7
     158:	007cfd93          	andi	x27,x25,7
     15c:	41f8dc13          	srai	x24,x17,0x1f
     160:	010d8eb3          	add	x29,x27,x16
     164:	007c7d13          	andi	x26,x24,7
     168:	403edf93          	srai	x31,x29,0x3
     16c:	00800993          	li	x19,8
     170:	011d0e33          	add	x28,x26,x17
     174:	007bf513          	andi	x10,x23,7
     178:	edf42823          	sw	x31,-304(x8)
     17c:	ef342c23          	sw	x19,-264(x8)
     180:	403e5f13          	srai	x30,x28,0x3
     184:	00050e63          	beqz	x10,1a0 <.L20>
     188:	41fbda93          	srai	x21,x23,0x1f
     18c:	01dada13          	srli	x20,x21,0x1d
     190:	014b82b3          	add	x5,x23,x20
     194:	0072f793          	andi	x15,x5,7
     198:	41478733          	sub	x14,x15,x20
     19c:	eee42c23          	sw	x14,-264(x8)

000001a0 <.L20>:
     1a0:	00800093          	li	x1,8
     1a4:	0076f913          	andi	x18,x13,7
     1a8:	ee142a23          	sw	x1,-268(x8)
     1ac:	00090e63          	beqz	x18,1c8 <.L21>
     1b0:	41f6d493          	srai	x9,x13,0x1f
     1b4:	01d4d593          	srli	x11,x9,0x1d
     1b8:	00b68333          	add	x6,x13,x11
     1bc:	00737393          	andi	x7,x6,7
     1c0:	40b386b3          	sub	x13,x7,x11
     1c4:	eed42a23          	sw	x13,-268(x8)

000001c8 <.L21>:
     1c8:	00800893          	li	x17,8
     1cc:	007b7b93          	andi	x23,x22,7
     1d0:	ed142e23          	sw	x17,-292(x8)
     1d4:	000b8e63          	beqz	x23,1f0 <.L22>
     1d8:	41fb5813          	srai	x16,x22,0x1f
     1dc:	01d85c13          	srli	x24,x16,0x1d
     1e0:	018b0b33          	add	x22,x22,x24
     1e4:	007b7c93          	andi	x25,x22,7
     1e8:	418c8d33          	sub	x26,x25,x24
     1ec:	eda42e23          	sw	x26,-292(x8)

000001f0 <.L22>:
     1f0:	ed042d83          	lw	x27,-304(x8)
     1f4:	fff00e93          	li	x29,-1
     1f8:	03bf0e33          	mul	x28,x30,x27
     1fc:	59de0663          	beq	x28,x29,788 <.L26>
     200:	580e0463          	beqz	x28,788 <.L26>
     204:	00000fb7          	lui	x31,0x0
     208:	000fa983          	lw	x19,0(x31) # 0 <tensorlib_addmm>
     20c:	004e5513          	srli	x10,x28,0x4
     210:	00150a93          	addi	x21,x10,1
     214:	033a8a33          	mul	x20,x21,x19
     218:	014a82b3          	add	x5,x21,x20
     21c:	ed442a23          	sw	x20,-300(x8)
     220:	ec542623          	sw	x5,-308(x8)
     224:	005e7463          	bgeu	x28,x5,22c <.L27>
     228:	edc42623          	sw	x28,-308(x8)

0000022c <.L27>:
     22c:	ed442783          	lw	x15,-300(x8)
     230:	ecc42703          	lw	x14,-308(x8)
     234:	54e7fa63          	bgeu	x15,x14,788 <.L26>
     238:	edc42903          	lw	x18,-292(x8)
     23c:	ef442083          	lw	x1,-268(x8)
     240:	ed842583          	lw	x11,-296(x8)
     244:	00760613          	addi	x12,x12,7
     248:	021904b3          	mul	x9,x18,x1
     24c:	00758593          	addi	x11,x11,7
     250:	ed042f83          	lw	x31,-304(x8)
     254:	41f5d393          	srai	x7,x11,0x1f
     258:	41f65b93          	srai	x23,x12,0x1f
     25c:	0073f693          	andi	x13,x7,7
     260:	007bfc13          	andi	x24,x23,7
     264:	00509893          	slli	x17,x1,0x5
     268:	00b68b33          	add	x22,x13,x11
     26c:	00cc0db3          	add	x27,x24,x12
     270:	00249d13          	slli	x26,x9,0x2
     274:	00fd0e13          	addi	x28,x26,15
     278:	00591813          	slli	x16,x18,0x5
     27c:	403b5e93          	srai	x29,x22,0x3
     280:	ffff0f13          	addi	x30,x30,-1
     284:	ffff8993          	addi	x19,x31,-1
     288:	403dd513          	srai	x10,x27,0x3
     28c:	ff0e7a93          	andi	x21,x28,-16
     290:	0048da13          	srli	x20,x17,0x4
     294:	ed142423          	sw	x17,-312(x8)
     298:	eb042623          	sw	x16,-340(x8)
     29c:	eba42423          	sw	x26,-344(x8)
     2a0:	f1d42223          	sw	x29,-252(x8)
     2a4:	ebe42223          	sw	x30,-348(x8)
     2a8:	eb342e23          	sw	x19,-324(x8)
     2ac:	f0a42023          	sw	x10,-256(x8)
     2b0:	eb042023          	sw	x16,-352(x8)
     2b4:	e9542e23          	sw	x21,-356(x8)
     2b8:	e9442c23          	sw	x20,-360(x8)

000002bc <.L43>:
     2bc:	ed442283          	lw	x5,-300(x8)
     2c0:	ed042783          	lw	x15,-304(x8)
     2c4:	ea442903          	lw	x18,-348(x8)
     2c8:	ea242823          	sw	x2,-336(x8)
     2cc:	02f2f733          	remu	x14,x5,x15
     2d0:	f2842083          	lw	x1,-216(x8)
     2d4:	f3042583          	lw	x11,-208(x8)
     2d8:	02f2dbb3          	divu	x23,x5,x15
     2dc:	eee42823          	sw	x14,-272(x8)
     2e0:	4d2b82e3          	beq	x23,x18,fa4 <.L162>
     2e4:	ef042483          	lw	x9,-272(x8)
     2e8:	ebc42603          	lw	x12,-324(x8)
     2ec:	0ac48ae3          	beq	x9,x12,ba0 <.L108>

000002f0 <.L114>:
     2f0:	10000613          	li	x12,256

000002f4 <.L31>:
     2f4:	00f60d93          	addi	x27,x12,15
     2f8:	ff0dfe13          	andi	x28,x27,-16
     2fc:	ef042e83          	lw	x29,-272(x8)
     300:	41c10133          	sub	x2,x2,x28
     304:	f0242823          	sw	x2,-240(x8)
     308:	41c10133          	sub	x2,x2,x28
     30c:	003e9f13          	slli	x30,x29,0x3
     310:	003b9a93          	slli	x21,x23,0x3
     314:	00010f93          	mv	x31,x2
     318:	eff42423          	sw	x31,-280(x8)
     31c:	f1e42423          	sw	x30,-248(x8)
     320:	f1542623          	sw	x21,-244(x8)
     324:	001f0b93          	addi	x23,x30,1
     328:	00000913          	li	x18,0
     32c:	00800493          	li	x9,8

00000330 <.L41>:
     330:	0040a283          	lw	x5,4(x1)
     334:	0000a983          	lw	x19,0(x1)
     338:	01590a33          	add	x20,x18,x21
     33c:	03728533          	mul	x10,x5,x23
     340:	033a0733          	mul	x14,x20,x19
     344:	00a283b3          	add	x7,x5,x10
     348:	00728333          	add	x6,x5,x7
     34c:	006286b3          	add	x13,x5,x6
     350:	00d28c33          	add	x24,x5,x13
     354:	01828b33          	add	x22,x5,x24
     358:	025f0cb3          	mul	x25,x30,x5
     35c:	005707b3          	add	x15,x14,x5
     360:	00a70d33          	add	x26,x14,x10
     364:	00670e33          	add	x28,x14,x6
     368:	00d70eb3          	add	x29,x14,x13
     36c:	01678a33          	add	x20,x15,x22
     370:	00770db3          	add	x27,x14,x7
     374:	018708b3          	add	x17,x14,x24
     378:	01670833          	add	x16,x14,x22
     37c:	002d1993          	slli	x19,x26,0x2
     380:	00ec82b3          	add	x5,x25,x14
     384:	002d9393          	slli	x7,x27,0x2
     388:	002e1693          	slli	x13,x28,0x2
     38c:	002e9313          	slli	x6,x29,0x2
     390:	00289c13          	slli	x24,x17,0x2
     394:	00281b13          	slli	x22,x16,0x2
     398:	00229713          	slli	x14,x5,0x2
     39c:	002a1513          	slli	x10,x20,0x2
     3a0:	00e58cb3          	add	x25,x11,x14
     3a4:	013587b3          	add	x15,x11,x19
     3a8:	00758d33          	add	x26,x11,x7
     3ac:	00d58db3          	add	x27,x11,x13
     3b0:	00658e33          	add	x28,x11,x6
     3b4:	01858eb3          	add	x29,x11,x24
     3b8:	016588b3          	add	x17,x11,x22
     3bc:	00a58833          	add	x16,x11,x10
     3c0:	000ca087          	flw	f1,0(x25) # 3f000000 <.L167+0x3effefa0>
     3c4:	0007a007          	flw	f0,0(x15) # 80000000 <.L167+0x7fffefa0>
     3c8:	000d2507          	flw	f10,0(x26)
     3cc:	000da587          	flw	f11,0(x27) # fc0000 <.L167+0xfbefa0>
     3d0:	000e2607          	flw	f12,0(x28)
     3d4:	000ea687          	flw	f13,0(x29)
     3d8:	0008a707          	flw	f14,0(x17)
     3dc:	00082787          	flw	f15,0(x16)
     3e0:	1014f153          	fmul.s	f2,f9,f1
     3e4:	1004f1d3          	fmul.s	f3,f9,f0
     3e8:	10a4f253          	fmul.s	f4,f9,f10
     3ec:	10b4f2d3          	fmul.s	f5,f9,f11
     3f0:	10c4f353          	fmul.s	f6,f9,f12
     3f4:	10d4f3d3          	fmul.s	f7,f9,f13
     3f8:	10e4f853          	fmul.s	f16,f9,f14
     3fc:	10f4f8d3          	fmul.s	f17,f9,f15
     400:	002fa027          	fsw	f2,0(x31)
     404:	003fa227          	fsw	f3,4(x31)
     408:	004fa427          	fsw	f4,8(x31)
     40c:	005fa627          	fsw	f5,12(x31)
     410:	006fa827          	fsw	f6,16(x31)
     414:	007faa27          	fsw	f7,20(x31)
     418:	010fac27          	fsw	f16,24(x31)
     41c:	011fae27          	fsw	f17,28(x31)
     420:	00190913          	addi	x18,x18,1
     424:	020f8f93          	addi	x31,x31,32
     428:	f09914e3          	bne	x18,x9,330 <.L41>
     42c:	00800093          	li	x1,8
     430:	f0142e23          	sw	x1,-228(x8)
     434:	00000c93          	li	x25,0
     438:	00291493          	slli	x9,x18,0x2

0000043c <.L37>:
     43c:	f1042503          	lw	x10,-240(x8)
     440:	00000593          	li	x11,0
     444:	00000097          	auipc	x1,0x0
     448:	000080e7          	jalr	x1 # 444 <.L37+0x8>
     44c:	ed842583          	lw	x11,-296(x8)
     450:	28b05a63          	blez	x11,6e4 <.L42>
     454:	f1c42083          	lw	x1,-228(x8)
     458:	00008613          	mv	x12,x1
     45c:	00509f93          	slli	x31,x1,0x5

00000460 <.L110>:
     460:	ef842983          	lw	x19,-264(x8)
     464:	f0842b03          	lw	x22,-248(x8)
     468:	f0442783          	lw	x15,-252(x8)
     46c:	00299293          	slli	x5,x19,0x2
     470:	02c28c33          	mul	x24,x5,x12
     474:	f1c42083          	lw	x1,-228(x8)
     478:	f0c42583          	lw	x11,-244(x8)
     47c:	00191393          	slli	x7,x18,0x1
     480:	fff90693          	addi	x13,x18,-1
     484:	00391a93          	slli	x21,x18,0x3
     488:	01238333          	add	x6,x7,x18
     48c:	008b0d13          	addi	x26,x22,8
     490:	01248db3          	add	x27,x9,x18
     494:	ff86f713          	andi	x14,x13,-8
     498:	02590eb3          	mul	x29,x18,x5
     49c:	00fc0813          	addi	x16,x24,15
     4a0:	412a8e33          	sub	x28,x21,x18
     4a4:	fff78893          	addi	x17,x15,-1
     4a8:	00b08633          	add	x12,x1,x11
     4ac:	edf42223          	sw	x31,-316(x8)
     4b0:	ff087f13          	andi	x30,x16,-16
     4b4:	00591f93          	slli	x31,x18,0x5
     4b8:	01a709b3          	add	x19,x14,x26
     4bc:	002d9a13          	slli	x20,x27,0x2
     4c0:	00fe8513          	addi	x10,x29,15
     4c4:	ff057293          	andi	x5,x10,-16
     4c8:	00231b93          	slli	x23,x6,0x2
     4cc:	00491b13          	slli	x22,x18,0x4
     4d0:	00331d13          	slli	x26,x6,0x3
     4d4:	002e1d93          	slli	x27,x28,0x2
     4d8:	00000393          	li	x7,0
     4dc:	f0042c23          	sw	x0,-232(x8)
     4e0:	ef142e23          	sw	x17,-260(x8)
     4e4:	eec42623          	sw	x12,-276(x8)
     4e8:	edf42023          	sw	x31,-320(x8)
     4ec:	ebe42c23          	sw	x30,-328(x8)
     4f0:	ea542a23          	sw	x5,-332(x8)

000004f4 <.L86>:
     4f4:	f0042c03          	lw	x24,-256(x8)
     4f8:	f1842683          	lw	x13,-232(x8)
     4fc:	1f86d063          	bge	x13,x24,6dc <.L44>
     500:	efc42303          	lw	x6,-260(x8)
     504:	f0242a23          	sw	x2,-236(x8)
     508:	24d304e3          	beq	x6,x13,f50 <.L45>
     50c:	740c8663          	beqz	x25,c58 <.L47>
     510:	00800093          	li	x1,8

00000514 <.L46>:
     514:	f1c42f03          	lw	x30,-228(x8)
     518:	02190333          	mul	x6,x18,x1
     51c:	f1c42783          	lw	x15,-228(x8)
     520:	f4c42c03          	lw	x24,-180(x8)
     524:	f5442c83          	lw	x25,-172(x8)
     528:	03e088b3          	mul	x17,x1,x30
     52c:	00231e93          	slli	x29,x6,0x2
     530:	00fe8693          	addi	x13,x29,15
     534:	ff06f293          	andi	x5,x13,-16
     538:	00289713          	slli	x14,x17,0x2
     53c:	00f70e13          	addi	x28,x14,15
     540:	ff0e7593          	andi	x11,x28,-16
     544:	40b10133          	sub	x2,x2,x11
     548:	00010513          	mv	x10,x2
     54c:	40510133          	sub	x2,x2,x5
     550:	00010813          	mv	x16,x2
     554:	22f05ce3          	blez	x15,f8c <.L52>

00000558 <.L165>:
     558:	f0c42583          	lw	x11,-244(x8)
     55c:	eec42f03          	lw	x30,-276(x8)
     560:	00209f93          	slli	x31,x1,0x2
     564:	01f50633          	add	x12,x10,x31
     568:	00000313          	li	x6,0

0000056c <.L55>:
     56c:	04105063          	blez	x1,5ac <.L56>
     570:	004c2883          	lw	x17,4(x24)
     574:	000c2703          	lw	x14,0(x24)
     578:	00231e13          	slli	x28,x6,0x2
     57c:	02788eb3          	mul	x29,x17,x7
     580:	00289693          	slli	x13,x17,0x2
     584:	01c507b3          	add	x15,x10,x28
     588:	02e582b3          	mul	x5,x11,x14
     58c:	01d288b3          	add	x17,x5,x29
     590:	00289713          	slli	x14,x17,0x2
     594:	00ec8e33          	add	x28,x25,x14

00000598 <.L57>:
     598:	000e2807          	flw	f16,0(x28)
     59c:	00478793          	addi	x15,x15,4
     5a0:	00de0e33          	add	x28,x28,x13
     5a4:	ff07ae27          	fsw	f16,-4(x15)
     5a8:	fef618e3          	bne	x12,x15,598 <.L57>

000005ac <.L56>:
     5ac:	00158593          	addi	x11,x11,1
     5b0:	00130333          	add	x6,x6,x1
     5b4:	01f60633          	add	x12,x12,x31
     5b8:	fabf1ae3          	bne	x30,x11,56c <.L55>
     5bc:	f7042c03          	lw	x24,-144(x8)
     5c0:	f7842c83          	lw	x25,-136(x8)
     5c4:	06105a63          	blez	x1,638 <.L61>

000005c8 <.L59>:
     5c8:	f0842f03          	lw	x30,-248(x8)
     5cc:	00980633          	add	x12,x16,x9
     5d0:	00000313          	li	x6,0
     5d4:	00000593          	li	x11,0

000005d8 <.L64>:
     5d8:	05205263          	blez	x18,61c <.L65>
     5dc:	004c2e83          	lw	x29,4(x24)
     5e0:	000c2283          	lw	x5,0(x24)
     5e4:	007588b3          	add	x17,x11,x7
     5e8:	03ee8fb3          	mul	x31,x29,x30
     5ec:	002e9693          	slli	x13,x29,0x2
     5f0:	00231713          	slli	x14,x6,0x2
     5f4:	00e807b3          	add	x15,x16,x14
     5f8:	02588e33          	mul	x28,x17,x5
     5fc:	01fe0eb3          	add	x29,x28,x31
     600:	002e9293          	slli	x5,x29,0x2
     604:	005c88b3          	add	x17,x25,x5

00000608 <.L66>:
     608:	0008a887          	flw	f17,0(x17)
     60c:	00478793          	addi	x15,x15,4
     610:	00d888b3          	add	x17,x17,x13
     614:	ff17ae27          	fsw	f17,-4(x15)
     618:	fef618e3          	bne	x12,x15,608 <.L66>

0000061c <.L65>:
     61c:	00158593          	addi	x11,x11,1
     620:	01230333          	add	x6,x6,x18
     624:	00960633          	add	x12,x12,x9
     628:	fa15c8e3          	blt	x11,x1,5d8 <.L64>
     62c:	f1c42c03          	lw	x24,-228(x8)
     630:	09805663          	blez	x24,6bc <.L60>
     634:	00209f93          	slli	x31,x1,0x2

00000638 <.L61>:
     638:	f1042c83          	lw	x25,-240(x8)
     63c:	f1c42283          	lw	x5,-228(x8)
     640:	01f506b3          	add	x13,x10,x31
     644:	00000f13          	li	x30,0
     648:	00000e93          	li	x29,0
     64c:	00000e13          	li	x28,0

00000650 <.L69>:
     650:	002e9713          	slli	x14,x29,0x2
     654:	00ec8633          	add	x12,x25,x14
     658:	00000593          	li	x11,0
     65c:	002f1893          	slli	x17,x30,0x2
     660:	05205463          	blez	x18,6a8 <.L72>

00000664 <.L73>:
     664:	00062f87          	flw	f31,0(x12)
     668:	02105863          	blez	x1,698 <.L70>
     66c:	f0000f53          	fmv.w.x	f30,x0
     670:	00259313          	slli	x6,x11,0x2
     674:	011507b3          	add	x15,x10,x17
     678:	00680c33          	add	x24,x16,x6

0000067c <.L71>:
     67c:	0007ae07          	flw	f28,0(x15)
     680:	000c2e87          	flw	f29,0(x24)
     684:	00478793          	addi	x15,x15,4
     688:	009c0c33          	add	x24,x24,x9
     68c:	f1de7f43          	fmadd.s	f30,f28,f29,f30
     690:	fef696e3          	bne	x13,x15,67c <.L71>
     694:	01efffd3          	fadd.s	f31,f31,f30

00000698 <.L70>:
     698:	01f62027          	fsw	f31,0(x12)
     69c:	00158593          	addi	x11,x11,1
     6a0:	00460613          	addi	x12,x12,4
     6a4:	fcb910e3          	bne	x18,x11,664 <.L73>

000006a8 <.L72>:
     6a8:	001e0e13          	addi	x28,x28,1
     6ac:	012e8eb3          	add	x29,x29,x18
     6b0:	001f0f33          	add	x30,x30,x1
     6b4:	01f686b3          	add	x13,x13,x31
     6b8:	f85e4ce3          	blt	x28,x5,650 <.L69>

000006bc <.L60>:
     6bc:	00100c93          	li	x25,1
     6c0:	00838393          	addi	x7,x7,8

000006c4 <.L67>:
     6c4:	f1842083          	lw	x1,-232(x8)
     6c8:	00108513          	addi	x10,x1,1
     6cc:	f0a42c23          	sw	x10,-232(x8)
     6d0:	f0442803          	lw	x16,-252(x8)
     6d4:	f1442103          	lw	x2,-236(x8)
     6d8:	e1054ee3          	blt	x10,x16,4f4 <.L86>

000006dc <.L44>:
     6dc:	f1c42383          	lw	x7,-228(x8)
     6e0:	08705863          	blez	x7,770 <.L88>

000006e4 <.L42>:
     6e4:	f9442b03          	lw	x22,-108(x8)
     6e8:	f9c42983          	lw	x19,-100(x8)
     6ec:	ee842e83          	lw	x29,-280(x8)
     6f0:	f1042883          	lw	x17,-240(x8)
     6f4:	ef042a03          	lw	x20,-272(x8)
     6f8:	f1c42f83          	lw	x31,-228(x8)
     6fc:	f0c42a83          	lw	x21,-244(x8)
     700:	00000693          	li	x13,0

00000704 <.L89>:
     704:	05205e63          	blez	x18,760 <.L90>
     708:	004b2b83          	lw	x23,4(x22)
     70c:	000b2d03          	lw	x26,0(x22)
     710:	01568db3          	add	x27,x13,x21
     714:	037a0cb3          	mul	x25,x20,x23
     718:	002b9293          	slli	x5,x23,0x2
     71c:	00088613          	mv	x12,x17
     720:	000e8e13          	mv	x28,x29
     724:	00000713          	li	x14,0
     728:	03ad8333          	mul	x6,x27,x26
     72c:	003c9793          	slli	x15,x25,0x3
     730:	00f30c33          	add	x24,x6,x15
     734:	002c1593          	slli	x11,x24,0x2
     738:	00b98f33          	add	x30,x19,x11

0000073c <.L91>:
     73c:	00062087          	flw	f1,0(x12)
     740:	000e2007          	flw	f0,0(x28)
     744:	00170713          	addi	x14,x14,1
     748:	004e0e13          	addi	x28,x28,4
     74c:	001471c3          	fmadd.s	f3,f8,f1,f0
     750:	00460613          	addi	x12,x12,4
     754:	003f2027          	fsw	f3,0(x30)
     758:	005f0f33          	add	x30,x30,x5
     75c:	ff2710e3          	bne	x14,x18,73c <.L91>

00000760 <.L90>:
     760:	00168693          	addi	x13,x13,1
     764:	009e8eb3          	add	x29,x29,x9
     768:	009888b3          	add	x17,x17,x9
     76c:	f9f6cce3          	blt	x13,x31,704 <.L89>

00000770 <.L88>:
     770:	ed442903          	lw	x18,-300(x8)
     774:	00190493          	addi	x9,x18,1
     778:	ec942a23          	sw	x9,-300(x8)
     77c:	ecc42083          	lw	x1,-308(x8)
     780:	eb042103          	lw	x2,-336(x8)
     784:	b2909ce3          	bne	x1,x9,2bc <.L43>

00000788 <.L26>:
     788:	00000837          	lui	x16,0x0
     78c:	00000fb7          	lui	x31,0x0
     790:	00000537          	lui	x10,0x0
     794:	000009b7          	lui	x19,0x0
     798:	00052383          	lw	x7,0(x10) # 0 <tensorlib_addmm>
     79c:	00082b03          	lw	x22,0(x16) # 0 <tensorlib_addmm>
     7a0:	0009aa03          	lw	x20,0(x19) # 0 <tensorlib_addmm>
     7a4:	000faa83          	lw	x21,0(x31) # 0 <tensorlib_addmm>
     7a8:	00000bb7          	lui	x23,0x0
     7ac:	000bad03          	lw	x26,0(x23) # 0 <tensorlib_addmm>
     7b0:	01638db3          	add	x27,x7,x22
     7b4:	015a0cb3          	add	x25,x20,x21
     7b8:	018d9293          	slli	x5,x27,0x18
     7bc:	3f0007b7          	lui	x15,0x3f000
     7c0:	012c9313          	slli	x6,x25,0x12
     7c4:	00fc05b7          	lui	x11,0xfc0
     7c8:	00040f37          	lui	x30,0x40
     7cc:	00f2fc33          	and	x24,x5,x15
     7d0:	004d1e13          	slli	x28,x26,0x4
     7d4:	00b37733          	and	x14,x6,x11
     7d8:	ff0f0693          	addi	x13,x30,-16 # 3fff0 <.L167+0x3ef90>
     7dc:	00ec6633          	or	x12,x24,x14
     7e0:	00de7eb3          	and	x29,x28,x13
     7e4:	01d668b3          	or	x17,x12,x29
     7e8:	c0000937          	lui	x18,0xc0000
     7ec:	0128e4b3          	or	x9,x17,x18
     7f0:	410010b7          	lui	x1,0x41001
     7f4:	d090a623          	sw	x9,-756(x1) # 41000d0c <.L167+0x40fffcac>
     7f8:	000fa503          	lw	x10,0(x31)
     7fc:	00082383          	lw	x7,0(x16)
     800:	00000b37          	lui	x22,0x0
     804:	00450813          	addi	x16,x10,4
     808:	000b0793          	mv	x15,x22
     80c:	010789b3          	add	x19,x15,x16
     810:	01839a13          	slli	x20,x7,0x18
     814:	0149eab3          	or	x21,x19,x20
     818:	20040bb7          	lui	x23,0x20040
     81c:	017aed33          	or	x26,x21,x23
     820:	00100d93          	li	x27,1
     824:	01bd0023          	sb	x27,0(x26)
     828:	000faf83          	lw	x31,0(x31)
     82c:	1bbf8863          	beq	x31,x27,9dc <.L92>

00000830 <.L103>:
     830:	00100f13          	li	x30,1
     834:	0100006f          	j	844 <.L107>

00000838 <.L163>:
     838:	000b0e93          	mv	x29,x22
     83c:	140ea8af          	lr.w.aq	x17,(x29)
     840:	01e88863          	beq	x17,x30,850 <.L106>

00000844 <.L107>:
     844:	000b0713          	mv	x14,x22
     848:	100726af          	lr.w	x13,(x14)
     84c:	ffe696e3          	bne	x13,x30,838 <.L163>

00000850 <.L106>:
     850:	0007a023          	sw	x0,0(x15) # 3f000000 <.L167+0x3effefa0>
     854:	e9040113          	addi	x2,x8,-368
     858:	16c12083          	lw	x1,364(x2)
     85c:	16812403          	lw	x8,360(x2)
     860:	16412483          	lw	x9,356(x2)
     864:	16012903          	lw	x18,352(x2)
     868:	15c12983          	lw	x19,348(x2)
     86c:	15812a03          	lw	x20,344(x2)
     870:	15412a83          	lw	x21,340(x2)
     874:	15012b03          	lw	x22,336(x2)
     878:	14c12b83          	lw	x23,332(x2)
     87c:	14812c03          	lw	x24,328(x2)
     880:	14412c83          	lw	x25,324(x2)
     884:	14012d03          	lw	x26,320(x2)
     888:	13c12d83          	lw	x27,316(x2)
     88c:	12c12407          	flw	f8,300(x2)
     890:	12812487          	flw	f9,296(x2)
     894:	00000513          	li	x10,0
     898:	17010113          	addi	x2,x2,368
     89c:	00008067          	ret

000008a0 <.L158>:
     8a0:	000004b7          	lui	x9,0x0
     8a4:	00000537          	lui	x10,0x0
     8a8:	06b00613          	li	x12,107
     8ac:	00048593          	mv	x11,x9
     8b0:	00050513          	mv	x10,x10
     8b4:	00000097          	auipc	x1,0x0
     8b8:	000080e7          	jalr	x1 # 8b4 <.L158+0x14>
     8bc:	f4842583          	lw	x11,-184(x8)
     8c0:	00000637          	lui	x12,0x0
     8c4:	00060513          	mv	x10,x12
     8c8:	00000097          	auipc	x1,0x0
     8cc:	000080e7          	jalr	x1 # 8c8 <.L158+0x28>
     8d0:	000003b7          	lui	x7,0x0
     8d4:	0003a803          	lw	x16,0(x7) # 0 <tensorlib_addmm>
     8d8:	000009b7          	lui	x19,0x0
     8dc:	0009aa03          	lw	x20,0(x19) # 0 <tensorlib_addmm>
     8e0:	01081793          	slli	x15,x16,0x10
     8e4:	4100fbb7          	lui	x23,0x4100f
     8e8:	01478ab3          	add	x21,x15,x20
     8ec:	ad5bac23          	sw	x21,-1320(x23) # 4100ead8 <.L167+0x4100da78>

000008f0 <.L13>:
     8f0:	0000006f          	j	8f0 <.L13>

000008f4 <.L157>:
     8f4:	000000b7          	lui	x1,0x0
     8f8:	00000d37          	lui	x26,0x0
     8fc:	00008593          	mv	x11,x1
     900:	06b00613          	li	x12,107
     904:	000d0513          	mv	x10,x26
     908:	00000097          	auipc	x1,0x0
     90c:	000080e7          	jalr	x1 # 908 <.L157+0x14>
     910:	f4842583          	lw	x11,-184(x8)
     914:	00000db7          	lui	x27,0x0
     918:	000d8513          	mv	x10,x27
     91c:	00000097          	auipc	x1,0x0
     920:	000080e7          	jalr	x1 # 91c <.L157+0x28>
     924:	00000fb7          	lui	x31,0x0
     928:	000fac83          	lw	x25,0(x31) # 0 <tensorlib_addmm>
     92c:	000002b7          	lui	x5,0x0
     930:	0002ac03          	lw	x24,0(x5) # 0 <tensorlib_addmm>
     934:	010c9313          	slli	x6,x25,0x10
     938:	4100ff37          	lui	x30,0x4100f
     93c:	01830e33          	add	x28,x6,x24
     940:	adcf2c23          	sw	x28,-1320(x30) # 4100ead8 <.L167+0x4100da78>

00000944 <.L11>:
     944:	0000006f          	j	944 <.L11>

00000948 <.L161>:
     948:	00000b37          	lui	x22,0x0
     94c:	00000937          	lui	x18,0x0
     950:	02400613          	li	x12,36
     954:	000b0593          	mv	x11,x22
     958:	00090513          	mv	x10,x18
     95c:	00000097          	auipc	x1,0x0
     960:	000080e7          	jalr	x1 # 95c <.L161+0x14>
     964:	00000637          	lui	x12,0x0
     968:	00062483          	lw	x9,0(x12) # 0 <tensorlib_addmm>
     96c:	00000537          	lui	x10,0x0
     970:	00052383          	lw	x7,0(x10) # 0 <tensorlib_addmm>
     974:	01049813          	slli	x16,x9,0x10
     978:	4100fa37          	lui	x20,0x4100f
     97c:	007809b3          	add	x19,x16,x7
     980:	ad3a2c23          	sw	x19,-1320(x20) # 4100ead8 <.L167+0x4100da78>

00000984 <.L19>:
     984:	0000006f          	j	984 <.L19>

00000988 <.L159>:
     988:	00000337          	lui	x6,0x0
     98c:	00000e37          	lui	x28,0x0
     990:	00030593          	mv	x11,x6
     994:	06b00613          	li	x12,107
     998:	000e0513          	mv	x10,x28
     99c:	00000097          	auipc	x1,0x0
     9a0:	000080e7          	jalr	x1 # 99c <.L159+0x14>
     9a4:	f6c42583          	lw	x11,-148(x8)
     9a8:	00000f37          	lui	x30,0x0
     9ac:	000f0513          	mv	x10,x30
     9b0:	00000097          	auipc	x1,0x0
     9b4:	000080e7          	jalr	x1 # 9b0 <.L159+0x28>
     9b8:	000005b7          	lui	x11,0x0
     9bc:	0005a683          	lw	x13,0(x11) # 0 <tensorlib_addmm>
     9c0:	00000737          	lui	x14,0x0
     9c4:	00072e83          	lw	x29,0(x14) # 0 <tensorlib_addmm>
     9c8:	01069893          	slli	x17,x13,0x10
     9cc:	4100f937          	lui	x18,0x4100f
     9d0:	01d88b33          	add	x22,x17,x29
     9d4:	ad692c23          	sw	x22,-1320(x18) # 4100ead8 <.L167+0x4100da78>

000009d8 <.L15>:
     9d8:	0000006f          	j	9d8 <.L15>

000009dc <.L92>:
     9dc:	0047cc83          	lbu	x25,4(x15)
     9e0:	0ffcf293          	andi	x5,x25,255
     9e4:	fe028ce3          	beqz	x5,9dc <.L92>
     9e8:	0057c303          	lbu	x6,5(x15)
     9ec:	0ff37c13          	andi	x24,x6,255
     9f0:	fe0c06e3          	beqz	x24,9dc <.L92>
     9f4:	0067c583          	lbu	x11,6(x15)
     9f8:	0ff5f713          	andi	x14,x11,255
     9fc:	fe0700e3          	beqz	x14,9dc <.L92>
     a00:	0077ce03          	lbu	x28,7(x15)
     a04:	0ffe7613          	andi	x12,x28,255
     a08:	fc060ae3          	beqz	x12,9dc <.L92>
     a0c:	00000f37          	lui	x30,0x0
     a10:	000f2683          	lw	x13,0(x30) # 0 <tensorlib_addmm>
     a14:	210404b7          	lui	x9,0x21040
     a18:	00100e93          	li	x29,1
     a1c:	00c68893          	addi	x17,x13,12
     a20:	01178933          	add	x18,x15,x17
     a24:	009960b3          	or	x1,x18,x9
     a28:	01d08023          	sb	x29,0(x1)
     a2c:	00000537          	lui	x10,0x0
     a30:	00052383          	lw	x7,0(x10) # 0 <tensorlib_addmm>
     a34:	dfd39ee3          	bne	x7,x29,830 <.L103>
     a38:	000f2083          	lw	x1,0(x30)
     a3c:	0c708863          	beq	x1,x7,b0c <.L97>

00000a40 <.L102>:
     a40:	00100513          	li	x10,1
     a44:	0100006f          	j	a54 <.L96>

00000a48 <.L164>:
     a48:	00878993          	addi	x19,x15,8
     a4c:	1409aa2f          	lr.w.aq	x20,(x19)
     a50:	00aa0863          	beq	x20,x10,a60 <.L104>

00000a54 <.L96>:
     a54:	00878393          	addi	x7,x15,8
     a58:	1003a82f          	lr.w	x16,(x7)
     a5c:	fea816e3          	bne	x16,x10,a48 <.L164>

00000a60 <.L104>:
     a60:	0007a423          	sw	x0,8(x15)
     a64:	00078223          	sb	x0,4(x15)
     a68:	000782a3          	sb	x0,5(x15)
     a6c:	00078323          	sb	x0,6(x15)
     a70:	000783a3          	sb	x0,7(x15)
     a74:	0007a023          	sw	x0,0(x15)
     a78:	00000c13          	li	x24,0
     a7c:	000b0793          	mv	x15,x22
     a80:	20000ab7          	lui	x21,0x20000
     a84:	00100b93          	li	x23,1
     a88:	00040d37          	lui	x26,0x40
     a8c:	00100db7          	lui	x27,0x100

00000a90 <.L105>:
     a90:	00000fb7          	lui	x31,0x0
     a94:	000fac83          	lw	x25,0(x31) # 0 <tensorlib_addmm>
     a98:	0187e2b3          	or	x5,x15,x24
     a9c:	01ac0c33          	add	x24,x24,x26
     aa0:	018c9313          	slli	x6,x25,0x18
     aa4:	005365b3          	or	x11,x6,x5
     aa8:	0155ee33          	or	x28,x11,x21
     aac:	017e2023          	sw	x23,0(x28) # 0 <tensorlib_addmm>
     ab0:	ffbc10e3          	bne	x24,x27,a90 <.L105>
     ab4:	d7dff06f          	j	830 <.L103>

00000ab8 <.L160>:
     ab8:	000000b7          	lui	x1,0x0
     abc:	000007b7          	lui	x15,0x0
     ac0:	00008593          	mv	x11,x1
     ac4:	06b00613          	li	x12,107
     ac8:	00078513          	mv	x10,x15
     acc:	00000097          	auipc	x1,0x0
     ad0:	000080e7          	jalr	x1 # acc <.L160+0x14>
     ad4:	f6c42583          	lw	x11,-148(x8)
     ad8:	00000ab7          	lui	x21,0x0
     adc:	000a8513          	mv	x10,x21
     ae0:	00000bb7          	lui	x23,0x0
     ae4:	00000097          	auipc	x1,0x0
     ae8:	000080e7          	jalr	x1 # ae4 <.L160+0x2c>
     aec:	00000db7          	lui	x27,0x0
     af0:	000bad03          	lw	x26,0(x23) # 0 <tensorlib_addmm>
     af4:	000daf83          	lw	x31,0(x27) # 0 <tensorlib_addmm>
     af8:	4100fc37          	lui	x24,0x4100f
     afc:	010d1c93          	slli	x25,x26,0x10
     b00:	01fc82b3          	add	x5,x25,x31
     b04:	ac5c2c23          	sw	x5,-1320(x24) # 4100ead8 <.L167+0x4100da78>

00000b08 <.L17>:
     b08:	0000006f          	j	b08 <.L17>

00000b0c <.L97>:
     b0c:	00c7c803          	lbu	x16,12(x15) # c <tensorlib_addmm+0xc>
     b10:	0ff87993          	andi	x19,x16,255
     b14:	fe098ce3          	beqz	x19,b0c <.L97>
     b18:	00d7ca03          	lbu	x20,13(x15)
     b1c:	0ffa7a93          	andi	x21,x20,255
     b20:	fe0a86e3          	beqz	x21,b0c <.L97>
     b24:	00e7cb83          	lbu	x23,14(x15)
     b28:	0ffbfd13          	andi	x26,x23,255
     b2c:	fe0d00e3          	beqz	x26,b0c <.L97>
     b30:	00f7cd83          	lbu	x27,15(x15)
     b34:	0ffdff93          	andi	x31,x27,255
     b38:	fc0f8ae3          	beqz	x31,b0c <.L97>
     b3c:	00078623          	sb	x0,12(x15)
     b40:	000786a3          	sb	x0,13(x15)
     b44:	00078723          	sb	x0,14(x15)
     b48:	000787a3          	sb	x0,15(x15)
     b4c:	00000cb7          	lui	x25,0x0
     b50:	0007a423          	sw	x0,8(x15)
     b54:	00000613          	li	x12,0
     b58:	008c8293          	addi	x5,x25,8 # 8 <tensorlib_addmm+0x8>
     b5c:	03fc0c37          	lui	x24,0x3fc0
     b60:	20000337          	lui	x6,0x20000
     b64:	00100593          	li	x11,1
     b68:	01000e37          	lui	x28,0x1000
     b6c:	04000f37          	lui	x30,0x4000

00000b70 <.L101>:
     b70:	01209713          	slli	x14,x1,0x12
     b74:	00c2e6b3          	or	x13,x5,x12
     b78:	01877eb3          	and	x29,x14,x24
     b7c:	00dee8b3          	or	x17,x29,x13
     b80:	0068e933          	or	x18,x17,x6
     b84:	00b92023          	sw	x11,0(x18)
     b88:	000004b7          	lui	x9,0x0
     b8c:	01c60633          	add	x12,x12,x28
     b90:	0004a083          	lw	x1,0(x9) # 0 <tensorlib_addmm>
     b94:	fde61ee3          	bne	x12,x30,b70 <.L101>
     b98:	eab084e3          	beq	x1,x11,a40 <.L102>
     b9c:	c95ff06f          	j	830 <.L103>

00000ba0 <.L108>:
     ba0:	edc42903          	lw	x18,-292(x8)
     ba4:	00800d13          	li	x26,8
     ba8:	f5a90463          	beq	x18,x26,2f0 <.L114>
     bac:	ea042603          	lw	x12,-352(x8)
     bb0:	00800f93          	li	x31,8
     bb4:	f1f42e23          	sw	x31,-228(x8)
     bb8:	40c10133          	sub	x2,x2,x12
     bbc:	f0242823          	sw	x2,-240(x8)
     bc0:	40c10133          	sub	x2,x2,x12
     bc4:	eac42603          	lw	x12,-340(x8)
     bc8:	ee242423          	sw	x2,-280(x8)

00000bcc <.L33>:
     bcc:	ef042a03          	lw	x20,-272(x8)
     bd0:	ee842283          	lw	x5,-280(x8)
     bd4:	f1c42c03          	lw	x24,-228(x8)
     bd8:	00291493          	slli	x9,x18,0x2
     bdc:	003b9b93          	slli	x23,x23,0x3
     be0:	003a1993          	slli	x19,x20,0x3
     be4:	f1742623          	sw	x23,-244(x8)
     be8:	f1342423          	sw	x19,-248(x8)
     bec:	00928533          	add	x10,x5,x9
     bf0:	00000893          	li	x17,0
     bf4:	00000813          	li	x16,0

00000bf8 <.L38>:
     bf8:	05205463          	blez	x18,c40 <.L39>
     bfc:	0040a683          	lw	x13,4(x1)
     c00:	0000a383          	lw	x7,0(x1)
     c04:	01780733          	add	x14,x16,x23
     c08:	02d98333          	mul	x6,x19,x13
     c0c:	00289b13          	slli	x22,x17,0x2
     c10:	00269d13          	slli	x26,x13,0x2
     c14:	016287b3          	add	x15,x5,x22
     c18:	02770db3          	mul	x27,x14,x7
     c1c:	006d8e33          	add	x28,x27,x6
     c20:	002e1e93          	slli	x29,x28,0x2
     c24:	01d58cb3          	add	x25,x11,x29

00000c28 <.L40>:
     c28:	000cae07          	flw	f28,0(x25)
     c2c:	00478793          	addi	x15,x15,4
     c30:	01ac8cb3          	add	x25,x25,x26
     c34:	109e7ed3          	fmul.s	f29,f28,f9
     c38:	ffd7ae27          	fsw	f29,-4(x15)
     c3c:	fef516e3          	bne	x10,x15,c28 <.L40>

00000c40 <.L39>:
     c40:	00180813          	addi	x16,x16,1
     c44:	012888b3          	add	x17,x17,x18
     c48:	00950533          	add	x10,x10,x9
     c4c:	fb8846e3          	blt	x16,x24,bf8 <.L38>
     c50:	00100c93          	li	x25,1
     c54:	fe8ff06f          	j	43c <.L37>

00000c58 <.L47>:
     c58:	ec442e03          	lw	x28,-316(x8)
     c5c:	ec042e83          	lw	x29,-320(x8)
     c60:	f1c42803          	lw	x16,-228(x8)
     c64:	41c10133          	sub	x2,x2,x28
     c68:	00010693          	mv	x13,x2
     c6c:	eed42223          	sw	x13,-284(x8)
     c70:	41d10133          	sub	x2,x2,x29
     c74:	f4c42083          	lw	x1,-180(x8)
     c78:	f5442f83          	lw	x31,-172(x8)
     c7c:	f0c42e83          	lw	x29,-244(x8)
     c80:	00010c93          	mv	x25,x2
     c84:	0f005063          	blez	x16,d64 <.L74>
     c88:	eec42583          	lw	x11,-276(x8)

00000c8c <.L75>:
     c8c:	0040a783          	lw	x15,4(x1)
     c90:	0000a883          	lw	x17,0(x1)
     c94:	02778c33          	mul	x24,x15,x7
     c98:	031e8633          	mul	x12,x29,x17
     c9c:	01878f33          	add	x30,x15,x24
     ca0:	01e78333          	add	x6,x15,x30
     ca4:	00678e33          	add	x28,x15,x6
     ca8:	01c78833          	add	x16,x15,x28
     cac:	01078533          	add	x10,x15,x16
     cb0:	00a782b3          	add	x5,x15,x10
     cb4:	00f607b3          	add	x15,x12,x15
     cb8:	01860733          	add	x14,x12,x24
     cbc:	00660333          	add	x6,x12,x6
     cc0:	01e60c33          	add	x24,x12,x30
     cc4:	01c608b3          	add	x17,x12,x28
     cc8:	00a60533          	add	x10,x12,x10
     ccc:	01060e33          	add	x28,x12,x16
     cd0:	00560633          	add	x12,x12,x5
     cd4:	005782b3          	add	x5,x15,x5
     cd8:	002c1f13          	slli	x30,x24,0x2
     cdc:	002e1813          	slli	x16,x28,0x2
     ce0:	00229793          	slli	x15,x5,0x2
     ce4:	00271713          	slli	x14,x14,0x2
     ce8:	00231c13          	slli	x24,x6,0x2
     cec:	00289893          	slli	x17,x17,0x2
     cf0:	00251e13          	slli	x28,x10,0x2
     cf4:	00261613          	slli	x12,x12,0x2
     cf8:	00ef82b3          	add	x5,x31,x14
     cfc:	018f8333          	add	x6,x31,x24
     d00:	01ef8733          	add	x14,x31,x30
     d04:	010f8c33          	add	x24,x31,x16
     d08:	011f8f33          	add	x30,x31,x17
     d0c:	01cf8533          	add	x10,x31,x28
     d10:	00cf88b3          	add	x17,x31,x12
     d14:	00ff8833          	add	x16,x31,x15
     d18:	0002af07          	flw	f30,0(x5)
     d1c:	00072f87          	flw	f31,0(x14)
     d20:	00032087          	flw	f1,0(x6) # 20000000 <.L167+0x1fffefa0>
     d24:	000f2007          	flw	f0,0(x30) # 4000000 <.L167+0x3ffefa0>
     d28:	000c2507          	flw	f10,0(x24) # 3fc0000 <.L167+0x3fbefa0>
     d2c:	00052587          	flw	f11,0(x10)
     d30:	0008a607          	flw	f12,0(x17)
     d34:	00082687          	flw	f13,0(x16)
     d38:	01e6a027          	fsw	f30,0(x13)
     d3c:	01f6a227          	fsw	f31,4(x13)
     d40:	0016a427          	fsw	f1,8(x13)
     d44:	0006a627          	fsw	f0,12(x13)
     d48:	00a6a827          	fsw	f10,16(x13)
     d4c:	00b6aa27          	fsw	f11,20(x13)
     d50:	00c6ac27          	fsw	f12,24(x13)
     d54:	00d6ae27          	fsw	f13,28(x13)
     d58:	001e8e93          	addi	x29,x29,1
     d5c:	02068693          	addi	x13,x13,32
     d60:	f3d596e3          	bne	x11,x29,c8c <.L75>

00000d64 <.L74>:
     d64:	ef642023          	sw	x22,-288(x8)
     d68:	f7042083          	lw	x1,-144(x8)
     d6c:	f7842f83          	lw	x31,-136(x8)
     d70:	f0842b03          	lw	x22,-248(x8)
     d74:	00038293          	mv	x5,x7
     d78:	00000c13          	li	x24,0
     d7c:	00838393          	addi	x7,x7,8

00000d80 <.L50>:
     d80:	002c1593          	slli	x11,x24,0x2
     d84:	00bc86b3          	add	x13,x25,x11
     d88:	000b0e93          	mv	x29,x22
     d8c:	0d205e63          	blez	x18,e68 <.L78>

00000d90 <.L79>:
     d90:	0040ae03          	lw	x28,4(x1)
     d94:	0000a603          	lw	x12,0(x1)
     d98:	03de0333          	mul	x6,x28,x29
     d9c:	02c28733          	mul	x14,x5,x12
     da0:	006e08b3          	add	x17,x28,x6
     da4:	011e0833          	add	x16,x28,x17
     da8:	010e0533          	add	x10,x28,x16
     dac:	00ae05b3          	add	x11,x28,x10
     db0:	00be0633          	add	x12,x28,x11
     db4:	00ce0f33          	add	x30,x28,x12
     db8:	01c707b3          	add	x15,x14,x28
     dbc:	011708b3          	add	x17,x14,x17
     dc0:	00670e33          	add	x28,x14,x6
     dc4:	01070833          	add	x16,x14,x16
     dc8:	00a70533          	add	x10,x14,x10
     dcc:	00b705b3          	add	x11,x14,x11
     dd0:	00c70633          	add	x12,x14,x12
     dd4:	01e70733          	add	x14,x14,x30
     dd8:	01e78f33          	add	x30,x15,x30
     ddc:	002e1313          	slli	x6,x28,0x2
     de0:	002f1793          	slli	x15,x30,0x2
     de4:	00289e13          	slli	x28,x17,0x2
     de8:	00281813          	slli	x16,x16,0x2
     dec:	00251513          	slli	x10,x10,0x2
     df0:	00259593          	slli	x11,x11,0x2
     df4:	00261613          	slli	x12,x12,0x2
     df8:	00271713          	slli	x14,x14,0x2
     dfc:	006f8f33          	add	x30,x31,x6
     e00:	01cf88b3          	add	x17,x31,x28
     e04:	010f8333          	add	x6,x31,x16
     e08:	00af8e33          	add	x28,x31,x10
     e0c:	00bf8833          	add	x16,x31,x11
     e10:	00cf8533          	add	x10,x31,x12
     e14:	00ef85b3          	add	x11,x31,x14
     e18:	00ff8633          	add	x12,x31,x15
     e1c:	000f2107          	flw	f2,0(x30)
     e20:	0008a187          	flw	f3,0(x17)
     e24:	00032207          	flw	f4,0(x6)
     e28:	000e2287          	flw	f5,0(x28) # 1000000 <.L167+0xffefa0>
     e2c:	00082307          	flw	f6,0(x16)
     e30:	00052387          	flw	f7,0(x10)
     e34:	0005a707          	flw	f14,0(x11)
     e38:	00062787          	flw	f15,0(x12)
     e3c:	0026a027          	fsw	f2,0(x13)
     e40:	0036a227          	fsw	f3,4(x13)
     e44:	0046a427          	fsw	f4,8(x13)
     e48:	0056a627          	fsw	f5,12(x13)
     e4c:	0066a827          	fsw	f6,16(x13)
     e50:	0076aa27          	fsw	f7,20(x13)
     e54:	00e6ac27          	fsw	f14,24(x13)
     e58:	00f6ae27          	fsw	f15,28(x13)
     e5c:	008e8e93          	addi	x29,x29,8
     e60:	02068693          	addi	x13,x13,32
     e64:	f3d996e3          	bne	x19,x29,d90 <.L79>

00000e68 <.L78>:
     e68:	00128293          	addi	x5,x5,1
     e6c:	012c0c33          	add	x24,x24,x18
     e70:	f05398e3          	bne	x7,x5,d80 <.L50>
     e74:	f1c42083          	lw	x1,-228(x8)
     e78:	ee042b03          	lw	x22,-288(x8)
     e7c:	0c105663          	blez	x1,f48 <.L82>
     e80:	ee442603          	lw	x12,-284(x8)
     e84:	f1042f03          	lw	x30,-240(x8)
     e88:	f1c42883          	lw	x17,-228(x8)
     e8c:	009c8fb3          	add	x31,x25,x9
     e90:	00000813          	li	x16,0
     e94:	00000513          	li	x10,0

00000e98 <.L83>:
     e98:	0b205063          	blez	x18,f38 <.L84>
     e9c:	00062807          	flw	f16,0(x12)
     ea0:	00462887          	flw	f17,4(x12)
     ea4:	00862e07          	flw	f28,8(x12)
     ea8:	00c62e87          	flw	f29,12(x12)
     eac:	01062f07          	flw	f30,16(x12)
     eb0:	01462f87          	flw	f31,20(x12)
     eb4:	01862087          	flw	f1,24(x12)
     eb8:	01c62007          	flw	f0,28(x12)
     ebc:	00281713          	slli	x14,x16,0x2
     ec0:	00ef00b3          	add	x1,x30,x14
     ec4:	000c8793          	mv	x15,x25

00000ec8 <.L85>:
     ec8:	0000a587          	flw	f11,0(x1)
     ecc:	0007a507          	flw	f10,0(x15)
     ed0:	00978333          	add	x6,x15,x9
     ed4:	00032687          	flw	f13,0(x6)
     ed8:	58a87643          	fmadd.s	f12,f16,f10,f11
     edc:	01578e33          	add	x28,x15,x21
     ee0:	000e2107          	flw	f2,0(x28)
     ee4:	017785b3          	add	x11,x15,x23
     ee8:	0005a187          	flw	f3,0(x11)
     eec:	60d8f243          	fmadd.s	f4,f17,f13,f12
     ef0:	01678eb3          	add	x29,x15,x22
     ef4:	000ea287          	flw	f5,0(x29)
     ef8:	014786b3          	add	x13,x15,x20
     efc:	0006a307          	flw	f6,0(x13)
     f00:	202e73c3          	fmadd.s	f7,f28,f2,f4
     f04:	01a782b3          	add	x5,x15,x26
     f08:	0002a707          	flw	f14,0(x5)
     f0c:	01b78c33          	add	x24,x15,x27
     f10:	000c2787          	flw	f15,0(x24)
     f14:	383ef5c3          	fmadd.s	f11,f29,f3,f7
     f18:	00408093          	addi	x1,x1,4
     f1c:	00478793          	addi	x15,x15,4
     f20:	585f7543          	fmadd.s	f10,f30,f5,f11
     f24:	506ff6c3          	fmadd.s	f13,f31,f6,f10
     f28:	68e0f643          	fmadd.s	f12,f1,f14,f13
     f2c:	60f07143          	fmadd.s	f2,f0,f15,f12
     f30:	fe20ae27          	fsw	f2,-4(x1)
     f34:	f8ff9ae3          	bne	x31,x15,ec8 <.L85>

00000f38 <.L84>:
     f38:	00150513          	addi	x10,x10,1
     f3c:	01280833          	add	x16,x16,x18
     f40:	02060613          	addi	x12,x12,32
     f44:	f5151ae3          	bne	x10,x17,e98 <.L83>

00000f48 <.L82>:
     f48:	00000c93          	li	x25,0
     f4c:	f78ff06f          	j	6c4 <.L67>

00000f50 <.L45>:
     f50:	040c9663          	bnez	x25,f9c <.L118>
     f54:	ef842c83          	lw	x25,-264(x8)
     f58:	00800713          	li	x14,8
     f5c:	ceec8ee3          	beq	x25,x14,c58 <.L47>
     f60:	eb842c83          	lw	x25,-328(x8)
     f64:	eb442f83          	lw	x31,-332(x8)
     f68:	f1c42783          	lw	x15,-228(x8)
     f6c:	41910133          	sub	x2,x2,x25
     f70:	00010513          	mv	x10,x2
     f74:	41f10133          	sub	x2,x2,x31
     f78:	ef842083          	lw	x1,-264(x8)
     f7c:	f4c42c03          	lw	x24,-180(x8)
     f80:	f5442c83          	lw	x25,-172(x8)
     f84:	00010813          	mv	x16,x2
     f88:	dcf04863          	bgtz	x15,558 <.L165>

00000f8c <.L52>:
     f8c:	f7042c03          	lw	x24,-144(x8)
     f90:	f7842c83          	lw	x25,-136(x8)
     f94:	e2104a63          	bgtz	x1,5c8 <.L59>
     f98:	f24ff06f          	j	6bc <.L60>

00000f9c <.L118>:
     f9c:	ef842083          	lw	x1,-264(x8)
     fa0:	d74ff06f          	j	514 <.L46>

00000fa4 <.L162>:
     fa4:	ef042303          	lw	x6,-272(x8)
     fa8:	ebc42383          	lw	x7,-324(x8)
     fac:	02731e63          	bne	x6,x7,fe8 <.L166>
     fb0:	ef442c83          	lw	x25,-268(x8)
     fb4:	00800813          	li	x16,8
     fb8:	bf0c84e3          	beq	x25,x16,ba0 <.L108>
     fbc:	e9c42f03          	lw	x30,-356(x8)
     fc0:	ea842603          	lw	x12,-344(x8)
     fc4:	edc42903          	lw	x18,-292(x8)
     fc8:	41e10133          	sub	x2,x2,x30
     fcc:	f0242823          	sw	x2,-240(x8)
     fd0:	41e10133          	sub	x2,x2,x30
     fd4:	ee242423          	sw	x2,-280(x8)

00000fd8 <.L34>:
     fd8:	ef442a83          	lw	x21,-268(x8)
     fdc:	03505e63          	blez	x21,1018 <.L35>
     fe0:	f1542e23          	sw	x21,-228(x8)
     fe4:	be9ff06f          	j	bcc <.L33>

00000fe8 <.L166>:
     fe8:	ef442c03          	lw	x24,-268(x8)
     fec:	00800693          	li	x13,8
     ff0:	06dc0863          	beq	x24,x13,1060 <.L167>
     ff4:	e9842b03          	lw	x22,-360(x8)
     ff8:	ec842603          	lw	x12,-312(x8)
     ffc:	00800913          	li	x18,8
    1000:	004b1893          	slli	x17,x22,0x4
    1004:	41110133          	sub	x2,x2,x17
    1008:	f0242823          	sw	x2,-240(x8)
    100c:	41110133          	sub	x2,x2,x17
    1010:	ee242423          	sw	x2,-280(x8)
    1014:	fc5ff06f          	j	fd8 <.L34>

00001018 <.L35>:
    1018:	f1042503          	lw	x10,-240(x8)
    101c:	00000593          	li	x11,0
    1020:	00000097          	auipc	x1,0x0
    1024:	000080e7          	jalr	x1 # 1020 <.L35+0x8>
    1028:	ed842483          	lw	x9,-296(x8)
    102c:	f4905263          	blez	x9,770 <.L88>
    1030:	003b9a93          	slli	x21,x23,0x3
    1034:	ef042b83          	lw	x23,-272(x8)
    1038:	ef442f03          	lw	x30,-268(x8)
    103c:	ec842f83          	lw	x31,-312(x8)
    1040:	003b9a13          	slli	x20,x23,0x3
    1044:	000f0613          	mv	x12,x30
    1048:	f1e42e23          	sw	x30,-228(x8)
    104c:	00100c93          	li	x25,1
    1050:	f1542623          	sw	x21,-244(x8)
    1054:	f1442423          	sw	x20,-248(x8)
    1058:	00291493          	slli	x9,x18,0x2
    105c:	c04ff06f          	j	460 <.L110>

00001060 <.L167>:
    1060:	ec842603          	lw	x12,-312(x8)
    1064:	a90ff06f          	j	2f4 <.L31>

Disassembly of section .rodata._ZN8HBTensorIfLl2EEC2EP11hb_tensor_t.str1.4:

00000000 <.LC0>:
   0:	726f772f          	0x726f772f
   4:	6c672f6b          	0x6c672f6b
   8:	6c61626f          	jal	x4,166ce <.L167+0x1566e>
   c:	33726b2f          	0x33726b2f
  10:	3739                	jal	ffffff1e <.L167+0xffffeebe>
  12:	2d62682f          	0x2d62682f
  16:	7970                	flw	f12,116(x10)
  18:	6f74                	flw	f13,92(x14)
  1a:	6372                	flw	f6,28(x2)
  1c:	2f68                	fld	f10,216(x14)
  1e:	6168                	flw	f10,68(x10)
  20:	6d6d                	lui	x26,0x1b
  22:	7265                	lui	x4,0xffff9
  24:	6c62                	flw	f24,24(x2)
  26:	6461                	lui	x8,0x18
  28:	2f65                	jal	7e0 <.L26+0x58>
  2a:	6f74                	flw	f13,92(x14)
  2c:	6372                	flw	f6,28(x2)
  2e:	2f68                	fld	f10,216(x14)
  30:	6e72656b          	0x6e72656b
  34:	6c65                	lui	x24,0x19
  36:	5f62682f          	0x5f62682f
  3a:	6574                	flw	f13,76(x10)
  3c:	736e                	flw	f6,248(x2)
  3e:	682e726f          	jal	x4,e76c0 <.L167+0xe6660>
  42:	7070                	flw	f12,100(x8)
  44:	0000                	unimp
	...

00000048 <.LC1>:
  48:	7361                	lui	x6,0xffff8
  4a:	74726573          	csrrsi	x10,0x747,4
  4e:	6620                	flw	f8,72(x12)
  50:	6961                	lui	x18,0x18
  52:	656c                	flw	f11,76(x10)
  54:	2064                	fld	f9,192(x8)
  56:	7461                	lui	x8,0xffff8
  58:	2520                	fld	f8,72(x10)
  5a:	64253a73          	csrrc	x20,0x642,x10
  5e:	0020                	addi	x8,x2,8

00000060 <.LC2>:
  60:	7265                	lui	x4,0xffff9
  62:	6f72                	flw	f30,28(x2)
  64:	3a72                	fld	f20,312(x2)
  66:	4820                	lw	x8,80(x8)
  68:	5442                	lw	x8,48(x2)
  6a:	6e65                	lui	x28,0x19
  6c:	20726f73          	csrrsi	x30,0x207,4
  70:	6964                	flw	f9,84(x10)
  72:	736d                	lui	x6,0xffffb
  74:	6420                	flw	f8,72(x8)
  76:	74276e6f          	jal	x28,767b8 <.L167+0x75758>
  7a:	6d20                	flw	f8,88(x10)
  7c:	7461                	lui	x8,0xffff8
  7e:	6f206863          	bltu	x0,x18,76e <.L90+0xe>
  82:	6666                	flw	f12,88(x2)
  84:	6f6c                	flw	f11,92(x14)
  86:	6561                	lui	x10,0x18
  88:	2064                	fld	f9,192(x8)
  8a:	6574                	flw	f13,76(x10)
  8c:	736e                	flw	f6,248(x2)
  8e:	6420726f          	jal	x4,76d0 <.L167+0x6670>
  92:	6d69                	lui	x26,0x1a
  94:	          	ecall

Disassembly of section .text._ZN8HBTensorIfLl2EEC2EP11hb_tensor_t:

00000000 <_ZN8HBTensorIfLl2EEC1EP11hb_tensor_t>:
   0:	00058713          	mv	x14,x11
   4:	00072803          	lw	x16,0(x14)
   8:	0105a583          	lw	x11,16(x11)
   c:	00050793          	mv	x15,x10
  10:	01c50693          	addi	x13,x10,28 # 1801c <.L167+0x16fbc>
  14:	00200613          	li	x12,2
  18:	01450513          	addi	x10,x10,20
  1c:	0107a023          	sw	x16,0(x15)
  20:	00c7a223          	sw	x12,4(x15)
  24:	00a7a423          	sw	x10,8(x15)
  28:	00d7a623          	sw	x13,12(x15)
  2c:	00b7a823          	sw	x11,16(x15)
  30:	00068693          	mv	x13,x13
  34:	00472283          	lw	x5,4(x14)
  38:	02c29863          	bne	x5,x12,68 <.L8>
  3c:	00872303          	lw	x6,8(x14)
  40:	00c72383          	lw	x7,12(x14)
  44:	00032883          	lw	x17,0(x6) # ffffb000 <.L167+0xffff9fa0>
  48:	0117aa23          	sw	x17,20(x15)
  4c:	0003ae03          	lw	x28,0(x7)
  50:	01c7ae23          	sw	x28,28(x15)
  54:	00432e83          	lw	x29,4(x6)
  58:	01d7ac23          	sw	x29,24(x15)
  5c:	0043af03          	lw	x30,4(x7)
  60:	03e7a023          	sw	x30,32(x15)
  64:	00008067          	ret

00000068 <.L8>:
  68:	ff010113          	addi	x2,x2,-16
  6c:	00000fb7          	lui	x31,0x0
  70:	00112623          	sw	x1,12(x2)
  74:	000000b7          	lui	x1,0x0
  78:	0a900613          	li	x12,169
  7c:	00008593          	mv	x11,x1
  80:	000f8513          	mv	x10,x31
  84:	00000097          	auipc	x1,0x0
  88:	000080e7          	jalr	x1 # 84 <.L8+0x1c>
  8c:	00000737          	lui	x14,0x0
  90:	00070513          	mv	x10,x14
  94:	00000097          	auipc	x1,0x0
  98:	000080e7          	jalr	x1 # 94 <.L8+0x2c>
  9c:	000005b7          	lui	x11,0x0
  a0:	0005a803          	lw	x16,0(x11) # 0 <_ZN8HBTensorIfLl2EEC1EP11hb_tensor_t>
  a4:	000007b7          	lui	x15,0x0
  a8:	0007a683          	lw	x13,0(x15) # 0 <_ZN8HBTensorIfLl2EEC1EP11hb_tensor_t>
  ac:	01081613          	slli	x12,x16,0x10
  b0:	4100f2b7          	lui	x5,0x4100f
  b4:	00d60533          	add	x10,x12,x13
  b8:	aca2ac23          	sw	x10,-1320(x5) # 4100ead8 <.L167+0x4100da78>

000000bc <.L3>:
  bc:	0000006f          	j	bc <.L3>

Disassembly of section .rodata.str1.4:

00000000 <.LC3>:
   0:	7265                	lui	x4,0xffff9
   2:	6f72                	flw	f30,28(x2)
   4:	3a72                	fld	f20,312(x2)
   6:	6420                	flw	f8,72(x8)
   8:	6d69                	lui	x26,0x1a
   a:	7365                	lui	x6,0xffff9
   c:	696e                	flw	f18,216(x2)
   e:	6d206e6f          	jal	x28,66e0 <.L167+0x5680>
  12:	7375                	lui	x6,0xffffd
  14:	2074                	fld	f13,192(x8)
  16:	6562                	flw	f10,24(x2)
  18:	6c20                	flw	f8,88(x8)
  1a:	7365                	lui	x6,0xffff9
  1c:	68742073          	csrs	0x687,x8
  20:	6e61                	lui	x28,0x18
  22:	2520                	fld	f8,72(x10)
  24:	0a64                	addi	x9,x2,284
	...

00000028 <.LC4>:
  28:	6e72656b          	0x6e72656b
  2c:	6c65                	lui	x24,0x19
  2e:	615f 6464 6d6d      	0x6d6d6464615f
  34:	632e                	flw	f6,200(x2)
  36:	7070                	flw	f12,100(x8)
  38:	0000                	unimp
	...

0000003c <.LC5>:
  3c:	7361                	lui	x6,0xffff8
  3e:	74726573          	csrrsi	x10,0x747,4
  42:	6620                	flw	f8,72(x12)
  44:	6961                	lui	x18,0x18
  46:	656c                	flw	f11,76(x10)
  48:	2064                	fld	f9,192(x8)
  4a:	7461                	lui	x8,0xffff8
  4c:	2520                	fld	f8,72(x10)
  4e:	64253a73          	csrrc	x20,0x642,x10
	...

Disassembly of section .comment:

00000000 <.comment>:
   0:	4700                	lw	x8,8(x14)
   2:	203a4343          	fmadd.s	f6,f20,f3,f4,rmm
   6:	4728                	lw	x10,72(x14)
   8:	554e                	lw	x10,240(x2)
   a:	2029                	jal	14 <_ZN8HBTensorIfLl2EEC5EP11hb_tensor_t+0x14>
   c:	2e39                	jal	32a <.L31+0x36>
   e:	2e32                	fld	f28,264(x2)
  10:	0030                	addi	x12,x2,8

Disassembly of section .eh_frame:

00000000 <.eh_frame>:
   0:	0010                	0x10
   2:	0000                	unimp
   4:	0000                	unimp
   6:	0000                	unimp
   8:	7a01                	lui	x20,0xfffe0
   a:	0052                	c.slli	x0,0x14
   c:	7c01                	lui	x24,0xfffe0
   e:	0101                	addi	x2,x2,0
  10:	00020d1b          	0x20d1b
  14:	0014                	0x14
  16:	0000                	unimp
  18:	0018                	0x18
	...
  22:	0000                	unimp
  24:	0200                	addi	x8,x2,256
  26:	0e6c                	addi	x11,x2,796
  28:	4810                	lw	x12,16(x8)
  2a:	0181                	addi	x3,x3,0
  2c:	0060                	addi	x8,x2,12
  2e:	0000                	unimp
  30:	0030                	addi	x12,x2,8
	...
  3a:	0000                	unimp
  3c:	4400                	lw	x8,8(x8)
  3e:	f00e                	fsw	f3,32(x2)
  40:	4c02                	lw	x24,0(x2)
  42:	0181                	addi	x3,x3,0
  44:	0288                	addi	x10,x2,320
  46:	0389                	addi	x7,x7,2
  48:	0c44                	addi	x9,x2,532
  4a:	0008                	0x8
  4c:	9270                	0x9270
  4e:	9304                	0x9304
  50:	9405                	srai	x8,x8,0x21
  52:	9506                	add	x10,x10,x1
  54:	97089607          	0x97089607
  58:	9809                	andi	x8,x8,-30
  5a:	990a                	add	x18,x18,x2
  5c:	9b0c9a0b          	0x9b0c9a0b
  60:	a80d                	j	92 <.L8+0x2a>
  62:	a911                	j	476 <.L110+0x16>
  64:	0312                	slli	x6,x6,0x4
  66:	0814                	addi	x13,x2,16
  68:	0c0a                	slli	x24,x24,0x2
  6a:	f002                	fsw	f0,32(x2)
  6c:	4402                	lw	x8,0(x2)
  6e:	44c1                	li	x9,16
  70:	44c8                	lw	x10,12(x9)
  72:	44c9                	li	x9,18
  74:	44d2                	lw	x9,20(x2)
  76:	44d444d3          	0x44d444d3
  7a:	44d5                	li	x9,21
  7c:	44d6                	lw	x9,84(x2)
  7e:	44d844d7          	0x44d844d7
  82:	44d9                	li	x9,22
  84:	44da                	lw	x9,148(x2)
  86:	44e844db          	0x44e844db
  8a:	48e9                	li	x17,26
  8c:	000e                	c.slli	x0,0x3
  8e:	0b44                	addi	x9,x2,404

Disassembly of section .riscv.attributes:

00000000 <.riscv.attributes>:
   0:	2a41                	jal	190 <.L3+0xd4>
   2:	0000                	unimp
   4:	7200                	flw	f8,32(x12)
   6:	7369                	lui	x6,0xffffa
   8:	01007663          	bgeu	x0,x16,14 <.riscv.attributes+0x14>
   c:	0020                	addi	x8,x2,8
   e:	0000                	unimp
  10:	1004                	addi	x9,x2,32
  12:	7205                	lui	x4,0xfffe1
  14:	3376                	fld	f6,376(x2)
  16:	6932                	flw	f18,12(x2)
  18:	7032                	flw	f0,44(x2)
  1a:	5f30                	lw	x12,120(x14)
  1c:	326d                	jal	fffff9c6 <.L167+0xffffe966>
  1e:	3070                	fld	f12,224(x8)
  20:	615f 7032 5f30      	0x5f307032615f
  26:	3266                	fld	f4,120(x2)
  28:	3070                	fld	f12,224(x8)
	...
