
kernel_spmv.o:     file format elf32-littleriscv


Disassembly of section .group:

00000000 <_ZN8HBTensorIfLln1EEC5EP11hb_tensor_t>:
   0:	0001                	nop
   2:	0000                	unimp
   4:	0008                	0x8
   6:	0000                	unimp
   8:	0009                	c.nop	2
	...

Disassembly of section .group:

00000000 <_ZN8HBTensorIiLln1EEC5EP11hb_tensor_t>:
   0:	0001                	nop
   2:	0000                	unimp
   4:	000a                	c.slli	x0,0x2
   6:	0000                	unimp
   8:	0000000b          	0xb

Disassembly of section .text:

00000000 <tensorlib_spmv>:
   0:	e6010113          	addi	x2,x2,-416
   4:	00050793          	mv	x15,x10
   8:	19312623          	sw	x19,396(x2)
   c:	03410513          	addi	x10,x2,52
  10:	00058993          	mv	x19,x11
  14:	00078593          	mv	x11,x15
  18:	18112e23          	sw	x1,412(x2)
  1c:	18812c23          	sw	x8,408(x2)
  20:	18912a23          	sw	x9,404(x2)
  24:	00070413          	mv	x8,x14
  28:	00068493          	mv	x9,x13
  2c:	19212823          	sw	x18,400(x2)
  30:	19412423          	sw	x20,392(x2)
  34:	00060913          	mv	x18,x12
  38:	19512223          	sw	x21,388(x2)
  3c:	19612023          	sw	x22,384(x2)
  40:	17712e23          	sw	x23,380(x2)
  44:	17812c23          	sw	x24,376(x2)
  48:	17912a23          	sw	x25,372(x2)
  4c:	17a12823          	sw	x26,368(x2)
  50:	17b12623          	sw	x27,364(x2)
  54:	00000097          	auipc	x1,0x0
  58:	000080e7          	jalr	x1 # 54 <tensorlib_spmv+0x54>
  5c:	00098593          	mv	x11,x19
  60:	07010513          	addi	x10,x2,112
  64:	00000097          	auipc	x1,0x0
  68:	000080e7          	jalr	x1 # 64 <tensorlib_spmv+0x64>
  6c:	00090593          	mv	x11,x18
  70:	0ac10513          	addi	x10,x2,172
  74:	00000097          	auipc	x1,0x0
  78:	000080e7          	jalr	x1 # 74 <tensorlib_spmv+0x74>
  7c:	00048593          	mv	x11,x9
  80:	0e810513          	addi	x10,x2,232
  84:	00000097          	auipc	x1,0x0
  88:	000080e7          	jalr	x1 # 84 <tensorlib_spmv+0x84>
  8c:	00040593          	mv	x11,x8
  90:	12410513          	addi	x10,x2,292
  94:	00000097          	auipc	x1,0x0
  98:	000080e7          	jalr	x1 # 94 <tensorlib_spmv+0x94>
  9c:	03812783          	lw	x15,56(x2)
  a0:	1e078a63          	beqz	x15,294 <.L93>
  a4:	12812703          	lw	x14,296(x2)
  a8:	18070c63          	beqz	x14,240 <.L94>
  ac:	000008b7          	lui	x17,0x0
  b0:	000004b7          	lui	x9,0x0
  b4:	00000837          	lui	x16,0x0
  b8:	00000937          	lui	x18,0x0
  bc:	0008a683          	lw	x13,0(x17) # 0 <tensorlib_spmv>
  c0:	0004ae03          	lw	x28,0(x9) # 0 <tensorlib_spmv>
  c4:	00082603          	lw	x12,0(x16) # 0 <tensorlib_spmv>
  c8:	00092303          	lw	x6,0(x18) # 0 <tensorlib_spmv>
  cc:	00000537          	lui	x10,0x0
  d0:	00052583          	lw	x11,0(x10) # 0 <tensorlib_spmv>
  d4:	01c680b3          	add	x1,x13,x28
  d8:	006602b3          	add	x5,x12,x6
  dc:	04012f83          	lw	x31,64(x2)
  e0:	01809393          	slli	x7,x1,0x18
  e4:	01229a13          	slli	x20,x5,0x12
  e8:	3f000ab7          	lui	x21,0x3f000
  ec:	00fc0bb7          	lui	x23,0xfc0
  f0:	00040db7          	lui	x27,0x40
  f4:	00459c93          	slli	x25,x11,0x4
  f8:	0153fb33          	and	x22,x7,x21
  fc:	017a7c33          	and	x24,x20,x23
 100:	ff0d8e93          	addi	x29,x27,-16 # 3fff0 <.L58+0x3f834>
 104:	018b6d33          	or	x26,x22,x24
 108:	01dcff33          	and	x30,x25,x29
 10c:	000009b7          	lui	x19,0x0
 110:	000fa303          	lw	x6,0(x31)
 114:	0009a403          	lw	x8,0(x19) # 0 <tensorlib_spmv>
 118:	01ed66b3          	or	x13,x26,x30
 11c:	80000e37          	lui	x28,0x80000
 120:	01c6e5b3          	or	x11,x13,x28
 124:	41001637          	lui	x12,0x41001
 128:	d0b62623          	sw	x11,-756(x12) # 41000d0c <.L58+0x41000550>
 12c:	2e647663          	bgeu	x8,x6,418 <.L61>
 130:	03412283          	lw	x5,52(x2)
 134:	0f012383          	lw	x7,240(x2)
 138:	08012083          	lw	x1,128(x2)
 13c:	0bc12a03          	lw	x20,188(x2)
 140:	0b412d03          	lw	x26,180(x2)
 144:	12412f03          	lw	x30,292(x2)
 148:	13412983          	lw	x19,308(x2)
 14c:	12c12683          	lw	x13,300(x2)
 150:	07012583          	lw	x11,112(x2)
 154:	07412e83          	lw	x29,116(x2)
 158:	07812b03          	lw	x22,120(x2)
 15c:	04412c83          	lw	x25,68(x2)
 160:	03c12d83          	lw	x27,60(x2)
 164:	0e812f83          	lw	x31,232(x2)
 168:	0ec12a83          	lw	x21,236(x2)
 16c:	0f812b83          	lw	x23,248(x2)
 170:	0ac12603          	lw	x12,172(x2)
 174:	0b012c03          	lw	x24,176(x2)
 178:	02512223          	sw	x5,36(x2)
 17c:	02712023          	sw	x7,32(x2)
 180:	01412a23          	sw	x20,20(x2)
 184:	01a12e23          	sw	x26,28(x2)
 188:	01e12623          	sw	x30,12(x2)
 18c:	01312823          	sw	x19,16(x2)
 190:	00d12c23          	sw	x13,24(x2)
 194:	00408293          	addi	x5,x1,4
 198:	00100393          	li	x7,1

0000019c <.L62>:
 19c:	16b47263          	bgeu	x8,x11,300 <.L95>
 1a0:	147e8463          	beq	x29,x7,2e8 <.L38>
 1a4:	00241e13          	slli	x28,x8,0x2
 1a8:	01c089b3          	add	x19,x1,x28

000001ac <.L39>:
 1ac:	00140a13          	addi	x20,x8,1
 1b0:	1aba7063          	bgeu	x20,x11,350 <.L96>
 1b4:	0009a983          	lw	x19,0(x19)
 1b8:	f00007d3          	fmv.w.x	f15,x0
 1bc:	01c286b3          	add	x13,x5,x28
 1c0:	02d12423          	sw	x13,40(x2)

000001c4 <.L56>:
 1c4:	02812d03          	lw	x26,40(x2)
 1c8:	007e9a63          	bne	x29,x7,1dc <.L42>
 1cc:	000b2d03          	lw	x26,0(x22)
 1d0:	03aa0f33          	mul	x30,x20,x26
 1d4:	002f1693          	slli	x13,x30,0x2
 1d8:	00d08d33          	add	x26,x1,x13

000001dc <.L42>:
 1dc:	000d2f03          	lw	x30,0(x26)
 1e0:	21e9f863          	bgeu	x19,x30,3f0 <.L43>
 1e4:	1bf9fe63          	bgeu	x19,x31,3a0 <.L97>
 1e8:	4e7a8e63          	beq	x21,x7,6e4 <.L46>
 1ec:	00299693          	slli	x13,x19,0x2
 1f0:	00db8d33          	add	x26,x23,x13
 1f4:	03a12623          	sw	x26,44(x2)

000001f8 <.L47>:
 1f8:	48c9fe63          	bgeu	x19,x12,694 <.L98>
 1fc:	547c0c63          	beq	x24,x7,754 <.L50>
 200:	01412683          	lw	x13,20(x2)
 204:	00299f13          	slli	x30,x19,0x2
 208:	01e68d33          	add	x26,x13,x30

0000020c <.L51>:
 20c:	000d2f03          	lw	x30,0(x26)
 210:	00c12d03          	lw	x26,12(x2)
 214:	4faf7663          	bgeu	x30,x26,700 <.L99>
 218:	2e770e63          	beq	x14,x7,514 <.L54>

0000021c <.L91>:
 21c:	01012d03          	lw	x26,16(x2)
 220:	002f1693          	slli	x13,x30,0x2
 224:	00198993          	addi	x19,x19,1
 228:	00dd0f33          	add	x30,x26,x13
 22c:	02c12683          	lw	x13,44(x2)
 230:	000f2707          	flw	f14,0(x30)
 234:	0006a687          	flw	f13,0(x13)
 238:	78e6f7c3          	fmadd.s	f15,f13,f14,f15
 23c:	f89ff06f          	j	1c4 <.L56>

00000240 <.L94>:
 240:	00000fb7          	lui	x31,0x0
 244:	000005b7          	lui	x11,0x0
 248:	06f00613          	li	x12,111
 24c:	00058593          	mv	x11,x11
 250:	000f8513          	mv	x10,x31
 254:	00000097          	auipc	x1,0x0
 258:	000080e7          	jalr	x1 # 254 <.L94+0x14>
 25c:	12812583          	lw	x11,296(x2)
 260:	00000637          	lui	x12,0x0
 264:	00060513          	mv	x10,x12
 268:	00000097          	auipc	x1,0x0
 26c:	000080e7          	jalr	x1 # 268 <.L94+0x28>
 270:	00000937          	lui	x18,0x0
 274:	00092f03          	lw	x30,0(x18) # 0 <tensorlib_spmv>
 278:	00000ab7          	lui	x21,0x0
 27c:	000aab83          	lw	x23,0(x21) # 0 <tensorlib_spmv>
 280:	010f1c13          	slli	x24,x30,0x10
 284:	4100f3b7          	lui	x7,0x4100f
 288:	017c02b3          	add	x5,x24,x23
 28c:	ac53ac23          	sw	x5,-1320(x7) # 4100ead8 <.L58+0x4100e31c>

00000290 <.L32>:
 290:	0000006f          	j	290 <.L32>

00000294 <.L93>:
 294:	00000e37          	lui	x28,0x0
 298:	00000a37          	lui	x20,0x0
 29c:	06f00613          	li	x12,111
 2a0:	000a0593          	mv	x11,x20
 2a4:	000e0513          	mv	x10,x28
 2a8:	00000097          	auipc	x1,0x0
 2ac:	000080e7          	jalr	x1 # 2a8 <.L93+0x14>
 2b0:	03812583          	lw	x11,56(x2)
 2b4:	00000437          	lui	x8,0x0
 2b8:	00040513          	mv	x10,x8
 2bc:	00000097          	auipc	x1,0x0
 2c0:	000080e7          	jalr	x1 # 2bc <.L93+0x28>
 2c4:	00000d37          	lui	x26,0x0
 2c8:	000d2883          	lw	x17,0(x26) # 0 <tensorlib_spmv>
 2cc:	00000837          	lui	x16,0x0
 2d0:	00082303          	lw	x6,0(x16) # 0 <tensorlib_spmv>
 2d4:	01089793          	slli	x15,x17,0x10
 2d8:	4100f737          	lui	x14,0x4100f
 2dc:	006786b3          	add	x13,x15,x6
 2e0:	acd72c23          	sw	x13,-1320(x14) # 4100ead8 <.L58+0x4100e31c>

000002e4 <.L30>:
 2e4:	0000006f          	j	2e4 <.L30>

000002e8 <.L38>:
 2e8:	000b2a03          	lw	x20,0(x22)
 2ec:	00241e13          	slli	x28,x8,0x2
 2f0:	03440d33          	mul	x26,x8,x20
 2f4:	002d1f13          	slli	x30,x26,0x2
 2f8:	01e089b3          	add	x19,x1,x30
 2fc:	eb1ff06f          	j	1ac <.L39>

00000300 <.L95>:
 300:	000000b7          	lui	x1,0x0
 304:	00000db7          	lui	x27,0x0
 308:	00008593          	mv	x11,x1
 30c:	08c00613          	li	x12,140
 310:	000d8513          	mv	x10,x27
 314:	00000097          	auipc	x1,0x0
 318:	000080e7          	jalr	x1 # 314 <.L95+0x14>
 31c:	07012583          	lw	x11,112(x2)
 320:	00000fb7          	lui	x31,0x0
 324:	00040613          	mv	x12,x8
 328:	000f8513          	mv	x10,x31
 32c:	00000097          	auipc	x1,0x0
 330:	000080e7          	jalr	x1 # 32c <.L95+0x2c>
 334:	0004aa83          	lw	x21,0(x9)
 338:	00092b83          	lw	x23,0(x18)
 33c:	4100f3b7          	lui	x7,0x4100f
 340:	010a9c13          	slli	x24,x21,0x10
 344:	017c02b3          	add	x5,x24,x23
 348:	ac53ac23          	sw	x5,-1320(x7) # 4100ead8 <.L58+0x4100e31c>

0000034c <.L37>:
 34c:	0000006f          	j	34c <.L37>

00000350 <.L96>:
 350:	00000f37          	lui	x30,0x0
 354:	000006b7          	lui	x13,0x0
 358:	000f0593          	mv	x11,x30
 35c:	08c00613          	li	x12,140
 360:	00068513          	mv	x10,x13
 364:	00000097          	auipc	x1,0x0
 368:	000080e7          	jalr	x1 # 364 <.L96+0x14>
 36c:	07012583          	lw	x11,112(x2)
 370:	000009b7          	lui	x19,0x0
 374:	000a0613          	mv	x12,x20
 378:	00098513          	mv	x10,x19
 37c:	00000097          	auipc	x1,0x0
 380:	000080e7          	jalr	x1 # 37c <.L96+0x2c>
 384:	0004ae83          	lw	x29,0(x9)
 388:	00092603          	lw	x12,0(x18)
 38c:	4100fcb7          	lui	x25,0x4100f
 390:	010e9b13          	slli	x22,x29,0x10
 394:	00cb05b3          	add	x11,x22,x12
 398:	acbcac23          	sw	x11,-1320(x25) # 4100ead8 <.L58+0x4100e31c>

0000039c <.L41>:
 39c:	0000006f          	j	39c <.L41>

000003a0 <.L97>:
 3a0:	00000737          	lui	x14,0x0
 3a4:	000008b7          	lui	x17,0x0
 3a8:	00070593          	mv	x11,x14
 3ac:	08c00613          	li	x12,140
 3b0:	00088513          	mv	x10,x17
 3b4:	00000097          	auipc	x1,0x0
 3b8:	000080e7          	jalr	x1 # 3b4 <.L97+0x14>
 3bc:	0e812583          	lw	x11,232(x2)
 3c0:	00000837          	lui	x16,0x0
 3c4:	00098613          	mv	x12,x19
 3c8:	00080513          	mv	x10,x16
 3cc:	00000097          	auipc	x1,0x0
 3d0:	000080e7          	jalr	x1 # 3cc <.L97+0x2c>
 3d4:	0004a483          	lw	x9,0(x9)
 3d8:	00092903          	lw	x18,0(x18)
 3dc:	4100fd37          	lui	x26,0x4100f
 3e0:	01049513          	slli	x10,x9,0x10
 3e4:	01250333          	add	x6,x10,x18
 3e8:	ac6d2c23          	sw	x6,-1320(x26) # 4100ead8 <.L58+0x4100e31c>

000003ec <.L45>:
 3ec:	0000006f          	j	3ec <.L45>

000003f0 <.L43>:
 3f0:	02412983          	lw	x19,36(x2)
 3f4:	37347e63          	bgeu	x8,x19,770 <.L100>
 3f8:	00779863          	bne	x15,x7,408 <.L92>
 3fc:	000dae03          	lw	x28,0(x27) # 0 <tensorlib_spmv>
 400:	03c40a33          	mul	x20,x8,x28
 404:	002a1e13          	slli	x28,x20,0x2

00000408 <.L92>:
 408:	01cc86b3          	add	x13,x25,x28
 40c:	00f6a027          	fsw	f15,0(x13) # 0 <tensorlib_spmv>
 410:	08040413          	addi	x8,x8,128 # 80 <tensorlib_spmv+0x80>
 414:	d86464e3          	bltu	x8,x6,19c <.L62>

00000418 <.L61>:
 418:	0008aa03          	lw	x20,0(x17) # 0 <tensorlib_spmv>
 41c:	0004ae03          	lw	x28,0(x9)
 420:	00082403          	lw	x8,0(x16) # 0 <tensorlib_spmv>
 424:	00092703          	lw	x14,0(x18)
 428:	00052883          	lw	x17,0(x10)
 42c:	01ca07b3          	add	x15,x20,x28
 430:	00e40833          	add	x16,x8,x14
 434:	01879513          	slli	x10,x15,0x18
 438:	01281313          	slli	x6,x16,0x12
 43c:	3f000d37          	lui	x26,0x3f000
 440:	00fc06b7          	lui	x13,0xfc0
 444:	00040b37          	lui	x22,0x40
 448:	00489e93          	slli	x29,x17,0x4
 44c:	ff0b0593          	addi	x11,x22,-16 # 3fff0 <.L58+0x3f834>
 450:	01a57f33          	and	x30,x10,x26
 454:	00d379b3          	and	x19,x6,x13
 458:	013f6633          	or	x12,x30,x19
 45c:	00befcb3          	and	x25,x29,x11
 460:	019660b3          	or	x1,x12,x25
 464:	c0000db7          	lui	x27,0xc0000
 468:	01b0efb3          	or	x31,x1,x27
 46c:	41001ab7          	lui	x21,0x41001
 470:	d1faa623          	sw	x31,-756(x21) # 41000d0c <.L58+0x41000550>
 474:	00092b83          	lw	x23,0(x18)
 478:	0004ac03          	lw	x24,0(x9)
 47c:	000005b7          	lui	x11,0x0
 480:	004b8293          	addi	x5,x23,4 # fc0004 <.L58+0xfbf848>
 484:	00058613          	mv	x12,x11
 488:	005603b3          	add	x7,x12,x5
 48c:	018c1a13          	slli	x20,x24,0x18
 490:	0143ee33          	or	x28,x7,x20
 494:	201c0437          	lui	x8,0x201c0
 498:	008e68b3          	or	x17,x28,x8
 49c:	00100713          	li	x14,1
 4a0:	00e88023          	sb	x14,0(x17)
 4a4:	00092803          	lw	x16,0(x18)
 4a8:	00700793          	li	x15,7
 4ac:	06f80c63          	beq	x16,x15,524 <.L101>

000004b0 <.L63>:
 4b0:	00100493          	li	x9,1
 4b4:	0100006f          	j	4c4 <.L76>

000004b8 <.L102>:
 4b8:	00058093          	mv	x1,x11
 4bc:	1400adaf          	lr.w.aq	x27,(x1)
 4c0:	009d8863          	beq	x27,x9,4d0 <.L75>

000004c4 <.L76>:
 4c4:	00058b13          	mv	x22,x11
 4c8:	100b2caf          	lr.w	x25,(x22)
 4cc:	fe9c96e3          	bne	x25,x9,4b8 <.L102>

000004d0 <.L75>:
 4d0:	19c12083          	lw	x1,412(x2)
 4d4:	19812403          	lw	x8,408(x2)
 4d8:	00062023          	sw	x0,0(x12) # 0 <tensorlib_spmv>
 4dc:	19412483          	lw	x9,404(x2)
 4e0:	19012903          	lw	x18,400(x2)
 4e4:	18c12983          	lw	x19,396(x2)
 4e8:	18812a03          	lw	x20,392(x2)
 4ec:	18412a83          	lw	x21,388(x2)
 4f0:	18012b03          	lw	x22,384(x2)
 4f4:	17c12b83          	lw	x23,380(x2)
 4f8:	17812c03          	lw	x24,376(x2)
 4fc:	17412c83          	lw	x25,372(x2)
 500:	17012d03          	lw	x26,368(x2)
 504:	16c12d83          	lw	x27,364(x2)
 508:	00000513          	li	x10,0
 50c:	1a010113          	addi	x2,x2,416
 510:	00008067          	ret

00000514 <.L54>:
 514:	01812683          	lw	x13,24(x2)
 518:	0006ad03          	lw	x26,0(x13) # fc0000 <.L58+0xfbf844>
 51c:	03af0f33          	mul	x30,x30,x26
 520:	cfdff06f          	j	21c <.L91>

00000524 <.L101>:
 524:	00000537          	lui	x10,0x0
 528:	00000d37          	lui	x26,0x0
 52c:	00450313          	addi	x6,x10,4 # 4 <tensorlib_spmv+0x4>
 530:	014d0f13          	addi	x30,x26,20 # 14 <tensorlib_spmv+0x14>

00000534 <.L34>:
 534:	00030993          	mv	x19,x6

00000538 <.L65>:
 538:	0009c683          	lbu	x13,0(x19) # 0 <tensorlib_spmv>
 53c:	00198993          	addi	x19,x19,1
 540:	0ff6fe93          	andi	x29,x13,255
 544:	fe0e88e3          	beqz	x29,534 <.L34>
 548:	ff3f18e3          	bne	x30,x19,538 <.L65>
 54c:	0004ab03          	lw	x22,0(x9)
 550:	231c0db7          	lui	x27,0x231c0
 554:	00100a93          	li	x21,1
 558:	018b0c93          	addi	x25,x22,24
 55c:	019600b3          	add	x1,x12,x25
 560:	01b0efb3          	or	x31,x1,x27
 564:	015f8023          	sb	x21,0(x31) # 0 <tensorlib_spmv>
 568:	00092b83          	lw	x23,0(x18)
 56c:	00700c13          	li	x24,7
 570:	f58b90e3          	bne	x23,x24,4b0 <.L63>
 574:	0004a283          	lw	x5,0(x9)
 578:	00300393          	li	x7,3
 57c:	06728e63          	beq	x5,x7,5f8 <.L103>

00000580 <.L71>:
 580:	00100a93          	li	x21,1
 584:	0100006f          	j	594 <.L67>

00000588 <.L104>:
 588:	01460293          	addi	x5,x12,20
 58c:	1402a3af          	lr.w.aq	x7,(x5)
 590:	01538863          	beq	x7,x21,5a0 <.L72>

00000594 <.L67>:
 594:	01460b93          	addi	x23,x12,20
 598:	100bac2f          	lr.w	x24,(x23)
 59c:	ff5c16e3          	bne	x24,x21,588 <.L104>

000005a0 <.L72>:
 5a0:	00062a23          	sw	x0,20(x12)
 5a4:	00000413          	li	x8,0
 5a8:	01000a13          	li	x20,16

000005ac <.L73>:
 5ac:	00860e33          	add	x28,x12,x8
 5b0:	000e0223          	sb	x0,4(x28) # 4 <tensorlib_spmv+0x4>
 5b4:	00140413          	addi	x8,x8,1 # 201c0001 <.L58+0x201bf845>
 5b8:	ff441ae3          	bne	x8,x20,5ac <.L73>
 5bc:	00062023          	sw	x0,0(x12)
 5c0:	00000713          	li	x14,0
 5c4:	20000d37          	lui	x26,0x20000
 5c8:	00100893          	li	x17,1
 5cc:	00040837          	lui	x16,0x40
 5d0:	00400337          	lui	x6,0x400

000005d4 <.L74>:
 5d4:	0004a783          	lw	x15,0(x9)
 5d8:	00e666b3          	or	x13,x12,x14
 5dc:	01070733          	add	x14,x14,x16
 5e0:	01879993          	slli	x19,x15,0x18
 5e4:	00d9e533          	or	x10,x19,x13
 5e8:	01a56eb3          	or	x29,x10,x26
 5ec:	011ea023          	sw	x17,0(x29)
 5f0:	fe6712e3          	bne	x14,x6,5d4 <.L74>
 5f4:	ebdff06f          	j	4b0 <.L63>

000005f8 <.L103>:
 5f8:	00000a37          	lui	x20,0x0
 5fc:	00000437          	lui	x8,0x0
 600:	018a0e13          	addi	x28,x20,24 # 18 <tensorlib_spmv+0x18>
 604:	02040893          	addi	x17,x8,32 # 20 <tensorlib_spmv+0x20>

00000608 <.L66>:
 608:	000e0813          	mv	x16,x28

0000060c <.L68>:
 60c:	00084703          	lbu	x14,0(x16) # 40000 <.L58+0x3f844>
 610:	00180813          	addi	x16,x16,1
 614:	0ff77793          	andi	x15,x14,255
 618:	fe0788e3          	beqz	x15,608 <.L66>
 61c:	ff0898e3          	bne	x17,x16,60c <.L68>
 620:	00060c23          	sb	x0,24(x12)
 624:	00060ca3          	sb	x0,25(x12)
 628:	00060d23          	sb	x0,26(x12)
 62c:	00060da3          	sb	x0,27(x12)
 630:	00060e23          	sb	x0,28(x12)
 634:	00060ea3          	sb	x0,29(x12)
 638:	00060f23          	sb	x0,30(x12)
 63c:	00060fa3          	sb	x0,31(x12)
 640:	00062a23          	sw	x0,20(x12)
 644:	00000f93          	li	x31,0
 648:	03fc0d37          	lui	x26,0x3fc0
 64c:	200006b7          	lui	x13,0x20000
 650:	00100313          	li	x6,1
 654:	010009b7          	lui	x19,0x1000
 658:	08000537          	lui	x10,0x8000
 65c:	0080006f          	j	664 <.L70>

00000660 <.L105>:
 660:	00092b83          	lw	x23,0(x18)

00000664 <.L70>:
 664:	012b9e93          	slli	x29,x23,0x12
 668:	01ff6b33          	or	x22,x30,x31
 66c:	01aefcb3          	and	x25,x29,x26
 670:	016ce0b3          	or	x1,x25,x22
 674:	00d0edb3          	or	x27,x1,x13
 678:	006da023          	sw	x6,0(x27) # 231c0000 <.L58+0x231bf844>
 67c:	013f8fb3          	add	x31,x31,x19
 680:	feaf90e3          	bne	x31,x10,660 <.L105>
 684:	00092903          	lw	x18,0(x18)
 688:	00700f13          	li	x30,7
 68c:	efe90ae3          	beq	x18,x30,580 <.L71>
 690:	e21ff06f          	j	4b0 <.L63>

00000694 <.L98>:
 694:	00000bb7          	lui	x23,0x0
 698:	00000c37          	lui	x24,0x0
 69c:	000b8593          	mv	x11,x23
 6a0:	08c00613          	li	x12,140
 6a4:	000c0513          	mv	x10,x24
 6a8:	00000097          	auipc	x1,0x0
 6ac:	000080e7          	jalr	x1 # 6a8 <.L98+0x14>
 6b0:	0ac12583          	lw	x11,172(x2)
 6b4:	000002b7          	lui	x5,0x0
 6b8:	00098613          	mv	x12,x19
 6bc:	00028513          	mv	x10,x5
 6c0:	00000097          	auipc	x1,0x0
 6c4:	000080e7          	jalr	x1 # 6c0 <.L98+0x2c>
 6c8:	0004a383          	lw	x7,0(x9)
 6cc:	00092a03          	lw	x20,0(x18)
 6d0:	4100f7b7          	lui	x15,0x4100f
 6d4:	01039e13          	slli	x28,x7,0x10
 6d8:	014e0433          	add	x8,x28,x20
 6dc:	ac87ac23          	sw	x8,-1320(x15) # 4100ead8 <.L58+0x4100e31c>

000006e0 <.L49>:
 6e0:	0000006f          	j	6e0 <.L49>

000006e4 <.L46>:
 6e4:	02012d03          	lw	x26,32(x2)
 6e8:	000d2f03          	lw	x30,0(x26) # 3fc0000 <.L58+0x3fbf844>
 6ec:	03e986b3          	mul	x13,x19,x30
 6f0:	00269d13          	slli	x26,x13,0x2
 6f4:	01ab8f33          	add	x30,x23,x26
 6f8:	03e12623          	sw	x30,44(x2)
 6fc:	afdff06f          	j	1f8 <.L47>

00000700 <.L99>:
 700:	000000b7          	lui	x1,0x0
 704:	00000eb7          	lui	x29,0x0
 708:	00008593          	mv	x11,x1
 70c:	08c00613          	li	x12,140
 710:	000e8513          	mv	x10,x29
 714:	01e12623          	sw	x30,12(x2)
 718:	00000097          	auipc	x1,0x0
 71c:	000080e7          	jalr	x1 # 718 <.L99+0x18>
 720:	12412583          	lw	x11,292(x2)
 724:	00c12603          	lw	x12,12(x2)
 728:	00000b37          	lui	x22,0x0
 72c:	000b0513          	mv	x10,x22
 730:	00000097          	auipc	x1,0x0
 734:	000080e7          	jalr	x1 # 730 <.L99+0x30>
 738:	0004a583          	lw	x11,0(x9)
 73c:	00092c83          	lw	x25,0(x18)
 740:	4100fab7          	lui	x21,0x4100f
 744:	01059d93          	slli	x27,x11,0x10
 748:	019d8fb3          	add	x31,x27,x25
 74c:	adfaac23          	sw	x31,-1320(x21) # 4100ead8 <.L58+0x4100e31c>

00000750 <.L53>:
 750:	0000006f          	j	750 <.L53>

00000754 <.L50>:
 754:	01c12f03          	lw	x30,28(x2)
 758:	000f2683          	lw	x13,0(x30) # 0 <tensorlib_spmv>
 75c:	02d98d33          	mul	x26,x19,x13
 760:	01412683          	lw	x13,20(x2)
 764:	002d1f13          	slli	x30,x26,0x2
 768:	01e68d33          	add	x26,x13,x30
 76c:	aa1ff06f          	j	20c <.L51>

00000770 <.L100>:
 770:	000007b7          	lui	x15,0x0
 774:	00000737          	lui	x14,0x0
 778:	00078593          	mv	x11,x15
 77c:	08c00613          	li	x12,140
 780:	00070513          	mv	x10,x14
 784:	00000097          	auipc	x1,0x0
 788:	000080e7          	jalr	x1 # 784 <.L100+0x14>
 78c:	03412583          	lw	x11,52(x2)
 790:	000008b7          	lui	x17,0x0
 794:	00040613          	mv	x12,x8
 798:	00088513          	mv	x10,x17
 79c:	00000097          	auipc	x1,0x0
 7a0:	000080e7          	jalr	x1 # 79c <.L100+0x2c>
 7a4:	0004a483          	lw	x9,0(x9)
 7a8:	00092803          	lw	x16,0(x18)
 7ac:	4100f337          	lui	x6,0x4100f
 7b0:	01049913          	slli	x18,x9,0x10
 7b4:	01090533          	add	x10,x18,x16
 7b8:	aca32c23          	sw	x10,-1320(x6) # 4100ead8 <.L58+0x4100e31c>

000007bc <.L58>:
 7bc:	0000006f          	j	7bc <.L58>

Disassembly of section .text._ZN8HBTensorIfLln1EEC2EP11hb_tensor_t:

00000000 <_ZN8HBTensorIfLln1EEC1EP11hb_tensor_t>:
   0:	00058713          	mv	x14,x11
   4:	0045a683          	lw	x13,4(x11) # 4 <_ZN8HBTensorIfLln1EEC1EP11hb_tensor_t+0x4>
   8:	00072803          	lw	x16,0(x14) # 0 <_ZN8HBTensorIfLln1EEC1EP11hb_tensor_t>
   c:	0105a583          	lw	x11,16(x11)
  10:	00050793          	mv	x15,x10
  14:	02850613          	addi	x12,x10,40 # 8000028 <.L58+0x7fff86c>
  18:	01450513          	addi	x10,x10,20
  1c:	0107a023          	sw	x16,0(x15) # 0 <_ZN8HBTensorIfLln1EEC1EP11hb_tensor_t>
  20:	00d7a223          	sw	x13,4(x15)
  24:	00a7a423          	sw	x10,8(x15)
  28:	00c7a623          	sw	x12,12(x15)
  2c:	00b7a823          	sw	x11,16(x15)
  30:	00060613          	mv	x12,x12
  34:	00500293          	li	x5,5
  38:	04d2e463          	bltu	x5,x13,80 <.L14>
  3c:	00872303          	lw	x6,8(x14)
  40:	00c72383          	lw	x7,12(x14)
  44:	02068c63          	beqz	x13,7c <.L1>
  48:	00269893          	slli	x17,x13,0x2
  4c:	00078713          	mv	x14,x15
  50:	01178e33          	add	x28,x15,x17
  54:	40f30eb3          	sub	x29,x6,x15
  58:	40f38f33          	sub	x30,x7,x15

0000005c <.L5>:
  5c:	00ee8fb3          	add	x31,x29,x14
  60:	000fa683          	lw	x13,0(x31)
  64:	00ef05b3          	add	x11,x30,x14
  68:	00470713          	addi	x14,x14,4
  6c:	00d72823          	sw	x13,16(x14)
  70:	0005a803          	lw	x16,0(x11)
  74:	03072223          	sw	x16,36(x14)
  78:	ffc712e3          	bne	x14,x28,5c <.L5>

0000007c <.L1>:
  7c:	00008067          	ret

00000080 <.L14>:
  80:	ff010113          	addi	x2,x2,-16
  84:	000007b7          	lui	x15,0x0
  88:	00112623          	sw	x1,12(x2)
  8c:	000000b7          	lui	x1,0x0
  90:	0d800613          	li	x12,216
  94:	00008593          	mv	x11,x1
  98:	00078513          	mv	x10,x15
  9c:	00000097          	auipc	x1,0x0
  a0:	000080e7          	jalr	x1 # 9c <.L14+0x1c>
  a4:	00000637          	lui	x12,0x0
  a8:	00060513          	mv	x10,x12
  ac:	00000097          	auipc	x1,0x0
  b0:	000080e7          	jalr	x1 # ac <.L14+0x2c>
  b4:	00000537          	lui	x10,0x0
  b8:	00052283          	lw	x5,0(x10) # 0 <_ZN8HBTensorIfLln1EEC1EP11hb_tensor_t>
  bc:	00000337          	lui	x6,0x0
  c0:	00032383          	lw	x7,0(x6) # 0 <_ZN8HBTensorIfLln1EEC1EP11hb_tensor_t>
  c4:	01029893          	slli	x17,x5,0x10
  c8:	4100feb7          	lui	x29,0x4100f
  cc:	00788e33          	add	x28,x17,x7
  d0:	adceac23          	sw	x28,-1320(x29) # 4100ead8 <.L58+0x4100e31c>

000000d4 <.L3>:
  d4:	0000006f          	j	d4 <.L3>

Disassembly of section .text._ZN8HBTensorIiLln1EEC2EP11hb_tensor_t:

00000000 <_ZN8HBTensorIiLln1EEC1EP11hb_tensor_t>:
   0:	00058713          	mv	x14,x11
   4:	0045a683          	lw	x13,4(x11)
   8:	00072803          	lw	x16,0(x14)
   c:	0105a583          	lw	x11,16(x11)
  10:	00050793          	mv	x15,x10
  14:	02850613          	addi	x12,x10,40
  18:	01450513          	addi	x10,x10,20
  1c:	0107a023          	sw	x16,0(x15) # 0 <_ZN8HBTensorIiLln1EEC1EP11hb_tensor_t>
  20:	00d7a223          	sw	x13,4(x15)
  24:	00a7a423          	sw	x10,8(x15)
  28:	00c7a623          	sw	x12,12(x15)
  2c:	00b7a823          	sw	x11,16(x15)
  30:	00060613          	mv	x12,x12
  34:	00500293          	li	x5,5
  38:	04d2e463          	bltu	x5,x13,80 <.L27>
  3c:	00872303          	lw	x6,8(x14)
  40:	00c72383          	lw	x7,12(x14)
  44:	02068c63          	beqz	x13,7c <.L15>
  48:	00269893          	slli	x17,x13,0x2
  4c:	00078713          	mv	x14,x15
  50:	01178e33          	add	x28,x15,x17
  54:	40f30eb3          	sub	x29,x6,x15
  58:	40f38f33          	sub	x30,x7,x15

0000005c <.L19>:
  5c:	00ee8fb3          	add	x31,x29,x14
  60:	000fa683          	lw	x13,0(x31)
  64:	00ef05b3          	add	x11,x30,x14
  68:	00470713          	addi	x14,x14,4
  6c:	00d72823          	sw	x13,16(x14)
  70:	0005a803          	lw	x16,0(x11)
  74:	03072223          	sw	x16,36(x14)
  78:	ffc712e3          	bne	x14,x28,5c <.L19>

0000007c <.L15>:
  7c:	00008067          	ret

00000080 <.L27>:
  80:	ff010113          	addi	x2,x2,-16
  84:	000007b7          	lui	x15,0x0
  88:	00112623          	sw	x1,12(x2)
  8c:	000000b7          	lui	x1,0x0
  90:	0d800613          	li	x12,216
  94:	00008593          	mv	x11,x1
  98:	00078513          	mv	x10,x15
  9c:	00000097          	auipc	x1,0x0
  a0:	000080e7          	jalr	x1 # 9c <.L27+0x1c>
  a4:	00000637          	lui	x12,0x0
  a8:	00060513          	mv	x10,x12
  ac:	00000097          	auipc	x1,0x0
  b0:	000080e7          	jalr	x1 # ac <.L27+0x2c>
  b4:	00000537          	lui	x10,0x0
  b8:	00052283          	lw	x5,0(x10) # 0 <_ZN8HBTensorIiLln1EEC1EP11hb_tensor_t>
  bc:	00000337          	lui	x6,0x0
  c0:	00032383          	lw	x7,0(x6) # 0 <_ZN8HBTensorIiLln1EEC1EP11hb_tensor_t>
  c4:	01029893          	slli	x17,x5,0x10
  c8:	4100feb7          	lui	x29,0x4100f
  cc:	00788e33          	add	x28,x17,x7
  d0:	adceac23          	sw	x28,-1320(x29) # 4100ead8 <.L58+0x4100e31c>

000000d4 <.L17>:
  d4:	0000006f          	j	d4 <.L17>
