
kernel_conv.o:     file format elf32-littleriscv


Disassembly of section .group:

00000000 <_ZN8HBTensorIfLl4EEC5EP11hb_tensor_t>:
   0:	0001                	nop
   2:	0000                	unimp
   4:	0009                	c.nop	2
   6:	0000                	unimp
   8:	000a                	c.slli	x0,0x2
	...

Disassembly of section .group:

00000000 <.group>:
   0:	0001                	nop
   2:	0000                	unimp
   4:	000c                	0xc
   6:	0000                	unimp
   8:	000d                	c.nop	3
	...

Disassembly of section .group:

00000000 <_ZN8HBTensorIfLln1EEC5EP11hb_tensor_t>:
   0:	0001                	nop
   2:	0000                	unimp
   4:	0000000f          	fence	unknown,unknown
   8:	0010                	0x10
	...

Disassembly of section .text:

00000000 <_Z21hb_tiled_foreach_implIfZL26convolution_backward_inputP11hb_tensor_tS1_S1_P11hb_vector_tS3_EUlvE_JEEvjjT0_8HBTensorIT_Lln1EEPS7_.isra.0>:
       0:	00100813          	li	x16,1
       4:	07060463          	beq	x12,x16,6c <.L75>
       8:	04b57c63          	bgeu	x10,x11,60 <.L1>
       c:	00261293          	slli	x5,x12,0x2
      10:	005703b3          	add	x7,x14,x5

00000014 <.L8>:
      14:	04060863          	beqz	x12,64 <.L9>
      18:	00068e13          	mv	x28,x13
      1c:	00070813          	mv	x16,x14
      20:	00050313          	mv	x6,x10
      24:	00000f13          	li	x30,0

00000028 <.L7>:
      28:	00082e83          	lw	x29,0(x16)
      2c:	000e2f83          	lw	x31,0(x28)
      30:	00480813          	addi	x16,x16,4
      34:	03d378b3          	remu	x17,x6,x29
      38:	004e0e13          	addi	x28,x28,4
      3c:	03f882b3          	mul	x5,x17,x31
      40:	03d35333          	divu	x6,x6,x29
      44:	005f0f33          	add	x30,x30,x5
      48:	ff0390e3          	bne	x7,x16,28 <.L7>
      4c:	002f1e93          	slli	x29,x30,0x2
      50:	01d78f33          	add	x30,x15,x29

00000054 <.L6>:
      54:	000f2023          	sw	x0,0(x30)
      58:	00150513          	addi	x10,x10,1
      5c:	faa59ce3          	bne	x11,x10,14 <.L8>

00000060 <.L1>:
      60:	00008067          	ret

00000064 <.L9>:
      64:	00078f13          	mv	x30,x15
      68:	fedff06f          	j	54 <.L6>

0000006c <.L75>:
      6c:	feb57ae3          	bgeu	x10,x11,60 <.L1>
      70:	0006a703          	lw	x14,0(x13)
      74:	40a586b3          	sub	x13,x11,x10
      78:	00f6f393          	andi	x7,x13,15
      7c:	00271f93          	slli	x31,x14,0x2
      80:	03f50833          	mul	x16,x10,x31
      84:	010787b3          	add	x15,x15,x16
      88:	12038463          	beqz	x7,1b0 <.L4>
      8c:	10c38a63          	beq	x7,x12,1a0 <.L58>
      90:	00200613          	li	x12,2
      94:	10c38063          	beq	x7,x12,194 <.L59>
      98:	00300893          	li	x17,3
      9c:	0f138663          	beq	x7,x17,188 <.L60>
      a0:	00400e13          	li	x28,4
      a4:	0dc38c63          	beq	x7,x28,17c <.L61>
      a8:	00500293          	li	x5,5
      ac:	0c538263          	beq	x7,x5,170 <.L62>
      b0:	00600313          	li	x6,6
      b4:	0a638863          	beq	x7,x6,164 <.L63>
      b8:	00700f13          	li	x30,7
      bc:	09e38e63          	beq	x7,x30,158 <.L64>
      c0:	00800e93          	li	x29,8
      c4:	09d38463          	beq	x7,x29,14c <.L65>
      c8:	00900713          	li	x14,9
      cc:	06e38a63          	beq	x7,x14,140 <.L66>
      d0:	00a00693          	li	x13,10
      d4:	06d38063          	beq	x7,x13,134 <.L67>
      d8:	00b00813          	li	x16,11
      dc:	05038663          	beq	x7,x16,128 <.L68>
      e0:	00c00613          	li	x12,12
      e4:	02c38c63          	beq	x7,x12,11c <.L69>
      e8:	00d00893          	li	x17,13
      ec:	03138263          	beq	x7,x17,110 <.L70>
      f0:	00e00e13          	li	x28,14
      f4:	01c38863          	beq	x7,x28,104 <.L71>
      f8:	0007a023          	sw	x0,0(x15)
      fc:	00150513          	addi	x10,x10,1
     100:	01f787b3          	add	x15,x15,x31

00000104 <.L71>:
     104:	0007a023          	sw	x0,0(x15)
     108:	00150513          	addi	x10,x10,1
     10c:	01f787b3          	add	x15,x15,x31

00000110 <.L70>:
     110:	0007a023          	sw	x0,0(x15)
     114:	00150513          	addi	x10,x10,1
     118:	01f787b3          	add	x15,x15,x31

0000011c <.L69>:
     11c:	0007a023          	sw	x0,0(x15)
     120:	00150513          	addi	x10,x10,1
     124:	01f787b3          	add	x15,x15,x31

00000128 <.L68>:
     128:	0007a023          	sw	x0,0(x15)
     12c:	00150513          	addi	x10,x10,1
     130:	01f787b3          	add	x15,x15,x31

00000134 <.L67>:
     134:	0007a023          	sw	x0,0(x15)
     138:	00150513          	addi	x10,x10,1
     13c:	01f787b3          	add	x15,x15,x31

00000140 <.L66>:
     140:	0007a023          	sw	x0,0(x15)
     144:	00150513          	addi	x10,x10,1
     148:	01f787b3          	add	x15,x15,x31

0000014c <.L65>:
     14c:	0007a023          	sw	x0,0(x15)
     150:	00150513          	addi	x10,x10,1
     154:	01f787b3          	add	x15,x15,x31

00000158 <.L64>:
     158:	0007a023          	sw	x0,0(x15)
     15c:	00150513          	addi	x10,x10,1
     160:	01f787b3          	add	x15,x15,x31

00000164 <.L63>:
     164:	0007a023          	sw	x0,0(x15)
     168:	00150513          	addi	x10,x10,1
     16c:	01f787b3          	add	x15,x15,x31

00000170 <.L62>:
     170:	0007a023          	sw	x0,0(x15)
     174:	00150513          	addi	x10,x10,1
     178:	01f787b3          	add	x15,x15,x31

0000017c <.L61>:
     17c:	0007a023          	sw	x0,0(x15)
     180:	00150513          	addi	x10,x10,1
     184:	01f787b3          	add	x15,x15,x31

00000188 <.L60>:
     188:	0007a023          	sw	x0,0(x15)
     18c:	00150513          	addi	x10,x10,1
     190:	01f787b3          	add	x15,x15,x31

00000194 <.L59>:
     194:	0007a023          	sw	x0,0(x15)
     198:	00150513          	addi	x10,x10,1
     19c:	01f787b3          	add	x15,x15,x31

000001a0 <.L58>:
     1a0:	0007a023          	sw	x0,0(x15)
     1a4:	00150513          	addi	x10,x10,1
     1a8:	01f787b3          	add	x15,x15,x31
     1ac:	08a58863          	beq	x11,x10,23c <.L76>

000001b0 <.L4>:
     1b0:	0007a023          	sw	x0,0(x15)
     1b4:	01f783b3          	add	x7,x15,x31
     1b8:	0003a023          	sw	x0,0(x7)
     1bc:	01f382b3          	add	x5,x7,x31
     1c0:	0002a023          	sw	x0,0(x5)
     1c4:	01f28333          	add	x6,x5,x31
     1c8:	00032023          	sw	x0,0(x6)
     1cc:	01f30f33          	add	x30,x6,x31
     1d0:	000f2023          	sw	x0,0(x30)
     1d4:	01ff0eb3          	add	x29,x30,x31
     1d8:	000ea023          	sw	x0,0(x29)
     1dc:	01fe8733          	add	x14,x29,x31
     1e0:	00072023          	sw	x0,0(x14)
     1e4:	01f706b3          	add	x13,x14,x31
     1e8:	0006a023          	sw	x0,0(x13)
     1ec:	01f68833          	add	x16,x13,x31
     1f0:	00082023          	sw	x0,0(x16)
     1f4:	01f80633          	add	x12,x16,x31
     1f8:	00062023          	sw	x0,0(x12)
     1fc:	01f608b3          	add	x17,x12,x31
     200:	0008a023          	sw	x0,0(x17)
     204:	01f88e33          	add	x28,x17,x31
     208:	000e2023          	sw	x0,0(x28)
     20c:	01fe07b3          	add	x15,x28,x31
     210:	0007a023          	sw	x0,0(x15)
     214:	01f783b3          	add	x7,x15,x31
     218:	0003a023          	sw	x0,0(x7)
     21c:	01f382b3          	add	x5,x7,x31
     220:	01f28333          	add	x6,x5,x31
     224:	0002a023          	sw	x0,0(x5)
     228:	00032023          	sw	x0,0(x6)
     22c:	01050513          	addi	x10,x10,16
     230:	01f307b3          	add	x15,x6,x31
     234:	f6a59ee3          	bne	x11,x10,1b0 <.L4>
     238:	00008067          	ret

0000023c <.L76>:
     23c:	00008067          	ret

00000240 <tensorlib_convolution_add_bias>:
     240:	00052783          	lw	x15,0(x10)
     244:	00000737          	lui	x14,0x0
     248:	00072283          	lw	x5,0(x14) # 0 <_Z21hb_tiled_foreach_implIfZL26convolution_backward_inputP11hb_tensor_tS1_S1_P11hb_vector_tS3_EUlvE_JEEvjjT0_8HBTensorIT_Lln1EEPS7_.isra.0>
     24c:	0077d613          	srli	x12,x15,0x7
     250:	ff010113          	addi	x2,x2,-16
     254:	00812623          	sw	x8,12(x2)
     258:	00160413          	addi	x8,x12,1
     25c:	02540733          	mul	x14,x8,x5
     260:	00852683          	lw	x13,8(x10)
     264:	01052383          	lw	x7,16(x10)
     268:	0105a803          	lw	x16,16(x11)
     26c:	0046a883          	lw	x17,4(x13)
     270:	0005a303          	lw	x6,0(x11)
     274:	00e40633          	add	x12,x8,x14
     278:	00c7f463          	bgeu	x15,x12,280 <.L78>
     27c:	00078613          	mv	x12,x15

00000280 <.L78>:
     280:	00000f37          	lui	x30,0x0
     284:	000005b7          	lui	x11,0x0
     288:	0005a403          	lw	x8,0(x11) # 0 <_Z21hb_tiled_foreach_implIfZL26convolution_backward_inputP11hb_tensor_tS1_S1_P11hb_vector_tS3_EUlvE_JEEvjjT0_8HBTensorIT_Lln1EEPS7_.isra.0>
     28c:	000f2783          	lw	x15,0(x30) # 0 <_Z21hb_tiled_foreach_implIfZL26convolution_backward_inputP11hb_tensor_tS1_S1_P11hb_vector_tS3_EUlvE_JEEvjjT0_8HBTensorIT_Lln1EEPS7_.isra.0>
     290:	00000eb7          	lui	x29,0x0
     294:	00000537          	lui	x10,0x0
     298:	00052683          	lw	x13,0(x10) # 0 <_Z21hb_tiled_foreach_implIfZL26convolution_backward_inputP11hb_tensor_tS1_S1_P11hb_vector_tS3_EUlvE_JEEvjjT0_8HBTensorIT_Lln1EEPS7_.isra.0>
     29c:	000eaf83          	lw	x31,0(x29) # 0 <_Z21hb_tiled_foreach_implIfZL26convolution_backward_inputP11hb_tensor_tS1_S1_P11hb_vector_tS3_EUlvE_JEEvjjT0_8HBTensorIT_Lln1EEPS7_.isra.0>
     2a0:	008787b3          	add	x15,x15,x8
     2a4:	01879413          	slli	x8,x15,0x18
     2a8:	00df8fb3          	add	x31,x31,x13
     2ac:	00000e37          	lui	x28,0x0
     2b0:	3f0006b7          	lui	x13,0x3f000
     2b4:	00d477b3          	and	x15,x8,x13
     2b8:	000e2283          	lw	x5,0(x28) # 0 <_Z21hb_tiled_foreach_implIfZL26convolution_backward_inputP11hb_tensor_tS1_S1_P11hb_vector_tS3_EUlvE_JEEvjjT0_8HBTensorIT_Lln1EEPS7_.isra.0>
     2bc:	00fc0437          	lui	x8,0xfc0
     2c0:	012f9f93          	slli	x31,x31,0x12
     2c4:	008fffb3          	and	x31,x31,x8
     2c8:	01f7e6b3          	or	x13,x15,x31
     2cc:	000407b7          	lui	x15,0x40
     2d0:	ff078413          	addi	x8,x15,-16 # 3fff0 <.L2120+0x32614>
     2d4:	00429293          	slli	x5,x5,0x4
     2d8:	0082ffb3          	and	x31,x5,x8
     2dc:	01f6e2b3          	or	x5,x13,x31
     2e0:	800006b7          	lui	x13,0x80000
     2e4:	00d2e7b3          	or	x15,x5,x13
     2e8:	41001fb7          	lui	x31,0x41001
     2ec:	00271413          	slli	x8,x14,0x2
     2f0:	d0ffa623          	sw	x15,-756(x31) # 41000d0c <.L2120+0x40ff3330>
     2f4:	007402b3          	add	x5,x8,x7
     2f8:	02c77863          	bgeu	x14,x12,328 <.L82>

000002fc <.L83>:
     2fc:	031753b3          	divu	x7,x14,x17
     300:	0002a787          	flw	f15,0(x5)
     304:	00428293          	addi	x5,x5,4
     308:	00170713          	addi	x14,x14,1
     30c:	0263f6b3          	remu	x13,x7,x6
     310:	00269793          	slli	x15,x13,0x2
     314:	00f80433          	add	x8,x16,x15
     318:	00042707          	flw	f14,0(x8) # fc0000 <.L2120+0xfb2624>
     31c:	00e7f053          	fadd.s	f0,f15,f14
     320:	fe02ae27          	fsw	f0,-4(x5)
     324:	fcc76ce3          	bltu	x14,x12,2fc <.L83>

00000328 <.L82>:
     328:	000f2883          	lw	x17,0(x30)
     32c:	000ea303          	lw	x6,0(x29)
     330:	0005a803          	lw	x16,0(x11)
     334:	00052603          	lw	x12,0(x10)
     338:	000e2f03          	lw	x30,0(x28)
     33c:	01088eb3          	add	x29,x17,x16
     340:	00c30e33          	add	x28,x6,x12
     344:	018e9f93          	slli	x31,x29,0x18
     348:	012e1393          	slli	x7,x28,0x12
     34c:	3f000737          	lui	x14,0x3f000
     350:	00fc06b7          	lui	x13,0xfc0
     354:	00040837          	lui	x16,0x40
     358:	00eff2b3          	and	x5,x31,x14
     35c:	00d3f7b3          	and	x15,x7,x13
     360:	004f1413          	slli	x8,x30,0x4
     364:	ff080313          	addi	x6,x16,-16 # 3fff0 <.L2120+0x32614>
     368:	00f2e8b3          	or	x17,x5,x15
     36c:	00647633          	and	x12,x8,x6
     370:	00c8ef33          	or	x30,x17,x12
     374:	c0000eb7          	lui	x29,0xc0000
     378:	01df6e33          	or	x28,x30,x29
     37c:	41001fb7          	lui	x31,0x41001
     380:	d1cfa623          	sw	x28,-756(x31) # 41000d0c <.L2120+0x40ff3330>
     384:	00052383          	lw	x7,0(x10)
     388:	0005a703          	lw	x14,0(x11)
     38c:	00000637          	lui	x12,0x0
     390:	00438293          	addi	x5,x7,4
     394:	00060693          	mv	x13,x12
     398:	005687b3          	add	x15,x13,x5
     39c:	01871413          	slli	x8,x14,0x18
     3a0:	0087e8b3          	or	x17,x15,x8
     3a4:	201c0837          	lui	x16,0x201c0
     3a8:	0108e333          	or	x6,x17,x16
     3ac:	00100f13          	li	x30,1
     3b0:	01e30023          	sb	x30,0(x6)
     3b4:	00052e83          	lw	x29,0(x10)
     3b8:	00700e13          	li	x28,7
     3bc:	03ce8c63          	beq	x29,x28,3f4 <.L112>

000003c0 <.L84>:
     3c0:	00100593          	li	x11,1
     3c4:	0100006f          	j	3d4 <.L97>

000003c8 <.L113>:
     3c8:	00060793          	mv	x15,x12
     3cc:	1407ae2f          	lr.w.aq	x28,(x15)
     3d0:	00be0863          	beq	x28,x11,3e0 <.L96>

000003d4 <.L97>:
     3d4:	00060393          	mv	x7,x12
     3d8:	1003a8af          	lr.w	x17,(x7)
     3dc:	feb896e3          	bne	x17,x11,3c8 <.L113>

000003e0 <.L96>:
     3e0:	00c12403          	lw	x8,12(x2)
     3e4:	0006a023          	sw	x0,0(x13) # fc0000 <.L2120+0xfb2624>
     3e8:	00000513          	li	x10,0
     3ec:	01010113          	addi	x2,x2,16
     3f0:	00008067          	ret

000003f4 <.L112>:
     3f4:	00000fb7          	lui	x31,0x0
     3f8:	00000737          	lui	x14,0x0
     3fc:	004f8393          	addi	x7,x31,4 # 4 <_Z21hb_tiled_foreach_implIfZL26convolution_backward_inputP11hb_tensor_tS1_S1_P11hb_vector_tS3_EUlvE_JEEvjjT0_8HBTensorIT_Lln1EEPS7_.isra.0+0x4>
     400:	01470293          	addi	x5,x14,20 # 14 <.L8>

00000404 <.L80>:
     404:	00038793          	mv	x15,x7

00000408 <.L86>:
     408:	0007c403          	lbu	x8,0(x15)
     40c:	00178793          	addi	x15,x15,1
     410:	0ff47893          	andi	x17,x8,255
     414:	fe0888e3          	beqz	x17,404 <.L80>
     418:	fef298e3          	bne	x5,x15,408 <.L86>
     41c:	0005a803          	lw	x16,0(x11)
     420:	231c0eb7          	lui	x29,0x231c0
     424:	00100f93          	li	x31,1
     428:	01880313          	addi	x6,x16,24 # 201c0018 <.L2120+0x201b263c>
     42c:	00668f33          	add	x30,x13,x6
     430:	01df6e33          	or	x28,x30,x29
     434:	01fe0023          	sb	x31,0(x28)
     438:	00052383          	lw	x7,0(x10)
     43c:	00700713          	li	x14,7
     440:	f8e390e3          	bne	x7,x14,3c0 <.L84>
     444:	0005a403          	lw	x8,0(x11)
     448:	00300793          	li	x15,3
     44c:	06f40e63          	beq	x8,x15,4c8 <.L114>

00000450 <.L92>:
     450:	00100413          	li	x8,1
     454:	0100006f          	j	464 <.L88>

00000458 <.L115>:
     458:	01468e93          	addi	x29,x13,20
     45c:	140ea32f          	lr.w.aq	x6,(x29)
     460:	00830863          	beq	x6,x8,470 <.L93>

00000464 <.L88>:
     464:	01468813          	addi	x16,x13,20
     468:	10082f2f          	lr.w	x30,(x16)
     46c:	fe8f16e3          	bne	x30,x8,458 <.L115>

00000470 <.L93>:
     470:	0006aa23          	sw	x0,20(x13)
     474:	00000793          	li	x15,0
     478:	01000393          	li	x7,16

0000047c <.L94>:
     47c:	00f688b3          	add	x17,x13,x15
     480:	00088223          	sb	x0,4(x17)
     484:	00178793          	addi	x15,x15,1
     488:	fe779ae3          	bne	x15,x7,47c <.L94>
     48c:	0006a023          	sw	x0,0(x13)
     490:	00000713          	li	x14,0
     494:	20000e37          	lui	x28,0x20000
     498:	00100f93          	li	x31,1
     49c:	000402b7          	lui	x5,0x40
     4a0:	00400437          	lui	x8,0x400

000004a4 <.L95>:
     4a4:	0005a803          	lw	x16,0(x11)
     4a8:	00e6e533          	or	x10,x13,x14
     4ac:	00570733          	add	x14,x14,x5
     4b0:	01881f13          	slli	x30,x16,0x18
     4b4:	00af6eb3          	or	x29,x30,x10
     4b8:	01cee333          	or	x6,x29,x28
     4bc:	01f32023          	sw	x31,0(x6)
     4c0:	fe8712e3          	bne	x14,x8,4a4 <.L95>
     4c4:	efdff06f          	j	3c0 <.L84>

000004c8 <.L114>:
     4c8:	000008b7          	lui	x17,0x0
     4cc:	00000337          	lui	x6,0x0
     4d0:	01888813          	addi	x16,x17,24 # 18 <.L8+0x4>
     4d4:	02030f13          	addi	x30,x6,32 # 20 <.L8+0xc>

000004d8 <.L87>:
     4d8:	00080e13          	mv	x28,x16

000004dc <.L89>:
     4dc:	000e4e83          	lbu	x29,0(x28) # 20000000 <.L2120+0x1fff2624>
     4e0:	001e0e13          	addi	x28,x28,1
     4e4:	0ffeff93          	andi	x31,x29,255
     4e8:	fe0f88e3          	beqz	x31,4d8 <.L87>
     4ec:	ffcf18e3          	bne	x30,x28,4dc <.L89>
     4f0:	00068c23          	sb	x0,24(x13)
     4f4:	00068ca3          	sb	x0,25(x13)
     4f8:	00068d23          	sb	x0,26(x13)
     4fc:	00068da3          	sb	x0,27(x13)
     500:	00068e23          	sb	x0,28(x13)
     504:	00068ea3          	sb	x0,29(x13)
     508:	00068f23          	sb	x0,30(x13)
     50c:	00068fa3          	sb	x0,31(x13)
     510:	0006aa23          	sw	x0,20(x13)
     514:	00000713          	li	x14,0
     518:	03fc0437          	lui	x8,0x3fc0
     51c:	20000837          	lui	x16,0x20000
     520:	00100f13          	li	x30,1
     524:	01000eb7          	lui	x29,0x1000
     528:	08000337          	lui	x6,0x8000
     52c:	0080006f          	j	534 <.L91>

00000530 <.L116>:
     530:	00052383          	lw	x7,0(x10)

00000534 <.L91>:
     534:	01239393          	slli	x7,x7,0x12
     538:	00e2e8b3          	or	x17,x5,x14
     53c:	0083f7b3          	and	x15,x7,x8
     540:	0117ee33          	or	x28,x15,x17
     544:	010e6fb3          	or	x31,x28,x16
     548:	01efa023          	sw	x30,0(x31)
     54c:	01d70733          	add	x14,x14,x29
     550:	fe6710e3          	bne	x14,x6,530 <.L116>
     554:	00052503          	lw	x10,0(x10)
     558:	00700293          	li	x5,7
     55c:	ee550ae3          	beq	x10,x5,450 <.L92>
     560:	e61ff06f          	j	3c0 <.L84>

00000564 <_ZN12_GLOBAL__N_110ConvParamsC2EP11hb_tensor_tS2_S2_P11hb_vector_tS4_.isra.0>:
     564:	f4010113          	addi	x2,x2,-192
     568:	0a812c23          	sw	x8,184(x2)
     56c:	00050413          	mv	x8,x10
     570:	00410513          	addi	x10,x2,4
     574:	0a112e23          	sw	x1,188(x2)
     578:	0a912a23          	sw	x9,180(x2)
     57c:	0b212823          	sw	x18,176(x2)
     580:	00068493          	mv	x9,x13
     584:	00060913          	mv	x18,x12
     588:	0b312623          	sw	x19,172(x2)
     58c:	0b412423          	sw	x20,168(x2)
     590:	00078993          	mv	x19,x15
     594:	00070a13          	mv	x20,x14
     598:	00000097          	auipc	x1,0x0
     59c:	000080e7          	jalr	x1 # 598 <_ZN12_GLOBAL__N_110ConvParamsC2EP11hb_tensor_tS2_S2_P11hb_vector_tS4_.isra.0+0x34>
     5a0:	00090593          	mv	x11,x18
     5a4:	03810513          	addi	x10,x2,56
     5a8:	00000097          	auipc	x1,0x0
     5ac:	000080e7          	jalr	x1 # 5a8 <_ZN12_GLOBAL__N_110ConvParamsC2EP11hb_tensor_tS2_S2_P11hb_vector_tS4_.isra.0+0x44>
     5b0:	00048593          	mv	x11,x9
     5b4:	06c10513          	addi	x10,x2,108
     5b8:	00000097          	auipc	x1,0x0
     5bc:	000080e7          	jalr	x1 # 5b8 <_ZN12_GLOBAL__N_110ConvParamsC2EP11hb_tensor_tS2_S2_P11hb_vector_tS4_.isra.0+0x54>
     5c0:	00812783          	lw	x15,8(x2)
     5c4:	12078463          	beqz	x15,6ec <.L146>
     5c8:	01012703          	lw	x14,16(x2)
     5cc:	000a2503          	lw	x10,0(x20)
     5d0:	0009a803          	lw	x16,0(x19)
     5d4:	00072603          	lw	x12,0(x14)
     5d8:	00100693          	li	x13,1
     5dc:	00c42023          	sw	x12,0(x8) # 3fc0000 <.L2120+0x3fb2624>
     5e0:	0af6fc63          	bgeu	x13,x15,698 <.L147>
     5e4:	00472583          	lw	x11,4(x14)
     5e8:	00200093          	li	x1,2
     5ec:	00b42223          	sw	x11,4(x8)
     5f0:	1a178263          	beq	x15,x1,794 <.L148>
     5f4:	00872883          	lw	x17,8(x14)
     5f8:	00300293          	li	x5,3
     5fc:	01142423          	sw	x17,8(x8)
     600:	1e578463          	beq	x15,x5,7e8 <.L149>
     604:	00c72303          	lw	x6,12(x14)
     608:	03c12383          	lw	x7,60(x2)
     60c:	00642623          	sw	x6,12(x8)
     610:	1276f863          	bgeu	x13,x7,740 <.L150>
     614:	04412e03          	lw	x28,68(x2)
     618:	004e2e83          	lw	x29,4(x28)
     61c:	01d42823          	sw	x29,16(x8)
     620:	26138863          	beq	x7,x1,890 <.L151>
     624:	008e2f03          	lw	x30,8(x28)
     628:	01e42a23          	sw	x30,20(x8)
     62c:	2a538c63          	beq	x7,x5,8e4 <.L152>
     630:	00ce2f83          	lw	x31,12(x28)
     634:	07012903          	lw	x18,112(x2)
     638:	01f42c23          	sw	x31,24(x8)
     63c:	2120f063          	bgeu	x1,x18,83c <.L153>
     640:	07812483          	lw	x9,120(x2)
     644:	0084aa03          	lw	x20,8(x9)
     648:	01442e23          	sw	x20,28(x8)
     64c:	2e590663          	beq	x18,x5,938 <.L154>
     650:	00c4a983          	lw	x19,12(x9)
     654:	00082603          	lw	x12,0(x16) # 20000000 <.L2120+0x1fff2624>
     658:	00052703          	lw	x14,0(x10)
     65c:	00482803          	lw	x16,4(x16)
     660:	00452783          	lw	x15,4(x10)
     664:	03342023          	sw	x19,32(x8)
     668:	0bc12083          	lw	x1,188(x2)
     66c:	02c42223          	sw	x12,36(x8)
     670:	03042423          	sw	x16,40(x8)
     674:	02e42623          	sw	x14,44(x8)
     678:	02f42823          	sw	x15,48(x8)
     67c:	0b812403          	lw	x8,184(x2)
     680:	0b412483          	lw	x9,180(x2)
     684:	0b012903          	lw	x18,176(x2)
     688:	0ac12983          	lw	x19,172(x2)
     68c:	0a812a03          	lw	x20,168(x2)
     690:	0c010113          	addi	x2,x2,192
     694:	00008067          	ret

00000698 <.L147>:
     698:	000003b7          	lui	x7,0x0
     69c:	00000e37          	lui	x28,0x0
     6a0:	06f00613          	li	x12,111
     6a4:	00038593          	mv	x11,x7
     6a8:	000e0513          	mv	x10,x28
     6ac:	00000097          	auipc	x1,0x0
     6b0:	000080e7          	jalr	x1 # 6ac <.L147+0x14>
     6b4:	00812583          	lw	x11,8(x2)
     6b8:	00000eb7          	lui	x29,0x0
     6bc:	000e8513          	mv	x10,x29
     6c0:	00000097          	auipc	x1,0x0
     6c4:	000080e7          	jalr	x1 # 6c0 <.L147+0x28>
     6c8:	00000f37          	lui	x30,0x0
     6cc:	000f2f83          	lw	x31,0(x30) # 0 <_Z21hb_tiled_foreach_implIfZL26convolution_backward_inputP11hb_tensor_tS1_S1_P11hb_vector_tS3_EUlvE_JEEvjjT0_8HBTensorIT_Lln1EEPS7_.isra.0>
     6d0:	00000937          	lui	x18,0x0
     6d4:	00092483          	lw	x9,0(x18) # 0 <_Z21hb_tiled_foreach_implIfZL26convolution_backward_inputP11hb_tensor_tS1_S1_P11hb_vector_tS3_EUlvE_JEEvjjT0_8HBTensorIT_Lln1EEPS7_.isra.0>
     6d8:	010f9a13          	slli	x20,x31,0x10
     6dc:	4100f637          	lui	x12,0x4100f
     6e0:	009a09b3          	add	x19,x20,x9
     6e4:	ad362c23          	sw	x19,-1320(x12) # 4100ead8 <.L2120+0x410010fc>

000006e8 <.L130>:
     6e8:	0000006f          	j	6e8 <.L130>

000006ec <.L146>:
     6ec:	00000837          	lui	x16,0x0
     6f0:	000000b7          	lui	x1,0x0
     6f4:	00080593          	mv	x11,x16
     6f8:	06f00613          	li	x12,111
     6fc:	00008513          	mv	x10,x1
     700:	00000097          	auipc	x1,0x0
     704:	000080e7          	jalr	x1 # 700 <.L146+0x14>
     708:	00812583          	lw	x11,8(x2)
     70c:	00000737          	lui	x14,0x0
     710:	00070513          	mv	x10,x14
     714:	00000097          	auipc	x1,0x0
     718:	000080e7          	jalr	x1 # 714 <.L146+0x28>
     71c:	000007b7          	lui	x15,0x0
     720:	0007a403          	lw	x8,0(x15) # 0 <_Z21hb_tiled_foreach_implIfZL26convolution_backward_inputP11hb_tensor_tS1_S1_P11hb_vector_tS3_EUlvE_JEEvjjT0_8HBTensorIT_Lln1EEPS7_.isra.0>
     724:	00000537          	lui	x10,0x0
     728:	00052683          	lw	x13,0(x10) # 0 <_Z21hb_tiled_foreach_implIfZL26convolution_backward_inputP11hb_tensor_tS1_S1_P11hb_vector_tS3_EUlvE_JEEvjjT0_8HBTensorIT_Lln1EEPS7_.isra.0>
     72c:	01041593          	slli	x11,x8,0x10
     730:	4100f2b7          	lui	x5,0x4100f
     734:	00d588b3          	add	x17,x11,x13
     738:	ad12ac23          	sw	x17,-1320(x5) # 4100ead8 <.L2120+0x410010fc>

0000073c <.L128>:
     73c:	0000006f          	j	73c <.L128>

00000740 <.L150>:
     740:	00000737          	lui	x14,0x0
     744:	000007b7          	lui	x15,0x0
     748:	00070593          	mv	x11,x14
     74c:	06f00613          	li	x12,111
     750:	00078513          	mv	x10,x15
     754:	00000097          	auipc	x1,0x0
     758:	000080e7          	jalr	x1 # 754 <.L150+0x14>
     75c:	03c12583          	lw	x11,60(x2)
     760:	00000437          	lui	x8,0x0
     764:	00040513          	mv	x10,x8
     768:	00000097          	auipc	x1,0x0
     76c:	000080e7          	jalr	x1 # 768 <.L150+0x28>
     770:	00000537          	lui	x10,0x0
     774:	00052683          	lw	x13,0(x10) # 0 <_Z21hb_tiled_foreach_implIfZL26convolution_backward_inputP11hb_tensor_tS1_S1_P11hb_vector_tS3_EUlvE_JEEvjjT0_8HBTensorIT_Lln1EEPS7_.isra.0>
     778:	000005b7          	lui	x11,0x0
     77c:	0005a883          	lw	x17,0(x11) # 0 <_Z21hb_tiled_foreach_implIfZL26convolution_backward_inputP11hb_tensor_tS1_S1_P11hb_vector_tS3_EUlvE_JEEvjjT0_8HBTensorIT_Lln1EEPS7_.isra.0>
     780:	01069293          	slli	x5,x13,0x10
     784:	4100f3b7          	lui	x7,0x4100f
     788:	01128333          	add	x6,x5,x17
     78c:	ac63ac23          	sw	x6,-1320(x7) # 4100ead8 <.L2120+0x410010fc>

00000790 <.L136>:
     790:	0000006f          	j	790 <.L136>

00000794 <.L148>:
     794:	000000b7          	lui	x1,0x0
     798:	00000737          	lui	x14,0x0
     79c:	00008593          	mv	x11,x1
     7a0:	06f00613          	li	x12,111
     7a4:	00070513          	mv	x10,x14
     7a8:	00000097          	auipc	x1,0x0
     7ac:	000080e7          	jalr	x1 # 7a8 <.L148+0x14>
     7b0:	00812583          	lw	x11,8(x2)
     7b4:	000007b7          	lui	x15,0x0
     7b8:	00078513          	mv	x10,x15
     7bc:	00000097          	auipc	x1,0x0
     7c0:	000080e7          	jalr	x1 # 7bc <.L148+0x28>
     7c4:	00000437          	lui	x8,0x0
     7c8:	00042503          	lw	x10,0(x8) # 0 <_Z21hb_tiled_foreach_implIfZL26convolution_backward_inputP11hb_tensor_tS1_S1_P11hb_vector_tS3_EUlvE_JEEvjjT0_8HBTensorIT_Lln1EEPS7_.isra.0>
     7cc:	000006b7          	lui	x13,0x0
     7d0:	0006a583          	lw	x11,0(x13) # 0 <_Z21hb_tiled_foreach_implIfZL26convolution_backward_inputP11hb_tensor_tS1_S1_P11hb_vector_tS3_EUlvE_JEEvjjT0_8HBTensorIT_Lln1EEPS7_.isra.0>
     7d4:	01051893          	slli	x17,x10,0x10
     7d8:	4100f337          	lui	x6,0x4100f
     7dc:	00b882b3          	add	x5,x17,x11
     7e0:	ac532c23          	sw	x5,-1320(x6) # 4100ead8 <.L2120+0x410010fc>

000007e4 <.L132>:
     7e4:	0000006f          	j	7e4 <.L132>

000007e8 <.L149>:
     7e8:	00000e37          	lui	x28,0x0
     7ec:	00000eb7          	lui	x29,0x0
     7f0:	06f00613          	li	x12,111
     7f4:	000e0593          	mv	x11,x28
     7f8:	000e8513          	mv	x10,x29
     7fc:	00000097          	auipc	x1,0x0
     800:	000080e7          	jalr	x1 # 7fc <.L149+0x14>
     804:	00812583          	lw	x11,8(x2)
     808:	00000f37          	lui	x30,0x0
     80c:	000f0513          	mv	x10,x30
     810:	00000097          	auipc	x1,0x0
     814:	000080e7          	jalr	x1 # 810 <.L149+0x28>
     818:	00000fb7          	lui	x31,0x0
     81c:	000fa903          	lw	x18,0(x31) # 0 <_Z21hb_tiled_foreach_implIfZL26convolution_backward_inputP11hb_tensor_tS1_S1_P11hb_vector_tS3_EUlvE_JEEvjjT0_8HBTensorIT_Lln1EEPS7_.isra.0>
     820:	000004b7          	lui	x9,0x0
     824:	0004aa03          	lw	x20,0(x9) # 0 <_Z21hb_tiled_foreach_implIfZL26convolution_backward_inputP11hb_tensor_tS1_S1_P11hb_vector_tS3_EUlvE_JEEvjjT0_8HBTensorIT_Lln1EEPS7_.isra.0>
     828:	01091993          	slli	x19,x18,0x10
     82c:	4100f837          	lui	x16,0x4100f
     830:	01498633          	add	x12,x19,x20
     834:	acc82c23          	sw	x12,-1320(x16) # 4100ead8 <.L2120+0x410010fc>

00000838 <.L134>:
     838:	0000006f          	j	838 <.L134>

0000083c <.L153>:
     83c:	000000b7          	lui	x1,0x0
     840:	00000f37          	lui	x30,0x0
     844:	06f00613          	li	x12,111
     848:	00008593          	mv	x11,x1
     84c:	000f0513          	mv	x10,x30
     850:	00000097          	auipc	x1,0x0
     854:	000080e7          	jalr	x1 # 850 <.L153+0x14>
     858:	07012583          	lw	x11,112(x2)
     85c:	00000fb7          	lui	x31,0x0
     860:	000f8513          	mv	x10,x31
     864:	00000937          	lui	x18,0x0
     868:	00000097          	auipc	x1,0x0
     86c:	000080e7          	jalr	x1 # 868 <.L153+0x2c>
     870:	00000a37          	lui	x20,0x0
     874:	00092483          	lw	x9,0(x18) # 0 <_Z21hb_tiled_foreach_implIfZL26convolution_backward_inputP11hb_tensor_tS1_S1_P11hb_vector_tS3_EUlvE_JEEvjjT0_8HBTensorIT_Lln1EEPS7_.isra.0>
     878:	000a2983          	lw	x19,0(x20) # 0 <_Z21hb_tiled_foreach_implIfZL26convolution_backward_inputP11hb_tensor_tS1_S1_P11hb_vector_tS3_EUlvE_JEEvjjT0_8HBTensorIT_Lln1EEPS7_.isra.0>
     87c:	4100f737          	lui	x14,0x4100f
     880:	01049613          	slli	x12,x9,0x10
     884:	01360833          	add	x16,x12,x19
     888:	ad072c23          	sw	x16,-1320(x14) # 4100ead8 <.L2120+0x410010fc>

0000088c <.L142>:
     88c:	0000006f          	j	88c <.L142>

00000890 <.L151>:
     890:	00000eb7          	lui	x29,0x0
     894:	000000b7          	lui	x1,0x0
     898:	06f00613          	li	x12,111
     89c:	000e8593          	mv	x11,x29
     8a0:	00008513          	mv	x10,x1
     8a4:	00000097          	auipc	x1,0x0
     8a8:	000080e7          	jalr	x1 # 8a4 <.L151+0x14>
     8ac:	03c12583          	lw	x11,60(x2)
     8b0:	00000f37          	lui	x30,0x0
     8b4:	000f0513          	mv	x10,x30
     8b8:	00000097          	auipc	x1,0x0
     8bc:	000080e7          	jalr	x1 # 8b8 <.L151+0x28>
     8c0:	00000fb7          	lui	x31,0x0
     8c4:	000fa903          	lw	x18,0(x31) # 0 <_Z21hb_tiled_foreach_implIfZL26convolution_backward_inputP11hb_tensor_tS1_S1_P11hb_vector_tS3_EUlvE_JEEvjjT0_8HBTensorIT_Lln1EEPS7_.isra.0>
     8c8:	000004b7          	lui	x9,0x0
     8cc:	0004aa03          	lw	x20,0(x9) # 0 <_Z21hb_tiled_foreach_implIfZL26convolution_backward_inputP11hb_tensor_tS1_S1_P11hb_vector_tS3_EUlvE_JEEvjjT0_8HBTensorIT_Lln1EEPS7_.isra.0>
     8d0:	01091993          	slli	x19,x18,0x10
     8d4:	4100f837          	lui	x16,0x4100f
     8d8:	01498633          	add	x12,x19,x20
     8dc:	acc82c23          	sw	x12,-1320(x16) # 4100ead8 <.L2120+0x410010fc>

000008e0 <.L138>:
     8e0:	0000006f          	j	8e0 <.L138>

000008e4 <.L152>:
     8e4:	000007b7          	lui	x15,0x0
     8e8:	00000437          	lui	x8,0x0
     8ec:	00078593          	mv	x11,x15
     8f0:	06f00613          	li	x12,111
     8f4:	00040513          	mv	x10,x8
     8f8:	00000097          	auipc	x1,0x0
     8fc:	000080e7          	jalr	x1 # 8f8 <.L152+0x14>
     900:	03c12583          	lw	x11,60(x2)
     904:	00000537          	lui	x10,0x0
     908:	00050513          	mv	x10,x10
     90c:	00000097          	auipc	x1,0x0
     910:	000080e7          	jalr	x1 # 90c <.L152+0x28>
     914:	000006b7          	lui	x13,0x0
     918:	0006a583          	lw	x11,0(x13) # 0 <_Z21hb_tiled_foreach_implIfZL26convolution_backward_inputP11hb_tensor_tS1_S1_P11hb_vector_tS3_EUlvE_JEEvjjT0_8HBTensorIT_Lln1EEPS7_.isra.0>
     91c:	000008b7          	lui	x17,0x0
     920:	0008a283          	lw	x5,0(x17) # 0 <_Z21hb_tiled_foreach_implIfZL26convolution_backward_inputP11hb_tensor_tS1_S1_P11hb_vector_tS3_EUlvE_JEEvjjT0_8HBTensorIT_Lln1EEPS7_.isra.0>
     924:	01059313          	slli	x6,x11,0x10
     928:	4100fe37          	lui	x28,0x4100f
     92c:	005303b3          	add	x7,x6,x5
     930:	ac7e2c23          	sw	x7,-1320(x28) # 4100ead8 <.L2120+0x410010fc>

00000934 <.L140>:
     934:	0000006f          	j	934 <.L140>

00000938 <.L154>:
     938:	00000437          	lui	x8,0x0
     93c:	00000537          	lui	x10,0x0
     940:	06f00613          	li	x12,111
     944:	00040593          	mv	x11,x8
     948:	00050513          	mv	x10,x10
     94c:	00000097          	auipc	x1,0x0
     950:	000080e7          	jalr	x1 # 94c <.L154+0x14>
     954:	07012583          	lw	x11,112(x2)
     958:	000006b7          	lui	x13,0x0
     95c:	00068513          	mv	x10,x13
     960:	00000097          	auipc	x1,0x0
     964:	000080e7          	jalr	x1 # 960 <.L154+0x28>
     968:	000005b7          	lui	x11,0x0
     96c:	0005a883          	lw	x17,0(x11) # 0 <_Z21hb_tiled_foreach_implIfZL26convolution_backward_inputP11hb_tensor_tS1_S1_P11hb_vector_tS3_EUlvE_JEEvjjT0_8HBTensorIT_Lln1EEPS7_.isra.0>
     970:	000002b7          	lui	x5,0x0
     974:	0002a303          	lw	x6,0(x5) # 0 <_Z21hb_tiled_foreach_implIfZL26convolution_backward_inputP11hb_tensor_tS1_S1_P11hb_vector_tS3_EUlvE_JEEvjjT0_8HBTensorIT_Lln1EEPS7_.isra.0>
     978:	01089393          	slli	x7,x17,0x10
     97c:	4100feb7          	lui	x29,0x4100f
     980:	00638e33          	add	x28,x7,x6
     984:	adceac23          	sw	x28,-1320(x29) # 4100ead8 <.L2120+0x410010fc>

00000988 <.L144>:
     988:	0000006f          	j	988 <.L144>

0000098c <_ZL19convolution_forwardP11hb_tensor_tS0_S0_P11hb_vector_tS2_.isra.0>:
     98c:	dc010113          	addi	x2,x2,-576
     990:	00050793          	mv	x15,x10
     994:	22912a23          	sw	x9,564(x2)
     998:	09c10513          	addi	x10,x2,156
     99c:	00058493          	mv	x9,x11
     9a0:	00078593          	mv	x11,x15
     9a4:	22112e23          	sw	x1,572(x2)
     9a8:	22812c23          	sw	x8,568(x2)
     9ac:	23212823          	sw	x18,560(x2)
     9b0:	00060413          	mv	x8,x12
     9b4:	00070913          	mv	x18,x14
     9b8:	23312623          	sw	x19,556(x2)
     9bc:	23412423          	sw	x20,552(x2)
     9c0:	00068993          	mv	x19,x13
     9c4:	23512223          	sw	x21,548(x2)
     9c8:	23612023          	sw	x22,544(x2)
     9cc:	21712e23          	sw	x23,540(x2)
     9d0:	21812c23          	sw	x24,536(x2)
     9d4:	21912a23          	sw	x25,532(x2)
     9d8:	21a12823          	sw	x26,528(x2)
     9dc:	21b12623          	sw	x27,524(x2)
     9e0:	00000097          	auipc	x1,0x0
     9e4:	000080e7          	jalr	x1 # 9e0 <_ZL19convolution_forwardP11hb_tensor_tS0_S0_P11hb_vector_tS2_.isra.0+0x54>
     9e8:	00048593          	mv	x11,x9
     9ec:	0d010513          	addi	x10,x2,208
     9f0:	00000097          	auipc	x1,0x0
     9f4:	000080e7          	jalr	x1 # 9f0 <_ZL19convolution_forwardP11hb_tensor_tS0_S0_P11hb_vector_tS2_.isra.0+0x64>
     9f8:	00040593          	mv	x11,x8
     9fc:	10410513          	addi	x10,x2,260
     a00:	00000097          	auipc	x1,0x0
     a04:	000080e7          	jalr	x1 # a00 <_ZL19convolution_forwardP11hb_tensor_tS0_S0_P11hb_vector_tS2_.isra.0+0x74>
     a08:	0a012283          	lw	x5,160(x2)
     a0c:	10028063          	beqz	x5,b0c <.L300>
     a10:	00100713          	li	x14,1
     a14:	0a577263          	bgeu	x14,x5,ab8 <.L301>
     a18:	00200693          	li	x13,2
     a1c:	18d28c63          	beq	x5,x13,bb4 <.L302>
     a20:	00300613          	li	x12,3
     a24:	1ec28263          	beq	x5,x12,c08 <.L303>
     a28:	0d412083          	lw	x1,212(x2)
     a2c:	12177a63          	bgeu	x14,x1,b60 <.L304>
     a30:	28d08063          	beq	x1,x13,cb0 <.L305>
     a34:	2cc08863          	beq	x1,x12,d04 <.L306>
     a38:	10812303          	lw	x6,264(x2)
     a3c:	2266f063          	bgeu	x13,x6,c5c <.L307>
     a40:	34c306e3          	beq	x6,x12,158c <.L308>
     a44:	00000537          	lui	x10,0x0
     a48:	11012383          	lw	x7,272(x2)
     a4c:	00052583          	lw	x11,0(x10) # 0 <_Z21hb_tiled_foreach_implIfZL26convolution_backward_inputP11hb_tensor_tS1_S1_P11hb_vector_tS3_EUlvE_JEEvjjT0_8HBTensorIT_Lln1EEPS7_.isra.0>
     a50:	0083ab03          	lw	x22,8(x7)
     a54:	00c3ac83          	lw	x25,12(x7)
     a58:	30059063          	bnez	x11,d58 <.L174>
     a5c:	00500813          	li	x16,5
     a60:	01686463          	bltu	x16,x22,a68 <.L175>
     a64:	2f987a63          	bgeu	x16,x25,d58 <.L174>

00000a68 <.L175>:
     a68:	000006b7          	lui	x13,0x0
     a6c:	000005b7          	lui	x11,0x0
     a70:	02b00613          	li	x12,43
     a74:	00058593          	mv	x11,x11
     a78:	00068513          	mv	x10,x13
     a7c:	00000097          	auipc	x1,0x0
     a80:	000080e7          	jalr	x1 # a7c <.L175+0x14>
     a84:	00000637          	lui	x12,0x0
     a88:	00060513          	mv	x10,x12
     a8c:	00000d37          	lui	x26,0x0
     a90:	00000097          	auipc	x1,0x0
     a94:	000080e7          	jalr	x1 # a90 <.L175+0x28>
     a98:	00000b37          	lui	x22,0x0
     a9c:	000d2a83          	lw	x21,0(x26) # 0 <_Z21hb_tiled_foreach_implIfZL26convolution_backward_inputP11hb_tensor_tS1_S1_P11hb_vector_tS3_EUlvE_JEEvjjT0_8HBTensorIT_Lln1EEPS7_.isra.0>
     aa0:	000b2b83          	lw	x23,0(x22) # 0 <_Z21hb_tiled_foreach_implIfZL26convolution_backward_inputP11hb_tensor_tS1_S1_P11hb_vector_tS3_EUlvE_JEEvjjT0_8HBTensorIT_Lln1EEPS7_.isra.0>
     aa4:	4100f9b7          	lui	x19,0x4100f
     aa8:	010a9c13          	slli	x24,x21,0x10
     aac:	017c0cb3          	add	x25,x24,x23
     ab0:	ad99ac23          	sw	x25,-1320(x19) # 4100ead8 <.L2120+0x410010fc>

00000ab4 <.L176>:
     ab4:	0000006f          	j	ab4 <.L176>

00000ab8 <.L301>:
     ab8:	000000b7          	lui	x1,0x0
     abc:	00000f37          	lui	x30,0x0
     ac0:	00008593          	mv	x11,x1
     ac4:	06f00613          	li	x12,111
     ac8:	000f0513          	mv	x10,x30
     acc:	00000097          	auipc	x1,0x0
     ad0:	000080e7          	jalr	x1 # acc <.L301+0x14>
     ad4:	0a012583          	lw	x11,160(x2)
     ad8:	00000fb7          	lui	x31,0x0
     adc:	000f8513          	mv	x10,x31
     ae0:	00000097          	auipc	x1,0x0
     ae4:	000080e7          	jalr	x1 # ae0 <.L301+0x28>
     ae8:	00000737          	lui	x14,0x0
     aec:	00072583          	lw	x11,0(x14) # 0 <_Z21hb_tiled_foreach_implIfZL26convolution_backward_inputP11hb_tensor_tS1_S1_P11hb_vector_tS3_EUlvE_JEEvjjT0_8HBTensorIT_Lln1EEPS7_.isra.0>
     af0:	000006b7          	lui	x13,0x0
     af4:	0006ad03          	lw	x26,0(x13) # 0 <_Z21hb_tiled_foreach_implIfZL26convolution_backward_inputP11hb_tensor_tS1_S1_P11hb_vector_tS3_EUlvE_JEEvjjT0_8HBTensorIT_Lln1EEPS7_.isra.0>
     af8:	01059a93          	slli	x21,x11,0x10
     afc:	4100fbb7          	lui	x23,0x4100f
     b00:	01aa8b33          	add	x22,x21,x26
     b04:	ad6bac23          	sw	x22,-1320(x23) # 4100ead8 <.L2120+0x410010fc>

00000b08 <.L159>:
     b08:	0000006f          	j	b08 <.L159>

00000b0c <.L300>:
     b0c:	00000c37          	lui	x24,0x0
     b10:	00000cb7          	lui	x25,0x0
     b14:	06f00613          	li	x12,111
     b18:	000c0593          	mv	x11,x24
     b1c:	000c8513          	mv	x10,x25
     b20:	00000097          	auipc	x1,0x0
     b24:	000080e7          	jalr	x1 # b20 <.L300+0x14>
     b28:	0a012583          	lw	x11,160(x2)
     b2c:	00000637          	lui	x12,0x0
     b30:	00060513          	mv	x10,x12
     b34:	00000097          	auipc	x1,0x0
     b38:	000080e7          	jalr	x1 # b34 <.L300+0x28>
     b3c:	000009b7          	lui	x19,0x0
     b40:	0009ad83          	lw	x27,0(x19) # 0 <_Z21hb_tiled_foreach_implIfZL26convolution_backward_inputP11hb_tensor_tS1_S1_P11hb_vector_tS3_EUlvE_JEEvjjT0_8HBTensorIT_Lln1EEPS7_.isra.0>
     b44:	000002b7          	lui	x5,0x0
     b48:	0002a383          	lw	x7,0(x5) # 0 <_Z21hb_tiled_foreach_implIfZL26convolution_backward_inputP11hb_tensor_tS1_S1_P11hb_vector_tS3_EUlvE_JEEvjjT0_8HBTensorIT_Lln1EEPS7_.isra.0>
     b4c:	010d9913          	slli	x18,x27,0x10
     b50:	4100fe37          	lui	x28,0x4100f
     b54:	00790eb3          	add	x29,x18,x7
     b58:	adde2c23          	sw	x29,-1320(x28) # 4100ead8 <.L2120+0x410010fc>

00000b5c <.L157>:
     b5c:	0000006f          	j	b5c <.L157>

00000b60 <.L304>:
     b60:	000000b7          	lui	x1,0x0
     b64:	00000437          	lui	x8,0x0
     b68:	00008593          	mv	x11,x1
     b6c:	06f00613          	li	x12,111
     b70:	00040513          	mv	x10,x8
     b74:	00000097          	auipc	x1,0x0
     b78:	000080e7          	jalr	x1 # b74 <.L304+0x14>
     b7c:	0d412583          	lw	x11,212(x2)
     b80:	00000a37          	lui	x20,0x0
     b84:	000a0513          	mv	x10,x20
     b88:	00000097          	auipc	x1,0x0
     b8c:	000080e7          	jalr	x1 # b88 <.L304+0x28>
     b90:	00000f37          	lui	x30,0x0
     b94:	000f2f83          	lw	x31,0(x30) # 0 <_Z21hb_tiled_foreach_implIfZL26convolution_backward_inputP11hb_tensor_tS1_S1_P11hb_vector_tS3_EUlvE_JEEvjjT0_8HBTensorIT_Lln1EEPS7_.isra.0>
     b98:	00000737          	lui	x14,0x0
     b9c:	00072583          	lw	x11,0(x14) # 0 <_Z21hb_tiled_foreach_implIfZL26convolution_backward_inputP11hb_tensor_tS1_S1_P11hb_vector_tS3_EUlvE_JEEvjjT0_8HBTensorIT_Lln1EEPS7_.isra.0>
     ba0:	010f9693          	slli	x13,x31,0x10
     ba4:	4100fab7          	lui	x21,0x4100f
     ba8:	00b68d33          	add	x26,x13,x11
     bac:	adaaac23          	sw	x26,-1320(x21) # 4100ead8 <.L2120+0x410010fc>

00000bb0 <.L165>:
     bb0:	0000006f          	j	bb0 <.L165>

00000bb4 <.L302>:
     bb4:	00000eb7          	lui	x29,0x0
     bb8:	00000e37          	lui	x28,0x0
     bbc:	000e8593          	mv	x11,x29
     bc0:	06f00613          	li	x12,111
     bc4:	000e0513          	mv	x10,x28
     bc8:	00000097          	auipc	x1,0x0
     bcc:	000080e7          	jalr	x1 # bc8 <.L302+0x14>
     bd0:	0a012583          	lw	x11,160(x2)
     bd4:	000004b7          	lui	x9,0x0
     bd8:	00048513          	mv	x10,x9
     bdc:	00000097          	auipc	x1,0x0
     be0:	000080e7          	jalr	x1 # bdc <.L302+0x28>
     be4:	000007b7          	lui	x15,0x0
     be8:	0007a303          	lw	x6,0(x15) # 0 <_Z21hb_tiled_foreach_implIfZL26convolution_backward_inputP11hb_tensor_tS1_S1_P11hb_vector_tS3_EUlvE_JEEvjjT0_8HBTensorIT_Lln1EEPS7_.isra.0>
     bec:	00000837          	lui	x16,0x0
     bf0:	00082503          	lw	x10,0(x16) # 0 <_Z21hb_tiled_foreach_implIfZL26convolution_backward_inputP11hb_tensor_tS1_S1_P11hb_vector_tS3_EUlvE_JEEvjjT0_8HBTensorIT_Lln1EEPS7_.isra.0>
     bf4:	01031893          	slli	x17,x6,0x10
     bf8:	4100fa37          	lui	x20,0x4100f
     bfc:	00a88433          	add	x8,x17,x10
     c00:	ac8a2c23          	sw	x8,-1320(x20) # 4100ead8 <.L2120+0x410010fc>

00000c04 <.L161>:
     c04:	0000006f          	j	c04 <.L161>

00000c08 <.L303>:
     c08:	00000b37          	lui	x22,0x0
     c0c:	00000bb7          	lui	x23,0x0
     c10:	06f00613          	li	x12,111
     c14:	000b0593          	mv	x11,x22
     c18:	000b8513          	mv	x10,x23
     c1c:	00000097          	auipc	x1,0x0
     c20:	000080e7          	jalr	x1 # c1c <.L303+0x14>
     c24:	0a012583          	lw	x11,160(x2)
     c28:	00000637          	lui	x12,0x0
     c2c:	00060513          	mv	x10,x12
     c30:	00000c37          	lui	x24,0x0
     c34:	00000097          	auipc	x1,0x0
     c38:	000080e7          	jalr	x1 # c34 <.L303+0x2c>
     c3c:	000009b7          	lui	x19,0x0
     c40:	000c2c83          	lw	x25,0(x24) # 0 <_Z21hb_tiled_foreach_implIfZL26convolution_backward_inputP11hb_tensor_tS1_S1_P11hb_vector_tS3_EUlvE_JEEvjjT0_8HBTensorIT_Lln1EEPS7_.isra.0>
     c44:	0009ad83          	lw	x27,0(x19) # 0 <_Z21hb_tiled_foreach_implIfZL26convolution_backward_inputP11hb_tensor_tS1_S1_P11hb_vector_tS3_EUlvE_JEEvjjT0_8HBTensorIT_Lln1EEPS7_.isra.0>
     c48:	4100f937          	lui	x18,0x4100f
     c4c:	010c9293          	slli	x5,x25,0x10
     c50:	01b283b3          	add	x7,x5,x27
     c54:	ac792c23          	sw	x7,-1320(x18) # 4100ead8 <.L2120+0x410010fc>

00000c58 <.L163>:
     c58:	0000006f          	j	c58 <.L163>

00000c5c <.L307>:
     c5c:	000000b7          	lui	x1,0x0
     c60:	00000537          	lui	x10,0x0
     c64:	00050593          	mv	x11,x10
     c68:	06f00613          	li	x12,111
     c6c:	00008513          	mv	x10,x1
     c70:	00000097          	auipc	x1,0x0
     c74:	000080e7          	jalr	x1 # c70 <.L307+0x14>
     c78:	10812583          	lw	x11,264(x2)
     c7c:	000008b7          	lui	x17,0x0
     c80:	00088513          	mv	x10,x17
     c84:	00000097          	auipc	x1,0x0
     c88:	000080e7          	jalr	x1 # c84 <.L307+0x28>
     c8c:	00000437          	lui	x8,0x0
     c90:	00042a03          	lw	x20,0(x8) # 0 <_Z21hb_tiled_foreach_implIfZL26convolution_backward_inputP11hb_tensor_tS1_S1_P11hb_vector_tS3_EUlvE_JEEvjjT0_8HBTensorIT_Lln1EEPS7_.isra.0>
     c94:	00000f37          	lui	x30,0x0
     c98:	000f2703          	lw	x14,0(x30) # 0 <_Z21hb_tiled_foreach_implIfZL26convolution_backward_inputP11hb_tensor_tS1_S1_P11hb_vector_tS3_EUlvE_JEEvjjT0_8HBTensorIT_Lln1EEPS7_.isra.0>
     c9c:	010a1f93          	slli	x31,x20,0x10
     ca0:	4100f6b7          	lui	x13,0x4100f
     ca4:	00ef85b3          	add	x11,x31,x14
     ca8:	acb6ac23          	sw	x11,-1320(x13) # 4100ead8 <.L2120+0x410010fc>

00000cac <.L171>:
     cac:	0000006f          	j	cac <.L171>

00000cb0 <.L305>:
     cb0:	000003b7          	lui	x7,0x0
     cb4:	00000937          	lui	x18,0x0
     cb8:	00038593          	mv	x11,x7
     cbc:	06f00613          	li	x12,111
     cc0:	00090513          	mv	x10,x18
     cc4:	00000097          	auipc	x1,0x0
     cc8:	000080e7          	jalr	x1 # cc4 <.L305+0x14>
     ccc:	0d412583          	lw	x11,212(x2)
     cd0:	00000eb7          	lui	x29,0x0
     cd4:	000e8513          	mv	x10,x29
     cd8:	00000097          	auipc	x1,0x0
     cdc:	000080e7          	jalr	x1 # cd8 <.L305+0x28>
     ce0:	00000e37          	lui	x28,0x0
     ce4:	000e2483          	lw	x9,0(x28) # 0 <_Z21hb_tiled_foreach_implIfZL26convolution_backward_inputP11hb_tensor_tS1_S1_P11hb_vector_tS3_EUlvE_JEEvjjT0_8HBTensorIT_Lln1EEPS7_.isra.0>
     ce8:	000007b7          	lui	x15,0x0
     cec:	0007a303          	lw	x6,0(x15) # 0 <_Z21hb_tiled_foreach_implIfZL26convolution_backward_inputP11hb_tensor_tS1_S1_P11hb_vector_tS3_EUlvE_JEEvjjT0_8HBTensorIT_Lln1EEPS7_.isra.0>
     cf0:	01049813          	slli	x16,x9,0x10
     cf4:	4100f8b7          	lui	x17,0x4100f
     cf8:	00680533          	add	x10,x16,x6
     cfc:	aca8ac23          	sw	x10,-1320(x17) # 4100ead8 <.L2120+0x410010fc>

00000d00 <.L167>:
     d00:	0000006f          	j	d00 <.L167>

00000d04 <.L306>:
     d04:	00000d37          	lui	x26,0x0
     d08:	00000ab7          	lui	x21,0x0
     d0c:	06f00613          	li	x12,111
     d10:	000d0593          	mv	x11,x26
     d14:	000a8513          	mv	x10,x21
     d18:	00000097          	auipc	x1,0x0
     d1c:	000080e7          	jalr	x1 # d18 <.L306+0x14>
     d20:	0d412583          	lw	x11,212(x2)
     d24:	00000637          	lui	x12,0x0
     d28:	00060513          	mv	x10,x12
     d2c:	00000b37          	lui	x22,0x0
     d30:	00000097          	auipc	x1,0x0
     d34:	000080e7          	jalr	x1 # d30 <.L306+0x2c>
     d38:	00000c37          	lui	x24,0x0
     d3c:	000b2b83          	lw	x23,0(x22) # 0 <_Z21hb_tiled_foreach_implIfZL26convolution_backward_inputP11hb_tensor_tS1_S1_P11hb_vector_tS3_EUlvE_JEEvjjT0_8HBTensorIT_Lln1EEPS7_.isra.0>
     d40:	000c2c83          	lw	x25,0(x24) # 0 <_Z21hb_tiled_foreach_implIfZL26convolution_backward_inputP11hb_tensor_tS1_S1_P11hb_vector_tS3_EUlvE_JEEvjjT0_8HBTensorIT_Lln1EEPS7_.isra.0>
     d44:	4100f2b7          	lui	x5,0x4100f
     d48:	010b9993          	slli	x19,x23,0x10
     d4c:	01998db3          	add	x27,x19,x25
     d50:	adb2ac23          	sw	x27,-1320(x5) # 4100ead8 <.L2120+0x410010fc>

00000d54 <.L169>:
     d54:	0000006f          	j	d54 <.L169>

00000d58 <.L174>:
     d58:	000008b7          	lui	x17,0x0
     d5c:	00000ab7          	lui	x21,0x0
     d60:	00000c37          	lui	x24,0x0
     d64:	00000db7          	lui	x27,0x0
     d68:	0008aa03          	lw	x20,0(x17) # 0 <_Z21hb_tiled_foreach_implIfZL26convolution_backward_inputP11hb_tensor_tS1_S1_P11hb_vector_tS3_EUlvE_JEEvjjT0_8HBTensorIT_Lln1EEPS7_.isra.0>
     d6c:	000aab83          	lw	x23,0(x21) # 0 <_Z21hb_tiled_foreach_implIfZL26convolution_backward_inputP11hb_tensor_tS1_S1_P11hb_vector_tS3_EUlvE_JEEvjjT0_8HBTensorIT_Lln1EEPS7_.isra.0>
     d70:	000c2d03          	lw	x26,0(x24) # 0 <_Z21hb_tiled_foreach_implIfZL26convolution_backward_inputP11hb_tensor_tS1_S1_P11hb_vector_tS3_EUlvE_JEEvjjT0_8HBTensorIT_Lln1EEPS7_.isra.0>
     d74:	000dae03          	lw	x28,0(x27) # 0 <_Z21hb_tiled_foreach_implIfZL26convolution_backward_inputP11hb_tensor_tS1_S1_P11hb_vector_tS3_EUlvE_JEEvjjT0_8HBTensorIT_Lln1EEPS7_.isra.0>
     d78:	00000eb7          	lui	x29,0x0
     d7c:	0a812403          	lw	x8,168(x2)
     d80:	000eaf03          	lw	x30,0(x29) # 0 <_Z21hb_tiled_foreach_implIfZL26convolution_backward_inputP11hb_tensor_tS1_S1_P11hb_vector_tS3_EUlvE_JEEvjjT0_8HBTensorIT_Lln1EEPS7_.isra.0>
     d84:	0dc12503          	lw	x10,220(x2)
     d88:	0009a983          	lw	x19,0(x19)
     d8c:	00092903          	lw	x18,0(x18) # 0 <_Z21hb_tiled_foreach_implIfZL26convolution_backward_inputP11hb_tensor_tS1_S1_P11hb_vector_tS3_EUlvE_JEEvjjT0_8HBTensorIT_Lln1EEPS7_.isra.0>
     d90:	017a0fb3          	add	x31,x20,x23
     d94:	01cd04b3          	add	x9,x26,x28
     d98:	018f9793          	slli	x15,x31,0x18
     d9c:	01249293          	slli	x5,x9,0x12
     da0:	3f000737          	lui	x14,0x3f000
     da4:	00fc06b7          	lui	x13,0xfc0
     da8:	000405b7          	lui	x11,0x40
     dac:	00042a03          	lw	x20,0(x8)
     db0:	00442d03          	lw	x26,4(x8)
     db4:	00842d83          	lw	x27,8(x8)
     db8:	00c42e03          	lw	x28,12(x8)
     dbc:	00e7f0b3          	and	x1,x15,x14
     dc0:	00452e83          	lw	x29,4(x10) # 4 <_Z21hb_tiled_foreach_implIfZL26convolution_backward_inputP11hb_tensor_tS1_S1_P11hb_vector_tS3_EUlvE_JEEvjjT0_8HBTensorIT_Lln1EEPS7_.isra.0+0x4>
     dc4:	00c52f83          	lw	x31,12(x10)
     dc8:	00092483          	lw	x9,0(x18)
     dcc:	0009a783          	lw	x15,0(x19)
     dd0:	00d2f333          	and	x6,x5,x13
     dd4:	004f1393          	slli	x7,x30,0x4
     dd8:	0049a283          	lw	x5,4(x19)
     ddc:	00852f03          	lw	x30,8(x10)
     de0:	ff058813          	addi	x16,x11,-16 # 3fff0 <.L2120+0x32614>
     de4:	0060e633          	or	x12,x1,x6
     de8:	0103f8b3          	and	x17,x7,x16
     dec:	01166ab3          	or	x21,x12,x17
     df0:	80000bb7          	lui	x23,0x80000
     df4:	09412423          	sw	x20,136(x2)
     df8:	017aec33          	or	x24,x21,x23
     dfc:	07a12a23          	sw	x26,116(x2)
     e00:	05b12a23          	sw	x27,84(x2)
     e04:	05c12023          	sw	x28,64(x2)
     e08:	07d12c23          	sw	x29,120(x2)
     e0c:	01e12623          	sw	x30,12(x2)
     e10:	01f12823          	sw	x31,16(x2)
     e14:	02912e23          	sw	x9,60(x2)
     e18:	06f12823          	sw	x15,112(x2)
     e1c:	02512823          	sw	x5,48(x2)
     e20:	41001737          	lui	x14,0x41001
     e24:	00492403          	lw	x8,4(x18)
     e28:	d1872623          	sw	x24,-756(x14) # 41000d0c <.L2120+0x40ff3330>
     e2c:	520a0863          	beqz	x20,135c <.L181>
     e30:	07412083          	lw	x1,116(x2)
     e34:	03012903          	lw	x18,48(x2)
     e38:	408c8333          	sub	x6,x25,x8
     e3c:	0070d693          	srli	x13,x1,0x7
     e40:	002c9513          	slli	x10,x25,0x2
     e44:	00168393          	addi	x7,x13,1 # fc0001 <.L2120+0xfb2625>
     e48:	00000993          	li	x19,0
     e4c:	41230633          	sub	x12,x6,x18
     e50:	fffc8d13          	addi	x26,x25,-1
     e54:	000b0b93          	mv	x23,x22
     e58:	08712623          	sw	x7,140(x2)
     e5c:	000c8b13          	mv	x22,x25
     e60:	06a12623          	sw	x10,108(x2)
     e64:	02c12c23          	sw	x12,56(x2)
     e68:	00040c13          	mv	x24,x8
     e6c:	00098c93          	mv	x25,x19

00000e70 <.L182>:
     e70:	07812803          	lw	x16,120(x2)
     e74:	4c080e63          	beqz	x16,1350 <.L186>
     e78:	000008b7          	lui	x17,0x0
     e7c:	0008aa03          	lw	x20,0(x17) # 0 <_Z21hb_tiled_foreach_implIfZL26convolution_backward_inputP11hb_tensor_tS1_S1_P11hb_vector_tS3_EUlvE_JEEvjjT0_8HBTensorIT_Lln1EEPS7_.isra.0>
     e80:	08c12d83          	lw	x27,140(x2)
     e84:	07412f03          	lw	x30,116(x2)
     e88:	07fa7a93          	andi	x21,x20,127
     e8c:	035d8e33          	mul	x28,x27,x21
     e90:	05412623          	sw	x20,76(x2)
     e94:	09512223          	sw	x21,132(x2)
     e98:	01cd8eb3          	add	x29,x27,x28
     e9c:	09c12023          	sw	x28,128(x2)
     ea0:	07d12e23          	sw	x29,124(x2)
     ea4:	01df7463          	bgeu	x30,x29,eac <.L183>
     ea8:	07e12e23          	sw	x30,124(x2)

00000eac <.L183>:
     eac:	03012483          	lw	x9,48(x2)
     eb0:	00000f93          	li	x31,0
     eb4:	000d0a93          	mv	x21,x26
     eb8:	409b0433          	sub	x8,x22,x9
     ebc:	03612423          	sw	x22,40(x2)
     ec0:	02812a23          	sw	x8,52(x2)
     ec4:	000f8d13          	mv	x26,x31

00000ec8 <.L187>:
     ec8:	07412283          	lw	x5,116(x2)
     ecc:	07f00793          	li	x15,127
     ed0:	6857f063          	bgeu	x15,x5,1550 <.L184>
     ed4:	08012603          	lw	x12,128(x2)
     ed8:	07c12583          	lw	x11,124(x2)
     edc:	44b67c63          	bgeu	x12,x11,1334 <.L188>
     ee0:	08012883          	lw	x17,128(x2)
     ee4:	07c12803          	lw	x16,124(x2)
     ee8:	00100a13          	li	x20,1
     eec:	00188d93          	addi	x27,x17,1
     ef0:	07012023          	sw	x16,96(x2)
     ef4:	03112023          	sw	x17,32(x2)
     ef8:	06012223          	sw	x0,100(x2)
     efc:	05412823          	sw	x20,80(x2)
     f00:	05b12c23          	sw	x27,88(x2)

00000f04 <.L185>:
     f04:	10c12e03          	lw	x28,268(x2)
     f08:	02012483          	lw	x9,32(x2)
     f0c:	11412e83          	lw	x29,276(x2)
     f10:	000e2f03          	lw	x30,0(x28)
     f14:	004e2f83          	lw	x31,4(x28)
     f18:	07d12423          	sw	x29,104(x2)
     f1c:	03e48433          	mul	x8,x9,x30
     f20:	05e12e23          	sw	x30,92(x2)
     f24:	03fd07b3          	mul	x15,x26,x31
     f28:	008782b3          	add	x5,x15,x8
     f2c:	04512423          	sw	x5,72(x2)

00000f30 <.L199>:
     f30:	04812603          	lw	x12,72(x2)
     f34:	13810693          	addi	x13,x2,312
     f38:	00000913          	li	x18,0
     f3c:	040b8263          	beqz	x23,f80 <.L193>
     f40:	06c12083          	lw	x1,108(x2)
     f44:	06812303          	lw	x6,104(x2)

00000f48 <.L194>:
     f48:	020b0463          	beqz	x22,f70 <.L195>
     f4c:	00261713          	slli	x14,x12,0x2
     f50:	00e309b3          	add	x19,x6,x14
     f54:	00d083b3          	add	x7,x1,x13
     f58:	00068513          	mv	x10,x13

00000f5c <.L196>:
     f5c:	0009a787          	flw	f15,0(x19)
     f60:	00450513          	addi	x10,x10,4
     f64:	00498993          	addi	x19,x19,4
     f68:	fef52e27          	fsw	f15,-4(x10)
     f6c:	fea398e3          	bne	x7,x10,f5c <.L196>

00000f70 <.L195>:
     f70:	00190913          	addi	x18,x18,1
     f74:	01468693          	addi	x13,x13,20
     f78:	01660633          	add	x12,x12,x22
     f7c:	fd7916e3          	bne	x18,x23,f48 <.L194>

00000f80 <.L193>:
     f80:	05412583          	lw	x11,84(x2)
     f84:	05012803          	lw	x16,80(x2)
     f88:	3905e263          	bltu	x11,x16,130c <.L309>
     f8c:	05412f03          	lw	x30,84(x2)
     f90:	05012f83          	lw	x31,80(x2)
     f94:	06412783          	lw	x15,100(x2)
     f98:	03ff54b3          	divu	x9,x30,x31
     f9c:	00148413          	addi	x8,x9,1 # 1 <_Z21hb_tiled_foreach_implIfZL26convolution_backward_inputP11hb_tensor_tS1_S1_P11hb_vector_tS3_EUlvE_JEEvjjT0_8HBTensorIT_Lln1EEPS7_.isra.0+0x1>
     fa0:	02f40eb3          	mul	x29,x8,x15
     fa4:	01d402b3          	add	x5,x8,x29
     fa8:	02512623          	sw	x5,44(x2)
     fac:	005f7463          	bgeu	x30,x5,fb4 <.L197>
     fb0:	03e12623          	sw	x30,44(x2)

00000fb4 <.L197>:
     fb4:	02c12303          	lw	x6,44(x2)
     fb8:	00100093          	li	x1,1
     fbc:	04112223          	sw	x1,68(x2)
     fc0:	001e8413          	addi	x8,x29,1
     fc4:	306efe63          	bgeu	x29,x6,12e0 <.L200>

00000fc8 <.L198>:
     fc8:	03c12703          	lw	x14,60(x2)
     fcc:	0ac12503          	lw	x10,172(x2)
     fd0:	07012983          	lw	x19,112(x2)
     fd4:	03d703b3          	mul	x7,x14,x29
     fd8:	04012903          	lw	x18,64(x2)
     fdc:	02a12223          	sw	x10,36(x2)
     fe0:	01d12c23          	sw	x29,24(x2)
     fe4:	fff00693          	li	x13,-1
     fe8:	0d812703          	lw	x14,216(x2)
     fec:	0e012a03          	lw	x20,224(x2)
     ff0:	0a412f83          	lw	x31,164(x2)
     ff4:	41338f33          	sub	x30,x7,x19
     ff8:	2cd90863          	beq	x18,x13,12c8 <.L202>

00000ffc <.L314>:
     ffc:	2c090663          	beqz	x18,12c8 <.L202>
    1000:	04412583          	lw	x11,68(x2)
    1004:	04c12603          	lw	x12,76(x2)
    1008:	02b958b3          	divu	x17,x18,x11
    100c:	02b67833          	remu	x16,x12,x11
    1010:	00188d93          	addi	x27,x17,1
    1014:	03b80833          	mul	x16,x16,x27
    1018:	010d8e33          	add	x28,x27,x16
    101c:	01c97463          	bgeu	x18,x28,1024 <.L203>
    1020:	00090e13          	mv	x28,x18

00001024 <.L203>:
    1024:	2bc87263          	bgeu	x16,x28,12c8 <.L202>
    1028:	030c0633          	mul	x12,x24,x16
    102c:	036674b3          	remu	x9,x12,x22
    1030:	00060093          	mv	x1,x12
    1034:	0c0b8263          	beqz	x23,10f8 <.L204>

00001038 <.L246>:
    1038:	000f0313          	mv	x6,x30
    103c:	00000893          	li	x17,0

00001040 <.L206>:
    1040:	0a0b0263          	beqz	x22,10e4 <.L210>
    1044:	03012e83          	lw	x29,48(x2)
    1048:	00289793          	slli	x15,x17,0x2
    104c:	00048593          	mv	x11,x9
    1050:	41d086b3          	sub	x13,x1,x29
    1054:	00db03b3          	add	x7,x22,x13
    1058:	01178633          	add	x12,x15,x17
    105c:	0100006f          	j	106c <.L211>

00001060 <.L310>:
    1060:	00168693          	addi	x13,x13,1
    1064:	00158593          	addi	x11,x11,1
    1068:	06d38e63          	beq	x7,x13,10e4 <.L210>

0000106c <.L211>:
    106c:	00b602b3          	add	x5,x12,x11
    1070:	00229513          	slli	x10,x5,0x2
    1074:	20010993          	addi	x19,x2,512
    1078:	f0000053          	fmv.w.x	f0,x0
    107c:	00a98eb3          	add	x29,x19,x10
    1080:	04034863          	bltz	x6,10d0 <.L208>
    1084:	00c12903          	lw	x18,12(x2)
    1088:	05237463          	bgeu	x6,x18,10d0 <.L208>
    108c:	0406c263          	bltz	x13,10d0 <.L208>
    1090:	01012d83          	lw	x27,16(x2)
    1094:	03b6fe63          	bgeu	x13,x27,10d0 <.L208>
    1098:	00072783          	lw	x15,0(x14)
    109c:	00472503          	lw	x10,4(x14)
    10a0:	00872983          	lw	x19,8(x14)
    10a4:	00c72903          	lw	x18,12(x14)
    10a8:	02ad0db3          	mul	x27,x26,x10
    10ac:	02fc82b3          	mul	x5,x25,x15
    10b0:	03330533          	mul	x10,x6,x19
    10b4:	01b287b3          	add	x15,x5,x27
    10b8:	032689b3          	mul	x19,x13,x18
    10bc:	00a78933          	add	x18,x15,x10
    10c0:	013902b3          	add	x5,x18,x19
    10c4:	00229d93          	slli	x27,x5,0x2
    10c8:	01ba0533          	add	x10,x20,x27
    10cc:	00052007          	flw	f0,0(x10)

000010d0 <.L208>:
    10d0:	f80eae27          	fsw	f0,-100(x29)
    10d4:	f8ba96e3          	bne	x21,x11,1060 <.L310>
    10d8:	00168693          	addi	x13,x13,1
    10dc:	00000593          	li	x11,0
    10e0:	f8d396e3          	bne	x7,x13,106c <.L211>

000010e4 <.L210>:
    10e4:	00188893          	addi	x17,x17,1
    10e8:	00130313          	addi	x6,x6,1
    10ec:	f578eae3          	bltu	x17,x23,1040 <.L206>
    10f0:	1bc87a63          	bgeu	x16,x28,12a4 <.L214>
    10f4:	030c0633          	mul	x12,x24,x16

000010f8 <.L204>:
    10f8:	01eb83b3          	add	x7,x23,x30
    10fc:	00cc00b3          	add	x1,x24,x12
    1100:	00080893          	mv	x17,x16
    1104:	00712e23          	sw	x7,28(x2)
    1108:	036674b3          	remu	x9,x12,x22

0000110c <.L247>:
    110c:	13810293          	addi	x5,x2,312
    1110:	00000693          	li	x13,0
    1114:	0c0b8463          	beqz	x23,11dc <.L225>

00001118 <.L226>:
    1118:	0a0b0c63          	beqz	x22,11d0 <.L230>
    111c:	000fae83          	lw	x29,0(x31) # 0 <_Z21hb_tiled_foreach_implIfZL26convolution_backward_inputP11hb_tensor_tS1_S1_P11hb_vector_tS3_EUlvE_JEEvjjT0_8HBTensorIT_Lln1EEPS7_.isra.0>
    1120:	02012383          	lw	x7,32(x2)
    1124:	004fa783          	lw	x15,4(x31)
    1128:	02812d83          	lw	x27,40(x2)
    112c:	008fa503          	lw	x10,8(x31)
    1130:	00269593          	slli	x11,x13,0x2
    1134:	00dd8333          	add	x6,x27,x13
    1138:	01812d83          	lw	x27,24(x2)
    113c:	00028993          	mv	x19,x5
    1140:	00912a23          	sw	x9,20(x2)
    1144:	00d585b3          	add	x11,x11,x13
    1148:	03dc8933          	mul	x18,x25,x29
    114c:	00dd0eb3          	add	x29,x26,x13
    1150:	02f387b3          	mul	x15,x7,x15
    1154:	00f903b3          	add	x7,x18,x15
    1158:	00cfa903          	lw	x18,12(x31)
    115c:	02ad8533          	mul	x10,x27,x10
    1160:	032887b3          	mul	x15,x17,x18
    1164:	00a38db3          	add	x27,x7,x10
    1168:	02412903          	lw	x18,36(x2)
    116c:	00fd8533          	add	x10,x27,x15
    1170:	00251393          	slli	x7,x10,0x2
    1174:	00790db3          	add	x27,x18,x7
    1178:	000da087          	flw	f1,0(x27)
    117c:	00048513          	mv	x10,x9
    1180:	0140006f          	j	1194 <.L229>

00001184 <.L312>:
    1184:	001e8e93          	addi	x29,x29,1
    1188:	00150513          	addi	x10,x10,1
    118c:	00498993          	addi	x19,x19,4
    1190:	026e8e63          	beq	x29,x6,11cc <.L311>

00001194 <.L229>:
    1194:	00a587b3          	add	x15,x11,x10
    1198:	00279393          	slli	x7,x15,0x2
    119c:	20010913          	addi	x18,x2,512
    11a0:	007907b3          	add	x15,x18,x7
    11a4:	000e9463          	bnez	x29,11ac <.L227>
    11a8:	f00000d3          	fmv.w.x	f1,x0

000011ac <.L227>:
    11ac:	0009a707          	flw	f14,0(x19)
    11b0:	f9c7a687          	flw	f13,-100(x15)
    11b4:	08e6f0c3          	fmadd.s	f1,f13,f14,f1
    11b8:	fcaa96e3          	bne	x21,x10,1184 <.L312>
    11bc:	001e8e93          	addi	x29,x29,1
    11c0:	00000513          	li	x10,0
    11c4:	00498993          	addi	x19,x19,4
    11c8:	fc6e96e3          	bne	x29,x6,1194 <.L229>

000011cc <.L311>:
    11cc:	001da027          	fsw	f1,0(x27)

000011d0 <.L230>:
    11d0:	00168693          	addi	x13,x13,1
    11d4:	01428293          	addi	x5,x5,20
    11d8:	f4db90e3          	bne	x23,x13,1118 <.L226>

000011dc <.L225>:
    11dc:	00188893          	addi	x17,x17,1
    11e0:	0d1e0263          	beq	x28,x17,12a4 <.L214>
    11e4:	0360f4b3          	remu	x9,x1,x22
    11e8:	0b180463          	beq	x16,x17,1290 <.L216>
    11ec:	03667533          	remu	x10,x12,x22
    11f0:	0a0c0063          	beqz	x24,1290 <.L216>
    11f4:	03812303          	lw	x6,56(x2)
    11f8:	03412583          	lw	x11,52(x2)
    11fc:	001306b3          	add	x13,x6,x1
    1200:	001589b3          	add	x19,x11,x1

00001204 <.L223>:
    1204:	060b8e63          	beqz	x23,1280 <.L221>
    1208:	00251d93          	slli	x27,x10,0x2
    120c:	19c10393          	addi	x7,x2,412
    1210:	01b38eb3          	add	x29,x7,x27
    1214:	000f0593          	mv	x11,x30

00001218 <.L222>:
    1218:	f0000153          	fmv.w.x	f2,x0
    121c:	0405c863          	bltz	x11,126c <.L220>
    1220:	00c12903          	lw	x18,12(x2)
    1224:	0525f463          	bgeu	x11,x18,126c <.L220>
    1228:	0406c263          	bltz	x13,126c <.L220>
    122c:	01012783          	lw	x15,16(x2)
    1230:	02f6fe63          	bgeu	x13,x15,126c <.L220>
    1234:	00472303          	lw	x6,4(x14)
    1238:	00072283          	lw	x5,0(x14)
    123c:	00c72d83          	lw	x27,12(x14)
    1240:	00872383          	lw	x7,8(x14)
    1244:	025c82b3          	mul	x5,x25,x5
    1248:	026d07b3          	mul	x15,x26,x6
    124c:	03b68933          	mul	x18,x13,x27
    1250:	00f28333          	add	x6,x5,x15
    1254:	02758db3          	mul	x27,x11,x7
    1258:	012303b3          	add	x7,x6,x18
    125c:	01b382b3          	add	x5,x7,x27
    1260:	00229793          	slli	x15,x5,0x2
    1264:	00fa0933          	add	x18,x20,x15
    1268:	00092107          	flw	f2,0(x18)

0000126c <.L220>:
    126c:	01c12303          	lw	x6,28(x2)
    1270:	00158593          	addi	x11,x11,1
    1274:	002ea027          	fsw	f2,0(x29)
    1278:	014e8e93          	addi	x29,x29,20
    127c:	f8b31ee3          	bne	x6,x11,1218 <.L222>

00001280 <.L221>:
    1280:	00aa8e63          	beq	x21,x10,129c <.L313>
    1284:	00150513          	addi	x10,x10,1

00001288 <.L219>:
    1288:	00168693          	addi	x13,x13,1
    128c:	f7369ce3          	bne	x13,x19,1204 <.L223>

00001290 <.L216>:
    1290:	01860633          	add	x12,x12,x24
    1294:	018080b3          	add	x1,x1,x24
    1298:	e75ff06f          	j	110c <.L247>

0000129c <.L313>:
    129c:	00000513          	li	x10,0
    12a0:	fe9ff06f          	j	1288 <.L219>

000012a4 <.L214>:
    12a4:	03c12e03          	lw	x28,60(x2)
    12a8:	02c12803          	lw	x16,44(x2)
    12ac:	00812c23          	sw	x8,24(x2)
    12b0:	01cf0f33          	add	x30,x30,x28
    12b4:	03047663          	bgeu	x8,x16,12e0 <.L200>
    12b8:	04012903          	lw	x18,64(x2)
    12bc:	fff00693          	li	x13,-1
    12c0:	00140413          	addi	x8,x8,1
    12c4:	d2d91ce3          	bne	x18,x13,ffc <.L314>

000012c8 <.L202>:
    12c8:	fc0b8ee3          	beqz	x23,12a4 <.L214>
    12cc:	00000e13          	li	x28,0
    12d0:	00000493          	li	x9,0
    12d4:	00000093          	li	x1,0
    12d8:	00000813          	li	x16,0
    12dc:	d5dff06f          	j	1038 <.L246>

000012e0 <.L200>:
    12e0:	04812483          	lw	x9,72(x2)
    12e4:	05c12083          	lw	x1,92(x2)
    12e8:	05812603          	lw	x12,88(x2)
    12ec:	06012403          	lw	x8,96(x2)
    12f0:	001488b3          	add	x17,x9,x1
    12f4:	02c12023          	sw	x12,32(x2)
    12f8:	05112423          	sw	x17,72(x2)
    12fc:	02867c63          	bgeu	x12,x8,1334 <.L188>
    1300:	00160713          	addi	x14,x12,1 # 1 <_Z21hb_tiled_foreach_implIfZL26convolution_backward_inputP11hb_tensor_tS1_S1_P11hb_vector_tS3_EUlvE_JEEvjjT0_8HBTensorIT_Lln1EEPS7_.isra.0+0x1>
    1304:	04e12c23          	sw	x14,88(x2)
    1308:	c29ff06f          	j	f30 <.L199>

0000130c <.L309>:
    130c:	05012883          	lw	x17,80(x2)
    1310:	05412a03          	lw	x20,84(x2)
    1314:	06412e03          	lw	x28,100(x2)
    1318:	0348ddb3          	divu	x27,x17,x20
    131c:	03be5eb3          	divu	x29,x28,x27
    1320:	05b12223          	sw	x27,68(x2)
    1324:	fb4efee3          	bgeu	x29,x20,12e0 <.L200>
    1328:	001e8413          	addi	x8,x29,1
    132c:	02812623          	sw	x8,44(x2)
    1330:	c99ff06f          	j	fc8 <.L198>

00001334 <.L188>:
    1334:	02812a03          	lw	x20,40(x2)
    1338:	07812f83          	lw	x31,120(x2)
    133c:	001d0d13          	addi	x26,x26,1 # 1 <_Z21hb_tiled_foreach_implIfZL26convolution_backward_inputP11hb_tensor_tS1_S1_P11hb_vector_tS3_EUlvE_JEEvjjT0_8HBTensorIT_Lln1EEPS7_.isra.0+0x1>
    1340:	001a0f13          	addi	x30,x20,1
    1344:	03e12423          	sw	x30,40(x2)
    1348:	b9af90e3          	bne	x31,x26,ec8 <.L187>
    134c:	000a8d13          	mv	x26,x21

00001350 <.L186>:
    1350:	08812a83          	lw	x21,136(x2)
    1354:	001c8c93          	addi	x25,x25,1
    1358:	b19a9ce3          	bne	x21,x25,e70 <.L182>

0000135c <.L181>:
    135c:	00000c37          	lui	x24,0x0
    1360:	000003b7          	lui	x7,0x0
    1364:	00000b37          	lui	x22,0x0
    1368:	000009b7          	lui	x19,0x0
    136c:	000b2b83          	lw	x23,0(x22) # 0 <_Z21hb_tiled_foreach_implIfZL26convolution_backward_inputP11hb_tensor_tS1_S1_P11hb_vector_tS3_EUlvE_JEEvjjT0_8HBTensorIT_Lln1EEPS7_.isra.0>
    1370:	000c2c83          	lw	x25,0(x24) # 0 <_Z21hb_tiled_foreach_implIfZL26convolution_backward_inputP11hb_tensor_tS1_S1_P11hb_vector_tS3_EUlvE_JEEvjjT0_8HBTensorIT_Lln1EEPS7_.isra.0>
    1374:	0009ad83          	lw	x27,0(x19) # 0 <_Z21hb_tiled_foreach_implIfZL26convolution_backward_inputP11hb_tensor_tS1_S1_P11hb_vector_tS3_EUlvE_JEEvjjT0_8HBTensorIT_Lln1EEPS7_.isra.0>
    1378:	0003a283          	lw	x5,0(x7) # 0 <_Z21hb_tiled_foreach_implIfZL26convolution_backward_inputP11hb_tensor_tS1_S1_P11hb_vector_tS3_EUlvE_JEEvjjT0_8HBTensorIT_Lln1EEPS7_.isra.0>
    137c:	000007b7          	lui	x15,0x0
    1380:	0007a903          	lw	x18,0(x15) # 0 <_Z21hb_tiled_foreach_implIfZL26convolution_backward_inputP11hb_tensor_tS1_S1_P11hb_vector_tS3_EUlvE_JEEvjjT0_8HBTensorIT_Lln1EEPS7_.isra.0>
    1384:	019b85b3          	add	x11,x23,x25
    1388:	005d8eb3          	add	x29,x27,x5
    138c:	01859313          	slli	x6,x11,0x18
    1390:	3f0006b7          	lui	x13,0x3f000
    1394:	012e9513          	slli	x10,x29,0x12
    1398:	00fc0837          	lui	x16,0xfc0
    139c:	000408b7          	lui	x17,0x40
    13a0:	00d37e33          	and	x28,x6,x13
    13a4:	00491493          	slli	x9,x18,0x4
    13a8:	01057633          	and	x12,x10,x16
    13ac:	ff088413          	addi	x8,x17,-16 # 3fff0 <.L2120+0x32614>
    13b0:	00ce60b3          	or	x1,x28,x12
    13b4:	0084f733          	and	x14,x9,x8
    13b8:	00e0ea33          	or	x20,x1,x14
    13bc:	c0000f37          	lui	x30,0xc0000
    13c0:	01ea6fb3          	or	x31,x20,x30
    13c4:	41001d37          	lui	x26,0x41001
    13c8:	d1fd2623          	sw	x31,-756(x26) # 41000d0c <.L2120+0x40ff3330>
    13cc:	0003aa83          	lw	x21,0(x7)
    13d0:	000c2b03          	lw	x22,0(x24)
    13d4:	000005b7          	lui	x11,0x0
    13d8:	004a8b93          	addi	x23,x21,4
    13dc:	00058693          	mv	x13,x11
    13e0:	01768c33          	add	x24,x13,x23
    13e4:	018b1c93          	slli	x25,x22,0x18
    13e8:	019c69b3          	or	x19,x24,x25
    13ec:	201c0db7          	lui	x27,0x201c0
    13f0:	01b9e2b3          	or	x5,x19,x27
    13f4:	00100793          	li	x15,1
    13f8:	00f28023          	sb	x15,0(x5)
    13fc:	0003a383          	lw	x7,0(x7)
    1400:	00700913          	li	x18,7
    1404:	07238463          	beq	x7,x18,146c <.L315>

00001408 <.L231>:
    1408:	00100413          	li	x8,1
    140c:	0100006f          	j	141c <.L244>

00001410 <.L316>:
    1410:	00058713          	mv	x14,x11
    1414:	14072faf          	lr.w.aq	x31,(x14)
    1418:	008f8863          	beq	x31,x8,1428 <.L243>

0000141c <.L244>:
    141c:	00058a13          	mv	x20,x11
    1420:	100a2f2f          	lr.w	x30,(x20)
    1424:	fe8f16e3          	bne	x30,x8,1410 <.L316>

00001428 <.L243>:
    1428:	23c12083          	lw	x1,572(x2)
    142c:	23812403          	lw	x8,568(x2)
    1430:	0006a023          	sw	x0,0(x13) # 3f000000 <.L2120+0x3eff2624>
    1434:	23412483          	lw	x9,564(x2)
    1438:	23012903          	lw	x18,560(x2)
    143c:	22c12983          	lw	x19,556(x2)
    1440:	22812a03          	lw	x20,552(x2)
    1444:	22412a83          	lw	x21,548(x2)
    1448:	22012b03          	lw	x22,544(x2)
    144c:	21c12b83          	lw	x23,540(x2)
    1450:	21812c03          	lw	x24,536(x2)
    1454:	21412c83          	lw	x25,532(x2)
    1458:	21012d03          	lw	x26,528(x2)
    145c:	20c12d83          	lw	x27,524(x2)
    1460:	00000513          	li	x10,0
    1464:	24010113          	addi	x2,x2,576
    1468:	00008067          	ret

0000146c <.L315>:
    146c:	00000eb7          	lui	x29,0x0
    1470:	00000537          	lui	x10,0x0
    1474:	004e8313          	addi	x6,x29,4 # 4 <_Z21hb_tiled_foreach_implIfZL26convolution_backward_inputP11hb_tensor_tS1_S1_P11hb_vector_tS3_EUlvE_JEEvjjT0_8HBTensorIT_Lln1EEPS7_.isra.0+0x4>
    1478:	01450613          	addi	x12,x10,20 # 14 <.L8>

0000147c <.L178>:
    147c:	00030813          	mv	x16,x6

00001480 <.L233>:
    1480:	00084e03          	lbu	x28,0(x16) # fc0000 <.L2120+0xfb2624>
    1484:	00180813          	addi	x16,x16,1
    1488:	0ffe7493          	andi	x9,x28,255
    148c:	fe0488e3          	beqz	x9,147c <.L178>
    1490:	ff0618e3          	bne	x12,x16,1480 <.L233>
    1494:	000000b7          	lui	x1,0x0
    1498:	0000a883          	lw	x17,0(x1) # 0 <_Z21hb_tiled_foreach_implIfZL26convolution_backward_inputP11hb_tensor_tS1_S1_P11hb_vector_tS3_EUlvE_JEEvjjT0_8HBTensorIT_Lln1EEPS7_.isra.0>
    149c:	231c0737          	lui	x14,0x231c0
    14a0:	00100f93          	li	x31,1
    14a4:	01888413          	addi	x8,x17,24
    14a8:	00868a33          	add	x20,x13,x8
    14ac:	00ea6f33          	or	x30,x20,x14
    14b0:	01ff0023          	sb	x31,0(x30) # c0000000 <.L2120+0xbfff2624>
    14b4:	00000d37          	lui	x26,0x0
    14b8:	000d2a83          	lw	x21,0(x26) # 0 <_Z21hb_tiled_foreach_implIfZL26convolution_backward_inputP11hb_tensor_tS1_S1_P11hb_vector_tS3_EUlvE_JEEvjjT0_8HBTensorIT_Lln1EEPS7_.isra.0>
    14bc:	00700b13          	li	x22,7
    14c0:	f56a94e3          	bne	x21,x22,1408 <.L231>
    14c4:	00000bb7          	lui	x23,0x0
    14c8:	000bac03          	lw	x24,0(x23) # 0 <_Z21hb_tiled_foreach_implIfZL26convolution_backward_inputP11hb_tensor_tS1_S1_P11hb_vector_tS3_EUlvE_JEEvjjT0_8HBTensorIT_Lln1EEPS7_.isra.0>
    14cc:	00300c93          	li	x25,3
    14d0:	119c0863          	beq	x24,x25,15e0 <.L317>

000014d4 <.L239>:
    14d4:	00100a93          	li	x21,1
    14d8:	0100006f          	j	14e8 <.L235>

000014dc <.L318>:
    14dc:	01468c13          	addi	x24,x13,20
    14e0:	140c2caf          	lr.w.aq	x25,(x24)
    14e4:	015c8863          	beq	x25,x21,14f4 <.L240>

000014e8 <.L235>:
    14e8:	01468b13          	addi	x22,x13,20
    14ec:	100b2baf          	lr.w	x23,(x22)
    14f0:	ff5b96e3          	bne	x23,x21,14dc <.L318>

000014f4 <.L240>:
    14f4:	0006aa23          	sw	x0,20(x13)
    14f8:	00000293          	li	x5,0
    14fc:	01000993          	li	x19,16

00001500 <.L241>:
    1500:	00568db3          	add	x27,x13,x5
    1504:	000d8223          	sb	x0,4(x27) # 201c0004 <.L2120+0x201b2628>
    1508:	00128293          	addi	x5,x5,1
    150c:	ff329ae3          	bne	x5,x19,1500 <.L241>
    1510:	0006a023          	sw	x0,0(x13)
    1514:	00000813          	li	x16,0
    1518:	200003b7          	lui	x7,0x20000
    151c:	00100913          	li	x18,1
    1520:	00040eb7          	lui	x29,0x40
    1524:	00400e37          	lui	x28,0x400

00001528 <.L242>:
    1528:	000007b7          	lui	x15,0x0
    152c:	0007a483          	lw	x9,0(x15) # 0 <_Z21hb_tiled_foreach_implIfZL26convolution_backward_inputP11hb_tensor_tS1_S1_P11hb_vector_tS3_EUlvE_JEEvjjT0_8HBTensorIT_Lln1EEPS7_.isra.0>
    1530:	0106e333          	or	x6,x13,x16
    1534:	01d80833          	add	x16,x16,x29
    1538:	01849513          	slli	x10,x9,0x18
    153c:	006560b3          	or	x1,x10,x6
    1540:	0070e8b3          	or	x17,x1,x7
    1544:	0128a023          	sw	x18,0(x17)
    1548:	ffc810e3          	bne	x16,x28,1528 <.L242>
    154c:	ebdff06f          	j	1408 <.L231>

00001550 <.L184>:
    1550:	07412083          	lw	x1,116(x2)
    1554:	08000713          	li	x14,128
    1558:	08412683          	lw	x13,132(x2)
    155c:	02175333          	divu	x6,x14,x1
    1560:	0266d3b3          	divu	x7,x13,x6
    1564:	04612823          	sw	x6,80(x2)
    1568:	02712023          	sw	x7,32(x2)
    156c:	dc13f4e3          	bgeu	x7,x1,1334 <.L188>
    1570:	04c12983          	lw	x19,76(x2)
    1574:	00138513          	addi	x10,x7,1 # 20000001 <.L2120+0x1fff2625>
    1578:	04a12c23          	sw	x10,88(x2)
    157c:	0269f933          	remu	x18,x19,x6
    1580:	06a12023          	sw	x10,96(x2)
    1584:	07212223          	sw	x18,100(x2)
    1588:	97dff06f          	j	f04 <.L185>

0000158c <.L308>:
    158c:	000002b7          	lui	x5,0x0
    1590:	00000db7          	lui	x27,0x0
    1594:	06f00613          	li	x12,111
    1598:	000d8593          	mv	x11,x27
    159c:	00028513          	mv	x10,x5
    15a0:	00000097          	auipc	x1,0x0
    15a4:	000080e7          	jalr	x1 # 15a0 <.L308+0x14>
    15a8:	10812583          	lw	x11,264(x2)
    15ac:	000003b7          	lui	x7,0x0
    15b0:	00038513          	mv	x10,x7
    15b4:	00000097          	auipc	x1,0x0
    15b8:	000080e7          	jalr	x1 # 15b4 <.L308+0x28>
    15bc:	00000937          	lui	x18,0x0
    15c0:	00092e83          	lw	x29,0(x18) # 0 <_Z21hb_tiled_foreach_implIfZL26convolution_backward_inputP11hb_tensor_tS1_S1_P11hb_vector_tS3_EUlvE_JEEvjjT0_8HBTensorIT_Lln1EEPS7_.isra.0>
    15c4:	00000e37          	lui	x28,0x0
    15c8:	000e2483          	lw	x9,0(x28) # 0 <_Z21hb_tiled_foreach_implIfZL26convolution_backward_inputP11hb_tensor_tS1_S1_P11hb_vector_tS3_EUlvE_JEEvjjT0_8HBTensorIT_Lln1EEPS7_.isra.0>
    15cc:	010e9793          	slli	x15,x29,0x10
    15d0:	4100f837          	lui	x16,0x4100f
    15d4:	00978333          	add	x6,x15,x9
    15d8:	ac682c23          	sw	x6,-1320(x16) # 4100ead8 <.L2120+0x410010fc>

000015dc <.L173>:
    15dc:	0000006f          	j	15dc <.L173>

000015e0 <.L317>:
    15e0:	000009b7          	lui	x19,0x0
    15e4:	000002b7          	lui	x5,0x0
    15e8:	01898d93          	addi	x27,x19,24 # 18 <.L8+0x4>
    15ec:	02028793          	addi	x15,x5,32 # 20 <.L8+0xc>

000015f0 <.L234>:
    15f0:	000d8913          	mv	x18,x27

000015f4 <.L236>:
    15f4:	00094383          	lbu	x7,0(x18)
    15f8:	00190913          	addi	x18,x18,1
    15fc:	0ff3fe93          	andi	x29,x7,255
    1600:	fe0e88e3          	beqz	x29,15f0 <.L234>
    1604:	ff2798e3          	bne	x15,x18,15f4 <.L236>
    1608:	00068c23          	sb	x0,24(x13)
    160c:	00068ca3          	sb	x0,25(x13)
    1610:	00068d23          	sb	x0,26(x13)
    1614:	00068da3          	sb	x0,27(x13)
    1618:	00068e23          	sb	x0,28(x13)
    161c:	00068ea3          	sb	x0,29(x13)
    1620:	00068f23          	sb	x0,30(x13)
    1624:	00068fa3          	sb	x0,31(x13)
    1628:	0006aa23          	sw	x0,20(x13)
    162c:	00000713          	li	x14,0
    1630:	03fc0e37          	lui	x28,0x3fc0
    1634:	20000337          	lui	x6,0x20000
    1638:	00100493          	li	x9,1
    163c:	01000837          	lui	x16,0x1000
    1640:	08000537          	lui	x10,0x8000
    1644:	0080006f          	j	164c <.L238>

00001648 <.L319>:
    1648:	000faa83          	lw	x21,0(x31)

0000164c <.L238>:
    164c:	012a9093          	slli	x1,x21,0x12
    1650:	00e668b3          	or	x17,x12,x14
    1654:	01c0f433          	and	x8,x1,x28
    1658:	01146a33          	or	x20,x8,x17
    165c:	006a6f33          	or	x30,x20,x6
    1660:	009f2023          	sw	x9,0(x30)
    1664:	01070733          	add	x14,x14,x16
    1668:	00000fb7          	lui	x31,0x0
    166c:	fca71ee3          	bne	x14,x10,1648 <.L319>
    1670:	000fa603          	lw	x12,0(x31) # 0 <_Z21hb_tiled_foreach_implIfZL26convolution_backward_inputP11hb_tensor_tS1_S1_P11hb_vector_tS3_EUlvE_JEEvjjT0_8HBTensorIT_Lln1EEPS7_.isra.0>
    1674:	00700d13          	li	x26,7
    1678:	e5a60ee3          	beq	x12,x26,14d4 <.L239>
    167c:	d8dff06f          	j	1408 <.L231>

00001680 <_ZN12_GLOBAL__N_128convolution_forward_templateILm8ELm32ELm32ELm32ELm16ELm32ELm32ELm1ELm1ELm1ELm1ELm0ELm0EEEiP11hb_tensor_tS2_S2_P11hb_vector_tS4_>:
    1680:	f2010113          	addi	x2,x2,-224
    1684:	0d212823          	sw	x18,208(x2)
    1688:	00050913          	mv	x18,x10
    168c:	0c912a23          	sw	x9,212(x2)
    1690:	00410513          	addi	x10,x2,4
    1694:	00058493          	mv	x9,x11
    1698:	00090593          	mv	x11,x18
    169c:	0c112e23          	sw	x1,220(x2)
    16a0:	0c812c23          	sw	x8,216(x2)
    16a4:	0d312623          	sw	x19,204(x2)
    16a8:	00060413          	mv	x8,x12
    16ac:	00070993          	mv	x19,x14
    16b0:	0d412423          	sw	x20,200(x2)
    16b4:	0d512223          	sw	x21,196(x2)
    16b8:	00068a13          	mv	x20,x13
    16bc:	0d612023          	sw	x22,192(x2)
    16c0:	0b712e23          	sw	x23,188(x2)
    16c4:	0b812c23          	sw	x24,184(x2)
    16c8:	0b912a23          	sw	x25,180(x2)
    16cc:	0ba12823          	sw	x26,176(x2)
    16d0:	0bb12623          	sw	x27,172(x2)
    16d4:	00000097          	auipc	x1,0x0
    16d8:	000080e7          	jalr	x1 # 16d4 <_ZN12_GLOBAL__N_128convolution_forward_templateILm8ELm32ELm32ELm32ELm16ELm32ELm32ELm1ELm1ELm1ELm1ELm0ELm0EEEiP11hb_tensor_tS2_S2_P11hb_vector_tS4_+0x54>
    16dc:	00048593          	mv	x11,x9
    16e0:	03810513          	addi	x10,x2,56
    16e4:	00000097          	auipc	x1,0x0
    16e8:	000080e7          	jalr	x1 # 16e4 <_ZN12_GLOBAL__N_128convolution_forward_templateILm8ELm32ELm32ELm32ELm16ELm32ELm32ELm1ELm1ELm1ELm1ELm0ELm0EEEiP11hb_tensor_tS2_S2_P11hb_vector_tS4_+0x64>
    16ec:	00040593          	mv	x11,x8
    16f0:	06c10513          	addi	x10,x2,108
    16f4:	00000097          	auipc	x1,0x0
    16f8:	000080e7          	jalr	x1 # 16f4 <_ZN12_GLOBAL__N_128convolution_forward_templateILm8ELm32ELm32ELm32ELm16ELm32ELm32ELm1ELm1ELm1ELm1ELm0ELm0EEEiP11hb_tensor_tS2_S2_P11hb_vector_tS4_+0x74>
    16fc:	00812783          	lw	x15,8(x2)
    1700:	10078e63          	beqz	x15,181c <.L394>
    1704:	00100713          	li	x14,1
    1708:	0cf77063          	bgeu	x14,x15,17c8 <.L395>
    170c:	00200693          	li	x13,2
    1710:	1ad78a63          	beq	x15,x13,18c4 <.L396>
    1714:	00300613          	li	x12,3
    1718:	20c78063          	beq	x15,x12,1918 <.L397>
    171c:	03c12083          	lw	x1,60(x2)
    1720:	14177863          	bgeu	x14,x1,1870 <.L398>
    1724:	28d08e63          	beq	x1,x13,19c0 <.L399>
    1728:	2ec08663          	beq	x1,x12,1a14 <.L400>
    172c:	07012283          	lw	x5,112(x2)
    1730:	2256fe63          	bgeu	x13,x5,196c <.L401>
    1734:	32c28a63          	beq	x5,x12,1a68 <.L402>
    1738:	01012383          	lw	x7,16(x2)
    173c:	04412a83          	lw	x21,68(x2)
    1740:	004a2503          	lw	x10,4(x20)
    1744:	0049a303          	lw	x6,4(x19)
    1748:	07812e03          	lw	x28,120(x2)
    174c:	0003ab03          	lw	x22,0(x7) # 0 <_Z21hb_tiled_foreach_implIfZL26convolution_backward_inputP11hb_tensor_tS1_S1_P11hb_vector_tS3_EUlvE_JEEvjjT0_8HBTensorIT_Lln1EEPS7_.isra.0>
    1750:	00800f93          	li	x31,8
    1754:	00052a03          	lw	x20,0(x10) # 8000000 <.L2120+0x7ff2624>
    1758:	00452983          	lw	x19,4(x10)
    175c:	0043a883          	lw	x17,4(x7)
    1760:	0083a803          	lw	x16,8(x7)
    1764:	00c3a583          	lw	x11,12(x7)
    1768:	004aaf03          	lw	x30,4(x21)
    176c:	008aab83          	lw	x23,8(x21)
    1770:	00caae83          	lw	x29,12(x21)
    1774:	008e2c03          	lw	x24,8(x28) # 3fc0008 <.L2120+0x3fb262c>
    1778:	00ce2c83          	lw	x25,12(x28)
    177c:	00032d03          	lw	x26,0(x6) # 20000000 <.L2120+0x1fff2624>
    1780:	00432d83          	lw	x27,4(x6)
    1784:	fff00513          	li	x10,-1
    1788:	33fb0a63          	beq	x22,x31,1abc <.L403>

0000178c <.L320>:
    178c:	0dc12083          	lw	x1,220(x2)
    1790:	0d812403          	lw	x8,216(x2)
    1794:	0d412483          	lw	x9,212(x2)
    1798:	0d012903          	lw	x18,208(x2)
    179c:	0cc12983          	lw	x19,204(x2)
    17a0:	0c812a03          	lw	x20,200(x2)
    17a4:	0c412a83          	lw	x21,196(x2)
    17a8:	0c012b03          	lw	x22,192(x2)
    17ac:	0bc12b83          	lw	x23,188(x2)
    17b0:	0b812c03          	lw	x24,184(x2)
    17b4:	0b412c83          	lw	x25,180(x2)
    17b8:	0b012d03          	lw	x26,176(x2)
    17bc:	0ac12d83          	lw	x27,172(x2)
    17c0:	0e010113          	addi	x2,x2,224
    17c4:	00008067          	ret

000017c8 <.L395>:
    17c8:	000000b7          	lui	x1,0x0
    17cc:	00000ab7          	lui	x21,0x0
    17d0:	00008593          	mv	x11,x1
    17d4:	06f00613          	li	x12,111
    17d8:	000a8513          	mv	x10,x21
    17dc:	00000097          	auipc	x1,0x0
    17e0:	000080e7          	jalr	x1 # 17dc <.L395+0x14>
    17e4:	00812583          	lw	x11,8(x2)
    17e8:	00000b37          	lui	x22,0x0
    17ec:	000b0513          	mv	x10,x22
    17f0:	00000097          	auipc	x1,0x0
    17f4:	000080e7          	jalr	x1 # 17f0 <.L395+0x28>
    17f8:	000005b7          	lui	x11,0x0
    17fc:	0005ac83          	lw	x25,0(x11) # 0 <_Z21hb_tiled_foreach_implIfZL26convolution_backward_inputP11hb_tensor_tS1_S1_P11hb_vector_tS3_EUlvE_JEEvjjT0_8HBTensorIT_Lln1EEPS7_.isra.0>
    1800:	00000d37          	lui	x26,0x0
    1804:	000d2e03          	lw	x28,0(x26) # 0 <_Z21hb_tiled_foreach_implIfZL26convolution_backward_inputP11hb_tensor_tS1_S1_P11hb_vector_tS3_EUlvE_JEEvjjT0_8HBTensorIT_Lln1EEPS7_.isra.0>
    1808:	010c9e93          	slli	x29,x25,0x10
    180c:	4100fa37          	lui	x20,0x4100f
    1810:	01ce8f33          	add	x30,x29,x28
    1814:	adea2c23          	sw	x30,-1320(x20) # 4100ead8 <.L2120+0x410010fc>

00001818 <.L324>:
    1818:	0000006f          	j	1818 <.L324>

0000181c <.L394>:
    181c:	00000fb7          	lui	x31,0x0
    1820:	00000c37          	lui	x24,0x0
    1824:	06f00613          	li	x12,111
    1828:	000c0593          	mv	x11,x24
    182c:	000f8513          	mv	x10,x31
    1830:	00000097          	auipc	x1,0x0
    1834:	000080e7          	jalr	x1 # 1830 <.L394+0x14>
    1838:	00812583          	lw	x11,8(x2)
    183c:	000004b7          	lui	x9,0x0
    1840:	00048513          	mv	x10,x9
    1844:	00000097          	auipc	x1,0x0
    1848:	000080e7          	jalr	x1 # 1844 <.L394+0x28>
    184c:	00000737          	lui	x14,0x0
    1850:	00072503          	lw	x10,0(x14) # 0 <_Z21hb_tiled_foreach_implIfZL26convolution_backward_inputP11hb_tensor_tS1_S1_P11hb_vector_tS3_EUlvE_JEEvjjT0_8HBTensorIT_Lln1EEPS7_.isra.0>
    1854:	000006b7          	lui	x13,0x0
    1858:	0006a983          	lw	x19,0(x13) # 0 <_Z21hb_tiled_foreach_implIfZL26convolution_backward_inputP11hb_tensor_tS1_S1_P11hb_vector_tS3_EUlvE_JEEvjjT0_8HBTensorIT_Lln1EEPS7_.isra.0>
    185c:	01051793          	slli	x15,x10,0x10
    1860:	4100fdb7          	lui	x27,0x4100f
    1864:	01378bb3          	add	x23,x15,x19
    1868:	ad7dac23          	sw	x23,-1320(x27) # 4100ead8 <.L2120+0x410010fc>

0000186c <.L322>:
    186c:	0000006f          	j	186c <.L322>

00001870 <.L398>:
    1870:	000000b7          	lui	x1,0x0
    1874:	00000937          	lui	x18,0x0
    1878:	00008593          	mv	x11,x1
    187c:	06f00613          	li	x12,111
    1880:	00090513          	mv	x10,x18
    1884:	00000097          	auipc	x1,0x0
    1888:	000080e7          	jalr	x1 # 1884 <.L398+0x14>
    188c:	03c12583          	lw	x11,60(x2)
    1890:	00000837          	lui	x16,0x0
    1894:	00080513          	mv	x10,x16
    1898:	00000097          	auipc	x1,0x0
    189c:	000080e7          	jalr	x1 # 1898 <.L398+0x28>
    18a0:	000005b7          	lui	x11,0x0
    18a4:	0005aa83          	lw	x21,0(x11) # 0 <_Z21hb_tiled_foreach_implIfZL26convolution_backward_inputP11hb_tensor_tS1_S1_P11hb_vector_tS3_EUlvE_JEEvjjT0_8HBTensorIT_Lln1EEPS7_.isra.0>
    18a8:	00000b37          	lui	x22,0x0
    18ac:	000b2c83          	lw	x25,0(x22) # 0 <_Z21hb_tiled_foreach_implIfZL26convolution_backward_inputP11hb_tensor_tS1_S1_P11hb_vector_tS3_EUlvE_JEEvjjT0_8HBTensorIT_Lln1EEPS7_.isra.0>
    18b0:	010a9d13          	slli	x26,x21,0x10
    18b4:	4100feb7          	lui	x29,0x4100f
    18b8:	019d0e33          	add	x28,x26,x25
    18bc:	adceac23          	sw	x28,-1320(x29) # 4100ead8 <.L2120+0x410010fc>

000018c0 <.L330>:
    18c0:	0000006f          	j	18c0 <.L330>

000018c4 <.L396>:
    18c4:	00000bb7          	lui	x23,0x0
    18c8:	00000db7          	lui	x27,0x0
    18cc:	06f00613          	li	x12,111
    18d0:	000b8593          	mv	x11,x23
    18d4:	000d8513          	mv	x10,x27
    18d8:	00000097          	auipc	x1,0x0
    18dc:	000080e7          	jalr	x1 # 18d8 <.L396+0x14>
    18e0:	00812583          	lw	x11,8(x2)
    18e4:	00000637          	lui	x12,0x0
    18e8:	00060513          	mv	x10,x12
    18ec:	00000097          	auipc	x1,0x0
    18f0:	000080e7          	jalr	x1 # 18ec <.L396+0x28>
    18f4:	000002b7          	lui	x5,0x0
    18f8:	0002a383          	lw	x7,0(x5) # 0 <_Z21hb_tiled_foreach_implIfZL26convolution_backward_inputP11hb_tensor_tS1_S1_P11hb_vector_tS3_EUlvE_JEEvjjT0_8HBTensorIT_Lln1EEPS7_.isra.0>
    18fc:	00000437          	lui	x8,0x0
    1900:	00042303          	lw	x6,0(x8) # 0 <_Z21hb_tiled_foreach_implIfZL26convolution_backward_inputP11hb_tensor_tS1_S1_P11hb_vector_tS3_EUlvE_JEEvjjT0_8HBTensorIT_Lln1EEPS7_.isra.0>
    1904:	01039893          	slli	x17,x7,0x10
    1908:	4100f837          	lui	x16,0x4100f
    190c:	00688933          	add	x18,x17,x6
    1910:	ad282c23          	sw	x18,-1320(x16) # 4100ead8 <.L2120+0x410010fc>

00001914 <.L326>:
    1914:	0000006f          	j	1914 <.L326>

00001918 <.L397>:
    1918:	00000f37          	lui	x30,0x0
    191c:	00000a37          	lui	x20,0x0
    1920:	000f0593          	mv	x11,x30
    1924:	06f00613          	li	x12,111
    1928:	000a0513          	mv	x10,x20
    192c:	00000097          	auipc	x1,0x0
    1930:	000080e7          	jalr	x1 # 192c <.L397+0x14>
    1934:	00812583          	lw	x11,8(x2)
    1938:	00000c37          	lui	x24,0x0
    193c:	000c0513          	mv	x10,x24
    1940:	00000097          	auipc	x1,0x0
    1944:	000080e7          	jalr	x1 # 1940 <.L397+0x28>
    1948:	00000fb7          	lui	x31,0x0
    194c:	000fa483          	lw	x9,0(x31) # 0 <_Z21hb_tiled_foreach_implIfZL26convolution_backward_inputP11hb_tensor_tS1_S1_P11hb_vector_tS3_EUlvE_JEEvjjT0_8HBTensorIT_Lln1EEPS7_.isra.0>
    1950:	00000737          	lui	x14,0x0
    1954:	00072503          	lw	x10,0(x14) # 0 <_Z21hb_tiled_foreach_implIfZL26convolution_backward_inputP11hb_tensor_tS1_S1_P11hb_vector_tS3_EUlvE_JEEvjjT0_8HBTensorIT_Lln1EEPS7_.isra.0>
    1958:	01049693          	slli	x13,x9,0x10
    195c:	4100f7b7          	lui	x15,0x4100f
    1960:	00a689b3          	add	x19,x13,x10
    1964:	ad37ac23          	sw	x19,-1320(x15) # 4100ead8 <.L2120+0x410010fc>

00001968 <.L328>:
    1968:	0000006f          	j	1968 <.L328>

0000196c <.L401>:
    196c:	000000b7          	lui	x1,0x0
    1970:	00000337          	lui	x6,0x0
    1974:	00008593          	mv	x11,x1
    1978:	06f00613          	li	x12,111
    197c:	00030513          	mv	x10,x6
    1980:	00000097          	auipc	x1,0x0
    1984:	000080e7          	jalr	x1 # 1980 <.L401+0x14>
    1988:	07012583          	lw	x11,112(x2)
    198c:	000008b7          	lui	x17,0x0
    1990:	00088513          	mv	x10,x17
    1994:	00000097          	auipc	x1,0x0
    1998:	000080e7          	jalr	x1 # 1994 <.L401+0x28>
    199c:	000005b7          	lui	x11,0x0
    19a0:	0005a903          	lw	x18,0(x11) # 0 <_Z21hb_tiled_foreach_implIfZL26convolution_backward_inputP11hb_tensor_tS1_S1_P11hb_vector_tS3_EUlvE_JEEvjjT0_8HBTensorIT_Lln1EEPS7_.isra.0>
    19a4:	00000837          	lui	x16,0x0
    19a8:	00082a83          	lw	x21,0(x16) # 0 <_Z21hb_tiled_foreach_implIfZL26convolution_backward_inputP11hb_tensor_tS1_S1_P11hb_vector_tS3_EUlvE_JEEvjjT0_8HBTensorIT_Lln1EEPS7_.isra.0>
    19ac:	01091b13          	slli	x22,x18,0x10
    19b0:	4100fd37          	lui	x26,0x4100f
    19b4:	015b0cb3          	add	x25,x22,x21
    19b8:	ad9d2c23          	sw	x25,-1320(x26) # 4100ead8 <.L2120+0x410010fc>

000019bc <.L336>:
    19bc:	0000006f          	j	19bc <.L336>

000019c0 <.L399>:
    19c0:	000007b7          	lui	x15,0x0
    19c4:	000009b7          	lui	x19,0x0
    19c8:	06f00613          	li	x12,111
    19cc:	00098593          	mv	x11,x19
    19d0:	00078513          	mv	x10,x15
    19d4:	00000097          	auipc	x1,0x0
    19d8:	000080e7          	jalr	x1 # 19d4 <.L399+0x14>
    19dc:	03c12583          	lw	x11,60(x2)
    19e0:	00000637          	lui	x12,0x0
    19e4:	00060513          	mv	x10,x12
    19e8:	00000097          	auipc	x1,0x0
    19ec:	000080e7          	jalr	x1 # 19e8 <.L399+0x28>
    19f0:	00000bb7          	lui	x23,0x0
    19f4:	000bad83          	lw	x27,0(x23) # 0 <_Z21hb_tiled_foreach_implIfZL26convolution_backward_inputP11hb_tensor_tS1_S1_P11hb_vector_tS3_EUlvE_JEEvjjT0_8HBTensorIT_Lln1EEPS7_.isra.0>
    19f8:	000002b7          	lui	x5,0x0
    19fc:	0002a383          	lw	x7,0(x5) # 0 <_Z21hb_tiled_foreach_implIfZL26convolution_backward_inputP11hb_tensor_tS1_S1_P11hb_vector_tS3_EUlvE_JEEvjjT0_8HBTensorIT_Lln1EEPS7_.isra.0>
    1a00:	010d9413          	slli	x8,x27,0x10
    1a04:	4100f8b7          	lui	x17,0x4100f
    1a08:	00740333          	add	x6,x8,x7
    1a0c:	ac68ac23          	sw	x6,-1320(x17) # 4100ead8 <.L2120+0x410010fc>

00001a10 <.L332>:
    1a10:	0000006f          	j	1a10 <.L332>

00001a14 <.L400>:
    1a14:	00000e37          	lui	x28,0x0
    1a18:	00000eb7          	lui	x29,0x0
    1a1c:	000e0593          	mv	x11,x28
    1a20:	06f00613          	li	x12,111
    1a24:	000e8513          	mv	x10,x29
    1a28:	00000097          	auipc	x1,0x0
    1a2c:	000080e7          	jalr	x1 # 1a28 <.L400+0x14>
    1a30:	03c12583          	lw	x11,60(x2)
    1a34:	00000f37          	lui	x30,0x0
    1a38:	000f0513          	mv	x10,x30
    1a3c:	00000097          	auipc	x1,0x0
    1a40:	000080e7          	jalr	x1 # 1a3c <.L400+0x28>
    1a44:	00000a37          	lui	x20,0x0
    1a48:	000a2c03          	lw	x24,0(x20) # 0 <_Z21hb_tiled_foreach_implIfZL26convolution_backward_inputP11hb_tensor_tS1_S1_P11hb_vector_tS3_EUlvE_JEEvjjT0_8HBTensorIT_Lln1EEPS7_.isra.0>
    1a4c:	00000fb7          	lui	x31,0x0
    1a50:	000fa703          	lw	x14,0(x31) # 0 <_Z21hb_tiled_foreach_implIfZL26convolution_backward_inputP11hb_tensor_tS1_S1_P11hb_vector_tS3_EUlvE_JEEvjjT0_8HBTensorIT_Lln1EEPS7_.isra.0>
    1a54:	010c1493          	slli	x9,x24,0x10
    1a58:	4100f6b7          	lui	x13,0x4100f
    1a5c:	00e48533          	add	x10,x9,x14
    1a60:	aca6ac23          	sw	x10,-1320(x13) # 4100ead8 <.L2120+0x410010fc>

00001a64 <.L334>:
    1a64:	0000006f          	j	1a64 <.L334>

00001a68 <.L402>:
    1a68:	000006b7          	lui	x13,0x0
    1a6c:	00000537          	lui	x10,0x0
    1a70:	06f00613          	li	x12,111
    1a74:	00050593          	mv	x11,x10
    1a78:	00068513          	mv	x10,x13
    1a7c:	00000097          	auipc	x1,0x0
    1a80:	000080e7          	jalr	x1 # 1a7c <.L402+0x14>
    1a84:	07012583          	lw	x11,112(x2)
    1a88:	000009b7          	lui	x19,0x0
    1a8c:	00098513          	mv	x10,x19
    1a90:	00000097          	auipc	x1,0x0
    1a94:	000080e7          	jalr	x1 # 1a90 <.L402+0x28>
    1a98:	000007b7          	lui	x15,0x0
    1a9c:	0007a603          	lw	x12,0(x15) # 0 <_Z21hb_tiled_foreach_implIfZL26convolution_backward_inputP11hb_tensor_tS1_S1_P11hb_vector_tS3_EUlvE_JEEvjjT0_8HBTensorIT_Lln1EEPS7_.isra.0>
    1aa0:	00000bb7          	lui	x23,0x0
    1aa4:	000bad83          	lw	x27,0(x23) # 0 <_Z21hb_tiled_foreach_implIfZL26convolution_backward_inputP11hb_tensor_tS1_S1_P11hb_vector_tS3_EUlvE_JEEvjjT0_8HBTensorIT_Lln1EEPS7_.isra.0>
    1aa8:	01061293          	slli	x5,x12,0x10
    1aac:	4100f437          	lui	x8,0x4100f
    1ab0:	01b283b3          	add	x7,x5,x27
    1ab4:	ac742c23          	sw	x7,-1320(x8) # 4100ead8 <.L2120+0x410010fc>

00001ab8 <.L338>:
    1ab8:	0000006f          	j	1ab8 <.L338>

00001abc <.L403>:
    1abc:	02000793          	li	x15,32
    1ac0:	ccf896e3          	bne	x17,x15,178c <.L320>
    1ac4:	cd1814e3          	bne	x16,x17,178c <.L320>
    1ac8:	cd0592e3          	bne	x11,x16,178c <.L320>
    1acc:	01000713          	li	x14,16
    1ad0:	caef1ee3          	bne	x30,x14,178c <.L320>
    1ad4:	cabb9ce3          	bne	x23,x11,178c <.L320>
    1ad8:	cb7e9ae3          	bne	x29,x23,178c <.L320>
    1adc:	00100693          	li	x13,1
    1ae0:	cadc16e3          	bne	x24,x13,178c <.L320>
    1ae4:	cb8c94e3          	bne	x25,x24,178c <.L320>
    1ae8:	cb9d12e3          	bne	x26,x25,178c <.L320>
    1aec:	cbad90e3          	bne	x27,x26,178c <.L320>
    1af0:	013a6a33          	or	x20,x20,x19
    1af4:	c80a1ce3          	bnez	x20,178c <.L320>
    1af8:	00000637          	lui	x12,0x0
    1afc:	000003b7          	lui	x7,0x0
    1b00:	00000c37          	lui	x24,0x0
    1b04:	00000bb7          	lui	x23,0x0
    1b08:	00062083          	lw	x1,0(x12) # 0 <_Z21hb_tiled_foreach_implIfZL26convolution_backward_inputP11hb_tensor_tS1_S1_P11hb_vector_tS3_EUlvE_JEEvjjT0_8HBTensorIT_Lln1EEPS7_.isra.0>
    1b0c:	0003aa83          	lw	x21,0(x7) # 0 <_Z21hb_tiled_foreach_implIfZL26convolution_backward_inputP11hb_tensor_tS1_S1_P11hb_vector_tS3_EUlvE_JEEvjjT0_8HBTensorIT_Lln1EEPS7_.isra.0>
    1b10:	000c2283          	lw	x5,0(x24) # 0 <_Z21hb_tiled_foreach_implIfZL26convolution_backward_inputP11hb_tensor_tS1_S1_P11hb_vector_tS3_EUlvE_JEEvjjT0_8HBTensorIT_Lln1EEPS7_.isra.0>
    1b14:	000ba503          	lw	x10,0(x23) # 0 <_Z21hb_tiled_foreach_implIfZL26convolution_backward_inputP11hb_tensor_tS1_S1_P11hb_vector_tS3_EUlvE_JEEvjjT0_8HBTensorIT_Lln1EEPS7_.isra.0>
    1b18:	00000337          	lui	x6,0x0
    1b1c:	00032e03          	lw	x28,0(x6) # 0 <_Z21hb_tiled_foreach_implIfZL26convolution_backward_inputP11hb_tensor_tS1_S1_P11hb_vector_tS3_EUlvE_JEEvjjT0_8HBTensorIT_Lln1EEPS7_.isra.0>
    1b20:	00508b33          	add	x22,x1,x5
    1b24:	00aa8fb3          	add	x31,x21,x10
    1b28:	018b1893          	slli	x17,x22,0x18
    1b2c:	012f9813          	slli	x16,x31,0x12
    1b30:	3f0005b7          	lui	x11,0x3f000
    1b34:	00fc0eb7          	lui	x29,0xfc0
    1b38:	000409b7          	lui	x19,0x40
    1b3c:	004e1d13          	slli	x26,x28,0x4
    1b40:	00b8ff33          	and	x30,x17,x11
    1b44:	01d87cb3          	and	x25,x16,x29
    1b48:	ff098793          	addi	x15,x19,-16 # 3fff0 <.L2120+0x32614>
    1b4c:	019f6db3          	or	x27,x30,x25
    1b50:	00fd7733          	and	x14,x26,x15
    1b54:	00ede6b3          	or	x13,x27,x14
    1b58:	80000637          	lui	x12,0x80000
    1b5c:	01092283          	lw	x5,16(x18) # 10 <_Z21hb_tiled_foreach_implIfZL26convolution_backward_inputP11hb_tensor_tS1_S1_P11hb_vector_tS3_EUlvE_JEEvjjT0_8HBTensorIT_Lln1EEPS7_.isra.0+0x10>
    1b60:	00c6e0b3          	or	x1,x13,x12
    1b64:	01042903          	lw	x18,16(x8)
    1b68:	41001437          	lui	x8,0x41001
    1b6c:	000003b7          	lui	x7,0x0
    1b70:	0104a483          	lw	x9,16(x9) # 10 <_Z21hb_tiled_foreach_implIfZL26convolution_backward_inputP11hb_tensor_tS1_S1_P11hb_vector_tS3_EUlvE_JEEvjjT0_8HBTensorIT_Lln1EEPS7_.isra.0+0x10>
    1b74:	d0142623          	sw	x1,-756(x8) # 41000d0c <.L2120+0x40ff3330>
    1b78:	0003aa83          	lw	x21,0(x7) # 0 <_Z21hb_tiled_foreach_implIfZL26convolution_backward_inputP11hb_tensor_tS1_S1_P11hb_vector_tS3_EUlvE_JEEvjjT0_8HBTensorIT_Lln1EEPS7_.isra.0>
    1b7c:	02000513          	li	x10,32
    1b80:	003af313          	andi	x6,x21,3
    1b84:	00331e13          	slli	x28,x6,0x3
    1b88:	006e0433          	add	x8,x28,x6
    1b8c:	002adb13          	srli	x22,x21,0x2
    1b90:	00940393          	addi	x7,x8,9
    1b94:	01fb7f93          	andi	x31,x22,31
    1b98:	00757463          	bgeu	x10,x7,1ba0 <.L340>
    1b9c:	02000393          	li	x7,32

00001ba0 <.L340>:
    1ba0:	006e08b3          	add	x17,x28,x6
    1ba4:	00bf9593          	slli	x11,x31,0xb
    1ba8:	00689813          	slli	x16,x17,0x6
    1bac:	40b80f33          	sub	x30,x16,x11
    1bb0:	009f0eb3          	add	x29,x30,x9
    1bb4:	00cf9c93          	slli	x25,x31,0xc
    1bb8:	40928d33          	sub	x26,x5,x9
    1bbc:	006f9d93          	slli	x27,x31,0x6
    1bc0:	001e9793          	slli	x15,x29,0x1
    1bc4:	01ac89b3          	add	x19,x25,x26
    1bc8:	012d8933          	add	x18,x27,x18
    1bcc:	00589b13          	slli	x22,x17,0x5
    1bd0:	00539d93          	slli	x27,x7,0x5
    1bd4:	40578ab3          	sub	x21,x15,x5
    1bd8:	00000493          	li	x9,0
    1bdc:	fffff0b7          	lui	x1,0xfffff
    1be0:	00001fb7          	lui	x31,0x1
    1be4:	01000f13          	li	x30,16
    1be8:	00010d37          	lui	x26,0x10
    1bec:	00004cb7          	lui	x25,0x4

00001bf0 <.L347>:
    1bf0:	01b48533          	add	x10,x9,x27
    1bf4:	013a8eb3          	add	x29,x21,x19
    1bf8:	01648e33          	add	x28,x9,x22
    1bfc:	00098293          	mv	x5,x19
    1c00:	00090893          	mv	x17,x18
    1c04:	00000313          	li	x6,0

00001c08 <.L343>:
    1c08:	0008a687          	flw	f13,0(x17)
    1c0c:	000e0693          	mv	x13,x28
    1c10:	000e8593          	mv	x11,x29
    1c14:	ffc28813          	addi	x16,x5,-4
    1c18:	04747a63          	bgeu	x8,x7,1c6c <.L346>

00001c1c <.L341>:
    1c1c:	00458713          	addi	x14,x11,4 # 3f000004 <.L2120+0x3eff2628>
    1c20:	0005a007          	flw	f0,0(x11)
    1c24:	f0000753          	fmv.w.x	f14,x0
    1c28:	08058593          	addi	x11,x11,128
    1c2c:	00e80633          	add	x12,x16,x14
    1c30:	00030463          	beqz	x6,1c38 <.L365>

00001c34 <.L405>:
    1c34:	00062707          	flw	f14,0(x12) # 80000000 <.L2120+0x7fff2624>

00001c38 <.L365>:
    1c38:	70d077c3          	fmadd.s	f15,f0,f13,f14
    1c3c:	00f62027          	fsw	f15,0(x12)
    1c40:	02e58263          	beq	x11,x14,1c64 <.L404>

00001c44 <.L345>:
    1c44:	00072007          	flw	f0,0(x14)
    1c48:	00470713          	addi	x14,x14,4
    1c4c:	f0000753          	fmv.w.x	f14,x0
    1c50:	00e80633          	add	x12,x16,x14
    1c54:	fe0310e3          	bnez	x6,1c34 <.L405>
    1c58:	70d077c3          	fmadd.s	f15,f0,f13,f14
    1c5c:	00f62027          	fsw	f15,0(x12)
    1c60:	fee592e3          	bne	x11,x14,1c44 <.L345>

00001c64 <.L404>:
    1c64:	02068693          	addi	x13,x13,32 # 20 <.L8+0xc>
    1c68:	faa69ae3          	bne	x13,x10,1c1c <.L341>

00001c6c <.L346>:
    1c6c:	00130313          	addi	x6,x6,1
    1c70:	00488893          	addi	x17,x17,4
    1c74:	40050513          	addi	x10,x10,1024 # 400 <.L112+0xc>
    1c78:	001282b3          	add	x5,x5,x1
    1c7c:	01fe8eb3          	add	x29,x29,x31
    1c80:	400e0e13          	addi	x28,x28,1024 # 400 <.L112+0xc>
    1c84:	f9e312e3          	bne	x6,x30,1c08 <.L343>
    1c88:	019484b3          	add	x9,x9,x25
    1c8c:	000207b7          	lui	x15,0x20
    1c90:	01a989b3          	add	x19,x19,x26
    1c94:	f4f49ee3          	bne	x9,x15,1bf0 <.L347>
    1c98:	00000637          	lui	x12,0x0
    1c9c:	000003b7          	lui	x7,0x0
    1ca0:	00062083          	lw	x1,0(x12) # 0 <_Z21hb_tiled_foreach_implIfZL26convolution_backward_inputP11hb_tensor_tS1_S1_P11hb_vector_tS3_EUlvE_JEEvjjT0_8HBTensorIT_Lln1EEPS7_.isra.0>
    1ca4:	0003a403          	lw	x8,0(x7) # 0 <_Z21hb_tiled_foreach_implIfZL26convolution_backward_inputP11hb_tensor_tS1_S1_P11hb_vector_tS3_EUlvE_JEEvjjT0_8HBTensorIT_Lln1EEPS7_.isra.0>
    1ca8:	000c2283          	lw	x5,0(x24)
    1cac:	000ba503          	lw	x10,0(x23)
    1cb0:	00000337          	lui	x6,0x0
    1cb4:	00032583          	lw	x11,0(x6) # 0 <_Z21hb_tiled_foreach_implIfZL26convolution_backward_inputP11hb_tensor_tS1_S1_P11hb_vector_tS3_EUlvE_JEEvjjT0_8HBTensorIT_Lln1EEPS7_.isra.0>
    1cb8:	00508833          	add	x16,x1,x5
    1cbc:	00a408b3          	add	x17,x8,x10
    1cc0:	01881913          	slli	x18,x16,0x18
    1cc4:	01289a93          	slli	x21,x17,0x12
    1cc8:	3f000b37          	lui	x22,0x3f000
    1ccc:	00fc0d37          	lui	x26,0xfc0
    1cd0:	00040f37          	lui	x30,0x40
    1cd4:	01697cb3          	and	x25,x18,x22
    1cd8:	01aafdb3          	and	x27,x21,x26
    1cdc:	00459e13          	slli	x28,x11,0x4
    1ce0:	ff0f0f93          	addi	x31,x30,-16 # 3fff0 <.L2120+0x32614>
    1ce4:	01bceeb3          	or	x29,x25,x27
    1ce8:	01fe7733          	and	x14,x28,x31
    1cec:	00eee6b3          	or	x13,x29,x14
    1cf0:	c00004b7          	lui	x9,0xc0000
    1cf4:	0096e9b3          	or	x19,x13,x9
    1cf8:	410017b7          	lui	x15,0x41001
    1cfc:	d137a623          	sw	x19,-756(x15) # 41000d0c <.L2120+0x40ff3330>
    1d00:	000ba603          	lw	x12,0(x23)
    1d04:	000c2083          	lw	x1,0(x24)
    1d08:	00000537          	lui	x10,0x0
    1d0c:	00460293          	addi	x5,x12,4
    1d10:	00050693          	mv	x13,x10
    1d14:	005683b3          	add	x7,x13,x5
    1d18:	01809413          	slli	x8,x1,0x18
    1d1c:	0083e333          	or	x6,x7,x8
    1d20:	201c05b7          	lui	x11,0x201c0
    1d24:	00b36833          	or	x16,x6,x11
    1d28:	00100893          	li	x17,1
    1d2c:	01180023          	sb	x17,0(x16)
    1d30:	000ba903          	lw	x18,0(x23)
    1d34:	00700a93          	li	x21,7
    1d38:	03590863          	beq	x18,x21,1d68 <.L406>

00001d3c <.L358>:
    1d3c:	00100a13          	li	x20,1
    1d40:	0100006f          	j	1d50 <.L363>

00001d44 <.L407>:
    1d44:	00050713          	mv	x14,x10
    1d48:	140724af          	lr.w.aq	x9,(x14)
    1d4c:	01448863          	beq	x9,x20,1d5c <.L362>

00001d50 <.L363>:
    1d50:	00050c13          	mv	x24,x10
    1d54:	100c2faf          	lr.w	x31,(x24)
    1d58:	ff4f96e3          	bne	x31,x20,1d44 <.L407>

00001d5c <.L362>:
    1d5c:	0006a023          	sw	x0,0(x13)
    1d60:	00000513          	li	x10,0
    1d64:	a29ff06f          	j	178c <.L320>

00001d68 <.L406>:
    1d68:	00000b37          	lui	x22,0x0
    1d6c:	00000d37          	lui	x26,0x0
    1d70:	004b0c93          	addi	x25,x22,4 # 4 <_Z21hb_tiled_foreach_implIfZL26convolution_backward_inputP11hb_tensor_tS1_S1_P11hb_vector_tS3_EUlvE_JEEvjjT0_8HBTensorIT_Lln1EEPS7_.isra.0+0x4>
    1d74:	014d0d93          	addi	x27,x26,20 # 14 <.L8>

00001d78 <.L349>:
    1d78:	000c8e93          	mv	x29,x25

00001d7c <.L351>:
    1d7c:	000ece03          	lbu	x28,0(x29) # fc0000 <.L2120+0xfb2624>
    1d80:	001e8e93          	addi	x29,x29,1
    1d84:	0ffe7f13          	andi	x30,x28,255
    1d88:	fe0f08e3          	beqz	x30,1d78 <.L349>
    1d8c:	ffdd98e3          	bne	x27,x29,1d7c <.L351>
    1d90:	000c2f83          	lw	x31,0(x24)
    1d94:	231c09b7          	lui	x19,0x231c0
    1d98:	00100613          	li	x12,1
    1d9c:	018f8713          	addi	x14,x31,24 # 1018 <.L314+0x1c>
    1da0:	00e684b3          	add	x9,x13,x14
    1da4:	0134e7b3          	or	x15,x9,x19
    1da8:	00c78023          	sb	x12,0(x15)
    1dac:	000ba083          	lw	x1,0(x23)
    1db0:	00700293          	li	x5,7
    1db4:	f85094e3          	bne	x1,x5,1d3c <.L358>
    1db8:	000c2383          	lw	x7,0(x24)
    1dbc:	00300413          	li	x8,3
    1dc0:	06838c63          	beq	x7,x8,1e38 <.L408>

00001dc4 <.L357>:
    1dc4:	00100d93          	li	x27,1
    1dc8:	0100006f          	j	1dd8 <.L353>

00001dcc <.L409>:
    1dcc:	01468393          	addi	x7,x13,20
    1dd0:	1403a42f          	lr.w.aq	x8,(x7)
    1dd4:	01b40863          	beq	x8,x27,1de4 <.L359>

00001dd8 <.L353>:
    1dd8:	01468093          	addi	x1,x13,20
    1ddc:	1000a2af          	lr.w	x5,(x1)
    1de0:	ffb296e3          	bne	x5,x27,1dcc <.L409>

00001de4 <.L359>:
    1de4:	0006aa23          	sw	x0,20(x13)
    1de8:	00000593          	li	x11,0
    1dec:	01000313          	li	x6,16

00001df0 <.L360>:
    1df0:	00b688b3          	add	x17,x13,x11
    1df4:	00088223          	sb	x0,4(x17)
    1df8:	00158593          	addi	x11,x11,1 # 201c0001 <.L2120+0x201b2625>
    1dfc:	fe659ae3          	bne	x11,x6,1df0 <.L360>
    1e00:	0006a023          	sw	x0,0(x13)
    1e04:	20000937          	lui	x18,0x20000
    1e08:	00100813          	li	x16,1
    1e0c:	00040ab7          	lui	x21,0x40
    1e10:	00400b37          	lui	x22,0x400

00001e14 <.L361>:
    1e14:	000c2c83          	lw	x25,0(x24)
    1e18:	0146ed33          	or	x26,x13,x20
    1e1c:	015a0a33          	add	x20,x20,x21
    1e20:	018c9e13          	slli	x28,x25,0x18
    1e24:	01ae6eb3          	or	x29,x28,x26
    1e28:	012eef33          	or	x30,x29,x18
    1e2c:	010f2023          	sw	x16,0(x30)
    1e30:	ff6a12e3          	bne	x20,x22,1e14 <.L361>
    1e34:	f09ff06f          	j	1d3c <.L358>

00001e38 <.L408>:
    1e38:	00000337          	lui	x6,0x0
    1e3c:	000005b7          	lui	x11,0x0
    1e40:	01830893          	addi	x17,x6,24 # 18 <.L8+0x4>
    1e44:	02058813          	addi	x16,x11,32 # 20 <.L8+0xc>

00001e48 <.L352>:
    1e48:	00088a93          	mv	x21,x17

00001e4c <.L354>:
    1e4c:	000ac903          	lbu	x18,0(x21) # 40000 <.L2120+0x32624>
    1e50:	001a8a93          	addi	x21,x21,1
    1e54:	0ff97b13          	andi	x22,x18,255
    1e58:	fe0b08e3          	beqz	x22,1e48 <.L352>
    1e5c:	ff5818e3          	bne	x16,x21,1e4c <.L354>
    1e60:	00068c23          	sb	x0,24(x13)
    1e64:	00068ca3          	sb	x0,25(x13)
    1e68:	00068d23          	sb	x0,26(x13)
    1e6c:	00068da3          	sb	x0,27(x13)
    1e70:	00068e23          	sb	x0,28(x13)
    1e74:	00068ea3          	sb	x0,29(x13)
    1e78:	00068f23          	sb	x0,30(x13)
    1e7c:	00068fa3          	sb	x0,31(x13)
    1e80:	0006aa23          	sw	x0,20(x13)
    1e84:	00000613          	li	x12,0
    1e88:	03fc0cb7          	lui	x25,0x3fc0
    1e8c:	20000d37          	lui	x26,0x20000
    1e90:	00100e13          	li	x28,1
    1e94:	01000eb7          	lui	x29,0x1000
    1e98:	08000f37          	lui	x30,0x8000

00001e9c <.L356>:
    1e9c:	01209f93          	slli	x31,x1,0x12
    1ea0:	00cde733          	or	x14,x27,x12
    1ea4:	019ff4b3          	and	x9,x31,x25
    1ea8:	00e4e9b3          	or	x19,x9,x14
    1eac:	01a9e7b3          	or	x15,x19,x26
    1eb0:	01c7a023          	sw	x28,0(x15)
    1eb4:	01d60633          	add	x12,x12,x29
    1eb8:	000ba083          	lw	x1,0(x23)
    1ebc:	ffe610e3          	bne	x12,x30,1e9c <.L356>
    1ec0:	00700b93          	li	x23,7
    1ec4:	f17080e3          	beq	x1,x23,1dc4 <.L357>
    1ec8:	e75ff06f          	j	1d3c <.L358>

00001ecc <_ZN12_GLOBAL__N_128convolution_forward_templateILm8ELm64ELm16ELm16ELm32ELm16ELm16ELm1ELm1ELm1ELm1ELm0ELm0EEEiP11hb_tensor_tS2_S2_P11hb_vector_tS4_>:
    1ecc:	f2010113          	addi	x2,x2,-224
    1ed0:	0d312623          	sw	x19,204(x2)
    1ed4:	00050993          	mv	x19,x10
    1ed8:	0c912a23          	sw	x9,212(x2)
    1edc:	00410513          	addi	x10,x2,4
    1ee0:	00058493          	mv	x9,x11
    1ee4:	00098593          	mv	x11,x19
    1ee8:	0c112e23          	sw	x1,220(x2)
    1eec:	0c812c23          	sw	x8,216(x2)
    1ef0:	0d212823          	sw	x18,208(x2)
    1ef4:	00060413          	mv	x8,x12
    1ef8:	00070913          	mv	x18,x14
    1efc:	0d412423          	sw	x20,200(x2)
    1f00:	0d512223          	sw	x21,196(x2)
    1f04:	00068a13          	mv	x20,x13
    1f08:	0d612023          	sw	x22,192(x2)
    1f0c:	0b712e23          	sw	x23,188(x2)
    1f10:	0b812c23          	sw	x24,184(x2)
    1f14:	0b912a23          	sw	x25,180(x2)
    1f18:	0ba12823          	sw	x26,176(x2)
    1f1c:	0bb12623          	sw	x27,172(x2)
    1f20:	00000097          	auipc	x1,0x0
    1f24:	000080e7          	jalr	x1 # 1f20 <_ZN12_GLOBAL__N_128convolution_forward_templateILm8ELm64ELm16ELm16ELm32ELm16ELm16ELm1ELm1ELm1ELm1ELm0ELm0EEEiP11hb_tensor_tS2_S2_P11hb_vector_tS4_+0x54>
    1f28:	00048593          	mv	x11,x9
    1f2c:	03810513          	addi	x10,x2,56
    1f30:	00000097          	auipc	x1,0x0
    1f34:	000080e7          	jalr	x1 # 1f30 <_ZN12_GLOBAL__N_128convolution_forward_templateILm8ELm64ELm16ELm16ELm32ELm16ELm16ELm1ELm1ELm1ELm1ELm0ELm0EEEiP11hb_tensor_tS2_S2_P11hb_vector_tS4_+0x64>
    1f38:	00040593          	mv	x11,x8
    1f3c:	06c10513          	addi	x10,x2,108
    1f40:	00000097          	auipc	x1,0x0
    1f44:	000080e7          	jalr	x1 # 1f40 <_ZN12_GLOBAL__N_128convolution_forward_templateILm8ELm64ELm16ELm16ELm32ELm16ELm16ELm1ELm1ELm1ELm1ELm0ELm0EEEiP11hb_tensor_tS2_S2_P11hb_vector_tS4_+0x74>
    1f48:	00812783          	lw	x15,8(x2)
    1f4c:	10078e63          	beqz	x15,2068 <.L484>
    1f50:	00100713          	li	x14,1
    1f54:	0cf77063          	bgeu	x14,x15,2014 <.L485>
    1f58:	00200693          	li	x13,2
    1f5c:	1ad78a63          	beq	x15,x13,2110 <.L486>
    1f60:	00300613          	li	x12,3
    1f64:	20c78063          	beq	x15,x12,2164 <.L487>
    1f68:	03c12083          	lw	x1,60(x2)
    1f6c:	14177863          	bgeu	x14,x1,20bc <.L488>
    1f70:	28d08e63          	beq	x1,x13,220c <.L489>
    1f74:	2ec08663          	beq	x1,x12,2260 <.L490>
    1f78:	07012283          	lw	x5,112(x2)
    1f7c:	2256fe63          	bgeu	x13,x5,21b8 <.L491>
    1f80:	32c28a63          	beq	x5,x12,22b4 <.L492>
    1f84:	01012383          	lw	x7,16(x2)
    1f88:	04412a83          	lw	x21,68(x2)
    1f8c:	004a2503          	lw	x10,4(x20)
    1f90:	00492883          	lw	x17,4(x18) # 20000004 <.L2120+0x1fff2628>
    1f94:	07812303          	lw	x6,120(x2)
    1f98:	0003ab03          	lw	x22,0(x7)
    1f9c:	00800f13          	li	x30,8
    1fa0:	00052a03          	lw	x20,0(x10) # 0 <_Z21hb_tiled_foreach_implIfZL26convolution_backward_inputP11hb_tensor_tS1_S1_P11hb_vector_tS3_EUlvE_JEEvjjT0_8HBTensorIT_Lln1EEPS7_.isra.0>
    1fa4:	00452903          	lw	x18,4(x10)
    1fa8:	0043af83          	lw	x31,4(x7)
    1fac:	0083a803          	lw	x16,8(x7)
    1fb0:	00c3a583          	lw	x11,12(x7)
    1fb4:	004aae83          	lw	x29,4(x21)
    1fb8:	008aab83          	lw	x23,8(x21)
    1fbc:	00caae03          	lw	x28,12(x21)
    1fc0:	00832c03          	lw	x24,8(x6)
    1fc4:	00c32c83          	lw	x25,12(x6)
    1fc8:	0008ad03          	lw	x26,0(x17)
    1fcc:	0048ad83          	lw	x27,4(x17)
    1fd0:	fff00513          	li	x10,-1
    1fd4:	33eb0a63          	beq	x22,x30,2308 <.L493>

00001fd8 <.L410>:
    1fd8:	0dc12083          	lw	x1,220(x2)
    1fdc:	0d812403          	lw	x8,216(x2)
    1fe0:	0d412483          	lw	x9,212(x2)
    1fe4:	0d012903          	lw	x18,208(x2)
    1fe8:	0cc12983          	lw	x19,204(x2)
    1fec:	0c812a03          	lw	x20,200(x2)
    1ff0:	0c412a83          	lw	x21,196(x2)
    1ff4:	0c012b03          	lw	x22,192(x2)
    1ff8:	0bc12b83          	lw	x23,188(x2)
    1ffc:	0b812c03          	lw	x24,184(x2)
    2000:	0b412c83          	lw	x25,180(x2)
    2004:	0b012d03          	lw	x26,176(x2)
    2008:	0ac12d83          	lw	x27,172(x2)
    200c:	0e010113          	addi	x2,x2,224
    2010:	00008067          	ret

00002014 <.L485>:
    2014:	000000b7          	lui	x1,0x0
    2018:	00000a37          	lui	x20,0x0
    201c:	00008593          	mv	x11,x1
    2020:	06f00613          	li	x12,111
    2024:	000a0513          	mv	x10,x20
    2028:	00000097          	auipc	x1,0x0
    202c:	000080e7          	jalr	x1 # 2028 <.L485+0x14>
    2030:	00812583          	lw	x11,8(x2)
    2034:	00000bb7          	lui	x23,0x0
    2038:	000b8513          	mv	x10,x23
    203c:	00000097          	auipc	x1,0x0
    2040:	000080e7          	jalr	x1 # 203c <.L485+0x28>
    2044:	000005b7          	lui	x11,0x0
    2048:	0005ac03          	lw	x24,0(x11) # 0 <_Z21hb_tiled_foreach_implIfZL26convolution_backward_inputP11hb_tensor_tS1_S1_P11hb_vector_tS3_EUlvE_JEEvjjT0_8HBTensorIT_Lln1EEPS7_.isra.0>
    204c:	00000cb7          	lui	x25,0x0
    2050:	000cad83          	lw	x27,0(x25) # 0 <_Z21hb_tiled_foreach_implIfZL26convolution_backward_inputP11hb_tensor_tS1_S1_P11hb_vector_tS3_EUlvE_JEEvjjT0_8HBTensorIT_Lln1EEPS7_.isra.0>
    2054:	010c1e13          	slli	x28,x24,0x10
    2058:	4100f937          	lui	x18,0x4100f
    205c:	01be0eb3          	add	x29,x28,x27
    2060:	add92c23          	sw	x29,-1320(x18) # 4100ead8 <.L2120+0x410010fc>

00002064 <.L414>:
    2064:	0000006f          	j	2064 <.L414>

00002068 <.L484>:
    2068:	00000f37          	lui	x30,0x0
    206c:	00000b37          	lui	x22,0x0
    2070:	06f00613          	li	x12,111
    2074:	000b0593          	mv	x11,x22
    2078:	000f0513          	mv	x10,x30
    207c:	00000097          	auipc	x1,0x0
    2080:	000080e7          	jalr	x1 # 207c <.L484+0x14>
    2084:	00812583          	lw	x11,8(x2)
    2088:	00000fb7          	lui	x31,0x0
    208c:	000f8513          	mv	x10,x31
    2090:	00000097          	auipc	x1,0x0
    2094:	000080e7          	jalr	x1 # 2090 <.L484+0x28>
    2098:	000007b7          	lui	x15,0x0
    209c:	0007a503          	lw	x10,0(x15) # 0 <_Z21hb_tiled_foreach_implIfZL26convolution_backward_inputP11hb_tensor_tS1_S1_P11hb_vector_tS3_EUlvE_JEEvjjT0_8HBTensorIT_Lln1EEPS7_.isra.0>
    20a0:	000006b7          	lui	x13,0x0
    20a4:	0006a383          	lw	x7,0(x13) # 0 <_Z21hb_tiled_foreach_implIfZL26convolution_backward_inputP11hb_tensor_tS1_S1_P11hb_vector_tS3_EUlvE_JEEvjjT0_8HBTensorIT_Lln1EEPS7_.isra.0>
    20a8:	01051713          	slli	x14,x10,0x10
    20ac:	4100fab7          	lui	x21,0x4100f
    20b0:	007704b3          	add	x9,x14,x7
    20b4:	ac9aac23          	sw	x9,-1320(x21) # 4100ead8 <.L2120+0x410010fc>

000020b8 <.L412>:
    20b8:	0000006f          	j	20b8 <.L412>

000020bc <.L488>:
    20bc:	000000b7          	lui	x1,0x0
    20c0:	000009b7          	lui	x19,0x0
    20c4:	00008593          	mv	x11,x1
    20c8:	06f00613          	li	x12,111
    20cc:	00098513          	mv	x10,x19
    20d0:	00000097          	auipc	x1,0x0
    20d4:	000080e7          	jalr	x1 # 20d0 <.L488+0x14>
    20d8:	03c12583          	lw	x11,60(x2)
    20dc:	00000837          	lui	x16,0x0
    20e0:	00080513          	mv	x10,x16
    20e4:	00000097          	auipc	x1,0x0
    20e8:	000080e7          	jalr	x1 # 20e4 <.L488+0x28>
    20ec:	000005b7          	lui	x11,0x0
    20f0:	0005aa03          	lw	x20,0(x11) # 0 <_Z21hb_tiled_foreach_implIfZL26convolution_backward_inputP11hb_tensor_tS1_S1_P11hb_vector_tS3_EUlvE_JEEvjjT0_8HBTensorIT_Lln1EEPS7_.isra.0>
    20f4:	00000bb7          	lui	x23,0x0
    20f8:	000bac03          	lw	x24,0(x23) # 0 <_Z21hb_tiled_foreach_implIfZL26convolution_backward_inputP11hb_tensor_tS1_S1_P11hb_vector_tS3_EUlvE_JEEvjjT0_8HBTensorIT_Lln1EEPS7_.isra.0>
    20fc:	010a1c93          	slli	x25,x20,0x10
    2100:	4100fe37          	lui	x28,0x4100f
    2104:	018c8db3          	add	x27,x25,x24
    2108:	adbe2c23          	sw	x27,-1320(x28) # 4100ead8 <.L2120+0x410010fc>

0000210c <.L420>:
    210c:	0000006f          	j	210c <.L420>

00002110 <.L486>:
    2110:	000004b7          	lui	x9,0x0
    2114:	00000ab7          	lui	x21,0x0
    2118:	06f00613          	li	x12,111
    211c:	00048593          	mv	x11,x9
    2120:	000a8513          	mv	x10,x21
    2124:	00000097          	auipc	x1,0x0
    2128:	000080e7          	jalr	x1 # 2124 <.L486+0x14>
    212c:	00812583          	lw	x11,8(x2)
    2130:	00000d37          	lui	x26,0x0
    2134:	000d0513          	mv	x10,x26
    2138:	00000097          	auipc	x1,0x0
    213c:	000080e7          	jalr	x1 # 2138 <.L486+0x28>
    2140:	000002b7          	lui	x5,0x0
    2144:	0002a403          	lw	x8,0(x5) # 0 <_Z21hb_tiled_foreach_implIfZL26convolution_backward_inputP11hb_tensor_tS1_S1_P11hb_vector_tS3_EUlvE_JEEvjjT0_8HBTensorIT_Lln1EEPS7_.isra.0>
    2148:	00000637          	lui	x12,0x0
    214c:	00062303          	lw	x6,0(x12) # 0 <_Z21hb_tiled_foreach_implIfZL26convolution_backward_inputP11hb_tensor_tS1_S1_P11hb_vector_tS3_EUlvE_JEEvjjT0_8HBTensorIT_Lln1EEPS7_.isra.0>
    2150:	01041893          	slli	x17,x8,0x10
    2154:	4100f837          	lui	x16,0x4100f
    2158:	006889b3          	add	x19,x17,x6
    215c:	ad382c23          	sw	x19,-1320(x16) # 4100ead8 <.L2120+0x410010fc>

00002160 <.L416>:
    2160:	0000006f          	j	2160 <.L416>

00002164 <.L487>:
    2164:	00000eb7          	lui	x29,0x0
    2168:	00000937          	lui	x18,0x0
    216c:	000e8593          	mv	x11,x29
    2170:	06f00613          	li	x12,111
    2174:	00090513          	mv	x10,x18
    2178:	00000097          	auipc	x1,0x0
    217c:	000080e7          	jalr	x1 # 2178 <.L487+0x14>
    2180:	00812583          	lw	x11,8(x2)
    2184:	00000b37          	lui	x22,0x0
    2188:	000b0513          	mv	x10,x22
    218c:	00000097          	auipc	x1,0x0
    2190:	000080e7          	jalr	x1 # 218c <.L487+0x28>
    2194:	00000f37          	lui	x30,0x0
    2198:	000f2f83          	lw	x31,0(x30) # 0 <_Z21hb_tiled_foreach_implIfZL26convolution_backward_inputP11hb_tensor_tS1_S1_P11hb_vector_tS3_EUlvE_JEEvjjT0_8HBTensorIT_Lln1EEPS7_.isra.0>
    219c:	000007b7          	lui	x15,0x0
    21a0:	0007a503          	lw	x10,0(x15) # 0 <_Z21hb_tiled_foreach_implIfZL26convolution_backward_inputP11hb_tensor_tS1_S1_P11hb_vector_tS3_EUlvE_JEEvjjT0_8HBTensorIT_Lln1EEPS7_.isra.0>
    21a4:	010f9693          	slli	x13,x31,0x10
    21a8:	4100f737          	lui	x14,0x4100f
    21ac:	00a683b3          	add	x7,x13,x10
    21b0:	ac772c23          	sw	x7,-1320(x14) # 4100ead8 <.L2120+0x410010fc>

000021b4 <.L418>:
    21b4:	0000006f          	j	21b4 <.L418>

000021b8 <.L491>:
    21b8:	000000b7          	lui	x1,0x0
    21bc:	00000337          	lui	x6,0x0
    21c0:	00008593          	mv	x11,x1
    21c4:	06f00613          	li	x12,111
    21c8:	00030513          	mv	x10,x6
    21cc:	00000097          	auipc	x1,0x0
    21d0:	000080e7          	jalr	x1 # 21cc <.L491+0x14>
    21d4:	07012583          	lw	x11,112(x2)
    21d8:	000008b7          	lui	x17,0x0
    21dc:	00088513          	mv	x10,x17
    21e0:	00000097          	auipc	x1,0x0
    21e4:	000080e7          	jalr	x1 # 21e0 <.L491+0x28>
    21e8:	000005b7          	lui	x11,0x0
    21ec:	0005a983          	lw	x19,0(x11) # 0 <_Z21hb_tiled_foreach_implIfZL26convolution_backward_inputP11hb_tensor_tS1_S1_P11hb_vector_tS3_EUlvE_JEEvjjT0_8HBTensorIT_Lln1EEPS7_.isra.0>
    21f0:	00000837          	lui	x16,0x0
    21f4:	00082a03          	lw	x20,0(x16) # 0 <_Z21hb_tiled_foreach_implIfZL26convolution_backward_inputP11hb_tensor_tS1_S1_P11hb_vector_tS3_EUlvE_JEEvjjT0_8HBTensorIT_Lln1EEPS7_.isra.0>
    21f8:	01099b93          	slli	x23,x19,0x10
    21fc:	4100fcb7          	lui	x25,0x4100f
    2200:	014b8c33          	add	x24,x23,x20
    2204:	ad8cac23          	sw	x24,-1320(x25) # 4100ead8 <.L2120+0x410010fc>

00002208 <.L426>:
    2208:	0000006f          	j	2208 <.L426>

0000220c <.L489>:
    220c:	00000737          	lui	x14,0x0
    2210:	000003b7          	lui	x7,0x0
    2214:	06f00613          	li	x12,111
    2218:	00070593          	mv	x11,x14
    221c:	00038513          	mv	x10,x7
    2220:	00000097          	auipc	x1,0x0
    2224:	000080e7          	jalr	x1 # 2220 <.L489+0x14>
    2228:	03c12583          	lw	x11,60(x2)
    222c:	000004b7          	lui	x9,0x0
    2230:	00048513          	mv	x10,x9
    2234:	00000097          	auipc	x1,0x0
    2238:	000080e7          	jalr	x1 # 2234 <.L489+0x28>
    223c:	00000ab7          	lui	x21,0x0
    2240:	000aad03          	lw	x26,0(x21) # 0 <_Z21hb_tiled_foreach_implIfZL26convolution_backward_inputP11hb_tensor_tS1_S1_P11hb_vector_tS3_EUlvE_JEEvjjT0_8HBTensorIT_Lln1EEPS7_.isra.0>
    2244:	000002b7          	lui	x5,0x0
    2248:	0002a403          	lw	x8,0(x5) # 0 <_Z21hb_tiled_foreach_implIfZL26convolution_backward_inputP11hb_tensor_tS1_S1_P11hb_vector_tS3_EUlvE_JEEvjjT0_8HBTensorIT_Lln1EEPS7_.isra.0>
    224c:	010d1613          	slli	x12,x26,0x10
    2250:	4100f8b7          	lui	x17,0x4100f
    2254:	00860333          	add	x6,x12,x8
    2258:	ac68ac23          	sw	x6,-1320(x17) # 4100ead8 <.L2120+0x410010fc>

0000225c <.L422>:
    225c:	0000006f          	j	225c <.L422>

00002260 <.L490>:
    2260:	00000e37          	lui	x28,0x0
    2264:	00000db7          	lui	x27,0x0
    2268:	06f00613          	li	x12,111
    226c:	000d8593          	mv	x11,x27
    2270:	000e0513          	mv	x10,x28
    2274:	00000097          	auipc	x1,0x0
    2278:	000080e7          	jalr	x1 # 2274 <.L490+0x14>
    227c:	03c12583          	lw	x11,60(x2)
    2280:	00000eb7          	lui	x29,0x0
    2284:	000e8513          	mv	x10,x29
    2288:	00000097          	auipc	x1,0x0
    228c:	000080e7          	jalr	x1 # 2288 <.L490+0x28>
    2290:	00000937          	lui	x18,0x0
    2294:	00092b03          	lw	x22,0(x18) # 0 <_Z21hb_tiled_foreach_implIfZL26convolution_backward_inputP11hb_tensor_tS1_S1_P11hb_vector_tS3_EUlvE_JEEvjjT0_8HBTensorIT_Lln1EEPS7_.isra.0>
    2298:	00000f37          	lui	x30,0x0
    229c:	000f2f83          	lw	x31,0(x30) # 0 <_Z21hb_tiled_foreach_implIfZL26convolution_backward_inputP11hb_tensor_tS1_S1_P11hb_vector_tS3_EUlvE_JEEvjjT0_8HBTensorIT_Lln1EEPS7_.isra.0>
    22a0:	010b1793          	slli	x15,x22,0x10
    22a4:	4100f6b7          	lui	x13,0x4100f
    22a8:	01f78533          	add	x10,x15,x31
    22ac:	aca6ac23          	sw	x10,-1320(x13) # 4100ead8 <.L2120+0x410010fc>

000022b0 <.L424>:
    22b0:	0000006f          	j	22b0 <.L424>

000022b4 <.L492>:
    22b4:	000006b7          	lui	x13,0x0
    22b8:	00000537          	lui	x10,0x0
    22bc:	06f00613          	li	x12,111
    22c0:	00050593          	mv	x11,x10
    22c4:	00068513          	mv	x10,x13
    22c8:	00000097          	auipc	x1,0x0
    22cc:	000080e7          	jalr	x1 # 22c8 <.L492+0x14>
    22d0:	07012583          	lw	x11,112(x2)
    22d4:	00000737          	lui	x14,0x0
    22d8:	00070513          	mv	x10,x14
    22dc:	00000097          	auipc	x1,0x0
    22e0:	000080e7          	jalr	x1 # 22dc <.L492+0x28>
    22e4:	000003b7          	lui	x7,0x0
    22e8:	0003a483          	lw	x9,0(x7) # 0 <_Z21hb_tiled_foreach_implIfZL26convolution_backward_inputP11hb_tensor_tS1_S1_P11hb_vector_tS3_EUlvE_JEEvjjT0_8HBTensorIT_Lln1EEPS7_.isra.0>
    22ec:	00000ab7          	lui	x21,0x0
    22f0:	000aad03          	lw	x26,0(x21) # 0 <_Z21hb_tiled_foreach_implIfZL26convolution_backward_inputP11hb_tensor_tS1_S1_P11hb_vector_tS3_EUlvE_JEEvjjT0_8HBTensorIT_Lln1EEPS7_.isra.0>
    22f4:	01049293          	slli	x5,x9,0x10
    22f8:	4100f637          	lui	x12,0x4100f
    22fc:	01a28433          	add	x8,x5,x26
    2300:	ac862c23          	sw	x8,-1320(x12) # 4100ead8 <.L2120+0x410010fc>

00002304 <.L428>:
    2304:	0000006f          	j	2304 <.L428>

00002308 <.L493>:
    2308:	04000793          	li	x15,64
    230c:	ccff96e3          	bne	x31,x15,1fd8 <.L410>
    2310:	01000713          	li	x14,16
    2314:	cce812e3          	bne	x16,x14,1fd8 <.L410>
    2318:	cd0590e3          	bne	x11,x16,1fd8 <.L410>
    231c:	02000693          	li	x13,32
    2320:	cade9ce3          	bne	x29,x13,1fd8 <.L410>
    2324:	cabb9ae3          	bne	x23,x11,1fd8 <.L410>
    2328:	cb7e18e3          	bne	x28,x23,1fd8 <.L410>
    232c:	00100613          	li	x12,1
    2330:	cacc14e3          	bne	x24,x12,1fd8 <.L410>
    2334:	cb8c92e3          	bne	x25,x24,1fd8 <.L410>
    2338:	cb9d10e3          	bne	x26,x25,1fd8 <.L410>
    233c:	c9ad9ee3          	bne	x27,x26,1fd8 <.L410>
    2340:	012a6933          	or	x18,x20,x18
    2344:	c8091ae3          	bnez	x18,1fd8 <.L410>
    2348:	000003b7          	lui	x7,0x0
    234c:	00000db7          	lui	x27,0x0
    2350:	00000b37          	lui	x22,0x0
    2354:	00000ab7          	lui	x21,0x0
    2358:	0003a503          	lw	x10,0(x7) # 0 <_Z21hb_tiled_foreach_implIfZL26convolution_backward_inputP11hb_tensor_tS1_S1_P11hb_vector_tS3_EUlvE_JEEvjjT0_8HBTensorIT_Lln1EEPS7_.isra.0>
    235c:	000da083          	lw	x1,0(x27) # 0 <_Z21hb_tiled_foreach_implIfZL26convolution_backward_inputP11hb_tensor_tS1_S1_P11hb_vector_tS3_EUlvE_JEEvjjT0_8HBTensorIT_Lln1EEPS7_.isra.0>
    2360:	000b2283          	lw	x5,0(x22) # 0 <_Z21hb_tiled_foreach_implIfZL26convolution_backward_inputP11hb_tensor_tS1_S1_P11hb_vector_tS3_EUlvE_JEEvjjT0_8HBTensorIT_Lln1EEPS7_.isra.0>
    2364:	000aa883          	lw	x17,0(x21) # 0 <_Z21hb_tiled_foreach_implIfZL26convolution_backward_inputP11hb_tensor_tS1_S1_P11hb_vector_tS3_EUlvE_JEEvjjT0_8HBTensorIT_Lln1EEPS7_.isra.0>
    2368:	00000337          	lui	x6,0x0
    236c:	00032f03          	lw	x30,0(x6) # 0 <_Z21hb_tiled_foreach_implIfZL26convolution_backward_inputP11hb_tensor_tS1_S1_P11hb_vector_tS3_EUlvE_JEEvjjT0_8HBTensorIT_Lln1EEPS7_.isra.0>
    2370:	00508fb3          	add	x31,x1,x5
    2374:	01150833          	add	x16,x10,x17
    2378:	018f9593          	slli	x11,x31,0x18
    237c:	01281e93          	slli	x29,x16,0x12
    2380:	3f000bb7          	lui	x23,0x3f000
    2384:	00fc0c37          	lui	x24,0xfc0
    2388:	000407b7          	lui	x15,0x40
    238c:	0175fe33          	and	x28,x11,x23
    2390:	018efcb3          	and	x25,x29,x24
    2394:	004f1d13          	slli	x26,x30,0x4
    2398:	ff078713          	addi	x14,x15,-16 # 3fff0 <.L2120+0x32614>
    239c:	019e6a33          	or	x20,x28,x25
    23a0:	00ed76b3          	and	x13,x26,x14
    23a4:	800000b7          	lui	x1,0x80000
    23a8:	00da6633          	or	x12,x20,x13
    23ac:	001662b3          	or	x5,x12,x1
    23b0:	0109a383          	lw	x7,16(x19) # 10 <_Z21hb_tiled_foreach_implIfZL26convolution_backward_inputP11hb_tensor_tS1_S1_P11hb_vector_tS3_EUlvE_JEEvjjT0_8HBTensorIT_Lln1EEPS7_.isra.0+0x10>
    23b4:	410019b7          	lui	x19,0x41001
    23b8:	0104a503          	lw	x10,16(x9) # 10 <_Z21hb_tiled_foreach_implIfZL26convolution_backward_inputP11hb_tensor_tS1_S1_P11hb_vector_tS3_EUlvE_JEEvjjT0_8HBTensorIT_Lln1EEPS7_.isra.0+0x10>
    23bc:	01042403          	lw	x8,16(x8)
    23c0:	000004b7          	lui	x9,0x0
    23c4:	d059a623          	sw	x5,-756(x19) # 41000d0c <.L2120+0x40ff3330>
    23c8:	0004a883          	lw	x17,0(x9) # 0 <_Z21hb_tiled_foreach_implIfZL26convolution_backward_inputP11hb_tensor_tS1_S1_P11hb_vector_tS3_EUlvE_JEEvjjT0_8HBTensorIT_Lln1EEPS7_.isra.0>
    23cc:	01000313          	li	x6,16
    23d0:	0018ff13          	andi	x30,x17,1
    23d4:	003f1813          	slli	x16,x30,0x3
    23d8:	01e800b3          	add	x1,x16,x30
    23dc:	0018d593          	srli	x11,x17,0x1
    23e0:	00908f93          	addi	x31,x1,9 # 80000009 <.L2120+0x7fff262d>
    23e4:	03f5fe93          	andi	x29,x11,63
    23e8:	01f37463          	bgeu	x6,x31,23f0 <.L430>
    23ec:	01000f93          	li	x31,16

000023f0 <.L430>:
    23f0:	01e80bb3          	add	x23,x16,x30
    23f4:	005b9e13          	slli	x28,x23,0x5
    23f8:	009e9c13          	slli	x24,x29,0x9
    23fc:	418e0cb3          	sub	x25,x28,x24
    2400:	00ac8d33          	add	x26,x25,x10
    2404:	00ae9a13          	slli	x20,x29,0xa
    2408:	40a38733          	sub	x14,x7,x10
    240c:	001d1693          	slli	x13,x26,0x1
    2410:	007e9793          	slli	x15,x29,0x7
    2414:	00ea04b3          	add	x9,x20,x14
    2418:	407689b3          	sub	x19,x13,x7
    241c:	004b9a13          	slli	x20,x23,0x4
    2420:	00878433          	add	x8,x15,x8
    2424:	004f9d13          	slli	x26,x31,0x4
    2428:	00000393          	li	x7,0
    242c:	02000f13          	li	x30,32
    2430:	00008cb7          	lui	x25,0x8
    2434:	00002c37          	lui	x24,0x2
    2438:	00010bb7          	lui	x23,0x10

0000243c <.L437>:
    243c:	01a38533          	add	x10,x7,x26
    2440:	00998eb3          	add	x29,x19,x9
    2444:	01438e33          	add	x28,x7,x20
    2448:	00048293          	mv	x5,x9
    244c:	00040893          	mv	x17,x8
    2450:	00000313          	li	x6,0

00002454 <.L433>:
    2454:	0008a687          	flw	f13,0(x17)
    2458:	000e0793          	mv	x15,x28
    245c:	000e8593          	mv	x11,x29
    2460:	ffc28813          	addi	x16,x5,-4
    2464:	05f0fa63          	bgeu	x1,x31,24b8 <.L436>

00002468 <.L431>:
    2468:	00458713          	addi	x14,x11,4
    246c:	0005a007          	flw	f0,0(x11)
    2470:	f0000753          	fmv.w.x	f14,x0
    2474:	04058593          	addi	x11,x11,64
    2478:	00e80633          	add	x12,x16,x14
    247c:	00030463          	beqz	x6,2484 <.L455>

00002480 <.L495>:
    2480:	00062707          	flw	f14,0(x12)

00002484 <.L455>:
    2484:	70d077c3          	fmadd.s	f15,f0,f13,f14
    2488:	00f62027          	fsw	f15,0(x12)
    248c:	02e58263          	beq	x11,x14,24b0 <.L494>

00002490 <.L435>:
    2490:	00072007          	flw	f0,0(x14) # 0 <_Z21hb_tiled_foreach_implIfZL26convolution_backward_inputP11hb_tensor_tS1_S1_P11hb_vector_tS3_EUlvE_JEEvjjT0_8HBTensorIT_Lln1EEPS7_.isra.0>
    2494:	00470713          	addi	x14,x14,4
    2498:	f0000753          	fmv.w.x	f14,x0
    249c:	00e80633          	add	x12,x16,x14
    24a0:	fe0310e3          	bnez	x6,2480 <.L495>
    24a4:	70d077c3          	fmadd.s	f15,f0,f13,f14
    24a8:	00f62027          	fsw	f15,0(x12)
    24ac:	fee592e3          	bne	x11,x14,2490 <.L435>

000024b0 <.L494>:
    24b0:	01078793          	addi	x15,x15,16
    24b4:	faa79ae3          	bne	x15,x10,2468 <.L431>

000024b8 <.L436>:
    24b8:	00130313          	addi	x6,x6,1
    24bc:	00488893          	addi	x17,x17,4
    24c0:	10050513          	addi	x10,x10,256 # 100 <.L75+0x94>
    24c4:	c0028293          	addi	x5,x5,-1024
    24c8:	400e8e93          	addi	x29,x29,1024 # 400 <.L112+0xc>
    24cc:	100e0e13          	addi	x28,x28,256 # 100 <.L75+0x94>
    24d0:	f9e312e3          	bne	x6,x30,2454 <.L433>
    24d4:	018383b3          	add	x7,x7,x24
    24d8:	019484b3          	add	x9,x9,x25
    24dc:	f77390e3          	bne	x7,x23,243c <.L437>
    24e0:	000006b7          	lui	x13,0x0
    24e4:	000da083          	lw	x1,0(x27)
    24e8:	0006a403          	lw	x8,0(x13) # 0 <_Z21hb_tiled_foreach_implIfZL26convolution_backward_inputP11hb_tensor_tS1_S1_P11hb_vector_tS3_EUlvE_JEEvjjT0_8HBTensorIT_Lln1EEPS7_.isra.0>
    24ec:	000b2283          	lw	x5,0(x22)
    24f0:	000aa603          	lw	x12,0(x21)
    24f4:	00000537          	lui	x10,0x0
    24f8:	00052303          	lw	x6,0(x10) # 0 <_Z21hb_tiled_foreach_implIfZL26convolution_backward_inputP11hb_tensor_tS1_S1_P11hb_vector_tS3_EUlvE_JEEvjjT0_8HBTensorIT_Lln1EEPS7_.isra.0>
    24fc:	005085b3          	add	x11,x1,x5
    2500:	00c40833          	add	x16,x8,x12
    2504:	01859893          	slli	x17,x11,0x18
    2508:	01281993          	slli	x19,x16,0x12
    250c:	3f000a37          	lui	x20,0x3f000
    2510:	00fc0c37          	lui	x24,0xfc0
    2514:	00040e37          	lui	x28,0x40
    2518:	0148fbb3          	and	x23,x17,x20
    251c:	0189fcb3          	and	x25,x19,x24
    2520:	00431d13          	slli	x26,x6,0x4
    2524:	ff0e0e93          	addi	x29,x28,-16 # 3fff0 <.L2120+0x32614>
    2528:	019bedb3          	or	x27,x23,x25
    252c:	01dd7f33          	and	x30,x26,x29
    2530:	01edefb3          	or	x31,x27,x30
    2534:	c0000737          	lui	x14,0xc0000
    2538:	00efe7b3          	or	x15,x31,x14
    253c:	410013b7          	lui	x7,0x41001
    2540:	d0f3a623          	sw	x15,-756(x7) # 41000d0c <.L2120+0x40ff3330>
    2544:	000aa483          	lw	x9,0(x21)
    2548:	000b2083          	lw	x1,0(x22)
    254c:	00000537          	lui	x10,0x0
    2550:	00448293          	addi	x5,x9,4
    2554:	00050693          	mv	x13,x10
    2558:	00568433          	add	x8,x13,x5
    255c:	01809613          	slli	x12,x1,0x18
    2560:	00c46333          	or	x6,x8,x12
    2564:	201c05b7          	lui	x11,0x201c0
    2568:	00b36833          	or	x16,x6,x11
    256c:	00100893          	li	x17,1
    2570:	01180023          	sb	x17,0(x16)
    2574:	000aa983          	lw	x19,0(x21)
    2578:	00700a13          	li	x20,7
    257c:	03498863          	beq	x19,x20,25ac <.L496>

00002580 <.L448>:
    2580:	00100913          	li	x18,1
    2584:	0100006f          	j	2594 <.L453>

00002588 <.L497>:
    2588:	00050f93          	mv	x31,x10
    258c:	140fa7af          	lr.w.aq	x15,(x31)
    2590:	01278863          	beq	x15,x18,25a0 <.L452>

00002594 <.L453>:
    2594:	00050b13          	mv	x22,x10
    2598:	100b2f2f          	lr.w	x30,(x22)
    259c:	ff2f16e3          	bne	x30,x18,2588 <.L497>

000025a0 <.L452>:
    25a0:	0006a023          	sw	x0,0(x13)
    25a4:	00000513          	li	x10,0
    25a8:	a31ff06f          	j	1fd8 <.L410>

000025ac <.L496>:
    25ac:	00000bb7          	lui	x23,0x0
    25b0:	00000cb7          	lui	x25,0x0
    25b4:	004b8c13          	addi	x24,x23,4 # 4 <_Z21hb_tiled_foreach_implIfZL26convolution_backward_inputP11hb_tensor_tS1_S1_P11hb_vector_tS3_EUlvE_JEEvjjT0_8HBTensorIT_Lln1EEPS7_.isra.0+0x4>
    25b8:	014c8d13          	addi	x26,x25,20 # 14 <.L8>

000025bc <.L439>:
    25bc:	000c0e13          	mv	x28,x24

000025c0 <.L441>:
    25c0:	000e4d83          	lbu	x27,0(x28)
    25c4:	001e0e13          	addi	x28,x28,1
    25c8:	0ffdfe93          	andi	x29,x27,255
    25cc:	fe0e88e3          	beqz	x29,25bc <.L439>
    25d0:	ffcd18e3          	bne	x26,x28,25c0 <.L441>
    25d4:	000b2f03          	lw	x30,0(x22)
    25d8:	231c0737          	lui	x14,0x231c0
    25dc:	00100493          	li	x9,1
    25e0:	018f0f93          	addi	x31,x30,24
    25e4:	01f687b3          	add	x15,x13,x31
    25e8:	00e7e3b3          	or	x7,x15,x14
    25ec:	00938023          	sb	x9,0(x7)
    25f0:	000aa083          	lw	x1,0(x21)
    25f4:	00700293          	li	x5,7
    25f8:	f85094e3          	bne	x1,x5,2580 <.L448>
    25fc:	000b2403          	lw	x8,0(x22)
    2600:	00300613          	li	x12,3
    2604:	06c40c63          	beq	x8,x12,267c <.L498>

00002608 <.L447>:
    2608:	00100d13          	li	x26,1
    260c:	0100006f          	j	261c <.L443>

00002610 <.L499>:
    2610:	01468413          	addi	x8,x13,20
    2614:	1404262f          	lr.w.aq	x12,(x8)
    2618:	01a60863          	beq	x12,x26,2628 <.L449>

0000261c <.L443>:
    261c:	01468093          	addi	x1,x13,20
    2620:	1000a2af          	lr.w	x5,(x1)
    2624:	ffa296e3          	bne	x5,x26,2610 <.L499>

00002628 <.L449>:
    2628:	0006aa23          	sw	x0,20(x13)
    262c:	00000593          	li	x11,0
    2630:	01000313          	li	x6,16

00002634 <.L450>:
    2634:	00b688b3          	add	x17,x13,x11
    2638:	00088223          	sb	x0,4(x17)
    263c:	00158593          	addi	x11,x11,1 # 201c0001 <.L2120+0x201b2625>
    2640:	fe659ae3          	bne	x11,x6,2634 <.L450>
    2644:	0006a023          	sw	x0,0(x13)
    2648:	200009b7          	lui	x19,0x20000
    264c:	00100813          	li	x16,1
    2650:	00040a37          	lui	x20,0x40
    2654:	00400bb7          	lui	x23,0x400

00002658 <.L451>:
    2658:	000b2c03          	lw	x24,0(x22)
    265c:	0126ecb3          	or	x25,x13,x18
    2660:	01490933          	add	x18,x18,x20
    2664:	018c1d93          	slli	x27,x24,0x18
    2668:	019dee33          	or	x28,x27,x25
    266c:	013e6eb3          	or	x29,x28,x19
    2670:	010ea023          	sw	x16,0(x29)
    2674:	ff7912e3          	bne	x18,x23,2658 <.L451>
    2678:	f09ff06f          	j	2580 <.L448>

0000267c <.L498>:
    267c:	00000337          	lui	x6,0x0
    2680:	000005b7          	lui	x11,0x0
    2684:	01830893          	addi	x17,x6,24 # 18 <.L8+0x4>
    2688:	02058813          	addi	x16,x11,32 # 20 <.L8+0xc>

0000268c <.L442>:
    268c:	00088a13          	mv	x20,x17

00002690 <.L444>:
    2690:	000a4983          	lbu	x19,0(x20) # 40000 <.L2120+0x32624>
    2694:	001a0a13          	addi	x20,x20,1
    2698:	0ff9fb93          	andi	x23,x19,255
    269c:	fe0b88e3          	beqz	x23,268c <.L442>
    26a0:	ff4818e3          	bne	x16,x20,2690 <.L444>
    26a4:	00068c23          	sb	x0,24(x13)
    26a8:	00068ca3          	sb	x0,25(x13)
    26ac:	00068d23          	sb	x0,26(x13)
    26b0:	00068da3          	sb	x0,27(x13)
    26b4:	00068e23          	sb	x0,28(x13)
    26b8:	00068ea3          	sb	x0,29(x13)
    26bc:	00068f23          	sb	x0,30(x13)
    26c0:	00068fa3          	sb	x0,31(x13)
    26c4:	0006aa23          	sw	x0,20(x13)
    26c8:	00000493          	li	x9,0
    26cc:	03fc0c37          	lui	x24,0x3fc0
    26d0:	20000cb7          	lui	x25,0x20000
    26d4:	00100d93          	li	x27,1
    26d8:	01000e37          	lui	x28,0x1000
    26dc:	08000eb7          	lui	x29,0x8000

000026e0 <.L446>:
    26e0:	01209f13          	slli	x30,x1,0x12
    26e4:	009d6fb3          	or	x31,x26,x9
    26e8:	018f77b3          	and	x15,x30,x24
    26ec:	01f7e733          	or	x14,x15,x31
    26f0:	019763b3          	or	x7,x14,x25
    26f4:	01b3a023          	sw	x27,0(x7)
    26f8:	01c484b3          	add	x9,x9,x28
    26fc:	000aa083          	lw	x1,0(x21)
    2700:	ffd490e3          	bne	x9,x29,26e0 <.L446>
    2704:	00700a93          	li	x21,7
    2708:	f15080e3          	beq	x1,x21,2608 <.L447>
    270c:	e75ff06f          	j	2580 <.L448>

00002710 <_ZN12_GLOBAL__N_128convolution_forward_templateILm8ELm128ELm8ELm8ELm64ELm8ELm8ELm1ELm1ELm1ELm1ELm0ELm0EEEiP11hb_tensor_tS2_S2_P11hb_vector_tS4_>:
    2710:	f2010113          	addi	x2,x2,-224
    2714:	0d312623          	sw	x19,204(x2)
    2718:	00050993          	mv	x19,x10
    271c:	0c912a23          	sw	x9,212(x2)
    2720:	00410513          	addi	x10,x2,4
    2724:	00058493          	mv	x9,x11
    2728:	00098593          	mv	x11,x19
    272c:	0c112e23          	sw	x1,220(x2)
    2730:	0c812c23          	sw	x8,216(x2)
    2734:	0d212823          	sw	x18,208(x2)
    2738:	00060413          	mv	x8,x12
    273c:	00070913          	mv	x18,x14
    2740:	0d412423          	sw	x20,200(x2)
    2744:	0d512223          	sw	x21,196(x2)
    2748:	00068a13          	mv	x20,x13
    274c:	0d612023          	sw	x22,192(x2)
    2750:	0b712e23          	sw	x23,188(x2)
    2754:	0b812c23          	sw	x24,184(x2)
    2758:	0b912a23          	sw	x25,180(x2)
    275c:	0ba12823          	sw	x26,176(x2)
    2760:	0bb12623          	sw	x27,172(x2)
    2764:	00000097          	auipc	x1,0x0
    2768:	000080e7          	jalr	x1 # 2764 <_ZN12_GLOBAL__N_128convolution_forward_templateILm8ELm128ELm8ELm8ELm64ELm8ELm8ELm1ELm1ELm1ELm1ELm0ELm0EEEiP11hb_tensor_tS2_S2_P11hb_vector_tS4_+0x54>
    276c:	00048593          	mv	x11,x9
    2770:	03810513          	addi	x10,x2,56
    2774:	00000097          	auipc	x1,0x0
    2778:	000080e7          	jalr	x1 # 2774 <_ZN12_GLOBAL__N_128convolution_forward_templateILm8ELm128ELm8ELm8ELm64ELm8ELm8ELm1ELm1ELm1ELm1ELm0ELm0EEEiP11hb_tensor_tS2_S2_P11hb_vector_tS4_+0x64>
    277c:	00040593          	mv	x11,x8
    2780:	06c10513          	addi	x10,x2,108
    2784:	00000097          	auipc	x1,0x0
    2788:	000080e7          	jalr	x1 # 2784 <_ZN12_GLOBAL__N_128convolution_forward_templateILm8ELm128ELm8ELm8ELm64ELm8ELm8ELm1ELm1ELm1ELm1ELm0ELm0EEEiP11hb_tensor_tS2_S2_P11hb_vector_tS4_+0x74>
    278c:	00812783          	lw	x15,8(x2)
    2790:	10078e63          	beqz	x15,28ac <.L576>
    2794:	00100713          	li	x14,1
    2798:	0cf77063          	bgeu	x14,x15,2858 <.L577>
    279c:	00200693          	li	x13,2
    27a0:	1ad78a63          	beq	x15,x13,2954 <.L578>
    27a4:	00300613          	li	x12,3
    27a8:	20c78063          	beq	x15,x12,29a8 <.L579>
    27ac:	03c12083          	lw	x1,60(x2)
    27b0:	14177863          	bgeu	x14,x1,2900 <.L580>
    27b4:	28d08e63          	beq	x1,x13,2a50 <.L581>
    27b8:	2ec08663          	beq	x1,x12,2aa4 <.L582>
    27bc:	07012283          	lw	x5,112(x2)
    27c0:	2256fe63          	bgeu	x13,x5,29fc <.L583>
    27c4:	32c28a63          	beq	x5,x12,2af8 <.L584>
    27c8:	01012383          	lw	x7,16(x2)
    27cc:	04412a83          	lw	x21,68(x2)
    27d0:	004a2503          	lw	x10,4(x20)
    27d4:	00492883          	lw	x17,4(x18)
    27d8:	07812303          	lw	x6,120(x2)
    27dc:	0003af83          	lw	x31,0(x7)
    27e0:	00800e93          	li	x29,8
    27e4:	00052d83          	lw	x27,0(x10) # 0 <_Z21hb_tiled_foreach_implIfZL26convolution_backward_inputP11hb_tensor_tS1_S1_P11hb_vector_tS3_EUlvE_JEEvjjT0_8HBTensorIT_Lln1EEPS7_.isra.0>
    27e8:	00452a03          	lw	x20,4(x10)
    27ec:	0043af03          	lw	x30,4(x7)
    27f0:	0083a803          	lw	x16,8(x7)
    27f4:	00c3a583          	lw	x11,12(x7)
    27f8:	004aa903          	lw	x18,4(x21)
    27fc:	008aab03          	lw	x22,8(x21)
    2800:	00caae03          	lw	x28,12(x21)
    2804:	00832b83          	lw	x23,8(x6)
    2808:	00c32c03          	lw	x24,12(x6)
    280c:	0008ac83          	lw	x25,0(x17)
    2810:	0048ad03          	lw	x26,4(x17)
    2814:	fff00513          	li	x10,-1
    2818:	33df8a63          	beq	x31,x29,2b4c <.L585>

0000281c <.L500>:
    281c:	0dc12083          	lw	x1,220(x2)
    2820:	0d812403          	lw	x8,216(x2)
    2824:	0d412483          	lw	x9,212(x2)
    2828:	0d012903          	lw	x18,208(x2)
    282c:	0cc12983          	lw	x19,204(x2)
    2830:	0c812a03          	lw	x20,200(x2)
    2834:	0c412a83          	lw	x21,196(x2)
    2838:	0c012b03          	lw	x22,192(x2)
    283c:	0bc12b83          	lw	x23,188(x2)
    2840:	0b812c03          	lw	x24,184(x2)
    2844:	0b412c83          	lw	x25,180(x2)
    2848:	0b012d03          	lw	x26,176(x2)
    284c:	0ac12d83          	lw	x27,172(x2)
    2850:	0e010113          	addi	x2,x2,224
    2854:	00008067          	ret

00002858 <.L577>:
    2858:	000000b7          	lui	x1,0x0
    285c:	00000cb7          	lui	x25,0x0
    2860:	00008593          	mv	x11,x1
    2864:	06f00613          	li	x12,111
    2868:	000c8513          	mv	x10,x25
    286c:	00000097          	auipc	x1,0x0
    2870:	000080e7          	jalr	x1 # 286c <.L577+0x14>
    2874:	00812583          	lw	x11,8(x2)
    2878:	00000d37          	lui	x26,0x0
    287c:	000d0513          	mv	x10,x26
    2880:	00000097          	auipc	x1,0x0
    2884:	000080e7          	jalr	x1 # 2880 <.L577+0x28>
    2888:	00000db7          	lui	x27,0x0
    288c:	000dae83          	lw	x29,0(x27) # 0 <_Z21hb_tiled_foreach_implIfZL26convolution_backward_inputP11hb_tensor_tS1_S1_P11hb_vector_tS3_EUlvE_JEEvjjT0_8HBTensorIT_Lln1EEPS7_.isra.0>
    2890:	00000e37          	lui	x28,0x0
    2894:	000e2903          	lw	x18,0(x28) # 0 <_Z21hb_tiled_foreach_implIfZL26convolution_backward_inputP11hb_tensor_tS1_S1_P11hb_vector_tS3_EUlvE_JEEvjjT0_8HBTensorIT_Lln1EEPS7_.isra.0>
    2898:	010e9893          	slli	x17,x29,0x10
    289c:	4100fa37          	lui	x20,0x4100f
    28a0:	01288833          	add	x16,x17,x18
    28a4:	ad0a2c23          	sw	x16,-1320(x20) # 4100ead8 <.L2120+0x410010fc>

000028a8 <.L504>:
    28a8:	0000006f          	j	28a8 <.L504>

000028ac <.L576>:
    28ac:	000007b7          	lui	x15,0x0
    28b0:	00000b37          	lui	x22,0x0
    28b4:	06f00613          	li	x12,111
    28b8:	000b0593          	mv	x11,x22
    28bc:	00078513          	mv	x10,x15
    28c0:	00000097          	auipc	x1,0x0
    28c4:	000080e7          	jalr	x1 # 28c0 <.L576+0x14>
    28c8:	00812583          	lw	x11,8(x2)
    28cc:	000009b7          	lui	x19,0x0
    28d0:	00098513          	mv	x10,x19
    28d4:	00000097          	auipc	x1,0x0
    28d8:	000080e7          	jalr	x1 # 28d4 <.L576+0x28>
    28dc:	00000fb7          	lui	x31,0x0
    28e0:	000fa503          	lw	x10,0(x31) # 0 <_Z21hb_tiled_foreach_implIfZL26convolution_backward_inputP11hb_tensor_tS1_S1_P11hb_vector_tS3_EUlvE_JEEvjjT0_8HBTensorIT_Lln1EEPS7_.isra.0>
    28e4:	000006b7          	lui	x13,0x0
    28e8:	0006a583          	lw	x11,0(x13) # 0 <_Z21hb_tiled_foreach_implIfZL26convolution_backward_inputP11hb_tensor_tS1_S1_P11hb_vector_tS3_EUlvE_JEEvjjT0_8HBTensorIT_Lln1EEPS7_.isra.0>
    28ec:	01051a93          	slli	x21,x10,0x10
    28f0:	4100f2b7          	lui	x5,0x4100f
    28f4:	00ba8f33          	add	x30,x21,x11
    28f8:	ade2ac23          	sw	x30,-1320(x5) # 4100ead8 <.L2120+0x410010fc>

000028fc <.L502>:
    28fc:	0000006f          	j	28fc <.L502>

00002900 <.L580>:
    2900:	000000b7          	lui	x1,0x0
    2904:	00000bb7          	lui	x23,0x0
    2908:	00008593          	mv	x11,x1
    290c:	06f00613          	li	x12,111
    2910:	000b8513          	mv	x10,x23
    2914:	00000097          	auipc	x1,0x0
    2918:	000080e7          	jalr	x1 # 2914 <.L580+0x14>
    291c:	03c12583          	lw	x11,60(x2)
    2920:	00000c37          	lui	x24,0x0
    2924:	000c0513          	mv	x10,x24
    2928:	00000cb7          	lui	x25,0x0
    292c:	00000097          	auipc	x1,0x0
    2930:	000080e7          	jalr	x1 # 292c <.L580+0x2c>
    2934:	00000db7          	lui	x27,0x0
    2938:	000cad03          	lw	x26,0(x25) # 0 <_Z21hb_tiled_foreach_implIfZL26convolution_backward_inputP11hb_tensor_tS1_S1_P11hb_vector_tS3_EUlvE_JEEvjjT0_8HBTensorIT_Lln1EEPS7_.isra.0>
    293c:	000dae83          	lw	x29,0(x27) # 0 <_Z21hb_tiled_foreach_implIfZL26convolution_backward_inputP11hb_tensor_tS1_S1_P11hb_vector_tS3_EUlvE_JEEvjjT0_8HBTensorIT_Lln1EEPS7_.isra.0>
    2940:	4100f8b7          	lui	x17,0x4100f
    2944:	010d1e13          	slli	x28,x26,0x10
    2948:	01de0933          	add	x18,x28,x29
    294c:	ad28ac23          	sw	x18,-1320(x17) # 4100ead8 <.L2120+0x410010fc>

00002950 <.L510>:
    2950:	0000006f          	j	2950 <.L510>

00002954 <.L578>:
    2954:	00000f37          	lui	x30,0x0
    2958:	000002b7          	lui	x5,0x0
    295c:	000f0593          	mv	x11,x30
    2960:	06f00613          	li	x12,111
    2964:	00028513          	mv	x10,x5
    2968:	00000097          	auipc	x1,0x0
    296c:	000080e7          	jalr	x1 # 2968 <.L578+0x14>
    2970:	00812583          	lw	x11,8(x2)
    2974:	00000637          	lui	x12,0x0
    2978:	00060513          	mv	x10,x12
    297c:	00000097          	auipc	x1,0x0
    2980:	000080e7          	jalr	x1 # 297c <.L578+0x28>
    2984:	000003b7          	lui	x7,0x0
    2988:	0003a403          	lw	x8,0(x7) # 0 <_Z21hb_tiled_foreach_implIfZL26convolution_backward_inputP11hb_tensor_tS1_S1_P11hb_vector_tS3_EUlvE_JEEvjjT0_8HBTensorIT_Lln1EEPS7_.isra.0>
    298c:	000004b7          	lui	x9,0x0
    2990:	0004a303          	lw	x6,0(x9) # 0 <_Z21hb_tiled_foreach_implIfZL26convolution_backward_inputP11hb_tensor_tS1_S1_P11hb_vector_tS3_EUlvE_JEEvjjT0_8HBTensorIT_Lln1EEPS7_.isra.0>
    2994:	01041713          	slli	x14,x8,0x10
    2998:	4100fc37          	lui	x24,0x4100f
    299c:	00670bb3          	add	x23,x14,x6
    29a0:	ad7c2c23          	sw	x23,-1320(x24) # 4100ead8 <.L2120+0x410010fc>

000029a4 <.L506>:
    29a4:	0000006f          	j	29a4 <.L506>

000029a8 <.L579>:
    29a8:	00000837          	lui	x16,0x0
    29ac:	00000a37          	lui	x20,0x0
    29b0:	00080593          	mv	x11,x16
    29b4:	06f00613          	li	x12,111
    29b8:	000a0513          	mv	x10,x20
    29bc:	00000097          	auipc	x1,0x0
    29c0:	000080e7          	jalr	x1 # 29bc <.L579+0x14>
    29c4:	00812583          	lw	x11,8(x2)
    29c8:	00000b37          	lui	x22,0x0
    29cc:	000b0513          	mv	x10,x22
    29d0:	00000097          	auipc	x1,0x0
    29d4:	000080e7          	jalr	x1 # 29d0 <.L579+0x28>
    29d8:	000007b7          	lui	x15,0x0
    29dc:	0007a983          	lw	x19,0(x15) # 0 <_Z21hb_tiled_foreach_implIfZL26convolution_backward_inputP11hb_tensor_tS1_S1_P11hb_vector_tS3_EUlvE_JEEvjjT0_8HBTensorIT_Lln1EEPS7_.isra.0>
    29e0:	00000fb7          	lui	x31,0x0
    29e4:	000fa503          	lw	x10,0(x31) # 0 <_Z21hb_tiled_foreach_implIfZL26convolution_backward_inputP11hb_tensor_tS1_S1_P11hb_vector_tS3_EUlvE_JEEvjjT0_8HBTensorIT_Lln1EEPS7_.isra.0>
    29e8:	01099693          	slli	x13,x19,0x10
    29ec:	4100fab7          	lui	x21,0x4100f
    29f0:	00a685b3          	add	x11,x13,x10
    29f4:	acbaac23          	sw	x11,-1320(x21) # 4100ead8 <.L2120+0x410010fc>

000029f8 <.L508>:
    29f8:	0000006f          	j	29f8 <.L508>

000029fc <.L583>:
    29fc:	000000b7          	lui	x1,0x0
    2a00:	00000337          	lui	x6,0x0
    2a04:	00008593          	mv	x11,x1
    2a08:	06f00613          	li	x12,111
    2a0c:	00030513          	mv	x10,x6
    2a10:	00000097          	auipc	x1,0x0
    2a14:	000080e7          	jalr	x1 # 2a10 <.L583+0x14>
    2a18:	07012583          	lw	x11,112(x2)
    2a1c:	00000737          	lui	x14,0x0
    2a20:	00070513          	mv	x10,x14
    2a24:	00000bb7          	lui	x23,0x0
    2a28:	00000097          	auipc	x1,0x0
    2a2c:	000080e7          	jalr	x1 # 2a28 <.L583+0x2c>
    2a30:	00000cb7          	lui	x25,0x0
    2a34:	000bac03          	lw	x24,0(x23) # 0 <_Z21hb_tiled_foreach_implIfZL26convolution_backward_inputP11hb_tensor_tS1_S1_P11hb_vector_tS3_EUlvE_JEEvjjT0_8HBTensorIT_Lln1EEPS7_.isra.0>
    2a38:	000cad03          	lw	x26,0(x25) # 0 <_Z21hb_tiled_foreach_implIfZL26convolution_backward_inputP11hb_tensor_tS1_S1_P11hb_vector_tS3_EUlvE_JEEvjjT0_8HBTensorIT_Lln1EEPS7_.isra.0>
    2a3c:	4100fe37          	lui	x28,0x4100f
    2a40:	010c1d93          	slli	x27,x24,0x10
    2a44:	01ad8eb3          	add	x29,x27,x26
    2a48:	adde2c23          	sw	x29,-1320(x28) # 4100ead8 <.L2120+0x410010fc>

00002a4c <.L516>:
    2a4c:	0000006f          	j	2a4c <.L516>

00002a50 <.L581>:
    2a50:	000005b7          	lui	x11,0x0
    2a54:	00000ab7          	lui	x21,0x0
    2a58:	06f00613          	li	x12,111
    2a5c:	00058593          	mv	x11,x11
    2a60:	000a8513          	mv	x10,x21
    2a64:	00000097          	auipc	x1,0x0
    2a68:	000080e7          	jalr	x1 # 2a64 <.L581+0x14>
    2a6c:	03c12583          	lw	x11,60(x2)
    2a70:	00000637          	lui	x12,0x0
    2a74:	00060513          	mv	x10,x12
    2a78:	00000097          	auipc	x1,0x0
    2a7c:	000080e7          	jalr	x1 # 2a78 <.L581+0x28>
    2a80:	00000f37          	lui	x30,0x0
    2a84:	000f2283          	lw	x5,0(x30) # 0 <_Z21hb_tiled_foreach_implIfZL26convolution_backward_inputP11hb_tensor_tS1_S1_P11hb_vector_tS3_EUlvE_JEEvjjT0_8HBTensorIT_Lln1EEPS7_.isra.0>
    2a88:	000003b7          	lui	x7,0x0
    2a8c:	0003a403          	lw	x8,0(x7) # 0 <_Z21hb_tiled_foreach_implIfZL26convolution_backward_inputP11hb_tensor_tS1_S1_P11hb_vector_tS3_EUlvE_JEEvjjT0_8HBTensorIT_Lln1EEPS7_.isra.0>
    2a90:	01029493          	slli	x9,x5,0x10
    2a94:	4100f737          	lui	x14,0x4100f
    2a98:	00848333          	add	x6,x9,x8
    2a9c:	ac672c23          	sw	x6,-1320(x14) # 4100ead8 <.L2120+0x410010fc>

00002aa0 <.L512>:
    2aa0:	0000006f          	j	2aa0 <.L512>

00002aa4 <.L582>:
    2aa4:	000008b7          	lui	x17,0x0
    2aa8:	00000937          	lui	x18,0x0
    2aac:	06f00613          	li	x12,111
    2ab0:	00090593          	mv	x11,x18
    2ab4:	00088513          	mv	x10,x17
    2ab8:	00000097          	auipc	x1,0x0
    2abc:	000080e7          	jalr	x1 # 2ab8 <.L582+0x14>
    2ac0:	03c12583          	lw	x11,60(x2)
    2ac4:	00000837          	lui	x16,0x0
    2ac8:	00080513          	mv	x10,x16
    2acc:	00000097          	auipc	x1,0x0
    2ad0:	000080e7          	jalr	x1 # 2acc <.L582+0x28>
    2ad4:	00000a37          	lui	x20,0x0
    2ad8:	000a2b03          	lw	x22,0(x20) # 0 <_Z21hb_tiled_foreach_implIfZL26convolution_backward_inputP11hb_tensor_tS1_S1_P11hb_vector_tS3_EUlvE_JEEvjjT0_8HBTensorIT_Lln1EEPS7_.isra.0>
    2adc:	000007b7          	lui	x15,0x0
    2ae0:	0007a983          	lw	x19,0(x15) # 0 <_Z21hb_tiled_foreach_implIfZL26convolution_backward_inputP11hb_tensor_tS1_S1_P11hb_vector_tS3_EUlvE_JEEvjjT0_8HBTensorIT_Lln1EEPS7_.isra.0>
    2ae4:	010b1f93          	slli	x31,x22,0x10
    2ae8:	4100f6b7          	lui	x13,0x4100f
    2aec:	013f8533          	add	x10,x31,x19
    2af0:	aca6ac23          	sw	x10,-1320(x13) # 4100ead8 <.L2120+0x410010fc>

00002af4 <.L514>:
    2af4:	0000006f          	j	2af4 <.L514>

00002af8 <.L584>:
    2af8:	000006b7          	lui	x13,0x0
    2afc:	00000537          	lui	x10,0x0
    2b00:	00050593          	mv	x11,x10
    2b04:	06f00613          	li	x12,111
    2b08:	00068513          	mv	x10,x13
    2b0c:	00000097          	auipc	x1,0x0
    2b10:	000080e7          	jalr	x1 # 2b0c <.L584+0x14>
    2b14:	07012583          	lw	x11,112(x2)
    2b18:	00000637          	lui	x12,0x0
    2b1c:	00060513          	mv	x10,x12
    2b20:	00000097          	auipc	x1,0x0
    2b24:	000080e7          	jalr	x1 # 2b20 <.L584+0x28>
    2b28:	000005b7          	lui	x11,0x0
    2b2c:	0005aa83          	lw	x21,0(x11) # 0 <_Z21hb_tiled_foreach_implIfZL26convolution_backward_inputP11hb_tensor_tS1_S1_P11hb_vector_tS3_EUlvE_JEEvjjT0_8HBTensorIT_Lln1EEPS7_.isra.0>
    2b30:	00000f37          	lui	x30,0x0
    2b34:	000f2283          	lw	x5,0(x30) # 0 <_Z21hb_tiled_foreach_implIfZL26convolution_backward_inputP11hb_tensor_tS1_S1_P11hb_vector_tS3_EUlvE_JEEvjjT0_8HBTensorIT_Lln1EEPS7_.isra.0>
    2b38:	010a9393          	slli	x7,x21,0x10
    2b3c:	4100f4b7          	lui	x9,0x4100f
    2b40:	00538433          	add	x8,x7,x5
    2b44:	ac84ac23          	sw	x8,-1320(x9) # 4100ead8 <.L2120+0x410010fc>

00002b48 <.L518>:
    2b48:	0000006f          	j	2b48 <.L518>

00002b4c <.L585>:
    2b4c:	08000793          	li	x15,128
    2b50:	ccff16e3          	bne	x30,x15,281c <.L500>
    2b54:	00800713          	li	x14,8
    2b58:	cce812e3          	bne	x16,x14,281c <.L500>
    2b5c:	cd0590e3          	bne	x11,x16,281c <.L500>
    2b60:	04000693          	li	x13,64
    2b64:	cad91ce3          	bne	x18,x13,281c <.L500>
    2b68:	cabb1ae3          	bne	x22,x11,281c <.L500>
    2b6c:	cb6e18e3          	bne	x28,x22,281c <.L500>
    2b70:	00100613          	li	x12,1
    2b74:	cacb94e3          	bne	x23,x12,281c <.L500>
    2b78:	cb7c12e3          	bne	x24,x23,281c <.L500>
    2b7c:	cb8c90e3          	bne	x25,x24,281c <.L500>
    2b80:	c99d1ee3          	bne	x26,x25,281c <.L500>
    2b84:	014dea33          	or	x20,x27,x20
    2b88:	c80a1ae3          	bnez	x20,281c <.L500>
    2b8c:	000000b7          	lui	x1,0x0
    2b90:	00000537          	lui	x10,0x0
    2b94:	00000b37          	lui	x22,0x0
    2b98:	00000ab7          	lui	x21,0x0
    2b9c:	0000a283          	lw	x5,0(x1) # 0 <_Z21hb_tiled_foreach_implIfZL26convolution_backward_inputP11hb_tensor_tS1_S1_P11hb_vector_tS3_EUlvE_JEEvjjT0_8HBTensorIT_Lln1EEPS7_.isra.0>
    2ba0:	00052883          	lw	x17,0(x10) # 0 <_Z21hb_tiled_foreach_implIfZL26convolution_backward_inputP11hb_tensor_tS1_S1_P11hb_vector_tS3_EUlvE_JEEvjjT0_8HBTensorIT_Lln1EEPS7_.isra.0>
    2ba4:	000b2383          	lw	x7,0(x22) # 0 <_Z21hb_tiled_foreach_implIfZL26convolution_backward_inputP11hb_tensor_tS1_S1_P11hb_vector_tS3_EUlvE_JEEvjjT0_8HBTensorIT_Lln1EEPS7_.isra.0>
    2ba8:	000aa303          	lw	x6,0(x21) # 0 <_Z21hb_tiled_foreach_implIfZL26convolution_backward_inputP11hb_tensor_tS1_S1_P11hb_vector_tS3_EUlvE_JEEvjjT0_8HBTensorIT_Lln1EEPS7_.isra.0>
    2bac:	00000fb7          	lui	x31,0x0
    2bb0:	000fae83          	lw	x29,0(x31) # 0 <_Z21hb_tiled_foreach_implIfZL26convolution_backward_inputP11hb_tensor_tS1_S1_P11hb_vector_tS3_EUlvE_JEEvjjT0_8HBTensorIT_Lln1EEPS7_.isra.0>
    2bb4:	00728f33          	add	x30,x5,x7
    2bb8:	00688833          	add	x16,x17,x6
    2bbc:	00fc0cb7          	lui	x25,0xfc0
    2bc0:	018f1593          	slli	x11,x30,0x18
    2bc4:	01281e13          	slli	x28,x16,0x12
    2bc8:	3f000bb7          	lui	x23,0x3f000
    2bcc:	00040737          	lui	x14,0x40
    2bd0:	019e7d33          	and	x26,x28,x25
    2bd4:	004e9d93          	slli	x27,x29,0x4
    2bd8:	0175fc33          	and	x24,x11,x23
    2bdc:	ff070693          	addi	x13,x14,-16 # 3fff0 <.L2120+0x32614>
    2be0:	01ac67b3          	or	x15,x24,x26
    2be4:	00ddf633          	and	x12,x27,x13
    2be8:	00c7e0b3          	or	x1,x15,x12
    2bec:	800002b7          	lui	x5,0x80000
    2bf0:	0104ac83          	lw	x25,16(x9)
    2bf4:	0050e3b3          	or	x7,x1,x5
    2bf8:	01042483          	lw	x9,16(x8)
    2bfc:	41001437          	lui	x8,0x41001
    2c00:	0109a983          	lw	x19,16(x19) # 10 <_Z21hb_tiled_foreach_implIfZL26convolution_backward_inputP11hb_tensor_tS1_S1_P11hb_vector_tS3_EUlvE_JEEvjjT0_8HBTensorIT_Lln1EEPS7_.isra.0+0x10>
    2c04:	00000537          	lui	x10,0x0
    2c08:	d0742623          	sw	x7,-756(x8) # 41000d0c <.L2120+0x40ff3330>
    2c0c:	00052883          	lw	x17,0(x10) # 0 <_Z21hb_tiled_foreach_implIfZL26convolution_backward_inputP11hb_tensor_tS1_S1_P11hb_vector_tS3_EUlvE_JEEvjjT0_8HBTensorIT_Lln1EEPS7_.isra.0>
    2c10:	08000313          	li	x6,128
    2c14:	07f8fe93          	andi	x29,x17,127
    2c18:	001e9413          	slli	x8,x29,0x1
    2c1c:	00240393          	addi	x7,x8,2
    2c20:	00737463          	bgeu	x6,x7,2c28 <.L520>
    2c24:	08000393          	li	x7,128

00002c28 <.L520>:
    2c28:	41998fb3          	sub	x31,x19,x25
    2c2c:	009e9f13          	slli	x30,x29,0x9
    2c30:	00839813          	slli	x16,x7,0x8
    2c34:	407405b3          	sub	x11,x8,x7
    2c38:	00980bb3          	add	x23,x16,x9
    2c3c:	00008c37          	lui	x24,0x8
    2c40:	01ef8fb3          	add	x31,x31,x30
    2c44:	00859093          	slli	x1,x11,0x8
    2c48:	00000993          	li	x19,0
    2c4c:	04000493          	li	x9,64
    2c50:	00001db7          	lui	x27,0x1
    2c54:	00004d37          	lui	x26,0x4

00002c58 <.L529>:
    2c58:	013c8e33          	add	x28,x25,x19
    2c5c:	00098f13          	mv	x30,x19
    2c60:	00090313          	mv	x6,x18
    2c64:	000b8293          	mv	x5,x23
    2c68:	00000513          	li	x10,0

00002c6c <.L523>:
    2c6c:	fc030e93          	addi	x29,x6,-64 # ffffffc0 <.L2120+0xffff25e4>
    2c70:	005088b3          	add	x17,x1,x5
    2c74:	41ef8833          	sub	x16,x31,x30
    2c78:	06747863          	bgeu	x8,x7,2ce8 <.L527>

00002c7c <.L528>:
    2c7c:	0008a687          	flw	f13,0(x17) # 0 <_Z21hb_tiled_foreach_implIfZL26convolution_backward_inputP11hb_tensor_tS1_S1_P11hb_vector_tS3_EUlvE_JEEvjjT0_8HBTensorIT_Lln1EEPS7_.isra.0>
    2c80:	000e8693          	mv	x13,x29
    2c84:	000e0713          	mv	x14,x28

00002c88 <.L526>:
    2c88:	00070793          	mv	x15,x14
    2c8c:	00072007          	flw	f0,0(x14)
    2c90:	f0000753          	fmv.w.x	f14,x0
    2c94:	02070713          	addi	x14,x14,32
    2c98:	01078633          	add	x12,x15,x16
    2c9c:	00050463          	beqz	x10,2ca4 <.L547>

00002ca0 <.L587>:
    2ca0:	00062707          	flw	f14,0(x12) # 0 <_Z21hb_tiled_foreach_implIfZL26convolution_backward_inputP11hb_tensor_tS1_S1_P11hb_vector_tS3_EUlvE_JEEvjjT0_8HBTensorIT_Lln1EEPS7_.isra.0>

00002ca4 <.L547>:
    2ca4:	70d077c3          	fmadd.s	f15,f0,f13,f14
    2ca8:	00478793          	addi	x15,x15,4
    2cac:	00f62027          	fsw	f15,0(x12)
    2cb0:	02f70263          	beq	x14,x15,2cd4 <.L586>

00002cb4 <.L525>:
    2cb4:	0007a007          	flw	f0,0(x15)
    2cb8:	f0000753          	fmv.w.x	f14,x0
    2cbc:	01078633          	add	x12,x15,x16
    2cc0:	fe0510e3          	bnez	x10,2ca0 <.L587>
    2cc4:	70d077c3          	fmadd.s	f15,f0,f13,f14
    2cc8:	00478793          	addi	x15,x15,4
    2ccc:	00f62027          	fsw	f15,0(x12)
    2cd0:	fef712e3          	bne	x14,x15,2cb4 <.L525>

00002cd4 <.L586>:
    2cd4:	00868693          	addi	x13,x13,8 # 8 <_Z21hb_tiled_foreach_implIfZL26convolution_backward_inputP11hb_tensor_tS1_S1_P11hb_vector_tS3_EUlvE_JEEvjjT0_8HBTensorIT_Lln1EEPS7_.isra.0+0x8>
    2cd8:	fad318e3          	bne	x6,x13,2c88 <.L526>
    2cdc:	10088893          	addi	x17,x17,256
    2ce0:	10080813          	addi	x16,x16,256 # 100 <.L75+0x94>
    2ce4:	f9129ce3          	bne	x5,x17,2c7c <.L528>

00002ce8 <.L527>:
    2ce8:	00150513          	addi	x10,x10,1
    2cec:	00428293          	addi	x5,x5,4 # 80000004 <.L2120+0x7fff2628>
    2cf0:	04030313          	addi	x6,x6,64
    2cf4:	100f0f13          	addi	x30,x30,256
    2cf8:	100e0e13          	addi	x28,x28,256
    2cfc:	f69518e3          	bne	x10,x9,2c6c <.L523>
    2d00:	000085b7          	lui	x11,0x8
    2d04:	01b90933          	add	x18,x18,x27
    2d08:	04058613          	addi	x12,x11,64 # 8040 <.L1423>
    2d0c:	01a989b3          	add	x19,x19,x26
    2d10:	018f8fb3          	add	x31,x31,x24
    2d14:	f4c912e3          	bne	x18,x12,2c58 <.L529>
    2d18:	000000b7          	lui	x1,0x0
    2d1c:	00000437          	lui	x8,0x0
    2d20:	0000a283          	lw	x5,0(x1) # 0 <_Z21hb_tiled_foreach_implIfZL26convolution_backward_inputP11hb_tensor_tS1_S1_P11hb_vector_tS3_EUlvE_JEEvjjT0_8HBTensorIT_Lln1EEPS7_.isra.0>
    2d24:	00042483          	lw	x9,0(x8) # 0 <_Z21hb_tiled_foreach_implIfZL26convolution_backward_inputP11hb_tensor_tS1_S1_P11hb_vector_tS3_EUlvE_JEEvjjT0_8HBTensorIT_Lln1EEPS7_.isra.0>
    2d28:	000b2383          	lw	x7,0(x22)
    2d2c:	000aa503          	lw	x10,0(x21)
    2d30:	00000737          	lui	x14,0x0
    2d34:	00072303          	lw	x6,0(x14) # 0 <_Z21hb_tiled_foreach_implIfZL26convolution_backward_inputP11hb_tensor_tS1_S1_P11hb_vector_tS3_EUlvE_JEEvjjT0_8HBTensorIT_Lln1EEPS7_.isra.0>
    2d38:	00728bb3          	add	x23,x5,x7
    2d3c:	00a48c33          	add	x24,x9,x10
    2d40:	018b9c93          	slli	x25,x23,0x18
    2d44:	012c1d13          	slli	x26,x24,0x12
    2d48:	3f000db7          	lui	x27,0x3f000
    2d4c:	00fc0eb7          	lui	x29,0xfc0
    2d50:	000408b7          	lui	x17,0x40
    2d54:	00431693          	slli	x13,x6,0x4
    2d58:	01bcfe33          	and	x28,x25,x27
    2d5c:	01dd7f33          	and	x30,x26,x29
    2d60:	ff088813          	addi	x16,x17,-16 # 3fff0 <.L2120+0x32614>
    2d64:	0106f933          	and	x18,x13,x16
    2d68:	01ee67b3          	or	x15,x28,x30
    2d6c:	0127e9b3          	or	x19,x15,x18
    2d70:	c0000fb7          	lui	x31,0xc0000
    2d74:	01f9e5b3          	or	x11,x19,x31
    2d78:	41001637          	lui	x12,0x41001
    2d7c:	d0b62623          	sw	x11,-756(x12) # 41000d0c <.L2120+0x40ff3330>
    2d80:	000aa083          	lw	x1,0(x21)
    2d84:	000b2283          	lw	x5,0(x22)
    2d88:	00000537          	lui	x10,0x0
    2d8c:	00408393          	addi	x7,x1,4
    2d90:	00050693          	mv	x13,x10
    2d94:	00768433          	add	x8,x13,x7
    2d98:	01829493          	slli	x9,x5,0x18
    2d9c:	00946333          	or	x6,x8,x9
    2da0:	201c0737          	lui	x14,0x201c0
    2da4:	00e36bb3          	or	x23,x6,x14
    2da8:	00100c13          	li	x24,1
    2dac:	018b8023          	sb	x24,0(x23) # 3f000000 <.L2120+0x3eff2624>
    2db0:	000aac83          	lw	x25,0(x21)
    2db4:	00700d13          	li	x26,7
    2db8:	03ac8863          	beq	x25,x26,2de8 <.L588>

00002dbc <.L540>:
    2dbc:	00100a13          	li	x20,1
    2dc0:	0100006f          	j	2dd0 <.L545>

00002dc4 <.L589>:
    2dc4:	00050993          	mv	x19,x10
    2dc8:	1409afaf          	lr.w.aq	x31,(x19)
    2dcc:	014f8863          	beq	x31,x20,2ddc <.L544>

00002dd0 <.L545>:
    2dd0:	00050b13          	mv	x22,x10
    2dd4:	100b27af          	lr.w	x15,(x22)
    2dd8:	ff4796e3          	bne	x15,x20,2dc4 <.L589>

00002ddc <.L544>:
    2ddc:	0006a023          	sw	x0,0(x13)
    2de0:	00000513          	li	x10,0
    2de4:	a39ff06f          	j	281c <.L500>

00002de8 <.L588>:
    2de8:	00000db7          	lui	x27,0x0
    2dec:	00000eb7          	lui	x29,0x0
    2df0:	004d8e13          	addi	x28,x27,4 # 4 <_Z21hb_tiled_foreach_implIfZL26convolution_backward_inputP11hb_tensor_tS1_S1_P11hb_vector_tS3_EUlvE_JEEvjjT0_8HBTensorIT_Lln1EEPS7_.isra.0+0x4>
    2df4:	014e8f13          	addi	x30,x29,20 # 14 <.L8>

00002df8 <.L531>:
    2df8:	000e0793          	mv	x15,x28

00002dfc <.L533>:
    2dfc:	0007c883          	lbu	x17,0(x15)
    2e00:	00178793          	addi	x15,x15,1
    2e04:	0ff8f813          	andi	x16,x17,255
    2e08:	fe0808e3          	beqz	x16,2df8 <.L531>
    2e0c:	feff18e3          	bne	x30,x15,2dfc <.L533>
    2e10:	000b2903          	lw	x18,0(x22)
    2e14:	231c05b7          	lui	x11,0x231c0
    2e18:	00100093          	li	x1,1
    2e1c:	01890993          	addi	x19,x18,24 # 18 <.L8+0x4>
    2e20:	01368fb3          	add	x31,x13,x19
    2e24:	00bfe633          	or	x12,x31,x11
    2e28:	00160023          	sb	x1,0(x12)
    2e2c:	000aa283          	lw	x5,0(x21)
    2e30:	00700393          	li	x7,7
    2e34:	f87294e3          	bne	x5,x7,2dbc <.L540>
    2e38:	000b2403          	lw	x8,0(x22)
    2e3c:	00300493          	li	x9,3
    2e40:	06940c63          	beq	x8,x9,2eb8 <.L590>

00002e44 <.L539>:
    2e44:	00100f13          	li	x30,1
    2e48:	0100006f          	j	2e58 <.L535>

00002e4c <.L591>:
    2e4c:	01468413          	addi	x8,x13,20
    2e50:	140424af          	lr.w.aq	x9,(x8)
    2e54:	01e48863          	beq	x9,x30,2e64 <.L541>

00002e58 <.L535>:
    2e58:	01468293          	addi	x5,x13,20
    2e5c:	1002a3af          	lr.w	x7,(x5)
    2e60:	ffe396e3          	bne	x7,x30,2e4c <.L591>

00002e64 <.L541>:
    2e64:	0006aa23          	sw	x0,20(x13)
    2e68:	00000b93          	li	x23,0
    2e6c:	01000313          	li	x6,16

00002e70 <.L542>:
    2e70:	01768733          	add	x14,x13,x23
    2e74:	00070223          	sb	x0,4(x14) # 201c0004 <.L2120+0x201b2628>
    2e78:	001b8b93          	addi	x23,x23,1
    2e7c:	fe6b9ae3          	bne	x23,x6,2e70 <.L542>
    2e80:	0006a023          	sw	x0,0(x13)
    2e84:	20000c37          	lui	x24,0x20000
    2e88:	00100c93          	li	x25,1
    2e8c:	00040d37          	lui	x26,0x40
    2e90:	00400db7          	lui	x27,0x400

00002e94 <.L543>:
    2e94:	000b2e83          	lw	x29,0(x22)
    2e98:	0146ee33          	or	x28,x13,x20
    2e9c:	01aa0a33          	add	x20,x20,x26
    2ea0:	018e9913          	slli	x18,x29,0x18
    2ea4:	01c968b3          	or	x17,x18,x28
    2ea8:	0188e833          	or	x16,x17,x24
    2eac:	01982023          	sw	x25,0(x16)
    2eb0:	ffba12e3          	bne	x20,x27,2e94 <.L543>
    2eb4:	f09ff06f          	j	2dbc <.L540>

00002eb8 <.L590>:
    2eb8:	00000337          	lui	x6,0x0
    2ebc:	00000bb7          	lui	x23,0x0
    2ec0:	01830713          	addi	x14,x6,24 # 18 <.L8+0x4>
    2ec4:	020b8c13          	addi	x24,x23,32 # 20 <.L8+0xc>

00002ec8 <.L534>:
    2ec8:	00070d13          	mv	x26,x14

00002ecc <.L536>:
    2ecc:	000d4c83          	lbu	x25,0(x26) # 40000 <.L2120+0x32624>
    2ed0:	001d0d13          	addi	x26,x26,1
    2ed4:	0ffcfd93          	andi	x27,x25,255
    2ed8:	fe0d88e3          	beqz	x27,2ec8 <.L534>
    2edc:	ffac18e3          	bne	x24,x26,2ecc <.L536>
    2ee0:	00068c23          	sb	x0,24(x13)
    2ee4:	00068ca3          	sb	x0,25(x13)
    2ee8:	00068d23          	sb	x0,26(x13)
    2eec:	00068da3          	sb	x0,27(x13)
    2ef0:	00068e23          	sb	x0,28(x13)
    2ef4:	00068ea3          	sb	x0,29(x13)
    2ef8:	00068f23          	sb	x0,30(x13)
    2efc:	00068fa3          	sb	x0,31(x13)
    2f00:	0006aa23          	sw	x0,20(x13)
    2f04:	00000593          	li	x11,0
    2f08:	03fc0eb7          	lui	x29,0x3fc0
    2f0c:	20000e37          	lui	x28,0x20000
    2f10:	00100913          	li	x18,1
    2f14:	010008b7          	lui	x17,0x1000
    2f18:	08000837          	lui	x16,0x8000

00002f1c <.L538>:
    2f1c:	01229793          	slli	x15,x5,0x12
    2f20:	00bf69b3          	or	x19,x30,x11
    2f24:	01d7ffb3          	and	x31,x15,x29
    2f28:	013fe633          	or	x12,x31,x19
    2f2c:	01c660b3          	or	x1,x12,x28
    2f30:	0120a023          	sw	x18,0(x1)
    2f34:	011585b3          	add	x11,x11,x17
    2f38:	000aa283          	lw	x5,0(x21)
    2f3c:	ff0590e3          	bne	x11,x16,2f1c <.L538>
    2f40:	00700a93          	li	x21,7
    2f44:	f15280e3          	beq	x5,x21,2e44 <.L539>
    2f48:	e75ff06f          	j	2dbc <.L540>

00002f4c <_ZN12_GLOBAL__N_128convolution_forward_templateILm8ELm16ELm32ELm32ELm3ELm32ELm32ELm3ELm3ELm1ELm1ELm1ELm1EEEiP11hb_tensor_tS2_S2_P11hb_vector_tS4_>:
    2f4c:	e8010113          	addi	x2,x2,-384
    2f50:	17212823          	sw	x18,368(x2)
    2f54:	00050913          	mv	x18,x10
    2f58:	16912a23          	sw	x9,372(x2)
    2f5c:	04410513          	addi	x10,x2,68
    2f60:	00058493          	mv	x9,x11
    2f64:	00090593          	mv	x11,x18
    2f68:	16112e23          	sw	x1,380(x2)
    2f6c:	16812c23          	sw	x8,376(x2)
    2f70:	17312623          	sw	x19,364(x2)
    2f74:	00060413          	mv	x8,x12
    2f78:	00070993          	mv	x19,x14
    2f7c:	17412423          	sw	x20,360(x2)
    2f80:	17512223          	sw	x21,356(x2)
    2f84:	00068a13          	mv	x20,x13
    2f88:	17612023          	sw	x22,352(x2)
    2f8c:	15712e23          	sw	x23,348(x2)
    2f90:	15812c23          	sw	x24,344(x2)
    2f94:	15912a23          	sw	x25,340(x2)
    2f98:	15a12823          	sw	x26,336(x2)
    2f9c:	15b12623          	sw	x27,332(x2)
    2fa0:	00000097          	auipc	x1,0x0
    2fa4:	000080e7          	jalr	x1 # 2fa0 <_ZN12_GLOBAL__N_128convolution_forward_templateILm8ELm16ELm32ELm32ELm3ELm32ELm32ELm3ELm3ELm1ELm1ELm1ELm1EEEiP11hb_tensor_tS2_S2_P11hb_vector_tS4_+0x54>
    2fa8:	00048593          	mv	x11,x9
    2fac:	07810513          	addi	x10,x2,120
    2fb0:	00000097          	auipc	x1,0x0
    2fb4:	000080e7          	jalr	x1 # 2fb0 <_ZN12_GLOBAL__N_128convolution_forward_templateILm8ELm16ELm32ELm32ELm3ELm32ELm32ELm3ELm3ELm1ELm1ELm1ELm1EEEiP11hb_tensor_tS2_S2_P11hb_vector_tS4_+0x64>
    2fb8:	00040593          	mv	x11,x8
    2fbc:	0dc10513          	addi	x10,x2,220
    2fc0:	00000097          	auipc	x1,0x0
    2fc4:	000080e7          	jalr	x1 # 2fc0 <_ZN12_GLOBAL__N_128convolution_forward_templateILm8ELm16ELm32ELm32ELm3ELm32ELm32ELm3ELm3ELm1ELm1ELm1ELm1EEEiP11hb_tensor_tS2_S2_P11hb_vector_tS4_+0x74>
    2fc8:	04812783          	lw	x15,72(x2)
    2fcc:	10078e63          	beqz	x15,30e8 <.L691>
    2fd0:	00100713          	li	x14,1
    2fd4:	0cf77063          	bgeu	x14,x15,3094 <.L692>
    2fd8:	00200693          	li	x13,2
    2fdc:	1ad78a63          	beq	x15,x13,3190 <.L693>
    2fe0:	00300613          	li	x12,3
    2fe4:	20c78063          	beq	x15,x12,31e4 <.L694>
    2fe8:	07c12083          	lw	x1,124(x2)
    2fec:	14177863          	bgeu	x14,x1,313c <.L695>
    2ff0:	28d08e63          	beq	x1,x13,328c <.L696>
    2ff4:	2ec08663          	beq	x1,x12,32e0 <.L697>
    2ff8:	0e012283          	lw	x5,224(x2)
    2ffc:	2256fe63          	bgeu	x13,x5,3238 <.L698>
    3000:	32c28a63          	beq	x5,x12,3334 <.L699>
    3004:	05012583          	lw	x11,80(x2)
    3008:	08412a83          	lw	x21,132(x2)
    300c:	004a2503          	lw	x10,4(x20)
    3010:	0049a303          	lw	x6,4(x19)
    3014:	0e812e03          	lw	x28,232(x2)
    3018:	0005a383          	lw	x7,0(x11) # 231c0000 <.L2120+0x231b2624>
    301c:	00800f93          	li	x31,8
    3020:	00052a03          	lw	x20,0(x10) # 0 <_Z21hb_tiled_foreach_implIfZL26convolution_backward_inputP11hb_tensor_tS1_S1_P11hb_vector_tS3_EUlvE_JEEvjjT0_8HBTensorIT_Lln1EEPS7_.isra.0>
    3024:	00452983          	lw	x19,4(x10)
    3028:	0045ab03          	lw	x22,4(x11)
    302c:	0085a883          	lw	x17,8(x11)
    3030:	00c5a803          	lw	x16,12(x11)
    3034:	004aab83          	lw	x23,4(x21)
    3038:	008aac03          	lw	x24,8(x21)
    303c:	00caaf03          	lw	x30,12(x21)
    3040:	008e2c83          	lw	x25,8(x28) # 20000008 <.L2120+0x1fff262c>
    3044:	00ce2e83          	lw	x29,12(x28)
    3048:	00032d03          	lw	x26,0(x6)
    304c:	00432d83          	lw	x27,4(x6)
    3050:	fff00513          	li	x10,-1
    3054:	33f38a63          	beq	x7,x31,3388 <.L700>

00003058 <.L592>:
    3058:	17c12083          	lw	x1,380(x2)
    305c:	17812403          	lw	x8,376(x2)
    3060:	17412483          	lw	x9,372(x2)
    3064:	17012903          	lw	x18,368(x2)
    3068:	16c12983          	lw	x19,364(x2)
    306c:	16812a03          	lw	x20,360(x2)
    3070:	16412a83          	lw	x21,356(x2)
    3074:	16012b03          	lw	x22,352(x2)
    3078:	15c12b83          	lw	x23,348(x2)
    307c:	15812c03          	lw	x24,344(x2)
    3080:	15412c83          	lw	x25,340(x2)
    3084:	15012d03          	lw	x26,336(x2)
    3088:	14c12d83          	lw	x27,332(x2)
    308c:	18010113          	addi	x2,x2,384
    3090:	00008067          	ret

00003094 <.L692>:
    3094:	000000b7          	lui	x1,0x0
    3098:	00000bb7          	lui	x23,0x0
    309c:	00008593          	mv	x11,x1
    30a0:	06f00613          	li	x12,111
    30a4:	000b8513          	mv	x10,x23
    30a8:	00000097          	auipc	x1,0x0
    30ac:	000080e7          	jalr	x1 # 30a8 <.L692+0x14>
    30b0:	04812583          	lw	x11,72(x2)
    30b4:	00000437          	lui	x8,0x0
    30b8:	00040513          	mv	x10,x8
    30bc:	00000097          	auipc	x1,0x0
    30c0:	000080e7          	jalr	x1 # 30bc <.L692+0x28>
    30c4:	000005b7          	lui	x11,0x0
    30c8:	0005a983          	lw	x19,0(x11) # 0 <_Z21hb_tiled_foreach_implIfZL26convolution_backward_inputP11hb_tensor_tS1_S1_P11hb_vector_tS3_EUlvE_JEEvjjT0_8HBTensorIT_Lln1EEPS7_.isra.0>
    30cc:	00000f37          	lui	x30,0x0
    30d0:	000f2483          	lw	x9,0(x30) # 0 <_Z21hb_tiled_foreach_implIfZL26convolution_backward_inputP11hb_tensor_tS1_S1_P11hb_vector_tS3_EUlvE_JEEvjjT0_8HBTensorIT_Lln1EEPS7_.isra.0>
    30d4:	01099a13          	slli	x20,x19,0x10
    30d8:	4100fab7          	lui	x21,0x4100f
    30dc:	009a07b3          	add	x15,x20,x9
    30e0:	acfaac23          	sw	x15,-1320(x21) # 4100ead8 <.L2120+0x410010fc>

000030e4 <.L596>:
    30e4:	0000006f          	j	30e4 <.L596>

000030e8 <.L691>:
    30e8:	00000837          	lui	x16,0x0
    30ec:	00000cb7          	lui	x25,0x0
    30f0:	06f00613          	li	x12,111
    30f4:	000c8593          	mv	x11,x25
    30f8:	00080513          	mv	x10,x16
    30fc:	00000097          	auipc	x1,0x0
    3100:	000080e7          	jalr	x1 # 30fc <.L691+0x14>
    3104:	04812583          	lw	x11,72(x2)
    3108:	00000637          	lui	x12,0x0
    310c:	00060513          	mv	x10,x12
    3110:	00000097          	auipc	x1,0x0
    3114:	000080e7          	jalr	x1 # 3110 <.L691+0x28>
    3118:	00000fb7          	lui	x31,0x0
    311c:	000fa503          	lw	x10,0(x31) # 0 <_Z21hb_tiled_foreach_implIfZL26convolution_backward_inputP11hb_tensor_tS1_S1_P11hb_vector_tS3_EUlvE_JEEvjjT0_8HBTensorIT_Lln1EEPS7_.isra.0>
    3120:	000006b7          	lui	x13,0x0
    3124:	0006a903          	lw	x18,0(x13) # 0 <_Z21hb_tiled_foreach_implIfZL26convolution_backward_inputP11hb_tensor_tS1_S1_P11hb_vector_tS3_EUlvE_JEEvjjT0_8HBTensorIT_Lln1EEPS7_.isra.0>
    3128:	01051713          	slli	x14,x10,0x10
    312c:	4100f3b7          	lui	x7,0x4100f
    3130:	012702b3          	add	x5,x14,x18
    3134:	ac53ac23          	sw	x5,-1320(x7) # 4100ead8 <.L2120+0x410010fc>

00003138 <.L594>:
    3138:	0000006f          	j	3138 <.L594>

0000313c <.L695>:
    313c:	000000b7          	lui	x1,0x0
    3140:	000008b7          	lui	x17,0x0
    3144:	00008593          	mv	x11,x1
    3148:	06f00613          	li	x12,111
    314c:	00088513          	mv	x10,x17
    3150:	00000097          	auipc	x1,0x0
    3154:	000080e7          	jalr	x1 # 3150 <.L695+0x14>
    3158:	07c12583          	lw	x11,124(x2)
    315c:	00000db7          	lui	x27,0x0
    3160:	000d8513          	mv	x10,x27
    3164:	00000097          	auipc	x1,0x0
    3168:	000080e7          	jalr	x1 # 3164 <.L695+0x28>
    316c:	00000bb7          	lui	x23,0x0
    3170:	000ba583          	lw	x11,0(x23) # 0 <_Z21hb_tiled_foreach_implIfZL26convolution_backward_inputP11hb_tensor_tS1_S1_P11hb_vector_tS3_EUlvE_JEEvjjT0_8HBTensorIT_Lln1EEPS7_.isra.0>
    3174:	00000437          	lui	x8,0x0
    3178:	00042983          	lw	x19,0(x8) # 0 <_Z21hb_tiled_foreach_implIfZL26convolution_backward_inputP11hb_tensor_tS1_S1_P11hb_vector_tS3_EUlvE_JEEvjjT0_8HBTensorIT_Lln1EEPS7_.isra.0>
    317c:	01059f13          	slli	x30,x11,0x10
    3180:	4100fa37          	lui	x20,0x4100f
    3184:	013f04b3          	add	x9,x30,x19
    3188:	ac9a2c23          	sw	x9,-1320(x20) # 4100ead8 <.L2120+0x410010fc>

0000318c <.L602>:
    318c:	0000006f          	j	318c <.L602>

00003190 <.L693>:
    3190:	000002b7          	lui	x5,0x0
    3194:	000003b7          	lui	x7,0x0
    3198:	00028593          	mv	x11,x5
    319c:	06f00613          	li	x12,111
    31a0:	00038513          	mv	x10,x7
    31a4:	00000097          	auipc	x1,0x0
    31a8:	000080e7          	jalr	x1 # 31a4 <.L693+0x14>
    31ac:	04812583          	lw	x11,72(x2)
    31b0:	00000eb7          	lui	x29,0x0
    31b4:	000e8513          	mv	x10,x29
    31b8:	00000097          	auipc	x1,0x0
    31bc:	000080e7          	jalr	x1 # 31b8 <.L693+0x28>
    31c0:	00000e37          	lui	x28,0x0
    31c4:	000e2b03          	lw	x22,0(x28) # 0 <_Z21hb_tiled_foreach_implIfZL26convolution_backward_inputP11hb_tensor_tS1_S1_P11hb_vector_tS3_EUlvE_JEEvjjT0_8HBTensorIT_Lln1EEPS7_.isra.0>
    31c8:	00000d37          	lui	x26,0x0
    31cc:	000d2c03          	lw	x24,0(x26) # 0 <_Z21hb_tiled_foreach_implIfZL26convolution_backward_inputP11hb_tensor_tS1_S1_P11hb_vector_tS3_EUlvE_JEEvjjT0_8HBTensorIT_Lln1EEPS7_.isra.0>
    31d0:	010b1313          	slli	x6,x22,0x10
    31d4:	4100fdb7          	lui	x27,0x4100f
    31d8:	018308b3          	add	x17,x6,x24
    31dc:	ad1dac23          	sw	x17,-1320(x27) # 4100ead8 <.L2120+0x410010fc>

000031e0 <.L598>:
    31e0:	0000006f          	j	31e0 <.L598>

000031e4 <.L694>:
    31e4:	000007b7          	lui	x15,0x0
    31e8:	00000ab7          	lui	x21,0x0
    31ec:	06f00613          	li	x12,111
    31f0:	00078593          	mv	x11,x15
    31f4:	000a8513          	mv	x10,x21
    31f8:	00000097          	auipc	x1,0x0
    31fc:	000080e7          	jalr	x1 # 31f8 <.L694+0x14>
    3200:	04812583          	lw	x11,72(x2)
    3204:	00000cb7          	lui	x25,0x0
    3208:	000c8513          	mv	x10,x25
    320c:	00000097          	auipc	x1,0x0
    3210:	000080e7          	jalr	x1 # 320c <.L694+0x28>
    3214:	00000637          	lui	x12,0x0
    3218:	00062803          	lw	x16,0(x12) # 0 <_Z21hb_tiled_foreach_implIfZL26convolution_backward_inputP11hb_tensor_tS1_S1_P11hb_vector_tS3_EUlvE_JEEvjjT0_8HBTensorIT_Lln1EEPS7_.isra.0>
    321c:	00000fb7          	lui	x31,0x0
    3220:	000fa503          	lw	x10,0(x31) # 0 <_Z21hb_tiled_foreach_implIfZL26convolution_backward_inputP11hb_tensor_tS1_S1_P11hb_vector_tS3_EUlvE_JEEvjjT0_8HBTensorIT_Lln1EEPS7_.isra.0>
    3224:	01081693          	slli	x13,x16,0x10
    3228:	4100f737          	lui	x14,0x4100f
    322c:	00a68933          	add	x18,x13,x10
    3230:	ad272c23          	sw	x18,-1320(x14) # 4100ead8 <.L2120+0x410010fc>

00003234 <.L600>:
    3234:	0000006f          	j	3234 <.L600>

00003238 <.L698>:
    3238:	000000b7          	lui	x1,0x0
    323c:	00000c37          	lui	x24,0x0
    3240:	00008593          	mv	x11,x1
    3244:	06f00613          	li	x12,111
    3248:	000c0513          	mv	x10,x24
    324c:	00000097          	auipc	x1,0x0
    3250:	000080e7          	jalr	x1 # 324c <.L698+0x14>
    3254:	0e012583          	lw	x11,224(x2)
    3258:	00000337          	lui	x6,0x0
    325c:	00030513          	mv	x10,x6
    3260:	00000097          	auipc	x1,0x0
    3264:	000080e7          	jalr	x1 # 3260 <.L698+0x28>
    3268:	000008b7          	lui	x17,0x0
    326c:	0008ad83          	lw	x27,0(x17) # 0 <_Z21hb_tiled_foreach_implIfZL26convolution_backward_inputP11hb_tensor_tS1_S1_P11hb_vector_tS3_EUlvE_JEEvjjT0_8HBTensorIT_Lln1EEPS7_.isra.0>
    3270:	00000bb7          	lui	x23,0x0
    3274:	000ba583          	lw	x11,0(x23) # 0 <_Z21hb_tiled_foreach_implIfZL26convolution_backward_inputP11hb_tensor_tS1_S1_P11hb_vector_tS3_EUlvE_JEEvjjT0_8HBTensorIT_Lln1EEPS7_.isra.0>
    3278:	010d9413          	slli	x8,x27,0x10
    327c:	4100ff37          	lui	x30,0x4100f
    3280:	00b409b3          	add	x19,x8,x11
    3284:	ad3f2c23          	sw	x19,-1320(x30) # 4100ead8 <.L2120+0x410010fc>

00003288 <.L608>:
    3288:	0000006f          	j	3288 <.L608>

0000328c <.L696>:
    328c:	00000737          	lui	x14,0x0
    3290:	00000937          	lui	x18,0x0
    3294:	00070593          	mv	x11,x14
    3298:	06f00613          	li	x12,111
    329c:	00090513          	mv	x10,x18
    32a0:	00000097          	auipc	x1,0x0
    32a4:	000080e7          	jalr	x1 # 32a0 <.L696+0x14>
    32a8:	07c12583          	lw	x11,124(x2)
    32ac:	000002b7          	lui	x5,0x0
    32b0:	00028513          	mv	x10,x5
    32b4:	00000097          	auipc	x1,0x0
    32b8:	000080e7          	jalr	x1 # 32b4 <.L696+0x28>
    32bc:	000003b7          	lui	x7,0x0
    32c0:	0003ae83          	lw	x29,0(x7) # 0 <_Z21hb_tiled_foreach_implIfZL26convolution_backward_inputP11hb_tensor_tS1_S1_P11hb_vector_tS3_EUlvE_JEEvjjT0_8HBTensorIT_Lln1EEPS7_.isra.0>
    32c4:	00000e37          	lui	x28,0x0
    32c8:	000e2b03          	lw	x22,0(x28) # 0 <_Z21hb_tiled_foreach_implIfZL26convolution_backward_inputP11hb_tensor_tS1_S1_P11hb_vector_tS3_EUlvE_JEEvjjT0_8HBTensorIT_Lln1EEPS7_.isra.0>
    32cc:	010e9d13          	slli	x26,x29,0x10
    32d0:	4100f337          	lui	x6,0x4100f
    32d4:	016d0c33          	add	x24,x26,x22
    32d8:	ad832c23          	sw	x24,-1320(x6) # 4100ead8 <.L2120+0x410010fc>

000032dc <.L604>:
    32dc:	0000006f          	j	32dc <.L604>

000032e0 <.L697>:
    32e0:	000004b7          	lui	x9,0x0
    32e4:	00000a37          	lui	x20,0x0
    32e8:	06f00613          	li	x12,111
    32ec:	00048593          	mv	x11,x9
    32f0:	000a0513          	mv	x10,x20
    32f4:	00000097          	auipc	x1,0x0
    32f8:	000080e7          	jalr	x1 # 32f4 <.L697+0x14>
    32fc:	07c12583          	lw	x11,124(x2)
    3300:	000007b7          	lui	x15,0x0
    3304:	00078513          	mv	x10,x15
    3308:	00000097          	auipc	x1,0x0
    330c:	000080e7          	jalr	x1 # 3308 <.L697+0x28>
    3310:	00000ab7          	lui	x21,0x0
    3314:	000aac83          	lw	x25,0(x21) # 0 <_Z21hb_tiled_foreach_implIfZL26convolution_backward_inputP11hb_tensor_tS1_S1_P11hb_vector_tS3_EUlvE_JEEvjjT0_8HBTensorIT_Lln1EEPS7_.isra.0>
    3318:	00000637          	lui	x12,0x0
    331c:	00062803          	lw	x16,0(x12) # 0 <_Z21hb_tiled_foreach_implIfZL26convolution_backward_inputP11hb_tensor_tS1_S1_P11hb_vector_tS3_EUlvE_JEEvjjT0_8HBTensorIT_Lln1EEPS7_.isra.0>
    3320:	010c9f93          	slli	x31,x25,0x10
    3324:	4100f6b7          	lui	x13,0x4100f
    3328:	010f8533          	add	x10,x31,x16
    332c:	aca6ac23          	sw	x10,-1320(x13) # 4100ead8 <.L2120+0x410010fc>

00003330 <.L606>:
    3330:	0000006f          	j	3330 <.L606>

00003334 <.L699>:
    3334:	000006b7          	lui	x13,0x0
    3338:	00000537          	lui	x10,0x0
    333c:	00050593          	mv	x11,x10
    3340:	06f00613          	li	x12,111
    3344:	00068513          	mv	x10,x13
    3348:	00000097          	auipc	x1,0x0
    334c:	000080e7          	jalr	x1 # 3348 <.L699+0x14>
    3350:	0e012583          	lw	x11,224(x2)
    3354:	00000737          	lui	x14,0x0
    3358:	00070513          	mv	x10,x14
    335c:	00000097          	auipc	x1,0x0
    3360:	000080e7          	jalr	x1 # 335c <.L699+0x28>
    3364:	00000937          	lui	x18,0x0
    3368:	00092283          	lw	x5,0(x18) # 0 <_Z21hb_tiled_foreach_implIfZL26convolution_backward_inputP11hb_tensor_tS1_S1_P11hb_vector_tS3_EUlvE_JEEvjjT0_8HBTensorIT_Lln1EEPS7_.isra.0>
    336c:	000003b7          	lui	x7,0x0
    3370:	0003ae83          	lw	x29,0(x7) # 0 <_Z21hb_tiled_foreach_implIfZL26convolution_backward_inputP11hb_tensor_tS1_S1_P11hb_vector_tS3_EUlvE_JEEvjjT0_8HBTensorIT_Lln1EEPS7_.isra.0>
    3374:	01029e13          	slli	x28,x5,0x10
    3378:	4100fd37          	lui	x26,0x4100f
    337c:	01de0b33          	add	x22,x28,x29
    3380:	ad6d2c23          	sw	x22,-1320(x26) # 4100ead8 <.L2120+0x410010fc>

00003384 <.L610>:
    3384:	0000006f          	j	3384 <.L610>

00003388 <.L700>:
    3388:	01000793          	li	x15,16
    338c:	ccfb16e3          	bne	x22,x15,3058 <.L592>
    3390:	02000713          	li	x14,32
    3394:	cce892e3          	bne	x17,x14,3058 <.L592>
    3398:	cd1810e3          	bne	x16,x17,3058 <.L592>
    339c:	00300693          	li	x13,3
    33a0:	cadb9ce3          	bne	x23,x13,3058 <.L592>
    33a4:	cb0c1ae3          	bne	x24,x16,3058 <.L592>
    33a8:	cb8f18e3          	bne	x30,x24,3058 <.L592>
    33ac:	cb7c96e3          	bne	x25,x23,3058 <.L592>
    33b0:	cb9e94e3          	bne	x29,x25,3058 <.L592>
    33b4:	00100613          	li	x12,1
    33b8:	cacd10e3          	bne	x26,x12,3058 <.L592>
    33bc:	c9ad9ee3          	bne	x27,x26,3058 <.L592>
    33c0:	00100093          	li	x1,1
    33c4:	c81a1ae3          	bne	x20,x1,3058 <.L592>
    33c8:	c94998e3          	bne	x19,x20,3058 <.L592>
    33cc:	000002b7          	lui	x5,0x0
    33d0:	000005b7          	lui	x11,0x0
    33d4:	00000337          	lui	x6,0x0
    33d8:	000003b7          	lui	x7,0x0
    33dc:	0002aa83          	lw	x21,0(x5) # 0 <_Z21hb_tiled_foreach_implIfZL26convolution_backward_inputP11hb_tensor_tS1_S1_P11hb_vector_tS3_EUlvE_JEEvjjT0_8HBTensorIT_Lln1EEPS7_.isra.0>
    33e0:	0005a503          	lw	x10,0(x11) # 0 <_Z21hb_tiled_foreach_implIfZL26convolution_backward_inputP11hb_tensor_tS1_S1_P11hb_vector_tS3_EUlvE_JEEvjjT0_8HBTensorIT_Lln1EEPS7_.isra.0>
    33e4:	00032e03          	lw	x28,0(x6) # 0 <_Z21hb_tiled_foreach_implIfZL26convolution_backward_inputP11hb_tensor_tS1_S1_P11hb_vector_tS3_EUlvE_JEEvjjT0_8HBTensorIT_Lln1EEPS7_.isra.0>
    33e8:	0003af83          	lw	x31,0(x7) # 0 <_Z21hb_tiled_foreach_implIfZL26convolution_backward_inputP11hb_tensor_tS1_S1_P11hb_vector_tS3_EUlvE_JEEvjjT0_8HBTensorIT_Lln1EEPS7_.isra.0>
    33ec:	00000b37          	lui	x22,0x0
    33f0:	000b2883          	lw	x17,0(x22) # 0 <_Z21hb_tiled_foreach_implIfZL26convolution_backward_inputP11hb_tensor_tS1_S1_P11hb_vector_tS3_EUlvE_JEEvjjT0_8HBTensorIT_Lln1EEPS7_.isra.0>
    33f4:	00aa8833          	add	x16,x21,x10
    33f8:	01fe0bb3          	add	x23,x28,x31
    33fc:	01881c13          	slli	x24,x16,0x18
    3400:	012b9f13          	slli	x30,x23,0x12
    3404:	3f000cb7          	lui	x25,0x3f000
    3408:	00fc0d37          	lui	x26,0xfc0
    340c:	000407b7          	lui	x15,0x40
    3410:	019c7eb3          	and	x29,x24,x25
    3414:	0104a483          	lw	x9,16(x9) # 10 <_Z21hb_tiled_foreach_implIfZL26convolution_backward_inputP11hb_tensor_tS1_S1_P11hb_vector_tS3_EUlvE_JEEvjjT0_8HBTensorIT_Lln1EEPS7_.isra.0+0x10>
    3418:	01af7db3          	and	x27,x30,x26
    341c:	00489a13          	slli	x20,x17,0x4
    3420:	ff078713          	addi	x14,x15,-16 # 3fff0 <.L2120+0x32614>
    3424:	01bee9b3          	or	x19,x29,x27
    3428:	00ea76b3          	and	x13,x20,x14
    342c:	00d9e633          	or	x12,x19,x13
    3430:	800000b7          	lui	x1,0x80000
    3434:	001662b3          	or	x5,x12,x1
    3438:	00912423          	sw	x9,8(x2)
    343c:	41001ab7          	lui	x21,0x41001
    3440:	01092903          	lw	x18,16(x18)
    3444:	01042403          	lw	x8,16(x8)
    3448:	000005b7          	lui	x11,0x0
    344c:	d05aa623          	sw	x5,-756(x21) # 41000d0c <.L2120+0x40ff3330>
    3450:	0005a503          	lw	x10,0(x11) # 0 <_Z21hb_tiled_foreach_implIfZL26convolution_backward_inputP11hb_tensor_tS1_S1_P11hb_vector_tS3_EUlvE_JEEvjjT0_8HBTensorIT_Lln1EEPS7_.isra.0>
    3454:	02000313          	li	x6,32
    3458:	00757f93          	andi	x31,x10,7
    345c:	00355e13          	srli	x28,x10,0x3
    3460:	00fe7393          	andi	x7,x28,15
    3464:	002f9893          	slli	x17,x31,0x2
    3468:	01f88bb3          	add	x23,x17,x31
    346c:	00339b13          	slli	x22,x7,0x3
    3470:	407b0833          	sub	x16,x22,x7
    3474:	005b8f13          	addi	x30,x23,5
    3478:	00281c13          	slli	x24,x16,0x2
    347c:	01712e23          	sw	x23,28(x2)
    3480:	03e12023          	sw	x30,32(x2)
    3484:	407c0cb3          	sub	x25,x24,x7
    3488:	01e37663          	bgeu	x6,x30,3494 <.L612>
    348c:	02000e93          	li	x29,32
    3490:	03d12023          	sw	x29,32(x2)

00003494 <.L612>:
    3494:	06c00d13          	li	x26,108
    3498:	03a38db3          	mul	x27,x7,x26
    349c:	01c12983          	lw	x19,28(x2)
    34a0:	00812683          	lw	x13,8(x2)
    34a4:	00539a13          	slli	x20,x7,0x5
    34a8:	02012883          	lw	x17,32(x2)
    34ac:	013a0733          	add	x14,x20,x19
    34b0:	07810a93          	addi	x21,x2,120
    34b4:	00018e37          	lui	x28,0x18
    34b8:	00771093          	slli	x1,x14,0x7
    34bc:	00a39793          	slli	x15,x7,0xa
    34c0:	40d90633          	sub	x12,x18,x13
    34c4:	415d85b3          	sub	x11,x27,x21
    34c8:	008e0393          	addi	x7,x28,8 # 18008 <.L2120+0xa62c>
    34cc:	00160533          	add	x10,x12,x1
    34d0:	00571293          	slli	x5,x14,0x5
    34d4:	00868493          	addi	x9,x13,8 # 8 <_Z21hb_tiled_foreach_implIfZL26convolution_backward_inputP11hb_tensor_tS1_S1_P11hb_vector_tS3_EUlvE_JEEvjjT0_8HBTensorIT_Lln1EEPS7_.isra.0+0x8>
    34d8:	40f00333          	neg	x6,x15
    34dc:	00768fb3          	add	x31,x13,x7
    34e0:	00858433          	add	x8,x11,x8
    34e4:	009c8b13          	addi	x22,x25,9 # 3f000009 <.L2120+0x3eff262d>
    34e8:	fff88813          	addi	x16,x17,-1
    34ec:	02512223          	sw	x5,36(x2)
    34f0:	02912423          	sw	x9,40(x2)
    34f4:	02a12623          	sw	x10,44(x2)
    34f8:	02612823          	sw	x6,48(x2)
    34fc:	03f12c23          	sw	x31,56(x2)
    3500:	02812a23          	sw	x8,52(x2)
    3504:	03612e23          	sw	x22,60(x2)
    3508:	01012623          	sw	x16,12(x2)
    350c:	00200093          	li	x1,2

00003510 <.L634>:
    3510:	03412c03          	lw	x24,52(x2)
    3514:	03012f03          	lw	x30,48(x2)
    3518:	02c12c83          	lw	x25,44(x2)
    351c:	01812c23          	sw	x24,24(x2)
    3520:	03c12b83          	lw	x23,60(x2)
    3524:	02812c03          	lw	x24,40(x2)
    3528:	01e12a23          	sw	x30,20(x2)
    352c:	01912823          	sw	x25,16(x2)
    3530:	00000b13          	li	x22,0
    3534:	01f00913          	li	x18,31

00003538 <.L617>:
    3538:	01812703          	lw	x14,24(x2)
    353c:	ff7b8a13          	addi	x20,x23,-9
    3540:	07810993          	addi	x19,x2,120

00003544 <.L614>:
    3544:	00098d93          	mv	x27,x19
    3548:	00c98e93          	addi	x29,x19,12

0000354c <.L613>:
    354c:	01b70d33          	add	x26,x14,x27
    3550:	000d2787          	flw	f15,0(x26) # fc0000 <.L2120+0xfb2624>
    3554:	004d8d93          	addi	x27,x27,4
    3558:	fefdae27          	fsw	f15,-4(x27)
    355c:	ffdd98e3          	bne	x27,x29,354c <.L613>
    3560:	003a0a13          	addi	x20,x20,3 # 3 <_Z21hb_tiled_foreach_implIfZL26convolution_backward_inputP11hb_tensor_tS1_S1_P11hb_vector_tS3_EUlvE_JEEvjjT0_8HBTensorIT_Lln1EEPS7_.isra.0+0x3>
    3564:	01498993          	addi	x19,x19,20
    3568:	ff870713          	addi	x14,x14,-8 # fffffff8 <.L2120+0xffff261c>
    356c:	fd7a1ce3          	bne	x20,x23,3544 <.L614>
    3570:	01c12683          	lw	x13,28(x2)
    3574:	02012603          	lw	x12,32(x2)
    3578:	1ac6f463          	bgeu	x13,x12,3720 <.L632>
    357c:	01c12783          	lw	x15,28(x2)
    3580:	01412483          	lw	x9,20(x2)
    3584:	01012383          	lw	x7,16(x2)
    3588:	02412283          	lw	x5,36(x2)
    358c:	fff78313          	addi	x6,x15,-1
    3590:	fe048e13          	addi	x28,x9,-32
    3594:	003b0d13          	addi	x26,x22,3
    3598:	00300893          	li	x17,3

0000359c <.L633>:
    359c:	00030e93          	mv	x29,x6
    35a0:	005e0f33          	add	x30,x28,x5
    35a4:	00130313          	addi	x6,x6,1
    35a8:	00000713          	li	x14,0

000035ac <.L624>:
    35ac:	00812583          	lw	x11,8(x2)
    35b0:	002f1a93          	slli	x21,x30,0x2
    35b4:	00271513          	slli	x10,x14,0x2
    35b8:	00ba8cb3          	add	x25,x21,x11
    35bc:	fff00613          	li	x12,-1
    35c0:	00000793          	li	x15,0
    35c4:	01d70fb3          	add	x31,x14,x29
    35c8:	00e50db3          	add	x27,x10,x14

000035cc <.L622>:
    35cc:	f0000053          	fmv.w.x	f0,x0
    35d0:	03f96463          	bltu	x18,x31,35f8 <.L618>
    35d4:	00fd8433          	add	x8,x27,x15
    35d8:	00241a13          	slli	x20,x8,0x2
    35dc:	00261813          	slli	x16,x12,0x2
    35e0:	14010993          	addi	x19,x2,320
    35e4:	fff00a93          	li	x21,-1
    35e8:	014986b3          	add	x13,x19,x20
    35ec:	019804b3          	add	x9,x16,x25
    35f0:	37560c63          	beq	x12,x21,3968 <.L619>
    35f4:	0004a007          	flw	f0,0(x9)

000035f8 <.L618>:
    35f8:	00fd8533          	add	x10,x27,x15
    35fc:	00251593          	slli	x11,x10,0x2
    3600:	14010413          	addi	x8,x2,320
    3604:	00b40a33          	add	x20,x8,x11
    3608:	f80a2e27          	fsw	f0,-100(x20)
    360c:	00178663          	beq	x15,x1,3618 <.L668>

00003610 <.L652>:
    3610:	00178793          	addi	x15,x15,1
    3614:	0080006f          	j	361c <.L620>

00003618 <.L668>:
    3618:	00000793          	li	x15,0

0000361c <.L620>:
    361c:	00160613          	addi	x12,x12,1
    3620:	fa1616e3          	bne	x12,x1,35cc <.L622>
    3624:	00170713          	addi	x14,x14,1
    3628:	020f0f13          	addi	x30,x30,32
    362c:	f91710e3          	bne	x14,x17,35ac <.L624>
    3630:	000c0d93          	mv	x27,x24
    3634:	00000513          	li	x10,0
    3638:	00000593          	li	x11,0
    363c:	ff838413          	addi	x8,x7,-8
    3640:	003e8993          	addi	x19,x29,3 # 3 <_Z21hb_tiled_foreach_implIfZL26convolution_backward_inputP11hb_tensor_tS1_S1_P11hb_vector_tS3_EUlvE_JEEvjjT0_8HBTensorIT_Lln1EEPS7_.isra.0+0x3>

00003644 <.L623>:
    3644:	01b404b3          	add	x9,x8,x27
    3648:	0004a087          	flw	f1,0(x9)
    364c:	07810f13          	addi	x30,x2,120
    3650:	00000793          	li	x15,0

00003654 <.L630>:
    3654:	00279c93          	slli	x25,x15,0x2
    3658:	00fb0833          	add	x16,x22,x15
    365c:	000f0f93          	mv	x31,x30
    3660:	00050693          	mv	x13,x10
    3664:	00fc8a33          	add	x20,x25,x15
    3668:	00fd0ab3          	add	x21,x26,x15

0000366c <.L629>:
    366c:	00da0633          	add	x12,x20,x13
    3670:	00261713          	slli	x14,x12,0x2
    3674:	14010c93          	addi	x25,x2,320
    3678:	00ec8633          	add	x12,x25,x14
    367c:	00081463          	bnez	x16,3684 <.L627>
    3680:	f00000d3          	fmv.w.x	f1,x0

00003684 <.L627>:
    3684:	000fa707          	flw	f14,0(x31)
    3688:	f9c62687          	flw	f13,-100(x12)
    368c:	08e6f0c3          	fmadd.s	f1,f13,f14,f1
    3690:	2e168663          	beq	x13,x1,397c <.L673>
    3694:	00168693          	addi	x13,x13,1

00003698 <.L628>:
    3698:	00180813          	addi	x16,x16,1 # 1 <_Z21hb_tiled_foreach_implIfZL26convolution_backward_inputP11hb_tensor_tS1_S1_P11hb_vector_tS3_EUlvE_JEEvjjT0_8HBTensorIT_Lln1EEPS7_.isra.0+0x1>
    369c:	004f8f93          	addi	x31,x31,4
    36a0:	fd5816e3          	bne	x16,x21,366c <.L629>
    36a4:	00178793          	addi	x15,x15,1
    36a8:	014f0f13          	addi	x30,x30,20
    36ac:	fb1794e3          	bne	x15,x17,3654 <.L630>
    36b0:	0014a027          	fsw	f1,0(x9)
    36b4:	02000513          	li	x10,32
    36b8:	00158493          	addi	x9,x11,1
    36bc:	04a48a63          	beq	x9,x10,3710 <.L701>
    36c0:	0315fa33          	remu	x20,x11,x17
    36c4:	0dc10c93          	addi	x25,x2,220
    36c8:	000e8713          	mv	x14,x29
    36cc:	0314f533          	remu	x10,x9,x17
    36d0:	002a1a93          	slli	x21,x20,0x2
    36d4:	015c8fb3          	add	x31,x25,x21

000036d8 <.L626>:
    36d8:	f0000153          	fmv.w.x	f2,x0
    36dc:	00e96c63          	bltu	x18,x14,36f4 <.L625>
    36e0:	00771613          	slli	x12,x14,0x7
    36e4:	01e00813          	li	x16,30
    36e8:	01b606b3          	add	x13,x12,x27
    36ec:	01058463          	beq	x11,x16,36f4 <.L625>
    36f0:	0006a107          	flw	f2,0(x13)

000036f4 <.L625>:
    36f4:	00170713          	addi	x14,x14,1
    36f8:	002fa027          	fsw	f2,0(x31)
    36fc:	014f8f93          	addi	x31,x31,20
    3700:	fce99ce3          	bne	x19,x14,36d8 <.L626>
    3704:	004d8d93          	addi	x27,x27,4
    3708:	00048593          	mv	x11,x9
    370c:	f39ff06f          	j	3644 <.L623>

00003710 <.L701>:
    3710:	00c12e83          	lw	x29,12(x2)
    3714:	02028293          	addi	x5,x5,32
    3718:	08038393          	addi	x7,x7,128
    371c:	e86e90e3          	bne	x29,x6,359c <.L633>

00003720 <.L632>:
    3720:	01012883          	lw	x17,16(x2)
    3724:	01412d83          	lw	x27,20(x2)
    3728:	01812403          	lw	x8,24(x2)
    372c:	00001e37          	lui	x28,0x1
    3730:	41c88333          	sub	x6,x17,x28
    3734:	400d8593          	addi	x11,x27,1024
    3738:	02440993          	addi	x19,x8,36
    373c:	001b0b13          	addi	x22,x22,1
    3740:	00300d13          	li	x26,3
    3744:	00612823          	sw	x6,16(x2)
    3748:	00b12a23          	sw	x11,20(x2)
    374c:	01312c23          	sw	x19,24(x2)
    3750:	01cc0c33          	add	x24,x24,x28
    3754:	009b8b93          	addi	x23,x23,9
    3758:	dfab10e3          	bne	x22,x26,3538 <.L617>
    375c:	02812783          	lw	x15,40(x2)
    3760:	02412503          	lw	x10,36(x2)
    3764:	02c12c83          	lw	x25,44(x2)
    3768:	03012703          	lw	x14,48(x2)
    376c:	ffffd6b7          	lui	x13,0xffffd
    3770:	00003937          	lui	x18,0x3
    3774:	000044b7          	lui	x9,0x4
    3778:	0000dab7          	lui	x21,0xd
    377c:	c0068813          	addi	x16,x13,-1024 # ffffcc00 <.L2120+0xfffef224>
    3780:	03812283          	lw	x5,56(x2)
    3784:	01278f33          	add	x30,x15,x18
    3788:	00950a33          	add	x20,x10,x9
    378c:	015c8633          	add	x12,x25,x21
    3790:	01070fb3          	add	x31,x14,x16
    3794:	03e12423          	sw	x30,40(x2)
    3798:	03412223          	sw	x20,36(x2)
    379c:	02c12623          	sw	x12,44(x2)
    37a0:	03f12823          	sw	x31,48(x2)
    37a4:	d65f16e3          	bne	x30,x5,3510 <.L634>
    37a8:	00000c37          	lui	x24,0x0
    37ac:	00000eb7          	lui	x29,0x0
    37b0:	000000b7          	lui	x1,0x0
    37b4:	00000b37          	lui	x22,0x0
    37b8:	0000a383          	lw	x7,0(x1) # 0 <_Z21hb_tiled_foreach_implIfZL26convolution_backward_inputP11hb_tensor_tS1_S1_P11hb_vector_tS3_EUlvE_JEEvjjT0_8HBTensorIT_Lln1EEPS7_.isra.0>
    37bc:	000eae03          	lw	x28,0(x29) # 0 <_Z21hb_tiled_foreach_implIfZL26convolution_backward_inputP11hb_tensor_tS1_S1_P11hb_vector_tS3_EUlvE_JEEvjjT0_8HBTensorIT_Lln1EEPS7_.isra.0>
    37c0:	000b2d03          	lw	x26,0(x22) # 0 <_Z21hb_tiled_foreach_implIfZL26convolution_backward_inputP11hb_tensor_tS1_S1_P11hb_vector_tS3_EUlvE_JEEvjjT0_8HBTensorIT_Lln1EEPS7_.isra.0>
    37c4:	000c2883          	lw	x17,0(x24) # 0 <_Z21hb_tiled_foreach_implIfZL26convolution_backward_inputP11hb_tensor_tS1_S1_P11hb_vector_tS3_EUlvE_JEEvjjT0_8HBTensorIT_Lln1EEPS7_.isra.0>
    37c8:	00000337          	lui	x6,0x0
    37cc:	00032d83          	lw	x27,0(x6) # 0 <_Z21hb_tiled_foreach_implIfZL26convolution_backward_inputP11hb_tensor_tS1_S1_P11hb_vector_tS3_EUlvE_JEEvjjT0_8HBTensorIT_Lln1EEPS7_.isra.0>
    37d0:	01c385b3          	add	x11,x7,x28
    37d4:	011d0bb3          	add	x23,x26,x17
    37d8:	01859413          	slli	x8,x11,0x18
    37dc:	012b9993          	slli	x19,x23,0x12
    37e0:	3f000937          	lui	x18,0x3f000
    37e4:	00fc0f37          	lui	x30,0xfc0
    37e8:	00040ab7          	lui	x21,0x40
    37ec:	004d9513          	slli	x10,x27,0x4
    37f0:	012477b3          	and	x15,x8,x18
    37f4:	01e9f4b3          	and	x9,x19,x30
    37f8:	ff0a8c93          	addi	x25,x21,-16 # 3fff0 <.L2120+0x32614>
    37fc:	01957633          	and	x12,x10,x25
    3800:	0097ea33          	or	x20,x15,x9
    3804:	00ca66b3          	or	x13,x20,x12
    3808:	c0000837          	lui	x16,0xc0000
    380c:	0106efb3          	or	x31,x13,x16
    3810:	41001737          	lui	x14,0x41001
    3814:	d1f72623          	sw	x31,-756(x14) # 41000d0c <.L2120+0x40ff3330>
    3818:	000c2083          	lw	x1,0(x24)
    381c:	000ea383          	lw	x7,0(x29)
    3820:	00000537          	lui	x10,0x0
    3824:	00408e93          	addi	x29,x1,4
    3828:	00050693          	mv	x13,x10
    382c:	01d68e33          	add	x28,x13,x29
    3830:	01839b13          	slli	x22,x7,0x18
    3834:	000c0293          	mv	x5,x24
    3838:	016e6d33          	or	x26,x28,x22
    383c:	201c0c37          	lui	x24,0x201c0
    3840:	018d68b3          	or	x17,x26,x24
    3844:	00100313          	li	x6,1
    3848:	00688023          	sb	x6,0(x17)
    384c:	0002ad83          	lw	x27,0(x5)
    3850:	00700593          	li	x11,7
    3854:	02bd8863          	beq	x27,x11,3884 <.L702>

00003858 <.L636>:
    3858:	00100a93          	li	x21,1
    385c:	0100006f          	j	386c <.L649>

00003860 <.L703>:
    3860:	00050813          	mv	x16,x10
    3864:	14082faf          	lr.w.aq	x31,(x16)
    3868:	015f8863          	beq	x31,x21,3878 <.L648>

0000386c <.L649>:
    386c:	00050c93          	mv	x25,x10
    3870:	100ca62f          	lr.w	x12,(x25)
    3874:	ff5616e3          	bne	x12,x21,3860 <.L703>

00003878 <.L648>:
    3878:	0006a023          	sw	x0,0(x13)
    387c:	00000513          	li	x10,0
    3880:	fd8ff06f          	j	3058 <.L592>

00003884 <.L702>:
    3884:	00000bb7          	lui	x23,0x0
    3888:	000009b7          	lui	x19,0x0
    388c:	004b8413          	addi	x8,x23,4 # 4 <_Z21hb_tiled_foreach_implIfZL26convolution_backward_inputP11hb_tensor_tS1_S1_P11hb_vector_tS3_EUlvE_JEEvjjT0_8HBTensorIT_Lln1EEPS7_.isra.0+0x4>
    3890:	01498913          	addi	x18,x19,20 # 14 <.L8>

00003894 <.L635>:
    3894:	00040793          	mv	x15,x8

00003898 <.L638>:
    3898:	0007cf03          	lbu	x30,0(x15)
    389c:	00178793          	addi	x15,x15,1
    38a0:	0fff7493          	andi	x9,x30,255
    38a4:	fe0488e3          	beqz	x9,3894 <.L635>
    38a8:	fef918e3          	bne	x18,x15,3898 <.L638>
    38ac:	00000a37          	lui	x20,0x0
    38b0:	000a2a83          	lw	x21,0(x20) # 0 <_Z21hb_tiled_foreach_implIfZL26convolution_backward_inputP11hb_tensor_tS1_S1_P11hb_vector_tS3_EUlvE_JEEvjjT0_8HBTensorIT_Lln1EEPS7_.isra.0>
    38b4:	231c0837          	lui	x16,0x231c0
    38b8:	00100713          	li	x14,1
    38bc:	018a8c93          	addi	x25,x21,24
    38c0:	01968633          	add	x12,x13,x25
    38c4:	01066fb3          	or	x31,x12,x16
    38c8:	00ef8023          	sb	x14,0(x31)
    38cc:	000002b7          	lui	x5,0x0
    38d0:	0002a083          	lw	x1,0(x5) # 0 <_Z21hb_tiled_foreach_implIfZL26convolution_backward_inputP11hb_tensor_tS1_S1_P11hb_vector_tS3_EUlvE_JEEvjjT0_8HBTensorIT_Lln1EEPS7_.isra.0>
    38d4:	00700393          	li	x7,7
    38d8:	f87090e3          	bne	x1,x7,3858 <.L636>
    38dc:	00000eb7          	lui	x29,0x0
    38e0:	000eae03          	lw	x28,0(x29) # 0 <_Z21hb_tiled_foreach_implIfZL26convolution_backward_inputP11hb_tensor_tS1_S1_P11hb_vector_tS3_EUlvE_JEEvjjT0_8HBTensorIT_Lln1EEPS7_.isra.0>
    38e4:	00300b13          	li	x22,3
    38e8:	096e0e63          	beq	x28,x22,3984 <.L704>

000038ec <.L644>:
    38ec:	00100293          	li	x5,1
    38f0:	0100006f          	j	3900 <.L640>

000038f4 <.L705>:
    38f4:	01468e93          	addi	x29,x13,20
    38f8:	140eae2f          	lr.w.aq	x28,(x29)
    38fc:	005e0863          	beq	x28,x5,390c <.L645>

00003900 <.L640>:
    3900:	01468093          	addi	x1,x13,20
    3904:	1000a3af          	lr.w	x7,(x1)
    3908:	fe5396e3          	bne	x7,x5,38f4 <.L705>

0000390c <.L645>:
    390c:	0006aa23          	sw	x0,20(x13)
    3910:	00000c13          	li	x24,0
    3914:	01000b13          	li	x22,16

00003918 <.L646>:
    3918:	01868d33          	add	x26,x13,x24
    391c:	000d0223          	sb	x0,4(x26)
    3920:	001c0c13          	addi	x24,x24,1 # 201c0001 <.L2120+0x201b2625>
    3924:	ff6c1ae3          	bne	x24,x22,3918 <.L646>
    3928:	0006a023          	sw	x0,0(x13)
    392c:	00000f13          	li	x30,0
    3930:	20000337          	lui	x6,0x20000
    3934:	00100893          	li	x17,1
    3938:	00040db7          	lui	x27,0x40
    393c:	00400bb7          	lui	x23,0x400

00003940 <.L647>:
    3940:	000005b7          	lui	x11,0x0
    3944:	0005a403          	lw	x8,0(x11) # 0 <_Z21hb_tiled_foreach_implIfZL26convolution_backward_inputP11hb_tensor_tS1_S1_P11hb_vector_tS3_EUlvE_JEEvjjT0_8HBTensorIT_Lln1EEPS7_.isra.0>
    3948:	01e6e9b3          	or	x19,x13,x30
    394c:	01bf0f33          	add	x30,x30,x27
    3950:	01841493          	slli	x9,x8,0x18
    3954:	0134ea33          	or	x20,x9,x19
    3958:	006a67b3          	or	x15,x20,x6
    395c:	0117a023          	sw	x17,0(x15)
    3960:	ff7f10e3          	bne	x30,x23,3940 <.L647>
    3964:	ef5ff06f          	j	3858 <.L636>

00003968 <.L619>:
    3968:	f806ae23          	sw	x0,-100(x13)
    396c:	ca1792e3          	bne	x15,x1,3610 <.L652>
    3970:	00000793          	li	x15,0
    3974:	00000613          	li	x12,0
    3978:	c55ff06f          	j	35cc <.L622>

0000397c <.L673>:
    397c:	00000693          	li	x13,0
    3980:	d19ff06f          	j	3698 <.L628>

00003984 <.L704>:
    3984:	00000d37          	lui	x26,0x0
    3988:	000008b7          	lui	x17,0x0
    398c:	018d0c13          	addi	x24,x26,24 # 18 <.L8+0x4>
    3990:	02088313          	addi	x6,x17,32 # 20 <.L8+0xc>

00003994 <.L639>:
    3994:	000c0b93          	mv	x23,x24

00003998 <.L641>:
    3998:	000bcd83          	lbu	x27,0(x23) # 400000 <.L2120+0x3f2624>
    399c:	001b8b93          	addi	x23,x23,1
    39a0:	0ffdf593          	andi	x11,x27,255
    39a4:	fe0588e3          	beqz	x11,3994 <.L639>
    39a8:	ff7318e3          	bne	x6,x23,3998 <.L641>
    39ac:	00068c23          	sb	x0,24(x13)
    39b0:	00068ca3          	sb	x0,25(x13)
    39b4:	00068d23          	sb	x0,26(x13)
    39b8:	00068da3          	sb	x0,27(x13)
    39bc:	00068e23          	sb	x0,28(x13)
    39c0:	00068ea3          	sb	x0,29(x13)
    39c4:	00068f23          	sb	x0,30(x13)
    39c8:	00068fa3          	sb	x0,31(x13)
    39cc:	0006aa23          	sw	x0,20(x13)
    39d0:	00000f93          	li	x31,0
    39d4:	03fc0437          	lui	x8,0x3fc0
    39d8:	200009b7          	lui	x19,0x20000
    39dc:	00100f13          	li	x30,1
    39e0:	010004b7          	lui	x9,0x1000
    39e4:	08000a37          	lui	x20,0x8000

000039e8 <.L643>:
    39e8:	01209793          	slli	x15,x1,0x12
    39ec:	01f96ab3          	or	x21,x18,x31
    39f0:	0087fcb3          	and	x25,x15,x8
    39f4:	015ce633          	or	x12,x25,x21
    39f8:	01366833          	or	x16,x12,x19
    39fc:	01e82023          	sw	x30,0(x16) # 231c0000 <.L2120+0x231b2624>
    3a00:	00000737          	lui	x14,0x0
    3a04:	009f8fb3          	add	x31,x31,x9
    3a08:	00072083          	lw	x1,0(x14) # 0 <_Z21hb_tiled_foreach_implIfZL26convolution_backward_inputP11hb_tensor_tS1_S1_P11hb_vector_tS3_EUlvE_JEEvjjT0_8HBTensorIT_Lln1EEPS7_.isra.0>
    3a0c:	fd4f9ee3          	bne	x31,x20,39e8 <.L643>
    3a10:	00700913          	li	x18,7
    3a14:	ed208ce3          	beq	x1,x18,38ec <.L644>
    3a18:	e41ff06f          	j	3858 <.L636>

00003a1c <_ZN12_GLOBAL__N_128convolution_forward_templateILm8ELm128ELm8ELm8ELm64ELm8ELm8ELm3ELm3ELm1ELm1ELm1ELm1EEEiP11hb_tensor_tS2_S2_P11hb_vector_tS4_>:
    3a1c:	e7010113          	addi	x2,x2,-400
    3a20:	19212023          	sw	x18,384(x2)
    3a24:	00050913          	mv	x18,x10
    3a28:	18912223          	sw	x9,388(x2)
    3a2c:	05410513          	addi	x10,x2,84
    3a30:	00058493          	mv	x9,x11
    3a34:	00090593          	mv	x11,x18
    3a38:	18112623          	sw	x1,396(x2)
    3a3c:	18812423          	sw	x8,392(x2)
    3a40:	17312e23          	sw	x19,380(x2)
    3a44:	00060413          	mv	x8,x12
    3a48:	00070993          	mv	x19,x14
    3a4c:	17412c23          	sw	x20,376(x2)
    3a50:	17712623          	sw	x23,364(x2)
    3a54:	00068a13          	mv	x20,x13
    3a58:	17512a23          	sw	x21,372(x2)
    3a5c:	17612823          	sw	x22,368(x2)
    3a60:	17812423          	sw	x24,360(x2)
    3a64:	17912223          	sw	x25,356(x2)
    3a68:	17a12023          	sw	x26,352(x2)
    3a6c:	15b12e23          	sw	x27,348(x2)
    3a70:	08810b93          	addi	x23,x2,136
    3a74:	00000097          	auipc	x1,0x0
    3a78:	000080e7          	jalr	x1 # 3a74 <_ZN12_GLOBAL__N_128convolution_forward_templateILm8ELm128ELm8ELm8ELm64ELm8ELm8ELm3ELm3ELm1ELm1ELm1ELm1EEEiP11hb_tensor_tS2_S2_P11hb_vector_tS4_+0x58>
    3a7c:	00048593          	mv	x11,x9
    3a80:	000b8513          	mv	x10,x23
    3a84:	00000097          	auipc	x1,0x0
    3a88:	000080e7          	jalr	x1 # 3a84 <_ZN12_GLOBAL__N_128convolution_forward_templateILm8ELm128ELm8ELm8ELm64ELm8ELm8ELm3ELm3ELm1ELm1ELm1ELm1EEEiP11hb_tensor_tS2_S2_P11hb_vector_tS4_+0x68>
    3a8c:	00040593          	mv	x11,x8
    3a90:	0ec10513          	addi	x10,x2,236
    3a94:	00000097          	auipc	x1,0x0
    3a98:	000080e7          	jalr	x1 # 3a94 <_ZN12_GLOBAL__N_128convolution_forward_templateILm8ELm128ELm8ELm8ELm64ELm8ELm8ELm3ELm3ELm1ELm1ELm1ELm1EEEiP11hb_tensor_tS2_S2_P11hb_vector_tS4_+0x78>
    3a9c:	05812783          	lw	x15,88(x2)
    3aa0:	10078e63          	beqz	x15,3bbc <.L807>
    3aa4:	00100713          	li	x14,1
    3aa8:	0cf77063          	bgeu	x14,x15,3b68 <.L808>
    3aac:	00200693          	li	x13,2
    3ab0:	1ad78a63          	beq	x15,x13,3c64 <.L809>
    3ab4:	00300613          	li	x12,3
    3ab8:	20c78063          	beq	x15,x12,3cb8 <.L810>
    3abc:	08c12083          	lw	x1,140(x2)
    3ac0:	14177863          	bgeu	x14,x1,3c10 <.L811>
    3ac4:	28d08e63          	beq	x1,x13,3d60 <.L812>
    3ac8:	2ec08663          	beq	x1,x12,3db4 <.L813>
    3acc:	0f012283          	lw	x5,240(x2)
    3ad0:	2256fe63          	bgeu	x13,x5,3d0c <.L814>
    3ad4:	32c28a63          	beq	x5,x12,3e08 <.L815>
    3ad8:	06012583          	lw	x11,96(x2)
    3adc:	004a2503          	lw	x10,4(x20) # 8000004 <.L2120+0x7ff2628>
    3ae0:	09412a83          	lw	x21,148(x2)
    3ae4:	0049a883          	lw	x17,4(x19) # 20000004 <.L2120+0x1fff2628>
    3ae8:	0f812303          	lw	x6,248(x2)
    3aec:	0005a383          	lw	x7,0(x11)
    3af0:	00800f93          	li	x31,8
    3af4:	00052983          	lw	x19,0(x10) # 0 <_Z21hb_tiled_foreach_implIfZL26convolution_backward_inputP11hb_tensor_tS1_S1_P11hb_vector_tS3_EUlvE_JEEvjjT0_8HBTensorIT_Lln1EEPS7_.isra.0>
    3af8:	00452783          	lw	x15,4(x10)
    3afc:	0045ab03          	lw	x22,4(x11)
    3b00:	0085a803          	lw	x16,8(x11)
    3b04:	00c5ac03          	lw	x24,12(x11)
    3b08:	004aaf03          	lw	x30,4(x21)
    3b0c:	008aac83          	lw	x25,8(x21)
    3b10:	00caae83          	lw	x29,12(x21)
    3b14:	00832d03          	lw	x26,8(x6) # 20000008 <.L2120+0x1fff262c>
    3b18:	00c32e03          	lw	x28,12(x6)
    3b1c:	0008ad83          	lw	x27,0(x17)
    3b20:	0048aa03          	lw	x20,4(x17)
    3b24:	fff00513          	li	x10,-1
    3b28:	33f38a63          	beq	x7,x31,3e5c <.L816>

00003b2c <.L706>:
    3b2c:	18c12083          	lw	x1,396(x2)
    3b30:	18812403          	lw	x8,392(x2)
    3b34:	18412483          	lw	x9,388(x2)
    3b38:	18012903          	lw	x18,384(x2)
    3b3c:	17c12983          	lw	x19,380(x2)
    3b40:	17812a03          	lw	x20,376(x2)
    3b44:	17412a83          	lw	x21,372(x2)
    3b48:	17012b03          	lw	x22,368(x2)
    3b4c:	16c12b83          	lw	x23,364(x2)
    3b50:	16812c03          	lw	x24,360(x2)
    3b54:	16412c83          	lw	x25,356(x2)
    3b58:	16012d03          	lw	x26,352(x2)
    3b5c:	15c12d83          	lw	x27,348(x2)
    3b60:	19010113          	addi	x2,x2,400
    3b64:	00008067          	ret

00003b68 <.L808>:
    3b68:	000007b7          	lui	x15,0x0
    3b6c:	00000db7          	lui	x27,0x0
    3b70:	06f00613          	li	x12,111
    3b74:	000d8593          	mv	x11,x27
    3b78:	00078513          	mv	x10,x15
    3b7c:	00000097          	auipc	x1,0x0
    3b80:	000080e7          	jalr	x1 # 3b7c <.L808+0x14>
    3b84:	05812583          	lw	x11,88(x2)
    3b88:	00000f37          	lui	x30,0x0
    3b8c:	000f0513          	mv	x10,x30
    3b90:	00000937          	lui	x18,0x0
    3b94:	00000097          	auipc	x1,0x0
    3b98:	000080e7          	jalr	x1 # 3b94 <.L808+0x2c>
    3b9c:	00000cb7          	lui	x25,0x0
    3ba0:	00092a83          	lw	x21,0(x18) # 0 <_Z21hb_tiled_foreach_implIfZL26convolution_backward_inputP11hb_tensor_tS1_S1_P11hb_vector_tS3_EUlvE_JEEvjjT0_8HBTensorIT_Lln1EEPS7_.isra.0>
    3ba4:	000ca803          	lw	x16,0(x25) # 0 <_Z21hb_tiled_foreach_implIfZL26convolution_backward_inputP11hb_tensor_tS1_S1_P11hb_vector_tS3_EUlvE_JEEvjjT0_8HBTensorIT_Lln1EEPS7_.isra.0>
    3ba8:	4100f3b7          	lui	x7,0x4100f
    3bac:	010a9613          	slli	x12,x21,0x10
    3bb0:	01060fb3          	add	x31,x12,x16
    3bb4:	adf3ac23          	sw	x31,-1320(x7) # 4100ead8 <.L2120+0x410010fc>

00003bb8 <.L710>:
    3bb8:	0000006f          	j	3bb8 <.L710>

00003bbc <.L807>:
    3bbc:	000000b7          	lui	x1,0x0
    3bc0:	00000737          	lui	x14,0x0
    3bc4:	00008593          	mv	x11,x1
    3bc8:	06f00613          	li	x12,111
    3bcc:	00070513          	mv	x10,x14
    3bd0:	00000097          	auipc	x1,0x0
    3bd4:	000080e7          	jalr	x1 # 3bd0 <.L807+0x14>
    3bd8:	05812583          	lw	x11,88(x2)
    3bdc:	000002b7          	lui	x5,0x0
    3be0:	00028513          	mv	x10,x5
    3be4:	00000097          	auipc	x1,0x0
    3be8:	000080e7          	jalr	x1 # 3be4 <.L807+0x28>
    3bec:	00000337          	lui	x6,0x0
    3bf0:	00032503          	lw	x10,0(x6) # 0 <_Z21hb_tiled_foreach_implIfZL26convolution_backward_inputP11hb_tensor_tS1_S1_P11hb_vector_tS3_EUlvE_JEEvjjT0_8HBTensorIT_Lln1EEPS7_.isra.0>
    3bf4:	000006b7          	lui	x13,0x0
    3bf8:	0006ac03          	lw	x24,0(x13) # 0 <_Z21hb_tiled_foreach_implIfZL26convolution_backward_inputP11hb_tensor_tS1_S1_P11hb_vector_tS3_EUlvE_JEEvjjT0_8HBTensorIT_Lln1EEPS7_.isra.0>
    3bfc:	01051993          	slli	x19,x10,0x10
    3c00:	4100fbb7          	lui	x23,0x4100f
    3c04:	01898b33          	add	x22,x19,x24
    3c08:	ad6bac23          	sw	x22,-1320(x23) # 4100ead8 <.L2120+0x410010fc>

00003c0c <.L708>:
    3c0c:	0000006f          	j	3c0c <.L708>

00003c10 <.L811>:
    3c10:	00000d37          	lui	x26,0x0
    3c14:	00000437          	lui	x8,0x0
    3c18:	06f00613          	li	x12,111
    3c1c:	000d0593          	mv	x11,x26
    3c20:	00040513          	mv	x10,x8
    3c24:	00000097          	auipc	x1,0x0
    3c28:	000080e7          	jalr	x1 # 3c24 <.L811+0x14>
    3c2c:	08c12583          	lw	x11,140(x2)
    3c30:	00000db7          	lui	x27,0x0
    3c34:	000d8513          	mv	x10,x27
    3c38:	00000097          	auipc	x1,0x0
    3c3c:	000080e7          	jalr	x1 # 3c38 <.L811+0x28>
    3c40:	000007b7          	lui	x15,0x0
    3c44:	0007af03          	lw	x30,0(x15) # 0 <_Z21hb_tiled_foreach_implIfZL26convolution_backward_inputP11hb_tensor_tS1_S1_P11hb_vector_tS3_EUlvE_JEEvjjT0_8HBTensorIT_Lln1EEPS7_.isra.0>
    3c48:	00000937          	lui	x18,0x0
    3c4c:	00092a83          	lw	x21,0(x18) # 0 <_Z21hb_tiled_foreach_implIfZL26convolution_backward_inputP11hb_tensor_tS1_S1_P11hb_vector_tS3_EUlvE_JEEvjjT0_8HBTensorIT_Lln1EEPS7_.isra.0>
    3c50:	010f1c93          	slli	x25,x30,0x10
    3c54:	4100f637          	lui	x12,0x4100f
    3c58:	015c8833          	add	x16,x25,x21
    3c5c:	ad062c23          	sw	x16,-1320(x12) # 4100ead8 <.L2120+0x410010fc>

00003c60 <.L716>:
    3c60:	0000006f          	j	3c60 <.L716>

00003c64 <.L809>:
    3c64:	00000b37          	lui	x22,0x0
    3c68:	00000bb7          	lui	x23,0x0
    3c6c:	06f00613          	li	x12,111
    3c70:	000b0593          	mv	x11,x22
    3c74:	000b8513          	mv	x10,x23
    3c78:	00000097          	auipc	x1,0x0
    3c7c:	000080e7          	jalr	x1 # 3c78 <.L809+0x14>
    3c80:	05812583          	lw	x11,88(x2)
    3c84:	00000e37          	lui	x28,0x0
    3c88:	000e0513          	mv	x10,x28
    3c8c:	00000097          	auipc	x1,0x0
    3c90:	000080e7          	jalr	x1 # 3c8c <.L809+0x28>
    3c94:	000008b7          	lui	x17,0x0
    3c98:	0008ae83          	lw	x29,0(x17) # 0 <_Z21hb_tiled_foreach_implIfZL26convolution_backward_inputP11hb_tensor_tS1_S1_P11hb_vector_tS3_EUlvE_JEEvjjT0_8HBTensorIT_Lln1EEPS7_.isra.0>
    3c9c:	000005b7          	lui	x11,0x0
    3ca0:	0005aa03          	lw	x20,0(x11) # 0 <_Z21hb_tiled_foreach_implIfZL26convolution_backward_inputP11hb_tensor_tS1_S1_P11hb_vector_tS3_EUlvE_JEEvjjT0_8HBTensorIT_Lln1EEPS7_.isra.0>
    3ca4:	010e9493          	slli	x9,x29,0x10
    3ca8:	4100f437          	lui	x8,0x4100f
    3cac:	01448d33          	add	x26,x9,x20
    3cb0:	ada42c23          	sw	x26,-1320(x8) # 4100ead8 <.L2120+0x410010fc>

00003cb4 <.L712>:
    3cb4:	0000006f          	j	3cb4 <.L712>

00003cb8 <.L810>:
    3cb8:	000000b7          	lui	x1,0x0
    3cbc:	00000fb7          	lui	x31,0x0
    3cc0:	00008593          	mv	x11,x1
    3cc4:	06f00613          	li	x12,111
    3cc8:	000f8513          	mv	x10,x31
    3ccc:	00000097          	auipc	x1,0x0
    3cd0:	000080e7          	jalr	x1 # 3ccc <.L810+0x14>
    3cd4:	05812583          	lw	x11,88(x2)
    3cd8:	000003b7          	lui	x7,0x0
    3cdc:	00038513          	mv	x10,x7
    3ce0:	00000097          	auipc	x1,0x0
    3ce4:	000080e7          	jalr	x1 # 3ce0 <.L810+0x28>
    3ce8:	00000737          	lui	x14,0x0
    3cec:	00072283          	lw	x5,0(x14) # 0 <_Z21hb_tiled_foreach_implIfZL26convolution_backward_inputP11hb_tensor_tS1_S1_P11hb_vector_tS3_EUlvE_JEEvjjT0_8HBTensorIT_Lln1EEPS7_.isra.0>
    3cf0:	00000337          	lui	x6,0x0
    3cf4:	00032503          	lw	x10,0(x6) # 0 <_Z21hb_tiled_foreach_implIfZL26convolution_backward_inputP11hb_tensor_tS1_S1_P11hb_vector_tS3_EUlvE_JEEvjjT0_8HBTensorIT_Lln1EEPS7_.isra.0>
    3cf8:	01029693          	slli	x13,x5,0x10
    3cfc:	4100f9b7          	lui	x19,0x4100f
    3d00:	00a68c33          	add	x24,x13,x10
    3d04:	ad89ac23          	sw	x24,-1320(x19) # 4100ead8 <.L2120+0x410010fc>

00003d08 <.L714>:
    3d08:	0000006f          	j	3d08 <.L714>

00003d0c <.L814>:
    3d0c:	00000a37          	lui	x20,0x0
    3d10:	000004b7          	lui	x9,0x0
    3d14:	06f00613          	li	x12,111
    3d18:	000a0593          	mv	x11,x20
    3d1c:	00048513          	mv	x10,x9
    3d20:	00000097          	auipc	x1,0x0
    3d24:	000080e7          	jalr	x1 # 3d20 <.L814+0x14>
    3d28:	0f012583          	lw	x11,240(x2)
    3d2c:	00000d37          	lui	x26,0x0
    3d30:	000d0513          	mv	x10,x26
    3d34:	00000097          	auipc	x1,0x0
    3d38:	000080e7          	jalr	x1 # 3d34 <.L814+0x28>
    3d3c:	00000437          	lui	x8,0x0
    3d40:	00042d83          	lw	x27,0(x8) # 0 <_Z21hb_tiled_foreach_implIfZL26convolution_backward_inputP11hb_tensor_tS1_S1_P11hb_vector_tS3_EUlvE_JEEvjjT0_8HBTensorIT_Lln1EEPS7_.isra.0>
    3d44:	000007b7          	lui	x15,0x0
    3d48:	0007af03          	lw	x30,0(x15) # 0 <_Z21hb_tiled_foreach_implIfZL26convolution_backward_inputP11hb_tensor_tS1_S1_P11hb_vector_tS3_EUlvE_JEEvjjT0_8HBTensorIT_Lln1EEPS7_.isra.0>
    3d4c:	010d9913          	slli	x18,x27,0x10
    3d50:	4100fcb7          	lui	x25,0x4100f
    3d54:	01e90ab3          	add	x21,x18,x30
    3d58:	ad5cac23          	sw	x21,-1320(x25) # 4100ead8 <.L2120+0x410010fc>

00003d5c <.L722>:
    3d5c:	0000006f          	j	3d5c <.L722>

00003d60 <.L812>:
    3d60:	00000c37          	lui	x24,0x0
    3d64:	000009b7          	lui	x19,0x0
    3d68:	06f00613          	li	x12,111
    3d6c:	000c0593          	mv	x11,x24
    3d70:	00098513          	mv	x10,x19
    3d74:	00000097          	auipc	x1,0x0
    3d78:	000080e7          	jalr	x1 # 3d74 <.L812+0x14>
    3d7c:	08c12583          	lw	x11,140(x2)
    3d80:	00000b37          	lui	x22,0x0
    3d84:	000b0513          	mv	x10,x22
    3d88:	00000097          	auipc	x1,0x0
    3d8c:	000080e7          	jalr	x1 # 3d88 <.L812+0x28>
    3d90:	00000bb7          	lui	x23,0x0
    3d94:	000bae03          	lw	x28,0(x23) # 0 <_Z21hb_tiled_foreach_implIfZL26convolution_backward_inputP11hb_tensor_tS1_S1_P11hb_vector_tS3_EUlvE_JEEvjjT0_8HBTensorIT_Lln1EEPS7_.isra.0>
    3d98:	000008b7          	lui	x17,0x0
    3d9c:	0008ae83          	lw	x29,0(x17) # 0 <_Z21hb_tiled_foreach_implIfZL26convolution_backward_inputP11hb_tensor_tS1_S1_P11hb_vector_tS3_EUlvE_JEEvjjT0_8HBTensorIT_Lln1EEPS7_.isra.0>
    3da0:	010e1593          	slli	x11,x28,0x10
    3da4:	4100f4b7          	lui	x9,0x4100f
    3da8:	01d58a33          	add	x20,x11,x29
    3dac:	ad44ac23          	sw	x20,-1320(x9) # 4100ead8 <.L2120+0x410010fc>

00003db0 <.L718>:
    3db0:	0000006f          	j	3db0 <.L718>

00003db4 <.L813>:
    3db4:	000000b7          	lui	x1,0x0
    3db8:	00000837          	lui	x16,0x0
    3dbc:	00008593          	mv	x11,x1
    3dc0:	06f00613          	li	x12,111
    3dc4:	00080513          	mv	x10,x16
    3dc8:	00000097          	auipc	x1,0x0
    3dcc:	000080e7          	jalr	x1 # 3dc8 <.L813+0x14>
    3dd0:	08c12583          	lw	x11,140(x2)
    3dd4:	00000637          	lui	x12,0x0
    3dd8:	00060513          	mv	x10,x12
    3ddc:	00000097          	auipc	x1,0x0
    3de0:	000080e7          	jalr	x1 # 3ddc <.L813+0x28>
    3de4:	00000fb7          	lui	x31,0x0
    3de8:	000fa383          	lw	x7,0(x31) # 0 <_Z21hb_tiled_foreach_implIfZL26convolution_backward_inputP11hb_tensor_tS1_S1_P11hb_vector_tS3_EUlvE_JEEvjjT0_8HBTensorIT_Lln1EEPS7_.isra.0>
    3dec:	00000737          	lui	x14,0x0
    3df0:	00072283          	lw	x5,0(x14) # 0 <_Z21hb_tiled_foreach_implIfZL26convolution_backward_inputP11hb_tensor_tS1_S1_P11hb_vector_tS3_EUlvE_JEEvjjT0_8HBTensorIT_Lln1EEPS7_.isra.0>
    3df4:	01039313          	slli	x6,x7,0x10
    3df8:	4100f6b7          	lui	x13,0x4100f
    3dfc:	00530533          	add	x10,x6,x5
    3e00:	aca6ac23          	sw	x10,-1320(x13) # 4100ead8 <.L2120+0x410010fc>

00003e04 <.L720>:
    3e04:	0000006f          	j	3e04 <.L720>

00003e08 <.L815>:
    3e08:	000006b7          	lui	x13,0x0
    3e0c:	00000537          	lui	x10,0x0
    3e10:	00050593          	mv	x11,x10
    3e14:	06f00613          	li	x12,111
    3e18:	00068513          	mv	x10,x13
    3e1c:	00000097          	auipc	x1,0x0
    3e20:	000080e7          	jalr	x1 # 3e1c <.L815+0x14>
    3e24:	0f012583          	lw	x11,240(x2)
    3e28:	00000c37          	lui	x24,0x0
    3e2c:	000c0513          	mv	x10,x24
    3e30:	000009b7          	lui	x19,0x0
    3e34:	00000097          	auipc	x1,0x0
    3e38:	000080e7          	jalr	x1 # 3e34 <.L815+0x2c>
    3e3c:	00000bb7          	lui	x23,0x0
    3e40:	0009ab03          	lw	x22,0(x19) # 0 <_Z21hb_tiled_foreach_implIfZL26convolution_backward_inputP11hb_tensor_tS1_S1_P11hb_vector_tS3_EUlvE_JEEvjjT0_8HBTensorIT_Lln1EEPS7_.isra.0>
    3e44:	000bae03          	lw	x28,0(x23) # 0 <_Z21hb_tiled_foreach_implIfZL26convolution_backward_inputP11hb_tensor_tS1_S1_P11hb_vector_tS3_EUlvE_JEEvjjT0_8HBTensorIT_Lln1EEPS7_.isra.0>
    3e48:	4100f5b7          	lui	x11,0x4100f
    3e4c:	010b1893          	slli	x17,x22,0x10
    3e50:	01c88eb3          	add	x29,x17,x28
    3e54:	add5ac23          	sw	x29,-1320(x11) # 4100ead8 <.L2120+0x410010fc>

00003e58 <.L724>:
    3e58:	0000006f          	j	3e58 <.L724>

00003e5c <.L816>:
    3e5c:	08000713          	li	x14,128
    3e60:	cceb16e3          	bne	x22,x14,3b2c <.L706>
    3e64:	00800693          	li	x13,8
    3e68:	ccd812e3          	bne	x16,x13,3b2c <.L706>
    3e6c:	cd0c10e3          	bne	x24,x16,3b2c <.L706>
    3e70:	04000613          	li	x12,64
    3e74:	cacf1ce3          	bne	x30,x12,3b2c <.L706>
    3e78:	cb8c9ae3          	bne	x25,x24,3b2c <.L706>
    3e7c:	cb9e98e3          	bne	x29,x25,3b2c <.L706>
    3e80:	00300093          	li	x1,3
    3e84:	ca1d14e3          	bne	x26,x1,3b2c <.L706>
    3e88:	cbae12e3          	bne	x28,x26,3b2c <.L706>
    3e8c:	00100293          	li	x5,1
    3e90:	c85d9ee3          	bne	x27,x5,3b2c <.L706>
    3e94:	c9ba1ce3          	bne	x20,x27,3b2c <.L706>
    3e98:	00100593          	li	x11,1
    3e9c:	c8b998e3          	bne	x19,x11,3b2c <.L706>
    3ea0:	c93796e3          	bne	x15,x19,3b2c <.L706>
    3ea4:	00000ab7          	lui	x21,0x0
    3ea8:	000008b7          	lui	x17,0x0
    3eac:	000003b7          	lui	x7,0x0
    3eb0:	00000b37          	lui	x22,0x0
    3eb4:	000aa503          	lw	x10,0(x21) # 0 <_Z21hb_tiled_foreach_implIfZL26convolution_backward_inputP11hb_tensor_tS1_S1_P11hb_vector_tS3_EUlvE_JEEvjjT0_8HBTensorIT_Lln1EEPS7_.isra.0>
    3eb8:	0008a303          	lw	x6,0(x17) # 0 <_Z21hb_tiled_foreach_implIfZL26convolution_backward_inputP11hb_tensor_tS1_S1_P11hb_vector_tS3_EUlvE_JEEvjjT0_8HBTensorIT_Lln1EEPS7_.isra.0>
    3ebc:	0003af83          	lw	x31,0(x7) # 0 <_Z21hb_tiled_foreach_implIfZL26convolution_backward_inputP11hb_tensor_tS1_S1_P11hb_vector_tS3_EUlvE_JEEvjjT0_8HBTensorIT_Lln1EEPS7_.isra.0>
    3ec0:	000b2803          	lw	x16,0(x22) # 0 <_Z21hb_tiled_foreach_implIfZL26convolution_backward_inputP11hb_tensor_tS1_S1_P11hb_vector_tS3_EUlvE_JEEvjjT0_8HBTensorIT_Lln1EEPS7_.isra.0>
    3ec4:	00000c37          	lui	x24,0x0
    3ec8:	000c2f03          	lw	x30,0(x24) # 0 <_Z21hb_tiled_foreach_implIfZL26convolution_backward_inputP11hb_tensor_tS1_S1_P11hb_vector_tS3_EUlvE_JEEvjjT0_8HBTensorIT_Lln1EEPS7_.isra.0>
    3ecc:	00650cb3          	add	x25,x10,x6
    3ed0:	010f8eb3          	add	x29,x31,x16
    3ed4:	018c9d13          	slli	x26,x25,0x18
    3ed8:	012e9e13          	slli	x28,x29,0x12
    3edc:	3f000db7          	lui	x27,0x3f000
    3ee0:	00fc09b7          	lui	x19,0xfc0
    3ee4:	00040737          	lui	x14,0x40
    3ee8:	0104a483          	lw	x9,16(x9)
    3eec:	01bd7a33          	and	x20,x26,x27
    3ef0:	013e77b3          	and	x15,x28,x19
    3ef4:	004f1693          	slli	x13,x30,0x4
    3ef8:	ff070093          	addi	x1,x14,-16 # 3fff0 <.L2120+0x32614>
    3efc:	00fa6633          	or	x12,x20,x15
    3f00:	0016f2b3          	and	x5,x13,x1
    3f04:	005665b3          	or	x11,x12,x5
    3f08:	80000ab7          	lui	x21,0x80000
    3f0c:	0155e533          	or	x10,x11,x21
    3f10:	00912623          	sw	x9,12(x2)
    3f14:	410018b7          	lui	x17,0x41001
    3f18:	01092903          	lw	x18,16(x18)
    3f1c:	01042403          	lw	x8,16(x8)
    3f20:	00000337          	lui	x6,0x0
    3f24:	d0a8a623          	sw	x10,-756(x17) # 41000d0c <.L2120+0x40ff3330>
    3f28:	00032383          	lw	x7,0(x6) # 0 <_Z21hb_tiled_foreach_implIfZL26convolution_backward_inputP11hb_tensor_tS1_S1_P11hb_vector_tS3_EUlvE_JEEvjjT0_8HBTensorIT_Lln1EEPS7_.isra.0>
    3f2c:	08000f93          	li	x31,128
    3f30:	07f3fb13          	andi	x22,x7,127
    3f34:	001b1813          	slli	x16,x22,0x1
    3f38:	00280c13          	addi	x24,x16,2 # 2 <_Z21hb_tiled_foreach_implIfZL26convolution_backward_inputP11hb_tensor_tS1_S1_P11hb_vector_tS3_EUlvE_JEEvjjT0_8HBTensorIT_Lln1EEPS7_.isra.0+0x2>
    3f3c:	03012a23          	sw	x16,52(x2)
    3f40:	03812823          	sw	x24,48(x2)
    3f44:	018ff663          	bgeu	x31,x24,3f50 <.L726>
    3f48:	08000f13          	li	x30,128
    3f4c:	03e12823          	sw	x30,48(x2)

00003f50 <.L726>:
    3f50:	03012e03          	lw	x28,48(x2)
    3f54:	03412783          	lw	x15,52(x2)
    3f58:	003b1c93          	slli	x25,x22,0x3
    3f5c:	00c12703          	lw	x14,12(x2)
    3f60:	016c8eb3          	add	x29,x25,x22
    3f64:	009e9d13          	slli	x26,x29,0x9
    3f68:	006e1d93          	slli	x27,x28,0x6
    3f6c:	40fe06b3          	sub	x13,x28,x15
    3f70:	007e9a13          	slli	x20,x29,0x7
    3f74:	417d09b3          	sub	x19,x26,x23
    3f78:	41b00633          	neg	x12,x27
    3f7c:	00870093          	addi	x1,x14,8
    3f80:	009a0293          	addi	x5,x20,9 # 9 <_Z21hb_tiled_foreach_implIfZL26convolution_backward_inputP11hb_tensor_tS1_S1_P11hb_vector_tS3_EUlvE_JEEvjjT0_8HBTensorIT_Lln1EEPS7_.isra.0+0x9>
    3f84:	008985b3          	add	x11,x19,x8
    3f88:	00669513          	slli	x10,x13,0x6
    3f8c:	40e90933          	sub	x18,x18,x14
    3f90:	03b12623          	sw	x27,44(x2)
    3f94:	02c12e23          	sw	x12,60(x2)
    3f98:	04112023          	sw	x1,64(x2)
    3f9c:	04512423          	sw	x5,72(x2)
    3fa0:	04b12623          	sw	x11,76(x2)
    3fa4:	02a12c23          	sw	x10,56(x2)
    3fa8:	04012223          	sw	x0,68(x2)
    3fac:	00200e13          	li	x28,2
    3fb0:	03212023          	sw	x18,32(x2)

00003fb4 <.L749>:
    3fb4:	04c12483          	lw	x9,76(x2)
    3fb8:	04812403          	lw	x8,72(x2)
    3fbc:	03c12883          	lw	x17,60(x2)
    3fc0:	04012d83          	lw	x27,64(x2)
    3fc4:	02912423          	sw	x9,40(x2)
    3fc8:	02812223          	sw	x8,36(x2)
    3fcc:	01112c23          	sw	x17,24(x2)
    3fd0:	00000d13          	li	x26,0

00003fd4 <.L729>:
    3fd4:	03012303          	lw	x6,48(x2)
    3fd8:	03412383          	lw	x7,52(x2)
    3fdc:	2463f263          	bgeu	x7,x6,4220 <.L747>
    3fe0:	01812f83          	lw	x31,24(x2)
    3fe4:	02c12b03          	lw	x22,44(x2)
    3fe8:	03812c03          	lw	x24,56(x2)
    3fec:	02812c83          	lw	x25,40(x2)
    3ff0:	016f8833          	add	x16,x31,x22
    3ff4:	02412b03          	lw	x22,36(x2)
    3ff8:	018f8f33          	add	x30,x31,x24
    3ffc:	003d0e93          	addi	x29,x26,3 # 3 <_Z21hb_tiled_foreach_implIfZL26convolution_backward_inputP11hb_tensor_tS1_S1_P11hb_vector_tS3_EUlvE_JEEvjjT0_8HBTensorIT_Lln1EEPS7_.isra.0+0x3>
    4000:	01012e23          	sw	x16,28(x2)
    4004:	01e12a23          	sw	x30,20(x2)
    4008:	01912823          	sw	x25,16(x2)
    400c:	01d12423          	sw	x29,8(x2)
    4010:	00700093          	li	x1,7
    4014:	00300413          	li	x8,3

00004018 <.L748>:
    4018:	01012683          	lw	x13,16(x2)
    401c:	ff7b0613          	addi	x12,x22,-9
    4020:	000b8713          	mv	x14,x23

00004024 <.L731>:
    4024:	00070793          	mv	x15,x14
    4028:	00c70a13          	addi	x20,x14,12

0000402c <.L730>:
    402c:	00f689b3          	add	x19,x13,x15
    4030:	0009a787          	flw	f15,0(x19) # fc0000 <.L2120+0xfb2624>
    4034:	00478793          	addi	x15,x15,4
    4038:	fef7ae27          	fsw	f15,-4(x15)
    403c:	fefa18e3          	bne	x20,x15,402c <.L730>
    4040:	00360613          	addi	x12,x12,3 # 3 <_Z21hb_tiled_foreach_implIfZL26convolution_backward_inputP11hb_tensor_tS1_S1_P11hb_vector_tS3_EUlvE_JEEvjjT0_8HBTensorIT_Lln1EEPS7_.isra.0+0x3>
    4044:	01470713          	addi	x14,x14,20
    4048:	ff868693          	addi	x13,x13,-8 # fffffff8 <.L2120+0xffff261c>
    404c:	fd661ce3          	bne	x12,x22,4024 <.L731>
    4050:	01412583          	lw	x11,20(x2)
    4054:	01c12a83          	lw	x21,28(x2)
    4058:	02012503          	lw	x10,32(x2)
    405c:	00259293          	slli	x5,x11,0x2
    4060:	40ba83b3          	sub	x7,x21,x11
    4064:	405502b3          	sub	x5,x10,x5
    4068:	fff00893          	li	x17,-1
    406c:	ff858313          	addi	x6,x11,-8

00004070 <.L746>:
    4070:	00088c13          	mv	x24,x17
    4074:	00730f33          	add	x30,x6,x7
    4078:	00188893          	addi	x17,x17,1
    407c:	00000713          	li	x14,0

00004080 <.L738>:
    4080:	00c12f83          	lw	x31,12(x2)
    4084:	002f1913          	slli	x18,x30,0x2
    4088:	00271493          	slli	x9,x14,0x2
    408c:	01f90cb3          	add	x25,x18,x31
    4090:	fff00613          	li	x12,-1
    4094:	00000793          	li	x15,0
    4098:	00ec0eb3          	add	x29,x24,x14
    409c:	00e48a33          	add	x20,x9,x14

000040a0 <.L736>:
    40a0:	f0000053          	fmv.w.x	f0,x0
    40a4:	03d0e463          	bltu	x1,x29,40cc <.L732>
    40a8:	00fa0833          	add	x16,x20,x15
    40ac:	00281993          	slli	x19,x16,0x2
    40b0:	00261693          	slli	x13,x12,0x2
    40b4:	15010593          	addi	x11,x2,336
    40b8:	fff00913          	li	x18,-1
    40bc:	01358ab3          	add	x21,x11,x19
    40c0:	01968533          	add	x10,x13,x25
    40c4:	39260a63          	beq	x12,x18,4458 <.L733>
    40c8:	00052007          	flw	f0,0(x10) # 0 <_Z21hb_tiled_foreach_implIfZL26convolution_backward_inputP11hb_tensor_tS1_S1_P11hb_vector_tS3_EUlvE_JEEvjjT0_8HBTensorIT_Lln1EEPS7_.isra.0>

000040cc <.L732>:
    40cc:	00fa04b3          	add	x9,x20,x15
    40d0:	00249f93          	slli	x31,x9,0x2
    40d4:	15010813          	addi	x16,x2,336
    40d8:	01f809b3          	add	x19,x16,x31
    40dc:	f809ae27          	fsw	f0,-100(x19)
    40e0:	01c78663          	beq	x15,x28,40ec <.L783>

000040e4 <.L767>:
    40e4:	00178793          	addi	x15,x15,1
    40e8:	0080006f          	j	40f0 <.L734>

000040ec <.L783>:
    40ec:	00000793          	li	x15,0

000040f0 <.L734>:
    40f0:	00160613          	addi	x12,x12,1
    40f4:	fbc616e3          	bne	x12,x28,40a0 <.L736>
    40f8:	00170713          	addi	x14,x14,1
    40fc:	008f0f13          	addi	x30,x30,8 # 8 <_Z21hb_tiled_foreach_implIfZL26convolution_backward_inputP11hb_tensor_tS1_S1_P11hb_vector_tS3_EUlvE_JEEvjjT0_8HBTensorIT_Lln1EEPS7_.isra.0+0x8>
    4100:	f88710e3          	bne	x14,x8,4080 <.L738>
    4104:	000d8e93          	mv	x29,x27
    4108:	00000513          	li	x10,0
    410c:	00000593          	li	x11,0
    4110:	ff828a13          	addi	x20,x5,-8 # fffffff8 <.L2120+0xffff261c>
    4114:	003c0493          	addi	x9,x24,3

00004118 <.L737>:
    4118:	01da0933          	add	x18,x20,x29
    411c:	00092087          	flw	f1,0(x18)
    4120:	000b8f13          	mv	x30,x23
    4124:	00000793          	li	x15,0

00004128 <.L744>:
    4128:	00812a83          	lw	x21,8(x2)
    412c:	00279c93          	slli	x25,x15,0x2
    4130:	00fd0833          	add	x16,x26,x15
    4134:	000f0f93          	mv	x31,x30
    4138:	00050693          	mv	x13,x10
    413c:	00fc89b3          	add	x19,x25,x15
    4140:	00fa8733          	add	x14,x21,x15

00004144 <.L743>:
    4144:	00d98633          	add	x12,x19,x13
    4148:	00261a93          	slli	x21,x12,0x2
    414c:	15010c93          	addi	x25,x2,336
    4150:	015c8633          	add	x12,x25,x21
    4154:	00081463          	bnez	x16,415c <.L741>
    4158:	f00000d3          	fmv.w.x	f1,x0

0000415c <.L741>:
    415c:	000fa707          	flw	f14,0(x31)
    4160:	f9c62687          	flw	f13,-100(x12)
    4164:	08e6f0c3          	fmadd.s	f1,f13,f14,f1
    4168:	31c68263          	beq	x13,x28,446c <.L788>
    416c:	00168693          	addi	x13,x13,1

00004170 <.L742>:
    4170:	00180813          	addi	x16,x16,1
    4174:	004f8f93          	addi	x31,x31,4
    4178:	fce816e3          	bne	x16,x14,4144 <.L743>
    417c:	00178793          	addi	x15,x15,1
    4180:	014f0f13          	addi	x30,x30,20
    4184:	fa8792e3          	bne	x15,x8,4128 <.L744>
    4188:	00192027          	fsw	f1,0(x18)
    418c:	00800513          	li	x10,8
    4190:	00158913          	addi	x18,x11,1
    4194:	04a90a63          	beq	x18,x10,41e8 <.L817>
    4198:	0285f9b3          	remu	x19,x11,x8
    419c:	0ec10c93          	addi	x25,x2,236
    41a0:	000c0713          	mv	x14,x24
    41a4:	02897533          	remu	x10,x18,x8
    41a8:	00299a93          	slli	x21,x19,0x2
    41ac:	015c8fb3          	add	x31,x25,x21

000041b0 <.L740>:
    41b0:	f0000153          	fmv.w.x	f2,x0
    41b4:	00e0ec63          	bltu	x1,x14,41cc <.L739>
    41b8:	00571613          	slli	x12,x14,0x5
    41bc:	00600813          	li	x16,6
    41c0:	01d606b3          	add	x13,x12,x29
    41c4:	01058463          	beq	x11,x16,41cc <.L739>
    41c8:	0006a107          	flw	f2,0(x13)

000041cc <.L739>:
    41cc:	00170713          	addi	x14,x14,1
    41d0:	002fa027          	fsw	f2,0(x31)
    41d4:	014f8f93          	addi	x31,x31,20
    41d8:	fce49ce3          	bne	x9,x14,41b0 <.L740>
    41dc:	004e8e93          	addi	x29,x29,4
    41e0:	00090593          	mv	x11,x18
    41e4:	f35ff06f          	j	4118 <.L737>

000041e8 <.L817>:
    41e8:	00838393          	addi	x7,x7,8
    41ec:	02028293          	addi	x5,x5,32
    41f0:	e81890e3          	bne	x17,x1,4070 <.L746>
    41f4:	01412303          	lw	x6,20(x2)
    41f8:	01012583          	lw	x11,16(x2)
    41fc:	000018b7          	lui	x17,0x1
    4200:	90088e93          	addi	x29,x17,-1792 # 900 <.L152+0x1c>
    4204:	01812483          	lw	x9,24(x2)
    4208:	fc030c13          	addi	x24,x6,-64
    420c:	01d58a33          	add	x20,x11,x29
    4210:	01812a23          	sw	x24,20(x2)
    4214:	01412823          	sw	x20,16(x2)
    4218:	240b0b13          	addi	x22,x22,576
    421c:	de9c1ee3          	bne	x24,x9,4018 <.L748>

00004220 <.L747>:
    4220:	01812403          	lw	x8,24(x2)
    4224:	02412f03          	lw	x30,36(x2)
    4228:	02812503          	lw	x10,40(x2)
    422c:	04040793          	addi	x15,x8,64
    4230:	009f0913          	addi	x18,x30,9
    4234:	02450993          	addi	x19,x10,36
    4238:	001d0d13          	addi	x26,x26,1
    423c:	04000093          	li	x1,64
    4240:	00f12c23          	sw	x15,24(x2)
    4244:	03212223          	sw	x18,36(x2)
    4248:	03312423          	sw	x19,40(x2)
    424c:	100d8d93          	addi	x27,x27,256 # 3f000100 <.L2120+0x3eff2724>
    4250:	d81d12e3          	bne	x26,x1,3fd4 <.L729>
    4254:	04412c83          	lw	x25,68(x2)
    4258:	03c12703          	lw	x14,60(x2)
    425c:	04012283          	lw	x5,64(x2)
    4260:	02c12c03          	lw	x24,44(x2)
    4264:	00002ab7          	lui	x21,0x2
    4268:	fffff6b7          	lui	x13,0xfffff
    426c:	000043b7          	lui	x7,0x4
    4270:	015c8633          	add	x12,x25,x21
    4274:	00d70fb3          	add	x31,x14,x13
    4278:	00728333          	add	x6,x5,x7
    427c:	015c0b33          	add	x22,x24,x21
    4280:	04c12223          	sw	x12,68(x2)
    4284:	00010837          	lui	x16,0x10
    4288:	03f12e23          	sw	x31,60(x2)
    428c:	04612023          	sw	x6,64(x2)
    4290:	03612623          	sw	x22,44(x2)
    4294:	d30610e3          	bne	x12,x16,3fb4 <.L749>
    4298:	000004b7          	lui	x9,0x0
    429c:	000008b7          	lui	x17,0x0
    42a0:	00000bb7          	lui	x23,0x0
    42a4:	000005b7          	lui	x11,0x0
    42a8:	000bae03          	lw	x28,0(x23) # 0 <_Z21hb_tiled_foreach_implIfZL26convolution_backward_inputP11hb_tensor_tS1_S1_P11hb_vector_tS3_EUlvE_JEEvjjT0_8HBTensorIT_Lln1EEPS7_.isra.0>
    42ac:	0008ae83          	lw	x29,0(x17) # 0 <_Z21hb_tiled_foreach_implIfZL26convolution_backward_inputP11hb_tensor_tS1_S1_P11hb_vector_tS3_EUlvE_JEEvjjT0_8HBTensorIT_Lln1EEPS7_.isra.0>
    42b0:	0005aa03          	lw	x20,0(x11) # 0 <_Z21hb_tiled_foreach_implIfZL26convolution_backward_inputP11hb_tensor_tS1_S1_P11hb_vector_tS3_EUlvE_JEEvjjT0_8HBTensorIT_Lln1EEPS7_.isra.0>
    42b4:	0004ad03          	lw	x26,0(x9) # 0 <_Z21hb_tiled_foreach_implIfZL26convolution_backward_inputP11hb_tensor_tS1_S1_P11hb_vector_tS3_EUlvE_JEEvjjT0_8HBTensorIT_Lln1EEPS7_.isra.0>
    42b8:	000000b7          	lui	x1,0x0
    42bc:	0000a403          	lw	x8,0(x1) # 0 <_Z21hb_tiled_foreach_implIfZL26convolution_backward_inputP11hb_tensor_tS1_S1_P11hb_vector_tS3_EUlvE_JEEvjjT0_8HBTensorIT_Lln1EEPS7_.isra.0>
    42c0:	01de07b3          	add	x15,x28,x29
    42c4:	01aa0db3          	add	x27,x20,x26
    42c8:	01879f13          	slli	x30,x15,0x18
    42cc:	3f000537          	lui	x10,0x3f000
    42d0:	000406b7          	lui	x13,0x40
    42d4:	012d9913          	slli	x18,x27,0x12
    42d8:	00fc0ab7          	lui	x21,0xfc0
    42dc:	00af79b3          	and	x19,x30,x10
    42e0:	00441613          	slli	x12,x8,0x4
    42e4:	ff068713          	addi	x14,x13,-16 # 3fff0 <.L2120+0x32614>
    42e8:	01597cb3          	and	x25,x18,x21
    42ec:	0199e833          	or	x16,x19,x25
    42f0:	00e67fb3          	and	x31,x12,x14
    42f4:	01f863b3          	or	x7,x16,x31
    42f8:	c00002b7          	lui	x5,0xc0000
    42fc:	0053e333          	or	x6,x7,x5
    4300:	41001c37          	lui	x24,0x41001
    4304:	d06c2623          	sw	x6,-756(x24) # 41000d0c <.L2120+0x40ff3330>
    4308:	0004ab83          	lw	x23,0(x9)
    430c:	0008ae03          	lw	x28,0(x17)
    4310:	00000537          	lui	x10,0x0
    4314:	004b8893          	addi	x17,x23,4
    4318:	00050693          	mv	x13,x10
    431c:	01168eb3          	add	x29,x13,x17
    4320:	018e1593          	slli	x11,x28,0x18
    4324:	00048b13          	mv	x22,x9
    4328:	00beea33          	or	x20,x29,x11
    432c:	201c04b7          	lui	x9,0x201c0
    4330:	009a6d33          	or	x26,x20,x9
    4334:	00100093          	li	x1,1
    4338:	001d0023          	sb	x1,0(x26)
    433c:	000b2403          	lw	x8,0(x22)
    4340:	00700793          	li	x15,7
    4344:	02f40863          	beq	x8,x15,4374 <.L818>

00004348 <.L751>:
    4348:	00100f93          	li	x31,1
    434c:	0100006f          	j	435c <.L764>

00004350 <.L819>:
    4350:	00050293          	mv	x5,x10
    4354:	1402a32f          	lr.w.aq	x6,(x5)
    4358:	01f30863          	beq	x6,x31,4368 <.L763>

0000435c <.L764>:
    435c:	00050713          	mv	x14,x10
    4360:	100723af          	lr.w	x7,(x14)
    4364:	fff396e3          	bne	x7,x31,4350 <.L819>

00004368 <.L763>:
    4368:	0006a023          	sw	x0,0(x13)
    436c:	00000513          	li	x10,0
    4370:	fbcff06f          	j	3b2c <.L706>

00004374 <.L818>:
    4374:	00000db7          	lui	x27,0x0
    4378:	00000937          	lui	x18,0x0
    437c:	004d8f13          	addi	x30,x27,4 # 4 <_Z21hb_tiled_foreach_implIfZL26convolution_backward_inputP11hb_tensor_tS1_S1_P11hb_vector_tS3_EUlvE_JEEvjjT0_8HBTensorIT_Lln1EEPS7_.isra.0+0x4>
    4380:	01490993          	addi	x19,x18,20 # 14 <.L8>

00004384 <.L750>:
    4384:	000f0c93          	mv	x25,x30

00004388 <.L753>:
    4388:	000cca83          	lbu	x21,0(x25)
    438c:	001c8c93          	addi	x25,x25,1
    4390:	0ffaf613          	andi	x12,x21,255
    4394:	fe0608e3          	beqz	x12,4384 <.L750>
    4398:	ff9998e3          	bne	x19,x25,4388 <.L753>
    439c:	00000837          	lui	x16,0x0
    43a0:	00082703          	lw	x14,0(x16) # 0 <_Z21hb_tiled_foreach_implIfZL26convolution_backward_inputP11hb_tensor_tS1_S1_P11hb_vector_tS3_EUlvE_JEEvjjT0_8HBTensorIT_Lln1EEPS7_.isra.0>
    43a4:	231c02b7          	lui	x5,0x231c0
    43a8:	00100c13          	li	x24,1
    43ac:	01870f93          	addi	x31,x14,24
    43b0:	01f683b3          	add	x7,x13,x31
    43b4:	0053e333          	or	x6,x7,x5
    43b8:	01830023          	sb	x24,0(x6)
    43bc:	00000b37          	lui	x22,0x0
    43c0:	000b2b83          	lw	x23,0(x22) # 0 <_Z21hb_tiled_foreach_implIfZL26convolution_backward_inputP11hb_tensor_tS1_S1_P11hb_vector_tS3_EUlvE_JEEvjjT0_8HBTensorIT_Lln1EEPS7_.isra.0>
    43c4:	00700e13          	li	x28,7
    43c8:	f9cb90e3          	bne	x23,x28,4348 <.L751>
    43cc:	000008b7          	lui	x17,0x0
    43d0:	0008ae83          	lw	x29,0(x17) # 0 <_Z21hb_tiled_foreach_implIfZL26convolution_backward_inputP11hb_tensor_tS1_S1_P11hb_vector_tS3_EUlvE_JEEvjjT0_8HBTensorIT_Lln1EEPS7_.isra.0>
    43d4:	00300593          	li	x11,3
    43d8:	08be8e63          	beq	x29,x11,4474 <.L820>

000043dc <.L759>:
    43dc:	00100b13          	li	x22,1
    43e0:	0100006f          	j	43f0 <.L755>

000043e4 <.L821>:
    43e4:	01468893          	addi	x17,x13,20
    43e8:	1408aeaf          	lr.w.aq	x29,(x17)
    43ec:	016e8863          	beq	x29,x22,43fc <.L760>

000043f0 <.L755>:
    43f0:	01468b93          	addi	x23,x13,20
    43f4:	100bae2f          	lr.w	x28,(x23)
    43f8:	ff6e16e3          	bne	x28,x22,43e4 <.L821>

000043fc <.L760>:
    43fc:	0006aa23          	sw	x0,20(x13)
    4400:	00000493          	li	x9,0
    4404:	01000593          	li	x11,16

00004408 <.L761>:
    4408:	00968a33          	add	x20,x13,x9
    440c:	000a0223          	sb	x0,4(x20)
    4410:	00148493          	addi	x9,x9,1 # 201c0001 <.L2120+0x201b2625>
    4414:	feb49ae3          	bne	x9,x11,4408 <.L761>
    4418:	0006a023          	sw	x0,0(x13)
    441c:	00000a93          	li	x21,0
    4420:	20000d37          	lui	x26,0x20000
    4424:	00100093          	li	x1,1
    4428:	00040437          	lui	x8,0x40
    442c:	00400db7          	lui	x27,0x400

00004430 <.L762>:
    4430:	000007b7          	lui	x15,0x0
    4434:	0007af03          	lw	x30,0(x15) # 0 <_Z21hb_tiled_foreach_implIfZL26convolution_backward_inputP11hb_tensor_tS1_S1_P11hb_vector_tS3_EUlvE_JEEvjjT0_8HBTensorIT_Lln1EEPS7_.isra.0>
    4438:	0156e933          	or	x18,x13,x21
    443c:	008a8ab3          	add	x21,x21,x8
    4440:	018f1c93          	slli	x25,x30,0x18
    4444:	012ce633          	or	x12,x25,x18
    4448:	01a66833          	or	x16,x12,x26
    444c:	00182023          	sw	x1,0(x16)
    4450:	ffba90e3          	bne	x21,x27,4430 <.L762>
    4454:	ef5ff06f          	j	4348 <.L751>

00004458 <.L733>:
    4458:	f80aae23          	sw	x0,-100(x21) # fbff9c <.L2120+0xfb25c0>
    445c:	c9c794e3          	bne	x15,x28,40e4 <.L767>
    4460:	00000793          	li	x15,0
    4464:	00000613          	li	x12,0
    4468:	c39ff06f          	j	40a0 <.L736>

0000446c <.L788>:
    446c:	00000693          	li	x13,0
    4470:	d01ff06f          	j	4170 <.L742>

00004474 <.L820>:
    4474:	00000a37          	lui	x20,0x0
    4478:	00000d37          	lui	x26,0x0
    447c:	018a0493          	addi	x9,x20,24 # 18 <.L8+0x4>
    4480:	020d0093          	addi	x1,x26,32 # 20 <.L8+0xc>

00004484 <.L754>:
    4484:	00048793          	mv	x15,x9

00004488 <.L756>:
    4488:	0007c403          	lbu	x8,0(x15)
    448c:	00178793          	addi	x15,x15,1
    4490:	0ff47d93          	andi	x27,x8,255
    4494:	fe0d88e3          	beqz	x27,4484 <.L754>
    4498:	fef098e3          	bne	x1,x15,4488 <.L756>
    449c:	00068c23          	sb	x0,24(x13)
    44a0:	00068ca3          	sb	x0,25(x13)
    44a4:	00068d23          	sb	x0,26(x13)
    44a8:	00068da3          	sb	x0,27(x13)
    44ac:	00068e23          	sb	x0,28(x13)
    44b0:	00068ea3          	sb	x0,29(x13)
    44b4:	00068f23          	sb	x0,30(x13)
    44b8:	00068fa3          	sb	x0,31(x13)
    44bc:	0006aa23          	sw	x0,20(x13)
    44c0:	00000313          	li	x6,0
    44c4:	03fc0f37          	lui	x30,0x3fc0
    44c8:	20000937          	lui	x18,0x20000
    44cc:	00100a93          	li	x21,1
    44d0:	01000cb7          	lui	x25,0x1000
    44d4:	08000637          	lui	x12,0x8000

000044d8 <.L758>:
    44d8:	012b9813          	slli	x16,x23,0x12
    44dc:	0069e733          	or	x14,x19,x6
    44e0:	01e87fb3          	and	x31,x16,x30
    44e4:	00efe3b3          	or	x7,x31,x14
    44e8:	0123e2b3          	or	x5,x7,x18
    44ec:	0152a023          	sw	x21,0(x5) # 231c0000 <.L2120+0x231b2624>
    44f0:	00000c37          	lui	x24,0x0
    44f4:	01930333          	add	x6,x6,x25
    44f8:	000c2b83          	lw	x23,0(x24) # 0 <_Z21hb_tiled_foreach_implIfZL26convolution_backward_inputP11hb_tensor_tS1_S1_P11hb_vector_tS3_EUlvE_JEEvjjT0_8HBTensorIT_Lln1EEPS7_.isra.0>
    44fc:	fcc31ee3          	bne	x6,x12,44d8 <.L758>
    4500:	00700993          	li	x19,7
    4504:	ed3b8ce3          	beq	x23,x19,43dc <.L759>
    4508:	e41ff06f          	j	4348 <.L751>

0000450c <_ZN12_GLOBAL__N_128convolution_forward_templateILm8ELm32ELm32ELm32ELm16ELm32ELm32ELm3ELm3ELm1ELm1ELm1ELm1EEEiP11hb_tensor_tS2_S2_P11hb_vector_tS4_>:
    450c:	e8010113          	addi	x2,x2,-384
    4510:	17212823          	sw	x18,368(x2)
    4514:	00050913          	mv	x18,x10
    4518:	16912a23          	sw	x9,372(x2)
    451c:	04410513          	addi	x10,x2,68
    4520:	00058493          	mv	x9,x11
    4524:	00090593          	mv	x11,x18
    4528:	16112e23          	sw	x1,380(x2)
    452c:	16812c23          	sw	x8,376(x2)
    4530:	17312623          	sw	x19,364(x2)
    4534:	00060413          	mv	x8,x12
    4538:	00070993          	mv	x19,x14
    453c:	17412423          	sw	x20,360(x2)
    4540:	17512223          	sw	x21,356(x2)
    4544:	00068a13          	mv	x20,x13
    4548:	17612023          	sw	x22,352(x2)
    454c:	15712e23          	sw	x23,348(x2)
    4550:	15812c23          	sw	x24,344(x2)
    4554:	15912a23          	sw	x25,340(x2)
    4558:	15a12823          	sw	x26,336(x2)
    455c:	15b12623          	sw	x27,332(x2)
    4560:	00000097          	auipc	x1,0x0
    4564:	000080e7          	jalr	x1 # 4560 <_ZN12_GLOBAL__N_128convolution_forward_templateILm8ELm32ELm32ELm32ELm16ELm32ELm32ELm3ELm3ELm1ELm1ELm1ELm1EEEiP11hb_tensor_tS2_S2_P11hb_vector_tS4_+0x54>
    4568:	00048593          	mv	x11,x9
    456c:	07810513          	addi	x10,x2,120
    4570:	00000097          	auipc	x1,0x0
    4574:	000080e7          	jalr	x1 # 4570 <_ZN12_GLOBAL__N_128convolution_forward_templateILm8ELm32ELm32ELm32ELm16ELm32ELm32ELm3ELm3ELm1ELm1ELm1ELm1EEEiP11hb_tensor_tS2_S2_P11hb_vector_tS4_+0x64>
    4578:	00040593          	mv	x11,x8
    457c:	0dc10513          	addi	x10,x2,220
    4580:	00000097          	auipc	x1,0x0
    4584:	000080e7          	jalr	x1 # 4580 <_ZN12_GLOBAL__N_128convolution_forward_templateILm8ELm32ELm32ELm32ELm16ELm32ELm32ELm3ELm3ELm1ELm1ELm1ELm1EEEiP11hb_tensor_tS2_S2_P11hb_vector_tS4_+0x74>
    4588:	04812783          	lw	x15,72(x2)
    458c:	10078e63          	beqz	x15,46a8 <.L921>
    4590:	00100713          	li	x14,1
    4594:	0cf77063          	bgeu	x14,x15,4654 <.L922>
    4598:	00200693          	li	x13,2
    459c:	1ad78a63          	beq	x15,x13,4750 <.L923>
    45a0:	00300613          	li	x12,3
    45a4:	20c78063          	beq	x15,x12,47a4 <.L924>
    45a8:	07c12083          	lw	x1,124(x2)
    45ac:	14177863          	bgeu	x14,x1,46fc <.L925>
    45b0:	28d08e63          	beq	x1,x13,484c <.L926>
    45b4:	2ec08663          	beq	x1,x12,48a0 <.L927>
    45b8:	0e012283          	lw	x5,224(x2)
    45bc:	2256fe63          	bgeu	x13,x5,47f8 <.L928>
    45c0:	32c28a63          	beq	x5,x12,48f4 <.L929>
    45c4:	05012583          	lw	x11,80(x2)
    45c8:	08412a83          	lw	x21,132(x2)
    45cc:	004a2503          	lw	x10,4(x20)
    45d0:	0049a303          	lw	x6,4(x19)
