
kernel_mm.o:     file format elf32-littleriscv


Disassembly of section .group:

00000000 <_ZN8HBTensorIfLl2EEC5EP11hb_tensor_t>:
   0:	0001                	nop
   2:	0000                	unimp
   4:	00000007          	0x7
   8:	0008                	0x8
	...

Disassembly of section .text:

00000000 <tensorlib_mm>:
   0:	eb010113          	addi	x2,x2,-336
   4:	14112623          	sw	x1,332(x2)
   8:	14812423          	sw	x8,328(x2)
   c:	14912223          	sw	x9,324(x2)
  10:	15010413          	addi	x8,x2,336
  14:	15212023          	sw	x18,320(x2)
  18:	13312e23          	sw	x19,316(x2)
  1c:	13412c23          	sw	x20,312(x2)
  20:	13512a23          	sw	x21,308(x2)
  24:	13612823          	sw	x22,304(x2)
  28:	13712623          	sw	x23,300(x2)
  2c:	13812423          	sw	x24,296(x2)
  30:	13912223          	sw	x25,292(x2)
  34:	13a12023          	sw	x26,288(x2)
  38:	11b12e23          	sw	x27,284(x2)
  3c:	00050493          	mv	x9,x10
  40:	f5440513          	addi	x10,x8,-172
  44:	00060913          	mv	x18,x12
  48:	00000097          	auipc	x1,0x0
  4c:	000080e7          	jalr	x1 # 48 <tensorlib_mm+0x48>
  50:	00090593          	mv	x11,x18
  54:	f7840513          	addi	x10,x8,-136
  58:	00000097          	auipc	x1,0x0
  5c:	000080e7          	jalr	x1 # 58 <tensorlib_mm+0x58>
  60:	00048593          	mv	x11,x9
  64:	f9c40513          	addi	x10,x8,-100
  68:	00000097          	auipc	x1,0x0
  6c:	000080e7          	jalr	x1 # 68 <tensorlib_mm+0x68>
  70:	000007b7          	lui	x15,0x0
  74:	00000737          	lui	x14,0x0
  78:	00000337          	lui	x6,0x0
  7c:	000006b7          	lui	x13,0x0
  80:	0007a283          	lw	x5,0(x15) # 0 <tensorlib_mm>
  84:	00072583          	lw	x11,0(x14) # 0 <tensorlib_mm>
  88:	00032383          	lw	x7,0(x6) # 0 <tensorlib_mm>
  8c:	0006a603          	lw	x12,0(x13) # 0 <tensorlib_mm>
  90:	00000537          	lui	x10,0x0
  94:	00052803          	lw	x16,0(x10) # 0 <tensorlib_mm>
  98:	00b288b3          	add	x17,x5,x11
  9c:	00c389b3          	add	x19,x7,x12
  a0:	01889a13          	slli	x20,x17,0x18
  a4:	01299a93          	slli	x21,x19,0x12
  a8:	3f000b37          	lui	x22,0x3f000
  ac:	00fc0c37          	lui	x24,0xfc0
  b0:	00040e37          	lui	x28,0x40
  b4:	016a7bb3          	and	x23,x20,x22
  b8:	018afcb3          	and	x25,x21,x24
  bc:	00481d13          	slli	x26,x16,0x4
  c0:	ff0e0e93          	addi	x29,x28,-16 # 3fff0 <.L105+0x3f1d8>
  c4:	019bedb3          	or	x27,x23,x25
  c8:	01dd7f33          	and	x30,x26,x29
  cc:	f5842483          	lw	x9,-168(x8)
  d0:	01edefb3          	or	x31,x27,x30
  d4:	80000937          	lui	x18,0x80000
  d8:	012fe7b3          	or	x15,x31,x18
  dc:	410012b7          	lui	x5,0x41001
  e0:	d0f2a623          	sw	x15,-756(x5) # 41000d0c <.L105+0x40fffef4>
  e4:	6a048a63          	beqz	x9,798 <.L147>
  e8:	00100093          	li	x1,1
  ec:	6490fc63          	bgeu	x1,x9,744 <.L148>
  f0:	f7c42703          	lw	x14,-132(x8)
  f4:	72070c63          	beqz	x14,82c <.L149>
  f8:	06e0f2e3          	bgeu	x1,x14,95c <.L150>
  fc:	f6042583          	lw	x11,-160(x8)
 100:	f8442303          	lw	x6,-124(x8)
 104:	0045a383          	lw	x7,4(x11)
 108:	00032603          	lw	x12,0(x6)
 10c:	f0742423          	sw	x7,-248(x8)
 110:	6cc39e63          	bne	x7,x12,7ec <.L151>
 114:	00432983          	lw	x19,4(x6)
 118:	0005a683          	lw	x13,0(x11)
 11c:	f0842a03          	lw	x20,-248(x8)
 120:	00798813          	addi	x16,x19,7
 124:	41f85b13          	srai	x22,x16,0x1f
 128:	00768893          	addi	x17,x13,7
 12c:	007b7c13          	andi	x24,x22,7
 130:	41f8da93          	srai	x21,x17,0x1f
 134:	010c0d33          	add	x26,x24,x16
 138:	007afb93          	andi	x23,x21,7
 13c:	403d5e13          	srai	x28,x26,0x3
 140:	00800e93          	li	x29,8
 144:	011b8cb3          	add	x25,x23,x17
 148:	007a7513          	andi	x10,x20,7
 14c:	efc42e23          	sw	x28,-260(x8)
 150:	f3d42623          	sw	x29,-212(x8)
 154:	403cdd93          	srai	x27,x25,0x3
 158:	00050e63          	beqz	x10,174 <.L20>
 15c:	41fa5f13          	srai	x30,x20,0x1f
 160:	01df5f93          	srli	x31,x30,0x1d
 164:	01fa04b3          	add	x9,x20,x31
 168:	0074f913          	andi	x18,x9,7
 16c:	41f907b3          	sub	x15,x18,x31
 170:	f2f42623          	sw	x15,-212(x8)

00000174 <.L20>:
 174:	00800093          	li	x1,8
 178:	0076f293          	andi	x5,x13,7
 17c:	f0142e23          	sw	x1,-228(x8)
 180:	00028e63          	beqz	x5,19c <.L21>
 184:	41f6d713          	srai	x14,x13,0x1f
 188:	01d75593          	srli	x11,x14,0x1d
 18c:	00b68333          	add	x6,x13,x11
 190:	00737393          	andi	x7,x6,7
 194:	40b386b3          	sub	x13,x7,x11
 198:	f0d42e23          	sw	x13,-228(x8)

0000019c <.L21>:
 19c:	00800893          	li	x17,8
 1a0:	0079fa13          	andi	x20,x19,7
 1a4:	f1142c23          	sw	x17,-232(x8)
 1a8:	000a0e63          	beqz	x20,1c4 <.L22>
 1ac:	41f9d813          	srai	x16,x19,0x1f
 1b0:	01d85a93          	srli	x21,x16,0x1d
 1b4:	015989b3          	add	x19,x19,x21
 1b8:	0079fb13          	andi	x22,x19,7
 1bc:	415b0bb3          	sub	x23,x22,x21
 1c0:	f1742c23          	sw	x23,-232(x8)

000001c4 <.L22>:
 1c4:	efc42c03          	lw	x24,-260(x8)
 1c8:	fff00d13          	li	x26,-1
 1cc:	038d8cb3          	mul	x25,x27,x24
 1d0:	47ac8263          	beq	x25,x26,634 <.L26>
 1d4:	460c8063          	beqz	x25,634 <.L26>
 1d8:	00000e37          	lui	x28,0x0
 1dc:	000e2e83          	lw	x29,0(x28) # 0 <tensorlib_mm>
 1e0:	004cd513          	srli	x10,x25,0x4
 1e4:	00150f13          	addi	x30,x10,1
 1e8:	03df0fb3          	mul	x31,x30,x29
 1ec:	01ff04b3          	add	x9,x30,x31
 1f0:	f1f42223          	sw	x31,-252(x8)
 1f4:	ee942c23          	sw	x9,-264(x8)
 1f8:	009cf463          	bgeu	x25,x9,200 <.L27>
 1fc:	ef942c23          	sw	x25,-264(x8)

00000200 <.L27>:
 200:	f0442903          	lw	x18,-252(x8)
 204:	ef842783          	lw	x15,-264(x8)
 208:	42f97663          	bgeu	x18,x15,634 <.L26>
 20c:	f1842083          	lw	x1,-232(x8)
 210:	f1c42283          	lw	x5,-228(x8)
 214:	f0842703          	lw	x14,-248(x8)
 218:	00760613          	addi	x12,x12,7
 21c:	021285b3          	mul	x11,x5,x1
 220:	00770513          	addi	x10,x14,7
 224:	efc42c83          	lw	x25,-260(x8)
 228:	f2c42f83          	lw	x31,-212(x8)
 22c:	41f55393          	srai	x7,x10,0x1f
 230:	41f65a13          	srai	x20,x12,0x1f
 234:	0073f693          	andi	x13,x7,7
 238:	007a7893          	andi	x17,x20,7
 23c:	ff808b13          	addi	x22,x1,-8
 240:	00a68833          	add	x16,x13,x10
 244:	00c889b3          	add	x19,x17,x12
 248:	ff828b93          	addi	x23,x5,-8
 24c:	00509a93          	slli	x21,x1,0x5
 250:	40385c13          	srai	x24,x16,0x3
 254:	fffd8d93          	addi	x27,x27,-1
 258:	fffc8d13          	addi	x26,x25,-1
 25c:	00529e13          	slli	x28,x5,0x5
 260:	00259e93          	slli	x29,x11,0x2
 264:	4039df13          	srai	x30,x19,0x3
 268:	002f9493          	slli	x9,x31,0x2
 26c:	016037b3          	snez	x15,x22
 270:	017030b3          	snez	x1,x23
 274:	ed542c23          	sw	x21,-296(x8)
 278:	f5842223          	sw	x24,-188(x8)
 27c:	edb42a23          	sw	x27,-300(x8)
 280:	efa42423          	sw	x26,-280(x8)
 284:	edc42823          	sw	x28,-304(x8)
 288:	edd42623          	sw	x29,-308(x8)
 28c:	f3e42a23          	sw	x30,-204(x8)
 290:	ec942423          	sw	x9,-312(x8)
 294:	ecf42223          	sw	x15,-316(x8)
 298:	ed542023          	sw	x21,-320(x8)
 29c:	ea142e23          	sw	x1,-324(x8)

000002a0 <.L76>:
 2a0:	f0442583          	lw	x11,-252(x8)
 2a4:	efc42703          	lw	x14,-260(x8)
 2a8:	ed442303          	lw	x6,-300(x8)
 2ac:	ec242e23          	sw	x2,-292(x8)
 2b0:	02e5d533          	divu	x10,x11,x14
 2b4:	02e5f633          	remu	x12,x11,x14
 2b8:	eea42623          	sw	x10,-276(x8)
 2bc:	f0c42023          	sw	x12,-256(x8)
 2c0:	2c6508e3          	beq	x10,x6,d90 <.L152>
 2c4:	f0042383          	lw	x7,-256(x8)
 2c8:	ee842a03          	lw	x20,-280(x8)
 2cc:	2f438ae3          	beq	x7,x20,dc0 <.L98>
 2d0:	00800693          	li	x13,8
 2d4:	10000613          	li	x12,256
 2d8:	00000913          	li	x18,0
 2dc:	f2d42e23          	sw	x13,-196(x8)

000002e0 <.L99>:
 2e0:	00800493          	li	x9,8

000002e4 <.L30>:
 2e4:	00f60e13          	addi	x28,x12,15
 2e8:	ff0e7e93          	andi	x29,x28,-16
 2ec:	41d10133          	sub	x2,x2,x29
 2f0:	00010513          	mv	x10,x2
 2f4:	00000593          	li	x11,0
 2f8:	f4a42023          	sw	x10,-192(x8)
 2fc:	00000097          	auipc	x1,0x0
 300:	000080e7          	jalr	x1 # 2fc <.L30+0x18>
 304:	f0842f03          	lw	x30,-248(x8)
 308:	29e05663          	blez	x30,594 <.L33>
 30c:	f3c42f83          	lw	x31,-196(x8)
 310:	000f8293          	mv	x5,x31
 314:	005f9093          	slli	x1,x31,0x5

00000318 <.L32>:
 318:	ec842783          	lw	x15,-312(x8)
 31c:	00349a93          	slli	x21,x9,0x3
 320:	f0042583          	lw	x11,-256(x8)
 324:	02578733          	mul	x14,x15,x5
 328:	eec42a03          	lw	x20,-276(x8)
 32c:	409a8cb3          	sub	x25,x21,x9
 330:	f4442f83          	lw	x31,-188(x8)
 334:	002c9d13          	slli	x26,x25,0x2
 338:	f3c42c83          	lw	x25,-196(x8)
 33c:	00359613          	slli	x12,x11,0x3
 340:	003a1693          	slli	x13,x20,0x3
 344:	00249e93          	slli	x29,x9,0x2
 348:	fff48313          	addi	x6,x9,-1
 34c:	02f48c33          	mul	x24,x9,x15
 350:	00149513          	slli	x10,x9,0x1
 354:	00f70e13          	addi	x28,x14,15
 358:	009503b3          	add	x7,x10,x9
 35c:	009e8db3          	add	x27,x29,x9
 360:	ff837893          	andi	x17,x6,-8
 364:	00860813          	addi	x16,x12,8
 368:	ffff8293          	addi	x5,x31,-1
 36c:	00dc87b3          	add	x15,x25,x13
 370:	ee142a23          	sw	x1,-268(x8)
 374:	00fc0f13          	addi	x30,x24,15 # fc000f <.L105+0xfbf1f7>
 378:	00549093          	slli	x1,x9,0x5
 37c:	ff0e7713          	andi	x14,x28,-16
 380:	ff0f7593          	andi	x11,x30,-16
 384:	002d9a13          	slli	x20,x27,0x2
 388:	f2c42423          	sw	x12,-216(x8)
 38c:	f2d42223          	sw	x13,-220(x8)
 390:	010889b3          	add	x19,x17,x16
 394:	00239b93          	slli	x23,x7,0x2
 398:	00449b13          	slli	x22,x9,0x4
 39c:	00339d93          	slli	x27,x7,0x3
 3a0:	00000c13          	li	x24,0
 3a4:	f4042623          	sw	x0,-180(x8)
 3a8:	f2542823          	sw	x5,-208(x8)
 3ac:	f2f42023          	sw	x15,-224(x8)
 3b0:	ee142823          	sw	x1,-272(x8)
 3b4:	eee42223          	sw	x14,-284(x8)
 3b8:	eeb42023          	sw	x11,-288(x8)

000003bc <.L75>:
 3bc:	f3442603          	lw	x12,-204(x8)
 3c0:	f4c42303          	lw	x6,-180(x8)
 3c4:	1cc35863          	bge	x6,x12,594 <.L33>
 3c8:	f3042503          	lw	x10,-208(x8)
 3cc:	f4242423          	sw	x2,-184(x8)
 3d0:	166508e3          	beq	x10,x6,d40 <.L34>
 3d4:	66090863          	beqz	x18,a44 <.L36>
 3d8:	00800093          	li	x1,8

000003dc <.L35>:
 3dc:	021c8733          	mul	x14,x25,x1
 3e0:	f5c42803          	lw	x16,-164(x8)
 3e4:	f6442e03          	lw	x28,-156(x8)
 3e8:	02148f33          	mul	x30,x9,x1
 3ec:	00271313          	slli	x6,x14,0x2
 3f0:	00f30893          	addi	x17,x6,15
 3f4:	ff08ff93          	andi	x31,x17,-16
 3f8:	41f10133          	sub	x2,x2,x31
 3fc:	00010913          	mv	x18,x2
 400:	002f1593          	slli	x11,x30,0x2
 404:	00f58693          	addi	x13,x11,15
 408:	ff06f393          	andi	x7,x13,-16
 40c:	40710133          	sub	x2,x2,x7
 410:	00010513          	mv	x10,x2
 414:	179052e3          	blez	x25,d78 <.L41>

00000418 <.L155>:
 418:	f2442583          	lw	x11,-220(x8)
 41c:	f2042f03          	lw	x30,-224(x8)
 420:	00209293          	slli	x5,x1,0x2
 424:	00590633          	add	x12,x18,x5
 428:	00000313          	li	x6,0

0000042c <.L44>:
 42c:	04105063          	blez	x1,46c <.L45>
 430:	00482883          	lw	x17,4(x16)
 434:	00082703          	lw	x14,0(x16)
 438:	00231793          	slli	x15,x6,0x2
 43c:	03888fb3          	mul	x31,x17,x24
 440:	00289693          	slli	x13,x17,0x2
 444:	00f907b3          	add	x15,x18,x15
 448:	02e583b3          	mul	x7,x11,x14
 44c:	01f388b3          	add	x17,x7,x31
 450:	00289713          	slli	x14,x17,0x2
 454:	00ee0fb3          	add	x31,x28,x14

00000458 <.L46>:
 458:	000fae07          	flw	f28,0(x31)
 45c:	00478793          	addi	x15,x15,4
 460:	00df8fb3          	add	x31,x31,x13
 464:	ffc7ae27          	fsw	f28,-4(x15)
 468:	fef618e3          	bne	x12,x15,458 <.L46>

0000046c <.L45>:
 46c:	00158593          	addi	x11,x11,1
 470:	00130333          	add	x6,x6,x1
 474:	00560633          	add	x12,x12,x5
 478:	fabf1ae3          	bne	x30,x11,42c <.L44>
 47c:	f8042803          	lw	x16,-128(x8)
 480:	f8842e03          	lw	x28,-120(x8)
 484:	06105863          	blez	x1,4f4 <.L50>

00000488 <.L48>:
 488:	f2842f03          	lw	x30,-216(x8)
 48c:	01d50633          	add	x12,x10,x29
 490:	00000313          	li	x6,0
 494:	00000593          	li	x11,0

00000498 <.L53>:
 498:	04905263          	blez	x9,4dc <.L54>
 49c:	00482683          	lw	x13,4(x16)
 4a0:	00082383          	lw	x7,0(x16)
 4a4:	018588b3          	add	x17,x11,x24
 4a8:	02df02b3          	mul	x5,x30,x13
 4ac:	00269f93          	slli	x31,x13,0x2
 4b0:	00231713          	slli	x14,x6,0x2
 4b4:	00e507b3          	add	x15,x10,x14
 4b8:	027886b3          	mul	x13,x17,x7
 4bc:	005683b3          	add	x7,x13,x5
 4c0:	00239893          	slli	x17,x7,0x2
 4c4:	011e02b3          	add	x5,x28,x17

000004c8 <.L55>:
 4c8:	0002ae87          	flw	f29,0(x5)
 4cc:	00478793          	addi	x15,x15,4
 4d0:	01f282b3          	add	x5,x5,x31
 4d4:	ffd7ae27          	fsw	f29,-4(x15)
 4d8:	fef618e3          	bne	x12,x15,4c8 <.L55>

000004dc <.L54>:
 4dc:	00158593          	addi	x11,x11,1
 4e0:	00930333          	add	x6,x6,x9
 4e4:	01d60633          	add	x12,x12,x29
 4e8:	fa15c8e3          	blt	x11,x1,498 <.L53>
 4ec:	09905463          	blez	x25,574 <.L49>
 4f0:	00209293          	slli	x5,x1,0x2

000004f4 <.L50>:
 4f4:	f4042803          	lw	x16,-192(x8)
 4f8:	005906b3          	add	x13,x18,x5
 4fc:	00000f93          	li	x31,0
 500:	00000f13          	li	x30,0
 504:	00000e13          	li	x28,0

00000508 <.L58>:
 508:	002f1713          	slli	x14,x30,0x2
 50c:	00e80633          	add	x12,x16,x14
 510:	00000593          	li	x11,0
 514:	002f9393          	slli	x7,x31,0x2
 518:	04905463          	blez	x9,560 <.L61>

0000051c <.L62>:
 51c:	00062107          	flw	f2,0(x12)
 520:	02105863          	blez	x1,550 <.L59>
 524:	f00001d3          	fmv.w.x	f3,x0
 528:	00259893          	slli	x17,x11,0x2
 52c:	007907b3          	add	x15,x18,x7
 530:	01150333          	add	x6,x10,x17

00000534 <.L60>:
 534:	0007af07          	flw	f30,0(x15)
 538:	00032f87          	flw	f31,0(x6)
 53c:	00478793          	addi	x15,x15,4
 540:	01d30333          	add	x6,x6,x29
 544:	19ff71c3          	fmadd.s	f3,f30,f31,f3
 548:	fef696e3          	bne	x13,x15,534 <.L60>
 54c:	00317153          	fadd.s	f2,f2,f3

00000550 <.L59>:
 550:	00262027          	fsw	f2,0(x12)
 554:	00158593          	addi	x11,x11,1
 558:	00460613          	addi	x12,x12,4
 55c:	fc9590e3          	bne	x11,x9,51c <.L62>

00000560 <.L61>:
 560:	001e0e13          	addi	x28,x28,1
 564:	009f0f33          	add	x30,x30,x9
 568:	001f8fb3          	add	x31,x31,x1
 56c:	005686b3          	add	x13,x13,x5
 570:	f99e4ce3          	blt	x28,x25,508 <.L58>

00000574 <.L49>:
 574:	00100913          	li	x18,1
 578:	008c0c13          	addi	x24,x24,8

0000057c <.L56>:
 57c:	f4c42083          	lw	x1,-180(x8)
 580:	00108513          	addi	x10,x1,1
 584:	f4a42623          	sw	x10,-180(x8)
 588:	f4442283          	lw	x5,-188(x8)
 58c:	f4842103          	lw	x2,-184(x8)
 590:	e25546e3          	blt	x10,x5,3bc <.L75>

00000594 <.L33>:
 594:	f3c42c03          	lw	x24,-196(x8)
 598:	09805263          	blez	x24,61c <.L78>

0000059c <.L31>:
 59c:	eec42e83          	lw	x29,-276(x8)
 5a0:	fa442c83          	lw	x25,-92(x8)
 5a4:	fac42903          	lw	x18,-84(x8)
 5a8:	f0042a03          	lw	x20,-256(x8)
 5ac:	f4042a83          	lw	x21,-192(x8)
 5b0:	f3c42b03          	lw	x22,-196(x8)
 5b4:	003e9993          	slli	x19,x29,0x3
 5b8:	00000693          	li	x13,0
 5bc:	00000593          	li	x11,0

000005c0 <.L79>:
 5c0:	04905863          	blez	x9,610 <.L80>
 5c4:	004cab83          	lw	x23,4(x25)
 5c8:	000cad03          	lw	x26,0(x25)
 5cc:	01358db3          	add	x27,x11,x19
 5d0:	037a0833          	mul	x16,x20,x23
 5d4:	00269713          	slli	x14,x13,0x2
 5d8:	00ea8f33          	add	x30,x21,x14
 5dc:	002b9393          	slli	x7,x23,0x2
 5e0:	00000e13          	li	x28,0
 5e4:	03ad88b3          	mul	x17,x27,x26
 5e8:	00381793          	slli	x15,x16,0x3
 5ec:	00f88333          	add	x6,x17,x15
 5f0:	00231613          	slli	x12,x6,0x2
 5f4:	00c90fb3          	add	x31,x18,x12

000005f8 <.L81>:
 5f8:	000f2087          	flw	f1,0(x30)
 5fc:	001e0e13          	addi	x28,x28,1
 600:	004f0f13          	addi	x30,x30,4
 604:	001fa027          	fsw	f1,0(x31)
 608:	007f8fb3          	add	x31,x31,x7
 60c:	fe9e16e3          	bne	x28,x9,5f8 <.L81>

00000610 <.L80>:
 610:	00158593          	addi	x11,x11,1
 614:	009686b3          	add	x13,x13,x9
 618:	fb65c4e3          	blt	x11,x22,5c0 <.L79>

0000061c <.L78>:
 61c:	f0442483          	lw	x9,-252(x8)
 620:	00148093          	addi	x1,x9,1
 624:	f0142223          	sw	x1,-252(x8)
 628:	ef842503          	lw	x10,-264(x8)
 62c:	edc42103          	lw	x2,-292(x8)
 630:	c61518e3          	bne	x10,x1,2a0 <.L76>

00000634 <.L26>:
 634:	00000cb7          	lui	x25,0x0
 638:	00000a37          	lui	x20,0x0
 63c:	000002b7          	lui	x5,0x0
 640:	00000eb7          	lui	x29,0x0
 644:	0002ac03          	lw	x24,0(x5) # 0 <tensorlib_mm>
 648:	000ca903          	lw	x18,0(x25) # 0 <tensorlib_mm>
 64c:	000ea983          	lw	x19,0(x29) # 0 <tensorlib_mm>
 650:	000a2a83          	lw	x21,0(x20) # 0 <tensorlib_mm>
 654:	00000b37          	lui	x22,0x0
 658:	000b2b83          	lw	x23,0(x22) # 0 <tensorlib_mm>
 65c:	012c0d33          	add	x26,x24,x18
 660:	01598db3          	add	x27,x19,x21
 664:	018d1813          	slli	x16,x26,0x18
 668:	00fc07b7          	lui	x15,0xfc0
 66c:	012d9713          	slli	x14,x27,0x12
 670:	3f0003b7          	lui	x7,0x3f000
 674:	00040f37          	lui	x30,0x40
 678:	00f77333          	and	x6,x14,x15
 67c:	004b9613          	slli	x12,x23,0x4
 680:	007878b3          	and	x17,x16,x7
 684:	ff0f0f93          	addi	x31,x30,-16 # 3fff0 <.L105+0x3f1d8>
 688:	0068ee33          	or	x28,x17,x6
 68c:	01f675b3          	and	x11,x12,x31
 690:	00be66b3          	or	x13,x28,x11
 694:	c00004b7          	lui	x9,0xc0000
 698:	0096e0b3          	or	x1,x13,x9
 69c:	41001537          	lui	x10,0x41001
 6a0:	d0152623          	sw	x1,-756(x10) # 41000d0c <.L105+0x40fffef4>
 6a4:	000a2283          	lw	x5,0(x20)
 6a8:	000cac03          	lw	x24,0(x25)
 6ac:	00000cb7          	lui	x25,0x0
 6b0:	00428913          	addi	x18,x5,4
 6b4:	000c8793          	mv	x15,x25
 6b8:	01278eb3          	add	x29,x15,x18
 6bc:	018c1993          	slli	x19,x24,0x18
 6c0:	013eeab3          	or	x21,x29,x19
 6c4:	20040b37          	lui	x22,0x20040
 6c8:	016aebb3          	or	x23,x21,x22
 6cc:	00100d13          	li	x26,1
 6d0:	01ab8023          	sb	x26,0(x23)
 6d4:	000a2a03          	lw	x20,0(x20)
 6d8:	1baa0463          	beq	x20,x26,880 <.L82>

000006dc <.L93>:
 6dc:	00100813          	li	x16,1
 6e0:	0100006f          	j	6f0 <.L97>

000006e4 <.L153>:
 6e4:	000c8593          	mv	x11,x25
 6e8:	1405a6af          	lr.w.aq	x13,(x11)
 6ec:	01068863          	beq	x13,x16,6fc <.L96>

000006f0 <.L97>:
 6f0:	000c8713          	mv	x14,x25
 6f4:	10072faf          	lr.w	x31,(x14)
 6f8:	ff0f96e3          	bne	x31,x16,6e4 <.L153>

000006fc <.L96>:
 6fc:	0007a023          	sw	x0,0(x15) # fc0000 <.L105+0xfbf1e8>
 700:	eb040113          	addi	x2,x8,-336
 704:	14c12083          	lw	x1,332(x2)
 708:	14812403          	lw	x8,328(x2)
 70c:	14412483          	lw	x9,324(x2)
 710:	14012903          	lw	x18,320(x2)
 714:	13c12983          	lw	x19,316(x2)
 718:	13812a03          	lw	x20,312(x2)
 71c:	13412a83          	lw	x21,308(x2)
 720:	13012b03          	lw	x22,304(x2)
 724:	12c12b83          	lw	x23,300(x2)
 728:	12812c03          	lw	x24,296(x2)
 72c:	12412c83          	lw	x25,292(x2)
 730:	12012d03          	lw	x26,288(x2)
 734:	11c12d83          	lw	x27,284(x2)
 738:	00000513          	li	x10,0
 73c:	15010113          	addi	x2,x2,336
 740:	00008067          	ret

00000744 <.L148>:
 744:	000002b7          	lui	x5,0x0
 748:	00000537          	lui	x10,0x0
 74c:	00050593          	mv	x11,x10
 750:	06b00613          	li	x12,107
 754:	00028513          	mv	x10,x5
 758:	00000097          	auipc	x1,0x0
 75c:	000080e7          	jalr	x1 # 758 <.L148+0x14>
 760:	f5842583          	lw	x11,-168(x8)
 764:	00000637          	lui	x12,0x0
 768:	00060513          	mv	x10,x12
 76c:	00000097          	auipc	x1,0x0
 770:	000080e7          	jalr	x1 # 76c <.L148+0x28>
 774:	00000c37          	lui	x24,0x0
 778:	000c2903          	lw	x18,0(x24) # 0 <tensorlib_mm>
 77c:	00000eb7          	lui	x29,0x0
 780:	000ea983          	lw	x19,0(x29) # 0 <tensorlib_mm>
 784:	01091793          	slli	x15,x18,0x10
 788:	4100fb37          	lui	x22,0x4100f
 78c:	01378ab3          	add	x21,x15,x19
 790:	ad5b2c23          	sw	x21,-1320(x22) # 4100ead8 <.L105+0x4100dcc0>

00000794 <.L13>:
 794:	0000006f          	j	794 <.L13>

00000798 <.L147>:
 798:	000000b7          	lui	x1,0x0
 79c:	00000bb7          	lui	x23,0x0
 7a0:	00008593          	mv	x11,x1
 7a4:	06b00613          	li	x12,107
 7a8:	000b8513          	mv	x10,x23
 7ac:	00000097          	auipc	x1,0x0
 7b0:	000080e7          	jalr	x1 # 7ac <.L147+0x14>
 7b4:	f5842583          	lw	x11,-168(x8)
 7b8:	00000d37          	lui	x26,0x0
 7bc:	000d0513          	mv	x10,x26
 7c0:	00000097          	auipc	x1,0x0
 7c4:	000080e7          	jalr	x1 # 7c0 <.L147+0x28>
 7c8:	00000a37          	lui	x20,0x0
 7cc:	000a2d83          	lw	x27,0(x20) # 0 <tensorlib_mm>
 7d0:	000003b7          	lui	x7,0x0
 7d4:	0003ae03          	lw	x28,0(x7) # 0 <tensorlib_mm>
 7d8:	010d9313          	slli	x6,x27,0x10
 7dc:	4100f8b7          	lui	x17,0x4100f
 7e0:	01c30f33          	add	x30,x6,x28
 7e4:	ade8ac23          	sw	x30,-1320(x17) # 4100ead8 <.L105+0x4100dcc0>

000007e8 <.L11>:
 7e8:	0000006f          	j	7e8 <.L11>

000007ec <.L151>:
 7ec:	00000cb7          	lui	x25,0x0
 7f0:	000004b7          	lui	x9,0x0
 7f4:	01e00613          	li	x12,30
 7f8:	000c8593          	mv	x11,x25
 7fc:	00048513          	mv	x10,x9
 800:	00000097          	auipc	x1,0x0
 804:	000080e7          	jalr	x1 # 800 <.L151+0x14>
 808:	00000637          	lui	x12,0x0
 80c:	00062503          	lw	x10,0(x12) # 0 <tensorlib_mm>
 810:	000002b7          	lui	x5,0x0
 814:	0002ac03          	lw	x24,0(x5) # 0 <tensorlib_mm>
 818:	01051913          	slli	x18,x10,0x10
 81c:	4100f9b7          	lui	x19,0x4100f
 820:	01890eb3          	add	x29,x18,x24
 824:	add9ac23          	sw	x29,-1320(x19) # 4100ead8 <.L105+0x4100dcc0>

00000828 <.L19>:
 828:	0000006f          	j	828 <.L19>

0000082c <.L149>:
 82c:	00000337          	lui	x6,0x0
 830:	00000f37          	lui	x30,0x0
 834:	00030593          	mv	x11,x6
 838:	06b00613          	li	x12,107
 83c:	000f0513          	mv	x10,x30
 840:	00000097          	auipc	x1,0x0
 844:	000080e7          	jalr	x1 # 840 <.L149+0x14>
 848:	f7c42583          	lw	x11,-132(x8)
 84c:	000008b7          	lui	x17,0x0
 850:	00088513          	mv	x10,x17
 854:	00000097          	auipc	x1,0x0
 858:	000080e7          	jalr	x1 # 854 <.L149+0x28>
 85c:	00000837          	lui	x16,0x0
 860:	00082f83          	lw	x31,0(x16) # 0 <tensorlib_mm>
 864:	00000737          	lui	x14,0x0
 868:	00072583          	lw	x11,0(x14) # 0 <tensorlib_mm>
 86c:	010f9693          	slli	x13,x31,0x10
 870:	4100f4b7          	lui	x9,0x4100f
 874:	00b68cb3          	add	x25,x13,x11
 878:	ad94ac23          	sw	x25,-1320(x9) # 4100ead8 <.L105+0x4100dcc0>

0000087c <.L15>:
 87c:	0000006f          	j	87c <.L15>

00000880 <.L82>:
 880:	0047cd83          	lbu	x27,4(x15)
 884:	0ffdf813          	andi	x16,x27,255
 888:	fe080ce3          	beqz	x16,880 <.L82>
 88c:	0057c703          	lbu	x14,5(x15)
 890:	0ff77393          	andi	x7,x14,255
 894:	fe0386e3          	beqz	x7,880 <.L82>
 898:	0067c883          	lbu	x17,6(x15)
 89c:	0ff8f313          	andi	x6,x17,255
 8a0:	fe0300e3          	beqz	x6,880 <.L82>
 8a4:	0077c603          	lbu	x12,7(x15)
 8a8:	0ff67e13          	andi	x28,x12,255
 8ac:	fc0e0ae3          	beqz	x28,880 <.L82>
 8b0:	00000f37          	lui	x30,0x0
 8b4:	000f2f83          	lw	x31,0(x30) # 0 <tensorlib_mm>
 8b8:	210400b7          	lui	x1,0x21040
 8bc:	00100593          	li	x11,1
 8c0:	00cf8693          	addi	x13,x31,12
 8c4:	00d784b3          	add	x9,x15,x13
 8c8:	0014e533          	or	x10,x9,x1
 8cc:	00b50023          	sb	x11,0(x10) # 0 <tensorlib_mm>
 8d0:	000002b7          	lui	x5,0x0
 8d4:	0002ac03          	lw	x24,0(x5) # 0 <tensorlib_mm>
 8d8:	e0bc12e3          	bne	x24,x11,6dc <.L93>
 8dc:	000f2503          	lw	x10,0(x30)
 8e0:	0d850863          	beq	x10,x24,9b0 <.L87>

000008e4 <.L92>:
 8e4:	00100293          	li	x5,1
 8e8:	0100006f          	j	8f8 <.L86>

000008ec <.L154>:
 8ec:	00878e93          	addi	x29,x15,8
 8f0:	140ea9af          	lr.w.aq	x19,(x29)
 8f4:	00598863          	beq	x19,x5,904 <.L94>

000008f8 <.L86>:
 8f8:	00878c13          	addi	x24,x15,8
 8fc:	100c292f          	lr.w	x18,(x24)
 900:	fe5916e3          	bne	x18,x5,8ec <.L154>

00000904 <.L94>:
 904:	0007a423          	sw	x0,8(x15)
 908:	00078223          	sb	x0,4(x15)
 90c:	000782a3          	sb	x0,5(x15)
 910:	00078323          	sb	x0,6(x15)
 914:	000783a3          	sb	x0,7(x15)
 918:	0007a023          	sw	x0,0(x15)
 91c:	00000e13          	li	x28,0
 920:	000c8793          	mv	x15,x25
 924:	20000ab7          	lui	x21,0x20000
 928:	00100b13          	li	x22,1
 92c:	00040bb7          	lui	x23,0x40
 930:	00100d37          	lui	x26,0x100

00000934 <.L95>:
 934:	00000a37          	lui	x20,0x0
 938:	000a2d83          	lw	x27,0(x20) # 0 <tensorlib_mm>
 93c:	01c7e3b3          	or	x7,x15,x28
 940:	017e0e33          	add	x28,x28,x23
 944:	018d9313          	slli	x6,x27,0x18
 948:	00736f33          	or	x30,x6,x7
 94c:	015f68b3          	or	x17,x30,x21
 950:	0168a023          	sw	x22,0(x17) # 0 <tensorlib_mm>
 954:	ffae10e3          	bne	x28,x26,934 <.L95>
 958:	d85ff06f          	j	6dc <.L93>

0000095c <.L150>:
 95c:	000000b7          	lui	x1,0x0
 960:	000007b7          	lui	x15,0x0
 964:	00008593          	mv	x11,x1
 968:	06b00613          	li	x12,107
 96c:	00078513          	mv	x10,x15
 970:	00000097          	auipc	x1,0x0
 974:	000080e7          	jalr	x1 # 970 <.L150+0x14>
 978:	f7c42583          	lw	x11,-132(x8)
 97c:	00000ab7          	lui	x21,0x0
 980:	000a8513          	mv	x10,x21
 984:	00000b37          	lui	x22,0x0
 988:	00000097          	auipc	x1,0x0
 98c:	000080e7          	jalr	x1 # 988 <.L150+0x2c>
 990:	00000d37          	lui	x26,0x0
 994:	000b2b83          	lw	x23,0(x22) # 0 <tensorlib_mm>
 998:	000d2a03          	lw	x20,0(x26) # 0 <tensorlib_mm>
 99c:	4100fe37          	lui	x28,0x4100f
 9a0:	010b9d93          	slli	x27,x23,0x10
 9a4:	014d83b3          	add	x7,x27,x20
 9a8:	ac7e2c23          	sw	x7,-1320(x28) # 4100ead8 <.L105+0x4100dcc0>

000009ac <.L17>:
 9ac:	0000006f          	j	9ac <.L17>

000009b0 <.L87>:
 9b0:	00c7c903          	lbu	x18,12(x15) # c <tensorlib_mm+0xc>
 9b4:	0ff97e93          	andi	x29,x18,255
 9b8:	fe0e8ce3          	beqz	x29,9b0 <.L87>
 9bc:	00d7c983          	lbu	x19,13(x15)
 9c0:	0ff9fa93          	andi	x21,x19,255
 9c4:	fe0a86e3          	beqz	x21,9b0 <.L87>
 9c8:	00e7cb03          	lbu	x22,14(x15)
 9cc:	0ffb7b93          	andi	x23,x22,255
 9d0:	fe0b80e3          	beqz	x23,9b0 <.L87>
 9d4:	00f7cd03          	lbu	x26,15(x15)
 9d8:	0ffd7a13          	andi	x20,x26,255
 9dc:	fc0a0ae3          	beqz	x20,9b0 <.L87>
 9e0:	00078623          	sb	x0,12(x15)
 9e4:	000786a3          	sb	x0,13(x15)
 9e8:	00078723          	sb	x0,14(x15)
 9ec:	000787a3          	sb	x0,15(x15)
 9f0:	00000db7          	lui	x27,0x0
 9f4:	0007a423          	sw	x0,8(x15)
 9f8:	00000613          	li	x12,0
 9fc:	008d8393          	addi	x7,x27,8 # 8 <tensorlib_mm+0x8>
 a00:	03fc0e37          	lui	x28,0x3fc0
 a04:	20000337          	lui	x6,0x20000
 a08:	00100f13          	li	x30,1
 a0c:	010008b7          	lui	x17,0x1000
 a10:	04000837          	lui	x16,0x4000

00000a14 <.L91>:
 a14:	01251713          	slli	x14,x10,0x12
 a18:	00c3efb3          	or	x31,x7,x12
 a1c:	01c775b3          	and	x11,x14,x28
 a20:	01f5e6b3          	or	x13,x11,x31
 a24:	0066e4b3          	or	x9,x13,x6
 a28:	01e4a023          	sw	x30,0(x9)
 a2c:	000000b7          	lui	x1,0x0
 a30:	01160633          	add	x12,x12,x17
 a34:	0000a503          	lw	x10,0(x1) # 0 <tensorlib_mm>
 a38:	fd061ee3          	bne	x12,x16,a14 <.L91>
 a3c:	ebe504e3          	beq	x10,x30,8e4 <.L92>
 a40:	c9dff06f          	j	6dc <.L93>

00000a44 <.L36>:
 a44:	ef442683          	lw	x13,-268(x8)
 a48:	ef042883          	lw	x17,-272(x8)
 a4c:	f5c42283          	lw	x5,-164(x8)
 a50:	40d10133          	sub	x2,x2,x13
 a54:	00010693          	mv	x13,x2
 a58:	41110133          	sub	x2,x2,x17
 a5c:	f0d42a23          	sw	x13,-236(x8)
 a60:	f2242c23          	sw	x2,-200(x8)
 a64:	f6442e03          	lw	x28,-156(x8)
 a68:	f2442f03          	lw	x30,-220(x8)
 a6c:	0f905063          	blez	x25,b4c <.L63>
 a70:	f2042083          	lw	x1,-224(x8)

00000a74 <.L64>:
 a74:	0042a783          	lw	x15,4(x5)
 a78:	0002a803          	lw	x16,0(x5)
 a7c:	03878733          	mul	x14,x15,x24
 a80:	030f05b3          	mul	x11,x30,x16
 a84:	00e78fb3          	add	x31,x15,x14
 a88:	01f78633          	add	x12,x15,x31
 a8c:	00c78933          	add	x18,x15,x12
 a90:	01278833          	add	x16,x15,x18
 a94:	01078533          	add	x10,x15,x16
 a98:	00a783b3          	add	x7,x15,x10
 a9c:	00f587b3          	add	x15,x11,x15
 aa0:	00c58333          	add	x6,x11,x12
 aa4:	012588b3          	add	x17,x11,x18
 aa8:	00a58533          	add	x10,x11,x10
 aac:	01058933          	add	x18,x11,x16
 ab0:	00e58733          	add	x14,x11,x14
 ab4:	01f58fb3          	add	x31,x11,x31
 ab8:	007585b3          	add	x11,x11,x7
 abc:	007783b3          	add	x7,x15,x7
 ac0:	00291813          	slli	x16,x18,0x2
 ac4:	00259613          	slli	x12,x11,0x2
 ac8:	00239793          	slli	x15,x7,0x2
 acc:	00271713          	slli	x14,x14,0x2
 ad0:	002f9f93          	slli	x31,x31,0x2
 ad4:	00231313          	slli	x6,x6,0x2
 ad8:	00289893          	slli	x17,x17,0x2
 adc:	00251913          	slli	x18,x10,0x2
 ae0:	00ee05b3          	add	x11,x28,x14
 ae4:	01fe03b3          	add	x7,x28,x31
 ae8:	006e0733          	add	x14,x28,x6
 aec:	011e0fb3          	add	x31,x28,x17
 af0:	010e0333          	add	x6,x28,x16
 af4:	012e0533          	add	x10,x28,x18
 af8:	00ce08b3          	add	x17,x28,x12
 afc:	00fe0833          	add	x16,x28,x15
 b00:	0005a087          	flw	f1,0(x11)
 b04:	0003a007          	flw	f0,0(x7)
 b08:	00072507          	flw	f10,0(x14)
 b0c:	000fa587          	flw	f11,0(x31)
 b10:	00032607          	flw	f12,0(x6) # 20000000 <.L105+0x1ffff1e8>
 b14:	00052687          	flw	f13,0(x10)
 b18:	0008a707          	flw	f14,0(x17) # 1000000 <.L105+0xfff1e8>
 b1c:	00082787          	flw	f15,0(x16) # 4000000 <.L105+0x3fff1e8>
 b20:	0016a027          	fsw	f1,0(x13)
 b24:	0006a227          	fsw	f0,4(x13)
 b28:	00a6a427          	fsw	f10,8(x13)
 b2c:	00b6a627          	fsw	f11,12(x13)
 b30:	00c6a827          	fsw	f12,16(x13)
 b34:	00d6aa27          	fsw	f13,20(x13)
 b38:	00e6ac27          	fsw	f14,24(x13)
 b3c:	00f6ae27          	fsw	f15,28(x13)
 b40:	001f0f13          	addi	x30,x30,1
 b44:	02068693          	addi	x13,x13,32
 b48:	f3e096e3          	bne	x1,x30,a74 <.L64>

00000b4c <.L63>:
 b4c:	f1942623          	sw	x25,-244(x8)
 b50:	f8042283          	lw	x5,-128(x8)
 b54:	f8842e03          	lw	x28,-120(x8)
 b58:	f2842083          	lw	x1,-216(x8)
 b5c:	f3842c83          	lw	x25,-200(x8)
 b60:	000c0393          	mv	x7,x24
 b64:	00000913          	li	x18,0
 b68:	008c0c13          	addi	x24,x24,8
 b6c:	f1d42823          	sw	x29,-240(x8)

00000b70 <.L39>:
 b70:	00291e93          	slli	x29,x18,0x2
 b74:	01dc86b3          	add	x13,x25,x29
 b78:	00008e93          	mv	x29,x1
 b7c:	0c905e63          	blez	x9,c58 <.L67>

00000b80 <.L68>:
 b80:	0042a783          	lw	x15,4(x5)
 b84:	0002a603          	lw	x12,0(x5)
 b88:	03d78fb3          	mul	x31,x15,x29
 b8c:	02c38733          	mul	x14,x7,x12
 b90:	01f788b3          	add	x17,x15,x31
 b94:	01178833          	add	x16,x15,x17
 b98:	01078533          	add	x10,x15,x16
 b9c:	00a785b3          	add	x11,x15,x10
 ba0:	00b78633          	add	x12,x15,x11
 ba4:	00c78f33          	add	x30,x15,x12
 ba8:	00f707b3          	add	x15,x14,x15
 bac:	01f70333          	add	x6,x14,x31
 bb0:	01070833          	add	x16,x14,x16
 bb4:	01170fb3          	add	x31,x14,x17
 bb8:	00a70533          	add	x10,x14,x10
 bbc:	00b705b3          	add	x11,x14,x11
 bc0:	00c70633          	add	x12,x14,x12
 bc4:	01e70733          	add	x14,x14,x30
 bc8:	01e78f33          	add	x30,x15,x30
 bcc:	002f9893          	slli	x17,x31,0x2
 bd0:	002f1793          	slli	x15,x30,0x2
 bd4:	00231313          	slli	x6,x6,0x2
 bd8:	00281f93          	slli	x31,x16,0x2
 bdc:	00251513          	slli	x10,x10,0x2
 be0:	00259593          	slli	x11,x11,0x2
 be4:	00261613          	slli	x12,x12,0x2
 be8:	00271713          	slli	x14,x14,0x2
 bec:	006e0f33          	add	x30,x28,x6
 bf0:	01fe0833          	add	x16,x28,x31
 bf4:	011e0333          	add	x6,x28,x17
 bf8:	00be0fb3          	add	x31,x28,x11
 bfc:	00ae08b3          	add	x17,x28,x10
 c00:	00ee05b3          	add	x11,x28,x14
 c04:	00ce0533          	add	x10,x28,x12
 c08:	00fe0633          	add	x12,x28,x15
 c0c:	000f2107          	flw	f2,0(x30)
 c10:	00032187          	flw	f3,0(x6)
 c14:	00082207          	flw	f4,0(x16)
 c18:	0008a287          	flw	f5,0(x17)
 c1c:	000fa307          	flw	f6,0(x31)
 c20:	00052387          	flw	f7,0(x10)
 c24:	0005a807          	flw	f16,0(x11)
 c28:	00062887          	flw	f17,0(x12)
 c2c:	0026a027          	fsw	f2,0(x13)
 c30:	0036a227          	fsw	f3,4(x13)
 c34:	0046a427          	fsw	f4,8(x13)
 c38:	0056a627          	fsw	f5,12(x13)
 c3c:	0066a827          	fsw	f6,16(x13)
 c40:	0076aa27          	fsw	f7,20(x13)
 c44:	0106ac27          	fsw	f16,24(x13)
 c48:	0116ae27          	fsw	f17,28(x13)
 c4c:	008e8e93          	addi	x29,x29,8
 c50:	02068693          	addi	x13,x13,32
 c54:	f3d996e3          	bne	x19,x29,b80 <.L68>

00000c58 <.L67>:
 c58:	00138393          	addi	x7,x7,1
 c5c:	00990933          	add	x18,x18,x9
 c60:	f07c18e3          	bne	x24,x7,b70 <.L39>
 c64:	f0c42c83          	lw	x25,-244(x8)
 c68:	f1042e83          	lw	x29,-240(x8)
 c6c:	0d905663          	blez	x25,d38 <.L71>
 c70:	f3842283          	lw	x5,-200(x8)
 c74:	f1442603          	lw	x12,-236(x8)
 c78:	f4042083          	lw	x1,-192(x8)
 c7c:	01d28e33          	add	x28,x5,x29
 c80:	00000813          	li	x16,0
 c84:	00000513          	li	x10,0

00000c88 <.L72>:
 c88:	0a905063          	blez	x9,d28 <.L73>
 c8c:	00062e07          	flw	f28,0(x12)
 c90:	00462e87          	flw	f29,4(x12)
 c94:	00862f07          	flw	f30,8(x12)
 c98:	00c62f87          	flw	f31,12(x12)
 c9c:	01062187          	flw	f3,16(x12)
 ca0:	01462107          	flw	f2,20(x12)
 ca4:	01862087          	flw	f1,24(x12)
 ca8:	01c62007          	flw	f0,28(x12)
 cac:	00281713          	slli	x14,x16,0x2
 cb0:	00e08933          	add	x18,x1,x14
 cb4:	00028793          	mv	x15,x5

00000cb8 <.L74>:
 cb8:	00092587          	flw	f11,0(x18) # 80000000 <.L105+0x7ffff1e8>
 cbc:	0007a507          	flw	f10,0(x15)
 cc0:	01d78f33          	add	x30,x15,x29
 cc4:	000f2687          	flw	f13,0(x30)
 cc8:	58ae7643          	fmadd.s	f12,f28,f10,f11
 ccc:	01578333          	add	x6,x15,x21
 cd0:	00032707          	flw	f14,0(x6)
 cd4:	017788b3          	add	x17,x15,x23
 cd8:	0008a207          	flw	f4,0(x17)
 cdc:	60def7c3          	fmadd.s	f15,f29,f13,f12
 ce0:	01678fb3          	add	x31,x15,x22
 ce4:	000fa287          	flw	f5,0(x31)
 ce8:	014785b3          	add	x11,x15,x20
 cec:	0005a307          	flw	f6,0(x11)
 cf0:	78ef73c3          	fmadd.s	f7,f30,f14,f15
 cf4:	01b786b3          	add	x13,x15,x27
 cf8:	0006a807          	flw	f16,0(x13)
 cfc:	01a783b3          	add	x7,x15,x26
 d00:	0003a887          	flw	f17,0(x7)
 d04:	384ff5c3          	fmadd.s	f11,f31,f4,f7
 d08:	00490913          	addi	x18,x18,4
 d0c:	00478793          	addi	x15,x15,4
 d10:	5851f543          	fmadd.s	f10,f3,f5,f11
 d14:	506176c3          	fmadd.s	f13,f2,f6,f10
 d18:	6900f643          	fmadd.s	f12,f1,f16,f13
 d1c:	61107743          	fmadd.s	f14,f0,f17,f12
 d20:	fee92e27          	fsw	f14,-4(x18)
 d24:	f8fe1ae3          	bne	x28,x15,cb8 <.L74>

00000d28 <.L73>:
 d28:	00150513          	addi	x10,x10,1
 d2c:	00980833          	add	x16,x16,x9
 d30:	02060613          	addi	x12,x12,32
 d34:	f5951ae3          	bne	x10,x25,c88 <.L72>

00000d38 <.L71>:
 d38:	00000913          	li	x18,0
 d3c:	841ff06f          	j	57c <.L56>

00000d40 <.L34>:
 d40:	04091463          	bnez	x18,d88 <.L107>
 d44:	f2c42903          	lw	x18,-212(x8)
 d48:	00800393          	li	x7,8
 d4c:	ce790ce3          	beq	x18,x7,a44 <.L36>
 d50:	ee442283          	lw	x5,-284(x8)
 d54:	ee042e03          	lw	x28,-288(x8)
 d58:	f2c42083          	lw	x1,-212(x8)
 d5c:	40510133          	sub	x2,x2,x5
 d60:	00010913          	mv	x18,x2
 d64:	41c10133          	sub	x2,x2,x28
 d68:	f5c42803          	lw	x16,-164(x8)
 d6c:	f6442e03          	lw	x28,-156(x8)
 d70:	00010513          	mv	x10,x2
 d74:	eb904263          	bgtz	x25,418 <.L155>

00000d78 <.L41>:
 d78:	f8042803          	lw	x16,-128(x8)
 d7c:	f8842e03          	lw	x28,-120(x8)
 d80:	f0104463          	bgtz	x1,488 <.L48>
 d84:	ff0ff06f          	j	574 <.L49>

00000d88 <.L107>:
 d88:	f2c42083          	lw	x1,-212(x8)
 d8c:	e50ff06f          	j	3dc <.L35>

00000d90 <.L152>:
 d90:	f0042883          	lw	x17,-256(x8)
 d94:	ee842803          	lw	x16,-280(x8)
 d98:	07089663          	bne	x17,x16,e04 <.L156>
 d9c:	f1c42b03          	lw	x22,-228(x8)
 da0:	00800993          	li	x19,8
 da4:	013b0e63          	beq	x22,x19,dc0 <.L98>
 da8:	f1c42d03          	lw	x26,-228(x8)
 dac:	ecc42603          	lw	x12,-308(x8)
 db0:	f1842483          	lw	x9,-232(x8)
 db4:	f3a42e23          	sw	x26,-196(x8)
 db8:	00100913          	li	x18,1
 dbc:	d28ff06f          	j	2e4 <.L30>

00000dc0 <.L98>:
 dc0:	ec042b83          	lw	x23,-320(x8)
 dc4:	ed842603          	lw	x12,-296(x8)
 dc8:	00000593          	li	x11,0
 dcc:	41710133          	sub	x2,x2,x23
 dd0:	00010513          	mv	x10,x2
 dd4:	ec442903          	lw	x18,-316(x8)
 dd8:	f4a42023          	sw	x10,-192(x8)
 ddc:	00000097          	auipc	x1,0x0
 de0:	000080e7          	jalr	x1 # ddc <.L98+0x1c>
 de4:	f0842c03          	lw	x24,-248(x8)
 de8:	f1842483          	lw	x9,-232(x8)
 dec:	03805663          	blez	x24,e18 <.L105>
 df0:	00800d93          	li	x27,8
 df4:	10000093          	li	x1,256
 df8:	00800293          	li	x5,8
 dfc:	f3b42e23          	sw	x27,-196(x8)
 e00:	d18ff06f          	j	318 <.L32>

00000e04 <.L156>:
 e04:	f1c42a83          	lw	x21,-228(x8)
 e08:	ebc42903          	lw	x18,-324(x8)
 e0c:	ed042603          	lw	x12,-304(x8)
 e10:	f3542e23          	sw	x21,-196(x8)
 e14:	cccff06f          	j	2e0 <.L99>

00000e18 <.L105>:
 e18:	00800c93          	li	x25,8
 e1c:	f3942e23          	sw	x25,-196(x8)
 e20:	f7cff06f          	j	59c <.L31>

Disassembly of section .text._ZN8HBTensorIfLl2EEC2EP11hb_tensor_t:

00000000 <_ZN8HBTensorIfLl2EEC1EP11hb_tensor_t>:
   0:	00058713          	mv	x14,x11
   4:	00072803          	lw	x16,0(x14)
   8:	0105a583          	lw	x11,16(x11)
   c:	00050793          	mv	x15,x10
  10:	01c50693          	addi	x13,x10,28 # 1801c <.L105+0x17204>
  14:	00200613          	li	x12,2
  18:	01450513          	addi	x10,x10,20
  1c:	0107a023          	sw	x16,0(x15)
  20:	00c7a223          	sw	x12,4(x15)
  24:	00a7a423          	sw	x10,8(x15)
  28:	00d7a623          	sw	x13,12(x15)
  2c:	00b7a823          	sw	x11,16(x15)
  30:	00068693          	mv	x13,x13
  34:	00472283          	lw	x5,4(x14)
  38:	02c29863          	bne	x5,x12,68 <.L8>
  3c:	00872303          	lw	x6,8(x14)
  40:	00c72383          	lw	x7,12(x14)
  44:	00032883          	lw	x17,0(x6) # ffffb000 <.L105+0xffffa1e8>
  48:	0117aa23          	sw	x17,20(x15)
  4c:	0003ae03          	lw	x28,0(x7)
  50:	01c7ae23          	sw	x28,28(x15)
  54:	00432e83          	lw	x29,4(x6)
  58:	01d7ac23          	sw	x29,24(x15)
  5c:	0043af03          	lw	x30,4(x7)
  60:	03e7a023          	sw	x30,32(x15)
  64:	00008067          	ret

00000068 <.L8>:
  68:	ff010113          	addi	x2,x2,-16
  6c:	00000fb7          	lui	x31,0x0
  70:	00112623          	sw	x1,12(x2)
  74:	000000b7          	lui	x1,0x0
  78:	0a900613          	li	x12,169
  7c:	00008593          	mv	x11,x1
  80:	000f8513          	mv	x10,x31
  84:	00000097          	auipc	x1,0x0
  88:	000080e7          	jalr	x1 # 84 <.L8+0x1c>
  8c:	00000737          	lui	x14,0x0
  90:	00070513          	mv	x10,x14
  94:	00000097          	auipc	x1,0x0
  98:	000080e7          	jalr	x1 # 94 <.L8+0x2c>
  9c:	000005b7          	lui	x11,0x0
  a0:	0005a803          	lw	x16,0(x11) # 0 <_ZN8HBTensorIfLl2EEC1EP11hb_tensor_t>
  a4:	000007b7          	lui	x15,0x0
  a8:	0007a683          	lw	x13,0(x15) # 0 <_ZN8HBTensorIfLl2EEC1EP11hb_tensor_t>
  ac:	01081613          	slli	x12,x16,0x10
  b0:	4100f2b7          	lui	x5,0x4100f
  b4:	00d60533          	add	x10,x12,x13
  b8:	aca2ac23          	sw	x10,-1320(x5) # 4100ead8 <.L105+0x4100dcc0>

000000bc <.L3>:
  bc:	0000006f          	j	bc <.L3>
