
kernel_vsort.o:     file format elf32-littleriscv


Disassembly of section .group:

00000000 <_ZN8HBTensorIfLln1EEC5EP11hb_tensor_t>:
   0:	0001                	nop
   2:	0000                	unimp
   4:	0008                	0x8
   6:	0000                	unimp
   8:	0009                	c.nop	2
	...

Disassembly of section .text:

00000000 <_ZL12compare_swapP8HBTensorIfLln1EEjj.part.0>:
   0:	00052783          	lw	x15,0(x10)
   4:	ff010113          	addi	x2,x2,-16
   8:	00812423          	sw	x8,8(x2)
   c:	00912223          	sw	x9,4(x2)
  10:	00112623          	sw	x1,12(x2)
  14:	01212023          	sw	x18,0(x2)
  18:	00050493          	mv	x9,x10
  1c:	00058413          	mv	x8,x11
  20:	0ef5f663          	bgeu	x11,x15,10c <.L16>
  24:	00060913          	mv	x18,x12
  28:	00452603          	lw	x12,4(x10)
  2c:	00100693          	li	x13,1
  30:	01052703          	lw	x14,16(x10)
  34:	04d60063          	beq	x12,x13,74 <.L4>
  38:	06f97e63          	bgeu	x18,x15,b4 <.L5>
  3c:	00259e93          	slli	x29,x11,0x2
  40:	00291f13          	slli	x30,x18,0x2
  44:	01d705b3          	add	x11,x14,x29
  48:	01e708b3          	add	x17,x14,x30
  4c:	0005a787          	flw	f15,0(x11)
  50:	0008a707          	flw	f14,0(x17)
  54:	a0f71fd3          	flt.s	x31,f14,f15
  58:	040f9863          	bnez	x31,a8 <.L11>

0000005c <.L1>:
  5c:	00c12083          	lw	x1,12(x2)
  60:	00812403          	lw	x8,8(x2)
  64:	00412483          	lw	x9,4(x2)
  68:	00012903          	lw	x18,0(x2)
  6c:	01010113          	addi	x2,x2,16
  70:	00008067          	ret

00000074 <.L4>:
  74:	04f97063          	bgeu	x18,x15,b4 <.L5>
  78:	00852083          	lw	x1,8(x10)
  7c:	0000a283          	lw	x5,0(x1)
  80:	02558333          	mul	x6,x11,x5
  84:	025903b3          	mul	x7,x18,x5
  88:	00231513          	slli	x10,x6,0x2
  8c:	00a705b3          	add	x11,x14,x10
  90:	0005a787          	flw	f15,0(x11)
  94:	00239813          	slli	x16,x7,0x2
  98:	010708b3          	add	x17,x14,x16
  9c:	0008a707          	flw	f14,0(x17)
  a0:	a0f71e53          	flt.s	x28,f14,f15
  a4:	fa0e0ce3          	beqz	x28,5c <.L1>

000000a8 <.L11>:
  a8:	00e5a027          	fsw	f14,0(x11)
  ac:	00f8a027          	fsw	f15,0(x17)
  b0:	fadff06f          	j	5c <.L1>

000000b4 <.L5>:
  b4:	000007b7          	lui	x15,0x0
  b8:	00000437          	lui	x8,0x0
  bc:	00078593          	mv	x11,x15
  c0:	07b00613          	li	x12,123
  c4:	00040513          	mv	x10,x8
  c8:	00000097          	auipc	x1,0x0
  cc:	000080e7          	jalr	x1 # c8 <.L5+0x14>
  d0:	0004a583          	lw	x11,0(x9)
  d4:	000004b7          	lui	x9,0x0
  d8:	00090613          	mv	x12,x18
  dc:	00048513          	mv	x10,x9
  e0:	00000097          	auipc	x1,0x0
  e4:	000080e7          	jalr	x1 # e0 <.L5+0x2c>
  e8:	00000937          	lui	x18,0x0
  ec:	00092603          	lw	x12,0(x18) # 0 <_ZL12compare_swapP8HBTensorIfLln1EEjj.part.0>
  f0:	000006b7          	lui	x13,0x0
  f4:	0006a703          	lw	x14,0(x13) # 0 <_ZL12compare_swapP8HBTensorIfLln1EEjj.part.0>
  f8:	01061293          	slli	x5,x12,0x10
  fc:	4100f3b7          	lui	x7,0x4100f
 100:	00e28333          	add	x6,x5,x14
 104:	ac63ac23          	sw	x6,-1320(x7) # 4100ead8 <.L202+0x4100dd10>

00000108 <.L8>:
 108:	0000006f          	j	108 <.L8>

0000010c <.L16>:
 10c:	000000b7          	lui	x1,0x0
 110:	00000537          	lui	x10,0x0
 114:	00008593          	mv	x11,x1
 118:	07b00613          	li	x12,123
 11c:	00050513          	mv	x10,x10
 120:	00000097          	auipc	x1,0x0
 124:	000080e7          	jalr	x1 # 120 <.L16+0x14>
 128:	0004a583          	lw	x11,0(x9) # 0 <_ZL12compare_swapP8HBTensorIfLln1EEjj.part.0>
 12c:	00000837          	lui	x16,0x0
 130:	00040613          	mv	x12,x8
 134:	00080513          	mv	x10,x16
 138:	00000097          	auipc	x1,0x0
 13c:	000080e7          	jalr	x1 # 138 <.L16+0x2c>
 140:	000005b7          	lui	x11,0x0
 144:	0005a883          	lw	x17,0(x11) # 0 <_ZL12compare_swapP8HBTensorIfLln1EEjj.part.0>
 148:	00000e37          	lui	x28,0x0
 14c:	000e2e83          	lw	x29,0(x28) # 0 <_ZL12compare_swapP8HBTensorIfLln1EEjj.part.0>
 150:	01089f13          	slli	x30,x17,0x10
 154:	4100f7b7          	lui	x15,0x4100f
 158:	01df0fb3          	add	x31,x30,x29
 15c:	adf7ac23          	sw	x31,-1320(x15) # 4100ead8 <.L202+0x4100dd10>

00000160 <.L3>:
 160:	0000006f          	j	160 <.L3>

00000164 <_ZL8odd_evenP8HBTensorIfLln1EEjjj>:
 164:	fe010113          	addi	x2,x2,-32
 168:	00812c23          	sw	x8,24(x2)
 16c:	01212823          	sw	x18,16(x2)
 170:	01412423          	sw	x20,8(x2)
 174:	01512223          	sw	x21,4(x2)
 178:	00112e23          	sw	x1,28(x2)
 17c:	00912a23          	sw	x9,20(x2)
 180:	01312623          	sw	x19,12(x2)
 184:	01612023          	sw	x22,0(x2)
 188:	00169a93          	slli	x21,x13,0x1
 18c:	00058a13          	mv	x20,x11
 190:	00050913          	mv	x18,x10
 194:	00b68433          	add	x8,x13,x11
 198:	04cae063          	bltu	x21,x12,1d8 <.L26>
 19c:	00052783          	lw	x15,0(x10) # 0 <_ZL12compare_swapP8HBTensorIfLln1EEjj.part.0>
 1a0:	0af47263          	bgeu	x8,x15,244 <.L17>
 1a4:	0af5f063          	bgeu	x11,x15,244 <.L17>
 1a8:	00040613          	mv	x12,x8
 1ac:	01812403          	lw	x8,24(x2)
 1b0:	01c12083          	lw	x1,28(x2)
 1b4:	01412483          	lw	x9,20(x2)
 1b8:	01012903          	lw	x18,16(x2)
 1bc:	00c12983          	lw	x19,12(x2)
 1c0:	00812a03          	lw	x20,8(x2)
 1c4:	00412a83          	lw	x21,4(x2)
 1c8:	00012b03          	lw	x22,0(x2)
 1cc:	02010113          	addi	x2,x2,32
 1d0:	00000317          	auipc	x6,0x0
 1d4:	00030067          	jr	x6 # 1d0 <_ZL8odd_evenP8HBTensorIfLln1EEjjj+0x6c>

000001d8 <.L26>:
 1d8:	00068993          	mv	x19,x13
 1dc:	000a8693          	mv	x13,x21
 1e0:	00060493          	mv	x9,x12
 1e4:	00000097          	auipc	x1,0x0
 1e8:	000080e7          	jalr	x1 # 1e4 <.L26+0xc>
 1ec:	00048613          	mv	x12,x9
 1f0:	01460b33          	add	x22,x12,x20
 1f4:	000a8693          	mv	x13,x21
 1f8:	00040593          	mv	x11,x8
 1fc:	00090513          	mv	x10,x18
 200:	013404b3          	add	x9,x8,x19
 204:	00000097          	auipc	x1,0x0
 208:	000080e7          	jalr	x1 # 204 <.L26+0x2c>
 20c:	41448a33          	sub	x20,x9,x20
 210:	0364fa63          	bgeu	x9,x22,244 <.L17>

00000214 <.L19>:
 214:	00092083          	lw	x1,0(x18)
 218:	0014fe63          	bgeu	x9,x1,234 <.L21>
 21c:	00048613          	mv	x12,x9
 220:	00040593          	mv	x11,x8
 224:	00090513          	mv	x10,x18
 228:	00147663          	bgeu	x8,x1,234 <.L21>
 22c:	00000097          	auipc	x1,0x0
 230:	000080e7          	jalr	x1 # 22c <.L19+0x18>

00000234 <.L21>:
 234:	01540433          	add	x8,x8,x21
 238:	008982b3          	add	x5,x19,x8
 23c:	014484b3          	add	x9,x9,x20
 240:	fd62eae3          	bltu	x5,x22,214 <.L19>

00000244 <.L17>:
 244:	01c12083          	lw	x1,28(x2)
 248:	01812403          	lw	x8,24(x2)
 24c:	01412483          	lw	x9,20(x2)
 250:	01012903          	lw	x18,16(x2)
 254:	00c12983          	lw	x19,12(x2)
 258:	00812a03          	lw	x20,8(x2)
 25c:	00412a83          	lw	x21,4(x2)
 260:	00012b03          	lw	x22,0(x2)
 264:	02010113          	addi	x2,x2,32
 268:	00008067          	ret

0000026c <_ZL11merge_rangeP8HBTensorIfLln1EEjj>:
 26c:	fe010113          	addi	x2,x2,-32
 270:	01312623          	sw	x19,12(x2)
 274:	00112e23          	sw	x1,28(x2)
 278:	00812c23          	sw	x8,24(x2)
 27c:	00912a23          	sw	x9,20(x2)
 280:	01212823          	sw	x18,16(x2)
 284:	01412423          	sw	x20,8(x2)
 288:	40b609b3          	sub	x19,x12,x11
 28c:	00100793          	li	x15,1
 290:	0337e263          	bltu	x15,x19,2b4 <.L30>
 294:	01c12083          	lw	x1,28(x2)
 298:	01812403          	lw	x8,24(x2)
 29c:	01412483          	lw	x9,20(x2)
 2a0:	01012903          	lw	x18,16(x2)
 2a4:	00c12983          	lw	x19,12(x2)
 2a8:	00812a03          	lw	x20,8(x2)
 2ac:	02010113          	addi	x2,x2,32
 2b0:	00008067          	ret

000002b4 <.L30>:
 2b4:	0019da13          	srli	x20,x19,0x1
 2b8:	00ba0a33          	add	x20,x20,x11
 2bc:	00060493          	mv	x9,x12
 2c0:	000a0613          	mv	x12,x20
 2c4:	00058413          	mv	x8,x11
 2c8:	00050913          	mv	x18,x10
 2cc:	00000097          	auipc	x1,0x0
 2d0:	000080e7          	jalr	x1 # 2cc <.L30+0x18>
 2d4:	00048613          	mv	x12,x9
 2d8:	000a0593          	mv	x11,x20
 2dc:	00090513          	mv	x10,x18
 2e0:	00000097          	auipc	x1,0x0
 2e4:	000080e7          	jalr	x1 # 2e0 <.L30+0x2c>
 2e8:	00040593          	mv	x11,x8
 2ec:	01812403          	lw	x8,24(x2)
 2f0:	01c12083          	lw	x1,28(x2)
 2f4:	01412483          	lw	x9,20(x2)
 2f8:	00812a03          	lw	x20,8(x2)
 2fc:	00098613          	mv	x12,x19
 300:	00090513          	mv	x10,x18
 304:	00c12983          	lw	x19,12(x2)
 308:	01012903          	lw	x18,16(x2)
 30c:	00100693          	li	x13,1
 310:	02010113          	addi	x2,x2,32
 314:	00000317          	auipc	x6,0x0
 318:	00030067          	jr	x6 # 314 <.L30+0x60>

0000031c <tensorlib_vsort>:
 31c:	f2010113          	addi	x2,x2,-224
 320:	00050793          	mv	x15,x10
 324:	0c812c23          	sw	x8,216(x2)
 328:	01810513          	addi	x10,x2,24
 32c:	00058413          	mv	x8,x11
 330:	00078593          	mv	x11,x15
 334:	0c112e23          	sw	x1,220(x2)
 338:	0c912a23          	sw	x9,212(x2)
 33c:	0d212823          	sw	x18,208(x2)
 340:	0d312623          	sw	x19,204(x2)
 344:	0d412423          	sw	x20,200(x2)
 348:	0d512223          	sw	x21,196(x2)
 34c:	0d612023          	sw	x22,192(x2)
 350:	0b712e23          	sw	x23,188(x2)
 354:	0b812c23          	sw	x24,184(x2)
 358:	0b912a23          	sw	x25,180(x2)
 35c:	0ba12823          	sw	x26,176(x2)
 360:	0bb12623          	sw	x27,172(x2)
 364:	08812e27          	fsw	f8,156(x2)
 368:	00000097          	auipc	x1,0x0
 36c:	000080e7          	jalr	x1 # 368 <tensorlib_vsort+0x4c>
 370:	00040593          	mv	x11,x8
 374:	05410513          	addi	x10,x2,84
 378:	00000097          	auipc	x1,0x0
 37c:	000080e7          	jalr	x1 # 378 <tensorlib_vsort+0x5c>
 380:	00000a37          	lui	x20,0x0
 384:	00000c37          	lui	x24,0x0
 388:	000009b7          	lui	x19,0x0
 38c:	00000cb7          	lui	x25,0x0
 390:	000a2283          	lw	x5,0(x20) # 0 <_ZL12compare_swapP8HBTensorIfLln1EEjj.part.0>
 394:	000c2503          	lw	x10,0(x24) # 0 <_ZL12compare_swapP8HBTensorIfLln1EEjj.part.0>
 398:	0009a683          	lw	x13,0(x19) # 0 <_ZL12compare_swapP8HBTensorIfLln1EEjj.part.0>
 39c:	000ca583          	lw	x11,0(x25) # 0 <_ZL12compare_swapP8HBTensorIfLln1EEjj.part.0>
 3a0:	00000bb7          	lui	x23,0x0
 3a4:	000ba603          	lw	x12,0(x23) # 0 <_ZL12compare_swapP8HBTensorIfLln1EEjj.part.0>
 3a8:	00a28333          	add	x6,x5,x10
 3ac:	00b683b3          	add	x7,x13,x11
 3b0:	01831493          	slli	x9,x6,0x18
 3b4:	01239713          	slli	x14,x7,0x12
 3b8:	3f000837          	lui	x16,0x3f000
 3bc:	00fc0937          	lui	x18,0xfc0
 3c0:	00040db7          	lui	x27,0x40
 3c4:	0104f8b3          	and	x17,x9,x16
 3c8:	01277ab3          	and	x21,x14,x18
 3cc:	00461b13          	slli	x22,x12,0x4
 3d0:	ff0d8e13          	addi	x28,x27,-16 # 3fff0 <.L202+0x3f228>
 3d4:	0158ed33          	or	x26,x17,x21
 3d8:	01cb7eb3          	and	x29,x22,x28
 3dc:	05812f83          	lw	x31,88(x2)
 3e0:	01dd6f33          	or	x30,x26,x29
 3e4:	800007b7          	lui	x15,0x80000
 3e8:	00ff6433          	or	x8,x30,x15
 3ec:	410012b7          	lui	x5,0x41001
 3f0:	d082a623          	sw	x8,-756(x5) # 41000d0c <.L202+0x40ffff44>
 3f4:	00100513          	li	x10,1
 3f8:	26af8063          	beq	x31,x10,658 <.L194>

000003fc <.L159>:
 3fc:	000004b7          	lui	x9,0x0
 400:	00048413          	mv	x8,x9

00000404 <.L45>:
 404:	000a2d83          	lw	x27,0(x20)
 408:	0009a983          	lw	x19,0(x19)
 40c:	000c2a03          	lw	x20,0(x24)
 410:	000cad03          	lw	x26,0(x25)
 414:	000bab83          	lw	x23,0(x23)
 418:	014d8633          	add	x12,x27,x20
 41c:	01a98933          	add	x18,x19,x26
 420:	01861a93          	slli	x21,x12,0x18
 424:	01291b13          	slli	x22,x18,0x12
 428:	3f000eb7          	lui	x29,0x3f000
 42c:	00fc05b7          	lui	x11,0xfc0
 430:	00040737          	lui	x14,0x40
 434:	01daff33          	and	x30,x21,x29
 438:	004b9393          	slli	x7,x23,0x4
 43c:	00bb7533          	and	x10,x22,x11
 440:	ff070793          	addi	x15,x14,-16 # 3fff0 <.L202+0x3f228>
 444:	00af66b3          	or	x13,x30,x10
 448:	00f3ffb3          	and	x31,x7,x15
 44c:	01f6e2b3          	or	x5,x13,x31
 450:	c00000b7          	lui	x1,0xc0000
 454:	0012e8b3          	or	x17,x5,x1
 458:	41001e37          	lui	x28,0x41001
 45c:	d11e2623          	sw	x17,-756(x28) # 41000d0c <.L202+0x40ffff44>
 460:	000ca803          	lw	x16,0(x25)
 464:	000c2303          	lw	x6,0(x24)
 468:	20040bb7          	lui	x23,0x20040
 46c:	00480d93          	addi	x27,x16,4 # 3f000004 <.L202+0x3efff23c>
 470:	01b40a33          	add	x20,x8,x27
 474:	01831993          	slli	x19,x6,0x18
 478:	013a6d33          	or	x26,x20,x19
 47c:	017d6633          	or	x12,x26,x23
 480:	00100913          	li	x18,1
 484:	01260023          	sb	x18,0(x12)
 488:	000caa83          	lw	x21,0(x25)
 48c:	072a8663          	beq	x21,x18,4f8 <.L113>

00000490 <.L124>:
 490:	00100c13          	li	x24,1
 494:	0100006f          	j	4a4 <.L128>

00000498 <.L200>:
 498:	00048693          	mv	x13,x9
 49c:	1406a72f          	lr.w.aq	x14,(x13)
 4a0:	01870863          	beq	x14,x24,4b0 <.L127>

000004a4 <.L128>:
 4a4:	00048393          	mv	x7,x9
 4a8:	1003a52f          	lr.w	x10,(x7)
 4ac:	ff8516e3          	bne	x10,x24,498 <.L200>

000004b0 <.L127>:
 4b0:	0dc12083          	lw	x1,220(x2)
 4b4:	00042023          	sw	x0,0(x8) # 0 <_ZL12compare_swapP8HBTensorIfLln1EEjj.part.0>
 4b8:	0d812403          	lw	x8,216(x2)
 4bc:	0d412483          	lw	x9,212(x2)
 4c0:	0d012903          	lw	x18,208(x2)
 4c4:	0cc12983          	lw	x19,204(x2)
 4c8:	0c812a03          	lw	x20,200(x2)
 4cc:	0c412a83          	lw	x21,196(x2)
 4d0:	0c012b03          	lw	x22,192(x2)
 4d4:	0bc12b83          	lw	x23,188(x2)
 4d8:	0b812c03          	lw	x24,184(x2)
 4dc:	0b412c83          	lw	x25,180(x2)
 4e0:	0b012d03          	lw	x26,176(x2)
 4e4:	0ac12d83          	lw	x27,172(x2)
 4e8:	09c12407          	flw	f8,156(x2)
 4ec:	00000513          	li	x10,0
 4f0:	0e010113          	addi	x2,x2,224
 4f4:	00008067          	ret

000004f8 <.L113>:
 4f8:	00444b03          	lbu	x22,4(x8)
 4fc:	0ffb7e93          	andi	x29,x22,255
 500:	fe0e8ce3          	beqz	x29,4f8 <.L113>
 504:	00544f03          	lbu	x30,5(x8)
 508:	0fff7593          	andi	x11,x30,255
 50c:	fe0586e3          	beqz	x11,4f8 <.L113>
 510:	00644503          	lbu	x10,6(x8)
 514:	0ff57393          	andi	x7,x10,255
 518:	fe0380e3          	beqz	x7,4f8 <.L113>
 51c:	00744683          	lbu	x13,7(x8)
 520:	0ff6f713          	andi	x14,x13,255
 524:	fc070ae3          	beqz	x14,4f8 <.L113>
 528:	000c2783          	lw	x15,0(x24)
 52c:	210408b7          	lui	x17,0x21040
 530:	00100f93          	li	x31,1
 534:	00c78293          	addi	x5,x15,12 # 8000000c <.L202+0x7ffff244>
 538:	005400b3          	add	x1,x8,x5
 53c:	0110ee33          	or	x28,x1,x17
 540:	01fe0023          	sb	x31,0(x28)
 544:	000ca803          	lw	x16,0(x25)
 548:	f5f814e3          	bne	x16,x31,490 <.L124>
 54c:	000c2883          	lw	x17,0(x24)
 550:	07088c63          	beq	x17,x16,5c8 <.L118>

00000554 <.L123>:
 554:	00100e13          	li	x28,1
 558:	0100006f          	j	568 <.L117>

0000055c <.L201>:
 55c:	00840d93          	addi	x27,x8,8
 560:	140daa2f          	lr.w.aq	x20,(x27)
 564:	01ca0863          	beq	x20,x28,574 <.L125>

00000568 <.L117>:
 568:	00840813          	addi	x16,x8,8
 56c:	1008232f          	lr.w	x6,(x16)
 570:	ffc316e3          	bne	x6,x28,55c <.L201>

00000574 <.L125>:
 574:	00042423          	sw	x0,8(x8)
 578:	00040223          	sb	x0,4(x8)
 57c:	000402a3          	sb	x0,5(x8)
 580:	00040323          	sb	x0,6(x8)
 584:	000403a3          	sb	x0,7(x8)
 588:	00042023          	sw	x0,0(x8)
 58c:	00000b13          	li	x22,0
 590:	00048413          	mv	x8,x9
 594:	200009b7          	lui	x19,0x20000
 598:	00100d13          	li	x26,1
 59c:	00040bb7          	lui	x23,0x40
 5a0:	00100637          	lui	x12,0x100

000005a4 <.L126>:
 5a4:	000c2903          	lw	x18,0(x24)
 5a8:	01646ab3          	or	x21,x8,x22
 5ac:	017b0b33          	add	x22,x22,x23
 5b0:	01891e93          	slli	x29,x18,0x18
 5b4:	015eef33          	or	x30,x29,x21
 5b8:	013f65b3          	or	x11,x30,x19
 5bc:	01a5a023          	sw	x26,0(x11) # fc0000 <.L202+0xfbf238>
 5c0:	fecb12e3          	bne	x22,x12,5a4 <.L126>
 5c4:	ecdff06f          	j	490 <.L124>

000005c8 <.L118>:
 5c8:	00c44303          	lbu	x6,12(x8)
 5cc:	0ff37d93          	andi	x27,x6,255
 5d0:	fe0d8ce3          	beqz	x27,5c8 <.L118>
 5d4:	00d44a03          	lbu	x20,13(x8)
 5d8:	0ffa7993          	andi	x19,x20,255
 5dc:	fe0986e3          	beqz	x19,5c8 <.L118>
 5e0:	00e44d03          	lbu	x26,14(x8)
 5e4:	0ffd7b93          	andi	x23,x26,255
 5e8:	fe0b80e3          	beqz	x23,5c8 <.L118>
 5ec:	00f44603          	lbu	x12,15(x8)
 5f0:	0ff67913          	andi	x18,x12,255
 5f4:	fc090ae3          	beqz	x18,5c8 <.L118>
 5f8:	00040623          	sb	x0,12(x8)
 5fc:	000406a3          	sb	x0,13(x8)
 600:	00040723          	sb	x0,14(x8)
 604:	000407a3          	sb	x0,15(x8)
 608:	00000ab7          	lui	x21,0x0
 60c:	00042423          	sw	x0,8(x8)
 610:	00000093          	li	x1,0
 614:	008a8b13          	addi	x22,x21,8 # 8 <_ZL12compare_swapP8HBTensorIfLln1EEjj.part.0+0x8>
 618:	03fc0eb7          	lui	x29,0x3fc0
 61c:	20000f37          	lui	x30,0x20000
 620:	00100593          	li	x11,1
 624:	010003b7          	lui	x7,0x1000
 628:	04000537          	lui	x10,0x4000

0000062c <.L122>:
 62c:	01289693          	slli	x13,x17,0x12
 630:	001b6733          	or	x14,x22,x1
 634:	01d6f7b3          	and	x15,x13,x29
 638:	00e7efb3          	or	x31,x15,x14
 63c:	01efe2b3          	or	x5,x31,x30
 640:	00b2a023          	sw	x11,0(x5)
 644:	007080b3          	add	x1,x1,x7
 648:	78a09063          	bne	x1,x10,dc8 <.L202>
 64c:	000cac83          	lw	x25,0(x25)
 650:	f0bc82e3          	beq	x25,x11,554 <.L123>
 654:	e3dff06f          	j	490 <.L124>

00000658 <.L194>:
 658:	01812a83          	lw	x21,24(x2)
 65c:	000a8513          	mv	x10,x21
 660:	00000097          	auipc	x1,0x0
 664:	000080e7          	jalr	x1 # 660 <.L194+0x8>
 668:	00000097          	auipc	x1,0x0
 66c:	000080e7          	jalr	x1 # 668 <.L194+0x10>
 670:	00050b13          	mv	x22,x10
 674:	00058913          	mv	x18,x11
 678:	00000097          	auipc	x1,0x0
 67c:	000080e7          	jalr	x1 # 678 <.L194+0x20>
 680:	00050493          	mv	x9,x10
 684:	00058d93          	mv	x27,x11
 688:	000b0513          	mv	x10,x22
 68c:	00090593          	mv	x11,x18
 690:	00000097          	auipc	x1,0x0
 694:	000080e7          	jalr	x1 # 690 <.L194+0x38>
 698:	00050613          	mv	x12,x10
 69c:	00058693          	mv	x13,x11
 6a0:	00048513          	mv	x10,x9
 6a4:	000d8593          	mv	x11,x27
 6a8:	00000097          	auipc	x1,0x0
 6ac:	000080e7          	jalr	x1 # 6a8 <.L194+0x50>
 6b0:	000a8d13          	mv	x26,x21
 6b4:	02050a63          	beqz	x10,6e8 <.L46>
 6b8:	000000b7          	lui	x1,0x0
 6bc:	0000a603          	lw	x12,0(x1) # 0 <_ZL12compare_swapP8HBTensorIfLln1EEjj.part.0>
 6c0:	0040a683          	lw	x13,4(x1)
 6c4:	00048513          	mv	x10,x9
 6c8:	000d8593          	mv	x11,x27
 6cc:	00000097          	auipc	x1,0x0
 6d0:	000080e7          	jalr	x1 # 6cc <.L194+0x74>
 6d4:	00000097          	auipc	x1,0x0
 6d8:	000080e7          	jalr	x1 # 6d4 <.L194+0x7c>
 6dc:	00000097          	auipc	x1,0x0
 6e0:	000080e7          	jalr	x1 # 6dc <.L194+0x84>
 6e4:	00050d13          	mv	x26,x10

000006e8 <.L46>:
 6e8:	000006b7          	lui	x13,0x0
 6ec:	d01af453          	fcvt.s.wu	f8,x21
 6f0:	0006a787          	flw	f15,0(x13) # 0 <_ZL12compare_swapP8HBTensorIfLln1EEjj.part.0>
 6f4:	00000db7          	lui	x27,0x0
 6f8:	000da403          	lw	x8,0(x27) # 0 <_ZL12compare_swapP8HBTensorIfLln1EEjj.part.0>
 6fc:	a0f405d3          	fle.s	x11,f8,f15
 700:	1a059463          	bnez	x11,8a8 <.L203>
 704:	00000637          	lui	x12,0x0
 708:	00062507          	flw	f10,0(x12) # 0 <_ZL12compare_swapP8HBTensorIfLln1EEjj.part.0>
 70c:	10a47453          	fmul.s	f8,f8,f10
 710:	20840553          	fmv.s	f10,f8
 714:	00000097          	auipc	x1,0x0
 718:	000080e7          	jalr	x1 # 714 <.L46+0x2c>
 71c:	00000097          	auipc	x1,0x0
 720:	000080e7          	jalr	x1 # 71c <.L46+0x34>
 724:	00058b13          	mv	x22,x11
 728:	00a12623          	sw	x10,12(x2)
 72c:	00000097          	auipc	x1,0x0
 730:	000080e7          	jalr	x1 # 72c <.L46+0x44>
 734:	00050913          	mv	x18,x10
 738:	00c12503          	lw	x10,12(x2)
 73c:	00058493          	mv	x9,x11
 740:	000b0593          	mv	x11,x22
 744:	00000097          	auipc	x1,0x0
 748:	000080e7          	jalr	x1 # 744 <.L46+0x5c>
 74c:	00050613          	mv	x12,x10
 750:	00058693          	mv	x13,x11
 754:	00090513          	mv	x10,x18
 758:	00048593          	mv	x11,x9
 75c:	00000097          	auipc	x1,0x0
 760:	000080e7          	jalr	x1 # 75c <.L46+0x74>
 764:	02050a63          	beqz	x10,798 <.L82>
 768:	000003b7          	lui	x7,0x0
 76c:	0003a603          	lw	x12,0(x7) # 0 <_ZL12compare_swapP8HBTensorIfLln1EEjj.part.0>
 770:	0043a683          	lw	x13,4(x7)
 774:	00090513          	mv	x10,x18
 778:	00048593          	mv	x11,x9
 77c:	00000097          	auipc	x1,0x0
 780:	000080e7          	jalr	x1 # 77c <.L46+0x94>
 784:	00000097          	auipc	x1,0x0
 788:	000080e7          	jalr	x1 # 784 <.L46+0x9c>
 78c:	00000097          	auipc	x1,0x0
 790:	000080e7          	jalr	x1 # 78c <.L46+0xa4>
 794:	20a50453          	fmv.s	f8,f10

00000798 <.L82>:
 798:	d0047053          	fcvt.s.w	f0,x8
 79c:	108070d3          	fmul.s	f1,f0,f8
 7a0:	c01095d3          	fcvt.wu.s	x11,f1,rtz
 7a4:	0755fa63          	bgeu	x11,x21,818 <.L84>
 7a8:	d015f153          	fcvt.s.wu	f2,x11
 7ac:	008171d3          	fadd.s	f3,f2,f8
 7b0:	c0119653          	fcvt.wu.s	x12,f3,rtz
 7b4:	04c5fc63          	bgeu	x11,x12,80c <.L87>
 7b8:	05412483          	lw	x9,84(x2)
 7bc:	06412e83          	lw	x29,100(x2)
 7c0:	05c12e03          	lw	x28,92(x2)
 7c4:	01c12883          	lw	x17,28(x2)
 7c8:	02812303          	lw	x6,40(x2)
 7cc:	02012f03          	lw	x30,32(x2)
 7d0:	00058413          	mv	x8,x11
 7d4:	00100813          	li	x16,1

000007d8 <.L86>:
 7d8:	00241793          	slli	x15,x8,0x2
 7dc:	50947263          	bgeu	x8,x9,ce0 <.L204>
 7e0:	55088863          	beq	x17,x16,d30 <.L90>

000007e4 <.L199>:
 7e4:	000e2083          	lw	x1,0(x28)
 7e8:	00f302b3          	add	x5,x6,x15
 7ec:	021406b3          	mul	x13,x8,x1
 7f0:	00140413          	addi	x8,x8,1
 7f4:	00269b13          	slli	x22,x13,0x2
 7f8:	016e8933          	add	x18,x29,x22
 7fc:	00092207          	flw	f4,0(x18) # fc0000 <.L202+0xfbf238>
 800:	0042a027          	fsw	f4,0(x5)
 804:	00860463          	beq	x12,x8,80c <.L87>
 808:	fd5418e3          	bne	x8,x21,7d8 <.L86>

0000080c <.L87>:
 80c:	01810513          	addi	x10,x2,24
 810:	00000097          	auipc	x1,0x0
 814:	000080e7          	jalr	x1 # 810 <.L87+0x4>

00000818 <.L84>:
 818:	008472d3          	fadd.s	f5,f8,f8
 81c:	c0129653          	fcvt.wu.s	x12,f5,rtz
 820:	bccd6ee3          	bltu	x26,x12,3fc <.L159>
 824:	000004b7          	lui	x9,0x0
 828:	000005b7          	lui	x11,0x0
 82c:	00048413          	mv	x8,x9
 830:	20040337          	lui	x6,0x20040
 834:	00100913          	li	x18,1
 838:	21040837          	lui	x16,0x21040
 83c:	00858a93          	addi	x21,x11,8 # 8 <_ZL12compare_swapP8HBTensorIfLln1EEjj.part.0+0x8>
 840:	20000b37          	lui	x22,0x20000

00000844 <.L112>:
 844:	000ca503          	lw	x10,0(x25)
 848:	000c2383          	lw	x7,0(x24)
 84c:	00450713          	addi	x14,x10,4 # 4000004 <.L202+0x3fff23c>
 850:	00e40fb3          	add	x31,x8,x14
 854:	01839793          	slli	x15,x7,0x18
 858:	00ffe2b3          	or	x5,x31,x15
 85c:	0062e0b3          	or	x1,x5,x6
 860:	01208023          	sb	x18,0(x1)
 864:	000ca683          	lw	x13,0(x25)
 868:	01269a63          	bne	x13,x18,87c <.L110>
 86c:	23c0006f          	j	aa8 <.L94>

00000870 <.L205>:
 870:	00048513          	mv	x10,x9
 874:	140523af          	lr.w.aq	x7,(x10)
 878:	01238863          	beq	x7,x18,888 <.L109>

0000087c <.L110>:
 87c:	00048793          	mv	x15,x9
 880:	1007a5af          	lr.w	x11,(x15)
 884:	ff2596e3          	bne	x11,x18,870 <.L205>

00000888 <.L109>:
 888:	000da703          	lw	x14,0(x27)
 88c:	01812f83          	lw	x31,24(x2)
 890:	00042023          	sw	x0,0(x8)
 894:	02e605b3          	mul	x11,x12,x14
 898:	35f5e663          	bltu	x11,x31,be4 <.L206>

0000089c <.L111>:
 89c:	00161613          	slli	x12,x12,0x1
 8a0:	facd72e3          	bgeu	x26,x12,844 <.L112>
 8a4:	b61ff06f          	j	404 <.L45>

000008a8 <.L203>:
 8a8:	00141493          	slli	x9,x8,0x1
 8ac:	3554ee63          	bltu	x9,x21,c08 <.L207>

000008b0 <.L50>:
 8b0:	00148413          	addi	x8,x9,1 # 1 <_ZL12compare_swapP8HBTensorIfLln1EEjj.part.0+0x1>
 8b4:	3f546463          	bltu	x8,x21,c9c <.L208>

000008b8 <.L55>:
 8b8:	00100393          	li	x7,1
 8bc:	000004b7          	lui	x9,0x0
 8c0:	4da3f863          	bgeu	x7,x26,d90 <.L209>
 8c4:	00000737          	lui	x14,0x0
 8c8:	00200613          	li	x12,2
 8cc:	00048413          	mv	x8,x9
 8d0:	20040337          	lui	x6,0x20040
 8d4:	00100913          	li	x18,1
 8d8:	21040837          	lui	x16,0x21040
 8dc:	00870a93          	addi	x21,x14,8 # 8 <_ZL12compare_swapP8HBTensorIfLln1EEjj.part.0+0x8>
 8e0:	20000b37          	lui	x22,0x20000

000008e4 <.L60>:
 8e4:	000caf83          	lw	x31,0(x25)
 8e8:	000c2283          	lw	x5,0(x24)
 8ec:	004f8093          	addi	x1,x31,4
 8f0:	001408b3          	add	x17,x8,x1
 8f4:	01829e13          	slli	x28,x5,0x18
 8f8:	01c8eeb3          	or	x29,x17,x28
 8fc:	006eef33          	or	x30,x29,x6
 900:	012f0023          	sb	x18,0(x30) # 20000000 <.L202+0x1ffff238>
 904:	000ca683          	lw	x13,0(x25)
 908:	01269a63          	bne	x13,x18,91c <.L80>
 90c:	03c0006f          	j	948 <.L64>

00000910 <.L210>:
 910:	00048293          	mv	x5,x9
 914:	1402a0af          	lr.w.aq	x1,(x5)
 918:	01208863          	beq	x1,x18,928 <.L79>

0000091c <.L80>:
 91c:	00048793          	mv	x15,x9
 920:	1007afaf          	lr.w	x31,(x15)
 924:	ff2f96e3          	bne	x31,x18,910 <.L210>

00000928 <.L79>:
 928:	000da883          	lw	x17,0(x27)
 92c:	01812e03          	lw	x28,24(x2)
 930:	00042023          	sw	x0,0(x8)
 934:	031605b3          	mul	x11,x12,x17
 938:	15c5e663          	bltu	x11,x28,a84 <.L211>

0000093c <.L81>:
 93c:	00161613          	slli	x12,x12,0x1
 940:	facd72e3          	bgeu	x26,x12,8e4 <.L60>
 944:	ac1ff06f          	j	404 <.L45>

00000948 <.L64>:
 948:	00444783          	lbu	x15,4(x8)
 94c:	0ff7f593          	andi	x11,x15,255
 950:	fe058ce3          	beqz	x11,948 <.L64>
 954:	00544503          	lbu	x10,5(x8)
 958:	0ff57393          	andi	x7,x10,255
 95c:	fe0386e3          	beqz	x7,948 <.L64>
 960:	00644703          	lbu	x14,6(x8)
 964:	0ff77f93          	andi	x31,x14,255
 968:	fe0f80e3          	beqz	x31,948 <.L64>
 96c:	00744283          	lbu	x5,7(x8)
 970:	0ff2f093          	andi	x1,x5,255
 974:	fc008ae3          	beqz	x1,948 <.L64>
 978:	000c2883          	lw	x17,0(x24)
 97c:	00c88e13          	addi	x28,x17,12 # 2104000c <.L202+0x2103f244>
 980:	01c40eb3          	add	x29,x8,x28
 984:	010eef33          	or	x30,x29,x16
 988:	012f0023          	sb	x18,0(x30)
 98c:	000ca683          	lw	x13,0(x25)
 990:	f92696e3          	bne	x13,x18,91c <.L80>
 994:	000c2783          	lw	x15,0(x24)
 998:	01279a63          	bne	x15,x18,9ac <.L69>
 99c:	0680006f          	j	a04 <.L70>

000009a0 <.L212>:
 9a0:	00840093          	addi	x1,x8,8
 9a4:	1400a8af          	lr.w.aq	x17,(x1)
 9a8:	01288863          	beq	x17,x18,9b8 <.L77>

000009ac <.L69>:
 9ac:	00840f93          	addi	x31,x8,8
 9b0:	100fa2af          	lr.w	x5,(x31)
 9b4:	ff2296e3          	bne	x5,x18,9a0 <.L212>

000009b8 <.L77>:
 9b8:	00042423          	sw	x0,8(x8)
 9bc:	00040223          	sb	x0,4(x8)
 9c0:	000402a3          	sb	x0,5(x8)
 9c4:	00040323          	sb	x0,6(x8)
 9c8:	000403a3          	sb	x0,7(x8)
 9cc:	00042023          	sw	x0,0(x8)
 9d0:	00000513          	li	x10,0
 9d4:	00048413          	mv	x8,x9
 9d8:	00040e37          	lui	x28,0x40
 9dc:	00100eb7          	lui	x29,0x100

000009e0 <.L78>:
 9e0:	000c2f03          	lw	x30,0(x24)
 9e4:	00a465b3          	or	x11,x8,x10
 9e8:	01c50533          	add	x10,x10,x28
 9ec:	018f1393          	slli	x7,x30,0x18
 9f0:	00b3e733          	or	x14,x7,x11
 9f4:	016766b3          	or	x13,x14,x22
 9f8:	0126a023          	sw	x18,0(x13)
 9fc:	ffd512e3          	bne	x10,x29,9e0 <.L78>
 a00:	f1dff06f          	j	91c <.L80>

00000a04 <.L70>:
 a04:	00c44583          	lbu	x11,12(x8)
 a08:	0ff5f513          	andi	x10,x11,255
 a0c:	fe050ce3          	beqz	x10,a04 <.L70>
 a10:	00d44383          	lbu	x7,13(x8)
 a14:	0ff3f713          	andi	x14,x7,255
 a18:	fe0706e3          	beqz	x14,a04 <.L70>
 a1c:	00e44f83          	lbu	x31,14(x8)
 a20:	0ffff293          	andi	x5,x31,255
 a24:	fe0280e3          	beqz	x5,a04 <.L70>
 a28:	00f44083          	lbu	x1,15(x8)
 a2c:	0ff0f893          	andi	x17,x1,255
 a30:	fc088ae3          	beqz	x17,a04 <.L70>
 a34:	00040623          	sb	x0,12(x8)
 a38:	000406a3          	sb	x0,13(x8)
 a3c:	00040723          	sb	x0,14(x8)
 a40:	000407a3          	sb	x0,15(x8)
 a44:	00042423          	sw	x0,8(x8)
 a48:	00000693          	li	x13,0
 a4c:	04000e37          	lui	x28,0x4000

00000a50 <.L74>:
 a50:	01279793          	slli	x15,x15,0x12
 a54:	03fc0f37          	lui	x30,0x3fc0
 a58:	00daeeb3          	or	x29,x21,x13
 a5c:	01e7f5b3          	and	x11,x15,x30
 a60:	01d5e533          	or	x10,x11,x29
 a64:	016563b3          	or	x7,x10,x22
 a68:	01000737          	lui	x14,0x1000
 a6c:	0123a023          	sw	x18,0(x7)
 a70:	00e686b3          	add	x13,x13,x14
 a74:	000ca783          	lw	x15,0(x25)
 a78:	fdc69ce3          	bne	x13,x28,a50 <.L74>
 a7c:	f32788e3          	beq	x15,x18,9ac <.L69>
 a80:	e9dff06f          	j	91c <.L80>

00000a84 <.L211>:
 a84:	00100693          	li	x13,1
 a88:	01810513          	addi	x10,x2,24
 a8c:	00c12623          	sw	x12,12(x2)
 a90:	00000097          	auipc	x1,0x0
 a94:	000080e7          	jalr	x1 # a90 <.L211+0xc>
 a98:	00c12603          	lw	x12,12(x2)
 a9c:	21040837          	lui	x16,0x21040
 aa0:	20040337          	lui	x6,0x20040
 aa4:	e99ff06f          	j	93c <.L81>

00000aa8 <.L94>:
 aa8:	00444883          	lbu	x17,4(x8)
 aac:	0ff8fe13          	andi	x28,x17,255
 ab0:	fe0e0ce3          	beqz	x28,aa8 <.L94>
 ab4:	00544e83          	lbu	x29,5(x8)
 ab8:	0ffeff13          	andi	x30,x29,255
 abc:	fe0f06e3          	beqz	x30,aa8 <.L94>
 ac0:	00644583          	lbu	x11,6(x8)
 ac4:	0ff5f513          	andi	x10,x11,255
 ac8:	fe0500e3          	beqz	x10,aa8 <.L94>
 acc:	00744383          	lbu	x7,7(x8)
 ad0:	0ff3f713          	andi	x14,x7,255
 ad4:	fc070ae3          	beqz	x14,aa8 <.L94>
 ad8:	000c2f83          	lw	x31,0(x24)
 adc:	00cf8793          	addi	x15,x31,12
 ae0:	00f402b3          	add	x5,x8,x15
 ae4:	0102e0b3          	or	x1,x5,x16
 ae8:	01208023          	sb	x18,0(x1)
 aec:	000ca683          	lw	x13,0(x25)
 af0:	d92696e3          	bne	x13,x18,87c <.L110>
 af4:	000c2783          	lw	x15,0(x24)
 af8:	01279a63          	bne	x15,x18,b0c <.L99>
 afc:	0680006f          	j	b64 <.L100>

00000b00 <.L213>:
 b00:	00840393          	addi	x7,x8,8
 b04:	1403a72f          	lr.w.aq	x14,(x7)
 b08:	01270863          	beq	x14,x18,b18 <.L107>

00000b0c <.L99>:
 b0c:	00840593          	addi	x11,x8,8
 b10:	1005a52f          	lr.w	x10,(x11)
 b14:	ff2516e3          	bne	x10,x18,b00 <.L213>

00000b18 <.L107>:
 b18:	00042423          	sw	x0,8(x8)
 b1c:	00040223          	sb	x0,4(x8)
 b20:	000402a3          	sb	x0,5(x8)
 b24:	00040323          	sb	x0,6(x8)
 b28:	000403a3          	sb	x0,7(x8)
 b2c:	00042023          	sw	x0,0(x8)
 b30:	00000e13          	li	x28,0
 b34:	00048413          	mv	x8,x9
 b38:	00040fb7          	lui	x31,0x40
 b3c:	001002b7          	lui	x5,0x100

00000b40 <.L108>:
 b40:	000c2083          	lw	x1,0(x24)
 b44:	01c468b3          	or	x17,x8,x28
 b48:	01fe0e33          	add	x28,x28,x31
 b4c:	01809e93          	slli	x29,x1,0x18
 b50:	011eef33          	or	x30,x29,x17
 b54:	016f66b3          	or	x13,x30,x22
 b58:	0126a023          	sw	x18,0(x13)
 b5c:	fe5e12e3          	bne	x28,x5,b40 <.L108>
 b60:	d1dff06f          	j	87c <.L110>

00000b64 <.L100>:
 b64:	00c44883          	lbu	x17,12(x8)
 b68:	0ff8fe13          	andi	x28,x17,255
 b6c:	fe0e0ce3          	beqz	x28,b64 <.L100>
 b70:	00d44e83          	lbu	x29,13(x8)
 b74:	0ffeff13          	andi	x30,x29,255
 b78:	fe0f06e3          	beqz	x30,b64 <.L100>
 b7c:	00e44583          	lbu	x11,14(x8)
 b80:	0ff5f513          	andi	x10,x11,255
 b84:	fe0500e3          	beqz	x10,b64 <.L100>
 b88:	00f44383          	lbu	x7,15(x8)
 b8c:	0ff3f713          	andi	x14,x7,255
 b90:	fc070ae3          	beqz	x14,b64 <.L100>
 b94:	00040623          	sb	x0,12(x8)
 b98:	000406a3          	sb	x0,13(x8)
 b9c:	00040723          	sb	x0,14(x8)
 ba0:	000407a3          	sb	x0,15(x8)
 ba4:	00042423          	sw	x0,8(x8)
 ba8:	00000693          	li	x13,0
 bac:	04000fb7          	lui	x31,0x4000

00000bb0 <.L104>:
 bb0:	01279793          	slli	x15,x15,0x12
 bb4:	03fc00b7          	lui	x1,0x3fc0
 bb8:	00dae2b3          	or	x5,x21,x13
 bbc:	0017f8b3          	and	x17,x15,x1
 bc0:	0058ee33          	or	x28,x17,x5
 bc4:	016e6eb3          	or	x29,x28,x22
 bc8:	01000f37          	lui	x30,0x1000
 bcc:	012ea023          	sw	x18,0(x29) # 100000 <.L202+0xff238>
 bd0:	01e686b3          	add	x13,x13,x30
 bd4:	000ca783          	lw	x15,0(x25)
 bd8:	fdf69ce3          	bne	x13,x31,bb0 <.L104>
 bdc:	f32788e3          	beq	x15,x18,b0c <.L99>
 be0:	c9dff06f          	j	87c <.L110>

00000be4 <.L206>:
 be4:	00100693          	li	x13,1
 be8:	01810513          	addi	x10,x2,24
 bec:	00c12623          	sw	x12,12(x2)
 bf0:	00000097          	auipc	x1,0x0
 bf4:	000080e7          	jalr	x1 # bf0 <.L206+0xc>
 bf8:	00c12603          	lw	x12,12(x2)
 bfc:	21040837          	lui	x16,0x21040
 c00:	20040337          	lui	x6,0x20040
 c04:	c99ff06f          	j	89c <.L111>

00000c08 <.L207>:
 c08:	05412903          	lw	x18,84(x2)
 c0c:	0524f063          	bgeu	x9,x18,c4c <.L214>
 c10:	01c12b03          	lw	x22,28(x2)
 c14:	00100293          	li	x5,1
 c18:	02812083          	lw	x1,40(x2)
 c1c:	165b0e63          	beq	x22,x5,d98 <.L53>
 c20:	00341793          	slli	x15,x8,0x3
 c24:	00f086b3          	add	x13,x1,x15

00000c28 <.L54>:
 c28:	05c12583          	lw	x11,92(x2)
 c2c:	06412f83          	lw	x31,100(x2)
 c30:	0005a503          	lw	x10,0(x11)
 c34:	02a483b3          	mul	x7,x9,x10
 c38:	00239713          	slli	x14,x7,0x2
 c3c:	00ef8833          	add	x16,x31,x14
 c40:	00082307          	flw	f6,0(x16) # 21040000 <.L202+0x2103f238>
 c44:	0066a027          	fsw	f6,0(x13)
 c48:	c69ff06f          	j	8b0 <.L50>

00000c4c <.L214>:
 c4c:	000000b7          	lui	x1,0x0
 c50:	00000337          	lui	x6,0x0
 c54:	00008593          	mv	x11,x1
 c58:	07b00613          	li	x12,123
 c5c:	00030513          	mv	x10,x6
 c60:	00000097          	auipc	x1,0x0
 c64:	000080e7          	jalr	x1 # c60 <.L214+0x14>
 c68:	05412583          	lw	x11,84(x2)
 c6c:	00000db7          	lui	x27,0x0
 c70:	00048613          	mv	x12,x9
 c74:	000d8513          	mv	x10,x27
 c78:	00000097          	auipc	x1,0x0
 c7c:	000080e7          	jalr	x1 # c78 <.L214+0x2c>
 c80:	000c2a03          	lw	x20,0(x24)
 c84:	000ca403          	lw	x8,0(x25)
 c88:	4100fbb7          	lui	x23,0x4100f
 c8c:	010a1993          	slli	x19,x20,0x10
 c90:	00898d33          	add	x26,x19,x8
 c94:	adabac23          	sw	x26,-1320(x23) # 4100ead8 <.L202+0x4100dd10>

00000c98 <.L52>:
 c98:	0000006f          	j	c98 <.L52>

00000c9c <.L208>:
 c9c:	05412a83          	lw	x21,84(x2)
 ca0:	0b547063          	bgeu	x8,x21,d40 <.L215>
 ca4:	01c12303          	lw	x6,28(x2)
 ca8:	00100613          	li	x12,1
 cac:	02812483          	lw	x9,40(x2)
 cb0:	10c30063          	beq	x6,x12,db0 <.L58>
 cb4:	00241e13          	slli	x28,x8,0x2
 cb8:	01c488b3          	add	x17,x9,x28

00000cbc <.L59>:
 cbc:	05c12e83          	lw	x29,92(x2)
 cc0:	06412583          	lw	x11,100(x2)
 cc4:	000eaf03          	lw	x30,0(x29)
 cc8:	03e406b3          	mul	x13,x8,x30
 ccc:	00269793          	slli	x15,x13,0x2
 cd0:	00f58533          	add	x10,x11,x15
 cd4:	00052387          	flw	f7,0(x10)
 cd8:	0078a027          	fsw	f7,0(x17)
 cdc:	bddff06f          	j	8b8 <.L55>

00000ce0 <.L204>:
 ce0:	00000637          	lui	x12,0x0
 ce4:	000009b7          	lui	x19,0x0
 ce8:	00060593          	mv	x11,x12
 cec:	00098513          	mv	x10,x19
 cf0:	07b00613          	li	x12,123
 cf4:	00000097          	auipc	x1,0x0
 cf8:	000080e7          	jalr	x1 # cf4 <.L204+0x14>
 cfc:	05412583          	lw	x11,84(x2)
 d00:	00040613          	mv	x12,x8
 d04:	00000437          	lui	x8,0x0
 d08:	00040513          	mv	x10,x8
 d0c:	00000097          	auipc	x1,0x0
 d10:	000080e7          	jalr	x1 # d0c <.L204+0x2c>
 d14:	000c2a03          	lw	x20,0(x24)
 d18:	000cab83          	lw	x23,0(x25)
 d1c:	4100fd37          	lui	x26,0x4100f
 d20:	010a1c13          	slli	x24,x20,0x10
 d24:	017c0cb3          	add	x25,x24,x23
 d28:	ad9d2c23          	sw	x25,-1320(x26) # 4100ead8 <.L202+0x4100dd10>

00000d2c <.L89>:
 d2c:	0000006f          	j	d2c <.L89>

00000d30 <.L90>:
 d30:	000f2703          	lw	x14,0(x30) # 1000000 <.L202+0xfff238>
 d34:	02e40fb3          	mul	x31,x8,x14
 d38:	002f9793          	slli	x15,x31,0x2
 d3c:	aa9ff06f          	j	7e4 <.L199>

00000d40 <.L215>:
 d40:	000007b7          	lui	x15,0x0
 d44:	000004b7          	lui	x9,0x0
 d48:	00048593          	mv	x11,x9
 d4c:	07b00613          	li	x12,123
 d50:	00078513          	mv	x10,x15
 d54:	00000097          	auipc	x1,0x0
 d58:	000080e7          	jalr	x1 # d54 <.L215+0x14>
 d5c:	05412583          	lw	x11,84(x2)
 d60:	00000fb7          	lui	x31,0x0
 d64:	00040613          	mv	x12,x8
 d68:	000f8513          	mv	x10,x31
 d6c:	00000097          	auipc	x1,0x0
 d70:	000080e7          	jalr	x1 # d6c <.L215+0x2c>
 d74:	000c2283          	lw	x5,0(x24)
 d78:	000ca883          	lw	x17,0(x25)
 d7c:	4100f837          	lui	x16,0x4100f
 d80:	01029c93          	slli	x25,x5,0x10
 d84:	011c8e33          	add	x28,x25,x17
 d88:	adc82c23          	sw	x28,-1320(x16) # 4100ead8 <.L202+0x4100dd10>

00000d8c <.L57>:
 d8c:	0000006f          	j	d8c <.L57>

00000d90 <.L209>:
 d90:	00048413          	mv	x8,x9
 d94:	e70ff06f          	j	404 <.L45>

00000d98 <.L53>:
 d98:	02012883          	lw	x17,32(x2)
 d9c:	0008ae03          	lw	x28,0(x17)
 da0:	03c48eb3          	mul	x29,x9,x28
 da4:	002e9f13          	slli	x30,x29,0x2
 da8:	01e086b3          	add	x13,x1,x30
 dac:	e7dff06f          	j	c28 <.L54>

00000db0 <.L58>:
 db0:	02012903          	lw	x18,32(x2)
 db4:	00092b03          	lw	x22,0(x18)
 db8:	036402b3          	mul	x5,x8,x22
 dbc:	00229093          	slli	x1,x5,0x2
 dc0:	001488b3          	add	x17,x9,x1
 dc4:	ef9ff06f          	j	cbc <.L59>

00000dc8 <.L202>:
 dc8:	000ca883          	lw	x17,0(x25)
 dcc:	861ff06f          	j	62c <.L122>

Disassembly of section .text._ZN8HBTensorIfLln1EEC2EP11hb_tensor_t:

00000000 <_ZN8HBTensorIfLln1EEC1EP11hb_tensor_t>:
   0:	00058713          	mv	x14,x11
   4:	0045a683          	lw	x13,4(x11)
   8:	00072803          	lw	x16,0(x14) # 1000000 <.L202+0xfff238>
   c:	0105a583          	lw	x11,16(x11)
  10:	00050793          	mv	x15,x10
  14:	02850613          	addi	x12,x10,40
  18:	01450513          	addi	x10,x10,20
  1c:	0107a023          	sw	x16,0(x15) # 0 <_ZN8HBTensorIfLln1EEC1EP11hb_tensor_t>
  20:	00d7a223          	sw	x13,4(x15)
  24:	00a7a423          	sw	x10,8(x15)
  28:	00c7a623          	sw	x12,12(x15)
  2c:	00b7a823          	sw	x11,16(x15)
  30:	00060613          	mv	x12,x12
  34:	00500293          	li	x5,5
  38:	04d2e463          	bltu	x5,x13,80 <.L43>
  3c:	00872303          	lw	x6,8(x14)
  40:	00c72383          	lw	x7,12(x14)
  44:	02068c63          	beqz	x13,7c <.L31>
  48:	00269893          	slli	x17,x13,0x2
  4c:	00078713          	mv	x14,x15
  50:	01178e33          	add	x28,x15,x17
  54:	40f30eb3          	sub	x29,x6,x15
  58:	40f38f33          	sub	x30,x7,x15

0000005c <.L35>:
  5c:	00ee8fb3          	add	x31,x29,x14
  60:	000fa683          	lw	x13,0(x31) # 0 <_ZN8HBTensorIfLln1EEC1EP11hb_tensor_t>
  64:	00ef05b3          	add	x11,x30,x14
  68:	00470713          	addi	x14,x14,4
  6c:	00d72823          	sw	x13,16(x14)
  70:	0005a803          	lw	x16,0(x11)
  74:	03072223          	sw	x16,36(x14)
  78:	ffc712e3          	bne	x14,x28,5c <.L35>

0000007c <.L31>:
  7c:	00008067          	ret

00000080 <.L43>:
  80:	ff010113          	addi	x2,x2,-16
  84:	000007b7          	lui	x15,0x0
  88:	00112623          	sw	x1,12(x2)
  8c:	000000b7          	lui	x1,0x0
  90:	0c700613          	li	x12,199
  94:	00008593          	mv	x11,x1
  98:	00078513          	mv	x10,x15
  9c:	00000097          	auipc	x1,0x0
  a0:	000080e7          	jalr	x1 # 9c <.L43+0x1c>
  a4:	00000637          	lui	x12,0x0
  a8:	00060513          	mv	x10,x12
  ac:	00000097          	auipc	x1,0x0
  b0:	000080e7          	jalr	x1 # ac <.L43+0x2c>
  b4:	00000537          	lui	x10,0x0
  b8:	00052283          	lw	x5,0(x10) # 0 <_ZN8HBTensorIfLln1EEC1EP11hb_tensor_t>
  bc:	00000337          	lui	x6,0x0
  c0:	00032383          	lw	x7,0(x6) # 0 <_ZN8HBTensorIfLln1EEC1EP11hb_tensor_t>
  c4:	01029893          	slli	x17,x5,0x10
  c8:	4100feb7          	lui	x29,0x4100f
  cc:	00788e33          	add	x28,x17,x7
  d0:	adceac23          	sw	x28,-1320(x29) # 4100ead8 <.L202+0x4100dd10>

000000d4 <.L33>:
  d4:	0000006f          	j	d4 <.L33>

Disassembly of section .srodata.cst8:

00000000 <.LC4>:
   0:	fefa39ef          	jal	x19,fffa3fee <.L202+0xfffa3226>
   4:	2e42                	fld	f28,16(x2)
   6:	3fe6                	fld	f31,120(x2)

Disassembly of section .srodata.cst4:

00000000 <.LC5>:
   0:	0000                	unimp
   2:	4200                	lw	x8,0(x12)

00000004 <.LC6>:
   4:	0000                	unimp
   6:	3d80                	fld	f8,56(x11)
