
kernel_sqrt.o:     file format elf32-littleriscv


Disassembly of section .group:

00000000 <_ZN8HBTensorIfLln1EEC5EP11hb_tensor_t>:
   0:	0001                	nop
   2:	0000                	unimp
   4:	00000007          	0x7
   8:	0008                	0x8
	...

Disassembly of section .text:

00000000 <_Z21hb_tiled_foreach_implIfZ14tensorlib_sqrtEUlfE_JEEvjjT0_8HBTensorIT_Lln1EES4_PS3_S5_.isra.0>:
   0:	fe010113          	addi	x2,x2,-32
   4:	00912c23          	sw	x9,24(x2)
   8:	01212a23          	sw	x18,20(x2)
   c:	00812e23          	sw	x8,28(x2)
  10:	01312823          	sw	x19,16(x2)
  14:	01412623          	sw	x20,12(x2)
  18:	01512423          	sw	x21,8(x2)
  1c:	00100313          	li	x6,1
  20:	02012483          	lw	x9,32(x2)
  24:	02412903          	lw	x18,36(x2)
  28:	0c660e63          	beq	x12,x6,104 <.L80>
  2c:	0ab57463          	bgeu	x10,x11,d4 <.L1>
  30:	00279413          	slli	x8,x15,0x2
  34:	00261393          	slli	x7,x12,0x2
  38:	00888a33          	add	x20,x17,x8
  3c:	00770ab3          	add	x21,x14,x7

00000040 <.L10>:
  40:	0a078e63          	beqz	x15,fc <.L11>
  44:	00080f13          	mv	x30,x16
  48:	00088313          	mv	x6,x17
  4c:	00050e93          	mv	x29,x10
  50:	00000393          	li	x7,0

00000054 <.L7>:
  54:	00032f83          	lw	x31,0(x6)
  58:	000f2983          	lw	x19,0(x30)
  5c:	00430313          	addi	x6,x6,4
  60:	03fefe33          	remu	x28,x29,x31
  64:	004f0f13          	addi	x30,x30,4
  68:	033e0433          	mul	x8,x28,x19
  6c:	03fedeb3          	divu	x29,x29,x31
  70:	008383b3          	add	x7,x7,x8
  74:	fe6a10e3          	bne	x20,x6,54 <.L7>
  78:	00239293          	slli	x5,x7,0x2
  7c:	005902b3          	add	x5,x18,x5

00000080 <.L6>:
  80:	0002a787          	flw	f15,0(x5)
  84:	06060863          	beqz	x12,f4 <.L12>
  88:	00068f13          	mv	x30,x13
  8c:	00070313          	mv	x6,x14
  90:	00050e93          	mv	x29,x10
  94:	00000293          	li	x5,0

00000098 <.L9>:
  98:	00032403          	lw	x8,0(x6)
  9c:	000f2983          	lw	x19,0(x30)
  a0:	00430313          	addi	x6,x6,4
  a4:	004f0f13          	addi	x30,x30,4
  a8:	028efe33          	remu	x28,x29,x8
  ac:	033e03b3          	mul	x7,x28,x19
  b0:	028edeb3          	divu	x29,x29,x8
  b4:	007282b3          	add	x5,x5,x7
  b8:	fe6a90e3          	bne	x21,x6,98 <.L9>
  bc:	00229f93          	slli	x31,x5,0x2
  c0:	01f48fb3          	add	x31,x9,x31

000000c4 <.L8>:
  c4:	5807f053          	fsqrt.s	f0,f15
  c8:	00150513          	addi	x10,x10,1
  cc:	000fa027          	fsw	f0,0(x31)
  d0:	f6a598e3          	bne	x11,x10,40 <.L10>

000000d4 <.L1>:
  d4:	01c12403          	lw	x8,28(x2)
  d8:	01812483          	lw	x9,24(x2)
  dc:	01412903          	lw	x18,20(x2)
  e0:	01012983          	lw	x19,16(x2)
  e4:	00c12a03          	lw	x20,12(x2)
  e8:	00812a83          	lw	x21,8(x2)
  ec:	02010113          	addi	x2,x2,32
  f0:	00008067          	ret

000000f4 <.L12>:
  f4:	00048f93          	mv	x31,x9
  f8:	fcdff06f          	j	c4 <.L8>

000000fc <.L11>:
  fc:	00090293          	mv	x5,x18
 100:	f81ff06f          	j	80 <.L6>

00000104 <.L80>:
 104:	fcb578e3          	bgeu	x10,x11,d4 <.L1>
 108:	00082703          	lw	x14,0(x16)
 10c:	0006a783          	lw	x15,0(x13)
 110:	40a586b3          	sub	x13,x11,x10
 114:	00271713          	slli	x14,x14,0x2
 118:	00279793          	slli	x15,x15,0x2
 11c:	02e508b3          	mul	x17,x10,x14
 120:	00f6fa13          	andi	x20,x13,15
 124:	02f50833          	mul	x16,x10,x15
 128:	01190933          	add	x18,x18,x17
 12c:	010484b3          	add	x9,x9,x16
 130:	1c0a0e63          	beqz	x20,30c <.L4>
 134:	1aca0e63          	beq	x20,x12,2f0 <.L62>
 138:	00200613          	li	x12,2
 13c:	18ca0e63          	beq	x20,x12,2d8 <.L63>
 140:	00300a93          	li	x21,3
 144:	175a0e63          	beq	x20,x21,2c0 <.L64>
 148:	00400413          	li	x8,4
 14c:	148a0e63          	beq	x20,x8,2a8 <.L65>
 150:	00500993          	li	x19,5
 154:	133a0e63          	beq	x20,x19,290 <.L66>
 158:	00600313          	li	x6,6
 15c:	106a0e63          	beq	x20,x6,278 <.L67>
 160:	00700e13          	li	x28,7
 164:	0fca0e63          	beq	x20,x28,260 <.L68>
 168:	00800f13          	li	x30,8
 16c:	0dea0e63          	beq	x20,x30,248 <.L69>
 170:	00900393          	li	x7,9
 174:	0a7a0e63          	beq	x20,x7,230 <.L70>
 178:	00a00e93          	li	x29,10
 17c:	09da0e63          	beq	x20,x29,218 <.L71>
 180:	00b00293          	li	x5,11
 184:	065a0e63          	beq	x20,x5,200 <.L72>
 188:	00c00f93          	li	x31,12
 18c:	05fa0e63          	beq	x20,x31,1e8 <.L73>
 190:	00d00693          	li	x13,13
 194:	02da0e63          	beq	x20,x13,1d0 <.L74>
 198:	00e00893          	li	x17,14
 19c:	011a0e63          	beq	x20,x17,1b8 <.L75>
 1a0:	00092087          	flw	f1,0(x18)
 1a4:	00150513          	addi	x10,x10,1
 1a8:	00e90933          	add	x18,x18,x14
 1ac:	5800f153          	fsqrt.s	f2,f1
 1b0:	0024a027          	fsw	f2,0(x9)
 1b4:	00f484b3          	add	x9,x9,x15

000001b8 <.L75>:
 1b8:	00092187          	flw	f3,0(x18)
 1bc:	00150513          	addi	x10,x10,1
 1c0:	00e90933          	add	x18,x18,x14
 1c4:	5801f253          	fsqrt.s	f4,f3
 1c8:	0044a027          	fsw	f4,0(x9)
 1cc:	00f484b3          	add	x9,x9,x15

000001d0 <.L74>:
 1d0:	00092287          	flw	f5,0(x18)
 1d4:	00150513          	addi	x10,x10,1
 1d8:	00e90933          	add	x18,x18,x14
 1dc:	5802f353          	fsqrt.s	f6,f5
 1e0:	0064a027          	fsw	f6,0(x9)
 1e4:	00f484b3          	add	x9,x9,x15

000001e8 <.L73>:
 1e8:	00092387          	flw	f7,0(x18)
 1ec:	00150513          	addi	x10,x10,1
 1f0:	00e90933          	add	x18,x18,x14
 1f4:	5803f553          	fsqrt.s	f10,f7
 1f8:	00a4a027          	fsw	f10,0(x9)
 1fc:	00f484b3          	add	x9,x9,x15

00000200 <.L72>:
 200:	00092587          	flw	f11,0(x18)
 204:	00150513          	addi	x10,x10,1
 208:	00e90933          	add	x18,x18,x14
 20c:	5805f653          	fsqrt.s	f12,f11
 210:	00c4a027          	fsw	f12,0(x9)
 214:	00f484b3          	add	x9,x9,x15

00000218 <.L71>:
 218:	00092687          	flw	f13,0(x18)
 21c:	00150513          	addi	x10,x10,1
 220:	00e90933          	add	x18,x18,x14
 224:	5806f753          	fsqrt.s	f14,f13
 228:	00e4a027          	fsw	f14,0(x9)
 22c:	00f484b3          	add	x9,x9,x15

00000230 <.L70>:
 230:	00092807          	flw	f16,0(x18)
 234:	00150513          	addi	x10,x10,1
 238:	00e90933          	add	x18,x18,x14
 23c:	580878d3          	fsqrt.s	f17,f16
 240:	0114a027          	fsw	f17,0(x9)
 244:	00f484b3          	add	x9,x9,x15

00000248 <.L69>:
 248:	00092e07          	flw	f28,0(x18)
 24c:	00150513          	addi	x10,x10,1
 250:	00e90933          	add	x18,x18,x14
 254:	580e7ed3          	fsqrt.s	f29,f28
 258:	01d4a027          	fsw	f29,0(x9)
 25c:	00f484b3          	add	x9,x9,x15

00000260 <.L68>:
 260:	00092f07          	flw	f30,0(x18)
 264:	00150513          	addi	x10,x10,1
 268:	00e90933          	add	x18,x18,x14
 26c:	580f7fd3          	fsqrt.s	f31,f30
 270:	01f4a027          	fsw	f31,0(x9)
 274:	00f484b3          	add	x9,x9,x15

00000278 <.L67>:
 278:	00092787          	flw	f15,0(x18)
 27c:	00150513          	addi	x10,x10,1
 280:	00e90933          	add	x18,x18,x14
 284:	5807f053          	fsqrt.s	f0,f15
 288:	0004a027          	fsw	f0,0(x9)
 28c:	00f484b3          	add	x9,x9,x15

00000290 <.L66>:
 290:	00092087          	flw	f1,0(x18)
 294:	00150513          	addi	x10,x10,1
 298:	00e90933          	add	x18,x18,x14
 29c:	5800f153          	fsqrt.s	f2,f1
 2a0:	0024a027          	fsw	f2,0(x9)
 2a4:	00f484b3          	add	x9,x9,x15

000002a8 <.L65>:
 2a8:	00092187          	flw	f3,0(x18)
 2ac:	00150513          	addi	x10,x10,1
 2b0:	00e90933          	add	x18,x18,x14
 2b4:	5801f253          	fsqrt.s	f4,f3
 2b8:	0044a027          	fsw	f4,0(x9)
 2bc:	00f484b3          	add	x9,x9,x15

000002c0 <.L64>:
 2c0:	00092287          	flw	f5,0(x18)
 2c4:	00150513          	addi	x10,x10,1
 2c8:	00e90933          	add	x18,x18,x14
 2cc:	5802f353          	fsqrt.s	f6,f5
 2d0:	0064a027          	fsw	f6,0(x9)
 2d4:	00f484b3          	add	x9,x9,x15

000002d8 <.L63>:
 2d8:	00092387          	flw	f7,0(x18)
 2dc:	00150513          	addi	x10,x10,1
 2e0:	00e90933          	add	x18,x18,x14
 2e4:	5803f553          	fsqrt.s	f10,f7
 2e8:	00a4a027          	fsw	f10,0(x9)
 2ec:	00f484b3          	add	x9,x9,x15

000002f0 <.L62>:
 2f0:	00092587          	flw	f11,0(x18)
 2f4:	00150513          	addi	x10,x10,1
 2f8:	00e90933          	add	x18,x18,x14
 2fc:	5805f653          	fsqrt.s	f12,f11
 300:	00c4a027          	fsw	f12,0(x9)
 304:	00f484b3          	add	x9,x9,x15
 308:	dca586e3          	beq	x11,x10,d4 <.L1>

0000030c <.L4>:
 30c:	00092687          	flw	f13,0(x18)
 310:	00e90a33          	add	x20,x18,x14
 314:	000a2807          	flw	f16,0(x20)
 318:	5806f8d3          	fsqrt.s	f17,f13
 31c:	00ea0833          	add	x16,x20,x14
 320:	00082e07          	flw	f28,0(x16)
 324:	00e80633          	add	x12,x16,x14
 328:	00062e87          	flw	f29,0(x12)
 32c:	00e60ab3          	add	x21,x12,x14
 330:	000aaf07          	flw	f30,0(x21)
 334:	00ea8433          	add	x8,x21,x14
 338:	00042f87          	flw	f31,0(x8)
 33c:	00e409b3          	add	x19,x8,x14
 340:	0009a187          	flw	f3,0(x19)
 344:	00e98333          	add	x6,x19,x14
 348:	00032107          	flw	f2,0(x6)
 34c:	00e30e33          	add	x28,x6,x14
 350:	000e2087          	flw	f1,0(x28)
 354:	00ee0f33          	add	x30,x28,x14
 358:	000f2007          	flw	f0,0(x30)
 35c:	00ef03b3          	add	x7,x30,x14
 360:	0003a507          	flw	f10,0(x7)
 364:	00e38eb3          	add	x29,x7,x14
 368:	00ee82b3          	add	x5,x29,x14
 36c:	000ea587          	flw	f11,0(x29)
 370:	00e28fb3          	add	x31,x5,x14
 374:	0002a607          	flw	f12,0(x5)
 378:	00ef86b3          	add	x13,x31,x14
 37c:	58087253          	fsqrt.s	f4,f16
 380:	0114a027          	fsw	f17,0(x9)
 384:	000fa687          	flw	f13,0(x31)
 388:	0006a707          	flw	f14,0(x13)
 38c:	00e68933          	add	x18,x13,x14
 390:	00092787          	flw	f15,0(x18)
 394:	00f48ab3          	add	x21,x9,x15
 398:	00fa8a33          	add	x20,x21,x15
 39c:	00fa09b3          	add	x19,x20,x15
 3a0:	00f98433          	add	x8,x19,x15
 3a4:	00f403b3          	add	x7,x8,x15
 3a8:	00f382b3          	add	x5,x7,x15
 3ac:	00f28fb3          	add	x31,x5,x15
 3b0:	00ff8f33          	add	x30,x31,x15
 3b4:	00ff0eb3          	add	x29,x30,x15
 3b8:	00fe8e33          	add	x28,x29,x15
 3bc:	00fe0333          	add	x6,x28,x15
 3c0:	00f308b3          	add	x17,x6,x15
 3c4:	00f88833          	add	x16,x17,x15
 3c8:	00f80633          	add	x12,x16,x15
 3cc:	00f606b3          	add	x13,x12,x15
 3d0:	01050513          	addi	x10,x10,16
 3d4:	00e90933          	add	x18,x18,x14
 3d8:	00f684b3          	add	x9,x13,x15
 3dc:	580e72d3          	fsqrt.s	f5,f28
 3e0:	004aa027          	fsw	f4,0(x21)
 3e4:	580ef353          	fsqrt.s	f6,f29
 3e8:	005a2027          	fsw	f5,0(x20)
 3ec:	580f73d3          	fsqrt.s	f7,f30
 3f0:	0069a027          	fsw	f6,0(x19)
 3f4:	580ff853          	fsqrt.s	f16,f31
 3f8:	00742027          	fsw	f7,0(x8)
 3fc:	5801fe53          	fsqrt.s	f28,f3
 400:	0103a027          	fsw	f16,0(x7)
 404:	580178d3          	fsqrt.s	f17,f2
 408:	01c2a027          	fsw	f28,0(x5)
 40c:	5800fed3          	fsqrt.s	f29,f1
 410:	011fa027          	fsw	f17,0(x31)
 414:	58007f53          	fsqrt.s	f30,f0
 418:	01df2027          	fsw	f29,0(x30)
 41c:	58057fd3          	fsqrt.s	f31,f10
 420:	01eea027          	fsw	f30,0(x29)
 424:	5805f1d3          	fsqrt.s	f3,f11
 428:	01fe2027          	fsw	f31,0(x28)
 42c:	58067153          	fsqrt.s	f2,f12
 430:	00332027          	fsw	f3,0(x6)
 434:	5806f0d3          	fsqrt.s	f1,f13
 438:	0028a027          	fsw	f2,0(x17)
 43c:	58077053          	fsqrt.s	f0,f14
 440:	00182027          	fsw	f1,0(x16)
 444:	5807f553          	fsqrt.s	f10,f15
 448:	00062027          	fsw	f0,0(x12)
 44c:	00a6a027          	fsw	f10,0(x13)
 450:	eaa59ee3          	bne	x11,x10,30c <.L4>
 454:	c81ff06f          	j	d4 <.L1>

00000458 <tensorlib_sqrt>:
 458:	f5010113          	addi	x2,x2,-176
 45c:	00050793          	mv	x15,x10
 460:	0a812423          	sw	x8,168(x2)
 464:	01810513          	addi	x10,x2,24
 468:	00058413          	mv	x8,x11
 46c:	00078593          	mv	x11,x15
 470:	0a112623          	sw	x1,172(x2)
 474:	0a912223          	sw	x9,164(x2)
 478:	0b212023          	sw	x18,160(x2)
 47c:	09312e23          	sw	x19,156(x2)
 480:	09412c23          	sw	x20,152(x2)
 484:	00000097          	auipc	x1,0x0
 488:	000080e7          	jalr	x1 # 484 <tensorlib_sqrt+0x2c>
 48c:	00040593          	mv	x11,x8
 490:	05410513          	addi	x10,x2,84
 494:	00000097          	auipc	x1,0x0
 498:	000080e7          	jalr	x1 # 494 <tensorlib_sqrt+0x3c>
 49c:	00000a37          	lui	x20,0x0
 4a0:	000004b7          	lui	x9,0x0
 4a4:	000009b7          	lui	x19,0x0
 4a8:	00000437          	lui	x8,0x0
 4ac:	000a2283          	lw	x5,0(x20) # 0 <_Z21hb_tiled_foreach_implIfZ14tensorlib_sqrtEUlfE_JEEvjjT0_8HBTensorIT_Lln1EES4_PS3_S5_.isra.0>
 4b0:	0004a583          	lw	x11,0(x9) # 0 <_Z21hb_tiled_foreach_implIfZ14tensorlib_sqrtEUlfE_JEEvjjT0_8HBTensorIT_Lln1EES4_PS3_S5_.isra.0>
 4b4:	0009a703          	lw	x14,0(x19) # 0 <_Z21hb_tiled_foreach_implIfZ14tensorlib_sqrtEUlfE_JEEvjjT0_8HBTensorIT_Lln1EES4_PS3_S5_.isra.0>
 4b8:	00042603          	lw	x12,0(x8) # 0 <_Z21hb_tiled_foreach_implIfZ14tensorlib_sqrtEUlfE_JEEvjjT0_8HBTensorIT_Lln1EES4_PS3_S5_.isra.0>
 4bc:	00000937          	lui	x18,0x0
 4c0:	00092683          	lw	x13,0(x18) # 0 <_Z21hb_tiled_foreach_implIfZ14tensorlib_sqrtEUlfE_JEEvjjT0_8HBTensorIT_Lln1EES4_PS3_S5_.isra.0>
 4c4:	00b28333          	add	x6,x5,x11
 4c8:	00c703b3          	add	x7,x14,x12
 4cc:	01831513          	slli	x10,x6,0x18
 4d0:	01239813          	slli	x16,x7,0x12
 4d4:	3f0008b7          	lui	x17,0x3f000
 4d8:	00fc0eb7          	lui	x29,0xfc0
 4dc:	000405b7          	lui	x11,0x40
 4e0:	01157e33          	and	x28,x10,x17
 4e4:	01d87f33          	and	x30,x16,x29
 4e8:	00469f93          	slli	x31,x13,0x4
 4ec:	ff058713          	addi	x14,x11,-16 # 3fff0 <.L105+0x3f84c>
 4f0:	01ee67b3          	or	x15,x28,x30
 4f4:	00eff633          	and	x12,x31,x14
 4f8:	01812283          	lw	x5,24(x2)
 4fc:	00c7e6b3          	or	x13,x15,x12
 500:	80000337          	lui	x6,0x80000
 504:	0066e3b3          	or	x7,x13,x6
 508:	41001537          	lui	x10,0x41001
 50c:	d0752623          	sw	x7,-756(x10) # 41000d0c <.L105+0x41000568>
 510:	fff28f13          	addi	x30,x5,-1
 514:	ffd00f93          	li	x31,-3
 518:	01c12603          	lw	x12,28(x2)
 51c:	02012683          	lw	x13,32(x2)
 520:	02412703          	lw	x14,36(x2)
 524:	02812e03          	lw	x28,40(x2)
 528:	05812783          	lw	x15,88(x2)
 52c:	05c12803          	lw	x16,92(x2)
 530:	06012883          	lw	x17,96(x2)
 534:	06412e83          	lw	x29,100(x2)
 538:	1fefe663          	bltu	x31,x30,724 <.L115>
 53c:	000000b7          	lui	x1,0x0
 540:	0000a303          	lw	x6,0(x1) # 0 <_Z21hb_tiled_foreach_implIfZ14tensorlib_sqrtEUlfE_JEEvjjT0_8HBTensorIT_Lln1EES4_PS3_S5_.isra.0>
 544:	0072d593          	srli	x11,x5,0x7
 548:	00158393          	addi	x7,x11,1
 54c:	07f37513          	andi	x10,x6,127
 550:	02750533          	mul	x10,x10,x7
 554:	00a385b3          	add	x11,x7,x10
 558:	1cb2ec63          	bltu	x5,x11,730 <.L128>

0000055c <.L96>:
 55c:	1cb57463          	bgeu	x10,x11,724 <.L115>

00000560 <.L95>:
 560:	01d12223          	sw	x29,4(x2)
 564:	01c12023          	sw	x28,0(x2)
 568:	00000097          	auipc	x1,0x0
 56c:	000080e7          	jalr	x1 # 568 <.L95+0x8>
 570:	0004a803          	lw	x16,0(x9)
 574:	000a2a03          	lw	x20,0(x20)
 578:	0009a983          	lw	x19,0(x19)
 57c:	00042883          	lw	x17,0(x8)
 580:	00092903          	lw	x18,0(x18)
 584:	010a02b3          	add	x5,x20,x16
 588:	01198733          	add	x14,x19,x17
 58c:	01829793          	slli	x15,x5,0x18
 590:	01271693          	slli	x13,x14,0x12
 594:	3f000637          	lui	x12,0x3f000
 598:	00fc0fb7          	lui	x31,0xfc0
 59c:	000405b7          	lui	x11,0x40
 5a0:	00c7ff33          	and	x30,x15,x12
 5a4:	01f6fe33          	and	x28,x13,x31
 5a8:	00491e93          	slli	x29,x18,0x4
 5ac:	ff058393          	addi	x7,x11,-16 # 3fff0 <.L105+0x3f84c>
 5b0:	01cf6333          	or	x6,x30,x28
 5b4:	007ef533          	and	x10,x29,x7
 5b8:	00a36a33          	or	x20,x6,x10
 5bc:	c0000837          	lui	x16,0xc0000
 5c0:	010a69b3          	or	x19,x20,x16
 5c4:	410018b7          	lui	x17,0x41001
 5c8:	d138a623          	sw	x19,-756(x17) # 41000d0c <.L105+0x41000568>
 5cc:	00042903          	lw	x18,0(x8)
 5d0:	0004a283          	lw	x5,0(x9)
 5d4:	00000637          	lui	x12,0x0
 5d8:	00490713          	addi	x14,x18,4
 5dc:	00060793          	mv	x15,x12
 5e0:	00e78f33          	add	x30,x15,x14
 5e4:	01829693          	slli	x13,x5,0x18
 5e8:	00df6fb3          	or	x31,x30,x13
 5ec:	201c0e37          	lui	x28,0x201c0
 5f0:	01cfeeb3          	or	x29,x31,x28
 5f4:	00100313          	li	x6,1
 5f8:	006e8023          	sb	x6,0(x29) # fc0000 <.L105+0xfbf85c>
 5fc:	00042583          	lw	x11,0(x8)
 600:	00700393          	li	x7,7
 604:	04758663          	beq	x11,x7,650 <.L129>

00000608 <.L98>:
 608:	00100493          	li	x9,1
 60c:	0100006f          	j	61c <.L111>

00000610 <.L130>:
 610:	00060893          	mv	x17,x12
 614:	1408a92f          	lr.w.aq	x18,(x17)
 618:	00990863          	beq	x18,x9,628 <.L110>

0000061c <.L111>:
 61c:	00060513          	mv	x10,x12
 620:	1005282f          	lr.w	x16,(x10)
 624:	fe9816e3          	bne	x16,x9,610 <.L130>

00000628 <.L110>:
 628:	0ac12083          	lw	x1,172(x2)
 62c:	0a812403          	lw	x8,168(x2)
 630:	0007a023          	sw	x0,0(x15)
 634:	0a412483          	lw	x9,164(x2)
 638:	0a012903          	lw	x18,160(x2)
 63c:	09c12983          	lw	x19,156(x2)
 640:	09812a03          	lw	x20,152(x2)
 644:	00000513          	li	x10,0
 648:	0b010113          	addi	x2,x2,176
 64c:	00008067          	ret

00000650 <.L129>:
 650:	000000b7          	lui	x1,0x0
 654:	00000537          	lui	x10,0x0
 658:	00408a13          	addi	x20,x1,4 # 4 <_Z21hb_tiled_foreach_implIfZ14tensorlib_sqrtEUlfE_JEEvjjT0_8HBTensorIT_Lln1EES4_PS3_S5_.isra.0+0x4>
 65c:	01450993          	addi	x19,x10,20 # 14 <_Z21hb_tiled_foreach_implIfZ14tensorlib_sqrtEUlfE_JEEvjjT0_8HBTensorIT_Lln1EES4_PS3_S5_.isra.0+0x14>

00000660 <.L97>:
 660:	000a0893          	mv	x17,x20

00000664 <.L100>:
 664:	0008c803          	lbu	x16,0(x17)
 668:	00188893          	addi	x17,x17,1
 66c:	0ff87913          	andi	x18,x16,255
 670:	fe0908e3          	beqz	x18,660 <.L97>
 674:	ff1998e3          	bne	x19,x17,664 <.L100>
 678:	0004a283          	lw	x5,0(x9)
 67c:	231c06b7          	lui	x13,0x231c0
 680:	00100e13          	li	x28,1
 684:	01828713          	addi	x14,x5,24
 688:	00e78f33          	add	x30,x15,x14
 68c:	00df6fb3          	or	x31,x30,x13
 690:	01cf8023          	sb	x28,0(x31) # fc0000 <.L105+0xfbf85c>
 694:	00042383          	lw	x7,0(x8)
 698:	00700e93          	li	x29,7
 69c:	f7d396e3          	bne	x7,x29,608 <.L98>
 6a0:	0004a303          	lw	x6,0(x9)
 6a4:	00300593          	li	x11,3
 6a8:	08b30863          	beq	x6,x11,738 <.L131>

000006ac <.L106>:
 6ac:	00100513          	li	x10,1
 6b0:	0100006f          	j	6c0 <.L102>

000006b4 <.L132>:
 6b4:	01478913          	addi	x18,x15,20
 6b8:	140922af          	lr.w.aq	x5,(x18)
 6bc:	00a28863          	beq	x5,x10,6cc <.L107>

000006c0 <.L102>:
 6c0:	01478813          	addi	x16,x15,20
 6c4:	100828af          	lr.w	x17,(x16)
 6c8:	fea896e3          	bne	x17,x10,6b4 <.L132>

000006cc <.L107>:
 6cc:	0007aa23          	sw	x0,20(x15)
 6d0:	00000e13          	li	x28,0
 6d4:	01000f13          	li	x30,16

000006d8 <.L108>:
 6d8:	01c78fb3          	add	x31,x15,x28
 6dc:	000f8223          	sb	x0,4(x31)
 6e0:	001e0e13          	addi	x28,x28,1 # 201c0001 <.L105+0x201bf85d>
 6e4:	ffee1ae3          	bne	x28,x30,6d8 <.L108>
 6e8:	0007a023          	sw	x0,0(x15)
 6ec:	00000a13          	li	x20,0
 6f0:	20000eb7          	lui	x29,0x20000
 6f4:	00100313          	li	x6,1
 6f8:	000403b7          	lui	x7,0x40
 6fc:	004000b7          	lui	x1,0x400

00000700 <.L109>:
 700:	0004a703          	lw	x14,0(x9)
 704:	0147e5b3          	or	x11,x15,x20
 708:	007a0a33          	add	x20,x20,x7
 70c:	01871693          	slli	x13,x14,0x18
 710:	00b6e433          	or	x8,x13,x11
 714:	01d469b3          	or	x19,x8,x29
 718:	0069a023          	sw	x6,0(x19)
 71c:	fe1a12e3          	bne	x20,x1,700 <.L109>
 720:	ee9ff06f          	j	608 <.L98>

00000724 <.L115>:
 724:	00000593          	li	x11,0
 728:	00000513          	li	x10,0
 72c:	e35ff06f          	j	560 <.L95>

00000730 <.L128>:
 730:	00028593          	mv	x11,x5
 734:	e29ff06f          	j	55c <.L96>

00000738 <.L131>:
 738:	000000b7          	lui	x1,0x0
 73c:	00000537          	lui	x10,0x0
 740:	01808a13          	addi	x20,x1,24 # 18 <_Z21hb_tiled_foreach_implIfZ14tensorlib_sqrtEUlfE_JEEvjjT0_8HBTensorIT_Lln1EES4_PS3_S5_.isra.0+0x18>
 744:	02050813          	addi	x16,x10,32 # 20 <_Z21hb_tiled_foreach_implIfZ14tensorlib_sqrtEUlfE_JEEvjjT0_8HBTensorIT_Lln1EES4_PS3_S5_.isra.0+0x20>

00000748 <.L101>:
 748:	000a0913          	mv	x18,x20

0000074c <.L103>:
 74c:	00094883          	lbu	x17,0(x18)
 750:	00190913          	addi	x18,x18,1
 754:	0ff8f293          	andi	x5,x17,255
 758:	fe0288e3          	beqz	x5,748 <.L101>
 75c:	ff2818e3          	bne	x16,x18,74c <.L103>
 760:	00078c23          	sb	x0,24(x15)
 764:	00078ca3          	sb	x0,25(x15)
 768:	00078d23          	sb	x0,26(x15)
 76c:	00078da3          	sb	x0,27(x15)
 770:	00078e23          	sb	x0,28(x15)
 774:	00078ea3          	sb	x0,29(x15)
 778:	00078f23          	sb	x0,30(x15)
 77c:	00078fa3          	sb	x0,31(x15)
 780:	0007aa23          	sw	x0,20(x15)
 784:	00000693          	li	x13,0
 788:	03fc0f37          	lui	x30,0x3fc0
 78c:	20000fb7          	lui	x31,0x20000
 790:	00100e13          	li	x28,1
 794:	01000eb7          	lui	x29,0x1000
 798:	08000337          	lui	x6,0x8000
 79c:	0080006f          	j	7a4 <.L105>

000007a0 <.L133>:
 7a0:	00042383          	lw	x7,0(x8)

000007a4 <.L105>:
 7a4:	01239713          	slli	x14,x7,0x12
 7a8:	01e775b3          	and	x11,x14,x30
 7ac:	00d9e3b3          	or	x7,x19,x13
 7b0:	0075e0b3          	or	x1,x11,x7
 7b4:	01f0ea33          	or	x20,x1,x31
 7b8:	01ca2023          	sw	x28,0(x20)
 7bc:	01d686b3          	add	x13,x13,x29
 7c0:	fe6690e3          	bne	x13,x6,7a0 <.L133>
 7c4:	00042403          	lw	x8,0(x8)
 7c8:	00700993          	li	x19,7
 7cc:	ef3400e3          	beq	x8,x19,6ac <.L106>
 7d0:	e39ff06f          	j	608 <.L98>

Disassembly of section .text._ZN8HBTensorIfLln1EEC2EP11hb_tensor_t:

00000000 <_ZN8HBTensorIfLln1EEC1EP11hb_tensor_t>:
   0:	00058713          	mv	x14,x11
   4:	0045a683          	lw	x13,4(x11)
   8:	00072803          	lw	x16,0(x14)
   c:	0105a583          	lw	x11,16(x11)
  10:	00050793          	mv	x15,x10
  14:	02850613          	addi	x12,x10,40
  18:	01450513          	addi	x10,x10,20
  1c:	0107a023          	sw	x16,0(x15)
  20:	00d7a223          	sw	x13,4(x15)
  24:	00a7a423          	sw	x10,8(x15)
  28:	00c7a623          	sw	x12,12(x15)
  2c:	00b7a823          	sw	x11,16(x15)
  30:	00060613          	mv	x12,x12
  34:	00500293          	li	x5,5
  38:	04d2e463          	bltu	x5,x13,80 <.L93>
  3c:	00872303          	lw	x6,8(x14)
  40:	00c72383          	lw	x7,12(x14)
  44:	02068c63          	beqz	x13,7c <.L81>
  48:	00269893          	slli	x17,x13,0x2
  4c:	00078713          	mv	x14,x15
  50:	01178e33          	add	x28,x15,x17
  54:	40f30eb3          	sub	x29,x6,x15
  58:	40f38f33          	sub	x30,x7,x15

0000005c <.L85>:
  5c:	00ee8fb3          	add	x31,x29,x14
  60:	000fa683          	lw	x13,0(x31) # 20000000 <.L105+0x1ffff85c>
  64:	00ef05b3          	add	x11,x30,x14
  68:	00470713          	addi	x14,x14,4
  6c:	00d72823          	sw	x13,16(x14)
  70:	0005a803          	lw	x16,0(x11)
  74:	03072223          	sw	x16,36(x14)
  78:	ffc712e3          	bne	x14,x28,5c <.L85>

0000007c <.L81>:
  7c:	00008067          	ret

00000080 <.L93>:
  80:	ff010113          	addi	x2,x2,-16
  84:	000007b7          	lui	x15,0x0
  88:	00112623          	sw	x1,12(x2)
  8c:	000000b7          	lui	x1,0x0
  90:	0d800613          	li	x12,216
  94:	00008593          	mv	x11,x1
  98:	00078513          	mv	x10,x15
  9c:	00000097          	auipc	x1,0x0
  a0:	000080e7          	jalr	x1 # 9c <.L93+0x1c>
  a4:	00000637          	lui	x12,0x0
  a8:	00060513          	mv	x10,x12
  ac:	00000097          	auipc	x1,0x0
  b0:	000080e7          	jalr	x1 # ac <.L93+0x2c>
  b4:	00000537          	lui	x10,0x0
  b8:	00052283          	lw	x5,0(x10) # 0 <_ZN8HBTensorIfLln1EEC1EP11hb_tensor_t>
  bc:	00000337          	lui	x6,0x0
  c0:	00032383          	lw	x7,0(x6) # 0 <_ZN8HBTensorIfLln1EEC1EP11hb_tensor_t>
  c4:	01029893          	slli	x17,x5,0x10
  c8:	4100feb7          	lui	x29,0x4100f
  cc:	00788e33          	add	x28,x17,x7
  d0:	adceac23          	sw	x28,-1320(x29) # 4100ead8 <.L105+0x4100e334>

000000d4 <.L83>:
  d4:	0000006f          	j	d4 <.L83>
