
kernel_batch_norm.o:     file format elf32-littleriscv


Disassembly of section .group:

00000000 <_ZN8HBTensorIfLl4EEC5EP11hb_tensor_t>:
   0:	0001                	nop
   2:	0000                	unimp
   4:	0008                	0x8
   6:	0000                	unimp
   8:	0009                	c.nop	2
	...

Disassembly of section .group:

00000000 <_ZN8HBTensorIfLl1EEC5EP11hb_tensor_t>:
   0:	0001                	nop
   2:	0000                	unimp
   4:	000a                	c.slli	x0,0x2
   6:	0000                	unimp
   8:	0000000b          	0xb

Disassembly of section .text:

00000000 <tensorlib_batch_norm2d_transform_input>:
       0:	ea010113          	addi	x2,x2,-352
       4:	00050313          	mv	x6,x10
       8:	15612023          	sw	x22,320(x2)
       c:	0b810513          	addi	x10,x2,184
      10:	00058b13          	mv	x22,x11
      14:	00030593          	mv	x11,x6
      18:	14112e23          	sw	x1,348(x2)
      1c:	14812c23          	sw	x8,344(x2)
      20:	14912a23          	sw	x9,340(x2)
      24:	00088413          	mv	x8,x17
      28:	00080493          	mv	x9,x16
      2c:	15212823          	sw	x18,336(x2)
      30:	15312623          	sw	x19,332(x2)
      34:	00078913          	mv	x18,x15
      38:	00070993          	mv	x19,x14
      3c:	15412423          	sw	x20,328(x2)
      40:	15512223          	sw	x21,324(x2)
      44:	00068a13          	mv	x20,x13
      48:	00060a93          	mv	x21,x12
      4c:	13a12823          	sw	x26,304(x2)
      50:	13b12623          	sw	x27,300(x2)
      54:	13712e23          	sw	x23,316(x2)
      58:	13812c23          	sw	x24,312(x2)
      5c:	13912a23          	sw	x25,308(x2)
      60:	00000097          	auipc	x1,0x0
      64:	000080e7          	jalr	x1 # 60 <tensorlib_batch_norm2d_transform_input+0x60>
      68:	000b0593          	mv	x11,x22
      6c:	0ec10513          	addi	x10,x2,236
      70:	00000097          	auipc	x1,0x0
      74:	000080e7          	jalr	x1 # 70 <tensorlib_batch_norm2d_transform_input+0x70>
      78:	000a8593          	mv	x11,x21
      7c:	01010513          	addi	x10,x2,16
      80:	00000097          	auipc	x1,0x0
      84:	000080e7          	jalr	x1 # 80 <tensorlib_batch_norm2d_transform_input+0x80>
      88:	000a0593          	mv	x11,x20
      8c:	02c10513          	addi	x10,x2,44
      90:	00000097          	auipc	x1,0x0
      94:	000080e7          	jalr	x1 # 90 <tensorlib_batch_norm2d_transform_input+0x90>
      98:	00098593          	mv	x11,x19
      9c:	04810513          	addi	x10,x2,72
      a0:	00000097          	auipc	x1,0x0
      a4:	000080e7          	jalr	x1 # a0 <tensorlib_batch_norm2d_transform_input+0xa0>
      a8:	00090593          	mv	x11,x18
      ac:	06410513          	addi	x10,x2,100
      b0:	00000097          	auipc	x1,0x0
      b4:	000080e7          	jalr	x1 # b0 <tensorlib_batch_norm2d_transform_input+0xb0>
      b8:	00048593          	mv	x11,x9
      bc:	08010513          	addi	x10,x2,128
      c0:	00000097          	auipc	x1,0x0
      c4:	000080e7          	jalr	x1 # c0 <tensorlib_batch_norm2d_transform_input+0xc0>
      c8:	09c10513          	addi	x10,x2,156
      cc:	00040593          	mv	x11,x8
      d0:	00000097          	auipc	x1,0x0
      d4:	000080e7          	jalr	x1 # d0 <tensorlib_batch_norm2d_transform_input+0xd0>
      d8:	0f812783          	lw	x15,248(x2)
      dc:	16012703          	lw	x14,352(x2)
      e0:	16412283          	lw	x5,356(x2)
      e4:	0047ad03          	lw	x26,4(x15)
      e8:	00072d83          	lw	x27,0(x14)
      ec:	0002a007          	flw	f0,0(x5)
      f0:	0007ae83          	lw	x29,0(x15)
      f4:	0087ae03          	lw	x28,8(x15)
      f8:	00c7a503          	lw	x10,12(x15)
      fc:	180d0663          	beqz	x26,288 <.L50>
     100:	03ce80b3          	mul	x1,x29,x28
     104:	000003b7          	lui	x7,0x0
     108:	0003a587          	flw	f11,0(x7) # 0 <tensorlib_batch_norm2d_transform_input>
     10c:	00000413          	li	x8,0
     110:	00100c93          	li	x25,1
     114:	20b58553          	fmv.s	f10,f11
     118:	02a08333          	mul	x6,x1,x10
     11c:	02ae0f33          	mul	x30,x28,x10
     120:	00735593          	srli	x11,x6,0x7
     124:	fff30613          	addi	x12,x6,-1
     128:	00158693          	addi	x13,x11,1
     12c:	00c12423          	sw	x12,8(x2)
     130:	00d12623          	sw	x13,12(x2)

00000134 <.L51>:
     134:	1e0d8e63          	beqz	x27,330 <.L21>
     138:	04812483          	lw	x9,72(x2)
     13c:	2c947863          	bgeu	x8,x9,40c <.L84>
     140:	04c12703          	lw	x14,76(x2)
     144:	05812783          	lw	x15,88(x2)
     148:	49970a63          	beq	x14,x25,5dc <.L24>
     14c:	06412803          	lw	x16,100(x2)
     150:	00241693          	slli	x13,x8,0x2
     154:	00d78633          	add	x12,x15,x13
     158:	4b047063          	bgeu	x8,x16,5f8 <.L85>

0000015c <.L26>:
     15c:	06812883          	lw	x17,104(x2)
     160:	07412b83          	lw	x23,116(x2)
     164:	31988c63          	beq	x17,x25,47c <.L28>
     168:	00241993          	slli	x19,x8,0x2
     16c:	013b8a33          	add	x20,x23,x19

00000170 <.L29>:
     170:	01012903          	lw	x18,16(x2)
     174:	00062687          	flw	f13,0(x12)
     178:	000a2787          	flw	f15,0(x20)
     17c:	20a501d3          	fmv.s	f3,f10
     180:	20091463          	bnez	x18,388 <.L86>

00000184 <.L39>:
     184:	02c12683          	lw	x13,44(x2)
     188:	22068263          	beqz	x13,3ac <.L71>

0000018c <.L93>:
     18c:	4cd47263          	bgeu	x8,x13,650 <.L87>
     190:	03012803          	lw	x16,48(x2)
     194:	03c12883          	lw	x17,60(x2)
     198:	57980463          	beq	x16,x25,700 <.L47>
     19c:	00241a13          	slli	x20,x8,0x2
     1a0:	01488ab3          	add	x21,x17,x20

000001a4 <.L48>:
     1a4:	000aa607          	flw	f12,0(x21)

000001a8 <.L44>:
     1a8:	00812983          	lw	x19,8(x2)
     1ac:	ffd00913          	li	x18,-3
     1b0:	0d396863          	bltu	x18,x19,280 <.L53>
     1b4:	000004b7          	lui	x9,0x0
     1b8:	0004a783          	lw	x15,0(x9) # 0 <tensorlib_batch_norm2d_transform_input>
     1bc:	00c12283          	lw	x5,12(x2)
     1c0:	07f7f713          	andi	x14,x15,127
     1c4:	025705b3          	mul	x11,x14,x5
     1c8:	00b280b3          	add	x1,x5,x11
     1cc:	00137463          	bgeu	x6,x1,1d4 <.L52>
     1d0:	00030093          	mv	x1,x6

000001d4 <.L52>:
     1d4:	0a15f663          	bgeu	x11,x1,280 <.L53>
     1d8:	0f412603          	lw	x12,244(x2)
     1dc:	0c012683          	lw	x13,192(x2)
     1e0:	10f1f253          	fmul.s	f4,f3,f15
     1e4:	00462383          	lw	x7,4(x12)
     1e8:	0046a803          	lw	x16,4(x13)
     1ec:	0fc12c03          	lw	x24,252(x2)
     1f0:	02740fb3          	mul	x31,x8,x7
     1f4:	00062b83          	lw	x23,0(x12)
     1f8:	00c62b03          	lw	x22,12(x12)
     1fc:	00862a83          	lw	x21,8(x12)
     200:	0c812a03          	lw	x20,200(x2)
     204:	0006a983          	lw	x19,0(x13)
     208:	00c6a903          	lw	x18,12(x13)
     20c:	0086a483          	lw	x9,8(x13)
     210:	030402b3          	mul	x5,x8,x16

00000214 <.L54>:
     214:	03e5d8b3          	divu	x17,x11,x30
     218:	02a5d733          	divu	x14,x11,x10
     21c:	02a5f7b3          	remu	x15,x11,x10
     220:	00158593          	addi	x11,x11,1
     224:	03d8f633          	remu	x12,x17,x29
     228:	03c776b3          	remu	x13,x14,x28
     22c:	036783b3          	mul	x7,x15,x22
     230:	037608b3          	mul	x17,x12,x23
     234:	007f8733          	add	x14,x31,x7
     238:	03568833          	mul	x16,x13,x21
     23c:	011703b3          	add	x7,x14,x17
     240:	010388b3          	add	x17,x7,x16
     244:	00289713          	slli	x14,x17,0x2
     248:	032787b3          	mul	x15,x15,x18
     24c:	00ec0833          	add	x16,x24,x14
     250:	00082287          	flw	f5,0(x16)
     254:	08d2f353          	fsub.s	f6,f5,f13
     258:	03360633          	mul	x12,x12,x19
     25c:	005783b3          	add	x7,x15,x5
     260:	606273c3          	fmadd.s	f7,f4,f6,f12
     264:	029686b3          	mul	x13,x13,x9
     268:	00c388b3          	add	x17,x7,x12
     26c:	00d887b3          	add	x15,x17,x13
     270:	00279713          	slli	x14,x15,0x2
     274:	00ea0833          	add	x16,x20,x14
     278:	00782027          	fsw	f7,0(x16)
     27c:	f8b09ce3          	bne	x1,x11,214 <.L54>

00000280 <.L53>:
     280:	00140413          	addi	x8,x8,1
     284:	ea8d18e3          	bne	x26,x8,134 <.L51>

00000288 <.L50>:
     288:	000000b7          	lui	x1,0x0
     28c:	0000aa83          	lw	x21,0(x1) # 0 <tensorlib_batch_norm2d_transform_input>
     290:	00000a37          	lui	x20,0x0
     294:	000a2983          	lw	x19,0(x20) # 0 <tensorlib_batch_norm2d_transform_input>
     298:	000005b7          	lui	x11,0x0
     29c:	004a8913          	addi	x18,x21,4
     2a0:	00058613          	mv	x12,x11
     2a4:	012604b3          	add	x9,x12,x18
     2a8:	01899293          	slli	x5,x19,0x18
     2ac:	0054e3b3          	or	x7,x9,x5
     2b0:	201c06b7          	lui	x13,0x201c0
     2b4:	00d3e8b3          	or	x17,x7,x13
     2b8:	00100793          	li	x15,1
     2bc:	00f88023          	sb	x15,0(x17)
     2c0:	0000a703          	lw	x14,0(x1)
     2c4:	00700813          	li	x16,7
     2c8:	1d070663          	beq	x14,x16,494 <.L88>

000002cc <.L55>:
     2cc:	00100a13          	li	x20,1
     2d0:	0100006f          	j	2e0 <.L68>

000002d4 <.L89>:
     2d4:	00058c13          	mv	x24,x11
     2d8:	140c2faf          	lr.w.aq	x31,(x24)
     2dc:	014f8863          	beq	x31,x20,2ec <.L67>

000002e0 <.L68>:
     2e0:	00058513          	mv	x10,x11
     2e4:	10052f2f          	lr.w	x30,(x10)
     2e8:	ff4f16e3          	bne	x30,x20,2d4 <.L89>

000002ec <.L67>:
     2ec:	15c12083          	lw	x1,348(x2)
     2f0:	15812403          	lw	x8,344(x2)
     2f4:	00062023          	sw	x0,0(x12)
     2f8:	15412483          	lw	x9,340(x2)
     2fc:	15012903          	lw	x18,336(x2)
     300:	14c12983          	lw	x19,332(x2)
     304:	14812a03          	lw	x20,328(x2)
     308:	14412a83          	lw	x21,324(x2)
     30c:	14012b03          	lw	x22,320(x2)
     310:	13c12b83          	lw	x23,316(x2)
     314:	13812c03          	lw	x24,312(x2)
     318:	13412c83          	lw	x25,308(x2)
     31c:	13012d03          	lw	x26,304(x2)
     320:	12c12d83          	lw	x27,300(x2)
     324:	00000513          	li	x10,0
     328:	16010113          	addi	x2,x2,352
     32c:	00008067          	ret

00000330 <.L21>:
     330:	08012803          	lw	x16,128(x2)
     334:	09047063          	bgeu	x8,x16,3b4 <.L90>
     338:	08412883          	lw	x17,132(x2)
     33c:	09012b83          	lw	x23,144(x2)
     340:	23988463          	beq	x17,x25,568 <.L33>
     344:	09c12903          	lw	x18,156(x2)
     348:	00241993          	slli	x19,x8,0x2
     34c:	013b8a33          	add	x20,x23,x19
     350:	23247a63          	bgeu	x8,x18,584 <.L91>

00000354 <.L35>:
     354:	0a012483          	lw	x9,160(x2)
     358:	0ac12783          	lw	x15,172(x2)
     35c:	11948463          	beq	x9,x25,464 <.L37>
     360:	00241613          	slli	x12,x8,0x2
     364:	00c785b3          	add	x11,x15,x12

00000368 <.L38>:
     368:	0005a707          	flw	f14,0(x11) # 0 <tensorlib_batch_norm2d_transform_input>
     36c:	01012903          	lw	x18,16(x2)
     370:	000a2687          	flw	f13,0(x20)
     374:	00e070d3          	fadd.s	f1,f0,f14
     378:	20a501d3          	fmv.s	f3,f10
     37c:	5800f153          	fsqrt.s	f2,f1
     380:	1825f7d3          	fdiv.s	f15,f11,f2
     384:	e00900e3          	beqz	x18,184 <.L39>

00000388 <.L86>:
     388:	33247063          	bgeu	x8,x18,6a8 <.L92>
     38c:	01412483          	lw	x9,20(x2)
     390:	02012783          	lw	x15,32(x2)
     394:	43948063          	beq	x9,x25,7b4 <.L42>
     398:	00241613          	slli	x12,x8,0x2
     39c:	00c785b3          	add	x11,x15,x12
     3a0:	0005a187          	flw	f3,0(x11)

000003a4 <.L97>:
     3a4:	02c12683          	lw	x13,44(x2)
     3a8:	de0692e3          	bnez	x13,18c <.L93>

000003ac <.L71>:
     3ac:	f0000653          	fmv.w.x	f12,x0
     3b0:	df9ff06f          	j	1a8 <.L44>

000003b4 <.L90>:
     3b4:	00000837          	lui	x16,0x0
     3b8:	000008b7          	lui	x17,0x0
     3bc:	00080593          	mv	x11,x16
     3c0:	08c00613          	li	x12,140
     3c4:	00088513          	mv	x10,x17
     3c8:	00000097          	auipc	x1,0x0
     3cc:	000080e7          	jalr	x1 # 3c8 <.L90+0x14>
     3d0:	08012583          	lw	x11,128(x2)
     3d4:	00000bb7          	lui	x23,0x0
     3d8:	00040613          	mv	x12,x8
     3dc:	000b8513          	mv	x10,x23
     3e0:	00000097          	auipc	x1,0x0
     3e4:	000080e7          	jalr	x1 # 3e0 <.L90+0x2c>
     3e8:	00000c37          	lui	x24,0x0
     3ec:	000c2f83          	lw	x31,0(x24) # 0 <tensorlib_batch_norm2d_transform_input>
     3f0:	00000b37          	lui	x22,0x0
     3f4:	000b2a83          	lw	x21,0(x22) # 0 <tensorlib_batch_norm2d_transform_input>
     3f8:	010f9a13          	slli	x20,x31,0x10
     3fc:	4100f937          	lui	x18,0x4100f
     400:	015a09b3          	add	x19,x20,x21
     404:	ad392c23          	sw	x19,-1320(x18) # 4100ead8 <.L429+0x4100c150>

00000408 <.L32>:
     408:	0000006f          	j	408 <.L32>

0000040c <.L84>:
     40c:	00000eb7          	lui	x29,0x0
     410:	00000e37          	lui	x28,0x0
     414:	000e8593          	mv	x11,x29
     418:	08c00613          	li	x12,140
     41c:	000e0513          	mv	x10,x28
     420:	00000097          	auipc	x1,0x0
     424:	000080e7          	jalr	x1 # 420 <.L84+0x14>
     428:	04812583          	lw	x11,72(x2)
     42c:	00000537          	lui	x10,0x0
     430:	00040613          	mv	x12,x8
     434:	00050513          	mv	x10,x10
     438:	00000097          	auipc	x1,0x0
     43c:	000080e7          	jalr	x1 # 438 <.L84+0x2c>
     440:	00000cb7          	lui	x25,0x0
     444:	000ca303          	lw	x6,0(x25) # 0 <tensorlib_batch_norm2d_transform_input>
     448:	00000f37          	lui	x30,0x0
     44c:	000f2c03          	lw	x24,0(x30) # 0 <tensorlib_batch_norm2d_transform_input>
     450:	01031f93          	slli	x31,x6,0x10
     454:	4100fb37          	lui	x22,0x4100f
     458:	018f8bb3          	add	x23,x31,x24
     45c:	ad7b2c23          	sw	x23,-1320(x22) # 4100ead8 <.L429+0x4100c150>

00000460 <.L23>:
     460:	0000006f          	j	460 <.L23>

00000464 <.L37>:
     464:	0a412703          	lw	x14,164(x2)
     468:	00072283          	lw	x5,0(x14)
     46c:	025400b3          	mul	x1,x8,x5
     470:	00209393          	slli	x7,x1,0x2
     474:	007785b3          	add	x11,x15,x7
     478:	ef1ff06f          	j	368 <.L38>

0000047c <.L28>:
     47c:	06c12c03          	lw	x24,108(x2)
     480:	000c2f83          	lw	x31,0(x24)
     484:	03f40b33          	mul	x22,x8,x31
     488:	002b1a93          	slli	x21,x22,0x2
     48c:	015b8a33          	add	x20,x23,x21
     490:	ce1ff06f          	j	170 <.L29>

00000494 <.L88>:
     494:	00000437          	lui	x8,0x0
     498:	00000d37          	lui	x26,0x0
     49c:	00440d93          	addi	x27,x8,4 # 4 <tensorlib_batch_norm2d_transform_input+0x4>
     4a0:	014d0c93          	addi	x25,x26,20 # 14 <tensorlib_batch_norm2d_transform_input+0x14>

000004a4 <.L19>:
     4a4:	000d8e13          	mv	x28,x27

000004a8 <.L57>:
     4a8:	000e4e83          	lbu	x29,0(x28) # 0 <tensorlib_batch_norm2d_transform_input>
     4ac:	001e0e13          	addi	x28,x28,1
     4b0:	0ffef513          	andi	x10,x29,255
     4b4:	fe0508e3          	beqz	x10,4a4 <.L19>
     4b8:	ffcc98e3          	bne	x25,x28,4a8 <.L57>
     4bc:	000a2303          	lw	x6,0(x20)
     4c0:	231c0fb7          	lui	x31,0x231c0
     4c4:	00100b13          	li	x22,1
     4c8:	01830f13          	addi	x30,x6,24
     4cc:	01e60c33          	add	x24,x12,x30
     4d0:	01fc6bb3          	or	x23,x24,x31
     4d4:	016b8023          	sb	x22,0(x23) # 0 <tensorlib_batch_norm2d_transform_input>
     4d8:	0000aa83          	lw	x21,0(x1)
     4dc:	00700993          	li	x19,7
     4e0:	df3a96e3          	bne	x21,x19,2cc <.L55>
     4e4:	000a2903          	lw	x18,0(x20)
     4e8:	00300493          	li	x9,3
     4ec:	22990663          	beq	x18,x9,718 <.L94>

000004f0 <.L63>:
     4f0:	00100b13          	li	x22,1
     4f4:	0100006f          	j	504 <.L59>

000004f8 <.L95>:
     4f8:	01460913          	addi	x18,x12,20
     4fc:	140924af          	lr.w.aq	x9,(x18)
     500:	01648863          	beq	x9,x22,510 <.L64>

00000504 <.L59>:
     504:	01460a93          	addi	x21,x12,20
     508:	100aa9af          	lr.w	x19,(x21)
     50c:	ff6996e3          	bne	x19,x22,4f8 <.L95>

00000510 <.L64>:
     510:	00062a23          	sw	x0,20(x12)
     514:	00000693          	li	x13,0
     518:	01000293          	li	x5,16

0000051c <.L65>:
     51c:	00d603b3          	add	x7,x12,x13
     520:	00038223          	sb	x0,4(x7)
     524:	00168693          	addi	x13,x13,1 # 201c0001 <.L429+0x201bd679>
     528:	fe569ae3          	bne	x13,x5,51c <.L65>
     52c:	00062023          	sw	x0,0(x12)
     530:	00000713          	li	x14,0
     534:	20000837          	lui	x16,0x20000
     538:	00100413          	li	x8,1
     53c:	000408b7          	lui	x17,0x40
     540:	00400db7          	lui	x27,0x400

00000544 <.L66>:
     544:	000a2783          	lw	x15,0(x20)
     548:	00e66d33          	or	x26,x12,x14
     54c:	01170733          	add	x14,x14,x17
     550:	01879e93          	slli	x29,x15,0x18
     554:	01aeee33          	or	x28,x29,x26
     558:	010e6333          	or	x6,x28,x16
     55c:	00832023          	sw	x8,0(x6)
     560:	ffb712e3          	bne	x14,x27,544 <.L66>
     564:	d69ff06f          	j	2cc <.L55>

00000568 <.L33>:
     568:	08812c03          	lw	x24,136(x2)
     56c:	09c12903          	lw	x18,156(x2)
     570:	000c2f83          	lw	x31,0(x24)
     574:	03f40b33          	mul	x22,x8,x31
     578:	002b1a93          	slli	x21,x22,0x2
     57c:	015b8a33          	add	x20,x23,x21
     580:	dd246ae3          	bltu	x8,x18,354 <.L35>

00000584 <.L91>:
     584:	00000db7          	lui	x27,0x0
     588:	00000d37          	lui	x26,0x0
     58c:	000d8593          	mv	x11,x27
     590:	08c00613          	li	x12,140
     594:	000d0513          	mv	x10,x26
     598:	00000097          	auipc	x1,0x0
     59c:	000080e7          	jalr	x1 # 598 <.L91+0x14>
     5a0:	09c12583          	lw	x11,156(x2)
     5a4:	00040613          	mv	x12,x8
     5a8:	00000437          	lui	x8,0x0
     5ac:	00040513          	mv	x10,x8
     5b0:	00000097          	auipc	x1,0x0
     5b4:	000080e7          	jalr	x1 # 5b0 <.L91+0x2c>
     5b8:	00000eb7          	lui	x29,0x0
     5bc:	000eae03          	lw	x28,0(x29) # 0 <tensorlib_batch_norm2d_transform_input>
     5c0:	00000537          	lui	x10,0x0
     5c4:	00052c83          	lw	x25,0(x10) # 0 <tensorlib_batch_norm2d_transform_input>
     5c8:	010e1313          	slli	x6,x28,0x10
     5cc:	4100f6b7          	lui	x13,0x4100f
     5d0:	01930f33          	add	x30,x6,x25
     5d4:	ade6ac23          	sw	x30,-1320(x13) # 4100ead8 <.L429+0x4100c150>

000005d8 <.L36>:
     5d8:	0000006f          	j	5d8 <.L36>

000005dc <.L24>:
     5dc:	05012283          	lw	x5,80(x2)
     5e0:	06412803          	lw	x16,100(x2)
     5e4:	0002a083          	lw	x1,0(x5)
     5e8:	021403b3          	mul	x7,x8,x1
     5ec:	00239593          	slli	x11,x7,0x2
     5f0:	00b78633          	add	x12,x15,x11
     5f4:	b70464e3          	bltu	x8,x16,15c <.L26>

000005f8 <.L85>:
     5f8:	000003b7          	lui	x7,0x0
     5fc:	00000637          	lui	x12,0x0
     600:	00060593          	mv	x11,x12
     604:	00038513          	mv	x10,x7
     608:	08c00613          	li	x12,140
     60c:	00000097          	auipc	x1,0x0
     610:	000080e7          	jalr	x1 # 60c <.L85+0x14>
     614:	06412583          	lw	x11,100(x2)
     618:	000006b7          	lui	x13,0x0
     61c:	00040613          	mv	x12,x8
     620:	00068513          	mv	x10,x13
     624:	00000097          	auipc	x1,0x0
     628:	000080e7          	jalr	x1 # 624 <.L85+0x2c>
     62c:	000008b7          	lui	x17,0x0
     630:	0008a783          	lw	x15,0(x17) # 0 <tensorlib_batch_norm2d_transform_input>
     634:	00000737          	lui	x14,0x0
     638:	00072803          	lw	x16,0(x14) # 0 <tensorlib_batch_norm2d_transform_input>
     63c:	01079413          	slli	x8,x15,0x10
     640:	4100fd37          	lui	x26,0x4100f
     644:	01040db3          	add	x27,x8,x16
     648:	adbd2c23          	sw	x27,-1320(x26) # 4100ead8 <.L429+0x4100c150>

0000064c <.L27>:
     64c:	0000006f          	j	64c <.L27>

00000650 <.L87>:
     650:	00000db7          	lui	x27,0x0
     654:	00000d37          	lui	x26,0x0
     658:	000d8593          	mv	x11,x27
     65c:	08c00613          	li	x12,140
     660:	000d0513          	mv	x10,x26
     664:	00000097          	auipc	x1,0x0
     668:	000080e7          	jalr	x1 # 664 <.L87+0x14>
     66c:	02c12583          	lw	x11,44(x2)
     670:	00000eb7          	lui	x29,0x0
     674:	00040613          	mv	x12,x8
     678:	000e8513          	mv	x10,x29
     67c:	00000097          	auipc	x1,0x0
     680:	000080e7          	jalr	x1 # 67c <.L87+0x2c>
     684:	00000e37          	lui	x28,0x0
     688:	000e2503          	lw	x10,0(x28) # 0 <tensorlib_batch_norm2d_transform_input>
     68c:	00000cb7          	lui	x25,0x0
     690:	000ca303          	lw	x6,0(x25) # 0 <tensorlib_batch_norm2d_transform_input>
     694:	01051f13          	slli	x30,x10,0x10
     698:	4100ffb7          	lui	x31,0x4100f
     69c:	006f0c33          	add	x24,x30,x6
     6a0:	ad8fac23          	sw	x24,-1320(x31) # 4100ead8 <.L429+0x4100c150>

000006a4 <.L46>:
     6a4:	0000006f          	j	6a4 <.L46>

000006a8 <.L92>:
     6a8:	000000b7          	lui	x1,0x0
     6ac:	00000bb7          	lui	x23,0x0
     6b0:	00008593          	mv	x11,x1
     6b4:	08c00613          	li	x12,140
     6b8:	000b8513          	mv	x10,x23
     6bc:	00000097          	auipc	x1,0x0
     6c0:	000080e7          	jalr	x1 # 6bc <.L92+0x14>
     6c4:	01012583          	lw	x11,16(x2)
     6c8:	00000b37          	lui	x22,0x0
     6cc:	00040613          	mv	x12,x8
     6d0:	000b0513          	mv	x10,x22
     6d4:	00000ab7          	lui	x21,0x0
     6d8:	00000097          	auipc	x1,0x0
     6dc:	000080e7          	jalr	x1 # 6d8 <.L92+0x30>
     6e0:	000009b7          	lui	x19,0x0
     6e4:	000aaa03          	lw	x20,0(x21) # 0 <tensorlib_batch_norm2d_transform_input>
     6e8:	0009a903          	lw	x18,0(x19) # 0 <tensorlib_batch_norm2d_transform_input>
     6ec:	4100f5b7          	lui	x11,0x4100f
     6f0:	010a1493          	slli	x9,x20,0x10
     6f4:	012482b3          	add	x5,x9,x18
     6f8:	ac55ac23          	sw	x5,-1320(x11) # 4100ead8 <.L429+0x4100c150>

000006fc <.L41>:
     6fc:	0000006f          	j	6fc <.L41>

00000700 <.L47>:
     700:	03412b83          	lw	x23,52(x2)
     704:	000bac03          	lw	x24,0(x23) # 0 <tensorlib_batch_norm2d_transform_input>
     708:	03840fb3          	mul	x31,x8,x24
     70c:	002f9b13          	slli	x22,x31,0x2
     710:	01688ab3          	add	x21,x17,x22
     714:	a91ff06f          	j	1a4 <.L48>

00000718 <.L94>:
     718:	000002b7          	lui	x5,0x0
     71c:	000006b7          	lui	x13,0x0
     720:	01828393          	addi	x7,x5,24 # 18 <tensorlib_batch_norm2d_transform_input+0x18>
     724:	02068893          	addi	x17,x13,32 # 20 <tensorlib_batch_norm2d_transform_input+0x20>

00000728 <.L58>:
     728:	00038793          	mv	x15,x7

0000072c <.L60>:
     72c:	0007c703          	lbu	x14,0(x15)
     730:	00178793          	addi	x15,x15,1
     734:	0ff77813          	andi	x16,x14,255
     738:	fe0808e3          	beqz	x16,728 <.L58>
     73c:	fef898e3          	bne	x17,x15,72c <.L60>
     740:	00060c23          	sb	x0,24(x12) # 18 <tensorlib_batch_norm2d_transform_input+0x18>
     744:	00060ca3          	sb	x0,25(x12)
     748:	00060d23          	sb	x0,26(x12)
     74c:	00060da3          	sb	x0,27(x12)
     750:	00060e23          	sb	x0,28(x12)
     754:	00060ea3          	sb	x0,29(x12)
     758:	00060f23          	sb	x0,30(x12)
     75c:	00060fa3          	sb	x0,31(x12)
     760:	00062a23          	sw	x0,20(x12)
     764:	00000b93          	li	x23,0
     768:	03fc0437          	lui	x8,0x3fc0
     76c:	20000db7          	lui	x27,0x20000
     770:	00100d13          	li	x26,1
     774:	01000eb7          	lui	x29,0x1000
     778:	08000e37          	lui	x28,0x8000
     77c:	0080006f          	j	784 <.L62>

00000780 <.L96>:
     780:	0000aa83          	lw	x21,0(x1)

00000784 <.L62>:
     784:	012a9313          	slli	x6,x21,0x12
     788:	017ce533          	or	x10,x25,x23
     78c:	00837f33          	and	x30,x6,x8
     790:	00af6c33          	or	x24,x30,x10
     794:	01bc6fb3          	or	x31,x24,x27
     798:	01afa023          	sw	x26,0(x31)
     79c:	01db8bb3          	add	x23,x23,x29
     7a0:	ffcb90e3          	bne	x23,x28,780 <.L96>
     7a4:	0000a083          	lw	x1,0(x1)
     7a8:	00700c93          	li	x25,7
     7ac:	d59082e3          	beq	x1,x25,4f0 <.L63>
     7b0:	b1dff06f          	j	2cc <.L55>

000007b4 <.L42>:
     7b4:	01812703          	lw	x14,24(x2)
     7b8:	00072283          	lw	x5,0(x14)
     7bc:	025400b3          	mul	x1,x8,x5
     7c0:	00209393          	slli	x7,x1,0x2
     7c4:	007785b3          	add	x11,x15,x7
     7c8:	0005a187          	flw	f3,0(x11)
     7cc:	bd9ff06f          	j	3a4 <.L97>

000007d0 <tensorlib_batch_norm2d_update_stats>:
     7d0:	ee010113          	addi	x2,x2,-288
     7d4:	00050893          	mv	x17,x10
     7d8:	11512223          	sw	x21,260(x2)
     7dc:	03c10513          	addi	x10,x2,60
     7e0:	00058a93          	mv	x21,x11
     7e4:	00088593          	mv	x11,x17
     7e8:	10112e23          	sw	x1,284(x2)
     7ec:	10812c23          	sw	x8,280(x2)
     7f0:	10912a23          	sw	x9,276(x2)
     7f4:	00080413          	mv	x8,x16
     7f8:	00078493          	mv	x9,x15
     7fc:	11212823          	sw	x18,272(x2)
     800:	11312623          	sw	x19,268(x2)
     804:	00070913          	mv	x18,x14
     808:	00068993          	mv	x19,x13
     80c:	11412423          	sw	x20,264(x2)
     810:	11612023          	sw	x22,256(x2)
     814:	00060a13          	mv	x20,x12
     818:	0f712e23          	sw	x23,252(x2)
     81c:	0f812c23          	sw	x24,248(x2)
     820:	0f912a23          	sw	x25,244(x2)
     824:	0fa12823          	sw	x26,240(x2)
     828:	0fb12623          	sw	x27,236(x2)
     82c:	00000097          	auipc	x1,0x0
     830:	000080e7          	jalr	x1 # 82c <tensorlib_batch_norm2d_update_stats+0x5c>
     834:	000a8593          	mv	x11,x21
     838:	05810513          	addi	x10,x2,88
     83c:	00000097          	auipc	x1,0x0
     840:	000080e7          	jalr	x1 # 83c <tensorlib_batch_norm2d_update_stats+0x6c>
     844:	000a0593          	mv	x11,x20
     848:	0ac10513          	addi	x10,x2,172
     84c:	00000097          	auipc	x1,0x0
     850:	000080e7          	jalr	x1 # 84c <tensorlib_batch_norm2d_update_stats+0x7c>
     854:	00098593          	mv	x11,x19
     858:	07410513          	addi	x10,x2,116
     85c:	00000097          	auipc	x1,0x0
     860:	000080e7          	jalr	x1 # 85c <tensorlib_batch_norm2d_update_stats+0x8c>
     864:	00090593          	mv	x11,x18
     868:	09010513          	addi	x10,x2,144
     86c:	00000097          	auipc	x1,0x0
     870:	000080e7          	jalr	x1 # 86c <tensorlib_batch_norm2d_update_stats+0x9c>
     874:	0b812683          	lw	x13,184(x2)
     878:	0ac12703          	lw	x14,172(x2)
     87c:	0004a587          	flw	f11,0(x9)
     880:	0046a783          	lw	x15,4(x13)
     884:	00042107          	flw	f2,0(x8) # 3fc0000 <.L429+0x3fbd678>
     888:	0006af83          	lw	x31,0(x13)
     88c:	00f12a23          	sw	x15,20(x2)
     890:	02f752b3          	divu	x5,x14,x15
     894:	0086af03          	lw	x30,8(x13)
     898:	00c6ae03          	lw	x28,12(x13)
     89c:	70078863          	beqz	x15,fac <.L221>
     8a0:	fff28093          	addi	x1,x5,-1
     8a4:	00000337          	lui	x6,0x0
     8a8:	00032687          	flw	f13,0(x6) # 0 <tensorlib_batch_norm2d_transform_input>
     8ac:	d010f7d3          	fcvt.s.wu	f15,x1
     8b0:	d012f653          	fcvt.s.wu	f12,x5
     8b4:	08b6f553          	fsub.s	f10,f13,f11
     8b8:	18f6f1d3          	fdiv.s	f3,f13,f15
     8bc:	20d68053          	fmv.s	f0,f13
     8c0:	00000537          	lui	x10,0x0
     8c4:	000008b7          	lui	x17,0x0
     8c8:	20a500d3          	fmv.s	f1,f10
     8cc:	00000c37          	lui	x24,0x0
     8d0:	000003b7          	lui	x7,0x0
     8d4:	01850593          	addi	x11,x10,24 # 18 <tensorlib_batch_norm2d_transform_input+0x18>
     8d8:	00000837          	lui	x16,0x0
     8dc:	00000913          	li	x18,0
     8e0:	00000db7          	lui	x27,0x0
     8e4:	000004b7          	lui	x9,0x0
     8e8:	00088613          	mv	x12,x17
     8ec:	00000437          	lui	x8,0x0
     8f0:	00100713          	li	x14,1
     8f4:	00700d13          	li	x26,7
     8f8:	004c0c13          	addi	x24,x24,4 # 4 <tensorlib_batch_norm2d_transform_input+0x4>
     8fc:	01438693          	addi	x13,x7,20 # 14 <tensorlib_batch_norm2d_transform_input+0x14>
     900:	01000e93          	li	x29,16
     904:	00b12023          	sw	x11,0(x2)
     908:	18c6f653          	fdiv.s	f12,f13,f12
     90c:	1035f6d3          	fmul.s	f13,f11,f3
     910:	02080313          	addi	x6,x16,32 # 20 <tensorlib_batch_norm2d_transform_input+0x20>
     914:	03ef8cb3          	mul	x25,x31,x30
     918:	03cc8cb3          	mul	x25,x25,x28
     91c:	03cf02b3          	mul	x5,x30,x28
     920:	007cdb13          	srli	x22,x25,0x7
     924:	fffc8b93          	addi	x23,x25,-1
     928:	001b0a93          	addi	x21,x22,1 # 1 <tensorlib_batch_norm2d_transform_input+0x1>
     92c:	01712423          	sw	x23,8(x2)
     930:	01512623          	sw	x21,12(x2)

00000934 <.L202>:
     934:	00000a37          	lui	x20,0x0
     938:	000a2983          	lw	x19,0(x20) # 0 <tensorlib_batch_norm2d_transform_input>
     93c:	000da783          	lw	x15,0(x27) # 0 <tensorlib_batch_norm2d_transform_input>
     940:	00812083          	lw	x1,8(x2)
     944:	01312223          	sw	x19,4(x2)
     948:	00f12823          	sw	x15,16(x2)
     94c:	ffd00393          	li	x7,-3
     950:	f0000253          	fmv.w.x	f4,x0
     954:	0813e063          	bltu	x7,x1,9d4 <.L100>
     958:	00c12803          	lw	x16,12(x2)
     95c:	07f7f513          	andi	x10,x15,127
     960:	030505b3          	mul	x11,x10,x16
     964:	00b800b3          	add	x1,x16,x11
     968:	721cea63          	bltu	x25,x1,109c <.L260>

0000096c <.L101>:
     96c:	f0000253          	fmv.w.x	f4,x0
     970:	0615f263          	bgeu	x11,x1,9d4 <.L100>
     974:	0b412a03          	lw	x20,180(x2)
     978:	0bc12b83          	lw	x23,188(x2)
     97c:	004a2983          	lw	x19,4(x20)
     980:	000a2b03          	lw	x22,0(x20)
     984:	00ca2a83          	lw	x21,12(x20)
     988:	033903b3          	mul	x7,x18,x19
     98c:	008a2a03          	lw	x20,8(x20)

00000990 <.L102>:
     990:	0255d833          	divu	x16,x11,x5
     994:	03c5d533          	divu	x10,x11,x28
     998:	03c5f7b3          	remu	x15,x11,x28
     99c:	00158593          	addi	x11,x11,1
     9a0:	03f879b3          	remu	x19,x16,x31
     9a4:	03e57533          	remu	x10,x10,x30
     9a8:	035787b3          	mul	x15,x15,x21
     9ac:	03698833          	mul	x16,x19,x22
     9b0:	00f389b3          	add	x19,x7,x15
     9b4:	03450533          	mul	x10,x10,x20
     9b8:	010987b3          	add	x15,x19,x16
     9bc:	00a78833          	add	x16,x15,x10
     9c0:	00281993          	slli	x19,x16,0x2
     9c4:	013b8533          	add	x10,x23,x19
     9c8:	00052707          	flw	f14,0(x10)
     9cc:	00e27253          	fadd.s	f4,f4,f14
     9d0:	fcb090e3          	bne	x1,x11,990 <.L102>

000009d4 <.L100>:
     9d4:	0004a083          	lw	x1,0(x9) # 0 <tensorlib_batch_norm2d_transform_input>
     9d8:	00042b83          	lw	x23,0(x8) # 0 <tensorlib_batch_norm2d_transform_input>
     9dc:	01012b03          	lw	x22,16(x2)
     9e0:	00412583          	lw	x11,4(x2)
     9e4:	00408393          	addi	x7,x1,4
     9e8:	018b9793          	slli	x15,x23,0x18
     9ec:	002b1a93          	slli	x21,x22,0x2
     9f0:	00760a33          	add	x20,x12,x7
     9f4:	01558833          	add	x16,x11,x21
     9f8:	00fa69b3          	or	x19,x20,x15
     9fc:	201c0537          	lui	x10,0x201c0
     a00:	00482027          	fsw	f4,0(x16)
     a04:	00a9e0b3          	or	x1,x19,x10
     a08:	00e08023          	sb	x14,0(x1)
     a0c:	0004ab83          	lw	x23,0(x9)
     a10:	01ab9a63          	bne	x23,x26,a24 <.L118>
     a14:	1b00006f          	j	bc4 <.L104>

00000a18 <.L261>:
     a18:	00088b93          	mv	x23,x17
     a1c:	140bab2f          	lr.w.aq	x22,(x23)
     a20:	00eb0863          	beq	x22,x14,a30 <.L117>

00000a24 <.L118>:
     a24:	00088593          	mv	x11,x17
     a28:	1005a52f          	lr.w	x10,(x11)
     a2c:	fee516e3          	bne	x10,x14,a18 <.L261>

00000a30 <.L117>:
     a30:	000daa83          	lw	x21,0(x27)
     a34:	00062023          	sw	x0,0(x12)
     a38:	5a0a8a63          	beqz	x21,fec <.L262>

00000a3c <.L119>:
     a3c:	0004a803          	lw	x16,0(x9)
     a40:	00042783          	lw	x15,0(x8)
     a44:	201c05b7          	lui	x11,0x201c0
     a48:	00480093          	addi	x1,x16,4
     a4c:	001609b3          	add	x19,x12,x1
     a50:	01879a13          	slli	x20,x15,0x18
     a54:	0149e533          	or	x10,x19,x20
     a58:	00b56bb3          	or	x23,x10,x11
     a5c:	00eb8023          	sb	x14,0(x23)
     a60:	0004ab03          	lw	x22,0(x9)
     a64:	01ab1a63          	bne	x22,x26,a78 <.L140>
     a68:	20c0006f          	j	c74 <.L126>

00000a6c <.L263>:
     a6c:	00088a93          	mv	x21,x17
     a70:	140aa3af          	lr.w.aq	x7,(x21)
     a74:	00e38863          	beq	x7,x14,a84 <.L139>

00000a78 <.L140>:
     a78:	00088b93          	mv	x23,x17
     a7c:	100ba52f          	lr.w	x10,(x23)
     a80:	fee516e3          	bne	x10,x14,a6c <.L263>

00000a84 <.L139>:
     a84:	00812803          	lw	x16,8(x2)
     a88:	00062023          	sw	x0,0(x12)
     a8c:	ffd00793          	li	x15,-3
     a90:	000da083          	lw	x1,0(x27)
     a94:	3907ea63          	bltu	x15,x16,e28 <.L210>
     a98:	00c12583          	lw	x11,12(x2)
     a9c:	07f0fb13          	andi	x22,x1,127
     aa0:	02bb07b3          	mul	x15,x22,x11
     aa4:	00f58533          	add	x10,x11,x15
     aa8:	5eacee63          	bltu	x25,x10,10a4 <.L264>
     aac:	36a7fe63          	bgeu	x15,x10,e28 <.L210>

00000ab0 <.L276>:
     ab0:	0b412a03          	lw	x20,180(x2)
     ab4:	04c12a83          	lw	x21,76(x2)
     ab8:	0bc12b03          	lw	x22,188(x2)
     abc:	004a2383          	lw	x7,4(x20)
     ac0:	00ca2983          	lw	x19,12(x20)
     ac4:	008a2583          	lw	x11,8(x20)
     ac8:	02790833          	mul	x16,x18,x7
     acc:	01312c23          	sw	x19,24(x2)
     ad0:	04012383          	lw	x7,64(x2)
     ad4:	04412983          	lw	x19,68(x2)
     ad8:	000a2b83          	lw	x23,0(x20)
     adc:	03c12a03          	lw	x20,60(x2)
     ae0:	03512423          	sw	x21,40(x2)
     ae4:	00b12e23          	sw	x11,28(x2)
     ae8:	02712023          	sw	x7,32(x2)
     aec:	03312623          	sw	x19,44(x2)
     af0:	01012823          	sw	x16,16(x2)
     af4:	00291813          	slli	x16,x18,0x2
     af8:	010a8ab3          	add	x21,x21,x16
     afc:	03512223          	sw	x21,36(x2)
     b00:	f0000f53          	fmv.w.x	f30,x0
     b04:	07497863          	bgeu	x18,x20,b74 <.L265>

00000b08 <.L143>:
     b08:	0257d5b3          	divu	x11,x15,x5
     b0c:	03c7d833          	divu	x16,x15,x28
     b10:	03f5f3b3          	remu	x7,x11,x31
     b14:	03c7f9b3          	remu	x19,x15,x28
     b18:	03e87ab3          	remu	x21,x16,x30
     b1c:	00098593          	mv	x11,x19
     b20:	01012803          	lw	x16,16(x2)
     b24:	01812983          	lw	x19,24(x2)
     b28:	037383b3          	mul	x7,x7,x23
     b2c:	033589b3          	mul	x19,x11,x19
     b30:	007805b3          	add	x11,x16,x7
     b34:	01c12383          	lw	x7,28(x2)
     b38:	027a8ab3          	mul	x21,x21,x7
     b3c:	013589b3          	add	x19,x11,x19
     b40:	01598833          	add	x16,x19,x21
     b44:	02012a83          	lw	x21,32(x2)
     b48:	00281593          	slli	x11,x16,0x2
     b4c:	00bb03b3          	add	x7,x22,x11
     b50:	0003a807          	flw	f16,0(x7)
     b54:	62ea8263          	beq	x21,x14,1178 <.L145>
     b58:	02412803          	lw	x16,36(x2)
     b5c:	00082e87          	flw	f29,0(x16)
     b60:	09d87e53          	fsub.s	f28,f16,f29

00000b64 <.L146>:
     b64:	00178793          	addi	x15,x15,1
     b68:	f1ce7f43          	fmadd.s	f30,f28,f28,f30
     b6c:	2cf50063          	beq	x10,x15,e2c <.L141>
     b70:	f9496ce3          	bltu	x18,x20,b08 <.L143>

00000b74 <.L265>:
     b74:	00000637          	lui	x12,0x0
     b78:	00000d37          	lui	x26,0x0
     b7c:	00060593          	mv	x11,x12
     b80:	000d0513          	mv	x10,x26
     b84:	08c00613          	li	x12,140
     b88:	00000097          	auipc	x1,0x0
     b8c:	000080e7          	jalr	x1 # b88 <.L265+0x14>
     b90:	03c12583          	lw	x11,60(x2)
     b94:	00000db7          	lui	x27,0x0
     b98:	00090613          	mv	x12,x18
     b9c:	000d8513          	mv	x10,x27
     ba0:	00000097          	auipc	x1,0x0
     ba4:	000080e7          	jalr	x1 # ba0 <.L265+0x2c>
     ba8:	00042e03          	lw	x28,0(x8)
     bac:	0004ae83          	lw	x29,0(x9)
     bb0:	4100f8b7          	lui	x17,0x4100f
     bb4:	010e1f13          	slli	x30,x28,0x10
     bb8:	01df0fb3          	add	x31,x30,x29
     bbc:	adf8ac23          	sw	x31,-1320(x17) # 4100ead8 <.L429+0x4100c150>

00000bc0 <.L144>:
     bc0:	0000006f          	j	bc0 <.L144>

00000bc4 <.L104>:
     bc4:	000c0a93          	mv	x21,x24

00000bc8 <.L106>:
     bc8:	000acb03          	lbu	x22,0(x21)
     bcc:	001a8a93          	addi	x21,x21,1
     bd0:	0ffb7393          	andi	x7,x22,255
     bd4:	fe0388e3          	beqz	x7,bc4 <.L104>
     bd8:	ff5698e3          	bne	x13,x21,bc8 <.L106>
     bdc:	00042a03          	lw	x20,0(x8)
     be0:	231c05b7          	lui	x11,0x231c0
     be4:	018a0793          	addi	x15,x20,24
     be8:	00f60833          	add	x16,x12,x15
     bec:	00b869b3          	or	x19,x16,x11
     bf0:	00e98023          	sb	x14,0(x19)
     bf4:	0004a503          	lw	x10,0(x9)
     bf8:	e3a516e3          	bne	x10,x26,a24 <.L118>
     bfc:	00042083          	lw	x1,0(x8)
     c00:	00300b93          	li	x23,3
     c04:	01709a63          	bne	x1,x23,c18 <.L108>
     c08:	19c0006f          	j	da4 <.L107>

00000c0c <.L266>:
     c0c:	01460993          	addi	x19,x12,20 # 14 <tensorlib_batch_norm2d_transform_input+0x14>
     c10:	1409aa2f          	lr.w.aq	x20,(x19)
     c14:	00ea0863          	beq	x20,x14,c24 <.L114>

00000c18 <.L108>:
     c18:	01460813          	addi	x16,x12,20
     c1c:	100820af          	lr.w	x1,(x16)
     c20:	fee096e3          	bne	x1,x14,c0c <.L266>

00000c24 <.L114>:
     c24:	00062a23          	sw	x0,20(x12)
     c28:	00000513          	li	x10,0

00000c2c <.L115>:
     c2c:	00a605b3          	add	x11,x12,x10
     c30:	00058223          	sb	x0,4(x11) # 231c0004 <.L429+0x231bd67c>
     c34:	00150513          	addi	x10,x10,1 # 201c0001 <.L429+0x201bd679>
     c38:	ffd51ae3          	bne	x10,x29,c2c <.L115>
     c3c:	00062023          	sw	x0,0(x12)
     c40:	00000813          	li	x16,0
     c44:	20000bb7          	lui	x23,0x20000
     c48:	00040b37          	lui	x22,0x40
     c4c:	00400ab7          	lui	x21,0x400

00000c50 <.L116>:
     c50:	00042783          	lw	x15,0(x8)
     c54:	010663b3          	or	x7,x12,x16
     c58:	01680833          	add	x16,x16,x22
     c5c:	01879093          	slli	x1,x15,0x18
     c60:	0070e9b3          	or	x19,x1,x7
     c64:	0179ea33          	or	x20,x19,x23
     c68:	00ea2023          	sw	x14,0(x20)
     c6c:	ff5812e3          	bne	x16,x21,c50 <.L116>
     c70:	db5ff06f          	j	a24 <.L118>

00000c74 <.L126>:
     c74:	000c0393          	mv	x7,x24

00000c78 <.L128>:
     c78:	0003ca83          	lbu	x21,0(x7)
     c7c:	00138393          	addi	x7,x7,1
     c80:	0ffaf813          	andi	x16,x21,255
     c84:	fe0808e3          	beqz	x16,c74 <.L126>
     c88:	fe7698e3          	bne	x13,x7,c78 <.L128>
     c8c:	00042783          	lw	x15,0(x8)
     c90:	231c0a37          	lui	x20,0x231c0
     c94:	01878093          	addi	x1,x15,24
     c98:	001609b3          	add	x19,x12,x1
     c9c:	0149e533          	or	x10,x19,x20
     ca0:	00e50023          	sb	x14,0(x10)
     ca4:	0004ab83          	lw	x23,0(x9)
     ca8:	ddab98e3          	bne	x23,x26,a78 <.L140>
     cac:	00042b03          	lw	x22,0(x8)
     cb0:	00300593          	li	x11,3
     cb4:	08bb1a63          	bne	x22,x11,d48 <.L130>

00000cb8 <.L129>:
     cb8:	00012383          	lw	x7,0(x2)

00000cbc <.L131>:
     cbc:	0003ca83          	lbu	x21,0(x7)
     cc0:	00138393          	addi	x7,x7,1
     cc4:	0ffaf813          	andi	x16,x21,255
     cc8:	fe0808e3          	beqz	x16,cb8 <.L129>
     ccc:	fe7318e3          	bne	x6,x7,cbc <.L131>
     cd0:	00060c23          	sb	x0,24(x12)
     cd4:	00060ca3          	sb	x0,25(x12)
     cd8:	00060d23          	sb	x0,26(x12)
     cdc:	00060da3          	sb	x0,27(x12)
     ce0:	00060e23          	sb	x0,28(x12)
     ce4:	00060ea3          	sb	x0,29(x12)
     ce8:	00060f23          	sb	x0,30(x12)
     cec:	00060fa3          	sb	x0,31(x12)
     cf0:	00062a23          	sw	x0,20(x12)
     cf4:	00000793          	li	x15,0
     cf8:	03fc00b7          	lui	x1,0x3fc0
     cfc:	20000b37          	lui	x22,0x20000
     d00:	010009b7          	lui	x19,0x1000
     d04:	08000a37          	lui	x20,0x8000
     d08:	0080006f          	j	d10 <.L133>

00000d0c <.L267>:
     d0c:	0004ab83          	lw	x23,0(x9)

00000d10 <.L133>:
     d10:	012b9b93          	slli	x23,x23,0x12
     d14:	00f6e533          	or	x10,x13,x15
     d18:	001bf5b3          	and	x11,x23,x1
     d1c:	00a5eab3          	or	x21,x11,x10
     d20:	016ae3b3          	or	x7,x21,x22
     d24:	00e3a023          	sw	x14,0(x7)
     d28:	013787b3          	add	x15,x15,x19
     d2c:	ff4790e3          	bne	x15,x20,d0c <.L267>
     d30:	0004a803          	lw	x16,0(x9)
     d34:	01a80a63          	beq	x16,x26,d48 <.L130>
     d38:	d41ff06f          	j	a78 <.L140>

00000d3c <.L268>:
     d3c:	01460993          	addi	x19,x12,20
     d40:	1409aa2f          	lr.w.aq	x20,(x19)
     d44:	00ea0863          	beq	x20,x14,d54 <.L136>

00000d48 <.L130>:
     d48:	01460093          	addi	x1,x12,20
     d4c:	1000ab2f          	lr.w	x22,(x1)
     d50:	feeb16e3          	bne	x22,x14,d3c <.L268>

00000d54 <.L136>:
     d54:	00062a23          	sw	x0,20(x12)
     d58:	00000513          	li	x10,0

00000d5c <.L137>:
     d5c:	00a60bb3          	add	x23,x12,x10
     d60:	000b8223          	sb	x0,4(x23) # 20000004 <.L429+0x1fffd67c>
     d64:	00150513          	addi	x10,x10,1
     d68:	ffd51ae3          	bne	x10,x29,d5c <.L137>
     d6c:	00062023          	sw	x0,0(x12)
     d70:	00000593          	li	x11,0
     d74:	20000ab7          	lui	x21,0x20000
     d78:	000403b7          	lui	x7,0x40
     d7c:	00400837          	lui	x16,0x400

00000d80 <.L138>:
     d80:	00042783          	lw	x15,0(x8)
     d84:	00b660b3          	or	x1,x12,x11
     d88:	007585b3          	add	x11,x11,x7
     d8c:	01879b13          	slli	x22,x15,0x18
     d90:	001b69b3          	or	x19,x22,x1
     d94:	0159ea33          	or	x20,x19,x21
     d98:	00ea2023          	sw	x14,0(x20) # 8000000 <.L429+0x7ffd678>
     d9c:	ff0592e3          	bne	x11,x16,d80 <.L138>
     da0:	cd9ff06f          	j	a78 <.L140>

00000da4 <.L107>:
     da4:	00012a83          	lw	x21,0(x2)

00000da8 <.L109>:
     da8:	000acb03          	lbu	x22,0(x21) # 20000000 <.L429+0x1fffd678>
     dac:	001a8a93          	addi	x21,x21,1
     db0:	0ffb7393          	andi	x7,x22,255
     db4:	fe0388e3          	beqz	x7,da4 <.L107>
     db8:	ff5318e3          	bne	x6,x21,da8 <.L109>
     dbc:	00060c23          	sb	x0,24(x12)
     dc0:	00060ca3          	sb	x0,25(x12)
     dc4:	00060d23          	sb	x0,26(x12)
     dc8:	00060da3          	sb	x0,27(x12)
     dcc:	00060e23          	sb	x0,28(x12)
     dd0:	00060ea3          	sb	x0,29(x12)
     dd4:	00060f23          	sb	x0,30(x12)
     dd8:	00060fa3          	sb	x0,31(x12)
     ddc:	00062a23          	sw	x0,20(x12)
     de0:	00000793          	li	x15,0
     de4:	03fc0837          	lui	x16,0x3fc0
     de8:	200000b7          	lui	x1,0x20000
     dec:	010009b7          	lui	x19,0x1000
     df0:	08000a37          	lui	x20,0x8000
     df4:	0080006f          	j	dfc <.L111>

00000df8 <.L269>:
     df8:	0004a503          	lw	x10,0(x9)

00000dfc <.L111>:
     dfc:	01251593          	slli	x11,x10,0x12
     e00:	0105fbb3          	and	x23,x11,x16
     e04:	00f6e533          	or	x10,x13,x15
     e08:	00abeb33          	or	x22,x23,x10
     e0c:	001b6ab3          	or	x21,x22,x1
     e10:	00eaa023          	sw	x14,0(x21)
     e14:	013787b3          	add	x15,x15,x19
     e18:	ff4790e3          	bne	x15,x20,df8 <.L269>
     e1c:	0004a383          	lw	x7,0(x9)
     e20:	dfa38ce3          	beq	x7,x26,c18 <.L108>
     e24:	c01ff06f          	j	a24 <.L118>

00000e28 <.L210>:
     e28:	f0000f53          	fmv.w.x	f30,x0

00000e2c <.L141>:
     e2c:	0004a503          	lw	x10,0(x9)
     e30:	00042b03          	lw	x22,0(x8)
     e34:	00412383          	lw	x7,4(x2)
     e38:	00450b93          	addi	x23,x10,4
     e3c:	00209093          	slli	x1,x1,0x2
     e40:	01760a33          	add	x20,x12,x23
     e44:	018b1593          	slli	x11,x22,0x18
     e48:	00138ab3          	add	x21,x7,x1
     e4c:	00ba69b3          	or	x19,x20,x11
     e50:	201c0837          	lui	x16,0x201c0
     e54:	01eaa027          	fsw	f30,0(x21)
     e58:	0109e7b3          	or	x15,x19,x16
     e5c:	00e78023          	sb	x14,0(x15)
     e60:	0004a503          	lw	x10,0(x9)
     e64:	0da51c63          	bne	x10,x26,f3c <.L163>

00000e68 <.L149>:
     e68:	000c0093          	mv	x1,x24

00000e6c <.L151>:
     e6c:	0000cb03          	lbu	x22,0(x1) # 20000000 <.L429+0x1fffd678>
     e70:	00108093          	addi	x1,x1,1
     e74:	0ffb7b93          	andi	x23,x22,255
     e78:	fe0b88e3          	beqz	x23,e68 <.L149>
     e7c:	fe1698e3          	bne	x13,x1,e6c <.L151>
     e80:	00042a03          	lw	x20,0(x8)
     e84:	231c0ab7          	lui	x21,0x231c0
     e88:	018a0593          	addi	x11,x20,24 # 8000018 <.L429+0x7ffd690>
     e8c:	00b603b3          	add	x7,x12,x11
     e90:	0153e9b3          	or	x19,x7,x21
     e94:	00e98023          	sb	x14,0(x19) # 1000000 <.L429+0xffd678>
     e98:	0004a503          	lw	x10,0(x9)
     e9c:	0ba51063          	bne	x10,x26,f3c <.L163>
     ea0:	00042803          	lw	x16,0(x8)
     ea4:	00300793          	li	x15,3
     ea8:	18f81c63          	bne	x16,x15,1040 <.L153>

00000eac <.L152>:
     eac:	00012083          	lw	x1,0(x2)

00000eb0 <.L154>:
     eb0:	0000cb03          	lbu	x22,0(x1)
     eb4:	00108093          	addi	x1,x1,1
     eb8:	0ffb7b93          	andi	x23,x22,255
     ebc:	fe0b88e3          	beqz	x23,eac <.L152>
     ec0:	fe1318e3          	bne	x6,x1,eb0 <.L154>
     ec4:	00060c23          	sb	x0,24(x12)
     ec8:	00060ca3          	sb	x0,25(x12)
     ecc:	00060d23          	sb	x0,26(x12)
     ed0:	00060da3          	sb	x0,27(x12)
     ed4:	00060e23          	sb	x0,28(x12)
     ed8:	00060ea3          	sb	x0,29(x12)
     edc:	00060f23          	sb	x0,30(x12)
     ee0:	00060fa3          	sb	x0,31(x12)
     ee4:	00062a23          	sw	x0,20(x12)
     ee8:	00000593          	li	x11,0
     eec:	03fc0ab7          	lui	x21,0x3fc0
     ef0:	200003b7          	lui	x7,0x20000
     ef4:	010009b7          	lui	x19,0x1000
     ef8:	08000a37          	lui	x20,0x8000
     efc:	0080006f          	j	f04 <.L156>

00000f00 <.L270>:
     f00:	0004a503          	lw	x10,0(x9)

00000f04 <.L156>:
     f04:	01251813          	slli	x16,x10,0x12
     f08:	015877b3          	and	x15,x16,x21
     f0c:	00b6e533          	or	x10,x13,x11
     f10:	00a7eb33          	or	x22,x15,x10
     f14:	007b60b3          	or	x1,x22,x7
     f18:	00e0a023          	sw	x14,0(x1)
     f1c:	013585b3          	add	x11,x11,x19
     f20:	ff4590e3          	bne	x11,x20,f00 <.L270>
     f24:	0004ab83          	lw	x23,0(x9)
     f28:	11ab8c63          	beq	x23,x26,1040 <.L153>
     f2c:	0100006f          	j	f3c <.L163>

00000f30 <.L271>:
     f30:	00088b13          	mv	x22,x17
     f34:	140b20af          	lr.w.aq	x1,(x22)
     f38:	00e08863          	beq	x1,x14,f48 <.L162>

00000f3c <.L163>:
     f3c:	00088813          	mv	x16,x17
     f40:	1008252f          	lr.w	x10,(x16)
     f44:	fee516e3          	bne	x10,x14,f30 <.L271>

00000f48 <.L162>:
     f48:	000dab83          	lw	x23,0(x27) # 0 <tensorlib_batch_norm2d_transform_input>
     f4c:	00062023          	sw	x0,0(x12)
     f50:	280b8e63          	beqz	x23,11ec <.L272>

00000f54 <.L165>:
     f54:	0004aa03          	lw	x20,0(x9)
     f58:	00042803          	lw	x16,0(x8)
     f5c:	201c0ab7          	lui	x21,0x201c0
     f60:	004a0513          	addi	x10,x20,4 # 8000004 <.L429+0x7ffd67c>
     f64:	00a60b33          	add	x22,x12,x10
     f68:	01881093          	slli	x1,x16,0x18
     f6c:	001b6bb3          	or	x23,x22,x1
     f70:	015be7b3          	or	x15,x23,x21
     f74:	00e78023          	sb	x14,0(x15)
     f78:	0004a383          	lw	x7,0(x9)
     f7c:	01a39a63          	bne	x7,x26,f90 <.L200>
     f80:	1480006f          	j	10c8 <.L186>

00000f84 <.L273>:
     f84:	00088a13          	mv	x20,x17
     f88:	140a23af          	lr.w.aq	x7,(x20)
     f8c:	00e38863          	beq	x7,x14,f9c <.L199>

00000f90 <.L200>:
     f90:	00088a93          	mv	x21,x17
     f94:	100aa52f          	lr.w	x10,(x21)
     f98:	fee516e3          	bne	x10,x14,f84 <.L273>

00000f9c <.L199>:
     f9c:	01412983          	lw	x19,20(x2)
     fa0:	00062023          	sw	x0,0(x12)
     fa4:	00190913          	addi	x18,x18,1
     fa8:	992996e3          	bne	x19,x18,934 <.L202>

00000fac <.L221>:
     fac:	11c12083          	lw	x1,284(x2)
     fb0:	11812403          	lw	x8,280(x2)
     fb4:	11412483          	lw	x9,276(x2)
     fb8:	11012903          	lw	x18,272(x2)
     fbc:	10c12983          	lw	x19,268(x2)
     fc0:	10812a03          	lw	x20,264(x2)
     fc4:	10412a83          	lw	x21,260(x2)
     fc8:	10012b03          	lw	x22,256(x2)
     fcc:	0fc12b83          	lw	x23,252(x2)
     fd0:	0f812c03          	lw	x24,248(x2)
     fd4:	0f412c83          	lw	x25,244(x2)
     fd8:	0f012d03          	lw	x26,240(x2)
     fdc:	0ec12d83          	lw	x27,236(x2)
     fe0:	00000513          	li	x10,0
     fe4:	12010113          	addi	x2,x2,288
     fe8:	00008067          	ret

00000fec <.L262>:
     fec:	00412383          	lw	x7,4(x2)
     ff0:	f0000353          	fmv.w.x	f6,x0
     ff4:	00038793          	mv	x15,x7
     ff8:	20038813          	addi	x16,x7,512 # 20000200 <.L429+0x1fffd878>

00000ffc <.L120>:
     ffc:	0007a287          	flw	f5,0(x15)
    1000:	00478793          	addi	x15,x15,4
    1004:	00537353          	fadd.s	f6,f6,f5
    1008:	ff079ae3          	bne	x15,x16,ffc <.L120>
    100c:	03c12083          	lw	x1,60(x2)
    1010:	18197663          	bgeu	x18,x1,119c <.L274>
    1014:	04012983          	lw	x19,64(x2)
    1018:	04c12a03          	lw	x20,76(x2)
    101c:	08e98a63          	beq	x19,x14,10b0 <.L123>
    1020:	00291393          	slli	x7,x18,0x2
    1024:	007a0ab3          	add	x21,x20,x7

00001028 <.L124>:
    1028:	10c373d3          	fmul.s	f7,f6,f12
    102c:	007aa027          	fsw	f7,0(x21) # 201c0000 <.L429+0x201bd678>
    1030:	a0dff06f          	j	a3c <.L119>

00001034 <.L275>:
    1034:	01460993          	addi	x19,x12,20
    1038:	1409aa2f          	lr.w.aq	x20,(x19)
    103c:	00ea0863          	beq	x20,x14,104c <.L159>

00001040 <.L153>:
    1040:	01460a93          	addi	x21,x12,20
    1044:	100aa3af          	lr.w	x7,(x21)
    1048:	fee396e3          	bne	x7,x14,1034 <.L275>

0000104c <.L159>:
    104c:	00062a23          	sw	x0,20(x12)
    1050:	00000513          	li	x10,0

00001054 <.L160>:
    1054:	00a60833          	add	x16,x12,x10
    1058:	00080223          	sb	x0,4(x16) # 201c0004 <.L429+0x201bd67c>
    105c:	00150513          	addi	x10,x10,1
    1060:	ffd51ae3          	bne	x10,x29,1054 <.L160>
    1064:	00062023          	sw	x0,0(x12)
    1068:	00000593          	li	x11,0
    106c:	20000b37          	lui	x22,0x20000
    1070:	000400b7          	lui	x1,0x40
    1074:	00400bb7          	lui	x23,0x400

00001078 <.L161>:
    1078:	00042783          	lw	x15,0(x8)
    107c:	00b66ab3          	or	x21,x12,x11
    1080:	001585b3          	add	x11,x11,x1
    1084:	01879393          	slli	x7,x15,0x18
    1088:	0153e9b3          	or	x19,x7,x21
    108c:	0169ea33          	or	x20,x19,x22
    1090:	00ea2023          	sw	x14,0(x20)
    1094:	ff7592e3          	bne	x11,x23,1078 <.L161>
    1098:	ea5ff06f          	j	f3c <.L163>

0000109c <.L260>:
    109c:	000c8093          	mv	x1,x25
    10a0:	8cdff06f          	j	96c <.L101>

000010a4 <.L264>:
    10a4:	000c8513          	mv	x10,x25
    10a8:	a0a7e4e3          	bltu	x15,x10,ab0 <.L276>
    10ac:	d7dff06f          	j	e28 <.L210>

000010b0 <.L123>:
    10b0:	04412583          	lw	x11,68(x2)
    10b4:	0005a503          	lw	x10,0(x11)
    10b8:	02a90bb3          	mul	x23,x18,x10
    10bc:	002b9b13          	slli	x22,x23,0x2
    10c0:	016a0ab3          	add	x21,x20,x22
    10c4:	f65ff06f          	j	1028 <.L124>

000010c8 <.L186>:
    10c8:	000c0993          	mv	x19,x24

000010cc <.L188>:
    10cc:	0009c583          	lbu	x11,0(x19) # 1000000 <.L429+0xffd678>
    10d0:	00198993          	addi	x19,x19,1
    10d4:	0ff5fa13          	andi	x20,x11,255
    10d8:	fe0a08e3          	beqz	x20,10c8 <.L186>
    10dc:	ff3698e3          	bne	x13,x19,10cc <.L188>
    10e0:	00042803          	lw	x16,0(x8)
    10e4:	231c00b7          	lui	x1,0x231c0
    10e8:	01880513          	addi	x10,x16,24
    10ec:	00a60b33          	add	x22,x12,x10
    10f0:	001b6bb3          	or	x23,x22,x1
    10f4:	00eb8023          	sb	x14,0(x23) # 400000 <.L429+0x3fd678>
    10f8:	0004aa83          	lw	x21,0(x9)
    10fc:	e9aa9ae3          	bne	x21,x26,f90 <.L200>
    1100:	00042783          	lw	x15,0(x8)
    1104:	00300393          	li	x7,3
    1108:	00779a63          	bne	x15,x7,111c <.L190>
    110c:	1640006f          	j	1270 <.L189>

00001110 <.L277>:
    1110:	01460093          	addi	x1,x12,20
    1114:	1400abaf          	lr.w.aq	x23,(x1)
    1118:	00eb8863          	beq	x23,x14,1128 <.L196>

0000111c <.L190>:
    111c:	01460813          	addi	x16,x12,20
    1120:	10082b2f          	lr.w	x22,(x16)
    1124:	feeb16e3          	bne	x22,x14,1110 <.L277>

00001128 <.L196>:
    1128:	00062a23          	sw	x0,20(x12)
    112c:	00000513          	li	x10,0

00001130 <.L197>:
    1130:	00a60ab3          	add	x21,x12,x10
    1134:	000a8223          	sb	x0,4(x21)
    1138:	00150513          	addi	x10,x10,1
    113c:	ffd51ae3          	bne	x10,x29,1130 <.L197>
    1140:	00062023          	sw	x0,0(x12)
    1144:	00000593          	li	x11,0
    1148:	20000a37          	lui	x20,0x20000
    114c:	000403b7          	lui	x7,0x40
    1150:	004009b7          	lui	x19,0x400

00001154 <.L198>:
    1154:	00042783          	lw	x15,0(x8)
    1158:	00b66833          	or	x16,x12,x11
    115c:	007585b3          	add	x11,x11,x7
    1160:	01879b13          	slli	x22,x15,0x18
    1164:	010b60b3          	or	x1,x22,x16
    1168:	0140ebb3          	or	x23,x1,x20
    116c:	00eba023          	sw	x14,0(x23)
    1170:	ff3592e3          	bne	x11,x19,1154 <.L198>
    1174:	e1dff06f          	j	f90 <.L200>

00001178 <.L145>:
    1178:	02c12983          	lw	x19,44(x2)
    117c:	02812a83          	lw	x21,40(x2)
    1180:	0009a803          	lw	x16,0(x19) # 400000 <.L429+0x3fd678>
    1184:	030905b3          	mul	x11,x18,x16
    1188:	00259393          	slli	x7,x11,0x2
    118c:	007a89b3          	add	x19,x21,x7
    1190:	0009a887          	flw	f17,0(x19)
    1194:	09187e53          	fsub.s	f28,f16,f17
    1198:	9cdff06f          	j	b64 <.L146>

0000119c <.L274>:
    119c:	000008b7          	lui	x17,0x0
    11a0:	00000637          	lui	x12,0x0
    11a4:	00060593          	mv	x11,x12
    11a8:	00088513          	mv	x10,x17
    11ac:	08c00613          	li	x12,140
    11b0:	00000097          	auipc	x1,0x0
    11b4:	000080e7          	jalr	x1 # 11b0 <.L274+0x14>
    11b8:	03c12583          	lw	x11,60(x2)
    11bc:	00000737          	lui	x14,0x0
    11c0:	00090613          	mv	x12,x18
    11c4:	00070513          	mv	x10,x14
    11c8:	00000097          	auipc	x1,0x0
    11cc:	000080e7          	jalr	x1 # 11c8 <.L274+0x2c>
    11d0:	00042c03          	lw	x24,0(x8)
    11d4:	0004a483          	lw	x9,0(x9)
    11d8:	4100fdb7          	lui	x27,0x4100f
    11dc:	010c1c93          	slli	x25,x24,0x10
    11e0:	009c8d33          	add	x26,x25,x9
    11e4:	adadac23          	sw	x26,-1320(x27) # 4100ead8 <.L429+0x4100c150>

000011e8 <.L122>:
    11e8:	0000006f          	j	11e8 <.L122>

000011ec <.L272>:
    11ec:	00412783          	lw	x15,4(x2)
    11f0:	f00007d3          	fmv.w.x	f15,x0
    11f4:	20078a93          	addi	x21,x15,512

000011f8 <.L166>:
    11f8:	0007af87          	flw	f31,0(x15)
    11fc:	00478793          	addi	x15,x15,4
    1200:	01f7f7d3          	fadd.s	f15,f15,f31
    1204:	ff579ae3          	bne	x15,x21,11f8 <.L166>
    1208:	05812583          	lw	x11,88(x2)
    120c:	0eb97463          	bgeu	x18,x11,12f4 <.L278>
    1210:	05c12383          	lw	x7,92(x2)
    1214:	06812983          	lw	x19,104(x2)
    1218:	1ee38463          	beq	x7,x14,1400 <.L169>
    121c:	00291b93          	slli	x23,x18,0x2
    1220:	017980b3          	add	x1,x19,x23

00001224 <.L170>:
    1224:	10c7f1c3          	fmadd.s	f3,f15,f12,f2
    1228:	07412a83          	lw	x21,116(x2)
    122c:	5801f753          	fsqrt.s	f14,f3
    1230:	18e07253          	fdiv.s	f4,f0,f14
    1234:	0040a027          	fsw	f4,0(x1)
    1238:	160a9e63          	bnez	x21,13b4 <.L279>

0000123c <.L171>:
    123c:	09012503          	lw	x10,144(x2)
    1240:	d0050ae3          	beqz	x10,f54 <.L165>
    1244:	12a97063          	bgeu	x18,x10,1364 <.L280>
    1248:	09412b03          	lw	x22,148(x2)
    124c:	0a012083          	lw	x1,160(x2)
    1250:	0eeb0a63          	beq	x22,x14,1344 <.L183>
    1254:	00291993          	slli	x19,x18,0x2
    1258:	013085b3          	add	x11,x1,x19
    125c:	0005af07          	flw	f30,0(x11)
    1260:	11e57ed3          	fmul.s	f29,f10,f30

00001264 <.L184>:
    1264:	e8d7ffc3          	fmadd.s	f31,f15,f13,f29
    1268:	01f5a027          	fsw	f31,0(x11)
    126c:	ce9ff06f          	j	f54 <.L165>

00001270 <.L189>:
    1270:	00012983          	lw	x19,0(x2)

00001274 <.L191>:
    1274:	0009c583          	lbu	x11,0(x19)
    1278:	00198993          	addi	x19,x19,1
    127c:	0ff5fa13          	andi	x20,x11,255
    1280:	fe0a08e3          	beqz	x20,1270 <.L189>
    1284:	ff3318e3          	bne	x6,x19,1274 <.L191>
    1288:	00060c23          	sb	x0,24(x12) # 18 <tensorlib_batch_norm2d_transform_input+0x18>
    128c:	00060ca3          	sb	x0,25(x12)
    1290:	00060d23          	sb	x0,26(x12)
    1294:	00060da3          	sb	x0,27(x12)
    1298:	00060e23          	sb	x0,28(x12)
    129c:	00060ea3          	sb	x0,29(x12)
    12a0:	00060f23          	sb	x0,30(x12)
    12a4:	00060fa3          	sb	x0,31(x12)
    12a8:	00062a23          	sw	x0,20(x12)
    12ac:	00000793          	li	x15,0
    12b0:	03fc0837          	lui	x16,0x3fc0
    12b4:	20000b37          	lui	x22,0x20000
    12b8:	010000b7          	lui	x1,0x1000
    12bc:	08000bb7          	lui	x23,0x8000
    12c0:	0080006f          	j	12c8 <.L193>

000012c4 <.L281>:
    12c4:	0004aa83          	lw	x21,0(x9)

000012c8 <.L193>:
    12c8:	012a9a93          	slli	x21,x21,0x12
    12cc:	00f6e533          	or	x10,x13,x15
    12d0:	010af3b3          	and	x7,x21,x16
    12d4:	00a3e5b3          	or	x11,x7,x10
    12d8:	0165e9b3          	or	x19,x11,x22
    12dc:	00e9a023          	sw	x14,0(x19)
    12e0:	001787b3          	add	x15,x15,x1
    12e4:	ff7790e3          	bne	x15,x23,12c4 <.L281>
    12e8:	0004aa03          	lw	x20,0(x9)
    12ec:	e3aa08e3          	beq	x20,x26,111c <.L190>
    12f0:	ca1ff06f          	j	f90 <.L200>

000012f4 <.L278>:
    12f4:	000000b7          	lui	x1,0x0
    12f8:	000003b7          	lui	x7,0x0
    12fc:	00008593          	mv	x11,x1
    1300:	08c00613          	li	x12,140
    1304:	00038513          	mv	x10,x7
    1308:	00000097          	auipc	x1,0x0
    130c:	000080e7          	jalr	x1 # 1308 <.L278+0x14>
    1310:	05812583          	lw	x11,88(x2)
    1314:	00090613          	mv	x12,x18
    1318:	00000937          	lui	x18,0x0
    131c:	00090513          	mv	x10,x18
    1320:	00000097          	auipc	x1,0x0
    1324:	000080e7          	jalr	x1 # 1320 <.L278+0x2c>
    1328:	00042983          	lw	x19,0(x8)
    132c:	0004a283          	lw	x5,0(x9)
    1330:	4100f437          	lui	x8,0x4100f
    1334:	01099313          	slli	x6,x19,0x10
    1338:	005306b3          	add	x13,x6,x5
    133c:	acd42c23          	sw	x13,-1320(x8) # 4100ead8 <.L429+0x4100c150>

00001340 <.L168>:
    1340:	0000006f          	j	1340 <.L168>

00001344 <.L183>:
    1344:	09812b83          	lw	x23,152(x2)
    1348:	000baa83          	lw	x21,0(x23) # 8000000 <.L429+0x7ffd678>
    134c:	035907b3          	mul	x15,x18,x21
    1350:	00279393          	slli	x7,x15,0x2
    1354:	007085b3          	add	x11,x1,x7
    1358:	0005ae07          	flw	f28,0(x11)
    135c:	11c57ed3          	fmul.s	f29,f10,f28
    1360:	f05ff06f          	j	1264 <.L184>

00001364 <.L280>:
    1364:	000002b7          	lui	x5,0x0
    1368:	00000337          	lui	x6,0x0
    136c:	00028593          	mv	x11,x5
    1370:	08c00613          	li	x12,140
    1374:	00030513          	mv	x10,x6
    1378:	00000097          	auipc	x1,0x0
    137c:	000080e7          	jalr	x1 # 1378 <.L280+0x14>
    1380:	09012583          	lw	x11,144(x2)
    1384:	000006b7          	lui	x13,0x0
    1388:	00090613          	mv	x12,x18
    138c:	00068513          	mv	x10,x13
    1390:	00000097          	auipc	x1,0x0
    1394:	000080e7          	jalr	x1 # 1390 <.L280+0x2c>
    1398:	00042403          	lw	x8,0(x8)
    139c:	0004a483          	lw	x9,0(x9)
    13a0:	4100f737          	lui	x14,0x4100f
    13a4:	01041613          	slli	x12,x8,0x10
    13a8:	009608b3          	add	x17,x12,x9
    13ac:	ad172c23          	sw	x17,-1320(x14) # 4100ead8 <.L429+0x4100c150>

000013b0 <.L182>:
    13b0:	0000006f          	j	13b0 <.L182>

000013b4 <.L279>:
    13b4:	03c12783          	lw	x15,60(x2)
    13b8:	06f97c63          	bgeu	x18,x15,1430 <.L282>
    13bc:	04012383          	lw	x7,64(x2)
    13c0:	04c12583          	lw	x11,76(x2)
    13c4:	04e38a63          	beq	x7,x14,1418 <.L174>
    13c8:	00291093          	slli	x1,x18,0x2
    13cc:	00158b33          	add	x22,x11,x1

000013d0 <.L175>:
    13d0:	0d597863          	bgeu	x18,x21,14a0 <.L283>
    13d4:	07812b83          	lw	x23,120(x2)
    13d8:	08412a83          	lw	x21,132(x2)
    13dc:	0aeb8263          	beq	x23,x14,1480 <.L178>
    13e0:	00291813          	slli	x16,x18,0x2
    13e4:	010a8a33          	add	x20,x21,x16
    13e8:	000a2387          	flw	f7,0(x20) # 20000000 <.L429+0x1fffd678>
    13ec:	1070f353          	fmul.s	f6,f1,f7

000013f0 <.L179>:
    13f0:	000b2807          	flw	f16,0(x22) # 20000000 <.L429+0x1fffd678>
    13f4:	30b878c3          	fmadd.s	f17,f16,f11,f6
    13f8:	011a2027          	fsw	f17,0(x20)
    13fc:	e41ff06f          	j	123c <.L171>

00001400 <.L169>:
    1400:	06012a03          	lw	x20,96(x2)
    1404:	000a2803          	lw	x16,0(x20)
    1408:	03090533          	mul	x10,x18,x16
    140c:	00251b13          	slli	x22,x10,0x2
    1410:	016980b3          	add	x1,x19,x22
    1414:	e11ff06f          	j	1224 <.L170>

00001418 <.L174>:
    1418:	04412983          	lw	x19,68(x2)
    141c:	0009aa03          	lw	x20,0(x19)
    1420:	03490833          	mul	x16,x18,x20
    1424:	00281513          	slli	x10,x16,0x2
    1428:	00a58b33          	add	x22,x11,x10
    142c:	fa5ff06f          	j	13d0 <.L175>

00001430 <.L282>:
    1430:	000007b7          	lui	x15,0x0
    1434:	00000837          	lui	x16,0x0
    1438:	00078593          	mv	x11,x15
    143c:	08c00613          	li	x12,140
    1440:	00080513          	mv	x10,x16
    1444:	00000097          	auipc	x1,0x0
    1448:	000080e7          	jalr	x1 # 1444 <.L282+0x14>
    144c:	03c12583          	lw	x11,60(x2)
    1450:	00000b37          	lui	x22,0x0
    1454:	00090613          	mv	x12,x18
    1458:	000b0513          	mv	x10,x22
    145c:	00000097          	auipc	x1,0x0
    1460:	000080e7          	jalr	x1 # 145c <.L282+0x2c>
    1464:	00042583          	lw	x11,0(x8)
    1468:	0004ab83          	lw	x23,0(x9)
    146c:	4100fa37          	lui	x20,0x4100f
    1470:	01059a93          	slli	x21,x11,0x10
    1474:	017a8533          	add	x10,x21,x23
    1478:	acaa2c23          	sw	x10,-1320(x20) # 4100ead8 <.L429+0x4100c150>

0000147c <.L173>:
    147c:	0000006f          	j	147c <.L173>

00001480 <.L178>:
    1480:	07c12783          	lw	x15,124(x2)
    1484:	0007a383          	lw	x7,0(x15) # 0 <tensorlib_batch_norm2d_transform_input>
    1488:	027905b3          	mul	x11,x18,x7
    148c:	00259993          	slli	x19,x11,0x2
    1490:	013a8a33          	add	x20,x21,x19
    1494:	000a2287          	flw	f5,0(x20)
    1498:	1050f353          	fmul.s	f6,f1,f5
    149c:	f55ff06f          	j	13f0 <.L179>

000014a0 <.L283>:
    14a0:	00000c37          	lui	x24,0x0
    14a4:	00000cb7          	lui	x25,0x0
    14a8:	000c0593          	mv	x11,x24
    14ac:	08c00613          	li	x12,140
    14b0:	000c8513          	mv	x10,x25
    14b4:	00000097          	auipc	x1,0x0
    14b8:	000080e7          	jalr	x1 # 14b4 <.L283+0x14>
    14bc:	07412583          	lw	x11,116(x2)
    14c0:	00000d37          	lui	x26,0x0
    14c4:	00090613          	mv	x12,x18
    14c8:	000d0513          	mv	x10,x26
    14cc:	00000097          	auipc	x1,0x0
    14d0:	000080e7          	jalr	x1 # 14cc <.L283+0x2c>
    14d4:	00042d83          	lw	x27,0(x8)
    14d8:	0004ae03          	lw	x28,0(x9)
    14dc:	4100ffb7          	lui	x31,0x4100f
    14e0:	010d9e93          	slli	x29,x27,0x10
    14e4:	01ce8f33          	add	x30,x29,x28
    14e8:	adefac23          	sw	x30,-1320(x31) # 4100ead8 <.L429+0x4100c150>

000014ec <.L177>:
    14ec:	0000006f          	j	14ec <.L177>

000014f0 <tensorlib_batch_norm2d_backward>:
    14f0:	e0010113          	addi	x2,x2,-512
    14f4:	00050313          	mv	x6,x10
    14f8:	1f612023          	sw	x22,480(x2)
    14fc:	12410513          	addi	x10,x2,292
    1500:	00058b13          	mv	x22,x11
    1504:	00030593          	mv	x11,x6
    1508:	1e112e23          	sw	x1,508(x2)
    150c:	1e812c23          	sw	x8,504(x2)
    1510:	1e912a23          	sw	x9,500(x2)
    1514:	00088413          	mv	x8,x17
    1518:	00080493          	mv	x9,x16
    151c:	1f212823          	sw	x18,496(x2)
    1520:	1f312623          	sw	x19,492(x2)
    1524:	00078913          	mv	x18,x15
    1528:	00070993          	mv	x19,x14
    152c:	1f412423          	sw	x20,488(x2)
    1530:	1f512223          	sw	x21,484(x2)
    1534:	00068a13          	mv	x20,x13
    1538:	00060a93          	mv	x21,x12
    153c:	1db12623          	sw	x27,460(x2)
    1540:	1d712e23          	sw	x23,476(x2)
    1544:	1d812c23          	sw	x24,472(x2)
    1548:	1d912a23          	sw	x25,468(x2)
    154c:	1da12823          	sw	x26,464(x2)
    1550:	00000097          	auipc	x1,0x0
    1554:	000080e7          	jalr	x1 # 1550 <tensorlib_batch_norm2d_backward+0x60>
    1558:	000b0593          	mv	x11,x22
    155c:	06010513          	addi	x10,x2,96
    1560:	00000097          	auipc	x1,0x0
    1564:	000080e7          	jalr	x1 # 1560 <tensorlib_batch_norm2d_backward+0x70>
    1568:	000a8593          	mv	x11,x21
    156c:	07c10513          	addi	x10,x2,124
    1570:	00000097          	auipc	x1,0x0
    1574:	000080e7          	jalr	x1 # 1570 <tensorlib_batch_norm2d_backward+0x80>
    1578:	000a0593          	mv	x11,x20
    157c:	15810513          	addi	x10,x2,344
    1580:	00000097          	auipc	x1,0x0
    1584:	000080e7          	jalr	x1 # 1580 <tensorlib_batch_norm2d_backward+0x90>
    1588:	00098593          	mv	x11,x19
    158c:	18c10513          	addi	x10,x2,396
    1590:	00000097          	auipc	x1,0x0
    1594:	000080e7          	jalr	x1 # 1590 <tensorlib_batch_norm2d_backward+0xa0>
    1598:	00090593          	mv	x11,x18
    159c:	09810513          	addi	x10,x2,152
    15a0:	00000097          	auipc	x1,0x0
    15a4:	000080e7          	jalr	x1 # 15a0 <tensorlib_batch_norm2d_backward+0xb0>
    15a8:	00048593          	mv	x11,x9
    15ac:	0b410513          	addi	x10,x2,180
    15b0:	00000097          	auipc	x1,0x0
    15b4:	000080e7          	jalr	x1 # 15b0 <tensorlib_batch_norm2d_backward+0xc0>
    15b8:	00040593          	mv	x11,x8
    15bc:	0d010513          	addi	x10,x2,208
    15c0:	00000097          	auipc	x1,0x0
    15c4:	000080e7          	jalr	x1 # 15c0 <tensorlib_batch_norm2d_backward+0xd0>
    15c8:	20012583          	lw	x11,512(x2)
    15cc:	0ec10513          	addi	x10,x2,236
    15d0:	00000097          	auipc	x1,0x0
    15d4:	000080e7          	jalr	x1 # 15d0 <tensorlib_batch_norm2d_backward+0xe0>
    15d8:	20412583          	lw	x11,516(x2)
    15dc:	10810513          	addi	x10,x2,264
    15e0:	00000097          	auipc	x1,0x0
    15e4:	000080e7          	jalr	x1 # 15e0 <tensorlib_batch_norm2d_backward+0xf0>
    15e8:	19812703          	lw	x14,408(x2)
    15ec:	20812783          	lw	x15,520(x2)
    15f0:	20c12383          	lw	x7,524(x2)
    15f4:	00472683          	lw	x13,4(x14)
    15f8:	0007a283          	lw	x5,0(x15)
    15fc:	18c12583          	lw	x11,396(x2)
    1600:	04d12223          	sw	x13,68(x2)
    1604:	02512823          	sw	x5,48(x2)
    1608:	02d5d633          	divu	x12,x11,x13
    160c:	0003a107          	flw	f2,0(x7) # 0 <tensorlib_batch_norm2d_transform_input>
    1610:	00072503          	lw	x10,0(x14)
    1614:	00872803          	lw	x16,8(x14)
    1618:	00c72d83          	lw	x27,12(x14)
    161c:	66068263          	beqz	x13,1c80 <.L465>
    1620:	000000b7          	lui	x1,0x0
    1624:	0000a787          	flw	f15,0(x1) # 0 <tensorlib_batch_norm2d_transform_input>
    1628:	d0167053          	fcvt.s.wu	f0,x12
    162c:	00000d13          	li	x26,0
    1630:	00000e37          	lui	x28,0x0
    1634:	1807f053          	fdiv.s	f0,f15,f0
    1638:	20f780d3          	fmv.s	f1,f15
    163c:	20f78253          	fmv.s	f4,f15
    1640:	00000bb7          	lui	x23,0x0
    1644:	000d0093          	mv	x1,x26
    1648:	00000fb7          	lui	x31,0x0
    164c:	000008b7          	lui	x17,0x0
    1650:	018e0e93          	addi	x29,x28,24 # 18 <tensorlib_batch_norm2d_transform_input+0x18>
    1654:	00000337          	lui	x6,0x0
    1658:	014b8713          	addi	x14,x23,20 # 14 <tensorlib_batch_norm2d_transform_input+0x14>
    165c:	000d8d13          	mv	x26,x27
    1660:	00000cb7          	lui	x25,0x0
    1664:	00000c37          	lui	x24,0x0
    1668:	000f8a93          	mv	x21,x31
    166c:	00100793          	li	x15,1
    1670:	00488a13          	addi	x20,x17,4 # 4 <tensorlib_batch_norm2d_transform_input+0x4>
    1674:	01000993          	li	x19,16
    1678:	20000937          	lui	x18,0x20000
    167c:	000404b7          	lui	x9,0x40
    1680:	00400437          	lui	x8,0x400
    1684:	03d12423          	sw	x29,40(x2)
    1688:	02030293          	addi	x5,x6,32 # 20 <tensorlib_batch_norm2d_transform_input+0x20>
    168c:	00080b93          	mv	x23,x16
    1690:	03050f33          	mul	x30,x10,x16
    1694:	03bf0b33          	mul	x22,x30,x27
    1698:	03b803b3          	mul	x7,x16,x27
    169c:	007b5693          	srli	x13,x22,0x7
    16a0:	fffb0593          	addi	x11,x22,-1
    16a4:	00168613          	addi	x12,x13,1 # 1 <tensorlib_batch_norm2d_transform_input+0x1>
    16a8:	03612c23          	sw	x22,56(x2)
    16ac:	02b12a23          	sw	x11,52(x2)
    16b0:	02c12e23          	sw	x12,60(x2)
    16b4:	00050b13          	mv	x22,x10
    16b8:	00038d93          	mv	x27,x7
    16bc:	00008393          	mv	x7,x1

000016c0 <.L438>:
    16c0:	03012503          	lw	x10,48(x2)
    16c4:	5e050e63          	beqz	x10,1cc0 <.L286>
    16c8:	0b412083          	lw	x1,180(x2)
    16cc:	6a13f263          	bgeu	x7,x1,1d70 <.L542>
    16d0:	0b812503          	lw	x10,184(x2)
    16d4:	0c412603          	lw	x12,196(x2)
    16d8:	64f506e3          	beq	x10,x15,2524 <.L289>
    16dc:	0d012683          	lw	x13,208(x2)
    16e0:	00239313          	slli	x6,x7,0x2
    16e4:	00660f33          	add	x30,x12,x6
    16e8:	64d3fce3          	bgeu	x7,x13,2540 <.L543>

000016ec <.L291>:
    16ec:	0d412583          	lw	x11,212(x2)
    16f0:	0e012083          	lw	x1,224(x2)
    16f4:	60f58ce3          	beq	x11,x15,250c <.L293>
    16f8:	00239e93          	slli	x29,x7,0x2
    16fc:	01d08e33          	add	x28,x1,x29

00001700 <.L294>:
    1700:	000f2607          	flw	f12,0(x30)
    1704:	09812f03          	lw	x30,152(x2)
    1708:	000e2507          	flw	f10,0(x28)
    170c:	600f0463          	beqz	x30,1d14 <.L445>

00001710 <.L558>:
    1710:	01e3e463          	bltu	x7,x30,1718 <.L558+0x8>
    1714:	0e40106f          	j	27f8 <.L544>
    1718:	09c12303          	lw	x6,156(x2)
    171c:	0a812683          	lw	x13,168(x2)
    1720:	00f31463          	bne	x6,x15,1728 <.L558+0x18>
    1724:	14c0106f          	j	2870 <.L307>
    1728:	00239893          	slli	x17,x7,0x2
    172c:	01168833          	add	x16,x13,x17

00001730 <.L308>:
    1730:	00082587          	flw	f11,0(x16) # 0 <tensorlib_batch_norm2d_transform_input>

00001734 <.L304>:
    1734:	00000e37          	lui	x28,0x0
    1738:	00000f37          	lui	x30,0x0
    173c:	000e2e83          	lw	x29,0(x28) # 0 <tensorlib_batch_norm2d_transform_input>
    1740:	000f2303          	lw	x6,0(x30) # 0 <tensorlib_batch_norm2d_transform_input>
    1744:	03412683          	lw	x13,52(x2)
    1748:	03d12623          	sw	x29,44(x2)
    174c:	00612623          	sw	x6,12(x2)
    1750:	ffd00593          	li	x11,-3
    1754:	f0000353          	fmv.w.x	f6,x0
    1758:	08d5e463          	bltu	x11,x13,17e0 <.L309>
    175c:	03c12503          	lw	x10,60(x2)
    1760:	07f37093          	andi	x1,x6,127
    1764:	03812883          	lw	x17,56(x2)
    1768:	02a08633          	mul	x12,x1,x10
    176c:	00c50833          	add	x16,x10,x12
    1770:	0108f463          	bgeu	x17,x16,1778 <.L310>
    1774:	00088813          	mv	x16,x17

00001778 <.L310>:
    1778:	f0000353          	fmv.w.x	f6,x0
    177c:	07067263          	bgeu	x12,x16,17e0 <.L309>
    1780:	16012303          	lw	x6,352(x2)
    1784:	16812f03          	lw	x30,360(x2)
    1788:	00432683          	lw	x13,4(x6)
    178c:	00032e83          	lw	x29,0(x6)
    1790:	00c32e03          	lw	x28,12(x6)
    1794:	02d380b3          	mul	x1,x7,x13
    1798:	00832883          	lw	x17,8(x6)

0000179c <.L311>:
    179c:	03b65533          	divu	x10,x12,x27
    17a0:	03a655b3          	divu	x11,x12,x26
    17a4:	03a67333          	remu	x6,x12,x26
    17a8:	00160613          	addi	x12,x12,1
    17ac:	03657533          	remu	x10,x10,x22
    17b0:	0375f5b3          	remu	x11,x11,x23
    17b4:	03c306b3          	mul	x13,x6,x28
    17b8:	03d50333          	mul	x6,x10,x29
    17bc:	00d08533          	add	x10,x1,x13
    17c0:	031585b3          	mul	x11,x11,x17
    17c4:	006506b3          	add	x13,x10,x6
    17c8:	00b68333          	add	x6,x13,x11
    17cc:	00231513          	slli	x10,x6,0x2
    17d0:	00af05b3          	add	x11,x30,x10
    17d4:	0005a707          	flw	f14,0(x11)
    17d8:	00e37353          	fadd.s	f6,f6,f14
    17dc:	fcc810e3          	bne	x16,x12,179c <.L311>

000017e0 <.L309>:
    17e0:	000c2803          	lw	x16,0(x24) # 0 <tensorlib_batch_norm2d_transform_input>
    17e4:	000caf03          	lw	x30,0(x25) # 0 <tensorlib_batch_norm2d_transform_input>
    17e8:	00c12e83          	lw	x29,12(x2)
    17ec:	02c12683          	lw	x13,44(x2)
    17f0:	00480093          	addi	x1,x16,4
    17f4:	018f1613          	slli	x12,x30,0x18
    17f8:	002e9e13          	slli	x28,x29,0x2
    17fc:	001a88b3          	add	x17,x21,x1
    1800:	201c05b7          	lui	x11,0x201c0
    1804:	01c68333          	add	x6,x13,x28
    1808:	00c8e533          	or	x10,x17,x12
    180c:	00b56833          	or	x16,x10,x11
    1810:	00632027          	fsw	f6,0(x6)
    1814:	00f80023          	sb	x15,0(x16)
    1818:	000c2583          	lw	x11,0(x24)
    181c:	00700f13          	li	x30,7
    1820:	01e59a63          	bne	x11,x30,1834 <.L327>
    1824:	5a00006f          	j	1dc4 <.L313>

00001828 <.L545>:
    1828:	000f8813          	mv	x16,x31
    182c:	14082f2f          	lr.w.aq	x30,(x16)
    1830:	00ff0863          	beq	x30,x15,1840 <.L326>

00001834 <.L327>:
    1834:	000f8693          	mv	x13,x31
    1838:	1006a52f          	lr.w	x10,(x13)
    183c:	fef516e3          	bne	x10,x15,1828 <.L545>

00001840 <.L326>:
    1840:	00000eb7          	lui	x29,0x0
    1844:	000eae03          	lw	x28,0(x29) # 0 <tensorlib_batch_norm2d_transform_input>
    1848:	000aa023          	sw	x0,0(x21)
    184c:	5a0e0ce3          	beqz	x28,2604 <.L546>

00001850 <.L328>:
    1850:	000ca683          	lw	x13,0(x25)
    1854:	00458593          	addi	x11,x11,4 # 201c0004 <.L429+0x201bd67c>
    1858:	00ba8533          	add	x10,x21,x11
    185c:	01869813          	slli	x16,x13,0x18
    1860:	201c0eb7          	lui	x29,0x201c0
    1864:	00a86f33          	or	x30,x16,x10
    1868:	01df6e33          	or	x28,x30,x29
    186c:	00fe0023          	sb	x15,0(x28)
    1870:	000c2e83          	lw	x29,0(x24)
    1874:	00700093          	li	x1,7
    1878:	001e9a63          	bne	x29,x1,188c <.L345>
    187c:	67c0006f          	j	1ef8 <.L331>

00001880 <.L547>:
    1880:	000f8e13          	mv	x28,x31
    1884:	140e20af          	lr.w.aq	x1,(x28)
    1888:	00f08863          	beq	x1,x15,1898 <.L344>

0000188c <.L345>:
    188c:	000f8f13          	mv	x30,x31
    1890:	100f282f          	lr.w	x16,(x30)
    1894:	fef816e3          	bne	x16,x15,1880 <.L547>

00001898 <.L344>:
    1898:	000ca883          	lw	x17,0(x25)
    189c:	004e8e93          	addi	x29,x29,4 # 201c0004 <.L429+0x201bd67c>
    18a0:	02c12f03          	lw	x30,44(x2)
    18a4:	01da85b3          	add	x11,x21,x29
    18a8:	01889613          	slli	x12,x17,0x18
    18ac:	00b66333          	or	x6,x12,x11
    18b0:	201c06b7          	lui	x13,0x201c0
    18b4:	000aa023          	sw	x0,0(x21)
    18b8:	00d36533          	or	x10,x6,x13
    18bc:	000f2307          	flw	f6,0(x30)
    18c0:	00f50023          	sb	x15,0(x10)
    18c4:	000c2803          	lw	x16,0(x24)
    18c8:	00700e13          	li	x28,7
    18cc:	05012023          	sw	x16,64(x2)
    18d0:	01c81a63          	bne	x16,x28,18e4 <.L361>
    18d4:	7580006f          	j	202c <.L347>

000018d8 <.L548>:
    18d8:	000f8813          	mv	x16,x31
    18dc:	14082e2f          	lr.w.aq	x28,(x16)
    18e0:	00fe0863          	beq	x28,x15,18f0 <.L360>

000018e4 <.L361>:
    18e4:	000f8513          	mv	x10,x31
    18e8:	10052f2f          	lr.w	x30,(x10)
    18ec:	feff16e3          	bne	x30,x15,18d8 <.L548>

000018f0 <.L360>:
    18f0:	000000b7          	lui	x1,0x0
    18f4:	0000a883          	lw	x17,0(x1) # 0 <tensorlib_batch_norm2d_transform_input>
    18f8:	03412603          	lw	x12,52(x2)
    18fc:	000aa023          	sw	x0,0(x21)
    1900:	05112423          	sw	x17,72(x2)
    1904:	ffd00e93          	li	x29,-3
    1908:	f0000ed3          	fmv.w.x	f29,x0
    190c:	10cee863          	bltu	x29,x12,1a1c <.L362>
    1910:	03c12303          	lw	x6,60(x2)
    1914:	07f8f593          	andi	x11,x17,127
    1918:	03812683          	lw	x13,56(x2)
    191c:	02658833          	mul	x16,x11,x6
    1920:	01030e33          	add	x28,x6,x16
    1924:	01c6f463          	bgeu	x13,x28,192c <.L363>
    1928:	00068e13          	mv	x28,x13

0000192c <.L363>:
    192c:	f0000ed3          	fmv.w.x	f29,x0
    1930:	0fc87663          	bgeu	x16,x28,1a1c <.L362>
    1934:	16012083          	lw	x1,352(x2)
    1938:	19412f03          	lw	x30,404(x2)
    193c:	19c12503          	lw	x10,412(x2)
    1940:	0040a303          	lw	x6,4(x1)
    1944:	004f2883          	lw	x17,4(x30)
    1948:	000f2603          	lw	x12,0(x30)
    194c:	02638333          	mul	x6,x7,x6
    1950:	00cf2583          	lw	x11,12(x30)
    1954:	008f2683          	lw	x13,8(x30)
    1958:	00a12623          	sw	x10,12(x2)
    195c:	0000a503          	lw	x10,0(x1)
    1960:	16812f03          	lw	x30,360(x2)
    1964:	04712623          	sw	x7,76(x2)
    1968:	00c12823          	sw	x12,16(x2)
    196c:	00b12a23          	sw	x11,20(x2)
    1970:	00d12c23          	sw	x13,24(x2)
    1974:	03138eb3          	mul	x29,x7,x17
    1978:	00c0a883          	lw	x17,12(x1)
    197c:	0080a083          	lw	x1,8(x1)
    1980:	00a12e23          	sw	x10,28(x2)
    1984:	03112223          	sw	x17,36(x2)
    1988:	02612023          	sw	x6,32(x2)
    198c:	00008393          	mv	x7,x1

00001990 <.L364>:
    1990:	01412883          	lw	x17,20(x2)
    1994:	01012303          	lw	x6,16(x2)
    1998:	03b85633          	divu	x12,x16,x27
    199c:	03a855b3          	divu	x11,x16,x26
    19a0:	03a876b3          	remu	x13,x16,x26
    19a4:	00180813          	addi	x16,x16,1
    19a8:	03667533          	remu	x10,x12,x22
    19ac:	0375f0b3          	remu	x1,x11,x23
    19b0:	03168633          	mul	x12,x13,x17
    19b4:	01812883          	lw	x17,24(x2)
    19b8:	026505b3          	mul	x11,x10,x6
    19bc:	00ce8633          	add	x12,x29,x12
    19c0:	02412303          	lw	x6,36(x2)
    19c4:	031088b3          	mul	x17,x1,x17
    19c8:	00b605b3          	add	x11,x12,x11
    19cc:	01158633          	add	x12,x11,x17
    19d0:	00261593          	slli	x11,x12,0x2
    19d4:	01c12603          	lw	x12,28(x2)
    19d8:	026686b3          	mul	x13,x13,x6
    19dc:	00c12883          	lw	x17,12(x2)
    19e0:	00b88333          	add	x6,x17,x11
    19e4:	02012583          	lw	x11,32(x2)
    19e8:	00032807          	flw	f16,0(x6)
    19ec:	08c878d3          	fsub.s	f17,f16,f12
    19f0:	02c50533          	mul	x10,x10,x12
    19f4:	00d586b3          	add	x13,x11,x13
    19f8:	027080b3          	mul	x1,x1,x7
    19fc:	00a688b3          	add	x17,x13,x10
    1a00:	00188333          	add	x6,x17,x1
    1a04:	00231613          	slli	x12,x6,0x2
    1a08:	00cf0533          	add	x10,x30,x12
    1a0c:	00052e07          	flw	f28,0(x10)
    1a10:	e9c8fec3          	fmadd.s	f29,f17,f28,f29
    1a14:	f70e1ee3          	bne	x28,x16,1990 <.L364>
    1a18:	04c12383          	lw	x7,76(x2)

00001a1c <.L362>:
    1a1c:	04012e83          	lw	x29,64(x2)
    1a20:	000cae03          	lw	x28,0(x25)
    1a24:	04812803          	lw	x16,72(x2)
    1a28:	02c12883          	lw	x17,44(x2)
    1a2c:	004e8f13          	addi	x30,x29,4
    1a30:	018e1693          	slli	x13,x28,0x18
    1a34:	00281593          	slli	x11,x16,0x2
    1a38:	01ea80b3          	add	x1,x21,x30
    1a3c:	00b88333          	add	x6,x17,x11
    1a40:	0016e533          	or	x10,x13,x1
    1a44:	201c0637          	lui	x12,0x201c0
    1a48:	00c56e33          	or	x28,x10,x12
    1a4c:	01d32027          	fsw	f29,0(x6)
    1a50:	00fe0023          	sb	x15,0(x28)
    1a54:	000c2e03          	lw	x28,0(x24)
    1a58:	00700e93          	li	x29,7
    1a5c:	01de1a63          	bne	x28,x29,1a70 <.L380>
    1a60:	7040006f          	j	2164 <.L366>

00001a64 <.L549>:
    1a64:	000f8513          	mv	x10,x31
    1a68:	14052eaf          	lr.w.aq	x29,(x10)
    1a6c:	00fe8863          	beq	x29,x15,1a7c <.L379>

00001a70 <.L380>:
    1a70:	000f8893          	mv	x17,x31
    1a74:	1008a32f          	lr.w	x6,(x17)
    1a78:	fef316e3          	bne	x6,x15,1a64 <.L549>

00001a7c <.L379>:
    1a7c:	00000f37          	lui	x30,0x0
    1a80:	000f2803          	lw	x16,0(x30) # 0 <tensorlib_batch_norm2d_transform_input>
    1a84:	000aa023          	sw	x0,0(x21)
    1a88:	3a0804e3          	beqz	x16,2630 <.L550>

00001a8c <.L381>:
    1a8c:	000ca883          	lw	x17,0(x25)
    1a90:	004e0e13          	addi	x28,x28,4
    1a94:	01ca8333          	add	x6,x21,x28
    1a98:	01889513          	slli	x10,x17,0x18
    1a9c:	201c0f37          	lui	x30,0x201c0
    1aa0:	00656eb3          	or	x29,x10,x6
    1aa4:	01eee833          	or	x16,x29,x30
    1aa8:	00f80023          	sb	x15,0(x16)
    1aac:	000c2f03          	lw	x30,0(x24)
    1ab0:	00700593          	li	x11,7
    1ab4:	00bf1a63          	bne	x30,x11,1ac8 <.L398>
    1ab8:	7e00006f          	j	2298 <.L384>

00001abc <.L551>:
    1abc:	000f8e93          	mv	x29,x31
    1ac0:	140ea82f          	lr.w.aq	x16,(x29)
    1ac4:	00f80863          	beq	x16,x15,1ad4 <.L397>

00001ac8 <.L398>:
    1ac8:	000f8313          	mv	x6,x31
    1acc:	1003252f          	lr.w	x10,(x6)
    1ad0:	fef516e3          	bne	x10,x15,1abc <.L551>

00001ad4 <.L397>:
    1ad4:	000ca083          	lw	x1,0(x25)
    1ad8:	004f0f13          	addi	x30,x30,4 # 201c0004 <.L429+0x201bd67c>
    1adc:	02c12303          	lw	x6,44(x2)
    1ae0:	01ea85b3          	add	x11,x21,x30
    1ae4:	01809613          	slli	x12,x1,0x18
    1ae8:	00b666b3          	or	x13,x12,x11
    1aec:	201c08b7          	lui	x17,0x201c0
    1af0:	000aa023          	sw	x0,0(x21)
    1af4:	0116ee33          	or	x28,x13,x17
    1af8:	00032187          	flw	f3,0(x6)
    1afc:	00fe0023          	sb	x15,0(x28)
    1b00:	000c2503          	lw	x10,0(x24)
    1b04:	00700e93          	li	x29,7
    1b08:	01d51a63          	bne	x10,x29,1b1c <.L414>
    1b0c:	0c10006f          	j	23cc <.L400>

00001b10 <.L552>:
    1b10:	000f8313          	mv	x6,x31
    1b14:	1403252f          	lr.w.aq	x10,(x6)
    1b18:	00f50863          	beq	x10,x15,1b28 <.L413>

00001b1c <.L414>:
    1b1c:	000f8693          	mv	x13,x31
    1b20:	1006ae2f          	lr.w	x28,(x13)
    1b24:	fefe16e3          	bne	x28,x15,1b10 <.L552>

00001b28 <.L413>:
    1b28:	00000837          	lui	x16,0x0
    1b2c:	00082083          	lw	x1,0(x16) # 0 <tensorlib_batch_norm2d_transform_input>
    1b30:	12412e83          	lw	x29,292(x2)
    1b34:	000aa023          	sw	x0,0(x21)
    1b38:	04112e23          	sw	x1,92(x2)
    1b3c:	120e8063          	beqz	x29,1c5c <.L415>
    1b40:	03012603          	lw	x12,48(x2)
    1b44:	30061ce3          	bnez	x12,265c <.L553>
    1b48:	03412f03          	lw	x30,52(x2)
    1b4c:	ffd00593          	li	x11,-3
    1b50:	11e5e663          	bltu	x11,x30,1c5c <.L415>
    1b54:	05c12883          	lw	x17,92(x2)
    1b58:	03c12683          	lw	x13,60(x2)
    1b5c:	03812303          	lw	x6,56(x2)
    1b60:	07f8fe13          	andi	x28,x17,127
    1b64:	02de05b3          	mul	x11,x28,x13
    1b68:	00b680b3          	add	x1,x13,x11
    1b6c:	00137463          	bgeu	x6,x1,1b74 <.L422>
    1b70:	00030093          	mv	x1,x6

00001b74 <.L422>:
    1b74:	0e15f463          	bgeu	x11,x1,1c5c <.L415>
    1b78:	12c12603          	lw	x12,300(x2)
    1b7c:	16012503          	lw	x10,352(x2)
    1b80:	10a5f2d3          	fmul.s	f5,f11,f10
    1b84:	00462883          	lw	x17,4(x12) # 201c0004 <.L429+0x201bd67c>
    1b88:	00452e83          	lw	x29,4(x10)
    1b8c:	00052f03          	lw	x30,0(x10)
    1b90:	031388b3          	mul	x17,x7,x17
    1b94:	00c52e03          	lw	x28,12(x10)
    1b98:	00852683          	lw	x13,8(x10)
    1b9c:	16812803          	lw	x16,360(x2)
    1ba0:	00c62503          	lw	x10,12(x12)
    1ba4:	13412303          	lw	x6,308(x2)
    1ba8:	01e12823          	sw	x30,16(x2)
    1bac:	00062f03          	lw	x30,0(x12)
    1bb0:	00862603          	lw	x12,8(x12)
    1bb4:	01012623          	sw	x16,12(x2)
    1bb8:	03d38eb3          	mul	x29,x7,x29
    1bbc:	01c12a23          	sw	x28,20(x2)
    1bc0:	00d12c23          	sw	x13,24(x2)
    1bc4:	00612e23          	sw	x6,28(x2)
    1bc8:	02a12223          	sw	x10,36(x2)
    1bcc:	02c12623          	sw	x12,44(x2)
    1bd0:	03112023          	sw	x17,32(x2)

00001bd4 <.L424>:
    1bd4:	01412303          	lw	x6,20(x2)
    1bd8:	03b5d833          	divu	x16,x11,x27
    1bdc:	03a5de33          	divu	x28,x11,x26
    1be0:	03a5f6b3          	remu	x13,x11,x26
    1be4:	00158593          	addi	x11,x11,1
    1be8:	036878b3          	remu	x17,x16,x22
    1bec:	01012803          	lw	x16,16(x2)
    1bf0:	037e7533          	remu	x10,x28,x23
    1bf4:	02668633          	mul	x12,x13,x6
    1bf8:	01812303          	lw	x6,24(x2)
    1bfc:	03088e33          	mul	x28,x17,x16
    1c00:	00ce8633          	add	x12,x29,x12
    1c04:	02650833          	mul	x16,x10,x6
    1c08:	01c60633          	add	x12,x12,x28
    1c0c:	02412e03          	lw	x28,36(x2)
    1c10:	01060333          	add	x6,x12,x16
    1c14:	00c12603          	lw	x12,12(x2)
    1c18:	00231813          	slli	x16,x6,0x2
    1c1c:	03c686b3          	mul	x13,x13,x28
    1c20:	01060e33          	add	x28,x12,x16
    1c24:	02c12803          	lw	x16,44(x2)
    1c28:	000e2787          	flw	f15,0(x28)
    1c2c:	02012303          	lw	x6,32(x2)
    1c30:	1057f753          	fmul.s	f14,f15,f5
    1c34:	03e888b3          	mul	x17,x17,x30
    1c38:	00d306b3          	add	x13,x6,x13
    1c3c:	01c12303          	lw	x6,28(x2)
    1c40:	03050533          	mul	x10,x10,x16
    1c44:	01168633          	add	x12,x13,x17
    1c48:	00a60e33          	add	x28,x12,x10
    1c4c:	002e1893          	slli	x17,x28,0x2
    1c50:	011306b3          	add	x13,x6,x17
    1c54:	00e6a027          	fsw	f14,0(x13) # 201c0000 <.L429+0x201bd678>
    1c58:	f6b09ee3          	bne	x1,x11,1bd4 <.L424>

00001c5c <.L415>:
    1c5c:	05c12303          	lw	x6,92(x2)
    1c60:	00031a63          	bnez	x6,1c74 <.L426>
    1c64:	06012f03          	lw	x30,96(x2)
    1c68:	3e0f12e3          	bnez	x30,284c <.L554>

00001c6c <.L427>:
    1c6c:	07c12603          	lw	x12,124(x2)
    1c70:	40061ce3          	bnez	x12,2888 <.L555>

00001c74 <.L426>:
    1c74:	04412683          	lw	x13,68(x2)
    1c78:	00138393          	addi	x7,x7,1
    1c7c:	a47692e3          	bne	x13,x7,16c0 <.L438>

00001c80 <.L465>:
    1c80:	1fc12083          	lw	x1,508(x2)
    1c84:	1f812403          	lw	x8,504(x2)
    1c88:	1f412483          	lw	x9,500(x2)
    1c8c:	1f012903          	lw	x18,496(x2)
    1c90:	1ec12983          	lw	x19,492(x2)
    1c94:	1e812a03          	lw	x20,488(x2)
    1c98:	1e412a83          	lw	x21,484(x2)
    1c9c:	1e012b03          	lw	x22,480(x2)
    1ca0:	1dc12b83          	lw	x23,476(x2)
    1ca4:	1d812c03          	lw	x24,472(x2)
    1ca8:	1d412c83          	lw	x25,468(x2)
    1cac:	1d012d03          	lw	x26,464(x2)
    1cb0:	1cc12d83          	lw	x27,460(x2)
    1cb4:	00000513          	li	x10,0
    1cb8:	20010113          	addi	x2,x2,512
    1cbc:	00008067          	ret

00001cc0 <.L286>:
    1cc0:	0ec12803          	lw	x16,236(x2)
    1cc4:	0503fc63          	bgeu	x7,x16,1d1c <.L556>
    1cc8:	0f012883          	lw	x17,240(x2)
    1ccc:	0fc12e03          	lw	x28,252(x2)
    1cd0:	0cf882e3          	beq	x17,x15,2594 <.L298>
    1cd4:	10812603          	lw	x12,264(x2)
    1cd8:	00239593          	slli	x11,x7,0x2
    1cdc:	00be00b3          	add	x1,x28,x11
    1ce0:	0cc3f8e3          	bgeu	x7,x12,25b0 <.L557>

00001ce4 <.L300>:
    1ce4:	10c12503          	lw	x10,268(x2)
    1ce8:	11812803          	lw	x16,280(x2)
    1cec:	00f504e3          	beq	x10,x15,24f4 <.L302>
    1cf0:	00239693          	slli	x13,x7,0x2
    1cf4:	00d80333          	add	x6,x16,x13

00001cf8 <.L303>:
    1cf8:	00032507          	flw	f10,0(x6)
    1cfc:	09812f03          	lw	x30,152(x2)
    1d00:	0000a607          	flw	f12,0(x1)
    1d04:	00a171d3          	fadd.s	f3,f2,f10
    1d08:	5801f2d3          	fsqrt.s	f5,f3
    1d0c:	1850f553          	fdiv.s	f10,f1,f5
    1d10:	a00f10e3          	bnez	x30,1710 <.L558>

00001d14 <.L445>:
    1d14:	204205d3          	fmv.s	f11,f4
    1d18:	a1dff06f          	j	1734 <.L304>

00001d1c <.L556>:
    1d1c:	00000737          	lui	x14,0x0
    1d20:	000007b7          	lui	x15,0x0
    1d24:	00070593          	mv	x11,x14
    1d28:	08c00613          	li	x12,140
    1d2c:	00078513          	mv	x10,x15
    1d30:	00038d93          	mv	x27,x7
    1d34:	00000097          	auipc	x1,0x0
    1d38:	000080e7          	jalr	x1 # 1d34 <.L556+0x18>
    1d3c:	0ec12583          	lw	x11,236(x2)
    1d40:	000002b7          	lui	x5,0x0
    1d44:	000d8613          	mv	x12,x27
    1d48:	00028513          	mv	x10,x5
    1d4c:	00000097          	auipc	x1,0x0
    1d50:	000080e7          	jalr	x1 # 1d4c <.L556+0x30>
    1d54:	000cad03          	lw	x26,0(x25)
    1d58:	000c2b83          	lw	x23,0(x24)
    1d5c:	4100f5b7          	lui	x11,0x4100f
    1d60:	010d1b13          	slli	x22,x26,0x10
    1d64:	017b03b3          	add	x7,x22,x23
    1d68:	ac75ac23          	sw	x7,-1320(x11) # 4100ead8 <.L429+0x4100c150>

00001d6c <.L297>:
    1d6c:	0000006f          	j	1d6c <.L297>

00001d70 <.L542>:
    1d70:	00000b37          	lui	x22,0x0
    1d74:	00000bb7          	lui	x23,0x0
    1d78:	000b0593          	mv	x11,x22
    1d7c:	08c00613          	li	x12,140
    1d80:	000b8513          	mv	x10,x23
    1d84:	00038a93          	mv	x21,x7
    1d88:	00000097          	auipc	x1,0x0
    1d8c:	000080e7          	jalr	x1 # 1d88 <.L542+0x18>
    1d90:	0b412583          	lw	x11,180(x2)
    1d94:	00000d37          	lui	x26,0x0
    1d98:	000a8613          	mv	x12,x21
    1d9c:	000d0513          	mv	x10,x26
    1da0:	00000097          	auipc	x1,0x0
    1da4:	000080e7          	jalr	x1 # 1da0 <.L542+0x30>
    1da8:	000cad83          	lw	x27,0(x25)
    1dac:	000c2c83          	lw	x25,0(x24)
    1db0:	4100f837          	lui	x16,0x4100f
    1db4:	010d9c13          	slli	x24,x27,0x10
    1db8:	019c0fb3          	add	x31,x24,x25
    1dbc:	adf82c23          	sw	x31,-1320(x16) # 4100ead8 <.L429+0x4100c150>

00001dc0 <.L288>:
    1dc0:	0000006f          	j	1dc0 <.L288>

00001dc4 <.L313>:
    1dc4:	000a0e13          	mv	x28,x20

00001dc8 <.L315>:
    1dc8:	000e4e83          	lbu	x29,0(x28)
    1dcc:	001e0e13          	addi	x28,x28,1
    1dd0:	0ffef093          	andi	x1,x29,255
    1dd4:	fe0088e3          	beqz	x1,1dc4 <.L313>
    1dd8:	ffc718e3          	bne	x14,x28,1dc8 <.L315>
    1ddc:	000ca883          	lw	x17,0(x25)
    1de0:	231c0337          	lui	x6,0x231c0
    1de4:	00700813          	li	x16,7
    1de8:	01888613          	addi	x12,x17,24 # 201c0018 <.L429+0x201bd690>
    1dec:	00ca86b3          	add	x13,x21,x12
    1df0:	0066e533          	or	x10,x13,x6
    1df4:	00f50023          	sb	x15,0(x10)
    1df8:	000c2583          	lw	x11,0(x24)
    1dfc:	a3059ce3          	bne	x11,x16,1834 <.L327>
    1e00:	000caf03          	lw	x30,0(x25)
    1e04:	00300e93          	li	x29,3
    1e08:	01df1a63          	bne	x30,x29,1e1c <.L317>
    1e0c:	0640006f          	j	1e70 <.L316>

00001e10 <.L559>:
    1e10:	014a8513          	addi	x10,x21,20
    1e14:	140525af          	lr.w.aq	x11,(x10)
    1e18:	00f58863          	beq	x11,x15,1e28 <.L323>

00001e1c <.L317>:
    1e1c:	014a8313          	addi	x6,x21,20
    1e20:	100326af          	lr.w	x13,(x6)
    1e24:	fef696e3          	bne	x13,x15,1e10 <.L559>

00001e28 <.L323>:
    1e28:	000aaa23          	sw	x0,20(x21)
    1e2c:	00000f13          	li	x30,0

00001e30 <.L324>:
    1e30:	01ea8833          	add	x16,x21,x30
    1e34:	00080223          	sb	x0,4(x16)
    1e38:	001f0f13          	addi	x30,x30,1
    1e3c:	ff3f1ae3          	bne	x30,x19,1e30 <.L324>
    1e40:	000aa023          	sw	x0,0(x21)
    1e44:	00000613          	li	x12,0

00001e48 <.L325>:
    1e48:	000cae83          	lw	x29,0(x25)
    1e4c:	00caee33          	or	x28,x21,x12
    1e50:	00960633          	add	x12,x12,x9
    1e54:	018e9093          	slli	x1,x29,0x18
    1e58:	01c0e8b3          	or	x17,x1,x28
    1e5c:	0128e333          	or	x6,x17,x18
    1e60:	00f32023          	sw	x15,0(x6) # 231c0000 <.L429+0x231bd678>
    1e64:	fe8612e3          	bne	x12,x8,1e48 <.L325>
    1e68:	000c2583          	lw	x11,0(x24)
    1e6c:	9c9ff06f          	j	1834 <.L327>

00001e70 <.L316>:
    1e70:	02812083          	lw	x1,40(x2)

00001e74 <.L318>:
    1e74:	0000ce03          	lbu	x28,0(x1)
    1e78:	00108093          	addi	x1,x1,1
    1e7c:	0ffe7893          	andi	x17,x28,255
    1e80:	fe0888e3          	beqz	x17,1e70 <.L316>
    1e84:	fe1298e3          	bne	x5,x1,1e74 <.L318>
    1e88:	000a8c23          	sb	x0,24(x21)
    1e8c:	000a8ca3          	sb	x0,25(x21)
    1e90:	000a8d23          	sb	x0,26(x21)
    1e94:	000a8da3          	sb	x0,27(x21)
    1e98:	000a8e23          	sb	x0,28(x21)
    1e9c:	000a8ea3          	sb	x0,29(x21)
    1ea0:	000a8f23          	sb	x0,30(x21)
    1ea4:	000a8fa3          	sb	x0,31(x21)
    1ea8:	000aaa23          	sw	x0,20(x21)
    1eac:	00000613          	li	x12,0
    1eb0:	08000337          	lui	x6,0x8000
    1eb4:	00058093          	mv	x1,x11
    1eb8:	0080006f          	j	1ec0 <.L320>

00001ebc <.L560>:
    1ebc:	000c2083          	lw	x1,0(x24)

00001ec0 <.L320>:
    1ec0:	01209693          	slli	x13,x1,0x12
    1ec4:	03fc05b7          	lui	x11,0x3fc0
    1ec8:	00c76533          	or	x10,x14,x12
    1ecc:	00b6f833          	and	x16,x13,x11
    1ed0:	00a86f33          	or	x30,x16,x10
    1ed4:	012f6eb3          	or	x29,x30,x18
    1ed8:	01000e37          	lui	x28,0x1000
    1edc:	00fea023          	sw	x15,0(x29)
    1ee0:	01c60633          	add	x12,x12,x28
    1ee4:	fc661ce3          	bne	x12,x6,1ebc <.L560>
    1ee8:	000c2583          	lw	x11,0(x24)
    1eec:	00700893          	li	x17,7
    1ef0:	f31586e3          	beq	x11,x17,1e1c <.L317>
    1ef4:	941ff06f          	j	1834 <.L327>

00001ef8 <.L331>:
    1ef8:	000a0893          	mv	x17,x20

00001efc <.L333>:
    1efc:	0008c603          	lbu	x12,0(x17)
    1f00:	00188893          	addi	x17,x17,1
    1f04:	0ff67313          	andi	x6,x12,255
    1f08:	fe0308e3          	beqz	x6,1ef8 <.L331>
    1f0c:	ff1718e3          	bne	x14,x17,1efc <.L333>
    1f10:	000ca683          	lw	x13,0(x25)
    1f14:	231c0837          	lui	x16,0x231c0
    1f18:	00700e13          	li	x28,7
    1f1c:	01868593          	addi	x11,x13,24
    1f20:	00ba8533          	add	x10,x21,x11
    1f24:	01056f33          	or	x30,x10,x16
    1f28:	00ff0023          	sb	x15,0(x30)
    1f2c:	000c2e83          	lw	x29,0(x24)
    1f30:	95ce9ee3          	bne	x29,x28,188c <.L345>
    1f34:	000ca083          	lw	x1,0(x25)
    1f38:	00300613          	li	x12,3
    1f3c:	00c09a63          	bne	x1,x12,1f50 <.L335>
    1f40:	0640006f          	j	1fa4 <.L334>

00001f44 <.L561>:
    1f44:	014a8e93          	addi	x29,x21,20
    1f48:	140ea82f          	lr.w.aq	x16,(x29)
    1f4c:	00f80863          	beq	x16,x15,1f5c <.L341>

00001f50 <.L335>:
    1f50:	014a8513          	addi	x10,x21,20
    1f54:	10052f2f          	lr.w	x30,(x10)
    1f58:	feff16e3          	bne	x30,x15,1f44 <.L561>

00001f5c <.L341>:
    1f5c:	000aaa23          	sw	x0,20(x21)
    1f60:	00000093          	li	x1,0

00001f64 <.L342>:
    1f64:	001a8e33          	add	x28,x21,x1
    1f68:	000e0223          	sb	x0,4(x28) # 1000004 <.L429+0xffd67c>
    1f6c:	00108093          	addi	x1,x1,1
    1f70:	ff309ae3          	bne	x1,x19,1f64 <.L342>
    1f74:	000aa023          	sw	x0,0(x21)
    1f78:	00000613          	li	x12,0

00001f7c <.L343>:
    1f7c:	000ca883          	lw	x17,0(x25)
    1f80:	00cae5b3          	or	x11,x21,x12
    1f84:	00960633          	add	x12,x12,x9
    1f88:	01889313          	slli	x6,x17,0x18
    1f8c:	00b366b3          	or	x13,x6,x11
    1f90:	0126e533          	or	x10,x13,x18
    1f94:	00f52023          	sw	x15,0(x10)
    1f98:	fe8612e3          	bne	x12,x8,1f7c <.L343>
    1f9c:	000c2e83          	lw	x29,0(x24)
    1fa0:	8edff06f          	j	188c <.L345>

00001fa4 <.L334>:
    1fa4:	02812303          	lw	x6,40(x2)

00001fa8 <.L336>:
    1fa8:	00034883          	lbu	x17,0(x6) # 8000000 <.L429+0x7ffd678>
    1fac:	00130313          	addi	x6,x6,1
    1fb0:	0ff8f693          	andi	x13,x17,255
    1fb4:	fe0688e3          	beqz	x13,1fa4 <.L334>
    1fb8:	fe6298e3          	bne	x5,x6,1fa8 <.L336>
    1fbc:	000a8c23          	sb	x0,24(x21)
    1fc0:	000a8ca3          	sb	x0,25(x21)
    1fc4:	000a8d23          	sb	x0,26(x21)
    1fc8:	000a8da3          	sb	x0,27(x21)
    1fcc:	000a8e23          	sb	x0,28(x21)
    1fd0:	000a8ea3          	sb	x0,29(x21)
    1fd4:	000a8f23          	sb	x0,30(x21)
    1fd8:	000a8fa3          	sb	x0,31(x21)
    1fdc:	000aaa23          	sw	x0,20(x21)
    1fe0:	00000593          	li	x11,0
    1fe4:	08000537          	lui	x10,0x8000
    1fe8:	000e8313          	mv	x6,x29
    1fec:	0080006f          	j	1ff4 <.L338>

00001ff0 <.L562>:
    1ff0:	000c2303          	lw	x6,0(x24)

00001ff4 <.L338>:
    1ff4:	01231f13          	slli	x30,x6,0x12
    1ff8:	03fc0837          	lui	x16,0x3fc0
    1ffc:	00b76eb3          	or	x29,x14,x11
    2000:	010f7e33          	and	x28,x30,x16
    2004:	01de60b3          	or	x1,x28,x29
    2008:	0120e633          	or	x12,x1,x18
    200c:	010008b7          	lui	x17,0x1000
    2010:	00f62023          	sw	x15,0(x12)
    2014:	011585b3          	add	x11,x11,x17
    2018:	fca59ce3          	bne	x11,x10,1ff0 <.L562>
    201c:	000c2e83          	lw	x29,0(x24)
    2020:	00700693          	li	x13,7
    2024:	f2de86e3          	beq	x29,x13,1f50 <.L335>
    2028:	865ff06f          	j	188c <.L345>

0000202c <.L347>:
    202c:	000a0893          	mv	x17,x20

00002030 <.L349>:
    2030:	0008c083          	lbu	x1,0(x17) # 1000000 <.L429+0xffd678>
    2034:	00188893          	addi	x17,x17,1
    2038:	0ff0fe93          	andi	x29,x1,255
    203c:	fe0e88e3          	beqz	x29,202c <.L347>
    2040:	ff1718e3          	bne	x14,x17,2030 <.L349>
    2044:	000ca583          	lw	x11,0(x25)
    2048:	231c06b7          	lui	x13,0x231c0
    204c:	00700813          	li	x16,7
    2050:	01858613          	addi	x12,x11,24 # 3fc0018 <.L429+0x3fbd690>
    2054:	00ca8333          	add	x6,x21,x12
    2058:	00d36533          	or	x10,x6,x13
    205c:	00f50023          	sb	x15,0(x10) # 8000000 <.L429+0x7ffd678>
    2060:	000c2f03          	lw	x30,0(x24)
    2064:	05e12023          	sw	x30,64(x2)
    2068:	870f1ee3          	bne	x30,x16,18e4 <.L361>
    206c:	000cae03          	lw	x28,0(x25)
    2070:	00300093          	li	x1,3
    2074:	001e1a63          	bne	x28,x1,2088 <.L351>
    2078:	0680006f          	j	20e0 <.L350>

0000207c <.L563>:
    207c:	014a8513          	addi	x10,x21,20
    2080:	14052f2f          	lr.w.aq	x30,(x10)
    2084:	00ff0863          	beq	x30,x15,2094 <.L357>

00002088 <.L351>:
    2088:	014a8313          	addi	x6,x21,20
    208c:	100326af          	lr.w	x13,(x6)
    2090:	fef696e3          	bne	x13,x15,207c <.L563>

00002094 <.L357>:
    2094:	000aaa23          	sw	x0,20(x21)
    2098:	00000e13          	li	x28,0

0000209c <.L358>:
    209c:	01ca8833          	add	x16,x21,x28
    20a0:	00080223          	sb	x0,4(x16) # 3fc0004 <.L429+0x3fbd67c>
    20a4:	001e0e13          	addi	x28,x28,1
    20a8:	ff3e1ae3          	bne	x28,x19,209c <.L358>
    20ac:	000aa023          	sw	x0,0(x21)
    20b0:	00000613          	li	x12,0

000020b4 <.L359>:
    20b4:	000ca083          	lw	x1,0(x25)
    20b8:	00cae8b3          	or	x17,x21,x12
    20bc:	00960633          	add	x12,x12,x9
    20c0:	01809e93          	slli	x29,x1,0x18
    20c4:	011ee5b3          	or	x11,x29,x17
    20c8:	0125e333          	or	x6,x11,x18
    20cc:	00f32023          	sw	x15,0(x6)
    20d0:	fe8612e3          	bne	x12,x8,20b4 <.L359>
    20d4:	000c2683          	lw	x13,0(x24)
    20d8:	04d12023          	sw	x13,64(x2)
    20dc:	809ff06f          	j	18e4 <.L361>

000020e0 <.L350>:
    20e0:	02812e83          	lw	x29,40(x2)

000020e4 <.L352>:
    20e4:	000ec883          	lbu	x17,0(x29)
    20e8:	001e8e93          	addi	x29,x29,1
    20ec:	0ff8f593          	andi	x11,x17,255
    20f0:	fe0588e3          	beqz	x11,20e0 <.L350>
    20f4:	ffd298e3          	bne	x5,x29,20e4 <.L352>
    20f8:	000a8c23          	sb	x0,24(x21)
    20fc:	000a8ca3          	sb	x0,25(x21)
    2100:	000a8d23          	sb	x0,26(x21)
    2104:	000a8da3          	sb	x0,27(x21)
    2108:	000a8e23          	sb	x0,28(x21)
    210c:	000a8ea3          	sb	x0,29(x21)
    2110:	000a8f23          	sb	x0,30(x21)
    2114:	04012e83          	lw	x29,64(x2)
    2118:	000a8fa3          	sb	x0,31(x21)
    211c:	000aaa23          	sw	x0,20(x21)
    2120:	00000613          	li	x12,0
    2124:	08000337          	lui	x6,0x8000

00002128 <.L354>:
    2128:	012e9693          	slli	x13,x29,0x12
    212c:	03fc0f37          	lui	x30,0x3fc0
    2130:	00c76533          	or	x10,x14,x12
    2134:	01e6f833          	and	x16,x13,x30
    2138:	00a86e33          	or	x28,x16,x10
    213c:	012e60b3          	or	x1,x28,x18
    2140:	010008b7          	lui	x17,0x1000
    2144:	00f0a023          	sw	x15,0(x1)
    2148:	01160633          	add	x12,x12,x17
    214c:	000c2e83          	lw	x29,0(x24)
    2150:	fc661ce3          	bne	x12,x6,2128 <.L354>
    2154:	05d12023          	sw	x29,64(x2)
    2158:	00700593          	li	x11,7
    215c:	f2be86e3          	beq	x29,x11,2088 <.L351>
    2160:	f84ff06f          	j	18e4 <.L361>

00002164 <.L366>:
    2164:	000a0813          	mv	x16,x20

00002168 <.L368>:
    2168:	00084f03          	lbu	x30,0(x16)
    216c:	00180813          	addi	x16,x16,1
    2170:	0fff7593          	andi	x11,x30,255
    2174:	fe0588e3          	beqz	x11,2164 <.L366>
    2178:	ff0718e3          	bne	x14,x16,2168 <.L368>
    217c:	000ca683          	lw	x13,0(x25)
    2180:	231c0337          	lui	x6,0x231c0
    2184:	00700613          	li	x12,7
    2188:	01868093          	addi	x1,x13,24 # 231c0018 <.L429+0x231bd690>
    218c:	001a88b3          	add	x17,x21,x1
    2190:	0068e533          	or	x10,x17,x6
    2194:	00f50023          	sb	x15,0(x10)
    2198:	000c2e03          	lw	x28,0(x24)
    219c:	8cce1ae3          	bne	x28,x12,1a70 <.L380>
    21a0:	000cae83          	lw	x29,0(x25)
    21a4:	00300f13          	li	x30,3
    21a8:	01ee9a63          	bne	x29,x30,21bc <.L370>
    21ac:	0640006f          	j	2210 <.L369>

000021b0 <.L564>:
    21b0:	014a8313          	addi	x6,x21,20
    21b4:	1403252f          	lr.w.aq	x10,(x6)
    21b8:	00f50863          	beq	x10,x15,21c8 <.L376>

000021bc <.L370>:
    21bc:	014a8093          	addi	x1,x21,20
    21c0:	1000a8af          	lr.w	x17,(x1)
    21c4:	fef896e3          	bne	x17,x15,21b0 <.L564>

000021c8 <.L376>:
    21c8:	000aaa23          	sw	x0,20(x21)
    21cc:	00000e93          	li	x29,0

000021d0 <.L377>:
    21d0:	01da8e33          	add	x28,x21,x29
    21d4:	000e0223          	sb	x0,4(x28)
    21d8:	001e8e93          	addi	x29,x29,1
    21dc:	ff3e9ae3          	bne	x29,x19,21d0 <.L377>
    21e0:	000aa023          	sw	x0,0(x21)
    21e4:	00000613          	li	x12,0

000021e8 <.L378>:
    21e8:	000caf03          	lw	x30,0(x25)
    21ec:	00cae833          	or	x16,x21,x12
    21f0:	00960633          	add	x12,x12,x9
    21f4:	018f1593          	slli	x11,x30,0x18
    21f8:	0105e6b3          	or	x13,x11,x16
    21fc:	0126e0b3          	or	x1,x13,x18
    2200:	00f0a023          	sw	x15,0(x1)
    2204:	fe8612e3          	bne	x12,x8,21e8 <.L378>
    2208:	000c2e03          	lw	x28,0(x24)
    220c:	865ff06f          	j	1a70 <.L380>

00002210 <.L369>:
    2210:	02812583          	lw	x11,40(x2)

00002214 <.L371>:
    2214:	0005c803          	lbu	x16,0(x11)
    2218:	00158593          	addi	x11,x11,1
    221c:	0ff87693          	andi	x13,x16,255
    2220:	fe0688e3          	beqz	x13,2210 <.L369>
    2224:	feb298e3          	bne	x5,x11,2214 <.L371>
    2228:	000a8c23          	sb	x0,24(x21)
    222c:	000a8ca3          	sb	x0,25(x21)
    2230:	000a8d23          	sb	x0,26(x21)
    2234:	000a8da3          	sb	x0,27(x21)
    2238:	000a8e23          	sb	x0,28(x21)
    223c:	000a8ea3          	sb	x0,29(x21)
    2240:	000a8f23          	sb	x0,30(x21)
    2244:	000a8fa3          	sb	x0,31(x21)
    2248:	000aaa23          	sw	x0,20(x21)
    224c:	00000613          	li	x12,0
    2250:	080000b7          	lui	x1,0x8000
    2254:	000e0593          	mv	x11,x28
    2258:	0080006f          	j	2260 <.L373>

0000225c <.L565>:
    225c:	000c2583          	lw	x11,0(x24)

00002260 <.L373>:
    2260:	01259893          	slli	x17,x11,0x12
    2264:	03fc0537          	lui	x10,0x3fc0
    2268:	00c76333          	or	x6,x14,x12
    226c:	00a8fe33          	and	x28,x17,x10
    2270:	006e6eb3          	or	x29,x28,x6
    2274:	012eef33          	or	x30,x29,x18
    2278:	01000837          	lui	x16,0x1000
    227c:	00ff2023          	sw	x15,0(x30) # 3fc0000 <.L429+0x3fbd678>
    2280:	01060633          	add	x12,x12,x16
    2284:	fc161ce3          	bne	x12,x1,225c <.L565>
    2288:	000c2e03          	lw	x28,0(x24)
    228c:	00700693          	li	x13,7
    2290:	f2de06e3          	beq	x28,x13,21bc <.L370>
    2294:	fdcff06f          	j	1a70 <.L380>

00002298 <.L384>:
    2298:	000a0693          	mv	x13,x20

0000229c <.L386>:
    229c:	0006c603          	lbu	x12,0(x13)
    22a0:	00168693          	addi	x13,x13,1
    22a4:	0ff67093          	andi	x1,x12,255
    22a8:	fe0088e3          	beqz	x1,2298 <.L384>
    22ac:	fed718e3          	bne	x14,x13,229c <.L386>
    22b0:	000ca883          	lw	x17,0(x25)
    22b4:	231c0537          	lui	x10,0x231c0
    22b8:	00700813          	li	x16,7
    22bc:	01888e13          	addi	x28,x17,24 # 1000018 <.L429+0xffd690>
    22c0:	01ca8333          	add	x6,x21,x28
    22c4:	00a36eb3          	or	x29,x6,x10
    22c8:	00fe8023          	sb	x15,0(x29)
    22cc:	000c2f03          	lw	x30,0(x24)
    22d0:	ff0f1c63          	bne	x30,x16,1ac8 <.L398>
    22d4:	000ca603          	lw	x12,0(x25)
    22d8:	00300593          	li	x11,3
    22dc:	00b61a63          	bne	x12,x11,22f0 <.L388>
    22e0:	0640006f          	j	2344 <.L387>

000022e4 <.L566>:
    22e4:	014a8513          	addi	x10,x21,20
    22e8:	14052eaf          	lr.w.aq	x29,(x10)
    22ec:	00fe8863          	beq	x29,x15,22fc <.L394>

000022f0 <.L388>:
    22f0:	014a8e13          	addi	x28,x21,20
    22f4:	100e232f          	lr.w	x6,(x28)
    22f8:	fef316e3          	bne	x6,x15,22e4 <.L566>

000022fc <.L394>:
    22fc:	000aaa23          	sw	x0,20(x21)
    2300:	00000813          	li	x16,0

00002304 <.L395>:
    2304:	010a8f33          	add	x30,x21,x16
    2308:	000f0223          	sb	x0,4(x30)
    230c:	00180813          	addi	x16,x16,1 # 1000001 <.L429+0xffd679>
    2310:	ff381ae3          	bne	x16,x19,2304 <.L395>
    2314:	000aa023          	sw	x0,0(x21)
    2318:	00000613          	li	x12,0

0000231c <.L396>:
    231c:	000ca083          	lw	x1,0(x25)
    2320:	00cae5b3          	or	x11,x21,x12
    2324:	00960633          	add	x12,x12,x9
    2328:	01809693          	slli	x13,x1,0x18
    232c:	00b6e8b3          	or	x17,x13,x11
    2330:	0128ee33          	or	x28,x17,x18
    2334:	00fe2023          	sw	x15,0(x28)
    2338:	fe8612e3          	bne	x12,x8,231c <.L396>
    233c:	000c2f03          	lw	x30,0(x24)
    2340:	f88ff06f          	j	1ac8 <.L398>

00002344 <.L387>:
    2344:	02812683          	lw	x13,40(x2)

00002348 <.L389>:
    2348:	0006c083          	lbu	x1,0(x13)
    234c:	00168693          	addi	x13,x13,1
    2350:	0ff0f893          	andi	x17,x1,255
    2354:	fe0888e3          	beqz	x17,2344 <.L387>
    2358:	fed298e3          	bne	x5,x13,2348 <.L389>
    235c:	000a8c23          	sb	x0,24(x21)
    2360:	000a8ca3          	sb	x0,25(x21)
    2364:	000a8d23          	sb	x0,26(x21)
    2368:	000a8da3          	sb	x0,27(x21)
    236c:	000a8e23          	sb	x0,28(x21)
    2370:	000a8ea3          	sb	x0,29(x21)
    2374:	000a8f23          	sb	x0,30(x21)
    2378:	000a8fa3          	sb	x0,31(x21)
    237c:	000aaa23          	sw	x0,20(x21)
    2380:	00000593          	li	x11,0
    2384:	08000e37          	lui	x28,0x8000
    2388:	000f0693          	mv	x13,x30
    238c:	0080006f          	j	2394 <.L391>

00002390 <.L567>:
    2390:	000c2683          	lw	x13,0(x24)

00002394 <.L391>:
    2394:	01269313          	slli	x6,x13,0x12
    2398:	03fc0eb7          	lui	x29,0x3fc0
    239c:	00b76533          	or	x10,x14,x11
    23a0:	01d37f33          	and	x30,x6,x29
    23a4:	00af6833          	or	x16,x30,x10
    23a8:	01286633          	or	x12,x16,x18
    23ac:	010000b7          	lui	x1,0x1000
    23b0:	00f62023          	sw	x15,0(x12)
    23b4:	001585b3          	add	x11,x11,x1
    23b8:	fdc59ce3          	bne	x11,x28,2390 <.L567>
    23bc:	000c2f03          	lw	x30,0(x24)
    23c0:	00700893          	li	x17,7
    23c4:	f31f06e3          	beq	x30,x17,22f0 <.L388>
    23c8:	f00ff06f          	j	1ac8 <.L398>

000023cc <.L400>:
    23cc:	000a0093          	mv	x1,x20

000023d0 <.L402>:
    23d0:	0000c803          	lbu	x16,0(x1) # 1000000 <.L429+0xffd678>
    23d4:	00108093          	addi	x1,x1,1
    23d8:	0ff87f13          	andi	x30,x16,255
    23dc:	fe0f08e3          	beqz	x30,23cc <.L400>
    23e0:	fe1718e3          	bne	x14,x1,23d0 <.L402>
    23e4:	000ca583          	lw	x11,0(x25)
    23e8:	231c08b7          	lui	x17,0x231c0
    23ec:	00700513          	li	x10,7
    23f0:	01858613          	addi	x12,x11,24
    23f4:	00ca86b3          	add	x13,x21,x12
    23f8:	0116ee33          	or	x28,x13,x17
    23fc:	00fe0023          	sb	x15,0(x28) # 8000000 <.L429+0x7ffd678>
    2400:	000c2303          	lw	x6,0(x24)
    2404:	f0a31c63          	bne	x6,x10,1b1c <.L414>
    2408:	000cae83          	lw	x29,0(x25)
    240c:	00300813          	li	x16,3
    2410:	010e9a63          	bne	x29,x16,2424 <.L404>
    2414:	0600006f          	j	2474 <.L403>

00002418 <.L568>:
    2418:	014a8e13          	addi	x28,x21,20
    241c:	140e232f          	lr.w.aq	x6,(x28)
    2420:	00f30863          	beq	x6,x15,2430 <.L410>

00002424 <.L404>:
    2424:	014a8893          	addi	x17,x21,20
    2428:	1008a6af          	lr.w	x13,(x17)
    242c:	fef696e3          	bne	x13,x15,2418 <.L568>

00002430 <.L410>:
    2430:	000aaa23          	sw	x0,20(x21)
    2434:	00000e93          	li	x29,0

00002438 <.L411>:
    2438:	01da8533          	add	x10,x21,x29
    243c:	00050223          	sb	x0,4(x10) # 231c0004 <.L429+0x231bd67c>
    2440:	001e8e93          	addi	x29,x29,1 # 3fc0001 <.L429+0x3fbd679>
    2444:	ff3e9ae3          	bne	x29,x19,2438 <.L411>
    2448:	000aa023          	sw	x0,0(x21)
    244c:	00000613          	li	x12,0

00002450 <.L412>:
    2450:	000ca803          	lw	x16,0(x25)
    2454:	00cae0b3          	or	x1,x21,x12
    2458:	00960633          	add	x12,x12,x9
    245c:	01881f13          	slli	x30,x16,0x18
    2460:	001f65b3          	or	x11,x30,x1
    2464:	0125e8b3          	or	x17,x11,x18
    2468:	00f8a023          	sw	x15,0(x17) # 231c0000 <.L429+0x231bd678>
    246c:	fe8612e3          	bne	x12,x8,2450 <.L412>
    2470:	eacff06f          	j	1b1c <.L414>

00002474 <.L403>:
    2474:	02812f03          	lw	x30,40(x2)

00002478 <.L405>:
    2478:	000f4083          	lbu	x1,0(x30)
    247c:	001f0f13          	addi	x30,x30,1
    2480:	0ff0f593          	andi	x11,x1,255
    2484:	fe0588e3          	beqz	x11,2474 <.L403>
    2488:	ffe298e3          	bne	x5,x30,2478 <.L405>
    248c:	000a8c23          	sb	x0,24(x21)
    2490:	000a8ca3          	sb	x0,25(x21)
    2494:	000a8d23          	sb	x0,26(x21)
    2498:	000a8da3          	sb	x0,27(x21)
    249c:	000a8e23          	sb	x0,28(x21)
    24a0:	000a8ea3          	sb	x0,29(x21)
    24a4:	000a8f23          	sb	x0,30(x21)
    24a8:	000a8fa3          	sb	x0,31(x21)
    24ac:	000aaa23          	sw	x0,20(x21)
    24b0:	00000613          	li	x12,0
    24b4:	080008b7          	lui	x17,0x8000
    24b8:	00030f13          	mv	x30,x6

000024bc <.L407>:
    24bc:	012f1693          	slli	x13,x30,0x12
    24c0:	03fc0337          	lui	x6,0x3fc0
    24c4:	00c76e33          	or	x28,x14,x12
    24c8:	0066f533          	and	x10,x13,x6
    24cc:	01c56eb3          	or	x29,x10,x28
    24d0:	012ee833          	or	x16,x29,x18
    24d4:	010000b7          	lui	x1,0x1000
    24d8:	00f82023          	sw	x15,0(x16)
    24dc:	00160633          	add	x12,x12,x1
    24e0:	000c2f03          	lw	x30,0(x24)
    24e4:	fd161ce3          	bne	x12,x17,24bc <.L407>
    24e8:	00700593          	li	x11,7
    24ec:	f2bf0ce3          	beq	x30,x11,2424 <.L404>
    24f0:	e2cff06f          	j	1b1c <.L414>

000024f4 <.L302>:
    24f4:	11012883          	lw	x17,272(x2)
    24f8:	0008ae03          	lw	x28,0(x17) # 8000000 <.L429+0x7ffd678>
    24fc:	03c38eb3          	mul	x29,x7,x28
    2500:	002e9f13          	slli	x30,x29,0x2
    2504:	01e80333          	add	x6,x16,x30
    2508:	ff0ff06f          	j	1cf8 <.L303>

0000250c <.L293>:
    250c:	0d812503          	lw	x10,216(x2)
    2510:	00052603          	lw	x12,0(x10)
    2514:	02c38833          	mul	x16,x7,x12
    2518:	00281893          	slli	x17,x16,0x2
    251c:	01108e33          	add	x28,x1,x17
    2520:	9e0ff06f          	j	1700 <.L294>

00002524 <.L289>:
    2524:	0bc12803          	lw	x16,188(x2)
    2528:	0d012683          	lw	x13,208(x2)
    252c:	00082883          	lw	x17,0(x16)
    2530:	03138e33          	mul	x28,x7,x17
    2534:	002e1e93          	slli	x29,x28,0x2
    2538:	01d60f33          	add	x30,x12,x29
    253c:	9ad3e863          	bltu	x7,x13,16ec <.L291>

00002540 <.L543>:
    2540:	000000b7          	lui	x1,0x0
    2544:	000006b7          	lui	x13,0x0
    2548:	00008593          	mv	x11,x1
    254c:	08c00613          	li	x12,140
    2550:	00068513          	mv	x10,x13
    2554:	00038493          	mv	x9,x7
    2558:	00000097          	auipc	x1,0x0
    255c:	000080e7          	jalr	x1 # 2558 <.L543+0x18>
    2560:	0d012583          	lw	x11,208(x2)
    2564:	000002b7          	lui	x5,0x0
    2568:	00048613          	mv	x12,x9
    256c:	00028513          	mv	x10,x5
    2570:	00000097          	auipc	x1,0x0
    2574:	000080e7          	jalr	x1 # 2570 <.L543+0x30>
    2578:	000ca783          	lw	x15,0(x25)
    257c:	000c2703          	lw	x14,0(x24)
    2580:	4100fa37          	lui	x20,0x4100f
    2584:	01079913          	slli	x18,x15,0x10
    2588:	00e909b3          	add	x19,x18,x14
    258c:	ad3a2c23          	sw	x19,-1320(x20) # 4100ead8 <.L429+0x4100c150>

00002590 <.L292>:
    2590:	0000006f          	j	2590 <.L292>

00002594 <.L298>:
    2594:	0f412e83          	lw	x29,244(x2)
    2598:	10812603          	lw	x12,264(x2)
    259c:	000eaf03          	lw	x30,0(x29)
    25a0:	03e38333          	mul	x6,x7,x30
    25a4:	00231693          	slli	x13,x6,0x2
    25a8:	00de00b3          	add	x1,x28,x13
    25ac:	f2c3ec63          	bltu	x7,x12,1ce4 <.L300>

000025b0 <.L557>:
    25b0:	00000fb7          	lui	x31,0x0
    25b4:	00000a37          	lui	x20,0x0
    25b8:	000f8593          	mv	x11,x31
    25bc:	08c00613          	li	x12,140
    25c0:	000a0513          	mv	x10,x20
    25c4:	00038a93          	mv	x21,x7
    25c8:	00000097          	auipc	x1,0x0
    25cc:	000080e7          	jalr	x1 # 25c8 <.L557+0x18>
    25d0:	10812583          	lw	x11,264(x2)
    25d4:	000009b7          	lui	x19,0x0
    25d8:	000a8613          	mv	x12,x21
    25dc:	00098513          	mv	x10,x19
    25e0:	00000097          	auipc	x1,0x0
    25e4:	000080e7          	jalr	x1 # 25e0 <.L557+0x30>
    25e8:	000cac83          	lw	x25,0(x25)
    25ec:	000c2c03          	lw	x24,0(x24)
    25f0:	4100f437          	lui	x8,0x4100f
    25f4:	010c9913          	slli	x18,x25,0x10
    25f8:	018904b3          	add	x9,x18,x24
    25fc:	ac942c23          	sw	x9,-1320(x8) # 4100ead8 <.L429+0x4100c150>

00002600 <.L301>:
    2600:	0000006f          	j	2600 <.L301>

00002604 <.L546>:
    2604:	02c12603          	lw	x12,44(x2)
    2608:	f00006d3          	fmv.w.x	f13,x0
    260c:	00060893          	mv	x17,x12
    2610:	20060093          	addi	x1,x12,512

00002614 <.L329>:
    2614:	0008a387          	flw	f7,0(x17)
    2618:	00488893          	addi	x17,x17,4
    261c:	0076f6d3          	fadd.s	f13,f13,f7
    2620:	ff109ae3          	bne	x1,x17,2614 <.L329>
    2624:	02c12303          	lw	x6,44(x2)
    2628:	00d32027          	fsw	f13,0(x6) # 3fc0000 <.L429+0x3fbd678>
    262c:	a24ff06f          	j	1850 <.L328>

00002630 <.L550>:
    2630:	02c12603          	lw	x12,44(x2)
    2634:	f0000fd3          	fmv.w.x	f31,x0
    2638:	00060693          	mv	x13,x12
    263c:	20060593          	addi	x11,x12,512

00002640 <.L382>:
    2640:	0006af07          	flw	f30,0(x13) # 0 <tensorlib_batch_norm2d_transform_input>
    2644:	00468693          	addi	x13,x13,4
    2648:	01efffd3          	fadd.s	f31,f31,f30
    264c:	feb69ae3          	bne	x13,x11,2640 <.L382>
    2650:	02c12083          	lw	x1,44(x2)
    2654:	01f0a027          	fsw	f31,0(x1)
    2658:	c34ff06f          	j	1a8c <.L381>

0000265c <.L553>:
    265c:	03412e83          	lw	x29,52(x2)
    2660:	ffd00f13          	li	x30,-3
    2664:	dfdf6c63          	bltu	x30,x29,1c5c <.L415>
    2668:	03c12583          	lw	x11,60(x2)
    266c:	07f0f093          	andi	x1,x1,127
    2670:	03812803          	lw	x16,56(x2)
    2674:	02b088b3          	mul	x17,x1,x11
    2678:	01158333          	add	x6,x11,x17
    267c:	22686663          	bltu	x16,x6,28a8 <.L569>

00002680 <.L418>:
    2680:	dc68fe63          	bgeu	x17,x6,1c5c <.L415>
    2684:	16012603          	lw	x12,352(x2)
    2688:	12c12683          	lw	x13,300(x2)
    268c:	1001f3d3          	fmul.s	f7,f3,f0
    2690:	00462083          	lw	x1,4(x12)
    2694:	0046a503          	lw	x10,4(x13)
    2698:	19412e83          	lw	x29,404(x2)
    269c:	021380b3          	mul	x1,x7,x1
    26a0:	19c12583          	lw	x11,412(x2)
    26a4:	004eae03          	lw	x28,4(x29)
    26a8:	10a3f853          	fmul.s	f16,f7,f10
    26ac:	000ea803          	lw	x16,0(x29)
    26b0:	00b12623          	sw	x11,12(x2)
    26b4:	16812583          	lw	x11,360(x2)
    26b8:	10a5f6d3          	fmul.s	f13,f11,f10
    26bc:	100378d3          	fmul.s	f17,f6,f0
    26c0:	10a87e53          	fmul.s	f28,f16,f10
    26c4:	02a38533          	mul	x10,x7,x10
    26c8:	01012823          	sw	x16,16(x2)
    26cc:	00b12e23          	sw	x11,28(x2)
    26d0:	00062803          	lw	x16,0(x12)
    26d4:	0006a583          	lw	x11,0(x13)
    26d8:	02112223          	sw	x1,36(x2)
    26dc:	00c6a083          	lw	x1,12(x13)
    26e0:	0086a683          	lw	x13,8(x13)
    26e4:	03012023          	sw	x16,32(x2)
    26e8:	04b12623          	sw	x11,76(x2)
    26ec:	03c38f33          	mul	x30,x7,x28
    26f0:	00ceae03          	lw	x28,12(x29)
    26f4:	008eae83          	lw	x29,8(x29)
    26f8:	04112a23          	sw	x1,84(x2)
    26fc:	01c12a23          	sw	x28,20(x2)
    2700:	01d12c23          	sw	x29,24(x2)
    2704:	00c62e03          	lw	x28,12(x12)
    2708:	13412e83          	lw	x29,308(x2)
    270c:	00862603          	lw	x12,8(x12)
    2710:	03c12623          	sw	x28,44(x2)
    2714:	05d12423          	sw	x29,72(x2)
    2718:	04c12023          	sw	x12,64(x2)
    271c:	04d12c23          	sw	x13,88(x2)
    2720:	04a12823          	sw	x10,80(x2)

00002724 <.L420>:
    2724:	03b8d833          	divu	x16,x17,x27
    2728:	01412603          	lw	x12,20(x2)
    272c:	02c12583          	lw	x11,44(x2)
    2730:	03a8de33          	divu	x28,x17,x26
    2734:	03a8f0b3          	remu	x1,x17,x26
    2738:	00188893          	addi	x17,x17,1
    273c:	03687833          	remu	x16,x16,x22
    2740:	037e7533          	remu	x10,x28,x23
    2744:	01012e03          	lw	x28,16(x2)
    2748:	02c08eb3          	mul	x29,x1,x12
    274c:	02412603          	lw	x12,36(x2)
    2750:	02b086b3          	mul	x13,x1,x11
    2754:	01df05b3          	add	x11,x30,x29
    2758:	02012e83          	lw	x29,32(x2)
    275c:	03c80e33          	mul	x28,x16,x28
    2760:	00d606b3          	add	x13,x12,x13
    2764:	03d80633          	mul	x12,x16,x29
    2768:	01c585b3          	add	x11,x11,x28
    276c:	01812e03          	lw	x28,24(x2)
    2770:	04012e83          	lw	x29,64(x2)
    2774:	03c50e33          	mul	x28,x10,x28
    2778:	00c686b3          	add	x13,x13,x12
    277c:	03d50633          	mul	x12,x10,x29
    2780:	01c585b3          	add	x11,x11,x28
    2784:	00c12e03          	lw	x28,12(x2)
    2788:	00259e93          	slli	x29,x11,0x2
    278c:	01de05b3          	add	x11,x28,x29
    2790:	01c12e83          	lw	x29,28(x2)
    2794:	0005ae87          	flw	f29,0(x11)
    2798:	05412583          	lw	x11,84(x2)
    279c:	00c686b3          	add	x13,x13,x12
    27a0:	00269613          	slli	x12,x13,0x2
    27a4:	00ce8e33          	add	x28,x29,x12
    27a8:	000e2f87          	flw	f31,0(x28)
    27ac:	04c12683          	lw	x13,76(x2)
    27b0:	05812e03          	lw	x28,88(x2)
    27b4:	02b080b3          	mul	x1,x1,x11
    27b8:	08ceff53          	fsub.s	f30,f29,f12
    27bc:	091ff5d3          	fsub.s	f11,f31,f17
    27c0:	05012603          	lw	x12,80(x2)
    27c4:	59ee72cb          	fnmsub.s	f5,f28,f30,f11
    27c8:	02d80833          	mul	x16,x16,x13
    27cc:	00160eb3          	add	x29,x12,x1
    27d0:	10d2f7d3          	fmul.s	f15,f5,f13
    27d4:	03c50533          	mul	x10,x10,x28
    27d8:	010e85b3          	add	x11,x29,x16
    27dc:	04812803          	lw	x16,72(x2)
    27e0:	00a580b3          	add	x1,x11,x10
    27e4:	00209693          	slli	x13,x1,0x2
    27e8:	00d80633          	add	x12,x16,x13
    27ec:	00f62027          	fsw	f15,0(x12)
    27f0:	f3131ae3          	bne	x6,x17,2724 <.L420>
    27f4:	c68ff06f          	j	1c5c <.L415>

000027f8 <.L544>:
    27f8:	00000337          	lui	x6,0x0
    27fc:	00000f37          	lui	x30,0x0
    2800:	00030593          	mv	x11,x6
    2804:	08c00613          	li	x12,140
    2808:	000f0513          	mv	x10,x30
    280c:	00038413          	mv	x8,x7
    2810:	00000097          	auipc	x1,0x0
    2814:	000080e7          	jalr	x1 # 2810 <.L544+0x18>
    2818:	09812583          	lw	x11,152(x2)
    281c:	000008b7          	lui	x17,0x0
    2820:	00040613          	mv	x12,x8
    2824:	00088513          	mv	x10,x17
    2828:	00000097          	auipc	x1,0x0
    282c:	000080e7          	jalr	x1 # 2828 <.L544+0x30>
    2830:	000cae83          	lw	x29,0(x25)
    2834:	000c2e03          	lw	x28,0(x24)
    2838:	4100f3b7          	lui	x7,0x4100f
    283c:	010e9513          	slli	x10,x29,0x10
    2840:	01c505b3          	add	x11,x10,x28
    2844:	acb3ac23          	sw	x11,-1320(x7) # 4100ead8 <.L429+0x4100c150>

00002848 <.L306>:
    2848:	0000006f          	j	2848 <.L306>

0000284c <.L554>:
    284c:	0fe3f663          	bgeu	x7,x30,2938 <.L570>
    2850:	06412883          	lw	x17,100(x2)
    2854:	07012e83          	lw	x29,112(x2)
    2858:	0af88663          	beq	x17,x15,2904 <.L430>
    285c:	00239813          	slli	x16,x7,0x2
    2860:	010e86b3          	add	x13,x29,x16

00002864 <.L431>:
    2864:	10a1f1d3          	fmul.s	f3,f3,f10
    2868:	0036a027          	fsw	f3,0(x13)
    286c:	c00ff06f          	j	1c6c <.L427>

00002870 <.L307>:
    2870:	0a012583          	lw	x11,160(x2)
    2874:	0005a083          	lw	x1,0(x11)
    2878:	02138533          	mul	x10,x7,x1
    287c:	00251613          	slli	x12,x10,0x2
    2880:	00c68833          	add	x16,x13,x12
    2884:	eadfe06f          	j	1730 <.L308>

00002888 <.L555>:
    2888:	02c3f463          	bgeu	x7,x12,28b0 <.L571>
    288c:	08012303          	lw	x6,128(x2)
    2890:	08c12f03          	lw	x30,140(x2)
    2894:	08f30463          	beq	x6,x15,291c <.L435>
    2898:	00239093          	slli	x1,x7,0x2
    289c:	001f05b3          	add	x11,x30,x1
    28a0:	0065a027          	fsw	f6,0(x11)
    28a4:	bd0ff06f          	j	1c74 <.L426>

000028a8 <.L569>:
    28a8:	00080313          	mv	x6,x16
    28ac:	dd5ff06f          	j	2680 <.L418>

000028b0 <.L571>:
    28b0:	000002b7          	lui	x5,0x0
    28b4:	000004b7          	lui	x9,0x0
    28b8:	00028593          	mv	x11,x5
    28bc:	08c00613          	li	x12,140
    28c0:	00048513          	mv	x10,x9
    28c4:	00038413          	mv	x8,x7
    28c8:	00000097          	auipc	x1,0x0
    28cc:	000080e7          	jalr	x1 # 28c8 <.L571+0x18>
    28d0:	07c12583          	lw	x11,124(x2)
    28d4:	00000737          	lui	x14,0x0
    28d8:	00040613          	mv	x12,x8
    28dc:	00070513          	mv	x10,x14
    28e0:	00000097          	auipc	x1,0x0
    28e4:	000080e7          	jalr	x1 # 28e0 <.L571+0x30>
    28e8:	000ca783          	lw	x15,0(x25)
    28ec:	000c2903          	lw	x18,0(x24)
    28f0:	4100fab7          	lui	x21,0x4100f
    28f4:	01079993          	slli	x19,x15,0x10
    28f8:	01298a33          	add	x20,x19,x18
    28fc:	ad4aac23          	sw	x20,-1320(x21) # 4100ead8 <.L429+0x4100c150>

00002900 <.L434>:
    2900:	0000006f          	j	2900 <.L434>

00002904 <.L430>:
    2904:	06812e03          	lw	x28,104(x2)
    2908:	000e2503          	lw	x10,0(x28)
    290c:	02a385b3          	mul	x11,x7,x10
    2910:	00259093          	slli	x1,x11,0x2
    2914:	001e86b3          	add	x13,x29,x1
    2918:	f4dff06f          	j	2864 <.L431>

0000291c <.L435>:
    291c:	08412883          	lw	x17,132(x2)
    2920:	0008ae83          	lw	x29,0(x17) # 0 <tensorlib_batch_norm2d_transform_input>
    2924:	03d38e33          	mul	x28,x7,x29
    2928:	002e1513          	slli	x10,x28,0x2
    292c:	00af05b3          	add	x11,x30,x10
    2930:	0065a027          	fsw	f6,0(x11)
    2934:	b40ff06f          	j	1c74 <.L426>

00002938 <.L570>:
    2938:	00000bb7          	lui	x23,0x0
    293c:	00000d37          	lui	x26,0x0
    2940:	000b8593          	mv	x11,x23
    2944:	08c00613          	li	x12,140
    2948:	000d0513          	mv	x10,x26
    294c:	00038b13          	mv	x22,x7
    2950:	00000097          	auipc	x1,0x0
    2954:	000080e7          	jalr	x1 # 2950 <.L570+0x18>
    2958:	06012583          	lw	x11,96(x2)
    295c:	00000db7          	lui	x27,0x0
    2960:	000b0613          	mv	x12,x22
    2964:	000d8513          	mv	x10,x27
    2968:	00000097          	auipc	x1,0x0
    296c:	000080e7          	jalr	x1 # 2968 <.L570+0x30>
    2970:	000cac83          	lw	x25,0(x25)
    2974:	000c2c03          	lw	x24,0(x24)
    2978:	4100f637          	lui	x12,0x4100f
    297c:	010c9f93          	slli	x31,x25,0x10
    2980:	018f8833          	add	x16,x31,x24
    2984:	ad062c23          	sw	x16,-1320(x12) # 4100ead8 <.L429+0x4100c150>

00002988 <.L429>:
    2988:	0000006f          	j	2988 <.L429>

Disassembly of section .text._ZN8HBTensorIfLl4EEC2EP11hb_tensor_t:

00000000 <_ZN8HBTensorIfLl4EEC1EP11hb_tensor_t>:
   0:	00058713          	mv	x14,x11
   4:	00072803          	lw	x16,0(x14) # 0 <_ZN8HBTensorIfLl4EEC1EP11hb_tensor_t>
   8:	0105a583          	lw	x11,16(x11)
   c:	00050793          	mv	x15,x10
  10:	02450693          	addi	x13,x10,36 # 18024 <.L429+0x1569c>
  14:	00400613          	li	x12,4
  18:	01450513          	addi	x10,x10,20
  1c:	0107a023          	sw	x16,0(x15) # 0 <_ZN8HBTensorIfLl4EEC1EP11hb_tensor_t>
  20:	00c7a223          	sw	x12,4(x15)
  24:	00a7a423          	sw	x10,8(x15)
  28:	00d7a623          	sw	x13,12(x15)
  2c:	00b7a823          	sw	x11,16(x15)
  30:	00068693          	mv	x13,x13
  34:	00472283          	lw	x5,4(x14)
  38:	04c29063          	bne	x5,x12,78 <.L10>
  3c:	00872303          	lw	x6,8(x14)
  40:	00c72383          	lw	x7,12(x14)
  44:	01078893          	addi	x17,x15,16
  48:	00078713          	mv	x14,x15
  4c:	40f30e33          	sub	x28,x6,x15
  50:	40f38eb3          	sub	x29,x7,x15

00000054 <.L4>:
  54:	00ee0f33          	add	x30,x28,x14
  58:	000f2f83          	lw	x31,0(x30) # 0 <_ZN8HBTensorIfLl4EEC1EP11hb_tensor_t>
  5c:	00ee85b3          	add	x11,x29,x14
  60:	00470713          	addi	x14,x14,4
  64:	01f72823          	sw	x31,16(x14)
  68:	0005a803          	lw	x16,0(x11)
  6c:	03072023          	sw	x16,32(x14)
  70:	ff1712e3          	bne	x14,x17,54 <.L4>
  74:	00008067          	ret

00000078 <.L10>:
  78:	ff010113          	addi	x2,x2,-16
  7c:	000007b7          	lui	x15,0x0
  80:	00112623          	sw	x1,12(x2)
  84:	000000b7          	lui	x1,0x0
  88:	0ba00613          	li	x12,186
  8c:	00008593          	mv	x11,x1
  90:	00078513          	mv	x10,x15
  94:	00000097          	auipc	x1,0x0
  98:	000080e7          	jalr	x1 # 94 <.L10+0x1c>
  9c:	000006b7          	lui	x13,0x0
  a0:	00068513          	mv	x10,x13
  a4:	00000097          	auipc	x1,0x0
  a8:	000080e7          	jalr	x1 # a4 <.L10+0x2c>
  ac:	00000637          	lui	x12,0x0
  b0:	00062503          	lw	x10,0(x12) # 0 <_ZN8HBTensorIfLl4EEC1EP11hb_tensor_t>
  b4:	000002b7          	lui	x5,0x0
  b8:	0002a303          	lw	x6,0(x5) # 0 <_ZN8HBTensorIfLl4EEC1EP11hb_tensor_t>
  bc:	01051393          	slli	x7,x10,0x10
  c0:	4100fe37          	lui	x28,0x4100f
  c4:	006388b3          	add	x17,x7,x6
  c8:	ad1e2c23          	sw	x17,-1320(x28) # 4100ead8 <.L429+0x4100c150>

000000cc <.L3>:
  cc:	0000006f          	j	cc <.L3>

Disassembly of section .text._ZN8HBTensorIfLl1EEC2EP11hb_tensor_t:

00000000 <_ZN8HBTensorIfLl1EEC1EP11hb_tensor_t>:
   0:	00058713          	mv	x14,x11
   4:	00072803          	lw	x16,0(x14)
   8:	0105a583          	lw	x11,16(x11)
   c:	00050793          	mv	x15,x10
  10:	01850693          	addi	x13,x10,24
  14:	00100613          	li	x12,1
  18:	01450513          	addi	x10,x10,20
  1c:	0107a023          	sw	x16,0(x15) # 0 <_ZN8HBTensorIfLl1EEC1EP11hb_tensor_t>
  20:	00c7a223          	sw	x12,4(x15)
  24:	00a7a423          	sw	x10,8(x15)
  28:	00d7a623          	sw	x13,12(x15)
  2c:	00b7a823          	sw	x11,16(x15)
  30:	00068693          	mv	x13,x13
  34:	00472283          	lw	x5,4(x14)
  38:	04c28e63          	beq	x5,x12,94 <.L12>
  3c:	ff010113          	addi	x2,x2,-16
  40:	00000eb7          	lui	x29,0x0
  44:	00112623          	sw	x1,12(x2)
  48:	000000b7          	lui	x1,0x0
  4c:	0ba00613          	li	x12,186
  50:	00008593          	mv	x11,x1
  54:	000e8513          	mv	x10,x29
  58:	00000097          	auipc	x1,0x0
  5c:	000080e7          	jalr	x1 # 58 <_ZN8HBTensorIfLl1EEC1EP11hb_tensor_t+0x58>
  60:	00000f37          	lui	x30,0x0
  64:	000f0513          	mv	x10,x30
  68:	00000097          	auipc	x1,0x0
  6c:	000080e7          	jalr	x1 # 68 <_ZN8HBTensorIfLl1EEC1EP11hb_tensor_t+0x68>
  70:	00000fb7          	lui	x31,0x0
  74:	000fa583          	lw	x11,0(x31) # 0 <_ZN8HBTensorIfLl1EEC1EP11hb_tensor_t>
  78:	00000737          	lui	x14,0x0
  7c:	00072803          	lw	x16,0(x14) # 0 <_ZN8HBTensorIfLl1EEC1EP11hb_tensor_t>
  80:	01059793          	slli	x15,x11,0x10
  84:	4100f637          	lui	x12,0x4100f
  88:	010786b3          	add	x13,x15,x16
  8c:	acd62c23          	sw	x13,-1320(x12) # 4100ead8 <.L429+0x4100c150>

00000090 <.L13>:
  90:	0000006f          	j	90 <.L13>

00000094 <.L12>:
  94:	00872303          	lw	x6,8(x14)
  98:	00c72383          	lw	x7,12(x14)
  9c:	00032883          	lw	x17,0(x6) # ffffb000 <.L429+0xffff8678>
  a0:	0117aa23          	sw	x17,20(x15)
  a4:	0003ae03          	lw	x28,0(x7)
  a8:	01c7ac23          	sw	x28,24(x15)
  ac:	00008067          	ret

Disassembly of section .srodata.cst4:

00000000 <.LC3>:
   0:	0000                	unimp
   2:	3f80                	fld	f8,56(x15)
