
kernel_mul_div.o:     file format elf32-littleriscv


Disassembly of section .group:

00000000 <_ZN8HBTensorIfLln1EEC5EP11hb_tensor_t>:
   0:	0001                	nop
   2:	0000                	unimp
   4:	00000007          	0x7
   8:	0008                	0x8
	...

Disassembly of section .text:

00000000 <tensorlib_mul>:
   0:	ef010113          	addi	x2,x2,-272
   4:	00050793          	mv	x15,x10
   8:	10912223          	sw	x9,260(x2)
   c:	01c10513          	addi	x10,x2,28
  10:	00058493          	mv	x9,x11
  14:	00078593          	mv	x11,x15
  18:	10112623          	sw	x1,268(x2)
  1c:	10812423          	sw	x8,264(x2)
  20:	11212023          	sw	x18,256(x2)
  24:	00060413          	mv	x8,x12
  28:	0f312e23          	sw	x19,252(x2)
  2c:	0f412c23          	sw	x20,248(x2)
  30:	0f512a23          	sw	x21,244(x2)
  34:	0f612823          	sw	x22,240(x2)
  38:	0f712623          	sw	x23,236(x2)
  3c:	0f812423          	sw	x24,232(x2)
  40:	0f912223          	sw	x25,228(x2)
  44:	0fa12023          	sw	x26,224(x2)
  48:	0db12e23          	sw	x27,220(x2)
  4c:	00000097          	auipc	x1,0x0
  50:	000080e7          	jalr	x1 # 4c <tensorlib_mul+0x4c>
  54:	00048593          	mv	x11,x9
  58:	05810513          	addi	x10,x2,88
  5c:	00000097          	auipc	x1,0x0
  60:	000080e7          	jalr	x1 # 5c <tensorlib_mul+0x5c>
  64:	00040593          	mv	x11,x8
  68:	09410513          	addi	x10,x2,148
  6c:	00000097          	auipc	x1,0x0
  70:	000080e7          	jalr	x1 # 6c <tensorlib_mul+0x6c>
  74:	00000a37          	lui	x20,0x0
  78:	00000337          	lui	x6,0x0
  7c:	000009b7          	lui	x19,0x0
  80:	00000e37          	lui	x28,0x0
  84:	000a2283          	lw	x5,0(x20) # 0 <tensorlib_mul>
  88:	00032583          	lw	x11,0(x6) # 0 <tensorlib_mul>
  8c:	0009a703          	lw	x14,0(x19) # 0 <tensorlib_mul>
  90:	000e2603          	lw	x12,0(x28) # 0 <tensorlib_mul>
  94:	00000937          	lui	x18,0x0
  98:	00092683          	lw	x13,0(x18) # 0 <tensorlib_mul>
  9c:	00b283b3          	add	x7,x5,x11
  a0:	00c70533          	add	x10,x14,x12
  a4:	01251893          	slli	x17,x10,0x12
  a8:	01839813          	slli	x16,x7,0x18
  ac:	3f000ab7          	lui	x21,0x3f000
  b0:	00fc0bb7          	lui	x23,0xfc0
  b4:	00040db7          	lui	x27,0x40
  b8:	0178fc33          	and	x24,x17,x23
  bc:	01587b33          	and	x22,x16,x21
  c0:	00469c93          	slli	x25,x13,0x4
  c4:	ff0d8e93          	addi	x29,x27,-16 # 3fff0 <.L181+0x3f1d4>
  c8:	01dcff33          	and	x30,x25,x29
  cc:	018b6d33          	or	x26,x22,x24
  d0:	01ed6fb3          	or	x31,x26,x30
  d4:	01c12483          	lw	x9,28(x2)
  d8:	800007b7          	lui	x15,0x80000
  dc:	00ffe433          	or	x8,x31,x15
  e0:	410012b7          	lui	x5,0x41001
  e4:	d082a623          	sw	x8,-756(x5) # 41000d0c <.L181+0x40fffef0>
  e8:	fff00713          	li	x14,-1
  ec:	02012583          	lw	x11,32(x2)
  f0:	02412383          	lw	x7,36(x2)
  f4:	02c12f03          	lw	x30,44(x2)
  f8:	06012883          	lw	x17,96(x2)
  fc:	06812f83          	lw	x31,104(x2)
 100:	09c12503          	lw	x10,156(x2)
 104:	0a412283          	lw	x5,164(x2)
 108:	14e48263          	beq	x9,x14,24c <.L21>
 10c:	14048063          	beqz	x9,24c <.L21>
 110:	000000b7          	lui	x1,0x0
 114:	0000a603          	lw	x12,0(x1) # 0 <tensorlib_mul>
 118:	0044d693          	srli	x13,x9,0x4
 11c:	00168813          	addi	x16,x13,1
 120:	02c807b3          	mul	x15,x16,x12
 124:	00f80eb3          	add	x29,x16,x15
 128:	39d4ea63          	bltu	x9,x29,4bc <.L92>

0000012c <.L17>:
 12c:	13d7f063          	bgeu	x15,x29,24c <.L21>
 130:	00100a93          	li	x21,1
 134:	39558863          	beq	x11,x21,4c4 <.L93>
 138:	09812b03          	lw	x22,152(x2)
 13c:	05c12b83          	lw	x23,92(x2)
 140:	0a012483          	lw	x9,160(x2)
 144:	02812403          	lw	x8,40(x2)
 148:	06412083          	lw	x1,100(x2)
 14c:	002b1c93          	slli	x25,x22,0x2
 150:	00259d13          	slli	x26,x11,0x2
 154:	002b9c13          	slli	x24,x23,0x2
 158:	009c8db3          	add	x27,x25,x9
 15c:	008d0733          	add	x14,x26,x8
 160:	001c0833          	add	x16,x24,x1
 164:	01b12423          	sw	x27,8(x2)
 168:	00e12623          	sw	x14,12(x2)

0000016c <.L36>:
 16c:	340b8463          	beqz	x23,4b4 <.L58>
 170:	00088c13          	mv	x24,x17
 174:	00008693          	mv	x13,x1
 178:	00078613          	mv	x12,x15
 17c:	00000713          	li	x14,0

00000180 <.L31>:
 180:	0006aa83          	lw	x21,0(x13)
 184:	000c2d03          	lw	x26,0(x24)
 188:	00468693          	addi	x13,x13,4
 18c:	03567cb3          	remu	x25,x12,x21
 190:	004c0c13          	addi	x24,x24,4
 194:	03ac8db3          	mul	x27,x25,x26
 198:	03565633          	divu	x12,x12,x21
 19c:	01b70733          	add	x14,x14,x27
 1a0:	fed810e3          	bne	x16,x13,180 <.L31>
 1a4:	00271a93          	slli	x21,x14,0x2
 1a8:	015f8633          	add	x12,x31,x21

000001ac <.L30>:
 1ac:	00062787          	flw	f15,0(x12)
 1b0:	2e0b0e63          	beqz	x22,4ac <.L59>
 1b4:	00050c13          	mv	x24,x10
 1b8:	00048693          	mv	x13,x9
 1bc:	00078613          	mv	x12,x15
 1c0:	00000713          	li	x14,0

000001c4 <.L33>:
 1c4:	0006aa83          	lw	x21,0(x13)
 1c8:	000c2d83          	lw	x27,0(x24)
 1cc:	00468693          	addi	x13,x13,4
 1d0:	004c0c13          	addi	x24,x24,4
 1d4:	03567cb3          	remu	x25,x12,x21
 1d8:	03bc8d33          	mul	x26,x25,x27
 1dc:	03565633          	divu	x12,x12,x21
 1e0:	00812a83          	lw	x21,8(x2)
 1e4:	01a70733          	add	x14,x14,x26
 1e8:	fcda9ee3          	bne	x21,x13,1c4 <.L33>
 1ec:	00271d93          	slli	x27,x14,0x2
 1f0:	01b28d33          	add	x26,x5,x27

000001f4 <.L32>:
 1f4:	000d2707          	flw	f14,0(x26)
 1f8:	10e7f053          	fmul.s	f0,f15,f14
 1fc:	2a058463          	beqz	x11,4a4 <.L60>
 200:	00038c13          	mv	x24,x7
 204:	00040d93          	mv	x27,x8
 208:	00078613          	mv	x12,x15
 20c:	00000713          	li	x14,0

00000210 <.L35>:
 210:	000dad03          	lw	x26,0(x27)
 214:	000c2a83          	lw	x21,0(x24)
 218:	004d8d93          	addi	x27,x27,4
 21c:	004c0c13          	addi	x24,x24,4
 220:	03a67cb3          	remu	x25,x12,x26
 224:	035c86b3          	mul	x13,x25,x21
 228:	03a65633          	divu	x12,x12,x26
 22c:	00c12d03          	lw	x26,12(x2)
 230:	00d70733          	add	x14,x14,x13
 234:	fdbd1ee3          	bne	x26,x27,210 <.L35>
 238:	00271a93          	slli	x21,x14,0x2
 23c:	015f06b3          	add	x13,x30,x21

00000240 <.L34>:
 240:	0006a027          	fsw	f0,0(x13)
 244:	00178793          	addi	x15,x15,1 # 80000001 <.L181+0x7ffff1e5>
 248:	f2fe92e3          	bne	x29,x15,16c <.L36>

0000024c <.L21>:
 24c:	000a2e83          	lw	x29,0(x20)
 250:	0009a983          	lw	x19,0(x19)
 254:	00032a03          	lw	x20,0(x6)
 258:	000e2083          	lw	x1,0(x28)
 25c:	00092903          	lw	x18,0(x18)
 260:	014e87b3          	add	x15,x29,x20
 264:	00198d33          	add	x26,x19,x1
 268:	01879413          	slli	x8,x15,0x18
 26c:	012d1713          	slli	x14,x26,0x12
 270:	3f0004b7          	lui	x9,0x3f000
 274:	00fc05b7          	lui	x11,0xfc0
 278:	000403b7          	lui	x7,0x40
 27c:	00947533          	and	x10,x8,x9
 280:	00491c93          	slli	x25,x18,0x4
 284:	00b77633          	and	x12,x14,x11
 288:	ff038b13          	addi	x22,x7,-16 # 3fff0 <.L181+0x3f1d4>
 28c:	00c56bb3          	or	x23,x10,x12
 290:	016cfab3          	and	x21,x25,x22
 294:	015be6b3          	or	x13,x23,x21
 298:	c0000db7          	lui	x27,0xc0000
 29c:	01b6e833          	or	x16,x13,x27
 2a0:	410018b7          	lui	x17,0x41001
 2a4:	d108a623          	sw	x16,-756(x17) # 41000d0c <.L181+0x40fffef0>
 2a8:	000e2c03          	lw	x24,0(x28)
 2ac:	00032f83          	lw	x31,0(x6)
 2b0:	000002b7          	lui	x5,0x0
 2b4:	004c0f13          	addi	x30,x24,4
 2b8:	00028793          	mv	x15,x5
 2bc:	01e78eb3          	add	x29,x15,x30
 2c0:	018f9a13          	slli	x20,x31,0x18
 2c4:	014ee9b3          	or	x19,x29,x20
 2c8:	200400b7          	lui	x1,0x20040
 2cc:	0019e933          	or	x18,x19,x1
 2d0:	00100d13          	li	x26,1
 2d4:	01a90023          	sb	x26,0(x18)
 2d8:	000e2403          	lw	x8,0(x28)
 2dc:	07a40463          	beq	x8,x26,344 <.L38>

000002e0 <.L50>:
 2e0:	00100313          	li	x6,1
 2e4:	0100006f          	j	2f4 <.L54>

000002e8 <.L94>:
 2e8:	00028393          	mv	x7,x5
 2ec:	1403a72f          	lr.w.aq	x14,(x7)
 2f0:	00670863          	beq	x14,x6,300 <.L53>

000002f4 <.L54>:
 2f4:	00028513          	mv	x10,x5
 2f8:	10052baf          	lr.w	x23,(x10)
 2fc:	fe6b96e3          	bne	x23,x6,2e8 <.L94>

00000300 <.L53>:
 300:	10c12083          	lw	x1,268(x2)
 304:	10812403          	lw	x8,264(x2)
 308:	0007a023          	sw	x0,0(x15)
 30c:	10412483          	lw	x9,260(x2)
 310:	10012903          	lw	x18,256(x2)
 314:	0fc12983          	lw	x19,252(x2)
 318:	0f812a03          	lw	x20,248(x2)
 31c:	0f412a83          	lw	x21,244(x2)
 320:	0f012b03          	lw	x22,240(x2)
 324:	0ec12b83          	lw	x23,236(x2)
 328:	0e812c03          	lw	x24,232(x2)
 32c:	0e412c83          	lw	x25,228(x2)
 330:	0e012d03          	lw	x26,224(x2)
 334:	0dc12d83          	lw	x27,220(x2)
 338:	00000513          	li	x10,0
 33c:	11010113          	addi	x2,x2,272
 340:	00008067          	ret

00000344 <.L38>:
 344:	0047c703          	lbu	x14,4(x15)
 348:	0ff77493          	andi	x9,x14,255
 34c:	fe048ce3          	beqz	x9,344 <.L38>
 350:	0057c503          	lbu	x10,5(x15)
 354:	0ff57593          	andi	x11,x10,255
 358:	fe0586e3          	beqz	x11,344 <.L38>
 35c:	0067c603          	lbu	x12,6(x15)
 360:	0ff67c93          	andi	x25,x12,255
 364:	fe0c80e3          	beqz	x25,344 <.L38>
 368:	0077cb83          	lbu	x23,7(x15)
 36c:	0ffbf393          	andi	x7,x23,255
 370:	fc038ae3          	beqz	x7,344 <.L38>
 374:	00032b03          	lw	x22,0(x6)
 378:	21040837          	lui	x16,0x21040
 37c:	00100a93          	li	x21,1
 380:	00cb0693          	addi	x13,x22,12
 384:	00d78db3          	add	x27,x15,x13
 388:	010de8b3          	or	x17,x27,x16
 38c:	01588023          	sb	x21,0(x17)
 390:	000e2c03          	lw	x24,0(x28)
 394:	f55c16e3          	bne	x24,x21,2e0 <.L50>
 398:	00032803          	lw	x16,0(x6)
 39c:	07880c63          	beq	x16,x24,414 <.L44>

000003a0 <.L49>:
 3a0:	00100e13          	li	x28,1
 3a4:	0100006f          	j	3b4 <.L43>

000003a8 <.L95>:
 3a8:	00878f93          	addi	x31,x15,8
 3ac:	140faf2f          	lr.w.aq	x30,(x31)
 3b0:	01cf0863          	beq	x30,x28,3c0 <.L51>

000003b4 <.L43>:
 3b4:	00878893          	addi	x17,x15,8
 3b8:	1008ac2f          	lr.w	x24,(x17)
 3bc:	ffcc16e3          	bne	x24,x28,3a8 <.L95>

000003c0 <.L51>:
 3c0:	0007a423          	sw	x0,8(x15)
 3c4:	00078223          	sb	x0,4(x15)
 3c8:	000782a3          	sb	x0,5(x15)
 3cc:	00078323          	sb	x0,6(x15)
 3d0:	000783a3          	sb	x0,7(x15)
 3d4:	0007a023          	sw	x0,0(x15)
 3d8:	00000413          	li	x8,0
 3dc:	00028793          	mv	x15,x5
 3e0:	20000eb7          	lui	x29,0x20000
 3e4:	00100a13          	li	x20,1
 3e8:	000409b7          	lui	x19,0x40
 3ec:	001000b7          	lui	x1,0x100

000003f0 <.L52>:
 3f0:	00032903          	lw	x18,0(x6)
 3f4:	0087ed33          	or	x26,x15,x8
 3f8:	01340433          	add	x8,x8,x19
 3fc:	01891493          	slli	x9,x18,0x18
 400:	01a4e633          	or	x12,x9,x26
 404:	01d66cb3          	or	x25,x12,x29
 408:	014ca023          	sw	x20,0(x25)
 40c:	fe1412e3          	bne	x8,x1,3f0 <.L52>
 410:	ed1ff06f          	j	2e0 <.L50>

00000414 <.L44>:
 414:	00c7cf83          	lbu	x31,12(x15)
 418:	0fffff13          	andi	x30,x31,255
 41c:	fe0f0ce3          	beqz	x30,414 <.L44>
 420:	00d7ce83          	lbu	x29,13(x15)
 424:	0ffefa13          	andi	x20,x29,255
 428:	fe0a06e3          	beqz	x20,414 <.L44>
 42c:	00e7c983          	lbu	x19,14(x15)
 430:	0ff9f093          	andi	x1,x19,255
 434:	fe0080e3          	beqz	x1,414 <.L44>
 438:	00f7c903          	lbu	x18,15(x15)
 43c:	0ff97d13          	andi	x26,x18,255
 440:	fc0d0ae3          	beqz	x26,414 <.L44>
 444:	00078623          	sb	x0,12(x15)
 448:	000786a3          	sb	x0,13(x15)
 44c:	00078723          	sb	x0,14(x15)
 450:	000787a3          	sb	x0,15(x15)
 454:	00000437          	lui	x8,0x0
 458:	0007a423          	sw	x0,8(x15)
 45c:	00000593          	li	x11,0
 460:	00840493          	addi	x9,x8,8 # 8 <tensorlib_mul+0x8>
 464:	03fc0637          	lui	x12,0x3fc0
 468:	20000cb7          	lui	x25,0x20000
 46c:	00100513          	li	x10,1
 470:	01000bb7          	lui	x23,0x1000
 474:	040003b7          	lui	x7,0x4000

00000478 <.L48>:
 478:	01281713          	slli	x14,x16,0x12
 47c:	00b4eb33          	or	x22,x9,x11
 480:	00c77ab3          	and	x21,x14,x12
 484:	016ae6b3          	or	x13,x21,x22
 488:	0196edb3          	or	x27,x13,x25
 48c:	00ada023          	sw	x10,0(x27) # c0000000 <.L181+0xbffff1e4>
 490:	017585b3          	add	x11,x11,x23
 494:	000e2803          	lw	x16,0(x28)
 498:	fe7590e3          	bne	x11,x7,478 <.L48>
 49c:	f0a802e3          	beq	x16,x10,3a0 <.L49>
 4a0:	e41ff06f          	j	2e0 <.L50>

000004a4 <.L60>:
 4a4:	000f0693          	mv	x13,x30
 4a8:	d99ff06f          	j	240 <.L34>

000004ac <.L59>:
 4ac:	00028d13          	mv	x26,x5
 4b0:	d45ff06f          	j	1f4 <.L32>

000004b4 <.L58>:
 4b4:	000f8613          	mv	x12,x31
 4b8:	cf5ff06f          	j	1ac <.L30>

000004bc <.L92>:
 4bc:	00048e93          	mv	x29,x9
 4c0:	c6dff06f          	j	12c <.L17>

000004c4 <.L93>:
 4c4:	00878093          	addi	x1,x15,8
 4c8:	0003a803          	lw	x16,0(x7) # 4000000 <.L181+0x3fff1e4>
 4cc:	00052683          	lw	x13,0(x10)
 4d0:	0008a383          	lw	x7,0(x17)
 4d4:	25d0fa63          	bgeu	x1,x29,728 <.L96>
 4d8:	00369513          	slli	x10,x13,0x3
 4dc:	00381893          	slli	x17,x16,0x3
 4e0:	40d50b33          	sub	x22,x10,x13
 4e4:	41088db3          	sub	x27,x17,x16
 4e8:	00339593          	slli	x11,x7,0x3
 4ec:	002b1413          	slli	x8,x22,0x2
 4f0:	002d9713          	slli	x14,x27,0x2
 4f4:	40758bb3          	sub	x23,x11,x7
 4f8:	40700cb3          	neg	x25,x7
 4fc:	40d00c33          	neg	x24,x13
 500:	41000633          	neg	x12,x16
 504:	00812423          	sw	x8,8(x2)
 508:	00e12623          	sw	x14,12(x2)
 50c:	00100413          	li	x8,1
 510:	002b9493          	slli	x9,x23,0x2
 514:	002c9513          	slli	x10,x25,0x2
 518:	002c1593          	slli	x11,x24,0x2
 51c:	00261613          	slli	x12,x12,0x2
 520:	0a839c63          	bne	x7,x8,5d8 <.L22>

00000524 <.L98>:
 524:	00279a93          	slli	x21,x15,0x2
 528:	015f88b3          	add	x17,x31,x21
 52c:	01c8a887          	flw	f17,28(x17)
 530:	0188a807          	flw	f16,24(x17)
 534:	0148a387          	flw	f7,20(x17)
 538:	0108a587          	flw	f11,16(x17)
 53c:	00c8a287          	flw	f5,12(x17)
 540:	0088a687          	flw	f13,8(x17)
 544:	0048ae07          	flw	f28,4(x17)
 548:	0008ae87          	flw	f29,0(x17)
 54c:	0c869c63          	bne	x13,x8,624 <.L24>

00000550 <.L99>:
 550:	00279893          	slli	x17,x15,0x2
 554:	01128c33          	add	x24,x5,x17
 558:	01cc2087          	flw	f1,28(x24)
 55c:	018c2f07          	flw	f30,24(x24)
 560:	014c2507          	flw	f10,20(x24)
 564:	010c2307          	flw	f6,16(x24)
 568:	00cc2607          	flw	f12,12(x24)
 56c:	008c2207          	flw	f4,8(x24)
 570:	004c2187          	flw	f3,4(x24)
 574:	000c2107          	flw	f2,0(x24)

00000578 <.L25>:
 578:	1110ffd3          	fmul.s	f31,f1,f17
 57c:	110f7053          	fmul.s	f0,f30,f16
 580:	107578d3          	fmul.s	f17,f10,f7
 584:	1065f853          	fmul.s	f16,f11,f6
 588:	105673d3          	fmul.s	f7,f12,f5
 58c:	1046f5d3          	fmul.s	f11,f13,f4
 590:	103e7753          	fmul.s	f14,f28,f3
 594:	102ef7d3          	fmul.s	f15,f29,f2
 598:	0c881e63          	bne	x16,x8,674 <.L26>
 59c:	00279d13          	slli	x26,x15,0x2
 5a0:	01af0733          	add	x14,x30,x26
 5a4:	01f72e27          	fsw	f31,28(x14)
 5a8:	00072c27          	fsw	f0,24(x14)
 5ac:	01172a27          	fsw	f17,20(x14)
 5b0:	01072827          	fsw	f16,16(x14)
 5b4:	00772627          	fsw	f7,12(x14)
 5b8:	00b72427          	fsw	f11,8(x14)
 5bc:	00e72227          	fsw	f14,4(x14)
 5c0:	00f72027          	fsw	f15,0(x14)
 5c4:	00808c93          	addi	x25,x1,8 # 100008 <.L181+0xff1ec>
 5c8:	00008793          	mv	x15,x1
 5cc:	11dcf063          	bgeu	x25,x29,6cc <.L97>

000005d0 <.L57>:
 5d0:	000c8093          	mv	x1,x25
 5d4:	f48388e3          	beq	x7,x8,524 <.L98>

000005d8 <.L22>:
 5d8:	02f38d33          	mul	x26,x7,x15
 5dc:	002d1a93          	slli	x21,x26,0x2
 5e0:	015f88b3          	add	x17,x31,x21
 5e4:	00988733          	add	x14,x17,x9
 5e8:	00a70cb3          	add	x25,x14,x10
 5ec:	00ac8c33          	add	x24,x25,x10
 5f0:	00ac0bb3          	add	x23,x24,x10
 5f4:	00ab8b33          	add	x22,x23,x10
 5f8:	00ab0d33          	add	x26,x22,x10
 5fc:	00ad0db3          	add	x27,x26,x10
 600:	00072887          	flw	f17,0(x14)
 604:	000ca807          	flw	f16,0(x25) # 20000000 <.L181+0x1ffff1e4>
 608:	000c2387          	flw	f7,0(x24)
 60c:	000ba587          	flw	f11,0(x23) # 1000000 <.L181+0xfff1e4>
 610:	000b2287          	flw	f5,0(x22)
 614:	000d2687          	flw	f13,0(x26)
 618:	000dae07          	flw	f28,0(x27)
 61c:	0008ae87          	flw	f29,0(x17)
 620:	f28688e3          	beq	x13,x8,550 <.L99>

00000624 <.L24>:
 624:	02f68733          	mul	x14,x13,x15
 628:	00812c03          	lw	x24,8(x2)
 62c:	00271c93          	slli	x25,x14,0x2
 630:	019288b3          	add	x17,x5,x25
 634:	01888d33          	add	x26,x17,x24
 638:	00bd0733          	add	x14,x26,x11
 63c:	00b70cb3          	add	x25,x14,x11
 640:	00bc8bb3          	add	x23,x25,x11
 644:	00bb8b33          	add	x22,x23,x11
 648:	00bb0ab3          	add	x21,x22,x11
 64c:	00ba8db3          	add	x27,x21,x11
 650:	000d2087          	flw	f1,0(x26)
 654:	00072f07          	flw	f30,0(x14)
 658:	000ca507          	flw	f10,0(x25)
 65c:	000ba307          	flw	f6,0(x23)
 660:	000b2607          	flw	f12,0(x22)
 664:	000aa207          	flw	f4,0(x21) # 3f000000 <.L181+0x3efff1e4>
 668:	000da187          	flw	f3,0(x27)
 66c:	0008a107          	flw	f2,0(x17)
 670:	f09ff06f          	j	578 <.L25>

00000674 <.L26>:
 674:	02f807b3          	mul	x15,x16,x15
 678:	00c12c83          	lw	x25,12(x2)
 67c:	00279d13          	slli	x26,x15,0x2
 680:	01af0733          	add	x14,x30,x26
 684:	01970bb3          	add	x23,x14,x25
 688:	01fba027          	fsw	f31,0(x23)
 68c:	00cb8b33          	add	x22,x23,x12
 690:	000b2027          	fsw	f0,0(x22)
 694:	00cb0ab3          	add	x21,x22,x12
 698:	011aa027          	fsw	f17,0(x21)
 69c:	00ca8db3          	add	x27,x21,x12
 6a0:	010da027          	fsw	f16,0(x27)
 6a4:	00cd88b3          	add	x17,x27,x12
 6a8:	0078a027          	fsw	f7,0(x17)
 6ac:	00c88c33          	add	x24,x17,x12
 6b0:	00bc2027          	fsw	f11,0(x24)
 6b4:	00cc07b3          	add	x15,x24,x12
 6b8:	00e7a027          	fsw	f14,0(x15)
 6bc:	00f72027          	fsw	f15,0(x14)
 6c0:	00808c93          	addi	x25,x1,8
 6c4:	00008793          	mv	x15,x1
 6c8:	f1dce4e3          	bltu	x25,x29,5d0 <.L57>

000006cc <.L97>:
 6cc:	b9d0f0e3          	bgeu	x1,x29,24c <.L21>

000006d0 <.L20>:
 6d0:	02138bb3          	mul	x23,x7,x1
 6d4:	00269b13          	slli	x22,x13,0x2
 6d8:	00281a93          	slli	x21,x16,0x2
 6dc:	00239393          	slli	x7,x7,0x2
 6e0:	021686b3          	mul	x13,x13,x1
 6e4:	002b9d93          	slli	x27,x23,0x2
 6e8:	01bf8fb3          	add	x31,x31,x27
 6ec:	02180833          	mul	x16,x16,x1
 6f0:	00269893          	slli	x17,x13,0x2
 6f4:	011282b3          	add	x5,x5,x17
 6f8:	00281c13          	slli	x24,x16,0x2
 6fc:	018f0f33          	add	x30,x30,x24

00000700 <.L29>:
 700:	000fa287          	flw	f5,0(x31)
 704:	0002a687          	flw	f13,0(x5) # 0 <tensorlib_mul>
 708:	00108093          	addi	x1,x1,1
 70c:	007f8fb3          	add	x31,x31,x7
 710:	10d2fe53          	fmul.s	f28,f5,f13
 714:	016282b3          	add	x5,x5,x22
 718:	01cf2027          	fsw	f28,0(x30)
 71c:	015f0f33          	add	x30,x30,x21
 720:	fe1e90e3          	bne	x29,x1,700 <.L29>
 724:	b29ff06f          	j	24c <.L21>

00000728 <.L96>:
 728:	00078093          	mv	x1,x15
 72c:	fa5ff06f          	j	6d0 <.L20>

00000730 <tensorlib_div>:
 730:	ef010113          	addi	x2,x2,-272
 734:	00050793          	mv	x15,x10
 738:	10912223          	sw	x9,260(x2)
 73c:	01c10513          	addi	x10,x2,28
 740:	00058493          	mv	x9,x11
 744:	00078593          	mv	x11,x15
 748:	10112623          	sw	x1,268(x2)
 74c:	10812423          	sw	x8,264(x2)
 750:	11212023          	sw	x18,256(x2)
 754:	00060413          	mv	x8,x12
 758:	0f312e23          	sw	x19,252(x2)
 75c:	0f412c23          	sw	x20,248(x2)
 760:	0f512a23          	sw	x21,244(x2)
 764:	0f612823          	sw	x22,240(x2)
 768:	0f712623          	sw	x23,236(x2)
 76c:	0f812423          	sw	x24,232(x2)
 770:	0f912223          	sw	x25,228(x2)
 774:	0fa12023          	sw	x26,224(x2)
 778:	0db12e23          	sw	x27,220(x2)
 77c:	00000097          	auipc	x1,0x0
 780:	000080e7          	jalr	x1 # 77c <tensorlib_div+0x4c>
 784:	00048593          	mv	x11,x9
 788:	05810513          	addi	x10,x2,88
 78c:	00000097          	auipc	x1,0x0
 790:	000080e7          	jalr	x1 # 78c <tensorlib_div+0x5c>
 794:	00040593          	mv	x11,x8
 798:	09410513          	addi	x10,x2,148
 79c:	00000097          	auipc	x1,0x0
 7a0:	000080e7          	jalr	x1 # 79c <tensorlib_div+0x6c>
 7a4:	00000937          	lui	x18,0x0
 7a8:	00000837          	lui	x16,0x0
 7ac:	000004b7          	lui	x9,0x0
 7b0:	000008b7          	lui	x17,0x0
 7b4:	00092283          	lw	x5,0(x18) # 0 <tensorlib_mul>
 7b8:	00082583          	lw	x11,0(x16) # 0 <tensorlib_mul>
 7bc:	0004a703          	lw	x14,0(x9) # 0 <tensorlib_mul>
 7c0:	0008a603          	lw	x12,0(x17) # 0 <tensorlib_mul>
 7c4:	000009b7          	lui	x19,0x0
 7c8:	0009a683          	lw	x13,0(x19) # 0 <tensorlib_mul>
 7cc:	00b28333          	add	x6,x5,x11
 7d0:	00c703b3          	add	x7,x14,x12
 7d4:	01831513          	slli	x10,x6,0x18
 7d8:	01239a13          	slli	x20,x7,0x12
 7dc:	3f000ab7          	lui	x21,0x3f000
 7e0:	00fc0bb7          	lui	x23,0xfc0
 7e4:	00040db7          	lui	x27,0x40
 7e8:	01557b33          	and	x22,x10,x21
 7ec:	ff0d8e13          	addi	x28,x27,-16 # 3fff0 <.L181+0x3f1d4>
 7f0:	017a7c33          	and	x24,x20,x23
 7f4:	00469c93          	slli	x25,x13,0x4
 7f8:	01ccfeb3          	and	x29,x25,x28
 7fc:	018b6d33          	or	x26,x22,x24
 800:	01dd6f33          	or	x30,x26,x29
 804:	80000fb7          	lui	x31,0x80000
 808:	01c12403          	lw	x8,28(x2)
 80c:	01ff67b3          	or	x15,x30,x31
 810:	410012b7          	lui	x5,0x41001
 814:	d0f2a623          	sw	x15,-756(x5) # 41000d0c <.L181+0x40fffef0>
 818:	fff00713          	li	x14,-1
 81c:	02012583          	lw	x11,32(x2)
 820:	02412e83          	lw	x29,36(x2)
 824:	02c12f83          	lw	x31,44(x2)
 828:	06012e03          	lw	x28,96(x2)
 82c:	06812283          	lw	x5,104(x2)
 830:	09c12503          	lw	x10,156(x2)
 834:	0a412383          	lw	x7,164(x2)
 838:	14e40263          	beq	x8,x14,97c <.L106>
 83c:	14040063          	beqz	x8,97c <.L106>
 840:	000000b7          	lui	x1,0x0
 844:	0000a603          	lw	x12,0(x1) # 0 <tensorlib_mul>
 848:	00445693          	srli	x13,x8,0x4
 84c:	00168313          	addi	x6,x13,1
 850:	02c307b3          	mul	x15,x6,x12
 854:	00f300b3          	add	x1,x6,x15
 858:	38146a63          	bltu	x8,x1,bec <.L177>

0000085c <.L102>:
 85c:	1217f063          	bgeu	x15,x1,97c <.L106>
 860:	00100a13          	li	x20,1
 864:	39458863          	beq	x11,x20,bf4 <.L178>
 868:	09812b03          	lw	x22,152(x2)
 86c:	05c12b83          	lw	x23,92(x2)
 870:	0a012303          	lw	x6,160(x2)
 874:	02812403          	lw	x8,40(x2)
 878:	06412a83          	lw	x21,100(x2)
 87c:	002b1c93          	slli	x25,x22,0x2
 880:	00259d13          	slli	x26,x11,0x2
 884:	002b9c13          	slli	x24,x23,0x2
 888:	006c8db3          	add	x27,x25,x6
 88c:	008d0733          	add	x14,x26,x8
 890:	015c0f33          	add	x30,x24,x21
 894:	01b12223          	sw	x27,4(x2)
 898:	00e12423          	sw	x14,8(x2)

0000089c <.L121>:
 89c:	340b8463          	beqz	x23,be4 <.L143>
 8a0:	000e0c13          	mv	x24,x28
 8a4:	000a8693          	mv	x13,x21
 8a8:	00078613          	mv	x12,x15
 8ac:	00000713          	li	x14,0

000008b0 <.L116>:
 8b0:	0006aa03          	lw	x20,0(x13)
 8b4:	000c2d03          	lw	x26,0(x24)
 8b8:	00468693          	addi	x13,x13,4
 8bc:	03467cb3          	remu	x25,x12,x20
 8c0:	004c0c13          	addi	x24,x24,4
 8c4:	03ac8db3          	mul	x27,x25,x26
 8c8:	03465633          	divu	x12,x12,x20
 8cc:	01b70733          	add	x14,x14,x27
 8d0:	fedf10e3          	bne	x30,x13,8b0 <.L116>
 8d4:	00271a13          	slli	x20,x14,0x2
 8d8:	01428633          	add	x12,x5,x20

000008dc <.L115>:
 8dc:	00062787          	flw	f15,0(x12) # 3fc0000 <.L181+0x3fbf1e4>
 8e0:	2e0b0e63          	beqz	x22,bdc <.L144>
 8e4:	00050c13          	mv	x24,x10
 8e8:	00030693          	mv	x13,x6
 8ec:	00078613          	mv	x12,x15
 8f0:	00000713          	li	x14,0

000008f4 <.L118>:
 8f4:	0006aa03          	lw	x20,0(x13)
 8f8:	000c2d83          	lw	x27,0(x24)
 8fc:	00468693          	addi	x13,x13,4
 900:	004c0c13          	addi	x24,x24,4
 904:	03467cb3          	remu	x25,x12,x20
 908:	03bc8d33          	mul	x26,x25,x27
 90c:	03465633          	divu	x12,x12,x20
 910:	00412a03          	lw	x20,4(x2)
 914:	01a70733          	add	x14,x14,x26
 918:	fcda1ee3          	bne	x20,x13,8f4 <.L118>
 91c:	00271d93          	slli	x27,x14,0x2
 920:	01b38d33          	add	x26,x7,x27

00000924 <.L117>:
 924:	000d2707          	flw	f14,0(x26)
 928:	18e7f053          	fdiv.s	f0,f15,f14
 92c:	2a058463          	beqz	x11,bd4 <.L145>
 930:	000e8c13          	mv	x24,x29
 934:	00040d93          	mv	x27,x8
 938:	00078613          	mv	x12,x15
 93c:	00000713          	li	x14,0

00000940 <.L120>:
 940:	000dad03          	lw	x26,0(x27)
 944:	000c2a03          	lw	x20,0(x24)
 948:	004d8d93          	addi	x27,x27,4
 94c:	004c0c13          	addi	x24,x24,4
 950:	03a67cb3          	remu	x25,x12,x26
 954:	034c86b3          	mul	x13,x25,x20
 958:	03a65633          	divu	x12,x12,x26
 95c:	00812d03          	lw	x26,8(x2)
 960:	00d70733          	add	x14,x14,x13
 964:	fdbd1ee3          	bne	x26,x27,940 <.L120>
 968:	00271a13          	slli	x20,x14,0x2
 96c:	014f86b3          	add	x13,x31,x20

00000970 <.L119>:
 970:	0006a027          	fsw	f0,0(x13)
 974:	00178793          	addi	x15,x15,1
 978:	f2f092e3          	bne	x1,x15,89c <.L121>

0000097c <.L106>:
 97c:	00092083          	lw	x1,0(x18)
 980:	0004a483          	lw	x9,0(x9)
 984:	00082903          	lw	x18,0(x16)
 988:	0008a583          	lw	x11,0(x17)
 98c:	0009a983          	lw	x19,0(x19)
 990:	01208ab3          	add	x21,x1,x18
 994:	00b48bb3          	add	x23,x9,x11
 998:	018a9793          	slli	x15,x21,0x18
 99c:	012b9713          	slli	x14,x23,0x12
 9a0:	3f000437          	lui	x8,0x3f000
 9a4:	00fc0eb7          	lui	x29,0xfc0
 9a8:	00040d37          	lui	x26,0x40
 9ac:	0087fe33          	and	x28,x15,x8
 9b0:	00499b13          	slli	x22,x19,0x4
 9b4:	01d77f33          	and	x30,x14,x29
 9b8:	ff0d0c13          	addi	x24,x26,-16 # 3fff0 <.L181+0x3f1d4>
 9bc:	01ee6cb3          	or	x25,x28,x30
 9c0:	018b76b3          	and	x13,x22,x24
 9c4:	00dce633          	or	x12,x25,x13
 9c8:	c0000a37          	lui	x20,0xc0000
 9cc:	01466333          	or	x6,x12,x20
 9d0:	41001db7          	lui	x27,0x41001
 9d4:	d06da623          	sw	x6,-756(x27) # 41000d0c <.L181+0x40fffef0>
 9d8:	0008a503          	lw	x10,0(x17)
 9dc:	00082283          	lw	x5,0(x16)
 9e0:	000003b7          	lui	x7,0x0
 9e4:	00450f93          	addi	x31,x10,4
 9e8:	00038793          	mv	x15,x7
 9ec:	01f780b3          	add	x1,x15,x31
 9f0:	01829913          	slli	x18,x5,0x18
 9f4:	0120e4b3          	or	x9,x1,x18
 9f8:	200405b7          	lui	x11,0x20040
 9fc:	00b4e9b3          	or	x19,x9,x11
 a00:	00100a93          	li	x21,1
 a04:	01598023          	sb	x21,0(x19)
 a08:	0008ab83          	lw	x23,0(x17)
 a0c:	075b8463          	beq	x23,x21,a74 <.L123>

00000a10 <.L135>:
 a10:	00100813          	li	x16,1
 a14:	0100006f          	j	a24 <.L139>

00000a18 <.L179>:
 a18:	00038c93          	mv	x25,x7
 a1c:	140ca72f          	lr.w.aq	x14,(x25)
 a20:	01070863          	beq	x14,x16,a30 <.L138>

00000a24 <.L139>:
 a24:	00038b13          	mv	x22,x7
 a28:	100b2e2f          	lr.w	x28,(x22)
 a2c:	ff0e16e3          	bne	x28,x16,a18 <.L179>

00000a30 <.L138>:
 a30:	10c12083          	lw	x1,268(x2)
 a34:	10812403          	lw	x8,264(x2)
 a38:	0007a023          	sw	x0,0(x15)
 a3c:	10412483          	lw	x9,260(x2)
 a40:	10012903          	lw	x18,256(x2)
 a44:	0fc12983          	lw	x19,252(x2)
 a48:	0f812a03          	lw	x20,248(x2)
 a4c:	0f412a83          	lw	x21,244(x2)
 a50:	0f012b03          	lw	x22,240(x2)
 a54:	0ec12b83          	lw	x23,236(x2)
 a58:	0e812c03          	lw	x24,232(x2)
 a5c:	0e412c83          	lw	x25,228(x2)
 a60:	0e012d03          	lw	x26,224(x2)
 a64:	0dc12d83          	lw	x27,220(x2)
 a68:	00000513          	li	x10,0
 a6c:	11010113          	addi	x2,x2,272
 a70:	00008067          	ret

00000a74 <.L123>:
 a74:	0047c703          	lbu	x14,4(x15)
 a78:	0ff77413          	andi	x8,x14,255
 a7c:	fe040ce3          	beqz	x8,a74 <.L123>
 a80:	0057ce03          	lbu	x28,5(x15)
 a84:	0ffe7e93          	andi	x29,x28,255
 a88:	fe0e86e3          	beqz	x29,a74 <.L123>
 a8c:	0067cf03          	lbu	x30,6(x15)
 a90:	0fff7b13          	andi	x22,x30,255
 a94:	fe0b00e3          	beqz	x22,a74 <.L123>
 a98:	0077cc83          	lbu	x25,7(x15)
 a9c:	0ffcfd13          	andi	x26,x25,255
 aa0:	fc0d0ae3          	beqz	x26,a74 <.L123>
 aa4:	00082c03          	lw	x24,0(x16)
 aa8:	21040337          	lui	x6,0x21040
 aac:	00100693          	li	x13,1
 ab0:	00cc0613          	addi	x12,x24,12
 ab4:	00c78a33          	add	x20,x15,x12
 ab8:	006a6db3          	or	x27,x20,x6
 abc:	00dd8023          	sb	x13,0(x27)
 ac0:	0008a503          	lw	x10,0(x17)
 ac4:	f4d516e3          	bne	x10,x13,a10 <.L135>
 ac8:	00082303          	lw	x6,0(x16)
 acc:	06a30c63          	beq	x6,x10,b44 <.L129>

00000ad0 <.L134>:
 ad0:	00100893          	li	x17,1
 ad4:	0100006f          	j	ae4 <.L128>

00000ad8 <.L180>:
 ad8:	00878293          	addi	x5,x15,8
 adc:	1402afaf          	lr.w.aq	x31,(x5)
 ae0:	011f8863          	beq	x31,x17,af0 <.L136>

00000ae4 <.L128>:
 ae4:	00878d93          	addi	x27,x15,8
 ae8:	100da52f          	lr.w	x10,(x27)
 aec:	ff1516e3          	bne	x10,x17,ad8 <.L180>

00000af0 <.L136>:
 af0:	0007a423          	sw	x0,8(x15)
 af4:	00078223          	sb	x0,4(x15)
 af8:	000782a3          	sb	x0,5(x15)
 afc:	00078323          	sb	x0,6(x15)
 b00:	000783a3          	sb	x0,7(x15)
 b04:	0007a023          	sw	x0,0(x15)
 b08:	00000b93          	li	x23,0
 b0c:	00038793          	mv	x15,x7
 b10:	200000b7          	lui	x1,0x20000
 b14:	00100913          	li	x18,1
 b18:	000404b7          	lui	x9,0x40
 b1c:	001009b7          	lui	x19,0x100

00000b20 <.L137>:
 b20:	00082a83          	lw	x21,0(x16)
 b24:	0177e5b3          	or	x11,x15,x23
 b28:	009b8bb3          	add	x23,x23,x9
 b2c:	018a9413          	slli	x8,x21,0x18
 b30:	00b46f33          	or	x30,x8,x11
 b34:	001f6eb3          	or	x29,x30,x1
 b38:	012ea023          	sw	x18,0(x29) # fc0000 <.L181+0xfbf1e4>
 b3c:	ff3b92e3          	bne	x23,x19,b20 <.L137>
 b40:	ed1ff06f          	j	a10 <.L135>

00000b44 <.L129>:
 b44:	00c7c283          	lbu	x5,12(x15)
 b48:	0ff2ff93          	andi	x31,x5,255
 b4c:	fe0f8ce3          	beqz	x31,b44 <.L129>
 b50:	00d7c083          	lbu	x1,13(x15)
 b54:	0ff0f913          	andi	x18,x1,255
 b58:	fe0906e3          	beqz	x18,b44 <.L129>
 b5c:	00e7c483          	lbu	x9,14(x15)
 b60:	0ff4f593          	andi	x11,x9,255
 b64:	fe0580e3          	beqz	x11,b44 <.L129>
 b68:	00f7c983          	lbu	x19,15(x15)
 b6c:	0ff9fa93          	andi	x21,x19,255
 b70:	fc0a8ae3          	beqz	x21,b44 <.L129>
 b74:	00078623          	sb	x0,12(x15)
 b78:	000786a3          	sb	x0,13(x15)
 b7c:	00078723          	sb	x0,14(x15)
 b80:	000787a3          	sb	x0,15(x15)
 b84:	00000bb7          	lui	x23,0x0
 b88:	0007a423          	sw	x0,8(x15)
 b8c:	00000a13          	li	x20,0
 b90:	008b8413          	addi	x8,x23,8 # 8 <tensorlib_mul+0x8>
 b94:	03fc0f37          	lui	x30,0x3fc0
 b98:	20000eb7          	lui	x29,0x20000
 b9c:	00100b13          	li	x22,1
 ba0:	01000e37          	lui	x28,0x1000
 ba4:	04000cb7          	lui	x25,0x4000

00000ba8 <.L133>:
 ba8:	01231713          	slli	x14,x6,0x12
 bac:	01446d33          	or	x26,x8,x20
 bb0:	01e77c33          	and	x24,x14,x30
 bb4:	01ac66b3          	or	x13,x24,x26
 bb8:	01d6e633          	or	x12,x13,x29
 bbc:	01662023          	sw	x22,0(x12)
 bc0:	01ca0a33          	add	x20,x20,x28
 bc4:	0008a303          	lw	x6,0(x17)
 bc8:	ff9a10e3          	bne	x20,x25,ba8 <.L133>
 bcc:	f16302e3          	beq	x6,x22,ad0 <.L134>
 bd0:	e41ff06f          	j	a10 <.L135>

00000bd4 <.L145>:
 bd4:	000f8693          	mv	x13,x31
 bd8:	d99ff06f          	j	970 <.L119>

00000bdc <.L144>:
 bdc:	00038d13          	mv	x26,x7
 be0:	d45ff06f          	j	924 <.L117>

00000be4 <.L143>:
 be4:	00028613          	mv	x12,x5
 be8:	cf5ff06f          	j	8dc <.L115>

00000bec <.L177>:
 bec:	00040093          	mv	x1,x8
 bf0:	c6dff06f          	j	85c <.L102>

00000bf4 <.L178>:
 bf4:	00678593          	addi	x11,x15,6
 bf8:	000ea303          	lw	x6,0(x29) # 20000000 <.L181+0x1ffff1e4>
 bfc:	000e2683          	lw	x13,0(x28) # 1000000 <.L181+0xfff1e4>
 c00:	00052603          	lw	x12,0(x10)
 c04:	2015fc63          	bgeu	x11,x1,e1c <.L181>
 c08:	00269c93          	slli	x25,x13,0x2
 c0c:	00261d13          	slli	x26,x12,0x2
 c10:	00231c13          	slli	x24,x6,0x2
 c14:	00dc8bb3          	add	x23,x25,x13
 c18:	00cd0b33          	add	x22,x26,x12
 c1c:	006c0533          	add	x10,x24,x6
 c20:	002b9413          	slli	x8,x23,0x2
 c24:	002b1f13          	slli	x30,x22,0x2
 c28:	00251d93          	slli	x27,x10,0x2
 c2c:	40d00ab3          	neg	x21,x13
 c30:	40c00eb3          	neg	x29,x12
 c34:	40600e33          	neg	x28,x6
 c38:	00812223          	sw	x8,4(x2)
 c3c:	01e12423          	sw	x30,8(x2)
 c40:	01b12623          	sw	x27,12(x2)
 c44:	00100413          	li	x8,1
 c48:	002a9f13          	slli	x30,x21,0x2
 c4c:	002e9e93          	slli	x29,x29,0x2
 c50:	002e1e13          	slli	x28,x28,0x2
 c54:	08869c63          	bne	x13,x8,cec <.L107>

00000c58 <.L183>:
 c58:	00279513          	slli	x10,x15,0x2
 c5c:	00a28bb3          	add	x23,x5,x10
 c60:	014ba507          	flw	f10,20(x23)
 c64:	010ba587          	flw	f11,16(x23)
 c68:	00cba607          	flw	f12,12(x23)
 c6c:	008ba687          	flw	f13,8(x23)
 c70:	004ba307          	flw	f6,4(x23)
 c74:	000ba387          	flw	f7,0(x23)
 c78:	0a861a63          	bne	x12,x8,d2c <.L109>

00000c7c <.L184>:
 c7c:	00279513          	slli	x10,x15,0x2
 c80:	00a38ab3          	add	x21,x7,x10
 c84:	014aa287          	flw	f5,20(x21) # 3f000014 <.L181+0x3efff1f8>
 c88:	010aa207          	flw	f4,16(x21)
 c8c:	00caa187          	flw	f3,12(x21)
 c90:	008aa107          	flw	f2,8(x21)
 c94:	004aa087          	flw	f1,4(x21)
 c98:	000aa807          	flw	f16,0(x21)
 c9c:	185578d3          	fdiv.s	f17,f10,f5
 ca0:	1845fe53          	fdiv.s	f28,f11,f4
 ca4:	18367ed3          	fdiv.s	f29,f12,f3
 ca8:	1826ff53          	fdiv.s	f30,f13,f2
 cac:	18137fd3          	fdiv.s	f31,f6,f1
 cb0:	1903f7d3          	fdiv.s	f15,f7,f16
 cb4:	0c831863          	bne	x6,x8,d84 <.L111>

00000cb8 <.L185>:
 cb8:	00279b93          	slli	x23,x15,0x2
 cbc:	017f8733          	add	x14,x31,x23
 cc0:	01172a27          	fsw	f17,20(x14)
 cc4:	01c72827          	fsw	f28,16(x14)
 cc8:	01d72627          	fsw	f29,12(x14)
 ccc:	01e72427          	fsw	f30,8(x14)
 cd0:	01f72227          	fsw	f31,4(x14)
 cd4:	00f72027          	fsw	f15,0(x14)
 cd8:	00658b13          	addi	x22,x11,6 # 20040006 <.L181+0x2003f1ea>
 cdc:	00058793          	mv	x15,x11
 ce0:	0e1b7663          	bgeu	x22,x1,dcc <.L182>

00000ce4 <.L142>:
 ce4:	000b0593          	mv	x11,x22
 ce8:	f68688e3          	beq	x13,x8,c58 <.L183>

00000cec <.L107>:
 cec:	02d78733          	mul	x14,x15,x13
 cf0:	00412b83          	lw	x23,4(x2)
 cf4:	00271a13          	slli	x20,x14,0x2
 cf8:	01428533          	add	x10,x5,x20
 cfc:	01750733          	add	x14,x10,x23
 d00:	01e70b33          	add	x22,x14,x30
 d04:	01eb0ab3          	add	x21,x22,x30
 d08:	01ea8a33          	add	x20,x21,x30
 d0c:	01ea0db3          	add	x27,x20,x30
 d10:	00072507          	flw	f10,0(x14)
 d14:	000b2587          	flw	f11,0(x22)
 d18:	000aa607          	flw	f12,0(x21)
 d1c:	000a2687          	flw	f13,0(x20) # c0000000 <.L181+0xbffff1e4>
 d20:	000da307          	flw	f6,0(x27)
 d24:	00052387          	flw	f7,0(x10)
 d28:	f4860ae3          	beq	x12,x8,c7c <.L184>

00000d2c <.L109>:
 d2c:	02c78733          	mul	x14,x15,x12
 d30:	00812a83          	lw	x21,8(x2)
 d34:	00271b13          	slli	x22,x14,0x2
 d38:	01638533          	add	x10,x7,x22
 d3c:	01550bb3          	add	x23,x10,x21
 d40:	01db8733          	add	x14,x23,x29
 d44:	01d70b33          	add	x22,x14,x29
 d48:	01db0a33          	add	x20,x22,x29
 d4c:	01da0db3          	add	x27,x20,x29
 d50:	000ba287          	flw	f5,0(x23)
 d54:	00072207          	flw	f4,0(x14)
 d58:	000b2187          	flw	f3,0(x22)
 d5c:	000a2107          	flw	f2,0(x20)
 d60:	000da087          	flw	f1,0(x27)
 d64:	00052807          	flw	f16,0(x10)
 d68:	185578d3          	fdiv.s	f17,f10,f5
 d6c:	1845fe53          	fdiv.s	f28,f11,f4
 d70:	18367ed3          	fdiv.s	f29,f12,f3
 d74:	1826ff53          	fdiv.s	f30,f13,f2
 d78:	18137fd3          	fdiv.s	f31,f6,f1
 d7c:	1903f7d3          	fdiv.s	f15,f7,f16
 d80:	f2830ce3          	beq	x6,x8,cb8 <.L185>

00000d84 <.L111>:
 d84:	026787b3          	mul	x15,x15,x6
 d88:	00c12b03          	lw	x22,12(x2)
 d8c:	00279b93          	slli	x23,x15,0x2
 d90:	017f8733          	add	x14,x31,x23
 d94:	01670a33          	add	x20,x14,x22
 d98:	011a2027          	fsw	f17,0(x20)
 d9c:	01ca0db3          	add	x27,x20,x28
 da0:	01cda027          	fsw	f28,0(x27)
 da4:	01cd8533          	add	x10,x27,x28
 da8:	01d52027          	fsw	f29,0(x10)
 dac:	01c50ab3          	add	x21,x10,x28
 db0:	01eaa027          	fsw	f30,0(x21)
 db4:	01ca87b3          	add	x15,x21,x28
 db8:	01f7a027          	fsw	f31,0(x15)
 dbc:	00f72027          	fsw	f15,0(x14)
 dc0:	00658b13          	addi	x22,x11,6
 dc4:	00058793          	mv	x15,x11
 dc8:	f01b6ee3          	bltu	x22,x1,ce4 <.L142>

00000dcc <.L182>:
 dcc:	ba15f8e3          	bgeu	x11,x1,97c <.L106>

00000dd0 <.L105>:
 dd0:	02b686b3          	mul	x13,x13,x11
 dd4:	02b60633          	mul	x12,x12,x11
 dd8:	00269a13          	slli	x20,x13,0x2
 ddc:	014282b3          	add	x5,x5,x20
 de0:	02b30333          	mul	x6,x6,x11
 de4:	00261d93          	slli	x27,x12,0x2
 de8:	01b383b3          	add	x7,x7,x27
 dec:	00231513          	slli	x10,x6,0x2
 df0:	00af8fb3          	add	x31,x31,x10

00000df4 <.L114>:
 df4:	0002a007          	flw	f0,0(x5)
 df8:	0003a707          	flw	f14,0(x7) # 0 <tensorlib_mul>
 dfc:	00158593          	addi	x11,x11,1
 e00:	019282b3          	add	x5,x5,x25
 e04:	18e07553          	fdiv.s	f10,f0,f14
 e08:	01a383b3          	add	x7,x7,x26
 e0c:	00afa027          	fsw	f10,0(x31) # 80000000 <.L181+0x7ffff1e4>
 e10:	018f8fb3          	add	x31,x31,x24
 e14:	feb090e3          	bne	x1,x11,df4 <.L114>
 e18:	b65ff06f          	j	97c <.L106>

00000e1c <.L181>:
 e1c:	00078593          	mv	x11,x15
 e20:	00269c93          	slli	x25,x13,0x2
 e24:	00261d13          	slli	x26,x12,0x2
 e28:	00231c13          	slli	x24,x6,0x2
 e2c:	fa5ff06f          	j	dd0 <.L105>

Disassembly of section .rodata._ZN8HBTensorIfLln1EEC2EP11hb_tensor_t.str1.4:

00000000 <.LC0>:
   0:	726f772f          	0x726f772f
   4:	6c672f6b          	0x6c672f6b
   8:	6c61626f          	jal	x4,166ce <.L181+0x158b2>
   c:	33726b2f          	0x33726b2f
  10:	3739                	jal	ffffff1e <.L181+0xfffff102>
  12:	2d62682f          	0x2d62682f
  16:	7970                	flw	f12,116(x10)
  18:	6f74                	flw	f13,92(x14)
  1a:	6372                	flw	f6,28(x2)
  1c:	2f68                	fld	f10,216(x14)
  1e:	6168                	flw	f10,68(x10)
  20:	6d6d                	lui	x26,0x1b
  22:	7265                	lui	x4,0xffff9
  24:	6c62                	flw	f24,24(x2)
  26:	6461                	lui	x8,0x18
  28:	2f65                	jal	7e0 <tensorlib_div+0xb0>
  2a:	6f74                	flw	f13,92(x14)
  2c:	6372                	flw	f6,28(x2)
  2e:	2f68                	fld	f10,216(x14)
  30:	6e72656b          	0x6e72656b
  34:	6c65                	lui	x24,0x19
  36:	5f62682f          	0x5f62682f
  3a:	6574                	flw	f13,76(x10)
  3c:	736e                	flw	f6,248(x2)
  3e:	682e726f          	jal	x4,e76c0 <.L181+0xe68a4>
  42:	7070                	flw	f12,100(x8)
  44:	0000                	unimp
	...

00000048 <.LC1>:
  48:	7361                	lui	x6,0xffff8
  4a:	74726573          	csrrsi	x10,0x747,4
  4e:	6620                	flw	f8,72(x12)
  50:	6961                	lui	x18,0x18
  52:	656c                	flw	f11,76(x10)
  54:	2064                	fld	f9,192(x8)
  56:	7461                	lui	x8,0xffff8
  58:	2520                	fld	f8,72(x10)
  5a:	64253a73          	csrrc	x20,0x642,x10
  5e:	0020                	addi	x8,x2,8

00000060 <.LC2>:
  60:	7265                	lui	x4,0xffff9
  62:	6f72                	flw	f30,28(x2)
  64:	3a72                	fld	f20,312(x2)
  66:	7420                	flw	f8,104(x8)
  68:	6e65                	lui	x28,0x19
  6a:	20726f73          	csrrsi	x30,0x207,4
  6e:	6964                	flw	f9,84(x10)
  70:	736d                	lui	x6,0xffffb
  72:	6920                	flw	f8,80(x10)
  74:	6f742073          	csrs	0x6f7,x8
  78:	616c206f          	j	c268e <.L181+0xc1872>
  7c:	6772                	flw	f14,28(x2)
  7e:	0065                	c.nop	25

Disassembly of section .text._ZN8HBTensorIfLln1EEC2EP11hb_tensor_t:

00000000 <_ZN8HBTensorIfLln1EEC1EP11hb_tensor_t>:
   0:	00058713          	mv	x14,x11
   4:	0045a683          	lw	x13,4(x11)
   8:	00072803          	lw	x16,0(x14)
   c:	0105a583          	lw	x11,16(x11)
  10:	00050793          	mv	x15,x10
  14:	02850613          	addi	x12,x10,40
  18:	01450513          	addi	x10,x10,20
  1c:	0107a023          	sw	x16,0(x15)
  20:	00d7a223          	sw	x13,4(x15)
  24:	00a7a423          	sw	x10,8(x15)
  28:	00c7a623          	sw	x12,12(x15)
  2c:	00b7a823          	sw	x11,16(x15)
  30:	00060613          	mv	x12,x12
  34:	00500293          	li	x5,5
  38:	04d2e463          	bltu	x5,x13,80 <.L14>
  3c:	00872303          	lw	x6,8(x14)
  40:	00c72383          	lw	x7,12(x14)
  44:	02068c63          	beqz	x13,7c <.L1>
  48:	00269893          	slli	x17,x13,0x2
  4c:	00078713          	mv	x14,x15
  50:	01178e33          	add	x28,x15,x17
  54:	40f30eb3          	sub	x29,x6,x15
  58:	40f38f33          	sub	x30,x7,x15

0000005c <.L5>:
  5c:	00ee8fb3          	add	x31,x29,x14
  60:	000fa683          	lw	x13,0(x31)
  64:	00ef05b3          	add	x11,x30,x14
  68:	00470713          	addi	x14,x14,4
  6c:	00d72823          	sw	x13,16(x14)
  70:	0005a803          	lw	x16,0(x11)
  74:	03072223          	sw	x16,36(x14)
  78:	ffc712e3          	bne	x14,x28,5c <.L5>

0000007c <.L1>:
  7c:	00008067          	ret

00000080 <.L14>:
  80:	ff010113          	addi	x2,x2,-16
  84:	000007b7          	lui	x15,0x0
  88:	00112623          	sw	x1,12(x2)
  8c:	000000b7          	lui	x1,0x0
  90:	0c700613          	li	x12,199
  94:	00008593          	mv	x11,x1
  98:	00078513          	mv	x10,x15
  9c:	00000097          	auipc	x1,0x0
  a0:	000080e7          	jalr	x1 # 9c <.L14+0x1c>
  a4:	00000637          	lui	x12,0x0
  a8:	00060513          	mv	x10,x12
  ac:	00000097          	auipc	x1,0x0
  b0:	000080e7          	jalr	x1 # ac <.L14+0x2c>
  b4:	00000537          	lui	x10,0x0
  b8:	00052283          	lw	x5,0(x10) # 0 <_ZN8HBTensorIfLln1EEC1EP11hb_tensor_t>
  bc:	00000337          	lui	x6,0x0
  c0:	00032383          	lw	x7,0(x6) # 0 <_ZN8HBTensorIfLln1EEC1EP11hb_tensor_t>
  c4:	01029893          	slli	x17,x5,0x10
  c8:	4100feb7          	lui	x29,0x4100f
  cc:	00788e33          	add	x28,x17,x7
  d0:	adceac23          	sw	x28,-1320(x29) # 4100ead8 <.L181+0x4100dcbc>

000000d4 <.L3>:
  d4:	0000006f          	j	d4 <.L3>

Disassembly of section .comment:

00000000 <.comment>:
   0:	4700                	lw	x8,8(x14)
   2:	203a4343          	fmadd.s	f6,f20,f3,f4,rmm
   6:	4728                	lw	x10,72(x14)
   8:	554e                	lw	x10,240(x2)
   a:	2029                	jal	14 <_ZN8HBTensorIfLln1EEC5EP11hb_tensor_t+0x14>
   c:	2e39                	jal	32a <.L53+0x2a>
   e:	2e32                	fld	f28,264(x2)
  10:	0030                	addi	x12,x2,8

Disassembly of section .eh_frame:

00000000 <.eh_frame>:
   0:	0010                	0x10
   2:	0000                	unimp
   4:	0000                	unimp
   6:	0000                	unimp
   8:	7a01                	lui	x20,0xfffe0
   a:	0052                	c.slli	x0,0x14
   c:	7c01                	lui	x24,0xfffe0
   e:	0101                	addi	x2,x2,0
  10:	00020d1b          	0x20d1b
  14:	0014                	0x14
  16:	0000                	unimp
  18:	0018                	0x18
	...
  22:	0000                	unimp
  24:	0200                	addi	x8,x2,256
  26:	0e84                	addi	x9,x2,848
  28:	4810                	lw	x12,16(x8)
  2a:	0181                	addi	x3,x3,0
  2c:	0050                	addi	x12,x2,4
  2e:	0000                	unimp
  30:	0030                	addi	x12,x2,8
	...
  3a:	0000                	unimp
  3c:	4400                	lw	x8,8(x8)
  3e:	900e                	c.add	x0,x3
  40:	4c02                	lw	x24,0(x2)
  42:	0389                	addi	x7,x7,2
  44:	8154                	0x8154
  46:	8801                	andi	x8,x8,0
  48:	9202                	jalr	x4
  4a:	6804                	flw	f9,16(x8)
  4c:	06940593          	addi	x11,x8,105 # ffff8069 <.L181+0xffff724d>
  50:	0795                	addi	x15,x15,5
  52:	0896                	slli	x17,x17,0x5
  54:	0a980997          	auipc	x19,0xa980
  58:	0b99                	addi	x23,x23,6
  5a:	0c9a                	slli	x25,x25,0x6
  5c:	b8030d9b          	0xb8030d9b
  60:	0a02                	c.slli64	x20
  62:	44c1                	li	x9,16
  64:	48c8                	lw	x10,20(x9)
  66:	44c9                	li	x9,18
  68:	44d2                	lw	x9,20(x2)
  6a:	44d444d3          	0x44d444d3
  6e:	44d5                	li	x9,21
  70:	44d6                	lw	x9,84(x2)
  72:	44d844d7          	0x44d844d7
  76:	44d9                	li	x9,22
  78:	44da                	lw	x9,148(x2)
  7a:	000e48db          	0xe48db
  7e:	0b44                	addi	x9,x2,404
  80:	0050                	addi	x12,x2,4
  82:	0000                	unimp
  84:	0084                	addi	x9,x2,64
	...
  8e:	0000                	unimp
  90:	4400                	lw	x8,8(x8)
  92:	900e                	c.add	x0,x3
  94:	4c02                	lw	x24,0(x2)
  96:	0389                	addi	x7,x7,2
  98:	8154                	0x8154
  9a:	8801                	andi	x8,x8,0
  9c:	9202                	jalr	x4
  9e:	6804                	flw	f9,16(x8)
  a0:	06940593          	addi	x11,x8,105
  a4:	0795                	addi	x15,x15,5
  a6:	0896                	slli	x17,x17,0x5
  a8:	0a980997          	auipc	x19,0xa980
  ac:	0b99                	addi	x23,x23,6
  ae:	0c9a                	slli	x25,x25,0x6
  b0:	b8030d9b          	0xb8030d9b
  b4:	0a02                	c.slli64	x20
  b6:	44c1                	li	x9,16
  b8:	48c8                	lw	x10,20(x9)
  ba:	44c9                	li	x9,18
  bc:	44d2                	lw	x9,20(x2)
  be:	44d444d3          	0x44d444d3
  c2:	44d5                	li	x9,21
  c4:	44d6                	lw	x9,84(x2)
  c6:	44d844d7          	0x44d844d7
  ca:	44d9                	li	x9,22
  cc:	44da                	lw	x9,148(x2)
  ce:	000e48db          	0xe48db
  d2:	0b44                	addi	x9,x2,404

Disassembly of section .riscv.attributes:

00000000 <.riscv.attributes>:
   0:	2a41                	jal	190 <.L31+0x10>
   2:	0000                	unimp
   4:	7200                	flw	f8,32(x12)
   6:	7369                	lui	x6,0xffffa
   8:	01007663          	bgeu	x0,x16,14 <.riscv.attributes+0x14>
   c:	0020                	addi	x8,x2,8
   e:	0000                	unimp
  10:	1004                	addi	x9,x2,32
  12:	7205                	lui	x4,0xfffe1
  14:	3376                	fld	f6,376(x2)
  16:	6932                	flw	f18,12(x2)
  18:	7032                	flw	f0,44(x2)
  1a:	5f30                	lw	x12,120(x14)
  1c:	326d                	jal	fffff9c6 <.L181+0xffffebaa>
  1e:	3070                	fld	f12,224(x8)
  20:	615f 7032 5f30      	0x5f307032615f
  26:	3266                	fld	f4,120(x2)
  28:	3070                	fld	f12,224(x8)
	...
