
kernel_batch_norm.o:     file format elf32-littleriscv


Disassembly of section .group:

00000000 <_ZN8HBTensorIfLl4EEC5EP11hb_tensor_t>:
   0:	0001                	nop
   2:	0000                	unimp
   4:	0008                	0x8
   6:	0000                	unimp
   8:	0009                	c.nop	2
	...

Disassembly of section .group:

00000000 <_ZN8HBTensorIfLl1EEC5EP11hb_tensor_t>:
   0:	0001                	nop
   2:	0000                	unimp
   4:	000a                	c.slli	x0,0x2
   6:	0000                	unimp
   8:	0000000b          	0xb

Disassembly of section .text:

00000000 <tensorlib_batch_norm2d_transform_input>:
       0:	ea010113          	addi	x2,x2,-352
       4:	00050313          	mv	x6,x10
       8:	15612023          	sw	x22,320(x2)
       c:	0b810513          	addi	x10,x2,184
      10:	00058b13          	mv	x22,x11
      14:	00030593          	mv	x11,x6
      18:	14112e23          	sw	x1,348(x2)
      1c:	14812c23          	sw	x8,344(x2)
      20:	14912a23          	sw	x9,340(x2)
      24:	00088413          	mv	x8,x17
      28:	00080493          	mv	x9,x16
      2c:	15212823          	sw	x18,336(x2)
      30:	15312623          	sw	x19,332(x2)
      34:	00078913          	mv	x18,x15
      38:	00070993          	mv	x19,x14
      3c:	15412423          	sw	x20,328(x2)
      40:	15512223          	sw	x21,324(x2)
      44:	00068a13          	mv	x20,x13
      48:	00060a93          	mv	x21,x12
      4c:	13a12823          	sw	x26,304(x2)
      50:	13b12623          	sw	x27,300(x2)
      54:	13712e23          	sw	x23,316(x2)
      58:	13812c23          	sw	x24,312(x2)
      5c:	13912a23          	sw	x25,308(x2)
      60:	00000097          	auipc	x1,0x0
      64:	000080e7          	jalr	x1 # 60 <tensorlib_batch_norm2d_transform_input+0x60>
      68:	000b0593          	mv	x11,x22
      6c:	0ec10513          	addi	x10,x2,236
      70:	00000097          	auipc	x1,0x0
      74:	000080e7          	jalr	x1 # 70 <tensorlib_batch_norm2d_transform_input+0x70>
      78:	000a8593          	mv	x11,x21
      7c:	01010513          	addi	x10,x2,16
      80:	00000097          	auipc	x1,0x0
      84:	000080e7          	jalr	x1 # 80 <tensorlib_batch_norm2d_transform_input+0x80>
      88:	000a0593          	mv	x11,x20
      8c:	02c10513          	addi	x10,x2,44
      90:	00000097          	auipc	x1,0x0
      94:	000080e7          	jalr	x1 # 90 <tensorlib_batch_norm2d_transform_input+0x90>
      98:	00098593          	mv	x11,x19
      9c:	04810513          	addi	x10,x2,72
      a0:	00000097          	auipc	x1,0x0
      a4:	000080e7          	jalr	x1 # a0 <tensorlib_batch_norm2d_transform_input+0xa0>
      a8:	00090593          	mv	x11,x18
      ac:	06410513          	addi	x10,x2,100
      b0:	00000097          	auipc	x1,0x0
      b4:	000080e7          	jalr	x1 # b0 <tensorlib_batch_norm2d_transform_input+0xb0>
      b8:	00048593          	mv	x11,x9
      bc:	08010513          	addi	x10,x2,128
      c0:	00000097          	auipc	x1,0x0
      c4:	000080e7          	jalr	x1 # c0 <tensorlib_batch_norm2d_transform_input+0xc0>
      c8:	09c10513          	addi	x10,x2,156
      cc:	00040593          	mv	x11,x8
      d0:	00000097          	auipc	x1,0x0
      d4:	000080e7          	jalr	x1 # d0 <tensorlib_batch_norm2d_transform_input+0xd0>
      d8:	0f812783          	lw	x15,248(x2)
      dc:	16012703          	lw	x14,352(x2)
      e0:	16412283          	lw	x5,356(x2)
      e4:	0047ad03          	lw	x26,4(x15)
      e8:	00072d83          	lw	x27,0(x14)
      ec:	0002a007          	flw	f0,0(x5)
      f0:	0007ae83          	lw	x29,0(x15)
      f4:	0087ae03          	lw	x28,8(x15)
      f8:	00c7a503          	lw	x10,12(x15)
      fc:	180d0463          	beqz	x26,284 <.L50>
     100:	03ce80b3          	mul	x1,x29,x28
     104:	000003b7          	lui	x7,0x0
     108:	0003a587          	flw	f11,0(x7) # 0 <tensorlib_batch_norm2d_transform_input>
     10c:	00000413          	li	x8,0
     110:	00100c93          	li	x25,1
     114:	20b58553          	fmv.s	f10,f11
     118:	02a08333          	mul	x6,x1,x10
     11c:	02ae0f33          	mul	x30,x28,x10
     120:	00435593          	srli	x11,x6,0x4
     124:	fff30613          	addi	x12,x6,-1
     128:	00158693          	addi	x13,x11,1
     12c:	00c12423          	sw	x12,8(x2)
     130:	00d12623          	sw	x13,12(x2)

00000134 <.L51>:
     134:	1e0d8a63          	beqz	x27,328 <.L21>
     138:	04812483          	lw	x9,72(x2)
     13c:	2c947463          	bgeu	x8,x9,404 <.L95>
     140:	04c12703          	lw	x14,76(x2)
     144:	05812783          	lw	x15,88(x2)
     148:	51970c63          	beq	x14,x25,660 <.L24>
     14c:	06412803          	lw	x16,100(x2)
     150:	00241693          	slli	x13,x8,0x2
     154:	00d78633          	add	x12,x15,x13
     158:	53047263          	bgeu	x8,x16,67c <.L96>

0000015c <.L26>:
     15c:	06812883          	lw	x17,104(x2)
     160:	07412b83          	lw	x23,116(x2)
     164:	31988863          	beq	x17,x25,474 <.L28>
     168:	00241993          	slli	x19,x8,0x2
     16c:	013b8a33          	add	x20,x23,x19

00000170 <.L29>:
     170:	01012903          	lw	x18,16(x2)
     174:	00062687          	flw	f13,0(x12)
     178:	000a2787          	flw	f15,0(x20)
     17c:	20a501d3          	fmv.s	f3,f10
     180:	20091063          	bnez	x18,380 <.L97>

00000184 <.L39>:
     184:	02c12683          	lw	x13,44(x2)
     188:	20068e63          	beqz	x13,3a4 <.L72>

0000018c <.L103>:
     18c:	54d47463          	bgeu	x8,x13,6d4 <.L98>
     190:	03012803          	lw	x16,48(x2)
     194:	03c12883          	lw	x17,60(x2)
     198:	5f980663          	beq	x16,x25,784 <.L47>
     19c:	00241a13          	slli	x20,x8,0x2
     1a0:	01488ab3          	add	x21,x17,x20

000001a4 <.L48>:
     1a4:	000aa607          	flw	f12,0(x21)

000001a8 <.L44>:
     1a8:	00812983          	lw	x19,8(x2)
     1ac:	ffd00913          	li	x18,-3
     1b0:	0d396663          	bltu	x18,x19,27c <.L53>
     1b4:	000004b7          	lui	x9,0x0
     1b8:	00c12783          	lw	x15,12(x2)
     1bc:	0004a703          	lw	x14,0(x9) # 0 <tensorlib_batch_norm2d_transform_input>
     1c0:	02e785b3          	mul	x11,x15,x14
     1c4:	00b780b3          	add	x1,x15,x11
     1c8:	00137463          	bgeu	x6,x1,1d0 <.L52>
     1cc:	00030093          	mv	x1,x6

000001d0 <.L52>:
     1d0:	0a15f663          	bgeu	x11,x1,27c <.L53>
     1d4:	0f412603          	lw	x12,244(x2)
     1d8:	0c012683          	lw	x13,192(x2)
     1dc:	10f1f253          	fmul.s	f4,f3,f15
     1e0:	00462383          	lw	x7,4(x12)
     1e4:	0046a283          	lw	x5,4(x13)
     1e8:	0fc12c03          	lw	x24,252(x2)
     1ec:	02740fb3          	mul	x31,x8,x7
     1f0:	00062b83          	lw	x23,0(x12)
     1f4:	00c62b03          	lw	x22,12(x12)
     1f8:	00862a83          	lw	x21,8(x12)
     1fc:	0c812a03          	lw	x20,200(x2)
     200:	0006a983          	lw	x19,0(x13)
     204:	00c6a903          	lw	x18,12(x13)
     208:	0086a483          	lw	x9,8(x13)
     20c:	025403b3          	mul	x7,x8,x5

00000210 <.L54>:
     210:	03e5d833          	divu	x16,x11,x30
     214:	02a5d8b3          	divu	x17,x11,x10
     218:	02a5f7b3          	remu	x15,x11,x10
     21c:	00158593          	addi	x11,x11,1
     220:	03d87633          	remu	x12,x16,x29
     224:	03c8f6b3          	remu	x13,x17,x28
     228:	03678733          	mul	x14,x15,x22
     22c:	037602b3          	mul	x5,x12,x23
     230:	00ef88b3          	add	x17,x31,x14
     234:	03568833          	mul	x16,x13,x21
     238:	00588733          	add	x14,x17,x5
     23c:	010702b3          	add	x5,x14,x16
     240:	00229893          	slli	x17,x5,0x2
     244:	032787b3          	mul	x15,x15,x18
     248:	011c0833          	add	x16,x24,x17
     24c:	00082287          	flw	f5,0(x16)
     250:	08d2f353          	fsub.s	f6,f5,f13
     254:	03360633          	mul	x12,x12,x19
     258:	00778733          	add	x14,x15,x7
     25c:	606273c3          	fmadd.s	f7,f4,f6,f12
     260:	029686b3          	mul	x13,x13,x9
     264:	00c702b3          	add	x5,x14,x12
     268:	00d287b3          	add	x15,x5,x13
     26c:	00279893          	slli	x17,x15,0x2
     270:	011a0833          	add	x16,x20,x17
     274:	00782027          	fsw	f7,0(x16)
     278:	f8b09ce3          	bne	x1,x11,210 <.L54>

0000027c <.L53>:
     27c:	00140413          	addi	x8,x8,1
     280:	ea8d1ae3          	bne	x26,x8,134 <.L51>

00000284 <.L50>:
     284:	000000b7          	lui	x1,0x0
     288:	0000aa83          	lw	x21,0(x1) # 0 <tensorlib_batch_norm2d_transform_input>
     28c:	00000a37          	lui	x20,0x0
     290:	000a2983          	lw	x19,0(x20) # 0 <tensorlib_batch_norm2d_transform_input>
     294:	00000937          	lui	x18,0x0
     298:	004a8493          	addi	x9,x21,4
     29c:	00090793          	mv	x15,x18
     2a0:	009783b3          	add	x7,x15,x9
     2a4:	01899593          	slli	x11,x19,0x18
     2a8:	00b3e733          	or	x14,x7,x11
     2ac:	20040637          	lui	x12,0x20040
     2b0:	00c766b3          	or	x13,x14,x12
     2b4:	00100293          	li	x5,1
     2b8:	00568023          	sb	x5,0(x13)
     2bc:	0000a883          	lw	x17,0(x1)
     2c0:	1c588663          	beq	x17,x5,48c <.L55>

000002c4 <.L66>:
     2c4:	00100a13          	li	x20,1
     2c8:	0100006f          	j	2d8 <.L70>

000002cc <.L99>:
     2cc:	00090c93          	mv	x25,x18
     2d0:	140ca62f          	lr.w.aq	x12,(x25)
     2d4:	01460863          	beq	x12,x20,2e4 <.L69>

000002d8 <.L70>:
     2d8:	00090e93          	mv	x29,x18
     2dc:	100eae2f          	lr.w	x28,(x29)
     2e0:	ff4e16e3          	bne	x28,x20,2cc <.L99>

000002e4 <.L69>:
     2e4:	15c12083          	lw	x1,348(x2)
     2e8:	15812403          	lw	x8,344(x2)
     2ec:	0007a023          	sw	x0,0(x15)
     2f0:	15412483          	lw	x9,340(x2)
     2f4:	15012903          	lw	x18,336(x2)
     2f8:	14c12983          	lw	x19,332(x2)
     2fc:	14812a03          	lw	x20,328(x2)
     300:	14412a83          	lw	x21,324(x2)
     304:	14012b03          	lw	x22,320(x2)
     308:	13c12b83          	lw	x23,316(x2)
     30c:	13812c03          	lw	x24,312(x2)
     310:	13412c83          	lw	x25,308(x2)
     314:	13012d03          	lw	x26,304(x2)
     318:	12c12d83          	lw	x27,300(x2)
     31c:	00000513          	li	x10,0
     320:	16010113          	addi	x2,x2,352
     324:	00008067          	ret

00000328 <.L21>:
     328:	08012803          	lw	x16,128(x2)
     32c:	09047063          	bgeu	x8,x16,3ac <.L100>
     330:	08412883          	lw	x17,132(x2)
     334:	09012b83          	lw	x23,144(x2)
     338:	2b988a63          	beq	x17,x25,5ec <.L33>
     33c:	09c12903          	lw	x18,156(x2)
     340:	00241993          	slli	x19,x8,0x2
     344:	013b8a33          	add	x20,x23,x19
     348:	2d247063          	bgeu	x8,x18,608 <.L101>

0000034c <.L35>:
     34c:	0a012483          	lw	x9,160(x2)
     350:	0ac12783          	lw	x15,172(x2)
     354:	11948463          	beq	x9,x25,45c <.L37>
     358:	00241613          	slli	x12,x8,0x2
     35c:	00c785b3          	add	x11,x15,x12

00000360 <.L38>:
     360:	0005a707          	flw	f14,0(x11)
     364:	01012903          	lw	x18,16(x2)
     368:	000a2687          	flw	f13,0(x20)
     36c:	00e070d3          	fadd.s	f1,f0,f14
     370:	20a501d3          	fmv.s	f3,f10
     374:	5800f153          	fsqrt.s	f2,f1
     378:	1825f7d3          	fdiv.s	f15,f11,f2
     37c:	e00904e3          	beqz	x18,184 <.L39>

00000380 <.L97>:
     380:	3b247663          	bgeu	x8,x18,72c <.L102>
     384:	01412483          	lw	x9,20(x2)
     388:	02012783          	lw	x15,32(x2)
     38c:	41948863          	beq	x9,x25,79c <.L42>
     390:	00241613          	slli	x12,x8,0x2
     394:	00c785b3          	add	x11,x15,x12
     398:	0005a187          	flw	f3,0(x11)

0000039c <.L106>:
     39c:	02c12683          	lw	x13,44(x2)
     3a0:	de0696e3          	bnez	x13,18c <.L103>

000003a4 <.L72>:
     3a4:	f0000653          	fmv.w.x	f12,x0
     3a8:	e01ff06f          	j	1a8 <.L44>

000003ac <.L100>:
     3ac:	00000837          	lui	x16,0x0
     3b0:	000008b7          	lui	x17,0x0
     3b4:	00080593          	mv	x11,x16
     3b8:	07f00613          	li	x12,127
     3bc:	00088513          	mv	x10,x17
     3c0:	00000097          	auipc	x1,0x0
     3c4:	000080e7          	jalr	x1 # 3c0 <.L100+0x14>
     3c8:	08012583          	lw	x11,128(x2)
     3cc:	00000bb7          	lui	x23,0x0
     3d0:	00040613          	mv	x12,x8
     3d4:	000b8513          	mv	x10,x23
     3d8:	00000097          	auipc	x1,0x0
     3dc:	000080e7          	jalr	x1 # 3d8 <.L100+0x2c>
     3e0:	00000c37          	lui	x24,0x0
     3e4:	000c2f83          	lw	x31,0(x24) # 0 <tensorlib_batch_norm2d_transform_input>
     3e8:	00000b37          	lui	x22,0x0
     3ec:	000b2a83          	lw	x21,0(x22) # 0 <tensorlib_batch_norm2d_transform_input>
     3f0:	010f9a13          	slli	x20,x31,0x10
     3f4:	4100f937          	lui	x18,0x4100f
     3f8:	015a09b3          	add	x19,x20,x21
     3fc:	ad392c23          	sw	x19,-1320(x18) # 4100ead8 <.L690+0x4100c154>

00000400 <.L32>:
     400:	0000006f          	j	400 <.L32>

00000404 <.L95>:
     404:	00000eb7          	lui	x29,0x0
     408:	00000e37          	lui	x28,0x0
     40c:	000e8593          	mv	x11,x29
     410:	07f00613          	li	x12,127
     414:	000e0513          	mv	x10,x28
     418:	00000097          	auipc	x1,0x0
     41c:	000080e7          	jalr	x1 # 418 <.L95+0x14>
     420:	04812583          	lw	x11,72(x2)
     424:	00000537          	lui	x10,0x0
     428:	00040613          	mv	x12,x8
     42c:	00050513          	mv	x10,x10
     430:	00000097          	auipc	x1,0x0
     434:	000080e7          	jalr	x1 # 430 <.L95+0x2c>
     438:	00000cb7          	lui	x25,0x0
     43c:	000ca303          	lw	x6,0(x25) # 0 <tensorlib_batch_norm2d_transform_input>
     440:	00000f37          	lui	x30,0x0
     444:	000f2c03          	lw	x24,0(x30) # 0 <tensorlib_batch_norm2d_transform_input>
     448:	01031f93          	slli	x31,x6,0x10
     44c:	4100fb37          	lui	x22,0x4100f
     450:	018f8bb3          	add	x23,x31,x24
     454:	ad7b2c23          	sw	x23,-1320(x22) # 4100ead8 <.L690+0x4100c154>

00000458 <.L23>:
     458:	0000006f          	j	458 <.L23>

0000045c <.L37>:
     45c:	0a412703          	lw	x14,164(x2)
     460:	00072283          	lw	x5,0(x14)
     464:	025400b3          	mul	x1,x8,x5
     468:	00209393          	slli	x7,x1,0x2
     46c:	007785b3          	add	x11,x15,x7
     470:	ef1ff06f          	j	360 <.L38>

00000474 <.L28>:
     474:	06c12c03          	lw	x24,108(x2)
     478:	000c2f83          	lw	x31,0(x24)
     47c:	03f40b33          	mul	x22,x8,x31
     480:	002b1a93          	slli	x21,x22,0x2
     484:	015b8a33          	add	x20,x23,x21
     488:	ce9ff06f          	j	170 <.L29>

0000048c <.L55>:
     48c:	0047c803          	lbu	x16,4(x15)
     490:	0ff87413          	andi	x8,x16,255
     494:	fe040ce3          	beqz	x8,48c <.L55>
     498:	0057cd83          	lbu	x27,5(x15)
     49c:	0ffdfd13          	andi	x26,x27,255
     4a0:	fe0d06e3          	beqz	x26,48c <.L55>
     4a4:	0067ce83          	lbu	x29,6(x15)
     4a8:	0ffefe13          	andi	x28,x29,255
     4ac:	fe0e00e3          	beqz	x28,48c <.L55>
     4b0:	0077c503          	lbu	x10,7(x15)
     4b4:	0ff57c93          	andi	x25,x10,255
     4b8:	fc0c8ae3          	beqz	x25,48c <.L55>
     4bc:	000a2303          	lw	x6,0(x20)
     4c0:	21040bb7          	lui	x23,0x21040
     4c4:	00100f13          	li	x30,1
     4c8:	00c30c13          	addi	x24,x6,12
     4cc:	01878fb3          	add	x31,x15,x24
     4d0:	017feb33          	or	x22,x31,x23
     4d4:	01eb0023          	sb	x30,0(x22)
     4d8:	0000aa83          	lw	x21,0(x1)
     4dc:	dfea94e3          	bne	x21,x30,2c4 <.L66>
     4e0:	000a2b83          	lw	x23,0(x20)
     4e4:	075b8c63          	beq	x23,x21,55c <.L60>

000004e8 <.L65>:
     4e8:	00100b13          	li	x22,1
     4ec:	0100006f          	j	4fc <.L59>

000004f0 <.L104>:
     4f0:	00878493          	addi	x9,x15,8
     4f4:	1404a3af          	lr.w.aq	x7,(x9)
     4f8:	01638863          	beq	x7,x22,508 <.L67>

000004fc <.L59>:
     4fc:	00878a93          	addi	x21,x15,8
     500:	100aa9af          	lr.w	x19,(x21)
     504:	ff6996e3          	bne	x19,x22,4f0 <.L104>

00000508 <.L67>:
     508:	0007a423          	sw	x0,8(x15)
     50c:	00078223          	sb	x0,4(x15)
     510:	000782a3          	sb	x0,5(x15)
     514:	00078323          	sb	x0,6(x15)
     518:	000783a3          	sb	x0,7(x15)
     51c:	0007a023          	sw	x0,0(x15)
     520:	00000413          	li	x8,0
     524:	00090793          	mv	x15,x18
     528:	200005b7          	lui	x11,0x20000
     52c:	00100713          	li	x14,1
     530:	000402b7          	lui	x5,0x40
     534:	001008b7          	lui	x17,0x100

00000538 <.L68>:
     538:	000a2683          	lw	x13,0(x20)
     53c:	0087e833          	or	x16,x15,x8
     540:	00540433          	add	x8,x8,x5
     544:	01869d93          	slli	x27,x13,0x18
     548:	010ded33          	or	x26,x27,x16
     54c:	00bd6533          	or	x10,x26,x11
     550:	00e52023          	sw	x14,0(x10) # 0 <tensorlib_batch_norm2d_transform_input>
     554:	ff1412e3          	bne	x8,x17,538 <.L68>
     558:	d6dff06f          	j	2c4 <.L66>

0000055c <.L60>:
     55c:	00c7c983          	lbu	x19,12(x15)
     560:	0ff9f493          	andi	x9,x19,255
     564:	fe048ce3          	beqz	x9,55c <.L60>
     568:	00d7c383          	lbu	x7,13(x15)
     56c:	0ff3f593          	andi	x11,x7,255
     570:	fe0586e3          	beqz	x11,55c <.L60>
     574:	00e7c703          	lbu	x14,14(x15)
     578:	0ff77693          	andi	x13,x14,255
     57c:	fe0680e3          	beqz	x13,55c <.L60>
     580:	00f7c283          	lbu	x5,15(x15)
     584:	0ff2f893          	andi	x17,x5,255
     588:	fc088ae3          	beqz	x17,55c <.L60>
     58c:	00078623          	sb	x0,12(x15)
     590:	000786a3          	sb	x0,13(x15)
     594:	00078723          	sb	x0,14(x15)
     598:	000787a3          	sb	x0,15(x15)
     59c:	00000837          	lui	x16,0x0
     5a0:	0007a423          	sw	x0,8(x15)
     5a4:	00000f93          	li	x31,0
     5a8:	00880413          	addi	x8,x16,8 # 8 <tensorlib_batch_norm2d_transform_input+0x8>
     5ac:	03fc0db7          	lui	x27,0x3fc0
     5b0:	20000d37          	lui	x26,0x20000
     5b4:	00100513          	li	x10,1
     5b8:	01000eb7          	lui	x29,0x1000
     5bc:	04000e37          	lui	x28,0x4000

000005c0 <.L64>:
     5c0:	012b9c93          	slli	x25,x23,0x12
     5c4:	01f46633          	or	x12,x8,x31
     5c8:	01bcf333          	and	x6,x25,x27
     5cc:	00c36f33          	or	x30,x6,x12
     5d0:	01af6c33          	or	x24,x30,x26
     5d4:	00ac2023          	sw	x10,0(x24)
     5d8:	01df8fb3          	add	x31,x31,x29
     5dc:	1dcf9e63          	bne	x31,x28,7b8 <.L105>
     5e0:	0000a083          	lw	x1,0(x1)
     5e4:	f0a082e3          	beq	x1,x10,4e8 <.L65>
     5e8:	cddff06f          	j	2c4 <.L66>

000005ec <.L33>:
     5ec:	08812c03          	lw	x24,136(x2)
     5f0:	09c12903          	lw	x18,156(x2)
     5f4:	000c2f83          	lw	x31,0(x24)
     5f8:	03f40b33          	mul	x22,x8,x31
     5fc:	002b1a93          	slli	x21,x22,0x2
     600:	015b8a33          	add	x20,x23,x21
     604:	d52464e3          	bltu	x8,x18,34c <.L35>

00000608 <.L101>:
     608:	00000db7          	lui	x27,0x0
     60c:	00000d37          	lui	x26,0x0
     610:	000d8593          	mv	x11,x27
     614:	07f00613          	li	x12,127
     618:	000d0513          	mv	x10,x26
     61c:	00000097          	auipc	x1,0x0
     620:	000080e7          	jalr	x1 # 61c <.L101+0x14>
     624:	09c12583          	lw	x11,156(x2)
     628:	00040613          	mv	x12,x8
     62c:	00000437          	lui	x8,0x0
     630:	00040513          	mv	x10,x8
     634:	00000097          	auipc	x1,0x0
     638:	000080e7          	jalr	x1 # 634 <.L101+0x2c>
     63c:	00000eb7          	lui	x29,0x0
     640:	000eae03          	lw	x28,0(x29) # 0 <tensorlib_batch_norm2d_transform_input>
     644:	00000537          	lui	x10,0x0
     648:	00052c83          	lw	x25,0(x10) # 0 <tensorlib_batch_norm2d_transform_input>
     64c:	010e1313          	slli	x6,x28,0x10
     650:	4100f6b7          	lui	x13,0x4100f
     654:	01930f33          	add	x30,x6,x25
     658:	ade6ac23          	sw	x30,-1320(x13) # 4100ead8 <.L690+0x4100c154>

0000065c <.L36>:
     65c:	0000006f          	j	65c <.L36>

00000660 <.L24>:
     660:	05012283          	lw	x5,80(x2)
     664:	06412803          	lw	x16,100(x2)
     668:	0002a083          	lw	x1,0(x5) # 40000 <.L690+0x3d67c>
     66c:	021403b3          	mul	x7,x8,x1
     670:	00239593          	slli	x11,x7,0x2
     674:	00b78633          	add	x12,x15,x11
     678:	af0462e3          	bltu	x8,x16,15c <.L26>

0000067c <.L96>:
     67c:	00000737          	lui	x14,0x0
     680:	00000637          	lui	x12,0x0
     684:	00060593          	mv	x11,x12
     688:	00070513          	mv	x10,x14
     68c:	07f00613          	li	x12,127
     690:	00000097          	auipc	x1,0x0
     694:	000080e7          	jalr	x1 # 690 <.L96+0x14>
     698:	06412583          	lw	x11,100(x2)
     69c:	000006b7          	lui	x13,0x0
     6a0:	00040613          	mv	x12,x8
     6a4:	00068513          	mv	x10,x13
     6a8:	00000097          	auipc	x1,0x0
     6ac:	000080e7          	jalr	x1 # 6a8 <.L96+0x2c>
     6b0:	000002b7          	lui	x5,0x0
     6b4:	0002a783          	lw	x15,0(x5) # 0 <tensorlib_batch_norm2d_transform_input>
     6b8:	000008b7          	lui	x17,0x0
     6bc:	0008a803          	lw	x16,0(x17) # 0 <tensorlib_batch_norm2d_transform_input>
     6c0:	01079413          	slli	x8,x15,0x10
     6c4:	4100fd37          	lui	x26,0x4100f
     6c8:	01040db3          	add	x27,x8,x16
     6cc:	adbd2c23          	sw	x27,-1320(x26) # 4100ead8 <.L690+0x4100c154>

000006d0 <.L27>:
     6d0:	0000006f          	j	6d0 <.L27>

000006d4 <.L98>:
     6d4:	00000db7          	lui	x27,0x0
     6d8:	00000d37          	lui	x26,0x0
     6dc:	000d8593          	mv	x11,x27
     6e0:	07f00613          	li	x12,127
     6e4:	000d0513          	mv	x10,x26
     6e8:	00000097          	auipc	x1,0x0
     6ec:	000080e7          	jalr	x1 # 6e8 <.L98+0x14>
     6f0:	02c12583          	lw	x11,44(x2)
     6f4:	00000eb7          	lui	x29,0x0
     6f8:	00040613          	mv	x12,x8
     6fc:	000e8513          	mv	x10,x29
     700:	00000097          	auipc	x1,0x0
     704:	000080e7          	jalr	x1 # 700 <.L98+0x2c>
     708:	00000e37          	lui	x28,0x0
     70c:	000e2503          	lw	x10,0(x28) # 0 <tensorlib_batch_norm2d_transform_input>
     710:	00000cb7          	lui	x25,0x0
     714:	000ca303          	lw	x6,0(x25) # 0 <tensorlib_batch_norm2d_transform_input>
     718:	01051f13          	slli	x30,x10,0x10
     71c:	4100ffb7          	lui	x31,0x4100f
     720:	006f0c33          	add	x24,x30,x6
     724:	ad8fac23          	sw	x24,-1320(x31) # 4100ead8 <.L690+0x4100c154>

00000728 <.L46>:
     728:	0000006f          	j	728 <.L46>

0000072c <.L102>:
     72c:	000000b7          	lui	x1,0x0
     730:	00000bb7          	lui	x23,0x0
     734:	00008593          	mv	x11,x1
     738:	07f00613          	li	x12,127
     73c:	000b8513          	mv	x10,x23
     740:	00000097          	auipc	x1,0x0
     744:	000080e7          	jalr	x1 # 740 <.L102+0x14>
     748:	01012583          	lw	x11,16(x2)
     74c:	00000b37          	lui	x22,0x0
     750:	00040613          	mv	x12,x8
     754:	000b0513          	mv	x10,x22
     758:	00000ab7          	lui	x21,0x0
     75c:	00000097          	auipc	x1,0x0
     760:	000080e7          	jalr	x1 # 75c <.L102+0x30>
     764:	000009b7          	lui	x19,0x0
     768:	000aaa03          	lw	x20,0(x21) # 0 <tensorlib_batch_norm2d_transform_input>
     76c:	0009a903          	lw	x18,0(x19) # 0 <tensorlib_batch_norm2d_transform_input>
     770:	4100f5b7          	lui	x11,0x4100f
     774:	010a1493          	slli	x9,x20,0x10
     778:	012483b3          	add	x7,x9,x18
     77c:	ac75ac23          	sw	x7,-1320(x11) # 4100ead8 <.L690+0x4100c154>

00000780 <.L41>:
     780:	0000006f          	j	780 <.L41>

00000784 <.L47>:
     784:	03412b83          	lw	x23,52(x2)
     788:	000bac03          	lw	x24,0(x23) # 0 <tensorlib_batch_norm2d_transform_input>
     78c:	03840fb3          	mul	x31,x8,x24
     790:	002f9b13          	slli	x22,x31,0x2
     794:	01688ab3          	add	x21,x17,x22
     798:	a0dff06f          	j	1a4 <.L48>

0000079c <.L42>:
     79c:	01812703          	lw	x14,24(x2)
     7a0:	00072283          	lw	x5,0(x14) # 0 <tensorlib_batch_norm2d_transform_input>
     7a4:	025400b3          	mul	x1,x8,x5
     7a8:	00209393          	slli	x7,x1,0x2
     7ac:	007785b3          	add	x11,x15,x7
     7b0:	0005a187          	flw	f3,0(x11)
     7b4:	be9ff06f          	j	39c <.L106>

000007b8 <.L105>:
     7b8:	0000ab83          	lw	x23,0(x1)
     7bc:	e05ff06f          	j	5c0 <.L64>

000007c0 <tensorlib_batch_norm2d_update_stats>:
     7c0:	ee010113          	addi	x2,x2,-288
     7c4:	00050893          	mv	x17,x10
     7c8:	11512223          	sw	x21,260(x2)
     7cc:	03c10513          	addi	x10,x2,60
     7d0:	00058a93          	mv	x21,x11
     7d4:	00088593          	mv	x11,x17
     7d8:	10112e23          	sw	x1,284(x2)
     7dc:	10812c23          	sw	x8,280(x2)
     7e0:	10912a23          	sw	x9,276(x2)
     7e4:	00080413          	mv	x8,x16
     7e8:	00078493          	mv	x9,x15
     7ec:	11212823          	sw	x18,272(x2)
     7f0:	11312623          	sw	x19,268(x2)
     7f4:	00070913          	mv	x18,x14
     7f8:	00068993          	mv	x19,x13
     7fc:	11412423          	sw	x20,264(x2)
     800:	11612023          	sw	x22,256(x2)
     804:	00060a13          	mv	x20,x12
     808:	0f712e23          	sw	x23,252(x2)
     80c:	0f812c23          	sw	x24,248(x2)
     810:	0f912a23          	sw	x25,244(x2)
     814:	0fa12823          	sw	x26,240(x2)
     818:	0fb12623          	sw	x27,236(x2)
     81c:	00000097          	auipc	x1,0x0
     820:	000080e7          	jalr	x1 # 81c <tensorlib_batch_norm2d_update_stats+0x5c>
     824:	000a8593          	mv	x11,x21
     828:	05810513          	addi	x10,x2,88
     82c:	00000097          	auipc	x1,0x0
     830:	000080e7          	jalr	x1 # 82c <tensorlib_batch_norm2d_update_stats+0x6c>
     834:	000a0593          	mv	x11,x20
     838:	0ac10513          	addi	x10,x2,172
     83c:	00000097          	auipc	x1,0x0
     840:	000080e7          	jalr	x1 # 83c <tensorlib_batch_norm2d_update_stats+0x7c>
     844:	00098593          	mv	x11,x19
     848:	07410513          	addi	x10,x2,116
     84c:	00000097          	auipc	x1,0x0
     850:	000080e7          	jalr	x1 # 84c <tensorlib_batch_norm2d_update_stats+0x8c>
     854:	00090593          	mv	x11,x18
     858:	09010513          	addi	x10,x2,144
     85c:	00000097          	auipc	x1,0x0
     860:	000080e7          	jalr	x1 # 85c <tensorlib_batch_norm2d_update_stats+0x9c>
     864:	0b812703          	lw	x14,184(x2)
     868:	0ac12783          	lw	x15,172(x2)
     86c:	0004a587          	flw	f11,0(x9)
     870:	00472683          	lw	x13,4(x14)
     874:	00042187          	flw	f3,0(x8) # 0 <tensorlib_batch_norm2d_transform_input>
     878:	00072e03          	lw	x28,0(x14)
     87c:	00d12a23          	sw	x13,20(x2)
     880:	02d7d2b3          	divu	x5,x15,x13
     884:	00872303          	lw	x6,8(x14)
     888:	00c72883          	lw	x17,12(x14)
     88c:	70068c63          	beqz	x13,fa4 <.L258>
     890:	fff28093          	addi	x1,x5,-1
     894:	000003b7          	lui	x7,0x0
     898:	0003a687          	flw	f13,0(x7) # 0 <tensorlib_batch_norm2d_transform_input>
     89c:	d010f753          	fcvt.s.wu	f14,x1
     8a0:	d012f653          	fcvt.s.wu	f12,x5
     8a4:	08b6f553          	fsub.s	f10,f13,f11
     8a8:	18e6f0d3          	fdiv.s	f1,f13,f14
     8ac:	000005b7          	lui	x11,0x0
     8b0:	20d68053          	fmv.s	f0,f13
     8b4:	00000537          	lui	x10,0x0
     8b8:	20a50153          	fmv.s	f2,f10
     8bc:	00858613          	addi	x12,x11,8 # 8 <tensorlib_batch_norm2d_transform_input+0x8>
     8c0:	00000b13          	li	x22,0
     8c4:	00000cb7          	lui	x25,0x0
     8c8:	000004b7          	lui	x9,0x0
     8cc:	00050693          	mv	x13,x10
     8d0:	00000437          	lui	x8,0x0
     8d4:	00100713          	li	x14,1
     8d8:	21040ab7          	lui	x21,0x21040
     8dc:	00c12623          	sw	x12,12(x2)
     8e0:	20000bb7          	lui	x23,0x20000
     8e4:	00050c13          	mv	x24,x10
     8e8:	00040db7          	lui	x27,0x40
     8ec:	00100d37          	lui	x26,0x100
     8f0:	18c6f253          	fdiv.s	f4,f13,f12
     8f4:	1015f2d3          	fmul.s	f5,f11,f1
     8f8:	026e0833          	mul	x16,x28,x6
     8fc:	03180a33          	mul	x20,x16,x17
     900:	03130eb3          	mul	x29,x6,x17
     904:	004a5f13          	srli	x30,x20,0x4
     908:	fffa0f93          	addi	x31,x20,-1
     90c:	001f0993          	addi	x19,x30,1
     910:	01f12023          	sw	x31,0(x2)
     914:	01312823          	sw	x19,16(x2)

00000918 <.L219>:
     918:	00000937          	lui	x18,0x0
     91c:	00092783          	lw	x15,0(x18) # 0 <tensorlib_batch_norm2d_transform_input>
     920:	000ca283          	lw	x5,0(x25) # 0 <tensorlib_batch_norm2d_transform_input>
     924:	00012083          	lw	x1,0(x2)
     928:	00f12223          	sw	x15,4(x2)
     92c:	00512423          	sw	x5,8(x2)
     930:	ffd00393          	li	x7,-3
     934:	f00007d3          	fmv.w.x	f15,x0
     938:	0613ee63          	bltu	x7,x1,9b4 <.L109>
     93c:	01012583          	lw	x11,16(x2)
     940:	02558633          	mul	x12,x11,x5
     944:	00c58f33          	add	x30,x11,x12
     948:	75ea6063          	bltu	x20,x30,1088 <.L313>

0000094c <.L110>:
     94c:	f00007d3          	fmv.w.x	f15,x0
     950:	07e67263          	bgeu	x12,x30,9b4 <.L109>
     954:	0b412803          	lw	x16,180(x2)
     958:	0bc12983          	lw	x19,188(x2)
     95c:	00482f83          	lw	x31,4(x16)
     960:	00082903          	lw	x18,0(x16)
     964:	00c82083          	lw	x1,12(x16)
     968:	03fb03b3          	mul	x7,x22,x31
     96c:	00882283          	lw	x5,8(x16)

00000970 <.L111>:
     970:	03d657b3          	divu	x15,x12,x29
     974:	031655b3          	divu	x11,x12,x17
     978:	03c7ffb3          	remu	x31,x15,x28
     97c:	03167833          	remu	x16,x12,x17
     980:	00160613          	addi	x12,x12,1 # 1 <tensorlib_batch_norm2d_transform_input+0x1>
     984:	0265f5b3          	remu	x11,x11,x6
     988:	032f87b3          	mul	x15,x31,x18
     98c:	02180fb3          	mul	x31,x16,x1
     990:	00f38833          	add	x16,x7,x15
     994:	025585b3          	mul	x11,x11,x5
     998:	01f807b3          	add	x15,x16,x31
     99c:	00b78fb3          	add	x31,x15,x11
     9a0:	002f9813          	slli	x16,x31,0x2
     9a4:	010985b3          	add	x11,x19,x16
     9a8:	0005a307          	flw	f6,0(x11)
     9ac:	0067f7d3          	fadd.s	f15,f15,f6
     9b0:	fccf10e3          	bne	x30,x12,970 <.L111>

000009b4 <.L109>:
     9b4:	0004af03          	lw	x30,0(x9) # 0 <tensorlib_batch_norm2d_transform_input>
     9b8:	00042983          	lw	x19,0(x8) # 0 <tensorlib_batch_norm2d_transform_input>
     9bc:	00812903          	lw	x18,8(x2)
     9c0:	00412603          	lw	x12,4(x2)
     9c4:	004f0393          	addi	x7,x30,4
     9c8:	01899793          	slli	x15,x19,0x18
     9cc:	00291093          	slli	x1,x18,0x2
     9d0:	007682b3          	add	x5,x13,x7
     9d4:	00160fb3          	add	x31,x12,x1
     9d8:	00f2e833          	or	x16,x5,x15
     9dc:	200405b7          	lui	x11,0x20040
     9e0:	00ffa027          	fsw	f15,0(x31)
     9e4:	00b86f33          	or	x30,x16,x11
     9e8:	00ef0023          	sb	x14,0(x30)
     9ec:	0004a983          	lw	x19,0(x9)
     9f0:	00e99a63          	bne	x19,x14,a04 <.L129>
     9f4:	1ac0006f          	j	ba0 <.L113>

000009f8 <.L314>:
     9f8:	00050093          	mv	x1,x10
     9fc:	1400a3af          	lr.w.aq	x7,(x1)
     a00:	00e38863          	beq	x7,x14,a10 <.L128>

00000a04 <.L129>:
     a04:	00050993          	mv	x19,x10
     a08:	1009a5af          	lr.w	x11,(x19)
     a0c:	fee596e3          	bne	x11,x14,9f8 <.L314>

00000a10 <.L128>:
     a10:	000ca283          	lw	x5,0(x25)
     a14:	0006a023          	sw	x0,0(x13) # 0 <tensorlib_batch_norm2d_transform_input>
     a18:	62028463          	beqz	x5,1040 <.L315>

00000a1c <.L130>:
     a1c:	0004a803          	lw	x16,0(x9)
     a20:	00042f03          	lw	x30,0(x8)
     a24:	200405b7          	lui	x11,0x20040
     a28:	00480793          	addi	x15,x16,4
     a2c:	00f68633          	add	x12,x13,x15
     a30:	018f1913          	slli	x18,x30,0x18
     a34:	012669b3          	or	x19,x12,x18
     a38:	00b9e0b3          	or	x1,x19,x11
     a3c:	00e08023          	sb	x14,0(x1)
     a40:	0004a383          	lw	x7,0(x9)
     a44:	00e39a63          	bne	x7,x14,a58 <.L153>
     a48:	2940006f          	j	cdc <.L137>

00000a4c <.L316>:
     a4c:	00050f93          	mv	x31,x10
     a50:	140fa82f          	lr.w.aq	x16,(x31)
     a54:	00e80863          	beq	x16,x14,a64 <.L152>

00000a58 <.L153>:
     a58:	00050393          	mv	x7,x10
     a5c:	1003a5af          	lr.w	x11,(x7)
     a60:	fee596e3          	bne	x11,x14,a4c <.L316>

00000a64 <.L152>:
     a64:	00012f03          	lw	x30,0(x2)
     a68:	0006a023          	sw	x0,0(x13)
     a6c:	ffd00793          	li	x15,-3
     a70:	000ca903          	lw	x18,0(x25)
     a74:	39e7ee63          	bltu	x15,x30,e10 <.L223>
     a78:	01012983          	lw	x19,16(x2)
     a7c:	03298633          	mul	x12,x19,x18
     a80:	00c980b3          	add	x1,x19,x12
     a84:	601a6663          	bltu	x20,x1,1090 <.L317>
     a88:	38167463          	bgeu	x12,x1,e10 <.L223>

00000a8c <.L329>:
     a8c:	0b412283          	lw	x5,180(x2)
     a90:	04c12383          	lw	x7,76(x2)
     a94:	0bc12583          	lw	x11,188(x2)
     a98:	0042a803          	lw	x16,4(x5)
     a9c:	0002af83          	lw	x31,0(x5)
     aa0:	00c2af03          	lw	x30,12(x5)
     aa4:	030b07b3          	mul	x15,x22,x16
     aa8:	0082a983          	lw	x19,8(x5)
     aac:	04012803          	lw	x16,64(x2)
     ab0:	01f12423          	sw	x31,8(x2)
     ab4:	04412f83          	lw	x31,68(x2)
     ab8:	03c12283          	lw	x5,60(x2)
     abc:	02712423          	sw	x7,40(x2)
     ac0:	01e12e23          	sw	x30,28(x2)
     ac4:	03312023          	sw	x19,32(x2)
     ac8:	002b1f13          	slli	x30,x22,0x2
     acc:	00f12c23          	sw	x15,24(x2)
     ad0:	03012223          	sw	x16,36(x2)
     ad4:	03f12623          	sw	x31,44(x2)
     ad8:	f00006d3          	fmv.w.x	f13,x0
     adc:	01e383b3          	add	x7,x7,x30
     ae0:	065b7863          	bgeu	x22,x5,b50 <.L318>

00000ae4 <.L156>:
     ae4:	03d657b3          	divu	x15,x12,x29
     ae8:	031659b3          	divu	x19,x12,x17
     aec:	03c7ff33          	remu	x30,x15,x28
     af0:	00812783          	lw	x15,8(x2)
     af4:	03167fb3          	remu	x31,x12,x17
     af8:	0269f9b3          	remu	x19,x19,x6
     afc:	000f8813          	mv	x16,x31
     b00:	01c12f83          	lw	x31,28(x2)
     b04:	02ff0f33          	mul	x30,x30,x15
     b08:	01812783          	lw	x15,24(x2)
     b0c:	01e787b3          	add	x15,x15,x30
     b10:	02012f03          	lw	x30,32(x2)
     b14:	03f80fb3          	mul	x31,x16,x31
     b18:	03e989b3          	mul	x19,x19,x30
     b1c:	01f78833          	add	x16,x15,x31
     b20:	01380fb3          	add	x31,x16,x19
     b24:	02412983          	lw	x19,36(x2)
     b28:	002f9793          	slli	x15,x31,0x2
     b2c:	00f58f33          	add	x30,x11,x15
     b30:	000f2e07          	flw	f28,0(x30)
     b34:	6ae98a63          	beq	x19,x14,11e8 <.L158>
     b38:	0003af87          	flw	f31,0(x7)
     b3c:	09fe7f53          	fsub.s	f30,f28,f31

00000b40 <.L159>:
     b40:	00160613          	addi	x12,x12,1
     b44:	69ef76c3          	fmadd.s	f13,f30,f30,f13
     b48:	2cc08663          	beq	x1,x12,e14 <.L154>
     b4c:	f85b6ce3          	bltu	x22,x5,ae4 <.L156>

00000b50 <.L318>:
     b50:	000006b7          	lui	x13,0x0
     b54:	00000e37          	lui	x28,0x0
     b58:	00068593          	mv	x11,x13
     b5c:	07f00613          	li	x12,127
     b60:	000e0513          	mv	x10,x28
     b64:	00000097          	auipc	x1,0x0
     b68:	000080e7          	jalr	x1 # b64 <.L318+0x14>
     b6c:	03c12583          	lw	x11,60(x2)
     b70:	000b0613          	mv	x12,x22
     b74:	00000b37          	lui	x22,0x0
     b78:	000b0513          	mv	x10,x22
     b7c:	00000097          	auipc	x1,0x0
     b80:	000080e7          	jalr	x1 # b7c <.L318+0x2c>
     b84:	00042303          	lw	x6,0(x8)
     b88:	0004a883          	lw	x17,0(x9)
     b8c:	4100f4b7          	lui	x9,0x4100f
     b90:	01031513          	slli	x10,x6,0x10
     b94:	01150cb3          	add	x25,x10,x17
     b98:	ad94ac23          	sw	x25,-1320(x9) # 4100ead8 <.L690+0x4100c154>

00000b9c <.L157>:
     b9c:	0000006f          	j	b9c <.L157>

00000ba0 <.L113>:
     ba0:	0046c903          	lbu	x18,4(x13) # 4 <tensorlib_batch_norm2d_transform_input+0x4>
     ba4:	0ff97093          	andi	x1,x18,255
     ba8:	fe008ce3          	beqz	x1,ba0 <.L113>
     bac:	0056c383          	lbu	x7,5(x13)
     bb0:	0ff3f293          	andi	x5,x7,255
     bb4:	fe0286e3          	beqz	x5,ba0 <.L113>
     bb8:	0066c783          	lbu	x15,6(x13)
     bbc:	0ff7f613          	andi	x12,x15,255
     bc0:	fe0600e3          	beqz	x12,ba0 <.L113>
     bc4:	0076cf83          	lbu	x31,7(x13)
     bc8:	0ffff813          	andi	x16,x31,255
     bcc:	fc080ae3          	beqz	x16,ba0 <.L113>
     bd0:	00042583          	lw	x11,0(x8)
     bd4:	00c58f13          	addi	x30,x11,12 # 2004000c <.L690+0x2003d688>
     bd8:	01e689b3          	add	x19,x13,x30
     bdc:	0159e933          	or	x18,x19,x21
     be0:	00e90023          	sb	x14,0(x18)
     be4:	0004a083          	lw	x1,0(x9)
     be8:	e0e09ee3          	bne	x1,x14,a04 <.L129>
     bec:	00042903          	lw	x18,0(x8)
     bf0:	08e91e63          	bne	x18,x14,c8c <.L118>

00000bf4 <.L119>:
     bf4:	00c6c383          	lbu	x7,12(x13)
     bf8:	0ff3f293          	andi	x5,x7,255
     bfc:	fe028ce3          	beqz	x5,bf4 <.L119>
     c00:	00d6c783          	lbu	x15,13(x13)
     c04:	0ff7f613          	andi	x12,x15,255
     c08:	fe0606e3          	beqz	x12,bf4 <.L119>
     c0c:	00e6cf83          	lbu	x31,14(x13)
     c10:	0ffff813          	andi	x16,x31,255
     c14:	fe0800e3          	beqz	x16,bf4 <.L119>
     c18:	00f6cf03          	lbu	x30,15(x13)
     c1c:	0fff7993          	andi	x19,x30,255
     c20:	fc098ae3          	beqz	x19,bf4 <.L119>
     c24:	00068623          	sb	x0,12(x13)
     c28:	000686a3          	sb	x0,13(x13)
     c2c:	00068723          	sb	x0,14(x13)
     c30:	000687a3          	sb	x0,15(x13)
     c34:	0006a423          	sw	x0,8(x13)
     c38:	00000613          	li	x12,0

00000c3c <.L123>:
     c3c:	00c12583          	lw	x11,12(x2)
     c40:	01291913          	slli	x18,x18,0x12
     c44:	03fc03b7          	lui	x7,0x3fc0
     c48:	00c5e0b3          	or	x1,x11,x12
     c4c:	007972b3          	and	x5,x18,x7
     c50:	0012e7b3          	or	x15,x5,x1
     c54:	0177efb3          	or	x31,x15,x23
     c58:	01000837          	lui	x16,0x1000
     c5c:	00efa023          	sw	x14,0(x31)
     c60:	01060633          	add	x12,x12,x16
     c64:	04000f37          	lui	x30,0x4000
     c68:	09e612e3          	bne	x12,x30,14ec <.L319>
     c6c:	0004a983          	lw	x19,0(x9)
     c70:	d8e99ae3          	bne	x19,x14,a04 <.L129>
     c74:	00868593          	addi	x11,x13,8
     c78:	1005a0af          	lr.w	x1,(x11)
     c7c:	00e08e63          	beq	x1,x14,c98 <.L126>

00000c80 <.L320>:
     c80:	00868393          	addi	x7,x13,8
     c84:	1403a2af          	lr.w.aq	x5,(x7)
     c88:	00e28863          	beq	x5,x14,c98 <.L126>

00000c8c <.L118>:
     c8c:	00868593          	addi	x11,x13,8
     c90:	1005a0af          	lr.w	x1,(x11)
     c94:	fee096e3          	bne	x1,x14,c80 <.L320>

00000c98 <.L126>:
     c98:	0006a423          	sw	x0,8(x13)
     c9c:	00068223          	sb	x0,4(x13)
     ca0:	000682a3          	sb	x0,5(x13)
     ca4:	00068323          	sb	x0,6(x13)
     ca8:	000683a3          	sb	x0,7(x13)
     cac:	0006a023          	sw	x0,0(x13)
     cb0:	00000813          	li	x16,0
     cb4:	000c0693          	mv	x13,x24

00000cb8 <.L127>:
     cb8:	00042783          	lw	x15,0(x8)
     cbc:	010c6fb3          	or	x31,x24,x16
     cc0:	01b80833          	add	x16,x16,x27
     cc4:	01879613          	slli	x12,x15,0x18
     cc8:	01f66f33          	or	x30,x12,x31
     ccc:	017f6933          	or	x18,x30,x23
     cd0:	00e92023          	sw	x14,0(x18)
     cd4:	ffa812e3          	bne	x16,x26,cb8 <.L127>
     cd8:	d2dff06f          	j	a04 <.L129>

00000cdc <.L137>:
     cdc:	0046c283          	lbu	x5,4(x13)
     ce0:	0ff2ff93          	andi	x31,x5,255
     ce4:	fe0f8ce3          	beqz	x31,cdc <.L137>
     ce8:	0056c803          	lbu	x16,5(x13)
     cec:	0ff87f13          	andi	x30,x16,255
     cf0:	fe0f06e3          	beqz	x30,cdc <.L137>
     cf4:	0066c783          	lbu	x15,6(x13)
     cf8:	0ff7f613          	andi	x12,x15,255
     cfc:	fe0600e3          	beqz	x12,cdc <.L137>
     d00:	0076c903          	lbu	x18,7(x13)
     d04:	0ff97993          	andi	x19,x18,255
     d08:	fc098ae3          	beqz	x19,cdc <.L137>
     d0c:	00042583          	lw	x11,0(x8)
     d10:	00c58093          	addi	x1,x11,12
     d14:	001683b3          	add	x7,x13,x1
     d18:	0153e2b3          	or	x5,x7,x21
     d1c:	00e28023          	sb	x14,0(x5)
     d20:	0004af83          	lw	x31,0(x9)
     d24:	d2ef9ae3          	bne	x31,x14,a58 <.L153>
     d28:	00042283          	lw	x5,0(x8)
     d2c:	08e29a63          	bne	x5,x14,dc0 <.L142>

00000d30 <.L143>:
     d30:	00c6c803          	lbu	x16,12(x13)
     d34:	0ff87f13          	andi	x30,x16,255
     d38:	fe0f0ce3          	beqz	x30,d30 <.L143>
     d3c:	00d6c783          	lbu	x15,13(x13)
     d40:	0ff7f613          	andi	x12,x15,255
     d44:	fe0606e3          	beqz	x12,d30 <.L143>
     d48:	00e6c903          	lbu	x18,14(x13)
     d4c:	0ff97993          	andi	x19,x18,255
     d50:	fe0980e3          	beqz	x19,d30 <.L143>
     d54:	00f6c083          	lbu	x1,15(x13)
     d58:	0ff0f393          	andi	x7,x1,255
     d5c:	fc038ae3          	beqz	x7,d30 <.L143>
     d60:	00068623          	sb	x0,12(x13)
     d64:	000686a3          	sb	x0,13(x13)
     d68:	00068723          	sb	x0,14(x13)
     d6c:	000687a3          	sb	x0,15(x13)
     d70:	0006a423          	sw	x0,8(x13)
     d74:	00000613          	li	x12,0

00000d78 <.L147>:
     d78:	00c12583          	lw	x11,12(x2)
     d7c:	01229293          	slli	x5,x5,0x12
     d80:	03fc0837          	lui	x16,0x3fc0
     d84:	00c5efb3          	or	x31,x11,x12
     d88:	0102ff33          	and	x30,x5,x16
     d8c:	01ff67b3          	or	x15,x30,x31
     d90:	0177e933          	or	x18,x15,x23
     d94:	010009b7          	lui	x19,0x1000
     d98:	00e92023          	sw	x14,0(x18)
     d9c:	01360633          	add	x12,x12,x19
     da0:	040000b7          	lui	x1,0x4000
     da4:	74161863          	bne	x12,x1,14f4 <.L321>
     da8:	0004a383          	lw	x7,0(x9)
     dac:	00e38a63          	beq	x7,x14,dc0 <.L142>
     db0:	ca9ff06f          	j	a58 <.L153>

00000db4 <.L322>:
     db4:	00868813          	addi	x16,x13,8
     db8:	14082f2f          	lr.w.aq	x30,(x16)
     dbc:	00ef0863          	beq	x30,x14,dcc <.L150>

00000dc0 <.L142>:
     dc0:	00868593          	addi	x11,x13,8
     dc4:	1005afaf          	lr.w	x31,(x11)
     dc8:	feef96e3          	bne	x31,x14,db4 <.L322>

00000dcc <.L150>:
     dcc:	0006a423          	sw	x0,8(x13)
     dd0:	00068223          	sb	x0,4(x13)
     dd4:	000682a3          	sb	x0,5(x13)
     dd8:	00068323          	sb	x0,6(x13)
     ddc:	000683a3          	sb	x0,7(x13)
     de0:	0006a023          	sw	x0,0(x13)
     de4:	00000993          	li	x19,0
     de8:	000c0693          	mv	x13,x24

00000dec <.L151>:
     dec:	00042783          	lw	x15,0(x8)
     df0:	013c6933          	or	x18,x24,x19
     df4:	01b989b3          	add	x19,x19,x27
     df8:	01879613          	slli	x12,x15,0x18
     dfc:	012660b3          	or	x1,x12,x18
     e00:	0170e2b3          	or	x5,x1,x23
     e04:	00e2a023          	sw	x14,0(x5)
     e08:	ffa992e3          	bne	x19,x26,dec <.L151>
     e0c:	c4dff06f          	j	a58 <.L153>

00000e10 <.L223>:
     e10:	f00006d3          	fmv.w.x	f13,x0

00000e14 <.L154>:
     e14:	0004a083          	lw	x1,0(x9)
     e18:	00042583          	lw	x11,0(x8)
     e1c:	00412783          	lw	x15,4(x2)
     e20:	00408293          	addi	x5,x1,4 # 4000004 <.L690+0x3ffd680>
     e24:	00291913          	slli	x18,x18,0x2
     e28:	005683b3          	add	x7,x13,x5
     e2c:	01859f93          	slli	x31,x11,0x18
     e30:	01278f33          	add	x30,x15,x18
     e34:	01f3e9b3          	or	x19,x7,x31
     e38:	20040837          	lui	x16,0x20040
     e3c:	00df2027          	fsw	f13,0(x30) # 4000000 <.L690+0x3ffd67c>
     e40:	0109e633          	or	x12,x19,x16
     e44:	00e60023          	sb	x14,0(x12)
     e48:	0004a083          	lw	x1,0(x9)
     e4c:	0ee09463          	bne	x1,x14,f34 <.L178>

00000e50 <.L162>:
     e50:	0046c583          	lbu	x11,4(x13)
     e54:	0ff5f913          	andi	x18,x11,255
     e58:	fe090ce3          	beqz	x18,e50 <.L162>
     e5c:	0056c283          	lbu	x5,5(x13)
     e60:	0ff2f393          	andi	x7,x5,255
     e64:	fe0386e3          	beqz	x7,e50 <.L162>
     e68:	0066cf83          	lbu	x31,6(x13)
     e6c:	0ffff793          	andi	x15,x31,255
     e70:	fe0780e3          	beqz	x15,e50 <.L162>
     e74:	0076cf03          	lbu	x30,7(x13)
     e78:	0fff7993          	andi	x19,x30,255
     e7c:	fc098ae3          	beqz	x19,e50 <.L162>
     e80:	00042803          	lw	x16,0(x8)
     e84:	00c80613          	addi	x12,x16,12 # 2004000c <.L690+0x2003d688>
     e88:	00c680b3          	add	x1,x13,x12
     e8c:	0150e5b3          	or	x11,x1,x21
     e90:	00e58023          	sb	x14,0(x11)
     e94:	0004a903          	lw	x18,0(x9)
     e98:	08e91e63          	bne	x18,x14,f34 <.L178>
     e9c:	00042083          	lw	x1,0(x8)
     ea0:	14e09863          	bne	x1,x14,ff0 <.L167>

00000ea4 <.L168>:
     ea4:	00c6c283          	lbu	x5,12(x13)
     ea8:	0ff2f393          	andi	x7,x5,255
     eac:	fe038ce3          	beqz	x7,ea4 <.L168>
     eb0:	00d6cf83          	lbu	x31,13(x13)
     eb4:	0ffff793          	andi	x15,x31,255
     eb8:	fe0786e3          	beqz	x15,ea4 <.L168>
     ebc:	00e6cf03          	lbu	x30,14(x13)
     ec0:	0fff7993          	andi	x19,x30,255
     ec4:	fe0980e3          	beqz	x19,ea4 <.L168>
     ec8:	00f6c803          	lbu	x16,15(x13)
     ecc:	0ff87613          	andi	x12,x16,255
     ed0:	fc060ae3          	beqz	x12,ea4 <.L168>
     ed4:	00068623          	sb	x0,12(x13)
     ed8:	000686a3          	sb	x0,13(x13)
     edc:	00068723          	sb	x0,14(x13)
     ee0:	000687a3          	sb	x0,15(x13)
     ee4:	0006a423          	sw	x0,8(x13)
     ee8:	00000993          	li	x19,0

00000eec <.L172>:
     eec:	00c12583          	lw	x11,12(x2)
     ef0:	01209093          	slli	x1,x1,0x12
     ef4:	03fc02b7          	lui	x5,0x3fc0
     ef8:	0135e933          	or	x18,x11,x19
     efc:	0050f3b3          	and	x7,x1,x5
     f00:	0123efb3          	or	x31,x7,x18
     f04:	017fe7b3          	or	x15,x31,x23
     f08:	01000f37          	lui	x30,0x1000
     f0c:	00e7a023          	sw	x14,0(x15)
     f10:	01e989b3          	add	x19,x19,x30
     f14:	04000837          	lui	x16,0x4000
     f18:	5d099663          	bne	x19,x16,14e4 <.L323>
     f1c:	0004a603          	lw	x12,0(x9)
     f20:	0ce60863          	beq	x12,x14,ff0 <.L167>
     f24:	0100006f          	j	f34 <.L178>

00000f28 <.L324>:
     f28:	00050913          	mv	x18,x10
     f2c:	140922af          	lr.w.aq	x5,(x18)
     f30:	00e28863          	beq	x5,x14,f40 <.L177>

00000f34 <.L178>:
     f34:	00050613          	mv	x12,x10
     f38:	100625af          	lr.w	x11,(x12)
     f3c:	fee596e3          	bne	x11,x14,f28 <.L324>

00000f40 <.L177>:
     f40:	000ca383          	lw	x7,0(x25)
     f44:	0006a023          	sw	x0,0(x13)
     f48:	30038a63          	beqz	x7,125c <.L325>

00000f4c <.L180>:
     f4c:	0004a083          	lw	x1,0(x9)
     f50:	00042583          	lw	x11,0(x8)
     f54:	20040fb7          	lui	x31,0x20040
     f58:	00408613          	addi	x12,x1,4
     f5c:	00c68933          	add	x18,x13,x12
     f60:	01859293          	slli	x5,x11,0x18
     f64:	005963b3          	or	x7,x18,x5
     f68:	01f3ef33          	or	x30,x7,x31
     f6c:	00ef0023          	sb	x14,0(x30) # 1000000 <.L690+0xffd67c>
     f70:	0004a983          	lw	x19,0(x9)
     f74:	00e99a63          	bne	x19,x14,f88 <.L217>
     f78:	13c0006f          	j	10b4 <.L201>

00000f7c <.L326>:
     f7c:	00050093          	mv	x1,x10
     f80:	1400a82f          	lr.w.aq	x16,(x1)
     f84:	00e80863          	beq	x16,x14,f94 <.L216>

00000f88 <.L217>:
     f88:	00050993          	mv	x19,x10
     f8c:	1009a5af          	lr.w	x11,(x19)
     f90:	fee596e3          	bne	x11,x14,f7c <.L326>

00000f94 <.L216>:
     f94:	01412903          	lw	x18,20(x2)
     f98:	0006a023          	sw	x0,0(x13)
     f9c:	001b0b13          	addi	x22,x22,1 # 1 <tensorlib_batch_norm2d_transform_input+0x1>
     fa0:	97691ce3          	bne	x18,x22,918 <.L219>

00000fa4 <.L258>:
     fa4:	11c12083          	lw	x1,284(x2)
     fa8:	11812403          	lw	x8,280(x2)
     fac:	11412483          	lw	x9,276(x2)
     fb0:	11012903          	lw	x18,272(x2)
     fb4:	10c12983          	lw	x19,268(x2)
     fb8:	10812a03          	lw	x20,264(x2)
     fbc:	10412a83          	lw	x21,260(x2)
     fc0:	10012b03          	lw	x22,256(x2)
     fc4:	0fc12b83          	lw	x23,252(x2)
     fc8:	0f812c03          	lw	x24,248(x2)
     fcc:	0f412c83          	lw	x25,244(x2)
     fd0:	0f012d03          	lw	x26,240(x2)
     fd4:	0ec12d83          	lw	x27,236(x2)
     fd8:	00000513          	li	x10,0
     fdc:	12010113          	addi	x2,x2,288
     fe0:	00008067          	ret

00000fe4 <.L327>:
     fe4:	00868293          	addi	x5,x13,8
     fe8:	1402a3af          	lr.w.aq	x7,(x5)
     fec:	00e38863          	beq	x7,x14,ffc <.L175>

00000ff0 <.L167>:
     ff0:	00868593          	addi	x11,x13,8
     ff4:	1005a92f          	lr.w	x18,(x11)
     ff8:	fee916e3          	bne	x18,x14,fe4 <.L327>

00000ffc <.L175>:
     ffc:	0006a423          	sw	x0,8(x13)
    1000:	00068223          	sb	x0,4(x13)
    1004:	000682a3          	sb	x0,5(x13)
    1008:	00068323          	sb	x0,6(x13)
    100c:	000683a3          	sb	x0,7(x13)
    1010:	0006a023          	sw	x0,0(x13)
    1014:	00000993          	li	x19,0
    1018:	000c0693          	mv	x13,x24

0000101c <.L176>:
    101c:	00042f83          	lw	x31,0(x8)
    1020:	013c6f33          	or	x30,x24,x19
    1024:	01b989b3          	add	x19,x19,x27
    1028:	018f9793          	slli	x15,x31,0x18
    102c:	01e7e833          	or	x16,x15,x30
    1030:	017860b3          	or	x1,x16,x23
    1034:	00e0a023          	sw	x14,0(x1)
    1038:	ffa992e3          	bne	x19,x26,101c <.L176>
    103c:	ef9ff06f          	j	f34 <.L178>

00001040 <.L315>:
    1040:	00412f83          	lw	x31,4(x2)
    1044:	f0000853          	fmv.w.x	f16,x0
    1048:	000f8793          	mv	x15,x31
    104c:	040f8813          	addi	x16,x31,64 # 20040040 <.L690+0x2003d6bc>

00001050 <.L131>:
    1050:	0007a387          	flw	f7,0(x15)
    1054:	00478793          	addi	x15,x15,4
    1058:	00787853          	fadd.s	f16,f16,f7
    105c:	fef81ae3          	bne	x16,x15,1050 <.L131>
    1060:	03c12603          	lw	x12,60(x2)
    1064:	1acb7463          	bgeu	x22,x12,120c <.L328>
    1068:	04012f03          	lw	x30,64(x2)
    106c:	04c12903          	lw	x18,76(x2)
    1070:	02ef0663          	beq	x30,x14,109c <.L134>
    1074:	002b1f93          	slli	x31,x22,0x2
    1078:	01f902b3          	add	x5,x18,x31

0000107c <.L135>:
    107c:	104878d3          	fmul.s	f17,f16,f4
    1080:	0112a027          	fsw	f17,0(x5) # 3fc0000 <.L690+0x3fbd67c>
    1084:	999ff06f          	j	a1c <.L130>

00001088 <.L313>:
    1088:	000a0f13          	mv	x30,x20
    108c:	8c1ff06f          	j	94c <.L110>

00001090 <.L317>:
    1090:	000a0093          	mv	x1,x20
    1094:	9e166ce3          	bltu	x12,x1,a8c <.L329>
    1098:	d79ff06f          	j	e10 <.L223>

0000109c <.L134>:
    109c:	04412983          	lw	x19,68(x2)
    10a0:	0009a583          	lw	x11,0(x19) # 1000000 <.L690+0xffd67c>
    10a4:	02bb00b3          	mul	x1,x22,x11
    10a8:	00209393          	slli	x7,x1,0x2
    10ac:	007902b3          	add	x5,x18,x7
    10b0:	fcdff06f          	j	107c <.L135>

000010b4 <.L201>:
    10b4:	0046c803          	lbu	x16,4(x13)
    10b8:	0ff87793          	andi	x15,x16,255
    10bc:	fe078ce3          	beqz	x15,10b4 <.L201>
    10c0:	0056c083          	lbu	x1,5(x13)
    10c4:	0ff0f593          	andi	x11,x1,255
    10c8:	fe0586e3          	beqz	x11,10b4 <.L201>
    10cc:	0066c603          	lbu	x12,6(x13)
    10d0:	0ff67913          	andi	x18,x12,255
    10d4:	fe0900e3          	beqz	x18,10b4 <.L201>
    10d8:	0076c283          	lbu	x5,7(x13)
    10dc:	0ff2f393          	andi	x7,x5,255
    10e0:	fc038ae3          	beqz	x7,10b4 <.L201>
    10e4:	00042f83          	lw	x31,0(x8)
    10e8:	00cf8f13          	addi	x30,x31,12
    10ec:	01e689b3          	add	x19,x13,x30
    10f0:	0159e833          	or	x16,x19,x21
    10f4:	00e80023          	sb	x14,0(x16) # 4000000 <.L690+0x3ffd67c>
    10f8:	0004a783          	lw	x15,0(x9)
    10fc:	e8e796e3          	bne	x15,x14,f88 <.L217>
    1100:	00042783          	lw	x15,0(x8)
    1104:	08e79a63          	bne	x15,x14,1198 <.L206>

00001108 <.L207>:
    1108:	00c6c083          	lbu	x1,12(x13)
    110c:	0ff0f613          	andi	x12,x1,255
    1110:	fe060ce3          	beqz	x12,1108 <.L207>
    1114:	00d6c903          	lbu	x18,13(x13)
    1118:	0ff97293          	andi	x5,x18,255
    111c:	fe0286e3          	beqz	x5,1108 <.L207>
    1120:	00e6c383          	lbu	x7,14(x13)
    1124:	0ff3ff93          	andi	x31,x7,255
    1128:	fe0f80e3          	beqz	x31,1108 <.L207>
    112c:	00f6cf03          	lbu	x30,15(x13)
    1130:	0fff7993          	andi	x19,x30,255
    1134:	fc098ae3          	beqz	x19,1108 <.L207>
    1138:	00068623          	sb	x0,12(x13)
    113c:	000686a3          	sb	x0,13(x13)
    1140:	00068723          	sb	x0,14(x13)
    1144:	000687a3          	sb	x0,15(x13)
    1148:	0006a423          	sw	x0,8(x13)
    114c:	00000613          	li	x12,0

00001150 <.L211>:
    1150:	00c12583          	lw	x11,12(x2)
    1154:	01279793          	slli	x15,x15,0x12
    1158:	03fc0837          	lui	x16,0x3fc0
    115c:	00c5e0b3          	or	x1,x11,x12
    1160:	0107f933          	and	x18,x15,x16
    1164:	001962b3          	or	x5,x18,x1
    1168:	0172e3b3          	or	x7,x5,x23
    116c:	01000fb7          	lui	x31,0x1000
    1170:	00e3a023          	sw	x14,0(x7) # 3fc0000 <.L690+0x3fbd67c>
    1174:	01f60633          	add	x12,x12,x31
    1178:	04000f37          	lui	x30,0x4000
    117c:	37e61063          	bne	x12,x30,14dc <.L330>
    1180:	0004a983          	lw	x19,0(x9)
    1184:	00e98a63          	beq	x19,x14,1198 <.L206>
    1188:	e01ff06f          	j	f88 <.L217>

0000118c <.L331>:
    118c:	00868813          	addi	x16,x13,8
    1190:	1408292f          	lr.w.aq	x18,(x16)
    1194:	00e90863          	beq	x18,x14,11a4 <.L214>

00001198 <.L206>:
    1198:	00868593          	addi	x11,x13,8
    119c:	1005a0af          	lr.w	x1,(x11)
    11a0:	fee096e3          	bne	x1,x14,118c <.L331>

000011a4 <.L214>:
    11a4:	0006a423          	sw	x0,8(x13)
    11a8:	00068223          	sb	x0,4(x13)
    11ac:	000682a3          	sb	x0,5(x13)
    11b0:	00068323          	sb	x0,6(x13)
    11b4:	000683a3          	sb	x0,7(x13)
    11b8:	0006a023          	sw	x0,0(x13)
    11bc:	00000f93          	li	x31,0
    11c0:	000c0693          	mv	x13,x24

000011c4 <.L215>:
    11c4:	00042283          	lw	x5,0(x8)
    11c8:	01fc63b3          	or	x7,x24,x31
    11cc:	01bf8fb3          	add	x31,x31,x27
    11d0:	01829613          	slli	x12,x5,0x18
    11d4:	00766f33          	or	x30,x12,x7
    11d8:	017f67b3          	or	x15,x30,x23
    11dc:	00e7a023          	sw	x14,0(x15)
    11e0:	ffaf92e3          	bne	x31,x26,11c4 <.L215>
    11e4:	da5ff06f          	j	f88 <.L217>

000011e8 <.L158>:
    11e8:	02c12803          	lw	x16,44(x2)
    11ec:	02812983          	lw	x19,40(x2)
    11f0:	00082f83          	lw	x31,0(x16) # 3fc0000 <.L690+0x3fbd67c>
    11f4:	03fb07b3          	mul	x15,x22,x31
    11f8:	00279f13          	slli	x30,x15,0x2
    11fc:	01e98833          	add	x16,x19,x30
    1200:	00082e87          	flw	f29,0(x16)
    1204:	09de7f53          	fsub.s	f30,f28,f29
    1208:	939ff06f          	j	b40 <.L159>

0000120c <.L328>:
    120c:	00000c37          	lui	x24,0x0
    1210:	00000db7          	lui	x27,0x0
    1214:	000c0593          	mv	x11,x24
    1218:	07f00613          	li	x12,127
    121c:	000d8513          	mv	x10,x27
    1220:	00000097          	auipc	x1,0x0
    1224:	000080e7          	jalr	x1 # 1220 <.L328+0x14>
    1228:	03c12583          	lw	x11,60(x2)
    122c:	00000d37          	lui	x26,0x0
    1230:	000b0613          	mv	x12,x22
    1234:	000d0513          	mv	x10,x26
    1238:	00000097          	auipc	x1,0x0
    123c:	000080e7          	jalr	x1 # 1238 <.L328+0x2c>
    1240:	00042a03          	lw	x20,0(x8)
    1244:	0004ae83          	lw	x29,0(x9)
    1248:	4100f8b7          	lui	x17,0x4100f
    124c:	010a1e13          	slli	x28,x20,0x10
    1250:	01de0333          	add	x6,x28,x29
    1254:	ac68ac23          	sw	x6,-1320(x17) # 4100ead8 <.L690+0x4100c154>

00001258 <.L133>:
    1258:	0000006f          	j	1258 <.L133>

0000125c <.L325>:
    125c:	00412f03          	lw	x30,4(x2)
    1260:	f0000653          	fmv.w.x	f12,x0
    1264:	040f0f93          	addi	x31,x30,64 # 4000040 <.L690+0x3ffd6bc>

00001268 <.L181>:
    1268:	000f2707          	flw	f14,0(x30)
    126c:	004f0f13          	addi	x30,x30,4
    1270:	00e67653          	fadd.s	f12,f12,f14
    1274:	ffef9ae3          	bne	x31,x30,1268 <.L181>
    1278:	05812983          	lw	x19,88(x2)
    127c:	073b7263          	bgeu	x22,x19,12e0 <.L332>
    1280:	05c12783          	lw	x15,92(x2)
    1284:	06812803          	lw	x16,104(x2)
    1288:	0ee78a63          	beq	x15,x14,137c <.L184>
    128c:	002b1393          	slli	x7,x22,0x2
    1290:	007802b3          	add	x5,x16,x7

00001294 <.L185>:
    1294:	184670c3          	fmadd.s	f1,f12,f4,f3
    1298:	07412f83          	lw	x31,116(x2)
    129c:	5800f353          	fsqrt.s	f6,f1
    12a0:	186077d3          	fdiv.s	f15,f0,f6
    12a4:	00f2a027          	fsw	f15,0(x5)
    12a8:	080f9463          	bnez	x31,1330 <.L333>

000012ac <.L186>:
    12ac:	09012583          	lw	x11,144(x2)
    12b0:	c8058ee3          	beqz	x11,f4c <.L180>
    12b4:	14bb7463          	bgeu	x22,x11,13fc <.L334>
    12b8:	09412903          	lw	x18,148(x2)
    12bc:	0a012283          	lw	x5,160(x2)
    12c0:	1ce90e63          	beq	x18,x14,149c <.L198>
    12c4:	002b1793          	slli	x15,x22,0x2
    12c8:	00f28833          	add	x16,x5,x15
    12cc:	00082687          	flw	f13,0(x16)
    12d0:	10d57fd3          	fmul.s	f31,f10,f13

000012d4 <.L199>:
    12d4:	f8567743          	fmadd.s	f14,f12,f5,f31
    12d8:	00e82027          	fsw	f14,0(x16)
    12dc:	c71ff06f          	j	f4c <.L180>

000012e0 <.L332>:
    12e0:	000000b7          	lui	x1,0x0
    12e4:	00000837          	lui	x16,0x0
    12e8:	00008593          	mv	x11,x1
    12ec:	07f00613          	li	x12,127
    12f0:	00080513          	mv	x10,x16
    12f4:	00000097          	auipc	x1,0x0
    12f8:	000080e7          	jalr	x1 # 12f4 <.L332+0x14>
    12fc:	05812583          	lw	x11,88(x2)
    1300:	000b0613          	mv	x12,x22
    1304:	00000b37          	lui	x22,0x0
    1308:	000b0513          	mv	x10,x22
    130c:	00000097          	auipc	x1,0x0
    1310:	000080e7          	jalr	x1 # 130c <.L332+0x2c>
    1314:	00042903          	lw	x18,0(x8)
    1318:	0004a703          	lw	x14,0(x9)
    131c:	4100f437          	lui	x8,0x4100f
    1320:	01091a93          	slli	x21,x18,0x10
    1324:	00ea8bb3          	add	x23,x21,x14
    1328:	ad742c23          	sw	x23,-1320(x8) # 4100ead8 <.L690+0x4100c154>

0000132c <.L183>:
    132c:	0000006f          	j	132c <.L183>

00001330 <.L333>:
    1330:	03c12f03          	lw	x30,60(x2)
    1334:	07eb7c63          	bgeu	x22,x30,13ac <.L335>
    1338:	04012983          	lw	x19,64(x2)
    133c:	04c12803          	lw	x16,76(x2)
    1340:	04e98a63          	beq	x19,x14,1394 <.L189>
    1344:	002b1293          	slli	x5,x22,0x2
    1348:	00580933          	add	x18,x16,x5

0000134c <.L190>:
    134c:	11fb7063          	bgeu	x22,x31,144c <.L336>
    1350:	07812383          	lw	x7,120(x2)
    1354:	08412f83          	lw	x31,132(x2)
    1358:	16e38263          	beq	x7,x14,14bc <.L193>
    135c:	002b1613          	slli	x12,x22,0x2
    1360:	00cf80b3          	add	x1,x31,x12
    1364:	0000a887          	flw	f17,0(x1)
    1368:	11117853          	fmul.s	f16,f2,f17

0000136c <.L194>:
    136c:	00092e07          	flw	f28,0(x18)
    1370:	80be7ec3          	fmadd.s	f29,f28,f11,f16
    1374:	01d0a027          	fsw	f29,0(x1)
    1378:	f35ff06f          	j	12ac <.L186>

0000137c <.L184>:
    137c:	06012083          	lw	x1,96(x2)
    1380:	0000a603          	lw	x12,0(x1)
    1384:	02cb05b3          	mul	x11,x22,x12
    1388:	00259913          	slli	x18,x11,0x2
    138c:	012802b3          	add	x5,x16,x18
    1390:	f05ff06f          	j	1294 <.L185>

00001394 <.L189>:
    1394:	04412783          	lw	x15,68(x2)
    1398:	0007a083          	lw	x1,0(x15)
    139c:	021b0633          	mul	x12,x22,x1
    13a0:	00261593          	slli	x11,x12,0x2
    13a4:	00b80933          	add	x18,x16,x11
    13a8:	fa5ff06f          	j	134c <.L190>

000013ac <.L335>:
    13ac:	000002b7          	lui	x5,0x0
    13b0:	000003b7          	lui	x7,0x0
    13b4:	00028593          	mv	x11,x5
    13b8:	07f00613          	li	x12,127
    13bc:	00038513          	mv	x10,x7
    13c0:	00000097          	auipc	x1,0x0
    13c4:	000080e7          	jalr	x1 # 13c0 <.L335+0x14>
    13c8:	03c12583          	lw	x11,60(x2)
    13cc:	00000fb7          	lui	x31,0x0
    13d0:	000b0613          	mv	x12,x22
    13d4:	000f8513          	mv	x10,x31
    13d8:	00000097          	auipc	x1,0x0
    13dc:	000080e7          	jalr	x1 # 13d8 <.L335+0x2c>
    13e0:	00042603          	lw	x12,0(x8)
    13e4:	0004af03          	lw	x30,0(x9)
    13e8:	4100f5b7          	lui	x11,0x4100f
    13ec:	01061793          	slli	x15,x12,0x10
    13f0:	01e789b3          	add	x19,x15,x30
    13f4:	ad35ac23          	sw	x19,-1320(x11) # 4100ead8 <.L690+0x4100c154>

000013f8 <.L188>:
    13f8:	0000006f          	j	13f8 <.L188>

000013fc <.L334>:
    13fc:	00000737          	lui	x14,0x0
    1400:	00000ab7          	lui	x21,0x0
    1404:	00070593          	mv	x11,x14
    1408:	07f00613          	li	x12,127
    140c:	000a8513          	mv	x10,x21
    1410:	00000097          	auipc	x1,0x0
    1414:	000080e7          	jalr	x1 # 1410 <.L334+0x14>
    1418:	09012583          	lw	x11,144(x2)
    141c:	00000bb7          	lui	x23,0x0
    1420:	000b0613          	mv	x12,x22
    1424:	000b8513          	mv	x10,x23
    1428:	00000097          	auipc	x1,0x0
    142c:	000080e7          	jalr	x1 # 1428 <.L334+0x2c>
    1430:	00042403          	lw	x8,0(x8)
    1434:	0004ac03          	lw	x24,0(x9)
    1438:	4100fa37          	lui	x20,0x4100f
    143c:	01041d93          	slli	x27,x8,0x10
    1440:	018d8d33          	add	x26,x27,x24
    1444:	adaa2c23          	sw	x26,-1320(x20) # 4100ead8 <.L690+0x4100c154>

00001448 <.L197>:
    1448:	0000006f          	j	1448 <.L197>

0000144c <.L336>:
    144c:	00000eb7          	lui	x29,0x0
    1450:	00000e37          	lui	x28,0x0
    1454:	000e8593          	mv	x11,x29
    1458:	07f00613          	li	x12,127
    145c:	000e0513          	mv	x10,x28
    1460:	00000097          	auipc	x1,0x0
    1464:	000080e7          	jalr	x1 # 1460 <.L336+0x14>
    1468:	07412583          	lw	x11,116(x2)
    146c:	00000337          	lui	x6,0x0
    1470:	000b0613          	mv	x12,x22
    1474:	00030513          	mv	x10,x6
    1478:	00000097          	auipc	x1,0x0
    147c:	000080e7          	jalr	x1 # 1478 <.L336+0x2c>
    1480:	00042883          	lw	x17,0(x8)
    1484:	0004a503          	lw	x10,0(x9)
    1488:	4100f6b7          	lui	x13,0x4100f
    148c:	01089c93          	slli	x25,x17,0x10
    1490:	00ac84b3          	add	x9,x25,x10
    1494:	ac96ac23          	sw	x9,-1320(x13) # 4100ead8 <.L690+0x4100c154>

00001498 <.L192>:
    1498:	0000006f          	j	1498 <.L192>

0000149c <.L198>:
    149c:	09812383          	lw	x7,152(x2)
    14a0:	0003af83          	lw	x31,0(x7) # 0 <tensorlib_batch_norm2d_transform_input>
    14a4:	03fb0f33          	mul	x30,x22,x31
    14a8:	002f1993          	slli	x19,x30,0x2
    14ac:	01328833          	add	x16,x5,x19
    14b0:	00082f07          	flw	f30,0(x16) # 0 <tensorlib_batch_norm2d_transform_input>
    14b4:	11e57fd3          	fmul.s	f31,f10,f30
    14b8:	e1dff06f          	j	12d4 <.L199>

000014bc <.L193>:
    14bc:	07c12f03          	lw	x30,124(x2)
    14c0:	000f2983          	lw	x19,0(x30)
    14c4:	033b0833          	mul	x16,x22,x19
    14c8:	00281793          	slli	x15,x16,0x2
    14cc:	00ff80b3          	add	x1,x31,x15
    14d0:	0000a387          	flw	f7,0(x1)
    14d4:	10717853          	fmul.s	f16,f2,f7
    14d8:	e95ff06f          	j	136c <.L194>

000014dc <.L330>:
    14dc:	0004a783          	lw	x15,0(x9)
    14e0:	c71ff06f          	j	1150 <.L211>

000014e4 <.L323>:
    14e4:	0004a083          	lw	x1,0(x9)
    14e8:	a05ff06f          	j	eec <.L172>

000014ec <.L319>:
    14ec:	0004a903          	lw	x18,0(x9)
    14f0:	f4cff06f          	j	c3c <.L123>

000014f4 <.L321>:
    14f4:	0004a283          	lw	x5,0(x9)
    14f8:	881ff06f          	j	d78 <.L147>

000014fc <tensorlib_batch_norm2d_backward>:
    14fc:	e2010113          	addi	x2,x2,-480
    1500:	00050313          	mv	x6,x10
    1504:	1d612023          	sw	x22,448(x2)
    1508:	10410513          	addi	x10,x2,260
    150c:	00058b13          	mv	x22,x11
    1510:	00030593          	mv	x11,x6
    1514:	1c112e23          	sw	x1,476(x2)
    1518:	1c812c23          	sw	x8,472(x2)
    151c:	1c912a23          	sw	x9,468(x2)
    1520:	00088413          	mv	x8,x17
    1524:	00080493          	mv	x9,x16
    1528:	1d212823          	sw	x18,464(x2)
    152c:	1d312623          	sw	x19,460(x2)
    1530:	00078913          	mv	x18,x15
    1534:	00070993          	mv	x19,x14
    1538:	1d412423          	sw	x20,456(x2)
    153c:	1d512223          	sw	x21,452(x2)
    1540:	00068a13          	mv	x20,x13
    1544:	00060a93          	mv	x21,x12
    1548:	1b712e23          	sw	x23,444(x2)
    154c:	1b812c23          	sw	x24,440(x2)
    1550:	1b912a23          	sw	x25,436(x2)
    1554:	1ba12823          	sw	x26,432(x2)
    1558:	1bb12623          	sw	x27,428(x2)
    155c:	00000097          	auipc	x1,0x0
    1560:	000080e7          	jalr	x1 # 155c <tensorlib_batch_norm2d_backward+0x60>
    1564:	000b0593          	mv	x11,x22
    1568:	04010513          	addi	x10,x2,64
    156c:	00000097          	auipc	x1,0x0
    1570:	000080e7          	jalr	x1 # 156c <tensorlib_batch_norm2d_backward+0x70>
    1574:	000a8593          	mv	x11,x21
    1578:	05c10513          	addi	x10,x2,92
    157c:	00000097          	auipc	x1,0x0
    1580:	000080e7          	jalr	x1 # 157c <tensorlib_batch_norm2d_backward+0x80>
    1584:	000a0593          	mv	x11,x20
    1588:	13810513          	addi	x10,x2,312
    158c:	00000097          	auipc	x1,0x0
    1590:	000080e7          	jalr	x1 # 158c <tensorlib_batch_norm2d_backward+0x90>
    1594:	00098593          	mv	x11,x19
    1598:	16c10513          	addi	x10,x2,364
    159c:	00000097          	auipc	x1,0x0
    15a0:	000080e7          	jalr	x1 # 159c <tensorlib_batch_norm2d_backward+0xa0>
    15a4:	00090593          	mv	x11,x18
    15a8:	07810513          	addi	x10,x2,120
    15ac:	00000097          	auipc	x1,0x0
    15b0:	000080e7          	jalr	x1 # 15ac <tensorlib_batch_norm2d_backward+0xb0>
    15b4:	00048593          	mv	x11,x9
    15b8:	09410513          	addi	x10,x2,148
    15bc:	00000097          	auipc	x1,0x0
    15c0:	000080e7          	jalr	x1 # 15bc <tensorlib_batch_norm2d_backward+0xc0>
    15c4:	00040593          	mv	x11,x8
    15c8:	0b010513          	addi	x10,x2,176
    15cc:	00000097          	auipc	x1,0x0
    15d0:	000080e7          	jalr	x1 # 15cc <tensorlib_batch_norm2d_backward+0xd0>
    15d4:	1e012583          	lw	x11,480(x2)
    15d8:	0cc10513          	addi	x10,x2,204
    15dc:	00000097          	auipc	x1,0x0
    15e0:	000080e7          	jalr	x1 # 15dc <tensorlib_batch_norm2d_backward+0xe0>
    15e4:	1e412583          	lw	x11,484(x2)
    15e8:	0e810513          	addi	x10,x2,232
    15ec:	00000097          	auipc	x1,0x0
    15f0:	000080e7          	jalr	x1 # 15ec <tensorlib_batch_norm2d_backward+0xf0>
    15f4:	17812703          	lw	x14,376(x2)
    15f8:	1e812783          	lw	x15,488(x2)
    15fc:	1ec12383          	lw	x7,492(x2)
    1600:	00472683          	lw	x13,4(x14) # 4 <tensorlib_batch_norm2d_transform_input+0x4>
    1604:	0007a283          	lw	x5,0(x15)
    1608:	16c12583          	lw	x11,364(x2)
    160c:	00d12c23          	sw	x13,24(x2)
    1610:	00512423          	sw	x5,8(x2)
    1614:	02d5d633          	divu	x12,x11,x13
    1618:	0003a107          	flw	f2,0(x7)
    161c:	00072503          	lw	x10,0(x14)
    1620:	00872803          	lw	x16,8(x14)
    1624:	00c72b83          	lw	x23,12(x14)
    1628:	5a068663          	beqz	x13,1bd4 <.L560>
    162c:	000000b7          	lui	x1,0x0
    1630:	0000a787          	flw	f15,0(x1) # 0 <tensorlib_batch_norm2d_transform_input>
    1634:	d01675d3          	fcvt.s.wu	f11,x12
    1638:	000008b7          	lui	x17,0x0
    163c:	20f780d3          	fmv.s	f1,f15
    1640:	18b7f3d3          	fdiv.s	f7,f15,f11
    1644:	20f781d3          	fmv.s	f3,f15
    1648:	00888d13          	addi	x26,x17,8 # 8 <tensorlib_batch_norm2d_transform_input+0x8>
    164c:	000003b7          	lui	x7,0x0
    1650:	01a12823          	sw	x26,16(x2)
    1654:	00000493          	li	x9,0
    1658:	00000cb7          	lui	x25,0x0
    165c:	00000c37          	lui	x24,0x0
    1660:	00038713          	mv	x14,x7
    1664:	00100793          	li	x15,1
    1668:	21040437          	lui	x8,0x21040
    166c:	00050093          	mv	x1,x10
    1670:	00080d13          	mv	x26,x16
    1674:	03050db3          	mul	x27,x10,x16
    1678:	037d8e33          	mul	x28,x27,x23
    167c:	03780eb3          	mul	x29,x16,x23
    1680:	004e5f13          	srli	x30,x28,0x4
    1684:	fffe0f93          	addi	x31,x28,-1
    1688:	001f0313          	addi	x6,x30,1
    168c:	01c12e23          	sw	x28,28(x2)
    1690:	01f12a23          	sw	x31,20(x2)
    1694:	02612023          	sw	x6,32(x2)
    1698:	000e8d93          	mv	x27,x29

0000169c <.L503>:
    169c:	00812b03          	lw	x22,8(x2)
    16a0:	560b0a63          	beqz	x22,1c14 <.L339>
    16a4:	09412603          	lw	x12,148(x2)
    16a8:	60c4fc63          	bgeu	x9,x12,1cc0 <.L667>
    16ac:	09812883          	lw	x17,152(x2)
    16b0:	0a412e03          	lw	x28,164(x2)
    16b4:	70f888e3          	beq	x17,x15,25c4 <.L342>
    16b8:	0b012a83          	lw	x21,176(x2)
    16bc:	00249b13          	slli	x22,x9,0x2
    16c0:	016e02b3          	add	x5,x28,x22
    16c4:	7154fee3          	bgeu	x9,x21,25e0 <.L668>

000016c8 <.L344>:
    16c8:	0b412a03          	lw	x20,180(x2)
    16cc:	0c012983          	lw	x19,192(x2)
    16d0:	64fa0c63          	beq	x20,x15,1d28 <.L346>
    16d4:	00249613          	slli	x12,x9,0x2
    16d8:	00c98833          	add	x16,x19,x12

000016dc <.L347>:
    16dc:	07812883          	lw	x17,120(x2)
    16e0:	0002a607          	flw	f12,0(x5) # 0 <tensorlib_batch_norm2d_transform_input>
    16e4:	00082807          	flw	f16,0(x16)
    16e8:	58088063          	beqz	x17,1c68 <.L504>

000016ec <.L683>:
    16ec:	0114e463          	bltu	x9,x17,16f4 <.L683+0x8>
    16f0:	1040106f          	j	27f4 <.L669>
    16f4:	07c12e03          	lw	x28,124(x2)
    16f8:	08812e83          	lw	x29,136(x2)
    16fc:	00fe1463          	bne	x28,x15,1704 <.L683+0x18>
    1700:	1880106f          	j	2888 <.L360>
    1704:	00249a93          	slli	x21,x9,0x2
    1708:	015e8b33          	add	x22,x29,x21

0000170c <.L361>:
    170c:	000b2507          	flw	f10,0(x22) # 0 <tensorlib_batch_norm2d_transform_input>

00001710 <.L357>:
    1710:	00000a37          	lui	x20,0x0
    1714:	000a2983          	lw	x19,0(x20) # 0 <tensorlib_batch_norm2d_transform_input>
    1718:	01412683          	lw	x13,20(x2)
    171c:	00000937          	lui	x18,0x0
    1720:	01312223          	sw	x19,4(x2)
    1724:	ffd00513          	li	x10,-3
    1728:	00092e83          	lw	x29,0(x18) # 0 <tensorlib_batch_norm2d_transform_input>
    172c:	f0000353          	fmv.w.x	f6,x0
    1730:	08d56263          	bltu	x10,x13,17b4 <.L362>
    1734:	02012583          	lw	x11,32(x2)
    1738:	01c12803          	lw	x16,28(x2)
    173c:	03d58633          	mul	x12,x11,x29
    1740:	00c582b3          	add	x5,x11,x12
    1744:	00587463          	bgeu	x16,x5,174c <.L363>
    1748:	00080293          	mv	x5,x16

0000174c <.L363>:
    174c:	f0000353          	fmv.w.x	f6,x0
    1750:	06567263          	bgeu	x12,x5,17b4 <.L362>
    1754:	14012f03          	lw	x30,320(x2)
    1758:	14812e03          	lw	x28,328(x2)
    175c:	004f2f83          	lw	x31,4(x30)
    1760:	000f2303          	lw	x6,0(x30)
    1764:	00cf2883          	lw	x17,12(x30)
    1768:	03f48b33          	mul	x22,x9,x31
    176c:	008f2a83          	lw	x21,8(x30)

00001770 <.L364>:
    1770:	03b65a33          	divu	x20,x12,x27
    1774:	037659b3          	divu	x19,x12,x23
    1778:	021a7933          	remu	x18,x20,x1
    177c:	03767533          	remu	x10,x12,x23
    1780:	00160613          	addi	x12,x12,1
    1784:	03a9f5b3          	remu	x11,x19,x26
    1788:	026906b3          	mul	x13,x18,x6
    178c:	03150833          	mul	x16,x10,x17
    1790:	00db0fb3          	add	x31,x22,x13
    1794:	03558f33          	mul	x30,x11,x21
    1798:	010f8a33          	add	x20,x31,x16
    179c:	01ea09b3          	add	x19,x20,x30
    17a0:	00299913          	slli	x18,x19,0x2
    17a4:	012e0533          	add	x10,x28,x18
    17a8:	00052707          	flw	f14,0(x10) # 0 <tensorlib_batch_norm2d_transform_input>
    17ac:	00e37353          	fadd.s	f6,f6,f14
    17b0:	fcc290e3          	bne	x5,x12,1770 <.L364>

000017b4 <.L362>:
    17b4:	000c2283          	lw	x5,0(x24) # 0 <tensorlib_batch_norm2d_transform_input>
    17b8:	000cae03          	lw	x28,0(x25) # 0 <tensorlib_batch_norm2d_transform_input>
    17bc:	00412a83          	lw	x21,4(x2)
    17c0:	00428313          	addi	x6,x5,4
    17c4:	002e9e93          	slli	x29,x29,0x2
    17c8:	006708b3          	add	x17,x14,x6
    17cc:	018e1b13          	slli	x22,x28,0x18
    17d0:	01da8633          	add	x12,x21,x29
    17d4:	0168e5b3          	or	x11,x17,x22
    17d8:	200406b7          	lui	x13,0x20040
    17dc:	00662027          	fsw	f6,0(x12)
    17e0:	00d5e833          	or	x16,x11,x13
    17e4:	00f80023          	sb	x15,0(x16)
    17e8:	000c2903          	lw	x18,0(x24)
    17ec:	00f91a63          	bne	x18,x15,1800 <.L382>
    17f0:	7bc0006f          	j	1fac <.L366>

000017f4 <.L670>:
    17f4:	00038693          	mv	x13,x7
    17f8:	1406a82f          	lr.w.aq	x16,(x13)
    17fc:	00f80863          	beq	x16,x15,180c <.L381>

00001800 <.L382>:
    1800:	00038a93          	mv	x21,x7
    1804:	100aa5af          	lr.w	x11,(x21)
    1808:	fef596e3          	bne	x11,x15,17f4 <.L670>

0000180c <.L381>:
    180c:	00000fb7          	lui	x31,0x0
    1810:	000faf03          	lw	x30,0(x31) # 0 <tensorlib_batch_norm2d_transform_input>
    1814:	00072023          	sw	x0,0(x14)
    1818:	640f02e3          	beqz	x30,265c <.L671>

0000181c <.L383>:
    181c:	000ca603          	lw	x12,0(x25)
    1820:	00490e13          	addi	x28,x18,4
    1824:	01c70eb3          	add	x29,x14,x28
    1828:	01861313          	slli	x6,x12,0x18
    182c:	01d368b3          	or	x17,x6,x29
    1830:	20040b37          	lui	x22,0x20040
    1834:	0168e933          	or	x18,x17,x22
    1838:	00f90023          	sb	x15,0(x18)
    183c:	000c2803          	lw	x16,0(x24)
    1840:	00f81a63          	bne	x16,x15,1854 <.L402>
    1844:	1110006f          	j	2154 <.L386>

00001848 <.L672>:
    1848:	00038893          	mv	x17,x7
    184c:	1408ab2f          	lr.w.aq	x22,(x17)
    1850:	00fb0863          	beq	x22,x15,1860 <.L401>

00001854 <.L402>:
    1854:	00038e93          	mv	x29,x7
    1858:	100ea32f          	lr.w	x6,(x29)
    185c:	fef316e3          	bne	x6,x15,1848 <.L672>

00001860 <.L401>:
    1860:	000ca903          	lw	x18,0(x25)
    1864:	00480a93          	addi	x21,x16,4
    1868:	00412983          	lw	x19,4(x2)
    186c:	015706b3          	add	x13,x14,x21
    1870:	01891593          	slli	x11,x18,0x18
    1874:	00d5efb3          	or	x31,x11,x13
    1878:	20040f37          	lui	x30,0x20040
    187c:	00072023          	sw	x0,0(x14)
    1880:	01efea33          	or	x20,x31,x30
    1884:	0009ae07          	flw	f28,0(x19)
    1888:	00fa0023          	sb	x15,0(x20)
    188c:	000c2283          	lw	x5,0(x24)
    1890:	00512623          	sw	x5,12(x2)
    1894:	00f29a63          	bne	x5,x15,18a8 <.L420>
    1898:	7e40006f          	j	207c <.L404>

0000189c <.L673>:
    189c:	00038513          	mv	x10,x7
    18a0:	14052e2f          	lr.w.aq	x28,(x10)
    18a4:	00fe0863          	beq	x28,x15,18b4 <.L419>

000018a8 <.L420>:
    18a8:	00038993          	mv	x19,x7
    18ac:	1009a2af          	lr.w	x5,(x19)
    18b0:	fef296e3          	bne	x5,x15,189c <.L673>

000018b4 <.L419>:
    18b4:	00000837          	lui	x16,0x0
    18b8:	00082e83          	lw	x29,0(x16) # 0 <tensorlib_batch_norm2d_transform_input>
    18bc:	01412883          	lw	x17,20(x2)
    18c0:	00072023          	sw	x0,0(x14)
    18c4:	03d12223          	sw	x29,36(x2)
    18c8:	ffd00b13          	li	x22,-3
    18cc:	f00007d3          	fmv.w.x	f15,x0
    18d0:	0d1b6e63          	bltu	x22,x17,19ac <.L421>
    18d4:	02012903          	lw	x18,32(x2)
    18d8:	01c12a83          	lw	x21,28(x2)
    18dc:	03d90833          	mul	x16,x18,x29
    18e0:	010902b3          	add	x5,x18,x16
    18e4:	005af463          	bgeu	x21,x5,18ec <.L422>
    18e8:	000a8293          	mv	x5,x21

000018ec <.L422>:
    18ec:	f00007d3          	fmv.w.x	f15,x0
    18f0:	0a587e63          	bgeu	x16,x5,19ac <.L421>
    18f4:	17412603          	lw	x12,372(x2)
    18f8:	14012683          	lw	x13,320(x2)
    18fc:	17c12303          	lw	x6,380(x2)
    1900:	00462f83          	lw	x31,4(x12)
    1904:	0046af03          	lw	x30,4(x13) # 20040004 <.L690+0x2003d680>
    1908:	00c6a583          	lw	x11,12(x13)
    190c:	00062e83          	lw	x29,0(x12)
    1910:	00c62a83          	lw	x21,12(x12)
    1914:	00862a03          	lw	x20,8(x12)
    1918:	14812983          	lw	x19,328(x2)
    191c:	0006a903          	lw	x18,0(x13)
    1920:	0086ae03          	lw	x28,8(x13)
    1924:	03f48b33          	mul	x22,x9,x31
    1928:	02912423          	sw	x9,40(x2)
    192c:	02e12623          	sw	x14,44(x2)
    1930:	03e48fb3          	mul	x31,x9,x30
    1934:	00058493          	mv	x9,x11

00001938 <.L423>:
    1938:	03b85533          	divu	x10,x16,x27
    193c:	037858b3          	divu	x17,x16,x23
    1940:	03787733          	remu	x14,x16,x23
    1944:	00180813          	addi	x16,x16,1
    1948:	02157f33          	remu	x30,x10,x1
    194c:	03a8f633          	remu	x12,x17,x26
    1950:	035706b3          	mul	x13,x14,x21
    1954:	03df05b3          	mul	x11,x30,x29
    1958:	00db08b3          	add	x17,x22,x13
    195c:	03460533          	mul	x10,x12,x20
    1960:	00b886b3          	add	x13,x17,x11
    1964:	02970733          	mul	x14,x14,x9
    1968:	00a685b3          	add	x11,x13,x10
    196c:	00259893          	slli	x17,x11,0x2
    1970:	01130533          	add	x10,x6,x17
    1974:	00052e87          	flw	f29,0(x10)
    1978:	08ceff53          	fsub.s	f30,f29,f12
    197c:	032f0f33          	mul	x30,x30,x18
    1980:	00ef86b3          	add	x13,x31,x14
    1984:	03c60633          	mul	x12,x12,x28
    1988:	01e68733          	add	x14,x13,x30
    198c:	00c705b3          	add	x11,x14,x12
    1990:	00259893          	slli	x17,x11,0x2
    1994:	01198533          	add	x10,x19,x17
    1998:	00052f87          	flw	f31,0(x10)
    199c:	79ff77c3          	fmadd.s	f15,f30,f31,f15
    19a0:	f9029ce3          	bne	x5,x16,1938 <.L423>
    19a4:	02812483          	lw	x9,40(x2)
    19a8:	02c12703          	lw	x14,44(x2)

000019ac <.L421>:
    19ac:	00c12303          	lw	x6,12(x2)
    19b0:	000ca283          	lw	x5,0(x25)
    19b4:	02412b03          	lw	x22,36(x2)
    19b8:	00412903          	lw	x18,4(x2)
    19bc:	00430e93          	addi	x29,x6,4 # 4 <tensorlib_batch_norm2d_transform_input+0x4>
    19c0:	01829a13          	slli	x20,x5,0x18
    19c4:	002b1a93          	slli	x21,x22,0x2
    19c8:	01d709b3          	add	x19,x14,x29
    19cc:	01590e33          	add	x28,x18,x21
    19d0:	013a6fb3          	or	x31,x20,x19
    19d4:	20040837          	lui	x16,0x20040
    19d8:	00fe2027          	fsw	f15,0(x28)
    19dc:	010fef33          	or	x30,x31,x16
    19e0:	00ff0023          	sb	x15,0(x30) # 20040000 <.L690+0x2003d67c>
    19e4:	000c2283          	lw	x5,0(x24)
    19e8:	00f29a63          	bne	x5,x15,19fc <.L441>
    19ec:	4f00006f          	j	1edc <.L425>

000019f0 <.L674>:
    19f0:	00038f93          	mv	x31,x7
    19f4:	140fa82f          	lr.w.aq	x16,(x31)
    19f8:	00f80863          	beq	x16,x15,1a08 <.L440>

000019fc <.L441>:
    19fc:	00038913          	mv	x18,x7
    1a00:	10092e2f          	lr.w	x28,(x18)
    1a04:	fefe16e3          	bne	x28,x15,19f0 <.L674>

00001a08 <.L440>:
    1a08:	00000f37          	lui	x30,0x0
    1a0c:	000f2683          	lw	x13,0(x30) # 0 <tensorlib_batch_norm2d_transform_input>
    1a10:	00072023          	sw	x0,0(x14)
    1a14:	40068ee3          	beqz	x13,2630 <.L675>

00001a18 <.L442>:
    1a18:	000ca603          	lw	x12,0(x25)
    1a1c:	00428e93          	addi	x29,x5,4
    1a20:	01d70b33          	add	x22,x14,x29
    1a24:	01861a93          	slli	x21,x12,0x18
    1a28:	016aea33          	or	x20,x21,x22
    1a2c:	200409b7          	lui	x19,0x20040
    1a30:	013a62b3          	or	x5,x20,x19
    1a34:	00f28023          	sb	x15,0(x5)
    1a38:	000c2803          	lw	x16,0(x24)
    1a3c:	00f81a63          	bne	x16,x15,1a50 <.L461>
    1a40:	3cc0006f          	j	1e0c <.L445>

00001a44 <.L676>:
    1a44:	00038a13          	mv	x20,x7
    1a48:	140a29af          	lr.w.aq	x19,(x20)
    1a4c:	00f98863          	beq	x19,x15,1a5c <.L460>

00001a50 <.L461>:
    1a50:	00038593          	mv	x11,x7
    1a54:	1005aaaf          	lr.w	x21,(x11)
    1a58:	fefa96e3          	bne	x21,x15,1a44 <.L676>

00001a5c <.L460>:
    1a5c:	000ca283          	lw	x5,0(x25)
    1a60:	00480913          	addi	x18,x16,4 # 20040004 <.L690+0x2003d680>
    1a64:	00412683          	lw	x13,4(x2)
    1a68:	01270e33          	add	x28,x14,x18
    1a6c:	01829f93          	slli	x31,x5,0x18
    1a70:	01cfef33          	or	x30,x31,x28
    1a74:	200408b7          	lui	x17,0x20040
    1a78:	00072023          	sw	x0,0(x14)
    1a7c:	011f6333          	or	x6,x30,x17
    1a80:	0006a287          	flw	f5,0(x13)
    1a84:	00f30023          	sb	x15,0(x6)
    1a88:	000c2503          	lw	x10,0(x24)
    1a8c:	00f51a63          	bne	x10,x15,1aa0 <.L479>
    1a90:	2b00006f          	j	1d40 <.L463>

00001a94 <.L677>:
    1a94:	00038513          	mv	x10,x7
    1a98:	14052eaf          	lr.w.aq	x29,(x10)
    1a9c:	00fe8863          	beq	x29,x15,1aac <.L478>

00001aa0 <.L479>:
    1aa0:	00038a93          	mv	x21,x7
    1aa4:	100aa6af          	lr.w	x13,(x21)
    1aa8:	fef696e3          	bne	x13,x15,1a94 <.L677>

00001aac <.L478>:
    1aac:	00000837          	lui	x16,0x0
    1ab0:	00082a03          	lw	x20,0(x16) # 0 <tensorlib_batch_norm2d_transform_input>
    1ab4:	10412b03          	lw	x22,260(x2)
    1ab8:	00072023          	sw	x0,0(x14)
    1abc:	03412a23          	sw	x20,52(x2)
    1ac0:	0e0b0863          	beqz	x22,1bb0 <.L480>
    1ac4:	00812583          	lw	x11,8(x2)
    1ac8:	3c0590e3          	bnez	x11,2688 <.L678>
    1acc:	01412983          	lw	x19,20(x2)
    1ad0:	ffd00293          	li	x5,-3
    1ad4:	0d32ee63          	bltu	x5,x19,1bb0 <.L480>
    1ad8:	02012603          	lw	x12,32(x2)
    1adc:	03412903          	lw	x18,52(x2)
    1ae0:	01c12f83          	lw	x31,28(x2)
    1ae4:	02c90833          	mul	x16,x18,x12
    1ae8:	01060e33          	add	x28,x12,x16
    1aec:	01cff463          	bgeu	x31,x28,1af4 <.L487>
    1af0:	000f8e13          	mv	x28,x31

00001af4 <.L487>:
    1af4:	0bc87e63          	bgeu	x16,x28,1bb0 <.L480>
    1af8:	14012883          	lw	x17,320(x2)
    1afc:	10c12683          	lw	x13,268(x2)
    1b00:	11057653          	fmul.s	f12,f10,f16
    1b04:	0048af03          	lw	x30,4(x17) # 20040004 <.L690+0x2003d680>
    1b08:	0046a503          	lw	x10,4(x13)
    1b0c:	00c6a583          	lw	x11,12(x13)
    1b10:	14812b03          	lw	x22,328(x2)
    1b14:	0008aa83          	lw	x21,0(x17)
    1b18:	00c8aa03          	lw	x20,12(x17)
    1b1c:	0088a983          	lw	x19,8(x17)
    1b20:	11412903          	lw	x18,276(x2)
    1b24:	0006a303          	lw	x6,0(x13)
    1b28:	0086af83          	lw	x31,8(x13)
    1b2c:	03e482b3          	mul	x5,x9,x30
    1b30:	00912223          	sw	x9,4(x2)
    1b34:	00e12623          	sw	x14,12(x2)
    1b38:	02a48eb3          	mul	x29,x9,x10
    1b3c:	00058493          	mv	x9,x11

00001b40 <.L489>:
    1b40:	03b858b3          	divu	x17,x16,x27
    1b44:	03785633          	divu	x12,x16,x23
    1b48:	03787733          	remu	x14,x16,x23
    1b4c:	00180813          	addi	x16,x16,1
    1b50:	0218ff33          	remu	x30,x17,x1
    1b54:	03a67633          	remu	x12,x12,x26
    1b58:	034706b3          	mul	x13,x14,x20
    1b5c:	035f05b3          	mul	x11,x30,x21
    1b60:	00d288b3          	add	x17,x5,x13
    1b64:	03360533          	mul	x10,x12,x19
    1b68:	00b886b3          	add	x13,x17,x11
    1b6c:	02970733          	mul	x14,x14,x9
    1b70:	00a685b3          	add	x11,x13,x10
    1b74:	00259893          	slli	x17,x11,0x2
    1b78:	011b0533          	add	x10,x22,x17
    1b7c:	00052207          	flw	f4,0(x10)
    1b80:	10c27553          	fmul.s	f10,f4,f12
    1b84:	026f0f33          	mul	x30,x30,x6
    1b88:	00ee86b3          	add	x13,x29,x14
    1b8c:	03f60633          	mul	x12,x12,x31
    1b90:	01e68733          	add	x14,x13,x30
    1b94:	00c705b3          	add	x11,x14,x12
    1b98:	00259893          	slli	x17,x11,0x2
    1b9c:	01190533          	add	x10,x18,x17
    1ba0:	00a52027          	fsw	f10,0(x10)
    1ba4:	f90e1ee3          	bne	x28,x16,1b40 <.L489>
    1ba8:	00412483          	lw	x9,4(x2)
    1bac:	00c12703          	lw	x14,12(x2)

00001bb0 <.L480>:
    1bb0:	03412e03          	lw	x28,52(x2)
    1bb4:	000e1a63          	bnez	x28,1bc8 <.L491>
    1bb8:	04012f03          	lw	x30,64(x2)
    1bbc:	480f14e3          	bnez	x30,2844 <.L679>

00001bc0 <.L492>:
    1bc0:	05c12a03          	lw	x20,92(x2)
    1bc4:	4a0a12e3          	bnez	x20,2868 <.L680>

00001bc8 <.L491>:
    1bc8:	01812283          	lw	x5,24(x2)
    1bcc:	00148493          	addi	x9,x9,1
    1bd0:	ac9296e3          	bne	x5,x9,169c <.L503>

00001bd4 <.L560>:
    1bd4:	1dc12083          	lw	x1,476(x2)
    1bd8:	1d812403          	lw	x8,472(x2)
    1bdc:	1d412483          	lw	x9,468(x2)
    1be0:	1d012903          	lw	x18,464(x2)
    1be4:	1cc12983          	lw	x19,460(x2)
    1be8:	1c812a03          	lw	x20,456(x2)
    1bec:	1c412a83          	lw	x21,452(x2)
    1bf0:	1c012b03          	lw	x22,448(x2)
    1bf4:	1bc12b83          	lw	x23,444(x2)
    1bf8:	1b812c03          	lw	x24,440(x2)
    1bfc:	1b412c83          	lw	x25,436(x2)
    1c00:	1b012d03          	lw	x26,432(x2)
    1c04:	1ac12d83          	lw	x27,428(x2)
    1c08:	00000513          	li	x10,0
    1c0c:	1e010113          	addi	x2,x2,480
    1c10:	00008067          	ret

00001c14 <.L339>:
    1c14:	0cc12a83          	lw	x21,204(x2)
    1c18:	0554fc63          	bgeu	x9,x21,1c70 <.L681>
    1c1c:	0d012a03          	lw	x20,208(x2)
    1c20:	0dc12983          	lw	x19,220(x2)
    1c24:	12fa0ae3          	beq	x20,x15,2558 <.L351>
    1c28:	0e812883          	lw	x17,232(x2)
    1c2c:	00249613          	slli	x12,x9,0x2
    1c30:	00c98833          	add	x16,x19,x12
    1c34:	1514f0e3          	bgeu	x9,x17,2574 <.L682>

00001c38 <.L353>:
    1c38:	0ec12e03          	lw	x28,236(x2)
    1c3c:	0f812e83          	lw	x29,248(x2)
    1c40:	0cfe0863          	beq	x28,x15,1d10 <.L355>
    1c44:	00249a93          	slli	x21,x9,0x2
    1c48:	015e8b33          	add	x22,x29,x21

00001c4c <.L356>:
    1c4c:	000b2007          	flw	f0,0(x22) # 20040000 <.L690+0x2003d67c>
    1c50:	07812883          	lw	x17,120(x2)
    1c54:	00082607          	flw	f12,0(x16)
    1c58:	00017253          	fadd.s	f4,f2,f0
    1c5c:	580272d3          	fsqrt.s	f5,f4
    1c60:	1850f853          	fdiv.s	f16,f1,f5
    1c64:	a80894e3          	bnez	x17,16ec <.L683>

00001c68 <.L504>:
    1c68:	20318553          	fmv.s	f10,f3
    1c6c:	aa5ff06f          	j	1710 <.L357>

00001c70 <.L681>:
    1c70:	000000b7          	lui	x1,0x0
    1c74:	00000a37          	lui	x20,0x0
    1c78:	00008593          	mv	x11,x1
    1c7c:	07f00613          	li	x12,127
    1c80:	000a0513          	mv	x10,x20
    1c84:	00000097          	auipc	x1,0x0
    1c88:	000080e7          	jalr	x1 # 1c84 <.L681+0x14>
    1c8c:	0cc12583          	lw	x11,204(x2)
    1c90:	000009b7          	lui	x19,0x0
    1c94:	00048613          	mv	x12,x9
    1c98:	00098513          	mv	x10,x19
    1c9c:	00000097          	auipc	x1,0x0
    1ca0:	000080e7          	jalr	x1 # 1c9c <.L681+0x2c>
    1ca4:	000ca903          	lw	x18,0(x25)
    1ca8:	000c2683          	lw	x13,0(x24)
    1cac:	4100f837          	lui	x16,0x4100f
    1cb0:	01091513          	slli	x10,x18,0x10
    1cb4:	00d505b3          	add	x11,x10,x13
    1cb8:	acb82c23          	sw	x11,-1320(x16) # 4100ead8 <.L690+0x4100c154>

00001cbc <.L350>:
    1cbc:	0000006f          	j	1cbc <.L350>

00001cc0 <.L667>:
    1cc0:	00000737          	lui	x14,0x0
    1cc4:	000000b7          	lui	x1,0x0
    1cc8:	00070593          	mv	x11,x14
    1ccc:	07f00613          	li	x12,127
    1cd0:	00008513          	mv	x10,x1
    1cd4:	00000097          	auipc	x1,0x0
    1cd8:	000080e7          	jalr	x1 # 1cd4 <.L667+0x14>
    1cdc:	09412583          	lw	x11,148(x2)
    1ce0:	000009b7          	lui	x19,0x0
    1ce4:	00048613          	mv	x12,x9
    1ce8:	00098513          	mv	x10,x19
    1cec:	00000097          	auipc	x1,0x0
    1cf0:	000080e7          	jalr	x1 # 1cec <.L667+0x2c>
    1cf4:	000cae83          	lw	x29,0(x25)
    1cf8:	000c2a83          	lw	x21,0(x24)
    1cfc:	4100f8b7          	lui	x17,0x4100f
    1d00:	010e9b13          	slli	x22,x29,0x10
    1d04:	015b0333          	add	x6,x22,x21
    1d08:	ac68ac23          	sw	x6,-1320(x17) # 4100ead8 <.L690+0x4100c154>

00001d0c <.L341>:
    1d0c:	0000006f          	j	1d0c <.L341>

00001d10 <.L355>:
    1d10:	0f012f03          	lw	x30,240(x2)
    1d14:	000f2f83          	lw	x31,0(x30)
    1d18:	03f48333          	mul	x6,x9,x31
    1d1c:	00231293          	slli	x5,x6,0x2
    1d20:	005e8b33          	add	x22,x29,x5
    1d24:	f29ff06f          	j	1c4c <.L356>

00001d28 <.L346>:
    1d28:	0b812903          	lw	x18,184(x2)
    1d2c:	00092683          	lw	x13,0(x18)
    1d30:	02d48533          	mul	x10,x9,x13
    1d34:	00251593          	slli	x11,x10,0x2
    1d38:	00b98833          	add	x16,x19,x11
    1d3c:	9a1ff06f          	j	16dc <.L347>

00001d40 <.L463>:
    1d40:	00474603          	lbu	x12,4(x14) # 4 <tensorlib_batch_norm2d_transform_input+0x4>
    1d44:	0ff67e93          	andi	x29,x12,255
    1d48:	fe0e8ce3          	beqz	x29,1d40 <.L463>
    1d4c:	00574b03          	lbu	x22,5(x14)
    1d50:	0ffb7813          	andi	x16,x22,255
    1d54:	fe0806e3          	beqz	x16,1d40 <.L463>
    1d58:	00674583          	lbu	x11,6(x14)
    1d5c:	0ff5fa93          	andi	x21,x11,255
    1d60:	fe0a80e3          	beqz	x21,1d40 <.L463>
    1d64:	00774a03          	lbu	x20,7(x14)
    1d68:	0ffa7993          	andi	x19,x20,255
    1d6c:	fc098ae3          	beqz	x19,1d40 <.L463>
    1d70:	000ca283          	lw	x5,0(x25)
    1d74:	00c28913          	addi	x18,x5,12
    1d78:	01270e33          	add	x28,x14,x18
    1d7c:	008e6fb3          	or	x31,x28,x8
    1d80:	00ff8023          	sb	x15,0(x31)
    1d84:	000c2f03          	lw	x30,0(x24)
    1d88:	d0ff1ce3          	bne	x30,x15,1aa0 <.L479>
    1d8c:	000caa83          	lw	x21,0(x25)
    1d90:	00fa9a63          	bne	x21,x15,1da4 <.L468>
    1d94:	6b40006f          	j	2448 <.L469>

00001d98 <.L684>:
    1d98:	00870b13          	addi	x22,x14,8
    1d9c:	140b282f          	lr.w.aq	x16,(x22)
    1da0:	00f80863          	beq	x16,x15,1db0 <.L476>

00001da4 <.L468>:
    1da4:	00870513          	addi	x10,x14,8
    1da8:	10052eaf          	lr.w	x29,(x10)
    1dac:	fefe96e3          	bne	x29,x15,1d98 <.L684>

00001db0 <.L476>:
    1db0:	00072423          	sw	x0,8(x14)
    1db4:	00070223          	sb	x0,4(x14)
    1db8:	000702a3          	sb	x0,5(x14)
    1dbc:	00070323          	sb	x0,6(x14)
    1dc0:	000703a3          	sb	x0,7(x14)
    1dc4:	00072023          	sw	x0,0(x14)
    1dc8:	00000737          	lui	x14,0x0
    1dcc:	00000613          	li	x12,0
    1dd0:	00070713          	mv	x14,x14

00001dd4 <.L477>:
    1dd4:	000caa03          	lw	x20,0(x25)
    1dd8:	000005b7          	lui	x11,0x0
    1ddc:	00058993          	mv	x19,x11
    1de0:	00c9e2b3          	or	x5,x19,x12
    1de4:	018a1e13          	slli	x28,x20,0x18
    1de8:	005e6fb3          	or	x31,x28,x5
    1dec:	20000f37          	lui	x30,0x20000
    1df0:	00040937          	lui	x18,0x40
    1df4:	01efe8b3          	or	x17,x31,x30
    1df8:	01260633          	add	x12,x12,x18
    1dfc:	00f8a023          	sw	x15,0(x17)
    1e00:	00100337          	lui	x6,0x100
    1e04:	fc6618e3          	bne	x12,x6,1dd4 <.L477>
    1e08:	c99ff06f          	j	1aa0 <.L479>

00001e0c <.L445>:
    1e0c:	00474903          	lbu	x18,4(x14) # 4 <tensorlib_batch_norm2d_transform_input+0x4>
    1e10:	0ff97e13          	andi	x28,x18,255
    1e14:	fe0e0ce3          	beqz	x28,1e0c <.L445>
    1e18:	00574f83          	lbu	x31,5(x14)
    1e1c:	0ffff813          	andi	x16,x31,255
    1e20:	fe0806e3          	beqz	x16,1e0c <.L445>
    1e24:	00674f03          	lbu	x30,6(x14)
    1e28:	0fff7693          	andi	x13,x30,255
    1e2c:	fe0680e3          	beqz	x13,1e0c <.L445>
    1e30:	00774883          	lbu	x17,7(x14)
    1e34:	0ff8f593          	andi	x11,x17,255
    1e38:	fc058ae3          	beqz	x11,1e0c <.L445>
    1e3c:	000ca303          	lw	x6,0(x25)
    1e40:	00c30513          	addi	x10,x6,12 # 10000c <.L690+0xfd688>
    1e44:	00a70633          	add	x12,x14,x10
    1e48:	00866eb3          	or	x29,x12,x8
    1e4c:	00fe8023          	sb	x15,0(x29) # 0 <tensorlib_batch_norm2d_transform_input>
    1e50:	000c2803          	lw	x16,0(x24)
    1e54:	bef81ee3          	bne	x16,x15,1a50 <.L461>
    1e58:	000ca803          	lw	x16,0(x25)
    1e5c:	00f81a63          	bne	x16,x15,1e70 <.L450>
    1e60:	3c40006f          	j	2224 <.L451>

00001e64 <.L685>:
    1e64:	00870293          	addi	x5,x14,8
    1e68:	1402a92f          	lr.w.aq	x18,(x5)
    1e6c:	00f90863          	beq	x18,x15,1e7c <.L458>

00001e70 <.L450>:
    1e70:	00870a13          	addi	x20,x14,8
    1e74:	100a29af          	lr.w	x19,(x20)
    1e78:	fef996e3          	bne	x19,x15,1e64 <.L685>

00001e7c <.L458>:
    1e7c:	00072423          	sw	x0,8(x14)
    1e80:	00070223          	sb	x0,4(x14)
    1e84:	000702a3          	sb	x0,5(x14)
    1e88:	00070323          	sb	x0,6(x14)
    1e8c:	000703a3          	sb	x0,7(x14)
    1e90:	00072023          	sw	x0,0(x14)
    1e94:	00000737          	lui	x14,0x0
    1e98:	00000313          	li	x6,0
    1e9c:	00070713          	mv	x14,x14

00001ea0 <.L459>:
    1ea0:	000cae03          	lw	x28,0(x25)
    1ea4:	00000fb7          	lui	x31,0x0
    1ea8:	000f8813          	mv	x16,x31
    1eac:	00686f33          	or	x30,x16,x6
    1eb0:	018e1693          	slli	x13,x28,0x18
    1eb4:	01e6e533          	or	x10,x13,x30
    1eb8:	20000637          	lui	x12,0x20000
    1ebc:	000408b7          	lui	x17,0x40
    1ec0:	00c56eb3          	or	x29,x10,x12
    1ec4:	01130333          	add	x6,x6,x17
    1ec8:	00fea023          	sw	x15,0(x29)
    1ecc:	00100b37          	lui	x22,0x100
    1ed0:	fd6318e3          	bne	x6,x22,1ea0 <.L459>
    1ed4:	000c2803          	lw	x16,0(x24)
    1ed8:	b79ff06f          	j	1a50 <.L461>

00001edc <.L425>:
    1edc:	00474683          	lbu	x13,4(x14) # 4 <tensorlib_batch_norm2d_transform_input+0x4>
    1ee0:	0ff6f613          	andi	x12,x13,255
    1ee4:	fe060ce3          	beqz	x12,1edc <.L425>
    1ee8:	00574583          	lbu	x11,5(x14)
    1eec:	0ff5f893          	andi	x17,x11,255
    1ef0:	fe0886e3          	beqz	x17,1edc <.L425>
    1ef4:	00674503          	lbu	x10,6(x14)
    1ef8:	0ff57293          	andi	x5,x10,255
    1efc:	fe0280e3          	beqz	x5,1edc <.L425>
    1f00:	00774303          	lbu	x6,7(x14)
    1f04:	0ff37e93          	andi	x29,x6,255
    1f08:	fc0e8ae3          	beqz	x29,1edc <.L425>
    1f0c:	000cab03          	lw	x22,0(x25)
    1f10:	00cb0a93          	addi	x21,x22,12 # 10000c <.L690+0xfd688>
    1f14:	01570a33          	add	x20,x14,x21
    1f18:	008a69b3          	or	x19,x20,x8
    1f1c:	00f98023          	sb	x15,0(x19) # 0 <tensorlib_batch_norm2d_transform_input>
    1f20:	000c2283          	lw	x5,0(x24)
    1f24:	acf29ce3          	bne	x5,x15,19fc <.L441>
    1f28:	000ca283          	lw	x5,0(x25)
    1f2c:	00f29a63          	bne	x5,x15,1f40 <.L430>
    1f30:	5a00006f          	j	24d0 <.L431>

00001f34 <.L686>:
    1f34:	00870f13          	addi	x30,x14,8
    1f38:	140f26af          	lr.w.aq	x13,(x30)
    1f3c:	00f68863          	beq	x13,x15,1f4c <.L438>

00001f40 <.L430>:
    1f40:	00870f93          	addi	x31,x14,8
    1f44:	100fa82f          	lr.w	x16,(x31)
    1f48:	fef816e3          	bne	x16,x15,1f34 <.L686>

00001f4c <.L438>:
    1f4c:	00072423          	sw	x0,8(x14)
    1f50:	00070223          	sb	x0,4(x14)
    1f54:	000702a3          	sb	x0,5(x14)
    1f58:	00070323          	sb	x0,6(x14)
    1f5c:	000703a3          	sb	x0,7(x14)
    1f60:	00072023          	sw	x0,0(x14)
    1f64:	00000737          	lui	x14,0x0
    1f68:	00000613          	li	x12,0
    1f6c:	00070713          	mv	x14,x14

00001f70 <.L439>:
    1f70:	000ca883          	lw	x17,0(x25)
    1f74:	000005b7          	lui	x11,0x0
    1f78:	00058293          	mv	x5,x11
    1f7c:	00c2e333          	or	x6,x5,x12
    1f80:	01889e93          	slli	x29,x17,0x18
    1f84:	006eeb33          	or	x22,x29,x6
    1f88:	20000ab7          	lui	x21,0x20000
    1f8c:	00040537          	lui	x10,0x40
    1f90:	015b6a33          	or	x20,x22,x21
    1f94:	00a60633          	add	x12,x12,x10
    1f98:	00fa2023          	sw	x15,0(x20) # 0 <tensorlib_batch_norm2d_transform_input>
    1f9c:	001009b7          	lui	x19,0x100
    1fa0:	fd3618e3          	bne	x12,x19,1f70 <.L439>
    1fa4:	000c2283          	lw	x5,0(x24)
    1fa8:	a55ff06f          	j	19fc <.L441>

00001fac <.L366>:
    1fac:	00474f83          	lbu	x31,4(x14) # 4 <tensorlib_batch_norm2d_transform_input+0x4>
    1fb0:	0fffff13          	andi	x30,x31,255
    1fb4:	fe0f0ce3          	beqz	x30,1fac <.L366>
    1fb8:	00574a03          	lbu	x20,5(x14)
    1fbc:	0ffa7993          	andi	x19,x20,255
    1fc0:	fe0986e3          	beqz	x19,1fac <.L366>
    1fc4:	00674903          	lbu	x18,6(x14)
    1fc8:	0ff97513          	andi	x10,x18,255
    1fcc:	fe0500e3          	beqz	x10,1fac <.L366>
    1fd0:	00774283          	lbu	x5,7(x14)
    1fd4:	0ff2fe13          	andi	x28,x5,255
    1fd8:	fc0e0ae3          	beqz	x28,1fac <.L366>
    1fdc:	000cae83          	lw	x29,0(x25)
    1fe0:	00ce8313          	addi	x6,x29,12
    1fe4:	006708b3          	add	x17,x14,x6
    1fe8:	0088eb33          	or	x22,x17,x8
    1fec:	00fb0023          	sb	x15,0(x22)
    1ff0:	000c2903          	lw	x18,0(x24)
    1ff4:	80f916e3          	bne	x18,x15,1800 <.L382>
    1ff8:	000ca903          	lw	x18,0(x25)
    1ffc:	00f91a63          	bne	x18,x15,2010 <.L371>
    2000:	2ac0006f          	j	22ac <.L372>

00002004 <.L687>:
    2004:	00870f93          	addi	x31,x14,8
    2008:	140faf2f          	lr.w.aq	x30,(x31)
    200c:	00ff0863          	beq	x30,x15,201c <.L379>

00002010 <.L371>:
    2010:	00870693          	addi	x13,x14,8
    2014:	1006a82f          	lr.w	x16,(x13)
    2018:	fef816e3          	bne	x16,x15,2004 <.L687>

0000201c <.L379>:
    201c:	00072423          	sw	x0,8(x14)
    2020:	00070223          	sb	x0,4(x14)
    2024:	000702a3          	sb	x0,5(x14)
    2028:	00070323          	sb	x0,6(x14)
    202c:	000703a3          	sb	x0,7(x14)
    2030:	00072023          	sw	x0,0(x14)
    2034:	00000737          	lui	x14,0x0
    2038:	00000613          	li	x12,0
    203c:	00070713          	mv	x14,x14

00002040 <.L380>:
    2040:	000caa03          	lw	x20,0(x25)
    2044:	000009b7          	lui	x19,0x0
    2048:	00098913          	mv	x18,x19
    204c:	00c962b3          	or	x5,x18,x12
    2050:	018a1e13          	slli	x28,x20,0x18
    2054:	005e6eb3          	or	x29,x28,x5
    2058:	20000337          	lui	x6,0x20000
    205c:	00040537          	lui	x10,0x40
    2060:	006ee8b3          	or	x17,x29,x6
    2064:	00a60633          	add	x12,x12,x10
    2068:	00f8a023          	sw	x15,0(x17) # 40000 <.L690+0x3d67c>
    206c:	00100b37          	lui	x22,0x100
    2070:	fd6618e3          	bne	x12,x22,2040 <.L380>
    2074:	000c2903          	lw	x18,0(x24)
    2078:	f88ff06f          	j	1800 <.L382>

0000207c <.L404>:
    207c:	00474503          	lbu	x10,4(x14) # 4 <tensorlib_batch_norm2d_transform_input+0x4>
    2080:	0ff57613          	andi	x12,x10,255
    2084:	fe060ce3          	beqz	x12,207c <.L404>
    2088:	00574e03          	lbu	x28,5(x14)
    208c:	0ffe7813          	andi	x16,x28,255
    2090:	fe0806e3          	beqz	x16,207c <.L404>
    2094:	00674e83          	lbu	x29,6(x14)
    2098:	0ffef313          	andi	x6,x29,255
    209c:	fe0300e3          	beqz	x6,207c <.L404>
    20a0:	00774883          	lbu	x17,7(x14)
    20a4:	0ff8fb13          	andi	x22,x17,255
    20a8:	fc0b0ae3          	beqz	x22,207c <.L404>
    20ac:	000ca903          	lw	x18,0(x25)
    20b0:	00c90a93          	addi	x21,x18,12 # 4000c <.L690+0x3d688>
    20b4:	015706b3          	add	x13,x14,x21
    20b8:	0086e5b3          	or	x11,x13,x8
    20bc:	00f58023          	sb	x15,0(x11) # 0 <tensorlib_batch_norm2d_transform_input>
    20c0:	000c2f83          	lw	x31,0(x24)
    20c4:	01f12623          	sw	x31,12(x2)
    20c8:	feff9063          	bne	x31,x15,18a8 <.L420>
    20cc:	000ca303          	lw	x6,0(x25)
    20d0:	00f31a63          	bne	x6,x15,20e4 <.L409>
    20d4:	2e80006f          	j	23bc <.L410>

000020d8 <.L688>:
    20d8:	00870e13          	addi	x28,x14,8
    20dc:	140e282f          	lr.w.aq	x16,(x28)
    20e0:	00f80863          	beq	x16,x15,20f0 <.L417>

000020e4 <.L409>:
    20e4:	00870293          	addi	x5,x14,8
    20e8:	1002a52f          	lr.w	x10,(x5)
    20ec:	fef516e3          	bne	x10,x15,20d8 <.L688>

000020f0 <.L417>:
    20f0:	00072423          	sw	x0,8(x14)
    20f4:	00070223          	sb	x0,4(x14)
    20f8:	000702a3          	sb	x0,5(x14)
    20fc:	00070323          	sb	x0,6(x14)
    2100:	000703a3          	sb	x0,7(x14)
    2104:	00072023          	sw	x0,0(x14)
    2108:	00000737          	lui	x14,0x0
    210c:	00000613          	li	x12,0
    2110:	00070713          	mv	x14,x14

00002114 <.L418>:
    2114:	000cae83          	lw	x29,0(x25)
    2118:	000008b7          	lui	x17,0x0
    211c:	00088b13          	mv	x22,x17
    2120:	00cb6933          	or	x18,x22,x12
    2124:	018e9693          	slli	x13,x29,0x18
    2128:	0126efb3          	or	x31,x13,x18
    212c:	20000f37          	lui	x30,0x20000
    2130:	00040ab7          	lui	x21,0x40
    2134:	01efe5b3          	or	x11,x31,x30
    2138:	01560633          	add	x12,x12,x21
    213c:	00f5a023          	sw	x15,0(x11)
    2140:	00100a37          	lui	x20,0x100
    2144:	fd4618e3          	bne	x12,x20,2114 <.L418>
    2148:	000c2303          	lw	x6,0(x24)
    214c:	00612623          	sw	x6,12(x2)
    2150:	f58ff06f          	j	18a8 <.L420>

00002154 <.L386>:
    2154:	00474a83          	lbu	x21,4(x14) # 4 <tensorlib_batch_norm2d_transform_input+0x4>
    2158:	0ffaf593          	andi	x11,x21,255
    215c:	fe058ce3          	beqz	x11,2154 <.L386>
    2160:	00574683          	lbu	x13,5(x14)
    2164:	0ff6f813          	andi	x16,x13,255
    2168:	fe0806e3          	beqz	x16,2154 <.L386>
    216c:	00674f83          	lbu	x31,6(x14)
    2170:	0fffff13          	andi	x30,x31,255
    2174:	fe0f00e3          	beqz	x30,2154 <.L386>
    2178:	00774a03          	lbu	x20,7(x14)
    217c:	0ffa7993          	andi	x19,x20,255
    2180:	fc098ae3          	beqz	x19,2154 <.L386>
    2184:	000ca283          	lw	x5,0(x25)
    2188:	00c28513          	addi	x10,x5,12
    218c:	00a70633          	add	x12,x14,x10
    2190:	00866e33          	or	x28,x12,x8
    2194:	00fe0023          	sb	x15,0(x28)
    2198:	000c2803          	lw	x16,0(x24)
    219c:	eaf81c63          	bne	x16,x15,1854 <.L402>
    21a0:	000ca803          	lw	x16,0(x25)
    21a4:	00f81a63          	bne	x16,x15,21b8 <.L391>
    21a8:	18c0006f          	j	2334 <.L392>

000021ac <.L689>:
    21ac:	00870913          	addi	x18,x14,8
    21b0:	14092aaf          	lr.w.aq	x21,(x18)
    21b4:	00fa8863          	beq	x21,x15,21c4 <.L399>

000021b8 <.L391>:
    21b8:	00870893          	addi	x17,x14,8
    21bc:	1008ab2f          	lr.w	x22,(x17)
    21c0:	fefb16e3          	bne	x22,x15,21ac <.L689>

000021c4 <.L399>:
    21c4:	00072423          	sw	x0,8(x14)
    21c8:	00070223          	sb	x0,4(x14)
    21cc:	000702a3          	sb	x0,5(x14)
    21d0:	00070323          	sb	x0,6(x14)
    21d4:	000703a3          	sb	x0,7(x14)
    21d8:	00072023          	sw	x0,0(x14)
    21dc:	00000737          	lui	x14,0x0
    21e0:	00000a13          	li	x20,0
    21e4:	00070713          	mv	x14,x14

000021e8 <.L400>:
    21e8:	000ca683          	lw	x13,0(x25)
    21ec:	000005b7          	lui	x11,0x0
    21f0:	00058813          	mv	x16,x11
    21f4:	01486fb3          	or	x31,x16,x20
    21f8:	01869993          	slli	x19,x13,0x18
    21fc:	01f9e2b3          	or	x5,x19,x31
    2200:	20000537          	lui	x10,0x20000
    2204:	00040f37          	lui	x30,0x40
    2208:	00a2e633          	or	x12,x5,x10
    220c:	01ea0a33          	add	x20,x20,x30
    2210:	00f62023          	sw	x15,0(x12) # 20000000 <.L690+0x1fffd67c>
    2214:	00100e37          	lui	x28,0x100
    2218:	fdca18e3          	bne	x20,x28,21e8 <.L400>
    221c:	000c2803          	lw	x16,0(x24)
    2220:	e34ff06f          	j	1854 <.L402>

00002224 <.L451>:
    2224:	00c74b03          	lbu	x22,12(x14) # c <tensorlib_batch_norm2d_transform_input+0xc>
    2228:	0ffb7a93          	andi	x21,x22,255
    222c:	fe0a8ce3          	beqz	x21,2224 <.L451>
    2230:	00d74a03          	lbu	x20,13(x14)
    2234:	0ffa7993          	andi	x19,x20,255
    2238:	fe0986e3          	beqz	x19,2224 <.L451>
    223c:	00e74283          	lbu	x5,14(x14)
    2240:	0ff2f913          	andi	x18,x5,255
    2244:	fe0900e3          	beqz	x18,2224 <.L451>
    2248:	00f74e03          	lbu	x28,15(x14)
    224c:	0ffe7f93          	andi	x31,x28,255
    2250:	fc0f8ae3          	beqz	x31,2224 <.L451>
    2254:	00070623          	sb	x0,12(x14)
    2258:	000706a3          	sb	x0,13(x14)
    225c:	00070723          	sb	x0,14(x14)
    2260:	000707a3          	sb	x0,15(x14)
    2264:	00072423          	sw	x0,8(x14)
    2268:	00000593          	li	x11,0

0000226c <.L455>:
    226c:	01012f03          	lw	x30,16(x2)
    2270:	01281813          	slli	x16,x16,0x12
    2274:	03fc06b7          	lui	x13,0x3fc0
    2278:	00bf68b3          	or	x17,x30,x11
    227c:	00d87333          	and	x6,x16,x13
    2280:	01136533          	or	x10,x6,x17
    2284:	20000637          	lui	x12,0x20000
    2288:	00c56eb3          	or	x29,x10,x12
    228c:	01000b37          	lui	x22,0x1000
    2290:	00fea023          	sw	x15,0(x29)
    2294:	016585b3          	add	x11,x11,x22
    2298:	04000ab7          	lui	x21,0x4000
    229c:	000c2803          	lw	x16,0(x24)
    22a0:	fd5596e3          	bne	x11,x21,226c <.L455>
    22a4:	bcf806e3          	beq	x16,x15,1e70 <.L450>
    22a8:	fa8ff06f          	j	1a50 <.L461>

000022ac <.L372>:
    22ac:	00c74a83          	lbu	x21,12(x14)
    22b0:	0ffaf593          	andi	x11,x21,255
    22b4:	fe058ce3          	beqz	x11,22ac <.L372>
    22b8:	00d74683          	lbu	x13,13(x14)
    22bc:	0ff6f813          	andi	x16,x13,255
    22c0:	fe0806e3          	beqz	x16,22ac <.L372>
    22c4:	00e74f83          	lbu	x31,14(x14)
    22c8:	0fffff13          	andi	x30,x31,255
    22cc:	fe0f00e3          	beqz	x30,22ac <.L372>
    22d0:	00f74a03          	lbu	x20,15(x14)
    22d4:	0ffa7993          	andi	x19,x20,255
    22d8:	fc098ae3          	beqz	x19,22ac <.L372>
    22dc:	00070623          	sb	x0,12(x14)
    22e0:	000706a3          	sb	x0,13(x14)
    22e4:	00070723          	sb	x0,14(x14)
    22e8:	000707a3          	sb	x0,15(x14)
    22ec:	00072423          	sw	x0,8(x14)
    22f0:	00000a93          	li	x21,0

000022f4 <.L376>:
    22f4:	01012603          	lw	x12,16(x2)
    22f8:	01291913          	slli	x18,x18,0x12
    22fc:	03fc0537          	lui	x10,0x3fc0
    2300:	015662b3          	or	x5,x12,x21
    2304:	00a97e33          	and	x28,x18,x10
    2308:	005e6eb3          	or	x29,x28,x5
    230c:	20000337          	lui	x6,0x20000
    2310:	006ee8b3          	or	x17,x29,x6
    2314:	01000b37          	lui	x22,0x1000
    2318:	00f8a023          	sw	x15,0(x17) # 0 <tensorlib_batch_norm2d_transform_input>
    231c:	016a8ab3          	add	x21,x21,x22
    2320:	040005b7          	lui	x11,0x4000
    2324:	000c2903          	lw	x18,0(x24)
    2328:	fcba96e3          	bne	x21,x11,22f4 <.L376>
    232c:	cef902e3          	beq	x18,x15,2010 <.L371>
    2330:	cd0ff06f          	j	1800 <.L382>

00002334 <.L392>:
    2334:	00c74e83          	lbu	x29,12(x14)
    2338:	0ffef313          	andi	x6,x29,255
    233c:	fe030ce3          	beqz	x6,2334 <.L392>
    2340:	00d74883          	lbu	x17,13(x14)
    2344:	0ff8fb13          	andi	x22,x17,255
    2348:	fe0b06e3          	beqz	x22,2334 <.L392>
    234c:	00e74903          	lbu	x18,14(x14)
    2350:	0ff97a93          	andi	x21,x18,255
    2354:	fe0a80e3          	beqz	x21,2334 <.L392>
    2358:	00f74583          	lbu	x11,15(x14)
    235c:	0ff5f693          	andi	x13,x11,255
    2360:	fc068ae3          	beqz	x13,2334 <.L392>
    2364:	00070623          	sb	x0,12(x14)
    2368:	000706a3          	sb	x0,13(x14)
    236c:	00070723          	sb	x0,14(x14)
    2370:	000707a3          	sb	x0,15(x14)
    2374:	00072423          	sw	x0,8(x14)
    2378:	00000e93          	li	x29,0

0000237c <.L396>:
    237c:	01012f83          	lw	x31,16(x2)
    2380:	01281813          	slli	x16,x16,0x12
    2384:	03fc0a37          	lui	x20,0x3fc0
    2388:	01dfef33          	or	x30,x31,x29
    238c:	014879b3          	and	x19,x16,x20
    2390:	01e9e2b3          	or	x5,x19,x30
    2394:	20000537          	lui	x10,0x20000
    2398:	00a2e633          	or	x12,x5,x10
    239c:	01000e37          	lui	x28,0x1000
    23a0:	00f62023          	sw	x15,0(x12) # 20000000 <.L690+0x1fffd67c>
    23a4:	01ce8eb3          	add	x29,x29,x28
    23a8:	04000337          	lui	x6,0x4000
    23ac:	000c2803          	lw	x16,0(x24)
    23b0:	fc6e96e3          	bne	x29,x6,237c <.L396>
    23b4:	e0f802e3          	beq	x16,x15,21b8 <.L391>
    23b8:	c9cff06f          	j	1854 <.L402>

000023bc <.L410>:
    23bc:	00c74f03          	lbu	x30,12(x14)
    23c0:	0fff7a13          	andi	x20,x30,255
    23c4:	fe0a0ce3          	beqz	x20,23bc <.L410>
    23c8:	00d74983          	lbu	x19,13(x14)
    23cc:	0ff9f293          	andi	x5,x19,255
    23d0:	fe0286e3          	beqz	x5,23bc <.L410>
    23d4:	00e74503          	lbu	x10,14(x14)
    23d8:	0ff57e13          	andi	x28,x10,255
    23dc:	fe0e00e3          	beqz	x28,23bc <.L410>
    23e0:	00f74803          	lbu	x16,15(x14)
    23e4:	0ff87e93          	andi	x29,x16,255
    23e8:	fc0e8ae3          	beqz	x29,23bc <.L410>
    23ec:	00070623          	sb	x0,12(x14)
    23f0:	000706a3          	sb	x0,13(x14)
    23f4:	00070723          	sb	x0,14(x14)
    23f8:	000707a3          	sb	x0,15(x14)
    23fc:	00072423          	sw	x0,8(x14)
    2400:	00000593          	li	x11,0

00002404 <.L414>:
    2404:	01012603          	lw	x12,16(x2)
    2408:	01231313          	slli	x6,x6,0x12
    240c:	03fc0b37          	lui	x22,0x3fc0
    2410:	00b668b3          	or	x17,x12,x11
    2414:	01637933          	and	x18,x6,x22
    2418:	01196ab3          	or	x21,x18,x17
    241c:	200006b7          	lui	x13,0x20000
    2420:	00daefb3          	or	x31,x21,x13
    2424:	01000f37          	lui	x30,0x1000
    2428:	00ffa023          	sw	x15,0(x31) # 0 <tensorlib_batch_norm2d_transform_input>
    242c:	01e585b3          	add	x11,x11,x30
    2430:	04000a37          	lui	x20,0x4000
    2434:	55459863          	bne	x11,x20,2984 <.L690>
    2438:	000c2983          	lw	x19,0(x24)
    243c:	01312623          	sw	x19,12(x2)
    2440:	caf982e3          	beq	x19,x15,20e4 <.L409>
    2444:	c64ff06f          	j	18a8 <.L420>

00002448 <.L469>:
    2448:	00c74883          	lbu	x17,12(x14)
    244c:	0ff8f313          	andi	x6,x17,255
    2450:	fe030ce3          	beqz	x6,2448 <.L469>
    2454:	00d74683          	lbu	x13,13(x14)
    2458:	0ff6f513          	andi	x10,x13,255
    245c:	fe0506e3          	beqz	x10,2448 <.L469>
    2460:	00e74e83          	lbu	x29,14(x14)
    2464:	0ffefb13          	andi	x22,x29,255
    2468:	fe0b00e3          	beqz	x22,2448 <.L469>
    246c:	00f74803          	lbu	x16,15(x14)
    2470:	0ff87593          	andi	x11,x16,255
    2474:	fc058ae3          	beqz	x11,2448 <.L469>
    2478:	00070623          	sb	x0,12(x14)
    247c:	000706a3          	sb	x0,13(x14)
    2480:	00070723          	sb	x0,14(x14)
    2484:	000707a3          	sb	x0,15(x14)
    2488:	00072423          	sw	x0,8(x14)
    248c:	00000893          	li	x17,0

00002490 <.L473>:
    2490:	01012603          	lw	x12,16(x2)
    2494:	012a9a93          	slli	x21,x21,0x12
    2498:	03fc09b7          	lui	x19,0x3fc0
    249c:	01166a33          	or	x20,x12,x17
    24a0:	013af2b3          	and	x5,x21,x19
    24a4:	0142e933          	or	x18,x5,x20
    24a8:	20000e37          	lui	x28,0x20000
    24ac:	01c96fb3          	or	x31,x18,x28
    24b0:	01000f37          	lui	x30,0x1000
    24b4:	00ffa023          	sw	x15,0(x31)
    24b8:	01e888b3          	add	x17,x17,x30
    24bc:	04000337          	lui	x6,0x4000
    24c0:	4a689e63          	bne	x17,x6,297c <.L691>
    24c4:	000c2683          	lw	x13,0(x24)
    24c8:	8cf68ee3          	beq	x13,x15,1da4 <.L468>
    24cc:	dd4ff06f          	j	1aa0 <.L479>

000024d0 <.L431>:
    24d0:	00c74903          	lbu	x18,12(x14)
    24d4:	0ff97e13          	andi	x28,x18,255
    24d8:	fe0e0ce3          	beqz	x28,24d0 <.L431>
    24dc:	00d74f83          	lbu	x31,13(x14)
    24e0:	0ffff813          	andi	x16,x31,255
    24e4:	fe0806e3          	beqz	x16,24d0 <.L431>
    24e8:	00e74f03          	lbu	x30,14(x14)
    24ec:	0fff7693          	andi	x13,x30,255
    24f0:	fe0680e3          	beqz	x13,24d0 <.L431>
    24f4:	00f74583          	lbu	x11,15(x14)
    24f8:	0ff5f893          	andi	x17,x11,255
    24fc:	fc088ae3          	beqz	x17,24d0 <.L431>
    2500:	00070623          	sb	x0,12(x14)
    2504:	000706a3          	sb	x0,13(x14)
    2508:	00070723          	sb	x0,14(x14)
    250c:	000707a3          	sb	x0,15(x14)
    2510:	00072423          	sw	x0,8(x14)
    2514:	00000913          	li	x18,0

00002518 <.L435>:
    2518:	01012603          	lw	x12,16(x2)
    251c:	01229293          	slli	x5,x5,0x12
    2520:	03fc0537          	lui	x10,0x3fc0
    2524:	01266333          	or	x6,x12,x18
    2528:	00a2feb3          	and	x29,x5,x10
    252c:	006eeb33          	or	x22,x29,x6
    2530:	20000ab7          	lui	x21,0x20000
    2534:	015b6a33          	or	x20,x22,x21
    2538:	010009b7          	lui	x19,0x1000
    253c:	00fa2023          	sw	x15,0(x20) # 4000000 <.L690+0x3ffd67c>
    2540:	01390933          	add	x18,x18,x19
    2544:	04000e37          	lui	x28,0x4000
    2548:	000c2283          	lw	x5,0(x24)
    254c:	fdc916e3          	bne	x18,x28,2518 <.L435>
    2550:	9ef288e3          	beq	x5,x15,1f40 <.L430>
    2554:	ca8ff06f          	j	19fc <.L441>

00002558 <.L351>:
    2558:	0d412903          	lw	x18,212(x2)
    255c:	0e812883          	lw	x17,232(x2)
    2560:	00092683          	lw	x13,0(x18)
    2564:	02d48533          	mul	x10,x9,x13
    2568:	00251593          	slli	x11,x10,0x2
    256c:	00b98833          	add	x16,x19,x11
    2570:	ed14e463          	bltu	x9,x17,1c38 <.L353>

00002574 <.L682>:
    2574:	00000737          	lui	x14,0x0
    2578:	000003b7          	lui	x7,0x0
    257c:	00070593          	mv	x11,x14
    2580:	07f00613          	li	x12,127
    2584:	00038513          	mv	x10,x7
    2588:	00000097          	auipc	x1,0x0
    258c:	000080e7          	jalr	x1 # 2588 <.L682+0x14>
    2590:	0e812583          	lw	x11,232(x2)
    2594:	00048613          	mv	x12,x9
    2598:	000004b7          	lui	x9,0x0
    259c:	00048513          	mv	x10,x9
    25a0:	00000097          	auipc	x1,0x0
    25a4:	000080e7          	jalr	x1 # 25a0 <.L682+0x2c>
    25a8:	000cac83          	lw	x25,0(x25)
    25ac:	000c2c03          	lw	x24,0(x24)
    25b0:	4100fd37          	lui	x26,0x4100f
    25b4:	010c9793          	slli	x15,x25,0x10
    25b8:	01878433          	add	x8,x15,x24
    25bc:	ac8d2c23          	sw	x8,-1320(x26) # 4100ead8 <.L690+0x4100c154>

000025c0 <.L354>:
    25c0:	0000006f          	j	25c0 <.L354>

000025c4 <.L342>:
    25c4:	09c12e83          	lw	x29,156(x2)
    25c8:	0b012a83          	lw	x21,176(x2)
    25cc:	000eaf03          	lw	x30,0(x29)
    25d0:	03e48fb3          	mul	x31,x9,x30
    25d4:	002f9313          	slli	x6,x31,0x2
    25d8:	006e02b3          	add	x5,x28,x6
    25dc:	8f54e663          	bltu	x9,x21,16c8 <.L344>

000025e0 <.L668>:
    25e0:	000002b7          	lui	x5,0x0
    25e4:	000003b7          	lui	x7,0x0
    25e8:	00028593          	mv	x11,x5
    25ec:	07f00613          	li	x12,127
    25f0:	00038513          	mv	x10,x7
    25f4:	00000097          	auipc	x1,0x0
    25f8:	000080e7          	jalr	x1 # 25f4 <.L668+0x14>
    25fc:	0b012583          	lw	x11,176(x2)
    2600:	000007b7          	lui	x15,0x0
    2604:	00048613          	mv	x12,x9
    2608:	00078513          	mv	x10,x15
    260c:	00000097          	auipc	x1,0x0
    2610:	000080e7          	jalr	x1 # 260c <.L668+0x2c>
    2614:	000ca403          	lw	x8,0(x25)
    2618:	000c2c83          	lw	x25,0(x24)
    261c:	4100fdb7          	lui	x27,0x4100f
    2620:	01041c13          	slli	x24,x8,0x10
    2624:	019c0d33          	add	x26,x24,x25
    2628:	adadac23          	sw	x26,-1320(x27) # 4100ead8 <.L690+0x4100c154>

0000262c <.L345>:
    262c:	0000006f          	j	262c <.L345>

00002630 <.L675>:
    2630:	00412883          	lw	x17,4(x2)
    2634:	f0000053          	fmv.w.x	f0,x0
    2638:	00088313          	mv	x6,x17
    263c:	04088593          	addi	x11,x17,64

00002640 <.L443>:
    2640:	00032587          	flw	f11,0(x6) # 4000000 <.L690+0x3ffd67c>
    2644:	00430313          	addi	x6,x6,4
    2648:	00b07053          	fadd.s	f0,f0,f11
    264c:	fe659ae3          	bne	x11,x6,2640 <.L443>
    2650:	00412503          	lw	x10,4(x2)
    2654:	00052027          	fsw	f0,0(x10) # 3fc0000 <.L690+0x3fbd67c>
    2658:	bc0ff06f          	j	1a18 <.L442>

0000265c <.L671>:
    265c:	00412a03          	lw	x20,4(x2)
    2660:	f00008d3          	fmv.w.x	f17,x0
    2664:	000a0293          	mv	x5,x20
    2668:	040a0993          	addi	x19,x20,64

0000266c <.L384>:
    266c:	0002a687          	flw	f13,0(x5) # 0 <tensorlib_batch_norm2d_transform_input>
    2670:	00428293          	addi	x5,x5,4
    2674:	00d8f8d3          	fadd.s	f17,f17,f13
    2678:	fe599ae3          	bne	x19,x5,266c <.L384>
    267c:	00412503          	lw	x10,4(x2)
    2680:	01152027          	fsw	f17,0(x10)
    2684:	998ff06f          	j	181c <.L383>

00002688 <.L678>:
    2688:	01412e03          	lw	x28,20(x2)
    268c:	ffd00b13          	li	x22,-3
    2690:	d3cb6063          	bltu	x22,x28,1bb0 <.L480>
    2694:	02012283          	lw	x5,32(x2)
    2698:	01c12a83          	lw	x21,28(x2)
    269c:	025a08b3          	mul	x17,x20,x5
    26a0:	01128e33          	add	x28,x5,x17
    26a4:	27cae263          	bltu	x21,x28,2908 <.L692>

000026a8 <.L483>:
    26a8:	d1c8f463          	bgeu	x17,x28,1bb0 <.L480>
    26ac:	10c12683          	lw	x13,268(x2)
    26b0:	1072f753          	fmul.s	f14,f5,f7
    26b4:	17412a03          	lw	x20,372(x2)
    26b8:	0046a603          	lw	x12,4(x13) # 20000004 <.L690+0x1fffd680>
    26bc:	14012303          	lw	x6,320(x2)
    26c0:	004a2983          	lw	x19,4(x20)
    26c4:	02c48633          	mul	x12,x9,x12
    26c8:	11077353          	fmul.s	f6,f14,f16
    26cc:	110576d3          	fmul.s	f13,f10,f16
    26d0:	107e78d3          	fmul.s	f17,f28,f7
    26d4:	00432e83          	lw	x29,4(x6)
    26d8:	00ca2f83          	lw	x31,12(x20)
    26dc:	11037ed3          	fmul.s	f29,f6,f16
    26e0:	008a2803          	lw	x16,8(x20)
    26e4:	00832583          	lw	x11,8(x6)
    26e8:	000a2903          	lw	x18,0(x20)
    26ec:	00032a83          	lw	x21,0(x6)
    26f0:	0006aa03          	lw	x20,0(x13)
    26f4:	00c32b03          	lw	x22,12(x6)
    26f8:	11412503          	lw	x10,276(x2)
    26fc:	00c6a303          	lw	x6,12(x13)
    2700:	0086a683          	lw	x13,8(x13)
    2704:	03348f33          	mul	x30,x9,x19
    2708:	17c12283          	lw	x5,380(x2)
    270c:	14812983          	lw	x19,328(x2)
    2710:	02912c23          	sw	x9,56(x2)
    2714:	01f12223          	sw	x31,4(x2)
    2718:	01012623          	sw	x16,12(x2)
    271c:	02b12223          	sw	x11,36(x2)
    2720:	02a12423          	sw	x10,40(x2)
    2724:	03412623          	sw	x20,44(x2)
    2728:	02c12823          	sw	x12,48(x2)
    272c:	03d48eb3          	mul	x29,x9,x29
    2730:	02e12e23          	sw	x14,60(x2)
    2734:	00068493          	mv	x9,x13

00002738 <.L485>:
    2738:	00412a03          	lw	x20,4(x2)
    273c:	03b8dfb3          	divu	x31,x17,x27
    2740:	0378d833          	divu	x16,x17,x23
    2744:	0378f733          	remu	x14,x17,x23
    2748:	00188893          	addi	x17,x17,1
    274c:	021ff533          	remu	x10,x31,x1
    2750:	03a875b3          	remu	x11,x16,x26
    2754:	03470633          	mul	x12,x14,x20
    2758:	036706b3          	mul	x13,x14,x22
    275c:	00cf0fb3          	add	x31,x30,x12
    2760:	03250833          	mul	x16,x10,x18
    2764:	00de86b3          	add	x13,x29,x13
    2768:	03550a33          	mul	x20,x10,x21
    276c:	010f8633          	add	x12,x31,x16
    2770:	00c12f83          	lw	x31,12(x2)
    2774:	014686b3          	add	x13,x13,x20
    2778:	02412a03          	lw	x20,36(x2)
    277c:	03f58833          	mul	x16,x11,x31
    2780:	03458fb3          	mul	x31,x11,x20
    2784:	01060633          	add	x12,x12,x16
    2788:	00261813          	slli	x16,x12,0x2
    278c:	01028a33          	add	x20,x5,x16
    2790:	000a2f07          	flw	f30,0(x20)
    2794:	02c12803          	lw	x16,44(x2)
    2798:	03012a03          	lw	x20,48(x2)
    279c:	08cf7fd3          	fsub.s	f31,f30,f12
    27a0:	01f686b3          	add	x13,x13,x31
    27a4:	00269f93          	slli	x31,x13,0x2
    27a8:	01f98633          	add	x12,x19,x31
    27ac:	00062787          	flw	f15,0(x12)
    27b0:	02670733          	mul	x14,x14,x6
    27b4:	0917f5d3          	fsub.s	f11,f15,f17
    27b8:	59fef04b          	fnmsub.s	f0,f29,f31,f11
    27bc:	03050533          	mul	x10,x10,x16
    27c0:	00ea06b3          	add	x13,x20,x14
    27c4:	10d07253          	fmul.s	f4,f0,f13
    27c8:	02812803          	lw	x16,40(x2)
    27cc:	029585b3          	mul	x11,x11,x9
    27d0:	00a68fb3          	add	x31,x13,x10
    27d4:	00bf8633          	add	x12,x31,x11
    27d8:	00261713          	slli	x14,x12,0x2
    27dc:	00e80533          	add	x10,x16,x14
    27e0:	00452027          	fsw	f4,0(x10)
    27e4:	f51e1ae3          	bne	x28,x17,2738 <.L485>
    27e8:	03812483          	lw	x9,56(x2)
    27ec:	03c12703          	lw	x14,60(x2)
    27f0:	bc0ff06f          	j	1bb0 <.L480>

000027f4 <.L669>:
    27f4:	000006b7          	lui	x13,0x0
    27f8:	000005b7          	lui	x11,0x0
    27fc:	00058593          	mv	x11,x11
    2800:	07f00613          	li	x12,127
    2804:	00068513          	mv	x10,x13
    2808:	00000097          	auipc	x1,0x0
    280c:	000080e7          	jalr	x1 # 2808 <.L669+0x14>
    2810:	07812583          	lw	x11,120(x2)
    2814:	00000fb7          	lui	x31,0x0
    2818:	00048613          	mv	x12,x9
    281c:	000f8513          	mv	x10,x31
    2820:	00000097          	auipc	x1,0x0
    2824:	000080e7          	jalr	x1 # 2820 <.L669+0x2c>
    2828:	000ca603          	lw	x12,0(x25)
    282c:	000c2803          	lw	x16,0(x24)
    2830:	4100ff37          	lui	x30,0x4100f
    2834:	01061513          	slli	x10,x12,0x10
    2838:	01050e33          	add	x28,x10,x16
    283c:	adcf2c23          	sw	x28,-1320(x30) # 4100ead8 <.L690+0x4100c154>

00002840 <.L359>:
    2840:	0000006f          	j	2840 <.L359>

00002844 <.L679>:
    2844:	0de4f663          	bgeu	x9,x30,2910 <.L693>
    2848:	04412283          	lw	x5,68(x2)
    284c:	05012903          	lw	x18,80(x2)
    2850:	0af28063          	beq	x5,x15,28f0 <.L495>
    2854:	00249893          	slli	x17,x9,0x2
    2858:	01190333          	add	x6,x18,x17

0000285c <.L496>:
    285c:	1102f853          	fmul.s	f16,f5,f16
    2860:	01032027          	fsw	f16,0(x6)
    2864:	b5cff06f          	j	1bc0 <.L492>

00002868 <.L680>:
    2868:	0344fc63          	bgeu	x9,x20,28a0 <.L694>
    286c:	06012583          	lw	x11,96(x2)
    2870:	06c12683          	lw	x13,108(x2)
    2874:	0ef58663          	beq	x11,x15,2960 <.L500>
    2878:	00249f13          	slli	x30,x9,0x2
    287c:	01e68e33          	add	x28,x13,x30
    2880:	01ce2027          	fsw	f28,0(x28) # 4000000 <.L690+0x3ffd67c>
    2884:	b44ff06f          	j	1bc8 <.L491>

00002888 <.L360>:
    2888:	08012f03          	lw	x30,128(x2)
    288c:	000f2f83          	lw	x31,0(x30)
    2890:	03f48333          	mul	x6,x9,x31
    2894:	00231293          	slli	x5,x6,0x2
    2898:	005e8b33          	add	x22,x29,x5
    289c:	e71fe06f          	j	170c <.L361>

000028a0 <.L694>:
    28a0:	000003b7          	lui	x7,0x0
    28a4:	000007b7          	lui	x15,0x0
    28a8:	00038593          	mv	x11,x7
    28ac:	07f00613          	li	x12,127
    28b0:	00078513          	mv	x10,x15
    28b4:	00000097          	auipc	x1,0x0
    28b8:	000080e7          	jalr	x1 # 28b4 <.L694+0x14>
    28bc:	05c12583          	lw	x11,92(x2)
    28c0:	00000437          	lui	x8,0x0
    28c4:	00048613          	mv	x12,x9
    28c8:	00040513          	mv	x10,x8
    28cc:	00000097          	auipc	x1,0x0
    28d0:	000080e7          	jalr	x1 # 28cc <.L694+0x2c>
    28d4:	000cac83          	lw	x25,0(x25)
    28d8:	000c2c03          	lw	x24,0(x24)
    28dc:	4100f737          	lui	x14,0x4100f
    28e0:	010c9d13          	slli	x26,x25,0x10
    28e4:	018d0db3          	add	x27,x26,x24
    28e8:	adb72c23          	sw	x27,-1320(x14) # 4100ead8 <.L690+0x4100c154>

000028ec <.L499>:
    28ec:	0000006f          	j	28ec <.L499>

000028f0 <.L495>:
    28f0:	04812983          	lw	x19,72(x2)
    28f4:	0009ae83          	lw	x29,0(x19) # 1000000 <.L690+0xffd67c>
    28f8:	03d48ab3          	mul	x21,x9,x29
    28fc:	002a9b13          	slli	x22,x21,0x2
    2900:	01690333          	add	x6,x18,x22
    2904:	f59ff06f          	j	285c <.L496>

00002908 <.L692>:
    2908:	000a8e13          	mv	x28,x21
    290c:	d9dff06f          	j	26a8 <.L483>

00002910 <.L693>:
    2910:	000000b7          	lui	x1,0x0
    2914:	000009b7          	lui	x19,0x0
    2918:	00008593          	mv	x11,x1
    291c:	07f00613          	li	x12,127
    2920:	00098513          	mv	x10,x19
    2924:	00000097          	auipc	x1,0x0
    2928:	000080e7          	jalr	x1 # 2924 <.L693+0x14>
    292c:	04012583          	lw	x11,64(x2)
    2930:	00000eb7          	lui	x29,0x0
    2934:	00048613          	mv	x12,x9
    2938:	000e8513          	mv	x10,x29
    293c:	00000097          	auipc	x1,0x0
    2940:	000080e7          	jalr	x1 # 293c <.L693+0x2c>
    2944:	000caa83          	lw	x21,0(x25)
    2948:	000c2b03          	lw	x22,0(x24)
    294c:	4100fa37          	lui	x20,0x4100f
    2950:	010a9313          	slli	x6,x21,0x10
    2954:	016308b3          	add	x17,x6,x22
    2958:	ad1a2c23          	sw	x17,-1320(x20) # 4100ead8 <.L690+0x4100c154>

0000295c <.L494>:
    295c:	0000006f          	j	295c <.L494>

00002960 <.L500>:
    2960:	06412f83          	lw	x31,100(x2)
    2964:	000fa603          	lw	x12,0(x31) # 0 <tensorlib_batch_norm2d_transform_input>
    2968:	02c48833          	mul	x16,x9,x12
    296c:	00281513          	slli	x10,x16,0x2
    2970:	00a68e33          	add	x28,x13,x10
    2974:	01ce2027          	fsw	f28,0(x28)
    2978:	a50ff06f          	j	1bc8 <.L491>

0000297c <.L691>:
    297c:	000c2a83          	lw	x21,0(x24)
    2980:	b11ff06f          	j	2490 <.L473>

00002984 <.L690>:
    2984:	000c2303          	lw	x6,0(x24)
    2988:	a7dff06f          	j	2404 <.L414>

Disassembly of section .rodata._ZN8HBTensorIfLl4EEC2EP11hb_tensor_t.str1.4:

00000000 <.LC0>:
   0:	6d6f682f          	0x6d6f682f
   4:	2f65                	jal	7bc <.L105+0x4>
   6:	7a7a                	flw	f20,188(x2)
   8:	3435                	jal	fffffa34 <.L690+0xffffd0b0>
   a:	2f36                	fld	f30,328(x2)
   c:	6268                	flw	f10,68(x12)
   e:	702d                	c.lui	x0,0xfffeb
  10:	7479                	lui	x8,0xffffe
  12:	6863726f          	jal	x4,37698 <.L690+0x34d14>
  16:	6d61682f          	0x6d61682f
  1a:	656d                	lui	x10,0x1b
  1c:	6272                	flw	f4,28(x2)
  1e:	616c                	flw	f11,68(x10)
  20:	6564                	flw	f9,76(x10)
  22:	726f742f          	0x726f742f
  26:	6b2f6863          	bltu	x30,x18,6d6 <.L98+0x2>
  2a:	7265                	lui	x4,0xffff9
  2c:	656e                	flw	f10,216(x2)
  2e:	2f6c                	fld	f11,216(x14)
  30:	6268                	flw	f10,68(x12)
  32:	745f 6e65 6f73      	0x6f736e65745f
  38:	2e72                	fld	f28,280(x2)
  3a:	7068                	flw	f10,100(x8)
  3c:	0070                	addi	x12,x2,12
	...

00000040 <.LC1>:
  40:	7361                	lui	x6,0xffff8
  42:	74726573          	csrrsi	x10,0x747,4
  46:	6620                	flw	f8,72(x12)
  48:	6961                	lui	x18,0x18
  4a:	656c                	flw	f11,76(x10)
  4c:	2064                	fld	f9,192(x8)
  4e:	7461                	lui	x8,0xffff8
  50:	2520                	fld	f8,72(x10)
  52:	64253a73          	csrrc	x20,0x642,x10
  56:	0020                	addi	x8,x2,8

00000058 <.LC2>:
  58:	7265                	lui	x4,0xffff9
  5a:	6f72                	flw	f30,28(x2)
  5c:	3a72                	fld	f20,312(x2)
  5e:	4820                	lw	x8,80(x8)
  60:	5442                	lw	x8,48(x2)
  62:	6e65                	lui	x28,0x19
  64:	20726f73          	csrrsi	x30,0x207,4
  68:	6964                	flw	f9,84(x10)
  6a:	736d                	lui	x6,0xffffb
  6c:	6420                	flw	f8,72(x8)
  6e:	74276e6f          	jal	x28,767b0 <.L690+0x73e2c>
  72:	6d20                	flw	f8,88(x10)
  74:	7461                	lui	x8,0xffff8
  76:	6f206863          	bltu	x0,x18,766 <.L102+0x3a>
  7a:	6666                	flw	f12,88(x2)
  7c:	6f6c                	flw	f11,92(x14)
  7e:	6561                	lui	x10,0x18
  80:	2064                	fld	f9,192(x8)
  82:	6574                	flw	f13,76(x10)
  84:	736e                	flw	f6,248(x2)
  86:	6420726f          	jal	x4,76c8 <.L690+0x4d44>
  8a:	6d69                	lui	x26,0x1a
  8c:	          	ecall

Disassembly of section .text._ZN8HBTensorIfLl4EEC2EP11hb_tensor_t:

00000000 <_ZN8HBTensorIfLl4EEC1EP11hb_tensor_t>:
   0:	00058713          	mv	x14,x11
   4:	00072803          	lw	x16,0(x14)
   8:	0105a583          	lw	x11,16(x11) # 10 <_ZN8HBTensorIfLl4EEC1EP11hb_tensor_t+0x10>
   c:	00050793          	mv	x15,x10
  10:	02450693          	addi	x13,x10,36 # 18024 <.L690+0x156a0>
  14:	00400613          	li	x12,4
  18:	01450513          	addi	x10,x10,20
  1c:	0107a023          	sw	x16,0(x15) # 0 <_ZN8HBTensorIfLl4EEC1EP11hb_tensor_t>
  20:	00c7a223          	sw	x12,4(x15)
  24:	00a7a423          	sw	x10,8(x15)
  28:	00d7a623          	sw	x13,12(x15)
  2c:	00b7a823          	sw	x11,16(x15)
  30:	00068693          	mv	x13,x13
  34:	00472283          	lw	x5,4(x14)
  38:	04c29063          	bne	x5,x12,78 <.L10>
  3c:	00872303          	lw	x6,8(x14)
  40:	00c72383          	lw	x7,12(x14)
  44:	01078893          	addi	x17,x15,16
  48:	00078713          	mv	x14,x15
  4c:	40f30e33          	sub	x28,x6,x15
  50:	40f38eb3          	sub	x29,x7,x15

00000054 <.L4>:
  54:	00ee0f33          	add	x30,x28,x14
  58:	000f2f83          	lw	x31,0(x30)
  5c:	00ee85b3          	add	x11,x29,x14
  60:	00470713          	addi	x14,x14,4
  64:	01f72823          	sw	x31,16(x14)
  68:	0005a803          	lw	x16,0(x11)
  6c:	03072023          	sw	x16,32(x14)
  70:	ff1712e3          	bne	x14,x17,54 <.L4>
  74:	00008067          	ret

00000078 <.L10>:
  78:	ff010113          	addi	x2,x2,-16
  7c:	000007b7          	lui	x15,0x0
  80:	00112623          	sw	x1,12(x2)
  84:	000000b7          	lui	x1,0x0
  88:	0ad00613          	li	x12,173
  8c:	00008593          	mv	x11,x1
  90:	00078513          	mv	x10,x15
  94:	00000097          	auipc	x1,0x0
  98:	000080e7          	jalr	x1 # 94 <.L10+0x1c>
  9c:	000006b7          	lui	x13,0x0
  a0:	00068513          	mv	x10,x13
  a4:	00000097          	auipc	x1,0x0
  a8:	000080e7          	jalr	x1 # a4 <.L10+0x2c>
  ac:	00000637          	lui	x12,0x0
  b0:	00062503          	lw	x10,0(x12) # 0 <_ZN8HBTensorIfLl4EEC1EP11hb_tensor_t>
  b4:	000002b7          	lui	x5,0x0
  b8:	0002a303          	lw	x6,0(x5) # 0 <_ZN8HBTensorIfLl4EEC1EP11hb_tensor_t>
  bc:	01051393          	slli	x7,x10,0x10
  c0:	4100fe37          	lui	x28,0x4100f
  c4:	006388b3          	add	x17,x7,x6
  c8:	ad1e2c23          	sw	x17,-1320(x28) # 4100ead8 <.L690+0x4100c154>

000000cc <.L3>:
  cc:	0000006f          	j	cc <.L3>

Disassembly of section .text._ZN8HBTensorIfLl1EEC2EP11hb_tensor_t:

00000000 <_ZN8HBTensorIfLl1EEC1EP11hb_tensor_t>:
   0:	00058713          	mv	x14,x11
   4:	00072803          	lw	x16,0(x14)
   8:	0105a583          	lw	x11,16(x11)
   c:	00050793          	mv	x15,x10
  10:	01850693          	addi	x13,x10,24
  14:	00100613          	li	x12,1
  18:	01450513          	addi	x10,x10,20
  1c:	0107a023          	sw	x16,0(x15) # 0 <_ZN8HBTensorIfLl1EEC1EP11hb_tensor_t>
  20:	00c7a223          	sw	x12,4(x15)
  24:	00a7a423          	sw	x10,8(x15)
  28:	00d7a623          	sw	x13,12(x15)
  2c:	00b7a823          	sw	x11,16(x15)
  30:	00068693          	mv	x13,x13
  34:	00472283          	lw	x5,4(x14)
  38:	04c28e63          	beq	x5,x12,94 <.L12>
  3c:	ff010113          	addi	x2,x2,-16
  40:	00000eb7          	lui	x29,0x0
  44:	00112623          	sw	x1,12(x2)
  48:	000000b7          	lui	x1,0x0
  4c:	0ad00613          	li	x12,173
  50:	00008593          	mv	x11,x1
  54:	000e8513          	mv	x10,x29
  58:	00000097          	auipc	x1,0x0
  5c:	000080e7          	jalr	x1 # 58 <_ZN8HBTensorIfLl1EEC1EP11hb_tensor_t+0x58>
  60:	00000f37          	lui	x30,0x0
  64:	000f0513          	mv	x10,x30
  68:	00000097          	auipc	x1,0x0
  6c:	000080e7          	jalr	x1 # 68 <_ZN8HBTensorIfLl1EEC1EP11hb_tensor_t+0x68>
  70:	00000fb7          	lui	x31,0x0
  74:	000fa583          	lw	x11,0(x31) # 0 <_ZN8HBTensorIfLl1EEC1EP11hb_tensor_t>
  78:	00000737          	lui	x14,0x0
  7c:	00072803          	lw	x16,0(x14) # 0 <_ZN8HBTensorIfLl1EEC1EP11hb_tensor_t>
  80:	01059793          	slli	x15,x11,0x10
  84:	4100f637          	lui	x12,0x4100f
  88:	010786b3          	add	x13,x15,x16
  8c:	acd62c23          	sw	x13,-1320(x12) # 4100ead8 <.L690+0x4100c154>

00000090 <.L13>:
  90:	0000006f          	j	90 <.L13>

00000094 <.L12>:
  94:	00872303          	lw	x6,8(x14)
  98:	00c72383          	lw	x7,12(x14)
  9c:	00032883          	lw	x17,0(x6) # ffffb000 <.L690+0xffff867c>
  a0:	0117aa23          	sw	x17,20(x15)
  a4:	0003ae03          	lw	x28,0(x7) # 0 <_ZN8HBTensorIfLl1EEC1EP11hb_tensor_t>
  a8:	01c7ac23          	sw	x28,24(x15)
  ac:	00008067          	ret

Disassembly of section .rodata.str1.4:

00000000 <.LC4>:
   0:	7265                	lui	x4,0xffff9
   2:	6f72                	flw	f30,28(x2)
   4:	3a72                	fld	f20,312(x2)
   6:	4e20                	lw	x8,88(x12)
   8:	253d                	jal	636 <.L101+0x2e>
   a:	2064                	fld	f9,192(x8)
   c:	7562                	flw	f10,56(x2)
   e:	2074                	fld	f13,192(x8)
  10:	6361                	lui	x6,0x18
  12:	73736563          	bltu	x6,x23,73c <.L102+0x10>
  16:	6465                	lui	x8,0x19
  18:	2520                	fld	f8,72(x10)
  1a:	0a64                	addi	x9,x2,284
	...

Disassembly of section .srodata.cst4:

00000000 <.LC3>:
   0:	0000                	unimp
   2:	3f80                	fld	f8,56(x15)

Disassembly of section .comment:

00000000 <.comment>:
   0:	4700                	lw	x8,8(x14)
   2:	203a4343          	fmadd.s	f6,f20,f3,f4,rmm
   6:	4728                	lw	x10,72(x14)
   8:	554e                	lw	x10,240(x2)
   a:	2029                	jal	14 <_ZN8HBTensorIfLl4EEC5EP11hb_tensor_t+0x14>
   c:	2e39                	jal	32a <.L21+0x2>
   e:	2e32                	fld	f28,264(x2)
  10:	0030                	addi	x12,x2,8

Disassembly of section .eh_frame:

00000000 <.eh_frame>:
   0:	0010                	0x10
   2:	0000                	unimp
   4:	0000                	unimp
   6:	0000                	unimp
   8:	7a01                	lui	x20,0xfffe0
   a:	0052                	c.slli	x0,0x14
   c:	7c01                	lui	x24,0xfffe0
   e:	0101                	addi	x2,x2,0
  10:	00020d1b          	0x20d1b
  14:	0014                	0x14
  16:	0000                	unimp
  18:	0018                	0x18
	...
  22:	0000                	unimp
  24:	0200                	addi	x8,x2,256
  26:	0e7c                	addi	x15,x2,796
  28:	4810                	lw	x12,16(x8)
  2a:	0181                	addi	x3,x3,0
  2c:	001c                	0x1c
  2e:	0000                	unimp
  30:	0030                	addi	x12,x2,8
	...
  3a:	0000                	unimp
  3c:	0200                	addi	x8,x2,256
  3e:	0e40                	addi	x8,x2,788
  40:	4810                	lw	x12,16(x8)
  42:	0181                	addi	x3,x3,0
  44:	4c02                	lw	x24,0(x2)
  46:	000e                	c.slli	x0,0x3
  48:	00c1                	addi	x1,x1,16
  4a:	0000                	unimp
  4c:	0054                	addi	x13,x2,4
  4e:	0000                	unimp
  50:	0050                	addi	x12,x2,4
	...
  5a:	0000                	unimp
  5c:	4400                	lw	x8,8(x8)
  5e:	e00e                	fsw	f3,0(x2)
  60:	4c02                	lw	x24,0(x2)
  62:	0896                	slli	x17,x17,0x5
  64:	8154                	0x8154
  66:	8801                	andi	x8,x8,0
  68:	8902                	jr	x18
  6a:	04925003          	lhu	x0,73(x4) # ffff9049 <.L690+0xffff66c5>
  6e:	94500593          	li	x11,-1723
  72:	9506                	add	x10,x10,x1
  74:	0c9a5c07          	0xc9a5c07
  78:	09970d9b          	0x9970d9b
  7c:	0a98                	addi	x14,x2,336
  7e:	0b99                	addi	x23,x23,6
  80:	0a028803          	lb	x16,160(x5)
  84:	44c1                	li	x9,16
  86:	48c8                	lw	x10,20(x9)
  88:	44c9                	li	x9,18
  8a:	44d2                	lw	x9,20(x2)
  8c:	44d444d3          	0x44d444d3
  90:	44d5                	li	x9,21
  92:	44d6                	lw	x9,84(x2)
  94:	44d844d7          	0x44d844d7
  98:	44d9                	li	x9,22
  9a:	44da                	lw	x9,148(x2)
  9c:	000e48db          	0xe48db
  a0:	0b44                	addi	x9,x2,404
  a2:	0000                	unimp
  a4:	0054                	addi	x13,x2,4
  a6:	0000                	unimp
  a8:	00a8                	addi	x10,x2,72
	...
  b2:	0000                	unimp
  b4:	4400                	lw	x8,8(x8)
  b6:	a00e                	fsd	f3,0(x2)
  b8:	4c02                	lw	x24,0(x2)
  ba:	0795                	addi	x15,x15,5
  bc:	8154                	0x8154
  be:	8801                	andi	x8,x8,0
  c0:	8902                	jr	x18
  c2:	04925003          	lhu	x0,73(x4) # 49 <.eh_frame+0x49>
  c6:	94500593          	li	x11,-1723
  ca:	9606                	add	x12,x12,x1
  cc:	5808                	lw	x10,48(x8)
  ce:	0a980997          	auipc	x19,0xa980
  d2:	0b99                	addi	x23,x23,6
  d4:	0c9a                	slli	x25,x25,0x6
  d6:	8c030d9b          	0x8c030d9b
  da:	44c10a07          	0x44c10a07
  de:	44c8                	lw	x10,12(x9)
  e0:	44c9                	li	x9,18
  e2:	44d2                	lw	x9,20(x2)
  e4:	44d444d3          	0x44d444d3
  e8:	44d5                	li	x9,21
  ea:	44d6                	lw	x9,84(x2)
  ec:	44d844d7          	0x44d844d7
  f0:	44d9                	li	x9,22
  f2:	44da                	lw	x9,148(x2)
  f4:	000e48db          	0xe48db
  f8:	0b44                	addi	x9,x2,404
  fa:	0000                	unimp
  fc:	0054                	addi	x13,x2,4
  fe:	0000                	unimp
 100:	0100                	addi	x8,x2,128
	...
 10a:	0000                	unimp
 10c:	4400                	lw	x8,8(x8)
 10e:	e00e                	fsw	f3,0(x2)
 110:	08964c03          	lbu	x24,137(x12)
 114:	8154                	0x8154
 116:	8801                	andi	x8,x8,0
 118:	8902                	jr	x18
 11a:	04925003          	lhu	x0,73(x4) # 49 <.eh_frame+0x49>
 11e:	94500593          	li	x11,-1723
 122:	9506                	add	x10,x10,x1
 124:	09975c07          	0x9975c07
 128:	0a98                	addi	x14,x2,336
 12a:	0b99                	addi	x23,x23,6
 12c:	0c9a                	slli	x25,x25,0x6
 12e:	7c030d9b          	0x7c030d9b
 132:	0a06                	slli	x20,x20,0x1
 134:	44c1                	li	x9,16
 136:	44c8                	lw	x10,12(x9)
 138:	44c9                	li	x9,18
 13a:	44d2                	lw	x9,20(x2)
 13c:	44d444d3          	0x44d444d3
 140:	44d5                	li	x9,21
 142:	44d6                	lw	x9,84(x2)
 144:	44d844d7          	0x44d844d7
 148:	44d9                	li	x9,22
 14a:	44da                	lw	x9,148(x2)
 14c:	000e48db          	0xe48db
 150:	0b44                	addi	x9,x2,404
	...

Disassembly of section .riscv.attributes:

00000000 <.riscv.attributes>:
   0:	2a41                	jal	190 <.L103+0x4>
   2:	0000                	unimp
   4:	7200                	flw	f8,32(x12)
   6:	7369                	lui	x6,0xffffa
   8:	01007663          	bgeu	x0,x16,14 <.riscv.attributes+0x14>
   c:	0020                	addi	x8,x2,8
   e:	0000                	unimp
  10:	1004                	addi	x9,x2,32
  12:	7205                	lui	x4,0xfffe1
  14:	3376                	fld	f6,376(x2)
  16:	6932                	flw	f18,12(x2)
  18:	7032                	flw	f0,44(x2)
  1a:	5f30                	lw	x12,120(x14)
  1c:	326d                	jal	fffff9c6 <.L690+0xffffd042>
  1e:	3070                	fld	f12,224(x8)
  20:	615f 7032 5f30      	0x5f307032615f
  26:	3266                	fld	f4,120(x2)
  28:	3070                	fld	f12,224(x8)
	...
