
kernel_vvadd.o:     file format elf32-littleriscv


Disassembly of section .group:

00000000 <_ZN8HBTensorIfLln1EEC5EP11hb_tensor_t>:
   0:	0001                	nop
   2:	0000                	unimp
   4:	00000007          	0x7
   8:	0008                	0x8
	...

Disassembly of section .text:

00000000 <tensorlib_vvadd>:
   0:	ef010113          	addi	x2,x2,-272
   4:	00050793          	mv	x15,x10
   8:	10912223          	sw	x9,260(x2)
   c:	01c10513          	addi	x10,x2,28
  10:	00058493          	mv	x9,x11
  14:	00078593          	mv	x11,x15
  18:	10112623          	sw	x1,268(x2)
  1c:	10812423          	sw	x8,264(x2)
  20:	11212023          	sw	x18,256(x2)
  24:	00060413          	mv	x8,x12
  28:	0f312e23          	sw	x19,252(x2)
  2c:	0f412c23          	sw	x20,248(x2)
  30:	0f512a23          	sw	x21,244(x2)
  34:	0f612823          	sw	x22,240(x2)
  38:	0f712623          	sw	x23,236(x2)
  3c:	0f812423          	sw	x24,232(x2)
  40:	0f912223          	sw	x25,228(x2)
  44:	0fa12023          	sw	x26,224(x2)
  48:	0db12e23          	sw	x27,220(x2)
  4c:	00000097          	auipc	x1,0x0
  50:	000080e7          	jalr	x1 # 4c <tensorlib_vvadd+0x4c>
  54:	00048593          	mv	x11,x9
  58:	05810513          	addi	x10,x2,88
  5c:	00000097          	auipc	x1,0x0
  60:	000080e7          	jalr	x1 # 5c <tensorlib_vvadd+0x5c>
  64:	00040593          	mv	x11,x8
  68:	09410513          	addi	x10,x2,148
  6c:	00000097          	auipc	x1,0x0
  70:	000080e7          	jalr	x1 # 6c <tensorlib_vvadd+0x6c>
  74:	00000f37          	lui	x30,0x0
  78:	000006b7          	lui	x13,0x0
  7c:	00000eb7          	lui	x29,0x0
  80:	00000637          	lui	x12,0x0
  84:	000f2283          	lw	x5,0(x30) # 0 <tensorlib_vvadd>
  88:	0006a803          	lw	x16,0(x13) # 0 <tensorlib_vvadd>
  8c:	000ea703          	lw	x14,0(x29) # 0 <tensorlib_vvadd>
  90:	00062503          	lw	x10,0(x12) # 0 <tensorlib_vvadd>
  94:	00000fb7          	lui	x31,0x0
  98:	000fa583          	lw	x11,0(x31) # 0 <tensorlib_vvadd>
  9c:	01028333          	add	x6,x5,x16
  a0:	00a703b3          	add	x7,x14,x10
  a4:	01831893          	slli	x17,x6,0x18
  a8:	01239913          	slli	x18,x7,0x12
  ac:	3f0009b7          	lui	x19,0x3f000
  b0:	00fc0ab7          	lui	x21,0xfc0
  b4:	00040cb7          	lui	x25,0x40
  b8:	0138fa33          	and	x20,x17,x19
  bc:	01597b33          	and	x22,x18,x21
  c0:	00459b93          	slli	x23,x11,0x4
  c4:	ff0c8d13          	addi	x26,x25,-16 # 3fff0 <.L94+0x3f968>
  c8:	016a6c33          	or	x24,x20,x22
  cc:	01abfdb3          	and	x27,x23,x26
  d0:	800004b7          	lui	x9,0x80000
  d4:	01c12e03          	lw	x28,28(x2)
  d8:	01bc67b3          	or	x15,x24,x27
  dc:	0097e433          	or	x8,x15,x9
  e0:	410012b7          	lui	x5,0x41001
  e4:	02c12803          	lw	x16,44(x2)
  e8:	06812883          	lw	x17,104(x2)
  ec:	0a412303          	lw	x6,164(x2)
  f0:	fff00713          	li	x14,-1
  f4:	d082a623          	sw	x8,-756(x5) # 41000d0c <.L94+0x41000684>
  f8:	02412483          	lw	x9,36(x2)
  fc:	02012283          	lw	x5,32(x2)
 100:	06012403          	lw	x8,96(x2)
 104:	09c12383          	lw	x7,156(x2)
 108:	14ee0263          	beq	x28,x14,24c <.L16>
 10c:	140e0063          	beqz	x28,24c <.L16>
 110:	000000b7          	lui	x1,0x0
 114:	0000a503          	lw	x10,0(x1) # 0 <tensorlib_vvadd>
 118:	004e5593          	srli	x11,x28,0x4
 11c:	00158913          	addi	x18,x11,1
 120:	02a907b3          	mul	x15,x18,x10
 124:	00f900b3          	add	x1,x18,x15
 128:	381e6a63          	bltu	x28,x1,4bc <.L90>

0000012c <.L17>:
 12c:	1217f063          	bgeu	x15,x1,24c <.L16>
 130:	00100993          	li	x19,1
 134:	39328863          	beq	x5,x19,4c4 <.L91>
 138:	09812b03          	lw	x22,152(x2)
 13c:	05c12b83          	lw	x23,92(x2)
 140:	0a012a03          	lw	x20,160(x2)
 144:	02812583          	lw	x11,40(x2)
 148:	06412a83          	lw	x21,100(x2)
 14c:	002b1c93          	slli	x25,x22,0x2
 150:	00229d13          	slli	x26,x5,0x2
 154:	002b9c13          	slli	x24,x23,0x2
 158:	014c8db3          	add	x27,x25,x20
 15c:	00bd0e33          	add	x28,x26,x11
 160:	015c0933          	add	x18,x24,x21
 164:	01b12423          	sw	x27,8(x2)
 168:	01c12623          	sw	x28,12(x2)

0000016c <.L36>:
 16c:	340b8463          	beqz	x23,4b4 <.L56>
 170:	00040c13          	mv	x24,x8
 174:	000a8513          	mv	x10,x21
 178:	00078e13          	mv	x28,x15
 17c:	00000713          	li	x14,0

00000180 <.L31>:
 180:	00052983          	lw	x19,0(x10)
 184:	000c2d03          	lw	x26,0(x24)
 188:	00450513          	addi	x10,x10,4
 18c:	033e7cb3          	remu	x25,x28,x19
 190:	004c0c13          	addi	x24,x24,4
 194:	03ac8db3          	mul	x27,x25,x26
 198:	033e5e33          	divu	x28,x28,x19
 19c:	01b70733          	add	x14,x14,x27
 1a0:	fea910e3          	bne	x18,x10,180 <.L31>
 1a4:	00271993          	slli	x19,x14,0x2
 1a8:	01388733          	add	x14,x17,x19

000001ac <.L30>:
 1ac:	00072787          	flw	f15,0(x14)
 1b0:	2e0b0e63          	beqz	x22,4ac <.L57>
 1b4:	00038c13          	mv	x24,x7
 1b8:	000a0513          	mv	x10,x20
 1bc:	00078e13          	mv	x28,x15
 1c0:	00000713          	li	x14,0

000001c4 <.L33>:
 1c4:	00052983          	lw	x19,0(x10)
 1c8:	000c2d83          	lw	x27,0(x24)
 1cc:	00450513          	addi	x10,x10,4
 1d0:	004c0c13          	addi	x24,x24,4
 1d4:	033e7cb3          	remu	x25,x28,x19
 1d8:	03bc8d33          	mul	x26,x25,x27
 1dc:	033e5e33          	divu	x28,x28,x19
 1e0:	00812983          	lw	x19,8(x2)
 1e4:	01a70733          	add	x14,x14,x26
 1e8:	fca99ee3          	bne	x19,x10,1c4 <.L33>
 1ec:	00271d93          	slli	x27,x14,0x2
 1f0:	01b30d33          	add	x26,x6,x27

000001f4 <.L32>:
 1f4:	000d2707          	flw	f14,0(x26)
 1f8:	00e7f053          	fadd.s	f0,f15,f14
 1fc:	2a028463          	beqz	x5,4a4 <.L58>
 200:	00048c13          	mv	x24,x9
 204:	00058d93          	mv	x27,x11
 208:	00078e13          	mv	x28,x15
 20c:	00000713          	li	x14,0

00000210 <.L35>:
 210:	000dad03          	lw	x26,0(x27)
 214:	000c2983          	lw	x19,0(x24)
 218:	004d8d93          	addi	x27,x27,4
 21c:	004c0c13          	addi	x24,x24,4
 220:	03ae7cb3          	remu	x25,x28,x26
 224:	033c8533          	mul	x10,x25,x19
 228:	03ae5e33          	divu	x28,x28,x26
 22c:	00c12d03          	lw	x26,12(x2)
 230:	00a70733          	add	x14,x14,x10
 234:	fdbd1ee3          	bne	x26,x27,210 <.L35>
 238:	00271993          	slli	x19,x14,0x2
 23c:	01380533          	add	x10,x16,x19

00000240 <.L34>:
 240:	00052027          	fsw	f0,0(x10)
 244:	00178793          	addi	x15,x15,1
 248:	f2f092e3          	bne	x1,x15,16c <.L36>

0000024c <.L16>:
 24c:	000f2083          	lw	x1,0(x30)
 250:	000eae83          	lw	x29,0(x29)
 254:	0006af03          	lw	x30,0(x13)
 258:	00062283          	lw	x5,0(x12)
 25c:	000faf83          	lw	x31,0(x31)
 260:	01e08e33          	add	x28,x1,x30
 264:	005e83b3          	add	x7,x29,x5
 268:	018e1493          	slli	x9,x28,0x18
 26c:	01239913          	slli	x18,x7,0x12
 270:	3f0009b7          	lui	x19,0x3f000
 274:	00fc0ab7          	lui	x21,0xfc0
 278:	00040737          	lui	x14,0x40
 27c:	004f9413          	slli	x8,x31,0x4
 280:	0134fa33          	and	x20,x9,x19
 284:	01597b33          	and	x22,x18,x21
 288:	ff070d13          	addi	x26,x14,-16 # 3fff0 <.L94+0x3f968>
 28c:	016a67b3          	or	x15,x20,x22
 290:	01a47cb3          	and	x25,x8,x26
 294:	0197edb3          	or	x27,x15,x25
 298:	c0000bb7          	lui	x23,0xc0000
 29c:	017de5b3          	or	x11,x27,x23
 2a0:	41001c37          	lui	x24,0x41001
 2a4:	d0bc2623          	sw	x11,-756(x24) # 41000d0c <.L94+0x41000684>
 2a8:	00062883          	lw	x17,0(x12)
 2ac:	0006a503          	lw	x10,0(x13)
 2b0:	000000b7          	lui	x1,0x0
 2b4:	00488313          	addi	x6,x17,4
 2b8:	00008793          	mv	x15,x1
 2bc:	00678833          	add	x16,x15,x6
 2c0:	01851f13          	slli	x30,x10,0x18
 2c4:	01e86eb3          	or	x29,x16,x30
 2c8:	200402b7          	lui	x5,0x20040
 2cc:	005eefb3          	or	x31,x29,x5
 2d0:	00100e13          	li	x28,1
 2d4:	01cf8023          	sb	x28,0(x31)
 2d8:	00062383          	lw	x7,0(x12)
 2dc:	07c38463          	beq	x7,x28,344 <.L37>

000002e0 <.L48>:
 2e0:	00100a13          	li	x20,1
 2e4:	0100006f          	j	2f4 <.L52>

000002e8 <.L92>:
 2e8:	00008b13          	mv	x22,x1
 2ec:	140b242f          	lr.w.aq	x8,(x22)
 2f0:	01440863          	beq	x8,x20,300 <.L51>

000002f4 <.L52>:
 2f4:	00008693          	mv	x13,x1
 2f8:	1006aaaf          	lr.w	x21,(x13)
 2fc:	ff4a96e3          	bne	x21,x20,2e8 <.L92>

00000300 <.L51>:
 300:	10c12083          	lw	x1,268(x2)
 304:	10812403          	lw	x8,264(x2)
 308:	0007a023          	sw	x0,0(x15)
 30c:	10412483          	lw	x9,260(x2)
 310:	10012903          	lw	x18,256(x2)
 314:	0fc12983          	lw	x19,252(x2)
 318:	0f812a03          	lw	x20,248(x2)
 31c:	0f412a83          	lw	x21,244(x2)
 320:	0f012b03          	lw	x22,240(x2)
 324:	0ec12b83          	lw	x23,236(x2)
 328:	0e812c03          	lw	x24,232(x2)
 32c:	0e412c83          	lw	x25,228(x2)
 330:	0e012d03          	lw	x26,224(x2)
 334:	0dc12d83          	lw	x27,220(x2)
 338:	00000513          	li	x10,0
 33c:	11010113          	addi	x2,x2,272
 340:	00008067          	ret

00000344 <.L37>:
 344:	0047c483          	lbu	x9,4(x15)
 348:	0ff4f913          	andi	x18,x9,255
 34c:	fe090ce3          	beqz	x18,344 <.L37>
 350:	0057c983          	lbu	x19,5(x15)
 354:	0ff9fa13          	andi	x20,x19,255
 358:	fe0a06e3          	beqz	x20,344 <.L37>
 35c:	0067ca83          	lbu	x21,6(x15)
 360:	0ffafb13          	andi	x22,x21,255
 364:	fe0b00e3          	beqz	x22,344 <.L37>
 368:	0077c403          	lbu	x8,7(x15)
 36c:	0ff47713          	andi	x14,x8,255
 370:	fc070ae3          	beqz	x14,344 <.L37>
 374:	0006ad03          	lw	x26,0(x13)
 378:	210405b7          	lui	x11,0x21040
 37c:	00100c93          	li	x25,1
 380:	00cd0d93          	addi	x27,x26,12
 384:	01b78bb3          	add	x23,x15,x27
 388:	00bbec33          	or	x24,x23,x11
 38c:	019c0023          	sb	x25,0(x24)
 390:	00062883          	lw	x17,0(x12)
 394:	f59896e3          	bne	x17,x25,2e0 <.L48>
 398:	0006a583          	lw	x11,0(x13)
 39c:	07158c63          	beq	x11,x17,414 <.L42>

000003a0 <.L47>:
 3a0:	00100c13          	li	x24,1
 3a4:	0100006f          	j	3b4 <.L41>

000003a8 <.L93>:
 3a8:	00878513          	addi	x10,x15,8
 3ac:	1405232f          	lr.w.aq	x6,(x10)
 3b0:	01830863          	beq	x6,x24,3c0 <.L49>

000003b4 <.L41>:
 3b4:	00878613          	addi	x12,x15,8
 3b8:	100628af          	lr.w	x17,(x12)
 3bc:	ff8896e3          	bne	x17,x24,3a8 <.L93>

000003c0 <.L49>:
 3c0:	0007a423          	sw	x0,8(x15)
 3c4:	00078223          	sb	x0,4(x15)
 3c8:	000782a3          	sb	x0,5(x15)
 3cc:	00078323          	sb	x0,6(x15)
 3d0:	000783a3          	sb	x0,7(x15)
 3d4:	0007a023          	sw	x0,0(x15)
 3d8:	00000393          	li	x7,0
 3dc:	00008793          	mv	x15,x1
 3e0:	20000f37          	lui	x30,0x20000
 3e4:	00100e93          	li	x29,1
 3e8:	000402b7          	lui	x5,0x40
 3ec:	00100837          	lui	x16,0x100

000003f0 <.L50>:
 3f0:	0006af83          	lw	x31,0(x13)
 3f4:	0077ee33          	or	x28,x15,x7
 3f8:	005383b3          	add	x7,x7,x5
 3fc:	018f9493          	slli	x9,x31,0x18
 400:	01c4e933          	or	x18,x9,x28
 404:	01e969b3          	or	x19,x18,x30
 408:	01d9a023          	sw	x29,0(x19) # 3f000000 <.L94+0x3efff978>
 40c:	ff0392e3          	bne	x7,x16,3f0 <.L50>
 410:	ed1ff06f          	j	2e0 <.L48>

00000414 <.L42>:
 414:	00c7c503          	lbu	x10,12(x15)
 418:	0ff57313          	andi	x6,x10,255
 41c:	fe030ce3          	beqz	x6,414 <.L42>
 420:	00d7c803          	lbu	x16,13(x15)
 424:	0ff87f13          	andi	x30,x16,255
 428:	fe0f06e3          	beqz	x30,414 <.L42>
 42c:	00e7ce83          	lbu	x29,14(x15)
 430:	0ffef293          	andi	x5,x29,255
 434:	fe0280e3          	beqz	x5,414 <.L42>
 438:	00f7cf83          	lbu	x31,15(x15)
 43c:	0ffffe13          	andi	x28,x31,255
 440:	fc0e0ae3          	beqz	x28,414 <.L42>
 444:	00078623          	sb	x0,12(x15)
 448:	000786a3          	sb	x0,13(x15)
 44c:	00078723          	sb	x0,14(x15)
 450:	000787a3          	sb	x0,15(x15)
 454:	000003b7          	lui	x7,0x0
 458:	0007a423          	sw	x0,8(x15)
 45c:	00000b93          	li	x23,0
 460:	00838493          	addi	x9,x7,8 # 8 <tensorlib_vvadd+0x8>
 464:	03fc0937          	lui	x18,0x3fc0
 468:	200009b7          	lui	x19,0x20000
 46c:	00100a13          	li	x20,1
 470:	01000ab7          	lui	x21,0x1000
 474:	04000b37          	lui	x22,0x4000

00000478 <.L46>:
 478:	01259413          	slli	x8,x11,0x12
 47c:	0174ed33          	or	x26,x9,x23
 480:	01247733          	and	x14,x8,x18
 484:	01a76cb3          	or	x25,x14,x26
 488:	013cedb3          	or	x27,x25,x19
 48c:	014da023          	sw	x20,0(x27)
 490:	015b8bb3          	add	x23,x23,x21
 494:	00062583          	lw	x11,0(x12)
 498:	ff6b90e3          	bne	x23,x22,478 <.L46>
 49c:	f14582e3          	beq	x11,x20,3a0 <.L47>
 4a0:	e41ff06f          	j	2e0 <.L48>

000004a4 <.L58>:
 4a4:	00080513          	mv	x10,x16
 4a8:	d99ff06f          	j	240 <.L34>

000004ac <.L57>:
 4ac:	00030d13          	mv	x26,x6
 4b0:	d45ff06f          	j	1f4 <.L32>

000004b4 <.L56>:
 4b4:	00088713          	mv	x14,x17
 4b8:	cf5ff06f          	j	1ac <.L30>

000004bc <.L90>:
 4bc:	000e0093          	mv	x1,x28
 4c0:	c6dff06f          	j	12c <.L17>

000004c4 <.L91>:
 4c4:	00478293          	addi	x5,x15,4
 4c8:	0004a583          	lw	x11,0(x9) # 80000000 <.L94+0x7ffff978>
 4cc:	00042403          	lw	x8,0(x8)
 4d0:	0003ad83          	lw	x27,0(x7)
 4d4:	1a12fa63          	bgeu	x5,x1,688 <.L94>
 4d8:	00141493          	slli	x9,x8,0x1
 4dc:	001d9393          	slli	x7,x27,0x1
 4e0:	00159b93          	slli	x23,x11,0x1
 4e4:	00848b33          	add	x22,x9,x8
 4e8:	01b38ab3          	add	x21,x7,x27
 4ec:	00bb8a33          	add	x20,x23,x11
 4f0:	40800933          	neg	x18,x8
 4f4:	41b00cb3          	neg	x25,x27
 4f8:	40b00c33          	neg	x24,x11
 4fc:	00100993          	li	x19,1
 500:	002b1b13          	slli	x22,x22,0x2
 504:	002a9a93          	slli	x21,x21,0x2
 508:	002a1a13          	slli	x20,x20,0x2
 50c:	00291913          	slli	x18,x18,0x2
 510:	002c9493          	slli	x9,x25,0x2
 514:	002c1393          	slli	x7,x24,0x2
 518:	0b340463          	beq	x8,x19,5c0 <.L95>

0000051c <.L23>:
 51c:	02878533          	mul	x10,x15,x8
 520:	00251e13          	slli	x28,x10,0x2
 524:	01c88733          	add	x14,x17,x28
 528:	01670d33          	add	x26,x14,x22
 52c:	012d0bb3          	add	x23,x26,x18
 530:	012b8cb3          	add	x25,x23,x18
 534:	000d2607          	flw	f12,0(x26)
 538:	000ba107          	flw	f2,0(x23) # c0000000 <.L94+0xbffff978>
 53c:	000ca187          	flw	f3,0(x25)
 540:	00072207          	flw	f4,0(x14)
 544:	093d8c63          	beq	x27,x19,5dc <.L96>

00000548 <.L25>:
 548:	03b78e33          	mul	x28,x15,x27
 54c:	002e1713          	slli	x14,x28,0x2
 550:	00e30d33          	add	x26,x6,x14
 554:	015d0cb3          	add	x25,x26,x21
 558:	009c8bb3          	add	x23,x25,x9
 55c:	009b8c33          	add	x24,x23,x9
 560:	000ca087          	flw	f1,0(x25)
 564:	000ba687          	flw	f13,0(x23)
 568:	000c2507          	flw	f10,0(x24)
 56c:	000d2587          	flw	f11,0(x26)
 570:	001672d3          	fadd.s	f5,f12,f1
 574:	0026f353          	fadd.s	f6,f13,f2
 578:	00a1f3d3          	fadd.s	f7,f3,f10
 57c:	00b27853          	fadd.s	f16,f4,f11
 580:	09358463          	beq	x11,x19,608 <.L97>

00000584 <.L27>:
 584:	02b787b3          	mul	x15,x15,x11
 588:	00279713          	slli	x14,x15,0x2
 58c:	00e80d33          	add	x26,x16,x14
 590:	014d0cb3          	add	x25,x26,x20
 594:	005ca027          	fsw	f5,0(x25)
 598:	007c8bb3          	add	x23,x25,x7
 59c:	006ba027          	fsw	f6,0(x23)
 5a0:	007b8c33          	add	x24,x23,x7
 5a4:	007c2027          	fsw	f7,0(x24)
 5a8:	010d2027          	fsw	f16,0(x26)
 5ac:	00428713          	addi	x14,x5,4 # 40004 <.L94+0x3f97c>
 5b0:	00028793          	mv	x15,x5
 5b4:	06177c63          	bgeu	x14,x1,62c <.L98>

000005b8 <.L55>:
 5b8:	00070293          	mv	x5,x14
 5bc:	f73410e3          	bne	x8,x19,51c <.L23>

000005c0 <.L95>:
 5c0:	00279c13          	slli	x24,x15,0x2
 5c4:	01888533          	add	x10,x17,x24
 5c8:	00c52607          	flw	f12,12(x10)
 5cc:	00852107          	flw	f2,8(x10)
 5d0:	00452187          	flw	f3,4(x10)
 5d4:	00052207          	flw	f4,0(x10)
 5d8:	f73d98e3          	bne	x27,x19,548 <.L25>

000005dc <.L96>:
 5dc:	00279513          	slli	x10,x15,0x2
 5e0:	00a30e33          	add	x28,x6,x10
 5e4:	00ce2087          	flw	f1,12(x28)
 5e8:	008e2687          	flw	f13,8(x28)
 5ec:	004e2507          	flw	f10,4(x28)
 5f0:	000e2587          	flw	f11,0(x28)
 5f4:	001672d3          	fadd.s	f5,f12,f1
 5f8:	0026f353          	fadd.s	f6,f13,f2
 5fc:	00a1f3d3          	fadd.s	f7,f3,f10
 600:	00b27853          	fadd.s	f16,f4,f11
 604:	f93590e3          	bne	x11,x19,584 <.L27>

00000608 <.L97>:
 608:	00279513          	slli	x10,x15,0x2
 60c:	00a80e33          	add	x28,x16,x10
 610:	005e2627          	fsw	f5,12(x28)
 614:	006e2427          	fsw	f6,8(x28)
 618:	007e2227          	fsw	f7,4(x28)
 61c:	010e2027          	fsw	f16,0(x28)
 620:	00428713          	addi	x14,x5,4
 624:	00028793          	mv	x15,x5
 628:	f81768e3          	bltu	x14,x1,5b8 <.L55>

0000062c <.L98>:
 62c:	c212f0e3          	bgeu	x5,x1,24c <.L16>

00000630 <.L20>:
 630:	025407b3          	mul	x15,x8,x5
 634:	002d9d13          	slli	x26,x27,0x2
 638:	00259c93          	slli	x25,x11,0x2
 63c:	00241413          	slli	x8,x8,0x2
 640:	025d8db3          	mul	x27,x27,x5
 644:	00279b93          	slli	x23,x15,0x2
 648:	017888b3          	add	x17,x17,x23
 64c:	025585b3          	mul	x11,x11,x5
 650:	002d9c13          	slli	x24,x27,0x2
 654:	01830333          	add	x6,x6,x24
 658:	00259513          	slli	x10,x11,0x2
 65c:	00a80833          	add	x16,x16,x10

00000660 <.L29>:
 660:	0008a887          	flw	f17,0(x17)
 664:	00032e07          	flw	f28,0(x6)
 668:	00128293          	addi	x5,x5,1
 66c:	008888b3          	add	x17,x17,x8
 670:	01c8fed3          	fadd.s	f29,f17,f28
 674:	01a30333          	add	x6,x6,x26
 678:	01d82027          	fsw	f29,0(x16) # 100000 <.L94+0xff978>
 67c:	01980833          	add	x16,x16,x25
 680:	fe5090e3          	bne	x1,x5,660 <.L29>
 684:	bc9ff06f          	j	24c <.L16>

00000688 <.L94>:
 688:	00078293          	mv	x5,x15
 68c:	fa5ff06f          	j	630 <.L20>

Disassembly of section .rodata._ZN8HBTensorIfLln1EEC2EP11hb_tensor_t.str1.4:

00000000 <.LC0>:
   0:	726f772f          	0x726f772f
   4:	6c672f6b          	0x6c672f6b
   8:	6c61626f          	jal	x4,166ce <.L94+0x16046>
   c:	33726b2f          	0x33726b2f
  10:	3739                	jal	ffffff1e <.L94+0xfffff896>
  12:	2d62682f          	0x2d62682f
  16:	7970                	flw	f12,116(x10)
  18:	6f74                	flw	f13,92(x14)
  1a:	6372                	flw	f6,28(x2)
  1c:	2f68                	fld	f10,216(x14)
  1e:	6168                	flw	f10,68(x10)
  20:	6d6d                	lui	x26,0x1b
  22:	7265                	lui	x4,0xffff9
  24:	6c62                	flw	f24,24(x2)
  26:	6461                	lui	x8,0x18
  28:	2f65                	jal	7e0 <.L94+0x158>
  2a:	6f74                	flw	f13,92(x14)
  2c:	6372                	flw	f6,28(x2)
  2e:	2f68                	fld	f10,216(x14)
  30:	6e72656b          	0x6e72656b
  34:	6c65                	lui	x24,0x19
  36:	5f62682f          	0x5f62682f
  3a:	6574                	flw	f13,76(x10)
  3c:	736e                	flw	f6,248(x2)
  3e:	682e726f          	jal	x4,e76c0 <.L94+0xe7038>
  42:	7070                	flw	f12,100(x8)
  44:	0000                	unimp
	...

00000048 <.LC1>:
  48:	7361                	lui	x6,0xffff8
  4a:	74726573          	csrrsi	x10,0x747,4
  4e:	6620                	flw	f8,72(x12)
  50:	6961                	lui	x18,0x18
  52:	656c                	flw	f11,76(x10)
  54:	2064                	fld	f9,192(x8)
  56:	7461                	lui	x8,0xffff8
  58:	2520                	fld	f8,72(x10)
  5a:	64253a73          	csrrc	x20,0x642,x10
  5e:	0020                	addi	x8,x2,8

00000060 <.LC2>:
  60:	7265                	lui	x4,0xffff9
  62:	6f72                	flw	f30,28(x2)
  64:	3a72                	fld	f20,312(x2)
  66:	7420                	flw	f8,104(x8)
  68:	6e65                	lui	x28,0x19
  6a:	20726f73          	csrrsi	x30,0x207,4
  6e:	6964                	flw	f9,84(x10)
  70:	736d                	lui	x6,0xffffb
  72:	6920                	flw	f8,80(x10)
  74:	6f742073          	csrs	0x6f7,x8
  78:	616c206f          	j	c268e <.L94+0xc2006>
  7c:	6772                	flw	f14,28(x2)
  7e:	0065                	c.nop	25

Disassembly of section .text._ZN8HBTensorIfLln1EEC2EP11hb_tensor_t:

00000000 <_ZN8HBTensorIfLln1EEC1EP11hb_tensor_t>:
   0:	00058713          	mv	x14,x11
   4:	0045a683          	lw	x13,4(x11) # 21040004 <.L94+0x2103f97c>
   8:	00072803          	lw	x16,0(x14)
   c:	0105a583          	lw	x11,16(x11)
  10:	00050793          	mv	x15,x10
  14:	02850613          	addi	x12,x10,40
  18:	01450513          	addi	x10,x10,20
  1c:	0107a023          	sw	x16,0(x15)
  20:	00d7a223          	sw	x13,4(x15)
  24:	00a7a423          	sw	x10,8(x15)
  28:	00c7a623          	sw	x12,12(x15)
  2c:	00b7a823          	sw	x11,16(x15)
  30:	00060613          	mv	x12,x12
  34:	00500293          	li	x5,5
  38:	04d2e463          	bltu	x5,x13,80 <.L14>
  3c:	00872303          	lw	x6,8(x14)
  40:	00c72383          	lw	x7,12(x14)
  44:	02068c63          	beqz	x13,7c <.L1>
  48:	00269893          	slli	x17,x13,0x2
  4c:	00078713          	mv	x14,x15
  50:	01178e33          	add	x28,x15,x17
  54:	40f30eb3          	sub	x29,x6,x15
  58:	40f38f33          	sub	x30,x7,x15

0000005c <.L5>:
  5c:	00ee8fb3          	add	x31,x29,x14
  60:	000fa683          	lw	x13,0(x31)
  64:	00ef05b3          	add	x11,x30,x14
  68:	00470713          	addi	x14,x14,4
  6c:	00d72823          	sw	x13,16(x14)
  70:	0005a803          	lw	x16,0(x11)
  74:	03072223          	sw	x16,36(x14)
  78:	ffc712e3          	bne	x14,x28,5c <.L5>

0000007c <.L1>:
  7c:	00008067          	ret

00000080 <.L14>:
  80:	ff010113          	addi	x2,x2,-16
  84:	000007b7          	lui	x15,0x0
  88:	00112623          	sw	x1,12(x2)
  8c:	000000b7          	lui	x1,0x0
  90:	0c700613          	li	x12,199
  94:	00008593          	mv	x11,x1
  98:	00078513          	mv	x10,x15
  9c:	00000097          	auipc	x1,0x0
  a0:	000080e7          	jalr	x1 # 9c <.L14+0x1c>
  a4:	00000637          	lui	x12,0x0
  a8:	00060513          	mv	x10,x12
  ac:	00000097          	auipc	x1,0x0
  b0:	000080e7          	jalr	x1 # ac <.L14+0x2c>
  b4:	00000537          	lui	x10,0x0
  b8:	00052283          	lw	x5,0(x10) # 0 <_ZN8HBTensorIfLln1EEC1EP11hb_tensor_t>
  bc:	00000337          	lui	x6,0x0
  c0:	00032383          	lw	x7,0(x6) # 0 <_ZN8HBTensorIfLln1EEC1EP11hb_tensor_t>
  c4:	01029893          	slli	x17,x5,0x10
  c8:	4100feb7          	lui	x29,0x4100f
  cc:	00788e33          	add	x28,x17,x7
  d0:	adceac23          	sw	x28,-1320(x29) # 4100ead8 <.L94+0x4100e450>

000000d4 <.L3>:
  d4:	0000006f          	j	d4 <.L3>

Disassembly of section .comment:

00000000 <.comment>:
   0:	4700                	lw	x8,8(x14)
   2:	203a4343          	fmadd.s	f6,f20,f3,f4,rmm
   6:	4728                	lw	x10,72(x14)
   8:	554e                	lw	x10,240(x2)
   a:	2029                	jal	14 <_ZN8HBTensorIfLln1EEC5EP11hb_tensor_t+0x14>
   c:	2e39                	jal	32a <.L51+0x2a>
   e:	2e32                	fld	f28,264(x2)
  10:	0030                	addi	x12,x2,8

Disassembly of section .eh_frame:

00000000 <.eh_frame>:
   0:	0010                	0x10
   2:	0000                	unimp
   4:	0000                	unimp
   6:	0000                	unimp
   8:	7a01                	lui	x20,0xfffe0
   a:	0052                	c.slli	x0,0x14
   c:	7c01                	lui	x24,0xfffe0
   e:	0101                	addi	x2,x2,0
  10:	00020d1b          	0x20d1b
  14:	0014                	0x14
  16:	0000                	unimp
  18:	0018                	0x18
	...
  22:	0000                	unimp
  24:	0200                	addi	x8,x2,256
  26:	0e84                	addi	x9,x2,848
  28:	4810                	lw	x12,16(x8)
  2a:	0181                	addi	x3,x3,0
  2c:	0050                	addi	x12,x2,4
  2e:	0000                	unimp
  30:	0030                	addi	x12,x2,8
	...
  3a:	0000                	unimp
  3c:	4400                	lw	x8,8(x8)
  3e:	900e                	c.add	x0,x3
  40:	4c02                	lw	x24,0(x2)
  42:	0389                	addi	x7,x7,2
  44:	8154                	0x8154
  46:	8801                	andi	x8,x8,0
  48:	9202                	jalr	x4
  4a:	6804                	flw	f9,16(x8)
  4c:	06940593          	addi	x11,x8,105 # ffff8069 <.L94+0xffff79e1>
  50:	0795                	addi	x15,x15,5
  52:	0896                	slli	x17,x17,0x5
  54:	0a980997          	auipc	x19,0xa980
  58:	0b99                	addi	x23,x23,6
  5a:	0c9a                	slli	x25,x25,0x6
  5c:	b8030d9b          	0xb8030d9b
  60:	0a02                	c.slli64	x20
  62:	44c1                	li	x9,16
  64:	48c8                	lw	x10,20(x9)
  66:	44c9                	li	x9,18
  68:	44d2                	lw	x9,20(x2)
  6a:	44d444d3          	0x44d444d3
  6e:	44d5                	li	x9,21
  70:	44d6                	lw	x9,84(x2)
  72:	44d844d7          	0x44d844d7
  76:	44d9                	li	x9,22
  78:	44da                	lw	x9,148(x2)
  7a:	000e48db          	0xe48db
  7e:	0b44                	addi	x9,x2,404

Disassembly of section .riscv.attributes:

00000000 <.riscv.attributes>:
   0:	2a41                	jal	190 <.L31+0x10>
   2:	0000                	unimp
   4:	7200                	flw	f8,32(x12)
   6:	7369                	lui	x6,0xffffa
   8:	01007663          	bgeu	x0,x16,14 <.riscv.attributes+0x14>
   c:	0020                	addi	x8,x2,8
   e:	0000                	unimp
  10:	1004                	addi	x9,x2,32
  12:	7205                	lui	x4,0xfffe1
  14:	3376                	fld	f6,376(x2)
  16:	6932                	flw	f18,12(x2)
  18:	7032                	flw	f0,44(x2)
  1a:	5f30                	lw	x12,120(x14)
  1c:	326d                	jal	fffff9c6 <.L94+0xfffff33e>
  1e:	3070                	fld	f12,224(x8)
  20:	615f 7032 5f30      	0x5f307032615f
  26:	3266                	fld	f4,120(x2)
  28:	3070                	fld	f12,224(x8)
	...
