
kernel_vvadd.o:     file format elf32-littleriscv


Disassembly of section .group:

00000000 <_ZN8HBTensorIfLln1EEC5EP11hb_tensor_t>:
   0:	0001                	nop
   2:	0000                	unimp
   4:	00000007          	0x7
   8:	0008                	0x8
	...

Disassembly of section .text:

00000000 <tensorlib_vvadd>:
   0:	f7010113          	addi	x2,x2,-144
   4:	00050793          	mv	x15,x10
   8:	08812423          	sw	x8,136(x2)
   c:	00810513          	addi	x10,x2,8
  10:	00058413          	mv	x8,x11
  14:	00078593          	mv	x11,x15
  18:	08112623          	sw	x1,140(x2)
  1c:	00000097          	auipc	x1,0x0
  20:	000080e7          	jalr	x1 # 1c <tensorlib_vvadd+0x1c>
  24:	00040593          	mv	x11,x8
  28:	04410513          	addi	x10,x2,68
  2c:	00000097          	auipc	x1,0x0
  30:	000080e7          	jalr	x1 # 2c <tensorlib_vvadd+0x2c>
  34:	000006b7          	lui	x13,0x0
  38:	00000637          	lui	x12,0x0
  3c:	00000f37          	lui	x30,0x0
  40:	00000eb7          	lui	x29,0x0
  44:	000f2703          	lw	x14,0(x30) # 0 <tensorlib_vvadd>
  48:	000ea583          	lw	x11,0(x29) # 0 <tensorlib_vvadd>
  4c:	00062803          	lw	x16,0(x12) # 0 <tensorlib_vvadd>
  50:	0006a283          	lw	x5,0(x13) # 0 <tensorlib_vvadd>
  54:	00000e37          	lui	x28,0x0
  58:	000e2503          	lw	x10,0(x28) # 0 <tensorlib_vvadd>
  5c:	010703b3          	add	x7,x14,x16
  60:	00558fb3          	add	x31,x11,x5
  64:	01839793          	slli	x15,x7,0x18
  68:	012f9413          	slli	x8,x31,0x12
  6c:	3f000337          	lui	x6,0x3f000
  70:	00fc08b7          	lui	x17,0xfc0
  74:	00040737          	lui	x14,0x40
  78:	0067f2b3          	and	x5,x15,x6
  7c:	011475b3          	and	x11,x8,x17
  80:	ff070813          	addi	x16,x14,-16 # 3fff0 <.L24+0x3fd50>
  84:	00451513          	slli	x10,x10,0x4
  88:	00b2e3b3          	or	x7,x5,x11
  8c:	01057fb3          	and	x31,x10,x16
  90:	01f3e433          	or	x8,x7,x31
  94:	800007b7          	lui	x15,0x80000
  98:	00f46733          	or	x14,x8,x15
  9c:	410012b7          	lui	x5,0x41001
  a0:	d0e2a623          	sw	x14,-756(x5) # 41000d0c <.L24+0x41000a6c>
  a4:	000f2503          	lw	x10,0(x30)
  a8:	000ea383          	lw	x7,0(x29)
  ac:	00062f03          	lw	x30,0(x12)
  b0:	0006ae83          	lw	x29,0(x13)
  b4:	000e2e03          	lw	x28,0(x28)
  b8:	01e505b3          	add	x11,x10,x30
  bc:	01d38fb3          	add	x31,x7,x29
  c0:	01859413          	slli	x8,x11,0x18
  c4:	012f9713          	slli	x14,x31,0x12
  c8:	00647333          	and	x6,x8,x6
  cc:	011778b3          	and	x17,x14,x17
  d0:	004e1513          	slli	x10,x28,0x4
  d4:	011367b3          	or	x15,x6,x17
  d8:	01057833          	and	x16,x10,x16
  dc:	0107ef33          	or	x30,x15,x16
  e0:	c00003b7          	lui	x7,0xc0000
  e4:	007f6eb3          	or	x29,x30,x7
  e8:	d1d2a623          	sw	x29,-756(x5)
  ec:	0006a283          	lw	x5,0(x13)
  f0:	00062e03          	lw	x28,0(x12)
  f4:	00000537          	lui	x10,0x0
  f8:	00428593          	addi	x11,x5,4
  fc:	00050793          	mv	x15,x10
 100:	00b78fb3          	add	x31,x15,x11
 104:	018e1413          	slli	x8,x28,0x18
 108:	008fe733          	or	x14,x31,x8
 10c:	201c0337          	lui	x6,0x201c0
 110:	006768b3          	or	x17,x14,x6
 114:	00100813          	li	x16,1
 118:	01088023          	sb	x16,0(x17) # fc0000 <.L24+0xfbfd60>
 11c:	0006af03          	lw	x30,0(x13)
 120:	00700393          	li	x7,7
 124:	027f0e63          	beq	x30,x7,160 <.L45>

00000128 <.L17>:
 128:	00100613          	li	x12,1
 12c:	0100006f          	j	13c <.L30>

00000130 <.L46>:
 130:	00050093          	mv	x1,x10
 134:	1400a32f          	lr.w.aq	x6,(x1)
 138:	00c30863          	beq	x6,x12,148 <.L29>

0000013c <.L30>:
 13c:	00050e13          	mv	x28,x10
 140:	100e2faf          	lr.w	x31,(x28)
 144:	fecf96e3          	bne	x31,x12,130 <.L46>

00000148 <.L29>:
 148:	08c12083          	lw	x1,140(x2)
 14c:	08812403          	lw	x8,136(x2)
 150:	0007a023          	sw	x0,0(x15) # 80000000 <.L24+0x7ffffd60>
 154:	00000513          	li	x10,0
 158:	09010113          	addi	x2,x2,144
 15c:	00008067          	ret

00000160 <.L45>:
 160:	000000b7          	lui	x1,0x0
 164:	000002b7          	lui	x5,0x0
 168:	00408e93          	addi	x29,x1,4 # 4 <tensorlib_vvadd+0x4>
 16c:	01428413          	addi	x8,x5,20 # 14 <tensorlib_vvadd+0x14>

00000170 <.L16>:
 170:	000e8f93          	mv	x31,x29

00000174 <.L19>:
 174:	000fce03          	lbu	x28,0(x31)
 178:	001f8f93          	addi	x31,x31,1
 17c:	0ffe7593          	andi	x11,x28,255
 180:	fe0588e3          	beqz	x11,170 <.L16>
 184:	fff418e3          	bne	x8,x31,174 <.L19>
 188:	00062703          	lw	x14,0(x12)
 18c:	231c0837          	lui	x16,0x231c0
 190:	00100393          	li	x7,1
 194:	01870313          	addi	x6,x14,24
 198:	006788b3          	add	x17,x15,x6
 19c:	0108ef33          	or	x30,x17,x16
 1a0:	007f0023          	sb	x7,0(x30)
 1a4:	0006a083          	lw	x1,0(x13)
 1a8:	00700e93          	li	x29,7
 1ac:	f7d09ee3          	bne	x1,x29,128 <.L17>
 1b0:	00062283          	lw	x5,0(x12)
 1b4:	00300e13          	li	x28,3
 1b8:	07c28e63          	beq	x5,x28,234 <.L47>

000001bc <.L25>:
 1bc:	00100813          	li	x16,1
 1c0:	0100006f          	j	1d0 <.L21>

000001c4 <.L48>:
 1c4:	01478e93          	addi	x29,x15,20
 1c8:	140eae2f          	lr.w.aq	x28,(x29)
 1cc:	010e0863          	beq	x28,x16,1dc <.L26>

000001d0 <.L21>:
 1d0:	01478393          	addi	x7,x15,20
 1d4:	1003a2af          	lr.w	x5,(x7)
 1d8:	ff0296e3          	bne	x5,x16,1c4 <.L48>

000001dc <.L26>:
 1dc:	0007aa23          	sw	x0,20(x15)
 1e0:	00000313          	li	x6,0
 1e4:	01000f93          	li	x31,16

000001e8 <.L27>:
 1e8:	006780b3          	add	x1,x15,x6
 1ec:	00008223          	sb	x0,4(x1)
 1f0:	00130313          	addi	x6,x6,1 # 201c0001 <.L24+0x201bfd61>
 1f4:	fff31ae3          	bne	x6,x31,1e8 <.L27>
 1f8:	0007a023          	sw	x0,0(x15)
 1fc:	00000693          	li	x13,0
 200:	20000f37          	lui	x30,0x20000
 204:	00100413          	li	x8,1
 208:	000408b7          	lui	x17,0x40
 20c:	00400837          	lui	x16,0x400

00000210 <.L28>:
 210:	00062703          	lw	x14,0(x12)
 214:	00d7e5b3          	or	x11,x15,x13
 218:	011686b3          	add	x13,x13,x17
 21c:	01871393          	slli	x7,x14,0x18
 220:	00b3e2b3          	or	x5,x7,x11
 224:	01e2eeb3          	or	x29,x5,x30
 228:	008ea023          	sw	x8,0(x29)
 22c:	ff0692e3          	bne	x13,x16,210 <.L28>
 230:	ef9ff06f          	j	128 <.L17>

00000234 <.L47>:
 234:	00000fb7          	lui	x31,0x0
 238:	000005b7          	lui	x11,0x0
 23c:	018f8713          	addi	x14,x31,24 # 18 <tensorlib_vvadd+0x18>
 240:	02058313          	addi	x6,x11,32 # 20 <tensorlib_vvadd+0x20>

00000244 <.L20>:
 244:	00070f13          	mv	x30,x14

00000248 <.L22>:
 248:	000f4883          	lbu	x17,0(x30) # 20000000 <.L24+0x1ffffd60>
 24c:	001f0f13          	addi	x30,x30,1
 250:	0ff8f813          	andi	x16,x17,255
 254:	fe0808e3          	beqz	x16,244 <.L20>
 258:	ffe318e3          	bne	x6,x30,248 <.L22>
 25c:	00078c23          	sb	x0,24(x15)
 260:	00078ca3          	sb	x0,25(x15)
 264:	00078d23          	sb	x0,26(x15)
 268:	00078da3          	sb	x0,27(x15)
 26c:	00078e23          	sb	x0,28(x15)
 270:	00078ea3          	sb	x0,29(x15)
 274:	00078f23          	sb	x0,30(x15)
 278:	00078fa3          	sb	x0,31(x15)
 27c:	0007aa23          	sw	x0,20(x15)
 280:	00000593          	li	x11,0
 284:	03fc03b7          	lui	x7,0x3fc0
 288:	200002b7          	lui	x5,0x20000
 28c:	00100e93          	li	x29,1
 290:	01000e37          	lui	x28,0x1000
 294:	08000fb7          	lui	x31,0x8000
 298:	0080006f          	j	2a0 <.L24>

0000029c <.L49>:
 29c:	0006a083          	lw	x1,0(x13)

000002a0 <.L24>:
 2a0:	01209093          	slli	x1,x1,0x12
 2a4:	00b46333          	or	x6,x8,x11
 2a8:	0070f733          	and	x14,x1,x7
 2ac:	006768b3          	or	x17,x14,x6
 2b0:	0058ef33          	or	x30,x17,x5
 2b4:	01df2023          	sw	x29,0(x30)
 2b8:	01c585b3          	add	x11,x11,x28
 2bc:	fff590e3          	bne	x11,x31,29c <.L49>
 2c0:	0006a683          	lw	x13,0(x13)
 2c4:	00700413          	li	x8,7
 2c8:	ee868ae3          	beq	x13,x8,1bc <.L25>
 2cc:	e5dff06f          	j	128 <.L17>

Disassembly of section .rodata._ZN8HBTensorIfLln1EEC2EP11hb_tensor_t.str1.4:

00000000 <.LC0>:
   0:	6d6f682f          	0x6d6f682f
   4:	2f65                	jal	7bc <.L24+0x51c>
   6:	6d61                	lui	x26,0x18
   8:	3370                	fld	f12,224(x14)
   a:	3234                	fld	f13,96(x12)
   c:	736f432f          	0x736f432f
  10:	6d69                	lui	x26,0x1a
  12:	6773622f          	0x6773622f
  16:	625f 616c 6564      	0x6564616c625f
  1c:	7572                	flw	f10,60(x2)
  1e:	6e6e                	flw	f28,216(x2)
  20:	7265                	lui	x4,0xffff9
  22:	2d62682f          	0x2d62682f
  26:	7970                	flw	f12,116(x10)
  28:	6f74                	flw	f13,92(x14)
  2a:	6372                	flw	f6,28(x2)
  2c:	2f68                	fld	f10,216(x14)
  2e:	6168                	flw	f10,68(x10)
  30:	6d6d                	lui	x26,0x1b
  32:	7265                	lui	x4,0xffff9
  34:	6c62                	flw	f24,24(x2)
  36:	6461                	lui	x8,0x18
  38:	2f65                	jal	7f0 <.L24+0x550>
  3a:	6f74                	flw	f13,92(x14)
  3c:	6372                	flw	f6,28(x2)
  3e:	2f68                	fld	f10,216(x14)
  40:	6e72656b          	0x6e72656b
  44:	6c65                	lui	x24,0x19
  46:	5f62682f          	0x5f62682f
  4a:	6574                	flw	f13,76(x10)
  4c:	736e                	flw	f6,248(x2)
  4e:	682e726f          	jal	x4,e76d0 <.L24+0xe7430>
  52:	7070                	flw	f12,100(x8)
  54:	0000                	unimp
	...

00000058 <.LC1>:
  58:	7361                	lui	x6,0xffff8
  5a:	74726573          	csrrsi	x10,0x747,4
  5e:	6620                	flw	f8,72(x12)
  60:	6961                	lui	x18,0x18
  62:	656c                	flw	f11,76(x10)
  64:	2064                	fld	f9,192(x8)
  66:	7461                	lui	x8,0xffff8
  68:	2520                	fld	f8,72(x10)
  6a:	64253a73          	csrrc	x20,0x642,x10
  6e:	0020                	addi	x8,x2,8

00000070 <.LC2>:
  70:	7265                	lui	x4,0xffff9
  72:	6f72                	flw	f30,28(x2)
  74:	3a72                	fld	f20,312(x2)
  76:	7420                	flw	f8,104(x8)
  78:	6e65                	lui	x28,0x19
  7a:	20726f73          	csrrsi	x30,0x207,4
  7e:	6964                	flw	f9,84(x10)
  80:	736d                	lui	x6,0xffffb
  82:	6920                	flw	f8,80(x10)
  84:	6f742073          	csrs	0x6f7,x8
  88:	616c206f          	j	c269e <.L24+0xc23fe>
  8c:	6772                	flw	f14,28(x2)
  8e:	0065                	c.nop	25

Disassembly of section .text._ZN8HBTensorIfLln1EEC2EP11hb_tensor_t:

00000000 <_ZN8HBTensorIfLln1EEC1EP11hb_tensor_t>:
   0:	00058713          	mv	x14,x11
   4:	0045a683          	lw	x13,4(x11)
   8:	00072803          	lw	x16,0(x14)
   c:	0105a583          	lw	x11,16(x11)
  10:	00050793          	mv	x15,x10
  14:	02850613          	addi	x12,x10,40 # 28 <_ZN8HBTensorIfLln1EEC1EP11hb_tensor_t+0x28>
  18:	01450513          	addi	x10,x10,20
  1c:	0107a023          	sw	x16,0(x15)
  20:	00d7a223          	sw	x13,4(x15)
  24:	00a7a423          	sw	x10,8(x15)
  28:	00c7a623          	sw	x12,12(x15)
  2c:	00b7a823          	sw	x11,16(x15)
  30:	00060613          	mv	x12,x12
  34:	00500293          	li	x5,5
  38:	04d2e463          	bltu	x5,x13,80 <.L14>
  3c:	00872303          	lw	x6,8(x14)
  40:	00c72383          	lw	x7,12(x14)
  44:	02068c63          	beqz	x13,7c <.L1>
  48:	00269893          	slli	x17,x13,0x2
  4c:	00078713          	mv	x14,x15
  50:	01178e33          	add	x28,x15,x17
  54:	40f30eb3          	sub	x29,x6,x15
  58:	40f38f33          	sub	x30,x7,x15

0000005c <.L5>:
  5c:	00ee8fb3          	add	x31,x29,x14
  60:	000fa683          	lw	x13,0(x31) # 8000000 <.L24+0x7fffd60>
  64:	00ef05b3          	add	x11,x30,x14
  68:	00470713          	addi	x14,x14,4
  6c:	00d72823          	sw	x13,16(x14)
  70:	0005a803          	lw	x16,0(x11)
  74:	03072223          	sw	x16,36(x14)
  78:	ffc712e3          	bne	x14,x28,5c <.L5>

0000007c <.L1>:
  7c:	00008067          	ret

00000080 <.L14>:
  80:	ff010113          	addi	x2,x2,-16
  84:	000007b7          	lui	x15,0x0
  88:	00112623          	sw	x1,12(x2)
  8c:	000000b7          	lui	x1,0x0
  90:	0d800613          	li	x12,216
  94:	00008593          	mv	x11,x1
  98:	00078513          	mv	x10,x15
  9c:	00000097          	auipc	x1,0x0
  a0:	000080e7          	jalr	x1 # 9c <.L14+0x1c>
  a4:	00000637          	lui	x12,0x0
  a8:	00060513          	mv	x10,x12
  ac:	00000097          	auipc	x1,0x0
  b0:	000080e7          	jalr	x1 # ac <.L14+0x2c>
  b4:	00000537          	lui	x10,0x0
  b8:	00052283          	lw	x5,0(x10) # 0 <_ZN8HBTensorIfLln1EEC1EP11hb_tensor_t>
  bc:	00000337          	lui	x6,0x0
  c0:	00032383          	lw	x7,0(x6) # 0 <_ZN8HBTensorIfLln1EEC1EP11hb_tensor_t>
  c4:	01029893          	slli	x17,x5,0x10
  c8:	4100feb7          	lui	x29,0x4100f
  cc:	00788e33          	add	x28,x17,x7
  d0:	adceac23          	sw	x28,-1320(x29) # 4100ead8 <.L24+0x4100e838>

000000d4 <.L3>:
  d4:	0000006f          	j	d4 <.L3>

Disassembly of section .comment:

00000000 <.comment>:
   0:	4700                	lw	x8,8(x14)
   2:	203a4343          	fmadd.s	f6,f20,f3,f4,rmm
   6:	4728                	lw	x10,72(x14)
   8:	554e                	lw	x10,240(x2)
   a:	2029                	jal	14 <_ZN8HBTensorIfLln1EEC5EP11hb_tensor_t+0x14>
   c:	2e39                	jal	32a <.L24+0x8a>
   e:	2e32                	fld	f28,264(x2)
  10:	0030                	addi	x12,x2,8

Disassembly of section .eh_frame:

00000000 <.eh_frame>:
   0:	0010                	0x10
   2:	0000                	unimp
   4:	0000                	unimp
   6:	0000                	unimp
   8:	7a01                	lui	x20,0xfffe0
   a:	0052                	c.slli	x0,0x14
   c:	7c01                	lui	x24,0xfffe0
   e:	0101                	addi	x2,x2,0
  10:	00020d1b          	0x20d1b
  14:	0014                	0x14
  16:	0000                	unimp
  18:	0018                	0x18
	...
  22:	0000                	unimp
  24:	0200                	addi	x8,x2,256
  26:	0e84                	addi	x9,x2,848
  28:	4810                	lw	x12,16(x8)
  2a:	0181                	addi	x3,x3,0
  2c:	0024                	addi	x9,x2,8
  2e:	0000                	unimp
  30:	0030                	addi	x12,x2,8
	...
  3a:	0000                	unimp
  3c:	4400                	lw	x8,8(x8)
  3e:	900e                	c.add	x0,x3
  40:	4c01                	li	x24,0
  42:	0288                	addi	x10,x2,320
  44:	814c                	0x814c
  46:	0301                	addi	x6,x6,0
  48:	0130                	addi	x12,x2,136
  4a:	c10a                	sw	x2,128(x2)
  4c:	c844                	sw	x9,20(x8)
  4e:	0e4c                	addi	x11,x2,788
  50:	4400                	lw	x8,8(x8)
  52:	          	0xb

Disassembly of section .riscv.attributes:

00000000 <.riscv.attributes>:
   0:	2a41                	jal	190 <.L19+0x1c>
   2:	0000                	unimp
   4:	7200                	flw	f8,32(x12)
   6:	7369                	lui	x6,0xffffa
   8:	01007663          	bgeu	x0,x16,14 <.riscv.attributes+0x14>
   c:	0020                	addi	x8,x2,8
   e:	0000                	unimp
  10:	1004                	addi	x9,x2,32
  12:	7205                	lui	x4,0xfffe1
  14:	3376                	fld	f6,376(x2)
  16:	6932                	flw	f18,12(x2)
  18:	7032                	flw	f0,44(x2)
  1a:	5f30                	lw	x12,120(x14)
  1c:	326d                	jal	fffff9c6 <.L24+0xfffff726>
  1e:	3070                	fld	f12,224(x8)
  20:	615f 7032 5f30      	0x5f307032615f
  26:	3266                	fld	f4,120(x2)
  28:	3070                	fld	f12,224(x8)
	...
