
kernel_sparse_add.o:     file format elf32-littleriscv


Disassembly of section .group:

00000000 <_ZN8HBTensorIfLln1EEC5EP11hb_tensor_t>:
   0:	0001                	nop
   2:	0000                	unimp
   4:	0008                	0x8
   6:	0000                	unimp
   8:	0009                	c.nop	2
	...

Disassembly of section .group:

00000000 <_ZN8HBTensorIiLln1EEC5EP11hb_tensor_t>:
   0:	0001                	nop
   2:	0000                	unimp
   4:	000a                	c.slli	x0,0x2
   6:	0000                	unimp
   8:	0000000b          	0xb

Disassembly of section .text:

00000000 <tensorlib_dense_sparse_add>:
   0:	ed010113          	addi	x2,x2,-304
   4:	00050793          	mv	x15,x10
   8:	13212023          	sw	x18,288(x2)
   c:	00010513          	mv	x10,x2
  10:	00058913          	mv	x18,x11
  14:	00078593          	mv	x11,x15
  18:	12112623          	sw	x1,300(x2)
  1c:	12812423          	sw	x8,296(x2)
  20:	12912223          	sw	x9,292(x2)
  24:	00068413          	mv	x8,x13
  28:	00060493          	mv	x9,x12
  2c:	11312e23          	sw	x19,284(x2)
  30:	11412c23          	sw	x20,280(x2)
  34:	00070993          	mv	x19,x14
  38:	11512a23          	sw	x21,276(x2)
  3c:	11612823          	sw	x22,272(x2)
  40:	11712623          	sw	x23,268(x2)
  44:	11812423          	sw	x24,264(x2)
  48:	11912223          	sw	x25,260(x2)
  4c:	11a12023          	sw	x26,256(x2)
  50:	0fb12e23          	sw	x27,252(x2)
  54:	00000097          	auipc	x1,0x0
  58:	000080e7          	jalr	x1 # 54 <tensorlib_dense_sparse_add+0x54>
  5c:	00090593          	mv	x11,x18
  60:	03c10513          	addi	x10,x2,60
  64:	00000097          	auipc	x1,0x0
  68:	000080e7          	jalr	x1 # 64 <tensorlib_dense_sparse_add+0x64>
  6c:	00048593          	mv	x11,x9
  70:	07810513          	addi	x10,x2,120
  74:	00000097          	auipc	x1,0x0
  78:	000080e7          	jalr	x1 # 74 <tensorlib_dense_sparse_add+0x74>
  7c:	00040593          	mv	x11,x8
  80:	0b410513          	addi	x10,x2,180
  84:	00000097          	auipc	x1,0x0
  88:	000080e7          	jalr	x1 # 84 <tensorlib_dense_sparse_add+0x84>
  8c:	000004b7          	lui	x9,0x0
  90:	00000837          	lui	x16,0x0
  94:	000005b7          	lui	x11,0x0
  98:	00000937          	lui	x18,0x0
  9c:	00082283          	lw	x5,0(x16) # 0 <tensorlib_dense_sparse_add>
  a0:	0004a883          	lw	x17,0(x9) # 0 <tensorlib_dense_sparse_add>
  a4:	0005a683          	lw	x13,0(x11) # 0 <tensorlib_dense_sparse_add>
  a8:	00092703          	lw	x14,0(x18) # 0 <tensorlib_dense_sparse_add>
  ac:	00000537          	lui	x10,0x0
  b0:	00052603          	lw	x12,0(x10) # 0 <tensorlib_dense_sparse_add>
  b4:	01128333          	add	x6,x5,x17
  b8:	00e683b3          	add	x7,x13,x14
  bc:	01239a93          	slli	x21,x7,0x12
  c0:	01831a13          	slli	x20,x6,0x18
  c4:	3f000b37          	lui	x22,0x3f000
  c8:	00fc0c37          	lui	x24,0xfc0
  cc:	00040e37          	lui	x28,0x40
  d0:	016a7bb3          	and	x23,x20,x22
  d4:	018afcb3          	and	x25,x21,x24
  d8:	00461d13          	slli	x26,x12,0x4
  dc:	ff0e0e93          	addi	x29,x28,-16 # 3fff0 <.L42+0x3faf8>
  e0:	019bedb3          	or	x27,x23,x25
  e4:	01dd7f33          	and	x30,x26,x29
  e8:	00000fb7          	lui	x31,0x0
  ec:	000fa883          	lw	x17,0(x31) # 0 <tensorlib_dense_sparse_add>
  f0:	0b412383          	lw	x7,180(x2)
  f4:	01ede7b3          	or	x15,x27,x30
  f8:	80000437          	lui	x8,0x80000
  fc:	0009a787          	flw	f15,0(x19)
 100:	0087e2b3          	or	x5,x15,x8
 104:	410019b7          	lui	x19,0x41001
 108:	d059a623          	sw	x5,-756(x19) # 41000d0c <.L42+0x41000814>
 10c:	0c78f063          	bgeu	x17,x7,1cc <.L44>
 110:	04012083          	lw	x1,64(x2)
 114:	07812603          	lw	x12,120(x2)
 118:	07c12303          	lw	x6,124(x2)
 11c:	08812f83          	lw	x31,136(x2)
 120:	08012f03          	lw	x30,128(x2)
 124:	04412e83          	lw	x29,68(x2)
 128:	00012a03          	lw	x20,0(x2)
 12c:	00412c03          	lw	x24,4(x2)
 130:	01012b83          	lw	x23,16(x2)
 134:	00812d03          	lw	x26,8(x2)
 138:	0b812b03          	lw	x22,184(x2)
 13c:	0c412a83          	lw	x21,196(x2)
 140:	0bc12c83          	lw	x25,188(x2)
 144:	00100e13          	li	x28,1

00000148 <.L45>:
 148:	22008063          	beqz	x1,368 <.L61>
 14c:	00088413          	mv	x8,x17
 150:	00000693          	li	x13,0
 154:	00000993          	li	x19,0

00000158 <.L37>:
 158:	00241793          	slli	x15,x8,0x2
 15c:	16c47663          	bgeu	x8,x12,2c8 <.L76>
 160:	000f2d83          	lw	x27,0(x30)
 164:	01c31663          	bne	x6,x28,170 <.L75>
 168:	03b40733          	mul	x14,x8,x27
 16c:	00271793          	slli	x15,x14,0x2

00000170 <.L75>:
 170:	00269713          	slli	x14,x13,0x2
 174:	00ff82b3          	add	x5,x31,x15
 178:	00ee87b3          	add	x15,x29,x14
 17c:	0007a783          	lw	x15,0(x15)
 180:	0002a283          	lw	x5,0(x5)
 184:	01b40433          	add	x8,x8,x27
 188:	00168693          	addi	x13,x13,1
 18c:	02578db3          	mul	x27,x15,x5
 190:	01b989b3          	add	x19,x19,x27
 194:	fcd092e3          	bne	x1,x13,158 <.L37>
 198:	1949f063          	bgeu	x19,x20,318 <.L77>

0000019c <.L38>:
 19c:	1dcc0c63          	beq	x24,x28,374 <.L40>
 1a0:	00299693          	slli	x13,x19,0x2
 1a4:	00db82b3          	add	x5,x23,x13

000001a8 <.L41>:
 1a8:	35cb0863          	beq	x22,x28,4f8 <.L42>
 1ac:	00289793          	slli	x15,x17,0x2
 1b0:	00fa89b3          	add	x19,x21,x15

000001b4 <.L43>:
 1b4:	0009a707          	flw	f14,0(x19)
 1b8:	0002a687          	flw	f13,0(x5)
 1bc:	08088893          	addi	x17,x17,128
 1c0:	68f77043          	fmadd.s	f0,f14,f15,f13
 1c4:	0002a027          	fsw	f0,0(x5)
 1c8:	f878e0e3          	bltu	x17,x7,148 <.L45>

000001cc <.L44>:
 1cc:	00082b03          	lw	x22,0(x16)
 1d0:	0005ac83          	lw	x25,0(x11)
 1d4:	0004aa83          	lw	x21,0(x9)
 1d8:	00092e03          	lw	x28,0(x18)
 1dc:	00052283          	lw	x5,0(x10)
 1e0:	015b06b3          	add	x13,x22,x21
 1e4:	01cc8433          	add	x8,x25,x28
 1e8:	01869d93          	slli	x27,x13,0x18
 1ec:	01241713          	slli	x14,x8,0x12
 1f0:	000405b7          	lui	x11,0x40
 1f4:	3f0009b7          	lui	x19,0x3f000
 1f8:	00fc08b7          	lui	x17,0xfc0
 1fc:	ff058613          	addi	x12,x11,-16 # 3fff0 <.L42+0x3faf8>
 200:	00429513          	slli	x10,x5,0x4
 204:	013df7b3          	and	x15,x27,x19
 208:	01177833          	and	x16,x14,x17
 20c:	00c57333          	and	x6,x10,x12
 210:	0107e3b3          	or	x7,x15,x16
 214:	0063e0b3          	or	x1,x7,x6
 218:	c0000fb7          	lui	x31,0xc0000
 21c:	01f0ef33          	or	x30,x1,x31
 220:	41001eb7          	lui	x29,0x41001
 224:	d1eea623          	sw	x30,-756(x29) # 41000d0c <.L42+0x41000814>
 228:	00092a03          	lw	x20,0(x18)
 22c:	0004ac03          	lw	x24,0(x9)
 230:	000005b7          	lui	x11,0x0
 234:	004a0b93          	addi	x23,x20,4
 238:	00058613          	mv	x12,x11
 23c:	01760d33          	add	x26,x12,x23
 240:	018c1b13          	slli	x22,x24,0x18
 244:	016d6ab3          	or	x21,x26,x22
 248:	201c0cb7          	lui	x25,0x201c0
 24c:	019aee33          	or	x28,x21,x25
 250:	00100293          	li	x5,1
 254:	005e0023          	sb	x5,0(x28)
 258:	00092683          	lw	x13,0(x18)
 25c:	00700413          	li	x8,7
 260:	12868463          	beq	x13,x8,388 <.L78>

00000264 <.L46>:
 264:	00100493          	li	x9,1
 268:	0100006f          	j	278 <.L59>

0000026c <.L79>:
 26c:	00058f93          	mv	x31,x11
 270:	140faf2f          	lr.w.aq	x30,(x31)
 274:	009f0863          	beq	x30,x9,284 <.L58>

00000278 <.L59>:
 278:	00058813          	mv	x16,x11
 27c:	100820af          	lr.w	x1,(x16)
 280:	fe9096e3          	bne	x1,x9,26c <.L79>

00000284 <.L58>:
 284:	12c12083          	lw	x1,300(x2)
 288:	12812403          	lw	x8,296(x2)
 28c:	00062023          	sw	x0,0(x12)
 290:	12412483          	lw	x9,292(x2)
 294:	12012903          	lw	x18,288(x2)
 298:	11c12983          	lw	x19,284(x2)
 29c:	11812a03          	lw	x20,280(x2)
 2a0:	11412a83          	lw	x21,276(x2)
 2a4:	11012b03          	lw	x22,272(x2)
 2a8:	10c12b83          	lw	x23,268(x2)
 2ac:	10812c03          	lw	x24,264(x2)
 2b0:	10412c83          	lw	x25,260(x2)
 2b4:	10012d03          	lw	x26,256(x2)
 2b8:	0fc12d83          	lw	x27,252(x2)
 2bc:	00000513          	li	x10,0
 2c0:	13010113          	addi	x2,x2,304
 2c4:	00008067          	ret

000002c8 <.L76>:
 2c8:	000000b7          	lui	x1,0x0
 2cc:	00000fb7          	lui	x31,0x0
 2d0:	00008593          	mv	x11,x1
 2d4:	08c00613          	li	x12,140
 2d8:	000f8513          	mv	x10,x31
 2dc:	00000097          	auipc	x1,0x0
 2e0:	000080e7          	jalr	x1 # 2dc <.L76+0x14>
 2e4:	07812583          	lw	x11,120(x2)
 2e8:	00000f37          	lui	x30,0x0
 2ec:	00040613          	mv	x12,x8
 2f0:	000f0513          	mv	x10,x30
 2f4:	00000097          	auipc	x1,0x0
 2f8:	000080e7          	jalr	x1 # 2f4 <.L76+0x2c>
 2fc:	0004ae83          	lw	x29,0(x9)
 300:	00092a03          	lw	x20,0(x18)
 304:	4100fd37          	lui	x26,0x4100f
 308:	010e9c13          	slli	x24,x29,0x10
 30c:	014c0bb3          	add	x23,x24,x20
 310:	ad7d2c23          	sw	x23,-1320(x26) # 4100ead8 <.L42+0x4100e5e0>

00000314 <.L34>:
 314:	0000006f          	j	314 <.L34>

00000318 <.L77>:
 318:	00000837          	lui	x16,0x0
 31c:	00000537          	lui	x10,0x0
 320:	00080593          	mv	x11,x16
 324:	08c00613          	li	x12,140
 328:	00050513          	mv	x10,x10
 32c:	00000097          	auipc	x1,0x0
 330:	000080e7          	jalr	x1 # 32c <.L77+0x14>
 334:	00012583          	lw	x11,0(x2)
 338:	000003b7          	lui	x7,0x0
 33c:	00098613          	mv	x12,x19
 340:	00038513          	mv	x10,x7
 344:	00000097          	auipc	x1,0x0
 348:	000080e7          	jalr	x1 # 344 <.L77+0x2c>
 34c:	0004a483          	lw	x9,0(x9)
 350:	00092583          	lw	x11,0(x18)
 354:	4100f337          	lui	x6,0x4100f
 358:	01049913          	slli	x18,x9,0x10
 35c:	00b90633          	add	x12,x18,x11
 360:	acc32c23          	sw	x12,-1320(x6) # 4100ead8 <.L42+0x4100e5e0>

00000364 <.L39>:
 364:	0000006f          	j	364 <.L39>

00000368 <.L61>:
 368:	00000993          	li	x19,0
 36c:	e349e8e3          	bltu	x19,x20,19c <.L38>
 370:	fa9ff06f          	j	318 <.L77>

00000374 <.L40>:
 374:	000d2703          	lw	x14,0(x26)
 378:	02e989b3          	mul	x19,x19,x14
 37c:	00299793          	slli	x15,x19,0x2
 380:	00fb82b3          	add	x5,x23,x15
 384:	e25ff06f          	j	1a8 <.L41>

00000388 <.L78>:
 388:	00000db7          	lui	x27,0x0
 38c:	00000737          	lui	x14,0x0
 390:	004d8993          	addi	x19,x27,4 # 4 <tensorlib_dense_sparse_add+0x4>
 394:	01470393          	addi	x7,x14,20 # 14 <tensorlib_dense_sparse_add+0x14>

00000398 <.L30>:
 398:	00098793          	mv	x15,x19

0000039c <.L48>:
 39c:	0007c883          	lbu	x17,0(x15)
 3a0:	00178793          	addi	x15,x15,1
 3a4:	0ff8f813          	andi	x16,x17,255
 3a8:	fe0808e3          	beqz	x16,398 <.L30>
 3ac:	fef398e3          	bne	x7,x15,39c <.L48>
 3b0:	0004a503          	lw	x10,0(x9)
 3b4:	231c0fb7          	lui	x31,0x231c0
 3b8:	00100e93          	li	x29,1
 3bc:	01850313          	addi	x6,x10,24 # 18 <tensorlib_dense_sparse_add+0x18>
 3c0:	006600b3          	add	x1,x12,x6
 3c4:	01f0ef33          	or	x30,x1,x31
 3c8:	01df0023          	sb	x29,0(x30) # 0 <tensorlib_dense_sparse_add>
 3cc:	00092a03          	lw	x20,0(x18)
 3d0:	00700c13          	li	x24,7
 3d4:	e98a18e3          	bne	x20,x24,264 <.L46>
 3d8:	0004ab83          	lw	x23,0(x9)
 3dc:	00300d13          	li	x26,3
 3e0:	07ab8e63          	beq	x23,x26,45c <.L80>

000003e4 <.L54>:
 3e4:	00100e93          	li	x29,1
 3e8:	0100006f          	j	3f8 <.L50>

000003ec <.L81>:
 3ec:	01460b93          	addi	x23,x12,20
 3f0:	140bad2f          	lr.w.aq	x26,(x23)
 3f4:	01dd0863          	beq	x26,x29,404 <.L55>

000003f8 <.L50>:
 3f8:	01460a13          	addi	x20,x12,20
 3fc:	100a2c2f          	lr.w	x24,(x20)
 400:	ffdc16e3          	bne	x24,x29,3ec <.L81>

00000404 <.L55>:
 404:	00062a23          	sw	x0,20(x12)
 408:	00000c93          	li	x25,0
 40c:	01000b13          	li	x22,16

00000410 <.L56>:
 410:	01960ab3          	add	x21,x12,x25
 414:	000a8223          	sb	x0,4(x21)
 418:	001c8c93          	addi	x25,x25,1 # 201c0001 <.L42+0x201bfb09>
 41c:	ff6c9ae3          	bne	x25,x22,410 <.L56>
 420:	00062023          	sw	x0,0(x12)
 424:	00000313          	li	x6,0
 428:	20000e37          	lui	x28,0x20000
 42c:	00100293          	li	x5,1
 430:	00040437          	lui	x8,0x40
 434:	00400db7          	lui	x27,0x400

00000438 <.L57>:
 438:	0004a983          	lw	x19,0(x9)
 43c:	006666b3          	or	x13,x12,x6
 440:	00830333          	add	x6,x6,x8
 444:	01899893          	slli	x17,x19,0x18
 448:	00d8e533          	or	x10,x17,x13
 44c:	01c567b3          	or	x15,x10,x28
 450:	0057a023          	sw	x5,0(x15)
 454:	ffb312e3          	bne	x6,x27,438 <.L57>
 458:	e0dff06f          	j	264 <.L46>

0000045c <.L80>:
 45c:	00000b37          	lui	x22,0x0
 460:	00000cb7          	lui	x25,0x0
 464:	018b0a93          	addi	x21,x22,24 # 18 <tensorlib_dense_sparse_add+0x18>
 468:	020c8e13          	addi	x28,x25,32 # 20 <tensorlib_dense_sparse_add+0x20>

0000046c <.L49>:
 46c:	000a8693          	mv	x13,x21

00000470 <.L51>:
 470:	0006c283          	lbu	x5,0(x13)
 474:	00168693          	addi	x13,x13,1
 478:	0ff2f413          	andi	x8,x5,255
 47c:	fe0408e3          	beqz	x8,46c <.L49>
 480:	fede18e3          	bne	x28,x13,470 <.L51>
 484:	00060c23          	sb	x0,24(x12)
 488:	00060ca3          	sb	x0,25(x12)
 48c:	00060d23          	sb	x0,26(x12)
 490:	00060da3          	sb	x0,27(x12)
 494:	00060e23          	sb	x0,28(x12)
 498:	00060ea3          	sb	x0,29(x12)
 49c:	00060f23          	sb	x0,30(x12)
 4a0:	00060fa3          	sb	x0,31(x12)
 4a4:	00062a23          	sw	x0,20(x12)
 4a8:	00000713          	li	x14,0
 4ac:	03fc0db7          	lui	x27,0x3fc0
 4b0:	200009b7          	lui	x19,0x20000
 4b4:	00100313          	li	x6,1
 4b8:	010008b7          	lui	x17,0x1000
 4bc:	08000537          	lui	x10,0x8000
 4c0:	0080006f          	j	4c8 <.L53>

000004c4 <.L82>:
 4c4:	00092a03          	lw	x20,0(x18)

000004c8 <.L53>:
 4c8:	012a1793          	slli	x15,x20,0x12
 4cc:	00e3e833          	or	x16,x7,x14
 4d0:	01b7f0b3          	and	x1,x15,x27
 4d4:	0100efb3          	or	x31,x1,x16
 4d8:	013fef33          	or	x30,x31,x19
 4dc:	006f2023          	sw	x6,0(x30)
 4e0:	01170733          	add	x14,x14,x17
 4e4:	fea710e3          	bne	x14,x10,4c4 <.L82>
 4e8:	00092903          	lw	x18,0(x18)
 4ec:	00700393          	li	x7,7
 4f0:	ee790ae3          	beq	x18,x7,3e4 <.L54>
 4f4:	d71ff06f          	j	264 <.L46>

000004f8 <.L42>:
 4f8:	000ca403          	lw	x8,0(x25)
 4fc:	02888db3          	mul	x27,x17,x8
 500:	002d9713          	slli	x14,x27,0x2
 504:	00ea89b3          	add	x19,x21,x14
 508:	cadff06f          	j	1b4 <.L43>

Disassembly of section .text._ZN8HBTensorIfLln1EEC2EP11hb_tensor_t:

00000000 <_ZN8HBTensorIfLln1EEC1EP11hb_tensor_t>:
   0:	00058713          	mv	x14,x11
   4:	0045a683          	lw	x13,4(x11) # 4 <_ZN8HBTensorIfLln1EEC1EP11hb_tensor_t+0x4>
   8:	00072803          	lw	x16,0(x14)
   c:	0105a583          	lw	x11,16(x11)
  10:	00050793          	mv	x15,x10
  14:	02850613          	addi	x12,x10,40 # 8000028 <.L42+0x7fffb30>
  18:	01450513          	addi	x10,x10,20
  1c:	0107a023          	sw	x16,0(x15)
  20:	00d7a223          	sw	x13,4(x15)
  24:	00a7a423          	sw	x10,8(x15)
  28:	00c7a623          	sw	x12,12(x15)
  2c:	00b7a823          	sw	x11,16(x15)
  30:	00060613          	mv	x12,x12
  34:	00500293          	li	x5,5
  38:	04d2e463          	bltu	x5,x13,80 <.L14>
  3c:	00872303          	lw	x6,8(x14)
  40:	00c72383          	lw	x7,12(x14)
  44:	02068c63          	beqz	x13,7c <.L1>
  48:	00269893          	slli	x17,x13,0x2
  4c:	00078713          	mv	x14,x15
  50:	01178e33          	add	x28,x15,x17
  54:	40f30eb3          	sub	x29,x6,x15
  58:	40f38f33          	sub	x30,x7,x15

0000005c <.L5>:
  5c:	00ee8fb3          	add	x31,x29,x14
  60:	000fa683          	lw	x13,0(x31) # 231c0000 <.L42+0x231bfb08>
  64:	00ef05b3          	add	x11,x30,x14
  68:	00470713          	addi	x14,x14,4
  6c:	00d72823          	sw	x13,16(x14)
  70:	0005a803          	lw	x16,0(x11)
  74:	03072223          	sw	x16,36(x14)
  78:	ffc712e3          	bne	x14,x28,5c <.L5>

0000007c <.L1>:
  7c:	00008067          	ret

00000080 <.L14>:
  80:	ff010113          	addi	x2,x2,-16
  84:	000007b7          	lui	x15,0x0
  88:	00112623          	sw	x1,12(x2)
  8c:	000000b7          	lui	x1,0x0
  90:	0d800613          	li	x12,216
  94:	00008593          	mv	x11,x1
  98:	00078513          	mv	x10,x15
  9c:	00000097          	auipc	x1,0x0
  a0:	000080e7          	jalr	x1 # 9c <.L14+0x1c>
  a4:	00000637          	lui	x12,0x0
  a8:	00060513          	mv	x10,x12
  ac:	00000097          	auipc	x1,0x0
  b0:	000080e7          	jalr	x1 # ac <.L14+0x2c>
  b4:	00000537          	lui	x10,0x0
  b8:	00052283          	lw	x5,0(x10) # 0 <_ZN8HBTensorIfLln1EEC1EP11hb_tensor_t>
  bc:	00000337          	lui	x6,0x0
  c0:	00032383          	lw	x7,0(x6) # 0 <_ZN8HBTensorIfLln1EEC1EP11hb_tensor_t>
  c4:	01029893          	slli	x17,x5,0x10
  c8:	4100feb7          	lui	x29,0x4100f
  cc:	00788e33          	add	x28,x17,x7
  d0:	adceac23          	sw	x28,-1320(x29) # 4100ead8 <.L42+0x4100e5e0>

000000d4 <.L3>:
  d4:	0000006f          	j	d4 <.L3>

Disassembly of section .text._ZN8HBTensorIiLln1EEC2EP11hb_tensor_t:

00000000 <_ZN8HBTensorIiLln1EEC1EP11hb_tensor_t>:
   0:	00058713          	mv	x14,x11
   4:	0045a683          	lw	x13,4(x11)
   8:	00072803          	lw	x16,0(x14)
   c:	0105a583          	lw	x11,16(x11)
  10:	00050793          	mv	x15,x10
  14:	02850613          	addi	x12,x10,40
  18:	01450513          	addi	x10,x10,20
  1c:	0107a023          	sw	x16,0(x15) # 0 <_ZN8HBTensorIiLln1EEC1EP11hb_tensor_t>
  20:	00d7a223          	sw	x13,4(x15)
  24:	00a7a423          	sw	x10,8(x15)
  28:	00c7a623          	sw	x12,12(x15)
  2c:	00b7a823          	sw	x11,16(x15)
  30:	00060613          	mv	x12,x12
  34:	00500293          	li	x5,5
  38:	04d2e463          	bltu	x5,x13,80 <.L27>
  3c:	00872303          	lw	x6,8(x14)
  40:	00c72383          	lw	x7,12(x14)
  44:	02068c63          	beqz	x13,7c <.L15>
  48:	00269893          	slli	x17,x13,0x2
  4c:	00078713          	mv	x14,x15
  50:	01178e33          	add	x28,x15,x17
  54:	40f30eb3          	sub	x29,x6,x15
  58:	40f38f33          	sub	x30,x7,x15

0000005c <.L19>:
  5c:	00ee8fb3          	add	x31,x29,x14
  60:	000fa683          	lw	x13,0(x31)
  64:	00ef05b3          	add	x11,x30,x14
  68:	00470713          	addi	x14,x14,4
  6c:	00d72823          	sw	x13,16(x14)
  70:	0005a803          	lw	x16,0(x11)
  74:	03072223          	sw	x16,36(x14)
  78:	ffc712e3          	bne	x14,x28,5c <.L19>

0000007c <.L15>:
  7c:	00008067          	ret

00000080 <.L27>:
  80:	ff010113          	addi	x2,x2,-16
  84:	000007b7          	lui	x15,0x0
  88:	00112623          	sw	x1,12(x2)
  8c:	000000b7          	lui	x1,0x0
  90:	0d800613          	li	x12,216
  94:	00008593          	mv	x11,x1
  98:	00078513          	mv	x10,x15
  9c:	00000097          	auipc	x1,0x0
  a0:	000080e7          	jalr	x1 # 9c <.L27+0x1c>
  a4:	00000637          	lui	x12,0x0
  a8:	00060513          	mv	x10,x12
  ac:	00000097          	auipc	x1,0x0
  b0:	000080e7          	jalr	x1 # ac <.L27+0x2c>
  b4:	00000537          	lui	x10,0x0
  b8:	00052283          	lw	x5,0(x10) # 0 <_ZN8HBTensorIiLln1EEC1EP11hb_tensor_t>
  bc:	00000337          	lui	x6,0x0
  c0:	00032383          	lw	x7,0(x6) # 0 <_ZN8HBTensorIiLln1EEC1EP11hb_tensor_t>
  c4:	01029893          	slli	x17,x5,0x10
  c8:	4100feb7          	lui	x29,0x4100f
  cc:	00788e33          	add	x28,x17,x7
  d0:	adceac23          	sw	x28,-1320(x29) # 4100ead8 <.L42+0x4100e5e0>

000000d4 <.L17>:
  d4:	0000006f          	j	d4 <.L17>
