
kernel_clamp.o:     file format elf32-littleriscv


Disassembly of section .group:

00000000 <_ZN8HBTensorIfLln1EEC5EP11hb_tensor_t>:
   0:	0001                	nop
   2:	0000                	unimp
   4:	00000007          	0x7
   8:	0008                	0x8
	...

Disassembly of section .text:

00000000 <tensorlib_clamp>:
       0:	f5010113          	addi	x2,x2,-176
       4:	00050793          	mv	x15,x10
       8:	0a912223          	sw	x9,164(x2)
       c:	00810513          	addi	x10,x2,8
      10:	00058493          	mv	x9,x11
      14:	00078593          	mv	x11,x15
      18:	0a112623          	sw	x1,172(x2)
      1c:	0a812423          	sw	x8,168(x2)
      20:	0b212023          	sw	x18,160(x2)
      24:	00060413          	mv	x8,x12
      28:	00068913          	mv	x18,x13
      2c:	09312e23          	sw	x19,156(x2)
      30:	09412c23          	sw	x20,152(x2)
      34:	09512a23          	sw	x21,148(x2)
      38:	09612823          	sw	x22,144(x2)
      3c:	09712623          	sw	x23,140(x2)
      40:	09812423          	sw	x24,136(x2)
      44:	09912223          	sw	x25,132(x2)
      48:	00000097          	auipc	x1,0x0
      4c:	000080e7          	jalr	x1 # 48 <tensorlib_clamp+0x48>
      50:	00048593          	mv	x11,x9
      54:	04410513          	addi	x10,x2,68
      58:	00000097          	auipc	x1,0x0
      5c:	000080e7          	jalr	x1 # 58 <tensorlib_clamp+0x58>
      60:	00000eb7          	lui	x29,0x0
      64:	000005b7          	lui	x11,0x0
      68:	00000e37          	lui	x28,0x0
      6c:	00000537          	lui	x10,0x0
      70:	000ea283          	lw	x5,0(x29) # 0 <tensorlib_clamp>
      74:	0005a603          	lw	x12,0(x11) # 0 <tensorlib_clamp>
      78:	000e2703          	lw	x14,0(x28) # 0 <tensorlib_clamp>
      7c:	00052683          	lw	x13,0(x10) # 0 <tensorlib_clamp>
      80:	00000337          	lui	x6,0x0
      84:	00032803          	lw	x16,0(x6) # 0 <tensorlib_clamp>
      88:	00c283b3          	add	x7,x5,x12
      8c:	00d708b3          	add	x17,x14,x13
      90:	01839993          	slli	x19,x7,0x18
      94:	00040fb7          	lui	x31,0x40
      98:	01289a13          	slli	x20,x17,0x12
      9c:	3f000ab7          	lui	x21,0x3f000
      a0:	00fc0bb7          	lui	x23,0xfc0
      a4:	00481c93          	slli	x25,x16,0x4
      a8:	ff0f8793          	addi	x15,x31,-16 # 3fff0 <.L266+0x3edc0>
      ac:	0159fb33          	and	x22,x19,x21
      b0:	017a7c33          	and	x24,x20,x23
      b4:	00fcf4b3          	and	x9,x25,x15
      b8:	018b6f33          	or	x30,x22,x24
      bc:	009f62b3          	or	x5,x30,x9
      c0:	80000637          	lui	x12,0x80000
      c4:	00812703          	lw	x14,8(x2)
      c8:	00c2e833          	or	x16,x5,x12
      cc:	00042787          	flw	f15,0(x8)
      d0:	41001437          	lui	x8,0x41001
      d4:	00092707          	flw	f14,0(x18)
      d8:	fff00913          	li	x18,-1
      dc:	d1042623          	sw	x16,-756(x8) # 41000d0c <.L266+0x40fffadc>
      e0:	00c12c83          	lw	x25,12(x2)
      e4:	01012603          	lw	x12,16(x2)
      e8:	01812f83          	lw	x31,24(x2)
      ec:	04c12383          	lw	x7,76(x2)
      f0:	05412283          	lw	x5,84(x2)
      f4:	0f270663          	beq	x14,x18,1e0 <.L21>
      f8:	0e070463          	beqz	x14,1e0 <.L21>
      fc:	000000b7          	lui	x1,0x0
     100:	0000a683          	lw	x13,0(x1) # 0 <tensorlib_clamp>
     104:	00475893          	srli	x17,x14,0x4
     108:	00188993          	addi	x19,x17,1
     10c:	02d987b3          	mul	x15,x19,x13
     110:	00f98f33          	add	x30,x19,x15
     114:	33e76663          	bltu	x14,x30,440 <.L106>

00000118 <.L17>:
     118:	0de7f463          	bgeu	x15,x30,1e0 <.L21>
     11c:	00100a13          	li	x20,1
     120:	334c8463          	beq	x25,x20,448 <.L107>
     124:	04812403          	lw	x8,72(x2)
     128:	05012903          	lw	x18,80(x2)
     12c:	01412483          	lw	x9,20(x2)
     130:	00241a93          	slli	x21,x8,0x2
     134:	002c9b13          	slli	x22,x25,0x2
     138:	012a80b3          	add	x1,x21,x18
     13c:	009b0833          	add	x16,x22,x9

00000140 <.L42>:
     140:	2e040c63          	beqz	x8,438 <.L73>
     144:	00038a93          	mv	x21,x7
     148:	00090693          	mv	x13,x18
     14c:	00078a13          	mv	x20,x15
     150:	00000713          	li	x14,0

00000154 <.L38>:
     154:	0006a883          	lw	x17,0(x13)
     158:	000aac03          	lw	x24,0(x21) # 3f000000 <.L266+0x3effedd0>
     15c:	00468693          	addi	x13,x13,4
     160:	031a79b3          	remu	x19,x20,x17
     164:	004a8a93          	addi	x21,x21,4
     168:	03898b33          	mul	x22,x19,x24
     16c:	031a5a33          	divu	x20,x20,x17
     170:	01670733          	add	x14,x14,x22
     174:	fed090e3          	bne	x1,x13,154 <.L38>
     178:	00271b93          	slli	x23,x14,0x2
     17c:	01728bb3          	add	x23,x5,x23

00000180 <.L37>:
     180:	000ba607          	flw	f12,0(x23) # fc0000 <.L266+0xfbedd0>
     184:	20f786d3          	fmv.s	f13,f15
     188:	a0f618d3          	flt.s	x17,f12,f15
     18c:	00089463          	bnez	x17,194 <.L39>
     190:	28c706d3          	fmin.s	f13,f14,f12

00000194 <.L39>:
     194:	280c8e63          	beqz	x25,430 <.L75>
     198:	00060a93          	mv	x21,x12
     19c:	00048693          	mv	x13,x9
     1a0:	00078a13          	mv	x20,x15
     1a4:	00000713          	li	x14,0

000001a8 <.L41>:
     1a8:	0006a983          	lw	x19,0(x13)
     1ac:	000aab83          	lw	x23,0(x21)
     1b0:	00468693          	addi	x13,x13,4
     1b4:	004a8a93          	addi	x21,x21,4
     1b8:	033a7b33          	remu	x22,x20,x19
     1bc:	037b08b3          	mul	x17,x22,x23
     1c0:	033a5a33          	divu	x20,x20,x19
     1c4:	01170733          	add	x14,x14,x17
     1c8:	fed810e3          	bne	x16,x13,1a8 <.L41>
     1cc:	00271c13          	slli	x24,x14,0x2
     1d0:	018f8c33          	add	x24,x31,x24

000001d4 <.L40>:
     1d4:	00dc2027          	fsw	f13,0(x24)
     1d8:	00178793          	addi	x15,x15,1
     1dc:	f6ff12e3          	bne	x30,x15,140 <.L42>

000001e0 <.L21>:
     1e0:	000eaf03          	lw	x30,0(x29)
     1e4:	000e2e03          	lw	x28,0(x28)
     1e8:	0005ae83          	lw	x29,0(x11)
     1ec:	00052083          	lw	x1,0(x10)
     1f0:	00032303          	lw	x6,0(x6)
     1f4:	01df09b3          	add	x19,x30,x29
     1f8:	001e0b33          	add	x22,x28,x1
     1fc:	01899793          	slli	x15,x19,0x18
     200:	012b1893          	slli	x17,x22,0x12
     204:	3f000437          	lui	x8,0x3f000
     208:	00fc0637          	lui	x12,0xfc0
     20c:	00040cb7          	lui	x25,0x40
     210:	0087f4b3          	and	x9,x15,x8
     214:	00c8f833          	and	x16,x17,x12
     218:	00431913          	slli	x18,x6,0x4
     21c:	ff0c8393          	addi	x7,x25,-16 # 3fff0 <.L266+0x3edc0>
     220:	0104ec33          	or	x24,x9,x16
     224:	00797733          	and	x14,x18,x7
     228:	00ec66b3          	or	x13,x24,x14
     22c:	c0000bb7          	lui	x23,0xc0000
     230:	0176eab3          	or	x21,x13,x23
     234:	41001a37          	lui	x20,0x41001
     238:	d15a2623          	sw	x21,-756(x20) # 41000d0c <.L266+0x40fffadc>
     23c:	00052283          	lw	x5,0(x10)
     240:	0005af83          	lw	x31,0(x11)
     244:	000000b7          	lui	x1,0x0
     248:	00428f13          	addi	x30,x5,4
     24c:	00008793          	mv	x15,x1
     250:	01e78eb3          	add	x29,x15,x30
     254:	018f9e13          	slli	x28,x31,0x18
     258:	01cee333          	or	x6,x29,x28
     25c:	200409b7          	lui	x19,0x20040
     260:	01336b33          	or	x22,x6,x19
     264:	00100893          	li	x17,1
     268:	011b0023          	sb	x17,0(x22)
     26c:	00052403          	lw	x8,0(x10)
     270:	07140063          	beq	x8,x17,2d0 <.L44>

00000274 <.L56>:
     274:	00100593          	li	x11,1
     278:	0100006f          	j	288 <.L60>

0000027c <.L108>:
     27c:	00008a93          	mv	x21,x1
     280:	140aaa2f          	lr.w.aq	x20,(x21)
     284:	00ba0863          	beq	x20,x11,294 <.L59>

00000288 <.L60>:
     288:	00008693          	mv	x13,x1
     28c:	1006abaf          	lr.w	x23,(x13)
     290:	febb96e3          	bne	x23,x11,27c <.L108>

00000294 <.L59>:
     294:	0ac12083          	lw	x1,172(x2)
     298:	0a812403          	lw	x8,168(x2)
     29c:	0007a023          	sw	x0,0(x15)
     2a0:	0a412483          	lw	x9,164(x2)
     2a4:	0a012903          	lw	x18,160(x2)
     2a8:	09c12983          	lw	x19,156(x2)
     2ac:	09812a03          	lw	x20,152(x2)
     2b0:	09412a83          	lw	x21,148(x2)
     2b4:	09012b03          	lw	x22,144(x2)
     2b8:	08c12b83          	lw	x23,140(x2)
     2bc:	08812c03          	lw	x24,136(x2)
     2c0:	08412c83          	lw	x25,132(x2)
     2c4:	00000513          	li	x10,0
     2c8:	0b010113          	addi	x2,x2,176
     2cc:	00008067          	ret

000002d0 <.L44>:
     2d0:	0047c483          	lbu	x9,4(x15)
     2d4:	0ff4f613          	andi	x12,x9,255
     2d8:	fe060ce3          	beqz	x12,2d0 <.L44>
     2dc:	0057c803          	lbu	x16,5(x15)
     2e0:	0ff87913          	andi	x18,x16,255
     2e4:	fe0906e3          	beqz	x18,2d0 <.L44>
     2e8:	0067cc03          	lbu	x24,6(x15)
     2ec:	0ffc7c93          	andi	x25,x24,255
     2f0:	fe0c80e3          	beqz	x25,2d0 <.L44>
     2f4:	0077c383          	lbu	x7,7(x15)
     2f8:	0ff3f713          	andi	x14,x7,255
     2fc:	fc070ae3          	beqz	x14,2d0 <.L44>
     300:	0005a683          	lw	x13,0(x11)
     304:	210402b7          	lui	x5,0x21040
     308:	00100b93          	li	x23,1
     30c:	00c68a93          	addi	x21,x13,12
     310:	01578a33          	add	x20,x15,x21
     314:	005a6fb3          	or	x31,x20,x5
     318:	017f8023          	sb	x23,0(x31)
     31c:	00052f03          	lw	x30,0(x10)
     320:	f57f1ae3          	bne	x30,x23,274 <.L56>
     324:	0005a703          	lw	x14,0(x11)
     328:	07e70c63          	beq	x14,x30,3a0 <.L50>

0000032c <.L55>:
     32c:	00100513          	li	x10,1
     330:	0100006f          	j	340 <.L49>

00000334 <.L109>:
     334:	00878e13          	addi	x28,x15,8
     338:	140e232f          	lr.w.aq	x6,(x28)
     33c:	00a30863          	beq	x6,x10,34c <.L57>

00000340 <.L49>:
     340:	00878f13          	addi	x30,x15,8
     344:	100f2eaf          	lr.w	x29,(x30)
     348:	feae96e3          	bne	x29,x10,334 <.L109>

0000034c <.L57>:
     34c:	0007a423          	sw	x0,8(x15)
     350:	00078223          	sb	x0,4(x15)
     354:	000782a3          	sb	x0,5(x15)
     358:	00078323          	sb	x0,6(x15)
     35c:	000783a3          	sb	x0,7(x15)
     360:	0007a023          	sw	x0,0(x15)
     364:	00000613          	li	x12,0
     368:	00008793          	mv	x15,x1
     36c:	200009b7          	lui	x19,0x20000
     370:	00100b13          	li	x22,1
     374:	000408b7          	lui	x17,0x40
     378:	00100437          	lui	x8,0x100

0000037c <.L58>:
     37c:	0005a483          	lw	x9,0(x11)
     380:	00c7e933          	or	x18,x15,x12
     384:	01160633          	add	x12,x12,x17
     388:	01849c13          	slli	x24,x9,0x18
     38c:	012c6cb3          	or	x25,x24,x18
     390:	013ce3b3          	or	x7,x25,x19
     394:	0163a023          	sw	x22,0(x7)
     398:	fe8612e3          	bne	x12,x8,37c <.L58>
     39c:	ed9ff06f          	j	274 <.L56>

000003a0 <.L50>:
     3a0:	00c7ce83          	lbu	x29,12(x15)
     3a4:	0ffefe13          	andi	x28,x29,255
     3a8:	fe0e0ce3          	beqz	x28,3a0 <.L50>
     3ac:	00d7c303          	lbu	x6,13(x15)
     3b0:	0ff37993          	andi	x19,x6,255
     3b4:	fe0986e3          	beqz	x19,3a0 <.L50>
     3b8:	00e7cb03          	lbu	x22,14(x15)
     3bc:	0ffb7893          	andi	x17,x22,255
     3c0:	fe0880e3          	beqz	x17,3a0 <.L50>
     3c4:	00f7c403          	lbu	x8,15(x15)
     3c8:	0ff47493          	andi	x9,x8,255
     3cc:	fc048ae3          	beqz	x9,3a0 <.L50>
     3d0:	00078623          	sb	x0,12(x15)
     3d4:	000786a3          	sb	x0,13(x15)
     3d8:	00078723          	sb	x0,14(x15)
     3dc:	000787a3          	sb	x0,15(x15)
     3e0:	00000637          	lui	x12,0x0
     3e4:	0007a423          	sw	x0,8(x15)
     3e8:	00000813          	li	x16,0
     3ec:	00860913          	addi	x18,x12,8 # 8 <tensorlib_clamp+0x8>
     3f0:	03fc0c37          	lui	x24,0x3fc0
     3f4:	20000cb7          	lui	x25,0x20000
     3f8:	00100393          	li	x7,1
     3fc:	010006b7          	lui	x13,0x1000
     400:	04000bb7          	lui	x23,0x4000

00000404 <.L54>:
     404:	01271713          	slli	x14,x14,0x12
     408:	01096ab3          	or	x21,x18,x16
     40c:	01877a33          	and	x20,x14,x24
     410:	015a62b3          	or	x5,x20,x21
     414:	0192efb3          	or	x31,x5,x25
     418:	007fa023          	sw	x7,0(x31)
     41c:	00d80833          	add	x16,x16,x13
     420:	00052703          	lw	x14,0(x10)
     424:	ff7810e3          	bne	x16,x23,404 <.L54>
     428:	f07702e3          	beq	x14,x7,32c <.L55>
     42c:	e49ff06f          	j	274 <.L56>

00000430 <.L75>:
     430:	000f8c13          	mv	x24,x31
     434:	da1ff06f          	j	1d4 <.L40>

00000438 <.L73>:
     438:	00028b93          	mv	x23,x5
     43c:	d45ff06f          	j	180 <.L37>

00000440 <.L106>:
     440:	00070f13          	mv	x30,x14
     444:	cd5ff06f          	j	118 <.L17>

00000448 <.L107>:
     448:	00878093          	addi	x1,x15,8
     44c:	00062683          	lw	x13,0(x12)
     450:	0003a383          	lw	x7,0(x7)
     454:	21e0f663          	bgeu	x1,x30,660 <.L110>
     458:	00339c93          	slli	x25,x7,0x3
     45c:	00369613          	slli	x12,x13,0x3
     460:	407c8933          	sub	x18,x25,x7
     464:	40d60433          	sub	x8,x12,x13
     468:	40700833          	neg	x16,x7
     46c:	40d009b3          	neg	x19,x13
     470:	00291493          	slli	x9,x18,0x2
     474:	00100913          	li	x18,1
     478:	00241413          	slli	x8,x8,0x2
     47c:	00281813          	slli	x16,x16,0x2
     480:	00299613          	slli	x12,x19,0x2
     484:	0f239663          	bne	x7,x18,570 <.L22>

00000488 <.L112>:
     488:	00279b13          	slli	x22,x15,0x2
     48c:	016288b3          	add	x17,x5,x22
     490:	01c8a107          	flw	f2,28(x17) # 4001c <.L266+0x3edec>
     494:	0188a087          	flw	f1,24(x17)
     498:	0148a007          	flw	f0,20(x17)
     49c:	0108a507          	flw	f10,16(x17)
     4a0:	00c8a587          	flw	f11,12(x17)
     4a4:	0088a287          	flw	f5,8(x17)
     4a8:	0048a307          	flw	f6,4(x17)
     4ac:	0008a207          	flw	f4,0(x17)

000004b0 <.L23>:
     4b0:	a0f11753          	flt.s	x14,f2,f15
     4b4:	20f781d3          	fmv.s	f3,f15
     4b8:	00071463          	bnez	x14,4c0 <.L24>
     4bc:	282701d3          	fmin.s	f3,f14,f2

000004c0 <.L24>:
     4c0:	a0f09c53          	flt.s	x24,f1,f15
     4c4:	20f783d3          	fmv.s	f7,f15
     4c8:	000c1463          	bnez	x24,4d0 <.L25>
     4cc:	281703d3          	fmin.s	f7,f14,f1

000004d0 <.L25>:
     4d0:	a0f01cd3          	flt.s	x25,f0,f15
     4d4:	20f78853          	fmv.s	f16,f15
     4d8:	000c9463          	bnez	x25,4e0 <.L26>
     4dc:	28070853          	fmin.s	f16,f14,f0

000004e0 <.L26>:
     4e0:	a0f51bd3          	flt.s	x23,f10,f15
     4e4:	20f788d3          	fmv.s	f17,f15
     4e8:	000b9463          	bnez	x23,4f0 <.L27>
     4ec:	28a708d3          	fmin.s	f17,f14,f10

000004f0 <.L27>:
     4f0:	a0f59ad3          	flt.s	x21,f11,f15
     4f4:	20f78e53          	fmv.s	f28,f15
     4f8:	000a9463          	bnez	x21,500 <.L28>
     4fc:	28b70e53          	fmin.s	f28,f14,f11

00000500 <.L28>:
     500:	a0f29a53          	flt.s	x20,f5,f15
     504:	20f78ed3          	fmv.s	f29,f15
     508:	000a1463          	bnez	x20,510 <.L29>
     50c:	28570ed3          	fmin.s	f29,f14,f5

00000510 <.L29>:
     510:	a0f319d3          	flt.s	x19,f6,f15
     514:	20f78f53          	fmv.s	f30,f15
     518:	00099463          	bnez	x19,520 <.L30>
     51c:	28670f53          	fmin.s	f30,f14,f6

00000520 <.L30>:
     520:	a0f21b53          	flt.s	x22,f4,f15
     524:	20f78fd3          	fmv.s	f31,f15
     528:	000b1463          	bnez	x22,530 <.L31>
     52c:	28470fd3          	fmin.s	f31,f14,f4

00000530 <.L31>:
     530:	09269663          	bne	x13,x18,5bc <.L32>
     534:	00279793          	slli	x15,x15,0x2
     538:	00ff88b3          	add	x17,x31,x15
     53c:	0038ae27          	fsw	f3,28(x17)
     540:	0078ac27          	fsw	f7,24(x17)
     544:	0108aa27          	fsw	f16,20(x17)
     548:	0118a827          	fsw	f17,16(x17)
     54c:	01c8a627          	fsw	f28,12(x17)
     550:	01d8a427          	fsw	f29,8(x17)
     554:	01e8a227          	fsw	f30,4(x17)
     558:	01f8a027          	fsw	f31,0(x17)
     55c:	00808c13          	addi	x24,x1,8 # 8 <tensorlib_clamp+0x8>
     560:	00008793          	mv	x15,x1
     564:	0bec7663          	bgeu	x24,x30,610 <.L111>

00000568 <.L63>:
     568:	000c0093          	mv	x1,x24
     56c:	f1238ee3          	beq	x7,x18,488 <.L112>

00000570 <.L22>:
     570:	02f38bb3          	mul	x23,x7,x15
     574:	002b9b13          	slli	x22,x23,0x2
     578:	016288b3          	add	x17,x5,x22
     57c:	00988733          	add	x14,x17,x9
     580:	01070c33          	add	x24,x14,x16
     584:	010c0cb3          	add	x25,x24,x16
     588:	010c8bb3          	add	x23,x25,x16
     58c:	010b8ab3          	add	x21,x23,x16
     590:	010a8a33          	add	x20,x21,x16
     594:	010a09b3          	add	x19,x20,x16
     598:	00072107          	flw	f2,0(x14)
     59c:	000c2087          	flw	f1,0(x24) # 3fc0000 <.L266+0x3fbedd0>
     5a0:	000ca007          	flw	f0,0(x25) # 20000000 <.L266+0x1fffedd0>
     5a4:	000ba507          	flw	f10,0(x23) # 4000000 <.L266+0x3ffedd0>
     5a8:	000aa587          	flw	f11,0(x21)
     5ac:	000a2287          	flw	f5,0(x20)
     5b0:	0009a307          	flw	f6,0(x19) # 20000000 <.L266+0x1fffedd0>
     5b4:	0008a207          	flw	f4,0(x17)
     5b8:	ef9ff06f          	j	4b0 <.L23>

000005bc <.L32>:
     5bc:	02f687b3          	mul	x15,x13,x15
     5c0:	00279893          	slli	x17,x15,0x2
     5c4:	011f8c33          	add	x24,x31,x17
     5c8:	008c0733          	add	x14,x24,x8
     5cc:	00372027          	fsw	f3,0(x14)
     5d0:	00c70cb3          	add	x25,x14,x12
     5d4:	007ca027          	fsw	f7,0(x25)
     5d8:	00cc8bb3          	add	x23,x25,x12
     5dc:	010ba027          	fsw	f16,0(x23)
     5e0:	00cb8ab3          	add	x21,x23,x12
     5e4:	011aa027          	fsw	f17,0(x21)
     5e8:	00ca8a33          	add	x20,x21,x12
     5ec:	01ca2027          	fsw	f28,0(x20)
     5f0:	00ca09b3          	add	x19,x20,x12
     5f4:	01d9a027          	fsw	f29,0(x19)
     5f8:	00c98b33          	add	x22,x19,x12
     5fc:	01eb2027          	fsw	f30,0(x22)
     600:	01fc2027          	fsw	f31,0(x24)
     604:	00808c13          	addi	x24,x1,8
     608:	00008793          	mv	x15,x1
     60c:	f5ec6ee3          	bltu	x24,x30,568 <.L63>

00000610 <.L111>:
     610:	bde0f8e3          	bgeu	x1,x30,1e0 <.L21>

00000614 <.L20>:
     614:	02138cb3          	mul	x25,x7,x1
     618:	00269713          	slli	x14,x13,0x2
     61c:	00239393          	slli	x7,x7,0x2
     620:	021686b3          	mul	x13,x13,x1
     624:	002c9b93          	slli	x23,x25,0x2
     628:	017282b3          	add	x5,x5,x23
     62c:	00269a93          	slli	x21,x13,0x2
     630:	015f8fb3          	add	x31,x31,x21

00000634 <.L36>:
     634:	0002a607          	flw	f12,0(x5) # 21040000 <.L266+0x2103edd0>
     638:	20f786d3          	fmv.s	f13,f15
     63c:	00108093          	addi	x1,x1,1
     640:	a0f61a53          	flt.s	x20,f12,f15
     644:	007282b3          	add	x5,x5,x7
     648:	000a1463          	bnez	x20,650 <.L34>
     64c:	28c706d3          	fmin.s	f13,f14,f12

00000650 <.L34>:
     650:	00dfa027          	fsw	f13,0(x31)
     654:	00ef8fb3          	add	x31,x31,x14
     658:	fc1f1ee3          	bne	x30,x1,634 <.L36>
     65c:	b85ff06f          	j	1e0 <.L21>

00000660 <.L110>:
     660:	00078093          	mv	x1,x15
     664:	fb1ff06f          	j	614 <.L20>

00000668 <tensorlib_clamp_min>:
     668:	f5010113          	addi	x2,x2,-176
     66c:	00050793          	mv	x15,x10
     670:	0a912223          	sw	x9,164(x2)
     674:	00810513          	addi	x10,x2,8
     678:	00058493          	mv	x9,x11
     67c:	00078593          	mv	x11,x15
     680:	0a112623          	sw	x1,172(x2)
     684:	0a812423          	sw	x8,168(x2)
     688:	0b212023          	sw	x18,160(x2)
     68c:	00060413          	mv	x8,x12
     690:	09312e23          	sw	x19,156(x2)
     694:	09412c23          	sw	x20,152(x2)
     698:	09512a23          	sw	x21,148(x2)
     69c:	09612823          	sw	x22,144(x2)
     6a0:	09712623          	sw	x23,140(x2)
     6a4:	09812423          	sw	x24,136(x2)
     6a8:	09912223          	sw	x25,132(x2)
     6ac:	00000097          	auipc	x1,0x0
     6b0:	000080e7          	jalr	x1 # 6ac <tensorlib_clamp_min+0x44>
     6b4:	00048593          	mv	x11,x9
     6b8:	04410513          	addi	x10,x2,68
     6bc:	00000097          	auipc	x1,0x0
     6c0:	000080e7          	jalr	x1 # 6bc <tensorlib_clamp_min+0x54>
     6c4:	00000eb7          	lui	x29,0x0
     6c8:	000006b7          	lui	x13,0x0
     6cc:	00000e37          	lui	x28,0x0
     6d0:	000005b7          	lui	x11,0x0
     6d4:	000ea283          	lw	x5,0(x29) # 0 <tensorlib_clamp>
     6d8:	0006a803          	lw	x16,0(x13) # 0 <tensorlib_clamp>
     6dc:	000e2703          	lw	x14,0(x28) # 0 <tensorlib_clamp>
     6e0:	0005a603          	lw	x12,0(x11) # 0 <tensorlib_clamp>
     6e4:	00000337          	lui	x6,0x0
     6e8:	00032503          	lw	x10,0(x6) # 0 <tensorlib_clamp>
     6ec:	010283b3          	add	x7,x5,x16
     6f0:	00c708b3          	add	x17,x14,x12
     6f4:	01839913          	slli	x18,x7,0x18
     6f8:	01289993          	slli	x19,x17,0x12
     6fc:	3f000a37          	lui	x20,0x3f000
     700:	00fc0b37          	lui	x22,0xfc0
     704:	00040f37          	lui	x30,0x40
     708:	00451c13          	slli	x24,x10,0x4
     70c:	ff0f0f93          	addi	x31,x30,-16 # 3fff0 <.L266+0x3edc0>
     710:	01497ab3          	and	x21,x18,x20
     714:	0169fbb3          	and	x23,x19,x22
     718:	017aecb3          	or	x25,x21,x23
     71c:	01fc77b3          	and	x15,x24,x31
     720:	00fce4b3          	or	x9,x25,x15
     724:	800002b7          	lui	x5,0x80000
     728:	00812803          	lw	x16,8(x2)
     72c:	0054e733          	or	x14,x9,x5
     730:	00042787          	flw	f15,0(x8) # 100000 <.L266+0xfedd0>
     734:	41001437          	lui	x8,0x41001
     738:	fff00613          	li	x12,-1
     73c:	d0e42623          	sw	x14,-756(x8) # 41000d0c <.L266+0x40fffadc>
     740:	00c12503          	lw	x10,12(x2)
     744:	01012c83          	lw	x25,16(x2)
     748:	01812f83          	lw	x31,24(x2)
     74c:	04c12383          	lw	x7,76(x2)
     750:	05412283          	lw	x5,84(x2)
     754:	0ec80063          	beq	x16,x12,834 <.L119>
     758:	0c080e63          	beqz	x16,834 <.L119>
     75c:	000000b7          	lui	x1,0x0
     760:	0000a883          	lw	x17,0(x1) # 0 <tensorlib_clamp>
     764:	00485913          	srli	x18,x16,0x4
     768:	00190993          	addi	x19,x18,1
     76c:	031987b3          	mul	x15,x19,x17
     770:	00f98f33          	add	x30,x19,x15
     774:	33e86063          	bltu	x16,x30,a94 <.L184>

00000778 <.L115>:
     778:	0be7fe63          	bgeu	x15,x30,834 <.L119>
     77c:	00100a13          	li	x20,1
     780:	31450e63          	beq	x10,x20,a9c <.L185>
     784:	04812403          	lw	x8,72(x2)
     788:	05012083          	lw	x1,80(x2)
     78c:	01412483          	lw	x9,20(x2)
     790:	00241a93          	slli	x21,x8,0x2
     794:	00251b13          	slli	x22,x10,0x2
     798:	001a88b3          	add	x17,x21,x1
     79c:	009b0833          	add	x16,x22,x9

000007a0 <.L130>:
     7a0:	2e040663          	beqz	x8,a8c <.L152>
     7a4:	00038a93          	mv	x21,x7
     7a8:	00008613          	mv	x12,x1
     7ac:	00078a13          	mv	x20,x15
     7b0:	00000713          	li	x14,0

000007b4 <.L127>:
     7b4:	00062903          	lw	x18,0(x12)
     7b8:	000aac03          	lw	x24,0(x21)
     7bc:	00460613          	addi	x12,x12,4
     7c0:	032a79b3          	remu	x19,x20,x18
     7c4:	004a8a93          	addi	x21,x21,4
     7c8:	03898b33          	mul	x22,x19,x24
     7cc:	032a5a33          	divu	x20,x20,x18
     7d0:	01670733          	add	x14,x14,x22
     7d4:	fec890e3          	bne	x17,x12,7b4 <.L127>
     7d8:	00271b93          	slli	x23,x14,0x2
     7dc:	01728bb3          	add	x23,x5,x23

000007e0 <.L126>:
     7e0:	000ba707          	flw	f14,0(x23)
     7e4:	28e79053          	fmax.s	f0,f15,f14
     7e8:	28050e63          	beqz	x10,a84 <.L153>
     7ec:	000c8a93          	mv	x21,x25
     7f0:	00048613          	mv	x12,x9
     7f4:	00078a13          	mv	x20,x15
     7f8:	00000713          	li	x14,0

000007fc <.L129>:
     7fc:	00062983          	lw	x19,0(x12)
     800:	000aac03          	lw	x24,0(x21)
     804:	00460613          	addi	x12,x12,4
     808:	004a8a93          	addi	x21,x21,4
     80c:	033a7b33          	remu	x22,x20,x19
     810:	038b0bb3          	mul	x23,x22,x24
     814:	033a5a33          	divu	x20,x20,x19
     818:	01770733          	add	x14,x14,x23
     81c:	fec810e3          	bne	x16,x12,7fc <.L129>
     820:	00271913          	slli	x18,x14,0x2
     824:	012f8933          	add	x18,x31,x18

00000828 <.L128>:
     828:	00092027          	fsw	f0,0(x18)
     82c:	00178793          	addi	x15,x15,1
     830:	f6ff18e3          	bne	x30,x15,7a0 <.L130>

00000834 <.L119>:
     834:	000eaf03          	lw	x30,0(x29)
     838:	000e2e03          	lw	x28,0(x28)
     83c:	0006ae83          	lw	x29,0(x13)
     840:	0005a083          	lw	x1,0(x11)
     844:	00032303          	lw	x6,0(x6)
     848:	01df0b33          	add	x22,x30,x29
     84c:	001e09b3          	add	x19,x28,x1
     850:	018b1a13          	slli	x20,x22,0x18
     854:	01299a93          	slli	x21,x19,0x12
     858:	3f000737          	lui	x14,0x3f000
     85c:	00fc04b7          	lui	x9,0xfc0
     860:	00040cb7          	lui	x25,0x40
     864:	00ea7433          	and	x8,x20,x14
     868:	009af533          	and	x10,x21,x9
     86c:	00431813          	slli	x16,x6,0x4
     870:	ff0c8793          	addi	x15,x25,-16 # 3fff0 <.L266+0x3edc0>
     874:	00f873b3          	and	x7,x16,x15
     878:	00a46933          	or	x18,x8,x10
     87c:	00796c33          	or	x24,x18,x7
     880:	c00008b7          	lui	x17,0xc0000
     884:	011c6bb3          	or	x23,x24,x17
     888:	41001637          	lui	x12,0x41001
     88c:	d1762623          	sw	x23,-756(x12) # 41000d0c <.L266+0x40fffadc>
     890:	0005a283          	lw	x5,0(x11)
     894:	0006af83          	lw	x31,0(x13)
     898:	000000b7          	lui	x1,0x0
     89c:	00428f13          	addi	x30,x5,4 # 80000004 <.L266+0x7fffedd4>
     8a0:	00008793          	mv	x15,x1
     8a4:	01e78eb3          	add	x29,x15,x30
     8a8:	018f9e13          	slli	x28,x31,0x18
     8ac:	01cee333          	or	x6,x29,x28
     8b0:	20040b37          	lui	x22,0x20040
     8b4:	016369b3          	or	x19,x6,x22
     8b8:	00100a13          	li	x20,1
     8bc:	01498023          	sb	x20,0(x19)
     8c0:	0005aa83          	lw	x21,0(x11)
     8c4:	074a8063          	beq	x21,x20,924 <.L132>

000008c8 <.L144>:
     8c8:	00100c13          	li	x24,1
     8cc:	0100006f          	j	8dc <.L148>

000008d0 <.L186>:
     8d0:	00008b93          	mv	x23,x1
     8d4:	140ba62f          	lr.w.aq	x12,(x23)
     8d8:	01860863          	beq	x12,x24,8e8 <.L147>

000008dc <.L148>:
     8dc:	00008693          	mv	x13,x1
     8e0:	1006a8af          	lr.w	x17,(x13)
     8e4:	ff8896e3          	bne	x17,x24,8d0 <.L186>

000008e8 <.L147>:
     8e8:	0ac12083          	lw	x1,172(x2)
     8ec:	0a812403          	lw	x8,168(x2)
     8f0:	0007a023          	sw	x0,0(x15)
     8f4:	0a412483          	lw	x9,164(x2)
     8f8:	0a012903          	lw	x18,160(x2)
     8fc:	09c12983          	lw	x19,156(x2)
     900:	09812a03          	lw	x20,152(x2)
     904:	09412a83          	lw	x21,148(x2)
     908:	09012b03          	lw	x22,144(x2)
     90c:	08c12b83          	lw	x23,140(x2)
     910:	08812c03          	lw	x24,136(x2)
     914:	08412c83          	lw	x25,132(x2)
     918:	00000513          	li	x10,0
     91c:	0b010113          	addi	x2,x2,176
     920:	00008067          	ret

00000924 <.L132>:
     924:	0047c703          	lbu	x14,4(x15)
     928:	0ff77413          	andi	x8,x14,255
     92c:	fe040ce3          	beqz	x8,924 <.L132>
     930:	0057c483          	lbu	x9,5(x15)
     934:	0ff4f513          	andi	x10,x9,255
     938:	fe0506e3          	beqz	x10,924 <.L132>
     93c:	0067c803          	lbu	x16,6(x15)
     940:	0ff87913          	andi	x18,x16,255
     944:	fe0900e3          	beqz	x18,924 <.L132>
     948:	0077cc83          	lbu	x25,7(x15)
     94c:	0ffcf393          	andi	x7,x25,255
     950:	fc038ae3          	beqz	x7,924 <.L132>
     954:	0006ac03          	lw	x24,0(x13)
     958:	210402b7          	lui	x5,0x21040
     95c:	00100893          	li	x17,1
     960:	00cc0b93          	addi	x23,x24,12
     964:	01778633          	add	x12,x15,x23
     968:	00566fb3          	or	x31,x12,x5
     96c:	011f8023          	sb	x17,0(x31)
     970:	0005af03          	lw	x30,0(x11)
     974:	f51f1ae3          	bne	x30,x17,8c8 <.L144>
     978:	0006a703          	lw	x14,0(x13)
     97c:	07e70c63          	beq	x14,x30,9f4 <.L138>

00000980 <.L143>:
     980:	00100f13          	li	x30,1
     984:	0100006f          	j	994 <.L137>

00000988 <.L187>:
     988:	00878e13          	addi	x28,x15,8
     98c:	140e232f          	lr.w.aq	x6,(x28)
     990:	01e30863          	beq	x6,x30,9a0 <.L145>

00000994 <.L137>:
     994:	00878593          	addi	x11,x15,8
     998:	1005aeaf          	lr.w	x29,(x11)
     99c:	ffee96e3          	bne	x29,x30,988 <.L187>

000009a0 <.L145>:
     9a0:	0007a423          	sw	x0,8(x15)
     9a4:	00078223          	sb	x0,4(x15)
     9a8:	000782a3          	sb	x0,5(x15)
     9ac:	00078323          	sb	x0,6(x15)
     9b0:	000783a3          	sb	x0,7(x15)
     9b4:	0007a023          	sw	x0,0(x15)
     9b8:	00000513          	li	x10,0
     9bc:	00008793          	mv	x15,x1
     9c0:	20000b37          	lui	x22,0x20000
     9c4:	00100993          	li	x19,1
     9c8:	00040a37          	lui	x20,0x40
     9cc:	00100ab7          	lui	x21,0x100

000009d0 <.L146>:
     9d0:	0006a403          	lw	x8,0(x13)
     9d4:	00a7e4b3          	or	x9,x15,x10
     9d8:	01450533          	add	x10,x10,x20
     9dc:	01841913          	slli	x18,x8,0x18
     9e0:	00996cb3          	or	x25,x18,x9
     9e4:	016ce3b3          	or	x7,x25,x22
     9e8:	0133a023          	sw	x19,0(x7)
     9ec:	ff5512e3          	bne	x10,x21,9d0 <.L146>
     9f0:	ed9ff06f          	j	8c8 <.L144>

000009f4 <.L138>:
     9f4:	00c7ce83          	lbu	x29,12(x15)
     9f8:	0ffefe13          	andi	x28,x29,255
     9fc:	fe0e0ce3          	beqz	x28,9f4 <.L138>
     a00:	00d7c303          	lbu	x6,13(x15)
     a04:	0ff37b13          	andi	x22,x6,255
     a08:	fe0b06e3          	beqz	x22,9f4 <.L138>
     a0c:	00e7c983          	lbu	x19,14(x15)
     a10:	0ff9fa13          	andi	x20,x19,255
     a14:	fe0a00e3          	beqz	x20,9f4 <.L138>
     a18:	00f7ca83          	lbu	x21,15(x15)
     a1c:	0ffaf413          	andi	x8,x21,255
     a20:	fc040ae3          	beqz	x8,9f4 <.L138>
     a24:	00078623          	sb	x0,12(x15)
     a28:	000786a3          	sb	x0,13(x15)
     a2c:	00078723          	sb	x0,14(x15)
     a30:	000787a3          	sb	x0,15(x15)
     a34:	000004b7          	lui	x9,0x0
     a38:	0007a423          	sw	x0,8(x15)
     a3c:	00000813          	li	x16,0
     a40:	00848513          	addi	x10,x9,8 # 8 <tensorlib_clamp+0x8>
     a44:	03fc0937          	lui	x18,0x3fc0
     a48:	20000cb7          	lui	x25,0x20000
     a4c:	00100393          	li	x7,1
     a50:	01000c37          	lui	x24,0x1000
     a54:	040008b7          	lui	x17,0x4000

00000a58 <.L142>:
     a58:	01271713          	slli	x14,x14,0x12
     a5c:	01056bb3          	or	x23,x10,x16
     a60:	01277633          	and	x12,x14,x18
     a64:	017662b3          	or	x5,x12,x23
     a68:	0192efb3          	or	x31,x5,x25
     a6c:	007fa023          	sw	x7,0(x31)
     a70:	01880833          	add	x16,x16,x24
     a74:	0005a703          	lw	x14,0(x11)
     a78:	ff1810e3          	bne	x16,x17,a58 <.L142>
     a7c:	f07702e3          	beq	x14,x7,980 <.L143>
     a80:	e49ff06f          	j	8c8 <.L144>

00000a84 <.L153>:
     a84:	000f8913          	mv	x18,x31
     a88:	da1ff06f          	j	828 <.L128>

00000a8c <.L152>:
     a8c:	00028b93          	mv	x23,x5
     a90:	d51ff06f          	j	7e0 <.L126>

00000a94 <.L184>:
     a94:	00080f13          	mv	x30,x16
     a98:	ce1ff06f          	j	778 <.L115>

00000a9c <.L185>:
     a9c:	00878093          	addi	x1,x15,8
     aa0:	000ca883          	lw	x17,0(x25) # 20000000 <.L266+0x1fffedd0>
     aa4:	0003a383          	lw	x7,0(x7)
     aa8:	1be0f063          	bgeu	x1,x30,c48 <.L188>
     aac:	00339513          	slli	x10,x7,0x3
     ab0:	00389c93          	slli	x25,x17,0x3
     ab4:	407504b3          	sub	x9,x10,x7
     ab8:	411c8433          	sub	x8,x25,x17
     abc:	40700833          	neg	x16,x7
     ac0:	411009b3          	neg	x19,x17
     ac4:	00249493          	slli	x9,x9,0x2
     ac8:	00241413          	slli	x8,x8,0x2
     acc:	00100913          	li	x18,1
     ad0:	00281813          	slli	x16,x16,0x2
     ad4:	00299513          	slli	x10,x19,0x2
     ad8:	0800006f          	j	b58 <.L117>

00000adc <.L190>:
     adc:	01c62107          	flw	f2,28(x12)
     ae0:	01862087          	flw	f1,24(x12)
     ae4:	01462187          	flw	f3,20(x12)
     ae8:	01062507          	flw	f10,16(x12)
     aec:	00c62587          	flw	f11,12(x12)
     af0:	00862607          	flw	f12,8(x12)
     af4:	00462687          	flw	f13,4(x12)
     af8:	00062207          	flw	f4,0(x12)

00000afc <.L121>:
     afc:	00279a93          	slli	x21,x15,0x2
     b00:	282792d3          	fmax.s	f5,f15,f2
     b04:	28179353          	fmax.s	f6,f15,f1
     b08:	283793d3          	fmax.s	f7,f15,f3
     b0c:	28a79853          	fmax.s	f16,f15,f10
     b10:	28b798d3          	fmax.s	f17,f15,f11
     b14:	28c79e53          	fmax.s	f28,f15,f12
     b18:	28d79ed3          	fmax.s	f29,f15,f13
     b1c:	28479f53          	fmax.s	f30,f15,f4
     b20:	015f8733          	add	x14,x31,x21
     b24:	09289663          	bne	x17,x18,bb0 <.L122>
     b28:	00572e27          	fsw	f5,28(x14) # 3f00001c <.L266+0x3effedec>
     b2c:	00672c27          	fsw	f6,24(x14)
     b30:	00772a27          	fsw	f7,20(x14)
     b34:	01072827          	fsw	f16,16(x14)
     b38:	01172627          	fsw	f17,12(x14)
     b3c:	01c72427          	fsw	f28,8(x14)
     b40:	01d72227          	fsw	f29,4(x14)
     b44:	01e72027          	fsw	f30,0(x14)
     b48:	00808c93          	addi	x25,x1,8 # 8 <tensorlib_clamp+0x8>
     b4c:	00008793          	mv	x15,x1
     b50:	0becfa63          	bgeu	x25,x30,c04 <.L189>

00000b54 <.L151>:
     b54:	000c8093          	mv	x1,x25

00000b58 <.L117>:
     b58:	00279c13          	slli	x24,x15,0x2
     b5c:	01828633          	add	x12,x5,x24
     b60:	f7238ee3          	beq	x7,x18,adc <.L190>
     b64:	02f38b33          	mul	x22,x7,x15
     b68:	002b1a93          	slli	x21,x22,0x2
     b6c:	01528733          	add	x14,x5,x21
     b70:	00970cb3          	add	x25,x14,x9
     b74:	010c8c33          	add	x24,x25,x16
     b78:	010c0bb3          	add	x23,x24,x16
     b7c:	010b8633          	add	x12,x23,x16
     b80:	01060b33          	add	x22,x12,x16
     b84:	010b09b3          	add	x19,x22,x16
     b88:	01098a33          	add	x20,x19,x16
     b8c:	000ca107          	flw	f2,0(x25)
     b90:	000c2087          	flw	f1,0(x24) # 1000000 <.L266+0xffedd0>
     b94:	000ba187          	flw	f3,0(x23)
     b98:	00062507          	flw	f10,0(x12)
     b9c:	000b2587          	flw	f11,0(x22) # 20000000 <.L266+0x1fffedd0>
     ba0:	0009a607          	flw	f12,0(x19)
     ba4:	000a2687          	flw	f13,0(x20) # 40000 <.L266+0x3edd0>
     ba8:	00072207          	flw	f4,0(x14)
     bac:	f51ff06f          	j	afc <.L121>

00000bb0 <.L122>:
     bb0:	02f887b3          	mul	x15,x17,x15
     bb4:	00279c93          	slli	x25,x15,0x2
     bb8:	019f8c33          	add	x24,x31,x25
     bbc:	008c0bb3          	add	x23,x24,x8
     bc0:	005ba027          	fsw	f5,0(x23)
     bc4:	00ab8633          	add	x12,x23,x10
     bc8:	00662027          	fsw	f6,0(x12)
     bcc:	00a60b33          	add	x22,x12,x10
     bd0:	007b2027          	fsw	f7,0(x22)
     bd4:	00ab09b3          	add	x19,x22,x10
     bd8:	0109a027          	fsw	f16,0(x19)
     bdc:	00a98a33          	add	x20,x19,x10
     be0:	011a2027          	fsw	f17,0(x20)
     be4:	00aa0ab3          	add	x21,x20,x10
     be8:	01caa027          	fsw	f28,0(x21) # 100000 <.L266+0xfedd0>
     bec:	00aa8733          	add	x14,x21,x10
     bf0:	01d72027          	fsw	f29,0(x14)
     bf4:	01ec2027          	fsw	f30,0(x24)
     bf8:	00808c93          	addi	x25,x1,8
     bfc:	00008793          	mv	x15,x1
     c00:	f5eceae3          	bltu	x25,x30,b54 <.L151>

00000c04 <.L189>:
     c04:	c3e0f8e3          	bgeu	x1,x30,834 <.L119>

00000c08 <.L118>:
     c08:	021387b3          	mul	x15,x7,x1
     c0c:	00289c13          	slli	x24,x17,0x2
     c10:	00239393          	slli	x7,x7,0x2
     c14:	021888b3          	mul	x17,x17,x1
     c18:	00279b93          	slli	x23,x15,0x2
     c1c:	017282b3          	add	x5,x5,x23
     c20:	00289613          	slli	x12,x17,0x2
     c24:	00cf8fb3          	add	x31,x31,x12

00000c28 <.L125>:
     c28:	0002af87          	flw	f31,0(x5) # 21040000 <.L266+0x2103edd0>
     c2c:	00108093          	addi	x1,x1,1
     c30:	007282b3          	add	x5,x5,x7
     c34:	28ff9753          	fmax.s	f14,f31,f15
     c38:	00efa027          	fsw	f14,0(x31)
     c3c:	018f8fb3          	add	x31,x31,x24
     c40:	fe1f14e3          	bne	x30,x1,c28 <.L125>
     c44:	bf1ff06f          	j	834 <.L119>

00000c48 <.L188>:
     c48:	00078093          	mv	x1,x15
     c4c:	fbdff06f          	j	c08 <.L118>

00000c50 <tensorlib_clamp_max>:
     c50:	f5010113          	addi	x2,x2,-176
     c54:	00050793          	mv	x15,x10
     c58:	0a912223          	sw	x9,164(x2)
     c5c:	00810513          	addi	x10,x2,8
     c60:	00058493          	mv	x9,x11
     c64:	00078593          	mv	x11,x15
     c68:	0a112623          	sw	x1,172(x2)
     c6c:	0a812423          	sw	x8,168(x2)
     c70:	0b212023          	sw	x18,160(x2)
     c74:	00060413          	mv	x8,x12
     c78:	09312e23          	sw	x19,156(x2)
     c7c:	09412c23          	sw	x20,152(x2)
     c80:	09512a23          	sw	x21,148(x2)
     c84:	09612823          	sw	x22,144(x2)
     c88:	09712623          	sw	x23,140(x2)
     c8c:	09812423          	sw	x24,136(x2)
     c90:	09912223          	sw	x25,132(x2)
     c94:	00000097          	auipc	x1,0x0
     c98:	000080e7          	jalr	x1 # c94 <tensorlib_clamp_max+0x44>
     c9c:	00048593          	mv	x11,x9
     ca0:	04410513          	addi	x10,x2,68
     ca4:	00000097          	auipc	x1,0x0
     ca8:	000080e7          	jalr	x1 # ca4 <tensorlib_clamp_max+0x54>
     cac:	00000eb7          	lui	x29,0x0
     cb0:	000006b7          	lui	x13,0x0
     cb4:	00000e37          	lui	x28,0x0
     cb8:	000005b7          	lui	x11,0x0
     cbc:	000ea283          	lw	x5,0(x29) # 0 <tensorlib_clamp>
     cc0:	0006a803          	lw	x16,0(x13) # 0 <tensorlib_clamp>
     cc4:	000e2703          	lw	x14,0(x28) # 0 <tensorlib_clamp>
     cc8:	0005a603          	lw	x12,0(x11) # 0 <tensorlib_clamp>
     ccc:	00000337          	lui	x6,0x0
     cd0:	00032503          	lw	x10,0(x6) # 0 <tensorlib_clamp>
     cd4:	010283b3          	add	x7,x5,x16
     cd8:	00c708b3          	add	x17,x14,x12
     cdc:	01839913          	slli	x18,x7,0x18
     ce0:	01289993          	slli	x19,x17,0x12
     ce4:	3f000a37          	lui	x20,0x3f000
     ce8:	00fc0b37          	lui	x22,0xfc0
     cec:	00040f37          	lui	x30,0x40
     cf0:	00451c13          	slli	x24,x10,0x4
     cf4:	ff0f0f93          	addi	x31,x30,-16 # 3fff0 <.L266+0x3edc0>
     cf8:	01497ab3          	and	x21,x18,x20
     cfc:	0169fbb3          	and	x23,x19,x22
     d00:	017aecb3          	or	x25,x21,x23
     d04:	01fc77b3          	and	x15,x24,x31
     d08:	00fce4b3          	or	x9,x25,x15
     d0c:	800002b7          	lui	x5,0x80000
     d10:	00812803          	lw	x16,8(x2)
     d14:	0054e733          	or	x14,x9,x5
     d18:	00042787          	flw	f15,0(x8)
     d1c:	41001437          	lui	x8,0x41001
     d20:	fff00613          	li	x12,-1
     d24:	d0e42623          	sw	x14,-756(x8) # 41000d0c <.L266+0x40fffadc>
     d28:	00c12503          	lw	x10,12(x2)
     d2c:	01012c83          	lw	x25,16(x2)
     d30:	01812f83          	lw	x31,24(x2)
     d34:	04c12383          	lw	x7,76(x2)
     d38:	05412283          	lw	x5,84(x2)
     d3c:	0ec80063          	beq	x16,x12,e1c <.L197>
     d40:	0c080e63          	beqz	x16,e1c <.L197>
     d44:	000000b7          	lui	x1,0x0
     d48:	0000a883          	lw	x17,0(x1) # 0 <tensorlib_clamp>
     d4c:	00485913          	srli	x18,x16,0x4
     d50:	00190993          	addi	x19,x18,1 # 3fc0001 <.L266+0x3fbedd1>
     d54:	031987b3          	mul	x15,x19,x17
     d58:	00f98f33          	add	x30,x19,x15
     d5c:	33e86063          	bltu	x16,x30,107c <.L262>

00000d60 <.L193>:
     d60:	0be7fe63          	bgeu	x15,x30,e1c <.L197>
     d64:	00100a13          	li	x20,1
     d68:	31450e63          	beq	x10,x20,1084 <.L263>
     d6c:	04812403          	lw	x8,72(x2)
     d70:	05012083          	lw	x1,80(x2)
     d74:	01412483          	lw	x9,20(x2)
     d78:	00241a93          	slli	x21,x8,0x2
     d7c:	00251b13          	slli	x22,x10,0x2
     d80:	001a88b3          	add	x17,x21,x1
     d84:	009b0833          	add	x16,x22,x9

00000d88 <.L208>:
     d88:	2e040663          	beqz	x8,1074 <.L230>
     d8c:	00038a93          	mv	x21,x7
     d90:	00008613          	mv	x12,x1
     d94:	00078a13          	mv	x20,x15
     d98:	00000713          	li	x14,0

00000d9c <.L205>:
     d9c:	00062903          	lw	x18,0(x12)
     da0:	000aac03          	lw	x24,0(x21)
     da4:	00460613          	addi	x12,x12,4
     da8:	032a79b3          	remu	x19,x20,x18
     dac:	004a8a93          	addi	x21,x21,4
     db0:	03898b33          	mul	x22,x19,x24
     db4:	032a5a33          	divu	x20,x20,x18
     db8:	01670733          	add	x14,x14,x22
     dbc:	fec890e3          	bne	x17,x12,d9c <.L205>
     dc0:	00271b93          	slli	x23,x14,0x2
     dc4:	01728bb3          	add	x23,x5,x23

00000dc8 <.L204>:
     dc8:	000ba707          	flw	f14,0(x23)
     dcc:	28e78053          	fmin.s	f0,f15,f14
     dd0:	28050e63          	beqz	x10,106c <.L231>
     dd4:	000c8a93          	mv	x21,x25
     dd8:	00048613          	mv	x12,x9
     ddc:	00078a13          	mv	x20,x15
     de0:	00000713          	li	x14,0

00000de4 <.L207>:
     de4:	00062983          	lw	x19,0(x12)
     de8:	000aac03          	lw	x24,0(x21)
     dec:	00460613          	addi	x12,x12,4
     df0:	004a8a93          	addi	x21,x21,4
     df4:	033a7b33          	remu	x22,x20,x19
     df8:	038b0bb3          	mul	x23,x22,x24
     dfc:	033a5a33          	divu	x20,x20,x19
     e00:	01770733          	add	x14,x14,x23
     e04:	fec810e3          	bne	x16,x12,de4 <.L207>
     e08:	00271913          	slli	x18,x14,0x2
     e0c:	012f8933          	add	x18,x31,x18

00000e10 <.L206>:
     e10:	00092027          	fsw	f0,0(x18)
     e14:	00178793          	addi	x15,x15,1
     e18:	f6ff18e3          	bne	x30,x15,d88 <.L208>

00000e1c <.L197>:
     e1c:	000eaf03          	lw	x30,0(x29)
     e20:	000e2e03          	lw	x28,0(x28)
     e24:	0006ae83          	lw	x29,0(x13)
     e28:	0005a083          	lw	x1,0(x11)
     e2c:	00032303          	lw	x6,0(x6)
     e30:	01df0b33          	add	x22,x30,x29
     e34:	001e09b3          	add	x19,x28,x1
     e38:	018b1a13          	slli	x20,x22,0x18
     e3c:	01299a93          	slli	x21,x19,0x12
     e40:	3f000737          	lui	x14,0x3f000
     e44:	00fc04b7          	lui	x9,0xfc0
     e48:	00040cb7          	lui	x25,0x40
     e4c:	00ea7433          	and	x8,x20,x14
     e50:	009af533          	and	x10,x21,x9
     e54:	00431813          	slli	x16,x6,0x4
     e58:	ff0c8793          	addi	x15,x25,-16 # 3fff0 <.L266+0x3edc0>
     e5c:	00f873b3          	and	x7,x16,x15
     e60:	00a46933          	or	x18,x8,x10
     e64:	00796c33          	or	x24,x18,x7
     e68:	c00008b7          	lui	x17,0xc0000
     e6c:	011c6bb3          	or	x23,x24,x17
     e70:	41001637          	lui	x12,0x41001
     e74:	d1762623          	sw	x23,-756(x12) # 41000d0c <.L266+0x40fffadc>
     e78:	0005a283          	lw	x5,0(x11)
     e7c:	0006af83          	lw	x31,0(x13)
     e80:	000000b7          	lui	x1,0x0
     e84:	00428f13          	addi	x30,x5,4 # 80000004 <.L266+0x7fffedd4>
     e88:	00008793          	mv	x15,x1
     e8c:	01e78eb3          	add	x29,x15,x30
     e90:	018f9e13          	slli	x28,x31,0x18
     e94:	01cee333          	or	x6,x29,x28
     e98:	20040b37          	lui	x22,0x20040
     e9c:	016369b3          	or	x19,x6,x22
     ea0:	00100a13          	li	x20,1
     ea4:	01498023          	sb	x20,0(x19)
     ea8:	0005aa83          	lw	x21,0(x11)
     eac:	074a8063          	beq	x21,x20,f0c <.L210>

00000eb0 <.L222>:
     eb0:	00100c13          	li	x24,1
     eb4:	0100006f          	j	ec4 <.L226>

00000eb8 <.L264>:
     eb8:	00008b93          	mv	x23,x1
     ebc:	140ba62f          	lr.w.aq	x12,(x23)
     ec0:	01860863          	beq	x12,x24,ed0 <.L225>

00000ec4 <.L226>:
     ec4:	00008693          	mv	x13,x1
     ec8:	1006a8af          	lr.w	x17,(x13)
     ecc:	ff8896e3          	bne	x17,x24,eb8 <.L264>

00000ed0 <.L225>:
     ed0:	0ac12083          	lw	x1,172(x2)
     ed4:	0a812403          	lw	x8,168(x2)
     ed8:	0007a023          	sw	x0,0(x15)
     edc:	0a412483          	lw	x9,164(x2)
     ee0:	0a012903          	lw	x18,160(x2)
     ee4:	09c12983          	lw	x19,156(x2)
     ee8:	09812a03          	lw	x20,152(x2)
     eec:	09412a83          	lw	x21,148(x2)
     ef0:	09012b03          	lw	x22,144(x2)
     ef4:	08c12b83          	lw	x23,140(x2)
     ef8:	08812c03          	lw	x24,136(x2)
     efc:	08412c83          	lw	x25,132(x2)
     f00:	00000513          	li	x10,0
     f04:	0b010113          	addi	x2,x2,176
     f08:	00008067          	ret

00000f0c <.L210>:
     f0c:	0047c703          	lbu	x14,4(x15)
     f10:	0ff77413          	andi	x8,x14,255
     f14:	fe040ce3          	beqz	x8,f0c <.L210>
     f18:	0057c483          	lbu	x9,5(x15)
     f1c:	0ff4f513          	andi	x10,x9,255
     f20:	fe0506e3          	beqz	x10,f0c <.L210>
     f24:	0067c803          	lbu	x16,6(x15)
     f28:	0ff87913          	andi	x18,x16,255
     f2c:	fe0900e3          	beqz	x18,f0c <.L210>
     f30:	0077cc83          	lbu	x25,7(x15)
     f34:	0ffcf393          	andi	x7,x25,255
     f38:	fc038ae3          	beqz	x7,f0c <.L210>
     f3c:	0006ac03          	lw	x24,0(x13)
     f40:	210402b7          	lui	x5,0x21040
     f44:	00100893          	li	x17,1
     f48:	00cc0b93          	addi	x23,x24,12
     f4c:	01778633          	add	x12,x15,x23
     f50:	00566fb3          	or	x31,x12,x5
     f54:	011f8023          	sb	x17,0(x31)
     f58:	0005af03          	lw	x30,0(x11)
     f5c:	f51f1ae3          	bne	x30,x17,eb0 <.L222>
     f60:	0006a703          	lw	x14,0(x13)
     f64:	07e70c63          	beq	x14,x30,fdc <.L216>

00000f68 <.L221>:
     f68:	00100f13          	li	x30,1
     f6c:	0100006f          	j	f7c <.L215>

00000f70 <.L265>:
     f70:	00878e13          	addi	x28,x15,8
     f74:	140e232f          	lr.w.aq	x6,(x28)
     f78:	01e30863          	beq	x6,x30,f88 <.L223>

00000f7c <.L215>:
     f7c:	00878593          	addi	x11,x15,8
     f80:	1005aeaf          	lr.w	x29,(x11)
     f84:	ffee96e3          	bne	x29,x30,f70 <.L265>

00000f88 <.L223>:
     f88:	0007a423          	sw	x0,8(x15)
     f8c:	00078223          	sb	x0,4(x15)
     f90:	000782a3          	sb	x0,5(x15)
     f94:	00078323          	sb	x0,6(x15)
     f98:	000783a3          	sb	x0,7(x15)
     f9c:	0007a023          	sw	x0,0(x15)
     fa0:	00000513          	li	x10,0
     fa4:	00008793          	mv	x15,x1
     fa8:	20000b37          	lui	x22,0x20000
     fac:	00100993          	li	x19,1
     fb0:	00040a37          	lui	x20,0x40
     fb4:	00100ab7          	lui	x21,0x100

00000fb8 <.L224>:
     fb8:	0006a403          	lw	x8,0(x13)
     fbc:	00a7e4b3          	or	x9,x15,x10
     fc0:	01450533          	add	x10,x10,x20
     fc4:	01841913          	slli	x18,x8,0x18
     fc8:	00996cb3          	or	x25,x18,x9
     fcc:	016ce3b3          	or	x7,x25,x22
     fd0:	0133a023          	sw	x19,0(x7)
     fd4:	ff5512e3          	bne	x10,x21,fb8 <.L224>
     fd8:	ed9ff06f          	j	eb0 <.L222>

00000fdc <.L216>:
     fdc:	00c7ce83          	lbu	x29,12(x15)
     fe0:	0ffefe13          	andi	x28,x29,255
     fe4:	fe0e0ce3          	beqz	x28,fdc <.L216>
     fe8:	00d7c303          	lbu	x6,13(x15)
     fec:	0ff37b13          	andi	x22,x6,255
     ff0:	fe0b06e3          	beqz	x22,fdc <.L216>
     ff4:	00e7c983          	lbu	x19,14(x15)
     ff8:	0ff9fa13          	andi	x20,x19,255
     ffc:	fe0a00e3          	beqz	x20,fdc <.L216>
    1000:	00f7ca83          	lbu	x21,15(x15)
    1004:	0ffaf413          	andi	x8,x21,255
    1008:	fc040ae3          	beqz	x8,fdc <.L216>
    100c:	00078623          	sb	x0,12(x15)
    1010:	000786a3          	sb	x0,13(x15)
    1014:	00078723          	sb	x0,14(x15)
    1018:	000787a3          	sb	x0,15(x15)
    101c:	000004b7          	lui	x9,0x0
    1020:	0007a423          	sw	x0,8(x15)
    1024:	00000813          	li	x16,0
    1028:	00848513          	addi	x10,x9,8 # 8 <tensorlib_clamp+0x8>
    102c:	03fc0937          	lui	x18,0x3fc0
    1030:	20000cb7          	lui	x25,0x20000
    1034:	00100393          	li	x7,1
    1038:	01000c37          	lui	x24,0x1000
    103c:	040008b7          	lui	x17,0x4000

00001040 <.L220>:
    1040:	01271713          	slli	x14,x14,0x12
    1044:	01056bb3          	or	x23,x10,x16
    1048:	01277633          	and	x12,x14,x18
    104c:	017662b3          	or	x5,x12,x23
    1050:	0192efb3          	or	x31,x5,x25
    1054:	007fa023          	sw	x7,0(x31)
    1058:	01880833          	add	x16,x16,x24
    105c:	0005a703          	lw	x14,0(x11)
    1060:	ff1810e3          	bne	x16,x17,1040 <.L220>
    1064:	f07702e3          	beq	x14,x7,f68 <.L221>
    1068:	e49ff06f          	j	eb0 <.L222>

0000106c <.L231>:
    106c:	000f8913          	mv	x18,x31
    1070:	da1ff06f          	j	e10 <.L206>

00001074 <.L230>:
    1074:	00028b93          	mv	x23,x5
    1078:	d51ff06f          	j	dc8 <.L204>

0000107c <.L262>:
    107c:	00080f13          	mv	x30,x16
    1080:	ce1ff06f          	j	d60 <.L193>

00001084 <.L263>:
    1084:	00878093          	addi	x1,x15,8
    1088:	000ca883          	lw	x17,0(x25) # 20000000 <.L266+0x1fffedd0>
    108c:	0003a383          	lw	x7,0(x7)
    1090:	1be0f063          	bgeu	x1,x30,1230 <.L266>
    1094:	00339513          	slli	x10,x7,0x3
    1098:	00389c93          	slli	x25,x17,0x3
    109c:	407504b3          	sub	x9,x10,x7
    10a0:	411c8433          	sub	x8,x25,x17
    10a4:	40700833          	neg	x16,x7
    10a8:	411009b3          	neg	x19,x17
    10ac:	00249493          	slli	x9,x9,0x2
    10b0:	00241413          	slli	x8,x8,0x2
    10b4:	00100913          	li	x18,1
    10b8:	00281813          	slli	x16,x16,0x2
    10bc:	00299513          	slli	x10,x19,0x2
    10c0:	0800006f          	j	1140 <.L195>

000010c4 <.L268>:
    10c4:	01c62107          	flw	f2,28(x12)
    10c8:	01862087          	flw	f1,24(x12)
    10cc:	01462187          	flw	f3,20(x12)
    10d0:	01062507          	flw	f10,16(x12)
    10d4:	00c62587          	flw	f11,12(x12)
    10d8:	00862607          	flw	f12,8(x12)
    10dc:	00462687          	flw	f13,4(x12)
    10e0:	00062207          	flw	f4,0(x12)

000010e4 <.L199>:
    10e4:	00279a93          	slli	x21,x15,0x2
    10e8:	282782d3          	fmin.s	f5,f15,f2
    10ec:	28178353          	fmin.s	f6,f15,f1
    10f0:	283783d3          	fmin.s	f7,f15,f3
    10f4:	28a78853          	fmin.s	f16,f15,f10
    10f8:	28b788d3          	fmin.s	f17,f15,f11
    10fc:	28c78e53          	fmin.s	f28,f15,f12
    1100:	28d78ed3          	fmin.s	f29,f15,f13
    1104:	28478f53          	fmin.s	f30,f15,f4
    1108:	015f8733          	add	x14,x31,x21
    110c:	09289663          	bne	x17,x18,1198 <.L200>
    1110:	00572e27          	fsw	f5,28(x14) # 3f00001c <.L266+0x3effedec>
    1114:	00672c27          	fsw	f6,24(x14)
    1118:	00772a27          	fsw	f7,20(x14)
    111c:	01072827          	fsw	f16,16(x14)
    1120:	01172627          	fsw	f17,12(x14)
    1124:	01c72427          	fsw	f28,8(x14)
    1128:	01d72227          	fsw	f29,4(x14)
    112c:	01e72027          	fsw	f30,0(x14)
    1130:	00808c93          	addi	x25,x1,8 # 8 <tensorlib_clamp+0x8>
    1134:	00008793          	mv	x15,x1
    1138:	0becfa63          	bgeu	x25,x30,11ec <.L267>

0000113c <.L229>:
    113c:	000c8093          	mv	x1,x25

00001140 <.L195>:
    1140:	00279c13          	slli	x24,x15,0x2
    1144:	01828633          	add	x12,x5,x24
    1148:	f7238ee3          	beq	x7,x18,10c4 <.L268>
    114c:	02f38b33          	mul	x22,x7,x15
    1150:	002b1a93          	slli	x21,x22,0x2
    1154:	01528733          	add	x14,x5,x21
    1158:	00970cb3          	add	x25,x14,x9
    115c:	010c8c33          	add	x24,x25,x16
    1160:	010c0bb3          	add	x23,x24,x16
    1164:	010b8633          	add	x12,x23,x16
    1168:	01060b33          	add	x22,x12,x16
    116c:	010b09b3          	add	x19,x22,x16
    1170:	01098a33          	add	x20,x19,x16
    1174:	000ca107          	flw	f2,0(x25)
    1178:	000c2087          	flw	f1,0(x24) # 1000000 <.L266+0xffedd0>
    117c:	000ba187          	flw	f3,0(x23)
    1180:	00062507          	flw	f10,0(x12)
    1184:	000b2587          	flw	f11,0(x22) # 20000000 <.L266+0x1fffedd0>
    1188:	0009a607          	flw	f12,0(x19)
    118c:	000a2687          	flw	f13,0(x20) # 40000 <.L266+0x3edd0>
    1190:	00072207          	flw	f4,0(x14)
    1194:	f51ff06f          	j	10e4 <.L199>

00001198 <.L200>:
    1198:	02f887b3          	mul	x15,x17,x15
    119c:	00279c93          	slli	x25,x15,0x2
    11a0:	019f8c33          	add	x24,x31,x25
    11a4:	008c0bb3          	add	x23,x24,x8
    11a8:	005ba027          	fsw	f5,0(x23)
    11ac:	00ab8633          	add	x12,x23,x10
    11b0:	00662027          	fsw	f6,0(x12)
    11b4:	00a60b33          	add	x22,x12,x10
    11b8:	007b2027          	fsw	f7,0(x22)
    11bc:	00ab09b3          	add	x19,x22,x10
    11c0:	0109a027          	fsw	f16,0(x19)
    11c4:	00a98a33          	add	x20,x19,x10
    11c8:	011a2027          	fsw	f17,0(x20)
    11cc:	00aa0ab3          	add	x21,x20,x10
    11d0:	01caa027          	fsw	f28,0(x21) # 100000 <.L266+0xfedd0>
    11d4:	00aa8733          	add	x14,x21,x10
    11d8:	01d72027          	fsw	f29,0(x14)
    11dc:	01ec2027          	fsw	f30,0(x24)
    11e0:	00808c93          	addi	x25,x1,8
    11e4:	00008793          	mv	x15,x1
    11e8:	f5eceae3          	bltu	x25,x30,113c <.L229>

000011ec <.L267>:
    11ec:	c3e0f8e3          	bgeu	x1,x30,e1c <.L197>

000011f0 <.L196>:
    11f0:	021387b3          	mul	x15,x7,x1
    11f4:	00289c13          	slli	x24,x17,0x2
    11f8:	00239393          	slli	x7,x7,0x2
    11fc:	021888b3          	mul	x17,x17,x1
    1200:	00279b93          	slli	x23,x15,0x2
    1204:	017282b3          	add	x5,x5,x23
    1208:	00289613          	slli	x12,x17,0x2
    120c:	00cf8fb3          	add	x31,x31,x12

00001210 <.L203>:
    1210:	0002af87          	flw	f31,0(x5) # 21040000 <.L266+0x2103edd0>
    1214:	00108093          	addi	x1,x1,1
    1218:	007282b3          	add	x5,x5,x7
    121c:	28ff8753          	fmin.s	f14,f31,f15
    1220:	00efa027          	fsw	f14,0(x31)
    1224:	018f8fb3          	add	x31,x31,x24
    1228:	fe1f14e3          	bne	x30,x1,1210 <.L203>
    122c:	bf1ff06f          	j	e1c <.L197>

00001230 <.L266>:
    1230:	00078093          	mv	x1,x15
    1234:	fbdff06f          	j	11f0 <.L196>

Disassembly of section .text._ZN8HBTensorIfLln1EEC2EP11hb_tensor_t:

00000000 <_ZN8HBTensorIfLln1EEC1EP11hb_tensor_t>:
   0:	00058713          	mv	x14,x11
   4:	0045a683          	lw	x13,4(x11)
   8:	00072803          	lw	x16,0(x14)
   c:	0105a583          	lw	x11,16(x11)
  10:	00050793          	mv	x15,x10
  14:	02850613          	addi	x12,x10,40
  18:	01450513          	addi	x10,x10,20
  1c:	0107a023          	sw	x16,0(x15)
  20:	00d7a223          	sw	x13,4(x15)
  24:	00a7a423          	sw	x10,8(x15)
  28:	00c7a623          	sw	x12,12(x15)
  2c:	00b7a823          	sw	x11,16(x15)
  30:	00060613          	mv	x12,x12
  34:	00500293          	li	x5,5
  38:	04d2e463          	bltu	x5,x13,80 <.L14>
  3c:	00872303          	lw	x6,8(x14)
  40:	00c72383          	lw	x7,12(x14)
  44:	02068c63          	beqz	x13,7c <.L1>
  48:	00269893          	slli	x17,x13,0x2
  4c:	00078713          	mv	x14,x15
  50:	01178e33          	add	x28,x15,x17
  54:	40f30eb3          	sub	x29,x6,x15
  58:	40f38f33          	sub	x30,x7,x15

0000005c <.L5>:
  5c:	00ee8fb3          	add	x31,x29,x14
  60:	000fa683          	lw	x13,0(x31)
  64:	00ef05b3          	add	x11,x30,x14
  68:	00470713          	addi	x14,x14,4
  6c:	00d72823          	sw	x13,16(x14)
  70:	0005a803          	lw	x16,0(x11)
  74:	03072223          	sw	x16,36(x14)
  78:	ffc712e3          	bne	x14,x28,5c <.L5>

0000007c <.L1>:
  7c:	00008067          	ret

00000080 <.L14>:
  80:	ff010113          	addi	x2,x2,-16
  84:	000007b7          	lui	x15,0x0
  88:	00112623          	sw	x1,12(x2)
  8c:	000000b7          	lui	x1,0x0
  90:	0c700613          	li	x12,199
  94:	00008593          	mv	x11,x1
  98:	00078513          	mv	x10,x15
  9c:	00000097          	auipc	x1,0x0
  a0:	000080e7          	jalr	x1 # 9c <.L14+0x1c>
  a4:	00000637          	lui	x12,0x0
  a8:	00060513          	mv	x10,x12
  ac:	00000097          	auipc	x1,0x0
  b0:	000080e7          	jalr	x1 # ac <.L14+0x2c>
  b4:	00000537          	lui	x10,0x0
  b8:	00052283          	lw	x5,0(x10) # 0 <_ZN8HBTensorIfLln1EEC1EP11hb_tensor_t>
  bc:	00000337          	lui	x6,0x0
  c0:	00032383          	lw	x7,0(x6) # 0 <_ZN8HBTensorIfLln1EEC1EP11hb_tensor_t>
  c4:	01029893          	slli	x17,x5,0x10
  c8:	4100feb7          	lui	x29,0x4100f
  cc:	00788e33          	add	x28,x17,x7
  d0:	adceac23          	sw	x28,-1320(x29) # 4100ead8 <.L266+0x4100d8a8>

000000d4 <.L3>:
  d4:	0000006f          	j	d4 <.L3>
