
kernel_reshape_weight.o:     file format elf32-littleriscv


Disassembly of section .group:

00000000 <_ZN8HBTensorIiLln1EEC5EP11hb_tensor_t>:
   0:	0001                	nop
   2:	0000                	unimp
   4:	00000007          	0x7
   8:	0008                	0x8
	...

Disassembly of section .text:

00000000 <tensorlib_reshape_weight>:
   0:	f5010113          	addi	x2,x2,-176
   4:	00050793          	mv	x15,x10
   8:	0a912223          	sw	x9,164(x2)
   c:	00810513          	addi	x10,x2,8
  10:	00058493          	mv	x9,x11
  14:	00078593          	mv	x11,x15
  18:	0a112623          	sw	x1,172(x2)
  1c:	0a812423          	sw	x8,168(x2)
  20:	0b212023          	sw	x18,160(x2)
  24:	00070413          	mv	x8,x14
  28:	09312e23          	sw	x19,156(x2)
  2c:	09412c23          	sw	x20,152(x2)
  30:	00068993          	mv	x19,x13
  34:	00060a13          	mv	x20,x12
  38:	09512a23          	sw	x21,148(x2)
  3c:	09612823          	sw	x22,144(x2)
  40:	09712623          	sw	x23,140(x2)
  44:	00000097          	auipc	x1,0x0
  48:	000080e7          	jalr	x1 # 44 <tensorlib_reshape_weight+0x44>
  4c:	00048593          	mv	x11,x9
  50:	04410513          	addi	x10,x2,68
  54:	00000097          	auipc	x1,0x0
  58:	000080e7          	jalr	x1 # 54 <tensorlib_reshape_weight+0x54>
  5c:	000004b7          	lui	x9,0x0
  60:	00000337          	lui	x6,0x0
  64:	000008b7          	lui	x17,0x0
  68:	00000937          	lui	x18,0x0
  6c:	00032283          	lw	x5,0(x6) # 0 <tensorlib_reshape_weight>
  70:	0004a683          	lw	x13,0(x9) # 0 <tensorlib_reshape_weight>
  74:	0008a583          	lw	x11,0(x17) # 0 <tensorlib_reshape_weight>
  78:	00092703          	lw	x14,0(x18) # 0 <tensorlib_reshape_weight>
  7c:	00000837          	lui	x16,0x0
  80:	00082503          	lw	x10,0(x16) # 0 <tensorlib_reshape_weight>
  84:	00d283b3          	add	x7,x5,x13
  88:	00e58633          	add	x12,x11,x14
  8c:	01839a93          	slli	x21,x7,0x18
  90:	01261b13          	slli	x22,x12,0x12
  94:	00fc0eb7          	lui	x29,0xfc0
  98:	3f000bb7          	lui	x23,0x3f000
  9c:	000402b7          	lui	x5,0x40
  a0:	01db7f33          	and	x30,x22,x29
  a4:	00451f93          	slli	x31,x10,0x4
  a8:	017afe33          	and	x28,x21,x23
  ac:	ff028693          	addi	x13,x5,-16 # 3fff0 <.L32+0x3fbec>
  b0:	00042503          	lw	x10,0(x8)
  b4:	01ee67b3          	or	x15,x28,x30
  b8:	00dff5b3          	and	x11,x31,x13
  bc:	00000437          	lui	x8,0x0
  c0:	00042403          	lw	x8,0(x8) # 0 <tensorlib_reshape_weight>
  c4:	00b7e3b3          	or	x7,x15,x11
  c8:	80000737          	lui	x14,0x80000
  cc:	000a2e83          	lw	x29,0(x20)
  d0:	00e3e633          	or	x12,x7,x14
  d4:	41001a37          	lui	x20,0x41001
  d8:	0009af03          	lw	x30,0(x19)
  dc:	d0ca2623          	sw	x12,-756(x20) # 41000d0c <.L32+0x41000908>
  e0:	0aa47463          	bgeu	x8,x10,188 <.L23>
  e4:	04c12083          	lw	x1,76(x2)
  e8:	05412a03          	lw	x20,84(x2)
  ec:	00812e03          	lw	x28,8(x2)
  f0:	0040aa83          	lw	x21,4(x1)
  f4:	0000ab03          	lw	x22,0(x1)
  f8:	00c12383          	lw	x7,12(x2)
  fc:	03540bb3          	mul	x23,x8,x21
 100:	001b1f93          	slli	x31,x22,0x1
 104:	01812283          	lw	x5,24(x2)
 108:	01012983          	lw	x19,16(x2)
 10c:	016f86b3          	add	x13,x31,x22
 110:	416007b3          	neg	x15,x22
 114:	009a9613          	slli	x12,x21,0x9
 118:	00269f93          	slli	x31,x13,0x2
 11c:	00279593          	slli	x11,x15,0x2
 120:	003b1093          	slli	x1,x22,0x3
 124:	016b8733          	add	x14,x23,x22
 128:	00271a93          	slli	x21,x14,0x2
 12c:	015a0a33          	add	x20,x20,x21
 130:	00100693          	li	x13,1

00000134 <.L24>:
 134:	00241793          	slli	x15,x8,0x2
 138:	13c47e63          	bgeu	x8,x28,274 <.L53>
 13c:	00d39863          	bne	x7,x13,14c <.L52>
 140:	0009ab03          	lw	x22,0(x19)
 144:	03640bb3          	mul	x23,x8,x22
 148:	002b9793          	slli	x15,x23,0x2

0000014c <.L52>:
 14c:	000a2b03          	lw	x22,0(x20)
 150:	00f28ab3          	add	x21,x5,x15
 154:	01458733          	add	x14,x11,x20
 158:	036e87b3          	mul	x15,x29,x22
 15c:	00170bb3          	add	x23,x14,x1
 160:	000bab03          	lw	x22,0(x23) # 3f000000 <.L32+0x3efffbfc>
 164:	01f70733          	add	x14,x14,x31
 168:	00072b83          	lw	x23,0(x14) # 80000000 <.L32+0x7ffffbfc>
 16c:	08040413          	addi	x8,x8,128
 170:	00ca0a33          	add	x20,x20,x12
 174:	016787b3          	add	x15,x15,x22
 178:	03e78b33          	mul	x22,x15,x30
 17c:	017b0733          	add	x14,x22,x23
 180:	00eaa023          	sw	x14,0(x21)
 184:	faa468e3          	bltu	x8,x10,134 <.L24>

00000188 <.L23>:
 188:	00032e03          	lw	x28,0(x6)
 18c:	0008a283          	lw	x5,0(x17)
 190:	0004a383          	lw	x7,0(x9)
 194:	00092983          	lw	x19,0(x18)
 198:	00082583          	lw	x11,0(x16)
 19c:	007e0633          	add	x12,x28,x7
 1a0:	013280b3          	add	x1,x5,x19
 1a4:	01861f93          	slli	x31,x12,0x18
 1a8:	01209693          	slli	x13,x1,0x12
 1ac:	3f000ab7          	lui	x21,0x3f000
 1b0:	00fc0437          	lui	x8,0xfc0
 1b4:	00040737          	lui	x14,0x40
 1b8:	015ffbb3          	and	x23,x31,x21
 1bc:	0086fa33          	and	x20,x13,x8
 1c0:	00459b13          	slli	x22,x11,0x4
 1c4:	ff070313          	addi	x6,x14,-16 # 3fff0 <.L32+0x3fbec>
 1c8:	014be7b3          	or	x15,x23,x20
 1cc:	006b78b3          	and	x17,x22,x6
 1d0:	0117e833          	or	x16,x15,x17
 1d4:	c0000537          	lui	x10,0xc0000
 1d8:	00a86eb3          	or	x29,x16,x10
 1dc:	41001f37          	lui	x30,0x41001
 1e0:	d1df2623          	sw	x29,-756(x30) # 41000d0c <.L32+0x41000908>
 1e4:	00092e03          	lw	x28,0(x18)
 1e8:	0004a383          	lw	x7,0(x9)
 1ec:	000005b7          	lui	x11,0x0
 1f0:	004e0293          	addi	x5,x28,4
 1f4:	00058613          	mv	x12,x11
 1f8:	005609b3          	add	x19,x12,x5
 1fc:	01839093          	slli	x1,x7,0x18
 200:	0019efb3          	or	x31,x19,x1
 204:	201c06b7          	lui	x13,0x201c0
 208:	00dfeab3          	or	x21,x31,x13
 20c:	00100b93          	li	x23,1
 210:	017a8023          	sb	x23,0(x21) # 3f000000 <.L32+0x3efffbfc>
 214:	00092403          	lw	x8,0(x18)
 218:	00700a13          	li	x20,7
 21c:	0b440463          	beq	x8,x20,2c4 <.L54>

00000220 <.L25>:
 220:	00100493          	li	x9,1
 224:	0100006f          	j	234 <.L38>

00000228 <.L55>:
 228:	00058f13          	mv	x30,x11
 22c:	140f2aaf          	lr.w.aq	x21,(x30)
 230:	009a8863          	beq	x21,x9,240 <.L37>

00000234 <.L38>:
 234:	00058693          	mv	x13,x11
 238:	1006a92f          	lr.w	x18,(x13)
 23c:	fe9916e3          	bne	x18,x9,228 <.L55>

00000240 <.L37>:
 240:	0ac12083          	lw	x1,172(x2)
 244:	0a812403          	lw	x8,168(x2)
 248:	00062023          	sw	x0,0(x12)
 24c:	0a412483          	lw	x9,164(x2)
 250:	0a012903          	lw	x18,160(x2)
 254:	09c12983          	lw	x19,156(x2)
 258:	09812a03          	lw	x20,152(x2)
 25c:	09412a83          	lw	x21,148(x2)
 260:	09012b03          	lw	x22,144(x2)
 264:	08c12b83          	lw	x23,140(x2)
 268:	00000513          	li	x10,0
 26c:	0b010113          	addi	x2,x2,176
 270:	00008067          	ret

00000274 <.L53>:
 274:	00000337          	lui	x6,0x0
 278:	000008b7          	lui	x17,0x0
 27c:	00030593          	mv	x11,x6
 280:	08c00613          	li	x12,140
 284:	00088513          	mv	x10,x17
 288:	00000097          	auipc	x1,0x0
 28c:	000080e7          	jalr	x1 # 288 <.L53+0x14>
 290:	00812583          	lw	x11,8(x2)
 294:	00000837          	lui	x16,0x0
 298:	00040613          	mv	x12,x8
 29c:	00080513          	mv	x10,x16
 2a0:	00000097          	auipc	x1,0x0
 2a4:	000080e7          	jalr	x1 # 2a0 <.L53+0x2c>
 2a8:	0004a483          	lw	x9,0(x9)
 2ac:	00092903          	lw	x18,0(x18)
 2b0:	4100ff37          	lui	x30,0x4100f
 2b4:	01049513          	slli	x10,x9,0x10
 2b8:	01250eb3          	add	x29,x10,x18
 2bc:	addf2c23          	sw	x29,-1320(x30) # 4100ead8 <.L32+0x4100e6d4>

000002c0 <.L20>:
 2c0:	0000006f          	j	2c0 <.L20>

000002c4 <.L54>:
 2c4:	00000b37          	lui	x22,0x0
 2c8:	000007b7          	lui	x15,0x0
 2cc:	004b0313          	addi	x6,x22,4 # 4 <tensorlib_reshape_weight+0x4>
 2d0:	01478f13          	addi	x30,x15,20 # 14 <tensorlib_reshape_weight+0x14>

000002d4 <.L17>:
 2d4:	00030893          	mv	x17,x6

000002d8 <.L27>:
 2d8:	0008c703          	lbu	x14,0(x17) # 0 <tensorlib_reshape_weight>
 2dc:	00188893          	addi	x17,x17,1
 2e0:	0ff77813          	andi	x16,x14,255
 2e4:	fe0808e3          	beqz	x16,2d4 <.L17>
 2e8:	ff1f18e3          	bne	x30,x17,2d8 <.L27>
 2ec:	0004a503          	lw	x10,0(x9)
 2f0:	231c03b7          	lui	x7,0x231c0
 2f4:	00100993          	li	x19,1
 2f8:	01850e93          	addi	x29,x10,24 # c0000018 <.L32+0xbffffc14>
 2fc:	01d60e33          	add	x28,x12,x29
 300:	007e62b3          	or	x5,x28,x7
 304:	01328023          	sb	x19,0(x5)
 308:	00092083          	lw	x1,0(x18)
 30c:	00700f93          	li	x31,7
 310:	f1f098e3          	bne	x1,x31,220 <.L25>
 314:	0004a683          	lw	x13,0(x9)
 318:	00300a93          	li	x21,3
 31c:	07568e63          	beq	x13,x21,398 <.L56>

00000320 <.L33>:
 320:	00100a93          	li	x21,1
 324:	0100006f          	j	334 <.L29>

00000328 <.L57>:
 328:	01460a13          	addi	x20,x12,20
 32c:	140a2b2f          	lr.w.aq	x22,(x20)
 330:	015b0863          	beq	x22,x21,340 <.L34>

00000334 <.L29>:
 334:	01460b93          	addi	x23,x12,20
 338:	100ba42f          	lr.w	x8,(x23)
 33c:	ff5416e3          	bne	x8,x21,328 <.L57>

00000340 <.L34>:
 340:	00062a23          	sw	x0,20(x12)
 344:	00000793          	li	x15,0
 348:	01000313          	li	x6,16

0000034c <.L35>:
 34c:	00f60733          	add	x14,x12,x15
 350:	00070223          	sb	x0,4(x14)
 354:	00178793          	addi	x15,x15,1
 358:	fe679ae3          	bne	x15,x6,34c <.L35>
 35c:	00062023          	sw	x0,0(x12)
 360:	00000513          	li	x10,0
 364:	20000eb7          	lui	x29,0x20000
 368:	00100e13          	li	x28,1
 36c:	000403b7          	lui	x7,0x40
 370:	004008b7          	lui	x17,0x400

00000374 <.L36>:
 374:	0004a803          	lw	x16,0(x9)
 378:	00a662b3          	or	x5,x12,x10
 37c:	00750533          	add	x10,x10,x7
 380:	01881993          	slli	x19,x16,0x18
 384:	0059e0b3          	or	x1,x19,x5
 388:	01d0efb3          	or	x31,x1,x29
 38c:	01cfa023          	sw	x28,0(x31)
 390:	ff1512e3          	bne	x10,x17,374 <.L36>
 394:	e8dff06f          	j	220 <.L25>

00000398 <.L56>:
 398:	00000bb7          	lui	x23,0x0
 39c:	00000a37          	lui	x20,0x0
 3a0:	018b8413          	addi	x8,x23,24 # 18 <tensorlib_reshape_weight+0x18>
 3a4:	020a0b13          	addi	x22,x20,32 # 20 <tensorlib_reshape_weight+0x20>

000003a8 <.L28>:
 3a8:	00040793          	mv	x15,x8

000003ac <.L30>:
 3ac:	0007c303          	lbu	x6,0(x15)
 3b0:	00178793          	addi	x15,x15,1
 3b4:	0ff37713          	andi	x14,x6,255
 3b8:	fe0708e3          	beqz	x14,3a8 <.L28>
 3bc:	fefb18e3          	bne	x22,x15,3ac <.L30>
 3c0:	00060c23          	sb	x0,24(x12)
 3c4:	00060ca3          	sb	x0,25(x12)
 3c8:	00060d23          	sb	x0,26(x12)
 3cc:	00060da3          	sb	x0,27(x12)
 3d0:	00060e23          	sb	x0,28(x12)
 3d4:	00060ea3          	sb	x0,29(x12)
 3d8:	00060f23          	sb	x0,30(x12)
 3dc:	00060fa3          	sb	x0,31(x12)
 3e0:	00062a23          	sw	x0,20(x12)
 3e4:	00000693          	li	x13,0
 3e8:	03fc0eb7          	lui	x29,0x3fc0
 3ec:	20000e37          	lui	x28,0x20000
 3f0:	00100393          	li	x7,1
 3f4:	010008b7          	lui	x17,0x1000
 3f8:	08000837          	lui	x16,0x8000
 3fc:	0080006f          	j	404 <.L32>

00000400 <.L58>:
 400:	00092083          	lw	x1,0(x18)

00000404 <.L32>:
 404:	01209293          	slli	x5,x1,0x12
 408:	00df6533          	or	x10,x30,x13
 40c:	01d2f9b3          	and	x19,x5,x29
 410:	00a9e0b3          	or	x1,x19,x10
 414:	01c0efb3          	or	x31,x1,x28
 418:	007fa023          	sw	x7,0(x31)
 41c:	011686b3          	add	x13,x13,x17
 420:	ff0690e3          	bne	x13,x16,400 <.L58>
 424:	00092903          	lw	x18,0(x18)
 428:	00700f13          	li	x30,7
 42c:	efe90ae3          	beq	x18,x30,320 <.L33>
 430:	df1ff06f          	j	220 <.L25>

Disassembly of section .text._ZN8HBTensorIiLln1EEC2EP11hb_tensor_t:

00000000 <_ZN8HBTensorIiLln1EEC1EP11hb_tensor_t>:
   0:	00058713          	mv	x14,x11
   4:	0045a683          	lw	x13,4(x11) # 4 <_ZN8HBTensorIiLln1EEC1EP11hb_tensor_t+0x4>
   8:	00072803          	lw	x16,0(x14)
   c:	0105a583          	lw	x11,16(x11)
  10:	00050793          	mv	x15,x10
  14:	02850613          	addi	x12,x10,40
  18:	01450513          	addi	x10,x10,20
  1c:	0107a023          	sw	x16,0(x15)
  20:	00d7a223          	sw	x13,4(x15)
  24:	00a7a423          	sw	x10,8(x15)
  28:	00c7a623          	sw	x12,12(x15)
  2c:	00b7a823          	sw	x11,16(x15)
  30:	00060613          	mv	x12,x12
  34:	00500293          	li	x5,5
  38:	04d2e463          	bltu	x5,x13,80 <.L14>
  3c:	00872303          	lw	x6,8(x14)
  40:	00c72383          	lw	x7,12(x14)
  44:	02068c63          	beqz	x13,7c <.L1>
  48:	00269893          	slli	x17,x13,0x2
  4c:	00078713          	mv	x14,x15
  50:	01178e33          	add	x28,x15,x17
  54:	40f30eb3          	sub	x29,x6,x15
  58:	40f38f33          	sub	x30,x7,x15

0000005c <.L5>:
  5c:	00ee8fb3          	add	x31,x29,x14
  60:	000fa683          	lw	x13,0(x31)
  64:	00ef05b3          	add	x11,x30,x14
  68:	00470713          	addi	x14,x14,4
  6c:	00d72823          	sw	x13,16(x14)
  70:	0005a803          	lw	x16,0(x11)
  74:	03072223          	sw	x16,36(x14)
  78:	ffc712e3          	bne	x14,x28,5c <.L5>

0000007c <.L1>:
  7c:	00008067          	ret

00000080 <.L14>:
  80:	ff010113          	addi	x2,x2,-16
  84:	000007b7          	lui	x15,0x0
  88:	00112623          	sw	x1,12(x2)
  8c:	000000b7          	lui	x1,0x0
  90:	0d800613          	li	x12,216
  94:	00008593          	mv	x11,x1
  98:	00078513          	mv	x10,x15
  9c:	00000097          	auipc	x1,0x0
  a0:	000080e7          	jalr	x1 # 9c <.L14+0x1c>
  a4:	00000637          	lui	x12,0x0
  a8:	00060513          	mv	x10,x12
  ac:	00000097          	auipc	x1,0x0
  b0:	000080e7          	jalr	x1 # ac <.L14+0x2c>
  b4:	00000537          	lui	x10,0x0
  b8:	00052283          	lw	x5,0(x10) # 0 <_ZN8HBTensorIiLln1EEC1EP11hb_tensor_t>
  bc:	00000337          	lui	x6,0x0
  c0:	00032383          	lw	x7,0(x6) # 0 <_ZN8HBTensorIiLln1EEC1EP11hb_tensor_t>
  c4:	01029893          	slli	x17,x5,0x10
  c8:	4100feb7          	lui	x29,0x4100f
  cc:	00788e33          	add	x28,x17,x7
  d0:	adceac23          	sw	x28,-1320(x29) # 4100ead8 <.L32+0x4100e6d4>

000000d4 <.L3>:
  d4:	0000006f          	j	d4 <.L3>
