
kernel_vincr.o:     file format elf32-littleriscv


Disassembly of section .group:

00000000 <_ZN8HBTensorIfLln1EEC5EP11hb_tensor_t>:
   0:	0001                	nop
   2:	0000                	unimp
   4:	00000007          	0x7
   8:	0008                	0x8
	...

Disassembly of section .text:

00000000 <tensorlib_vincr>:
   0:	f7010113          	addi	x2,x2,-144
   4:	00050793          	mv	x15,x10
   8:	08812423          	sw	x8,136(x2)
   c:	00810513          	addi	x10,x2,8
  10:	00058413          	mv	x8,x11
  14:	00078593          	mv	x11,x15
  18:	08112623          	sw	x1,140(x2)
  1c:	08912223          	sw	x9,132(x2)
  20:	09212023          	sw	x18,128(x2)
  24:	00000097          	auipc	x1,0x0
  28:	000080e7          	jalr	x1 # 24 <tensorlib_vincr+0x24>
  2c:	00040593          	mv	x11,x8
  30:	04410513          	addi	x10,x2,68
  34:	00000097          	auipc	x1,0x0
  38:	000080e7          	jalr	x1 # 34 <tensorlib_vincr+0x34>
  3c:	00000437          	lui	x8,0x0
  40:	00000537          	lui	x10,0x0
  44:	000005b7          	lui	x11,0x0
  48:	000004b7          	lui	x9,0x0
  4c:	00052283          	lw	x5,0(x10) # 0 <tensorlib_vincr>
  50:	00042883          	lw	x17,0(x8) # 0 <tensorlib_vincr>
  54:	0005a703          	lw	x14,0(x11) # 0 <tensorlib_vincr>
  58:	0004a803          	lw	x16,0(x9) # 0 <tensorlib_vincr>
  5c:	00000637          	lui	x12,0x0
  60:	00062683          	lw	x13,0(x12) # 0 <tensorlib_vincr>
  64:	01128333          	add	x6,x5,x17
  68:	010703b3          	add	x7,x14,x16
  6c:	01831913          	slli	x18,x6,0x18
  70:	01239e13          	slli	x28,x7,0x12
  74:	3f000eb7          	lui	x29,0x3f000
  78:	00fc0fb7          	lui	x31,0xfc0
  7c:	00040737          	lui	x14,0x40
  80:	01d97f33          	and	x30,x18,x29
  84:	01fe77b3          	and	x15,x28,x31
  88:	00469293          	slli	x5,x13,0x4
  8c:	ff070813          	addi	x16,x14,-16 # 3fff0 <.L23+0x3fc28>
  90:	00ff68b3          	or	x17,x30,x15
  94:	0102f6b3          	and	x13,x5,x16
  98:	00d8e333          	or	x6,x17,x13
  9c:	800003b7          	lui	x7,0x80000
  a0:	00736933          	or	x18,x6,x7
  a4:	41001e37          	lui	x28,0x41001
  a8:	d12e2623          	sw	x18,-756(x28) # 41000d0c <.L23+0x41000944>
  ac:	00000eb7          	lui	x29,0x0
  b0:	000eaf03          	lw	x30,0(x29) # 0 <tensorlib_vincr>
  b4:	080f1063          	bnez	x30,134 <.L19>
  b8:	04412083          	lw	x1,68(x2)
  bc:	06008c63          	beqz	x1,134 <.L19>
  c0:	04812803          	lw	x16,72(x2)
  c4:	05412303          	lw	x6,84(x2)
  c8:	04c12f83          	lw	x31,76(x2)
  cc:	00812903          	lw	x18,8(x2)
  d0:	00c12383          	lw	x7,12(x2)
  d4:	01812e03          	lw	x28,24(x2)
  d8:	01012283          	lw	x5,16(x2)
  dc:	000007b7          	lui	x15,0x0
  e0:	0007a707          	flw	f14,0(x15) # 0 <tensorlib_vincr>
  e4:	00100893          	li	x17,1
  e8:	00000793          	li	x15,0

000000ec <.L26>:
  ec:	00279e93          	slli	x29,x15,0x2
  f0:	01181863          	bne	x16,x17,100 <.L58>
  f4:	000fa703          	lw	x14,0(x31) # fc0000 <.L23+0xfbfc38>
  f8:	02e786b3          	mul	x13,x15,x14
  fc:	00269e93          	slli	x29,x13,0x2

00000100 <.L58>:
 100:	01d30f33          	add	x30,x6,x29
 104:	00279e93          	slli	x29,x15,0x2
 108:	26f90a63          	beq	x18,x15,37c <.L60>
 10c:	01139863          	bne	x7,x17,11c <.L59>
 110:	0002a703          	lw	x14,0(x5)
 114:	02e786b3          	mul	x13,x15,x14
 118:	00269e93          	slli	x29,x13,0x2

0000011c <.L59>:
 11c:	000f2787          	flw	f15,0(x30)
 120:	01de0733          	add	x14,x28,x29
 124:	00178793          	addi	x15,x15,1
 128:	00e7f053          	fadd.s	f0,f15,f14
 12c:	00072027          	fsw	f0,0(x14)
 130:	faf09ee3          	bne	x1,x15,ec <.L26>

00000134 <.L19>:
 134:	00052083          	lw	x1,0(x10)
 138:	0005a803          	lw	x16,0(x11)
 13c:	00042503          	lw	x10,0(x8)
 140:	0004a583          	lw	x11,0(x9)
 144:	00062303          	lw	x6,0(x12)
 148:	00a08633          	add	x12,x1,x10
 14c:	00b80fb3          	add	x31,x16,x11
 150:	01861913          	slli	x18,x12,0x18
 154:	012f9393          	slli	x7,x31,0x12
 158:	3f000e37          	lui	x28,0x3f000
 15c:	00fc08b7          	lui	x17,0xfc0
 160:	00040737          	lui	x14,0x40
 164:	01c972b3          	and	x5,x18,x28
 168:	0113ff33          	and	x30,x7,x17
 16c:	00431693          	slli	x13,x6,0x4
 170:	ff070793          	addi	x15,x14,-16 # 3fff0 <.L23+0x3fc28>
 174:	01e2eeb3          	or	x29,x5,x30
 178:	00f6f0b3          	and	x1,x13,x15
 17c:	001ee533          	or	x10,x29,x1
 180:	c0000837          	lui	x16,0xc0000
 184:	010565b3          	or	x11,x10,x16
 188:	41001337          	lui	x6,0x41001
 18c:	d0b32623          	sw	x11,-756(x6) # 41000d0c <.L23+0x41000944>
 190:	0004af83          	lw	x31,0(x9)
 194:	00042903          	lw	x18,0(x8)
 198:	00000637          	lui	x12,0x0
 19c:	004f8393          	addi	x7,x31,4
 1a0:	00060693          	mv	x13,x12
 1a4:	00768e33          	add	x28,x13,x7
 1a8:	01891293          	slli	x5,x18,0x18
 1ac:	005e68b3          	or	x17,x28,x5
 1b0:	201c0f37          	lui	x30,0x201c0
 1b4:	01e8eeb3          	or	x29,x17,x30
 1b8:	00100713          	li	x14,1
 1bc:	00ee8023          	sb	x14,0(x29)
 1c0:	0004a083          	lw	x1,0(x9)
 1c4:	00700793          	li	x15,7
 1c8:	04f08263          	beq	x1,x15,20c <.L61>

000001cc <.L27>:
 1cc:	00100413          	li	x8,1
 1d0:	0100006f          	j	1e0 <.L40>

000001d4 <.L62>:
 1d4:	00060e93          	mv	x29,x12
 1d8:	140ea52f          	lr.w.aq	x10,(x29)
 1dc:	00850863          	beq	x10,x8,1ec <.L39>

000001e0 <.L40>:
 1e0:	00060893          	mv	x17,x12
 1e4:	1008af2f          	lr.w	x30,(x17)
 1e8:	fe8f16e3          	bne	x30,x8,1d4 <.L62>

000001ec <.L39>:
 1ec:	08c12083          	lw	x1,140(x2)
 1f0:	08812403          	lw	x8,136(x2)
 1f4:	0006a023          	sw	x0,0(x13)
 1f8:	08412483          	lw	x9,132(x2)
 1fc:	08012903          	lw	x18,128(x2)
 200:	00000513          	li	x10,0
 204:	09010113          	addi	x2,x2,144
 208:	00008067          	ret

0000020c <.L61>:
 20c:	00000537          	lui	x10,0x0
 210:	000005b7          	lui	x11,0x0
 214:	00450813          	addi	x16,x10,4 # 4 <tensorlib_vincr+0x4>
 218:	01458f93          	addi	x31,x11,20 # 14 <tensorlib_vincr+0x14>

0000021c <.L17>:
 21c:	00080913          	mv	x18,x16

00000220 <.L29>:
 220:	00094303          	lbu	x6,0(x18)
 224:	00190913          	addi	x18,x18,1
 228:	0ff37393          	andi	x7,x6,255
 22c:	fe0388e3          	beqz	x7,21c <.L17>
 230:	ff2f98e3          	bne	x31,x18,220 <.L29>
 234:	00042e03          	lw	x28,0(x8)
 238:	231c0f37          	lui	x30,0x231c0
 23c:	00100713          	li	x14,1
 240:	018e0293          	addi	x5,x28,24 # 3f000018 <.L23+0x3efffc50>
 244:	005688b3          	add	x17,x13,x5
 248:	01e8eeb3          	or	x29,x17,x30
 24c:	00ee8023          	sb	x14,0(x29)
 250:	0004a083          	lw	x1,0(x9)
 254:	00700793          	li	x15,7
 258:	f6f09ae3          	bne	x1,x15,1cc <.L27>
 25c:	00042503          	lw	x10,0(x8)
 260:	00300813          	li	x16,3
 264:	07050e63          	beq	x10,x16,2e0 <.L63>

00000268 <.L35>:
 268:	00100e13          	li	x28,1
 26c:	0100006f          	j	27c <.L31>

00000270 <.L64>:
 270:	01468f13          	addi	x30,x13,20
 274:	140f2eaf          	lr.w.aq	x29,(x30)
 278:	01ce8863          	beq	x29,x28,288 <.L36>

0000027c <.L31>:
 27c:	01468293          	addi	x5,x13,20
 280:	1002a8af          	lr.w	x17,(x5)
 284:	ffc896e3          	bne	x17,x28,270 <.L64>

00000288 <.L36>:
 288:	0006aa23          	sw	x0,20(x13)
 28c:	00000813          	li	x16,0
 290:	01000513          	li	x10,16

00000294 <.L37>:
 294:	01068333          	add	x6,x13,x16
 298:	00030223          	sb	x0,4(x6)
 29c:	00180813          	addi	x16,x16,1 # c0000001 <.L23+0xbffffc39>
 2a0:	fea81ae3          	bne	x16,x10,294 <.L37>
 2a4:	0006a023          	sw	x0,0(x13)
 2a8:	00000713          	li	x14,0
 2ac:	200000b7          	lui	x1,0x20000
 2b0:	00100913          	li	x18,1
 2b4:	000403b7          	lui	x7,0x40
 2b8:	004004b7          	lui	x9,0x400

000002bc <.L38>:
 2bc:	00042783          	lw	x15,0(x8)
 2c0:	00e6e5b3          	or	x11,x13,x14
 2c4:	00770733          	add	x14,x14,x7
 2c8:	01879f93          	slli	x31,x15,0x18
 2cc:	00bfee33          	or	x28,x31,x11
 2d0:	001e62b3          	or	x5,x28,x1
 2d4:	0122a023          	sw	x18,0(x5)
 2d8:	fe9712e3          	bne	x14,x9,2bc <.L38>
 2dc:	ef1ff06f          	j	1cc <.L27>

000002e0 <.L63>:
 2e0:	000005b7          	lui	x11,0x0
 2e4:	00000937          	lui	x18,0x0
 2e8:	01858313          	addi	x6,x11,24 # 18 <tensorlib_vincr+0x18>
 2ec:	02090393          	addi	x7,x18,32 # 20 <tensorlib_vincr+0x20>

000002f0 <.L30>:
 2f0:	00030293          	mv	x5,x6

000002f4 <.L32>:
 2f4:	0002ce03          	lbu	x28,0(x5)
 2f8:	00128293          	addi	x5,x5,1
 2fc:	0ffe7893          	andi	x17,x28,255
 300:	fe0888e3          	beqz	x17,2f0 <.L30>
 304:	fe5398e3          	bne	x7,x5,2f4 <.L32>
 308:	00068c23          	sb	x0,24(x13)
 30c:	00068ca3          	sb	x0,25(x13)
 310:	00068d23          	sb	x0,26(x13)
 314:	00068da3          	sb	x0,27(x13)
 318:	00068e23          	sb	x0,28(x13)
 31c:	00068ea3          	sb	x0,29(x13)
 320:	00068f23          	sb	x0,30(x13)
 324:	00068fa3          	sb	x0,31(x13)
 328:	0006aa23          	sw	x0,20(x13)
 32c:	00000713          	li	x14,0
 330:	03fc0f37          	lui	x30,0x3fc0
 334:	20000eb7          	lui	x29,0x20000
 338:	00100513          	li	x10,1
 33c:	01000337          	lui	x6,0x1000
 340:	08000837          	lui	x16,0x8000
 344:	0080006f          	j	34c <.L34>

00000348 <.L65>:
 348:	0004a083          	lw	x1,0(x9) # 400000 <.L23+0x3ffc38>

0000034c <.L34>:
 34c:	01209093          	slli	x1,x1,0x12
 350:	00efe5b3          	or	x11,x31,x14
 354:	01e0f7b3          	and	x15,x1,x30
 358:	00b7e933          	or	x18,x15,x11
 35c:	01d963b3          	or	x7,x18,x29
 360:	00a3a023          	sw	x10,0(x7) # 40000 <.L23+0x3fc38>
 364:	00670733          	add	x14,x14,x6
 368:	ff0710e3          	bne	x14,x16,348 <.L65>
 36c:	0004a483          	lw	x9,0(x9)
 370:	00700f93          	li	x31,7
 374:	eff48ae3          	beq	x9,x31,268 <.L35>
 378:	e55ff06f          	j	1cc <.L27>

0000037c <.L60>:
 37c:	000006b7          	lui	x13,0x0
 380:	00000637          	lui	x12,0x0
 384:	00060593          	mv	x11,x12
 388:	00068513          	mv	x10,x13
 38c:	08c00613          	li	x12,140
 390:	00000097          	auipc	x1,0x0
 394:	000080e7          	jalr	x1 # 390 <.L60+0x14>
 398:	00812583          	lw	x11,8(x2)
 39c:	00000337          	lui	x6,0x0
 3a0:	00090613          	mv	x12,x18
 3a4:	00030513          	mv	x10,x6
 3a8:	00000097          	auipc	x1,0x0
 3ac:	000080e7          	jalr	x1 # 3a8 <.L60+0x2c>
 3b0:	00042803          	lw	x16,0(x8)
 3b4:	0004a903          	lw	x18,0(x9)
 3b8:	4100f7b7          	lui	x15,0x4100f
 3bc:	01081393          	slli	x7,x16,0x10
 3c0:	012384b3          	add	x9,x7,x18
 3c4:	ac97ac23          	sw	x9,-1320(x15) # 4100ead8 <.L23+0x4100e710>

000003c8 <.L23>:
 3c8:	0000006f          	j	3c8 <.L23>

Disassembly of section .text._ZN8HBTensorIfLln1EEC2EP11hb_tensor_t:

00000000 <_ZN8HBTensorIfLln1EEC1EP11hb_tensor_t>:
   0:	00058713          	mv	x14,x11
   4:	0045a683          	lw	x13,4(x11)
   8:	00072803          	lw	x16,0(x14)
   c:	0105a583          	lw	x11,16(x11)
  10:	00050793          	mv	x15,x10
  14:	02850613          	addi	x12,x10,40
  18:	01450513          	addi	x10,x10,20
  1c:	0107a023          	sw	x16,0(x15)
  20:	00d7a223          	sw	x13,4(x15)
  24:	00a7a423          	sw	x10,8(x15)
  28:	00c7a623          	sw	x12,12(x15)
  2c:	00b7a823          	sw	x11,16(x15)
  30:	00060613          	mv	x12,x12
  34:	00500293          	li	x5,5
  38:	04d2e463          	bltu	x5,x13,80 <.L14>
  3c:	00872303          	lw	x6,8(x14)
  40:	00c72383          	lw	x7,12(x14)
  44:	02068c63          	beqz	x13,7c <.L1>
  48:	00269893          	slli	x17,x13,0x2
  4c:	00078713          	mv	x14,x15
  50:	01178e33          	add	x28,x15,x17
  54:	40f30eb3          	sub	x29,x6,x15
  58:	40f38f33          	sub	x30,x7,x15

0000005c <.L5>:
  5c:	00ee8fb3          	add	x31,x29,x14
  60:	000fa683          	lw	x13,0(x31)
  64:	00ef05b3          	add	x11,x30,x14
  68:	00470713          	addi	x14,x14,4
  6c:	00d72823          	sw	x13,16(x14)
  70:	0005a803          	lw	x16,0(x11)
  74:	03072223          	sw	x16,36(x14)
  78:	ffc712e3          	bne	x14,x28,5c <.L5>

0000007c <.L1>:
  7c:	00008067          	ret

00000080 <.L14>:
  80:	ff010113          	addi	x2,x2,-16
  84:	000007b7          	lui	x15,0x0
  88:	00112623          	sw	x1,12(x2)
  8c:	000000b7          	lui	x1,0x0
  90:	0d800613          	li	x12,216
  94:	00008593          	mv	x11,x1
  98:	00078513          	mv	x10,x15
  9c:	00000097          	auipc	x1,0x0
  a0:	000080e7          	jalr	x1 # 9c <.L14+0x1c>
  a4:	00000637          	lui	x12,0x0
  a8:	00060513          	mv	x10,x12
  ac:	00000097          	auipc	x1,0x0
  b0:	000080e7          	jalr	x1 # ac <.L14+0x2c>
  b4:	00000537          	lui	x10,0x0
  b8:	00052283          	lw	x5,0(x10) # 0 <_ZN8HBTensorIfLln1EEC1EP11hb_tensor_t>
  bc:	00000337          	lui	x6,0x0
  c0:	00032383          	lw	x7,0(x6) # 0 <_ZN8HBTensorIfLln1EEC1EP11hb_tensor_t>
  c4:	01029893          	slli	x17,x5,0x10
  c8:	4100feb7          	lui	x29,0x4100f
  cc:	00788e33          	add	x28,x17,x7
  d0:	adceac23          	sw	x28,-1320(x29) # 4100ead8 <.L23+0x4100e710>

000000d4 <.L3>:
  d4:	0000006f          	j	d4 <.L3>

Disassembly of section .srodata.cst4:

00000000 <.LC4>:
   0:	0000                	unimp
   2:	3f80                	fld	f8,56(x15)
