
kernel_conv.o:     file format elf32-littleriscv


Disassembly of section .group:

00000000 <_ZN8HBTensorIfLl4EEC5EP11hb_tensor_t>:
   0:	0001                	nop
   2:	0000                	unimp
   4:	0009                	c.nop	2
   6:	0000                	unimp
   8:	000a                	c.slli	x0,0x2
	...

Disassembly of section .group:

00000000 <.group>:
   0:	0001                	nop
   2:	0000                	unimp
   4:	000c                	0xc
   6:	0000                	unimp
   8:	000d                	c.nop	3
	...

Disassembly of section .group:

00000000 <_ZN8HBTensorIfLln1EEC5EP11hb_tensor_t>:
   0:	0001                	nop
   2:	0000                	unimp
   4:	0000000f          	fence	unknown,unknown
   8:	0010                	0x10
	...

Disassembly of section .text:

00000000 <_Z21hb_tiled_foreach_implIfZL26convolution_backward_inputP11hb_tensor_tS1_S1_P11hb_vector_tS3_EUlvE_JEEvjjT0_8HBTensorIT_Lln1EEPS7_.isra.0>:
       0:	00100813          	li	x16,1
       4:	07060463          	beq	x12,x16,6c <.L75>
       8:	04b57c63          	bgeu	x10,x11,60 <.L1>
       c:	00261293          	slli	x5,x12,0x2
      10:	005703b3          	add	x7,x14,x5

00000014 <.L8>:
      14:	04060863          	beqz	x12,64 <.L9>
      18:	00068e13          	mv	x28,x13
      1c:	00070813          	mv	x16,x14
      20:	00050313          	mv	x6,x10
      24:	00000f13          	li	x30,0

00000028 <.L7>:
      28:	00082e83          	lw	x29,0(x16)
      2c:	000e2f83          	lw	x31,0(x28)
      30:	00480813          	addi	x16,x16,4
      34:	03d378b3          	remu	x17,x6,x29
      38:	004e0e13          	addi	x28,x28,4
      3c:	03f882b3          	mul	x5,x17,x31
      40:	03d35333          	divu	x6,x6,x29
      44:	005f0f33          	add	x30,x30,x5
      48:	ff0390e3          	bne	x7,x16,28 <.L7>
      4c:	002f1e93          	slli	x29,x30,0x2
      50:	01d78f33          	add	x30,x15,x29

00000054 <.L6>:
      54:	000f2023          	sw	x0,0(x30)
      58:	00150513          	addi	x10,x10,1
      5c:	faa59ce3          	bne	x11,x10,14 <.L8>

00000060 <.L1>:
      60:	00008067          	ret

00000064 <.L9>:
      64:	00078f13          	mv	x30,x15
      68:	fedff06f          	j	54 <.L6>

0000006c <.L75>:
      6c:	feb57ae3          	bgeu	x10,x11,60 <.L1>
      70:	0006a703          	lw	x14,0(x13)
      74:	40a586b3          	sub	x13,x11,x10
      78:	00f6f393          	andi	x7,x13,15
      7c:	00271f93          	slli	x31,x14,0x2
      80:	03f50833          	mul	x16,x10,x31
      84:	010787b3          	add	x15,x15,x16
      88:	12038463          	beqz	x7,1b0 <.L4>
      8c:	10c38a63          	beq	x7,x12,1a0 <.L58>
      90:	00200613          	li	x12,2
      94:	10c38063          	beq	x7,x12,194 <.L59>
      98:	00300893          	li	x17,3
      9c:	0f138663          	beq	x7,x17,188 <.L60>
      a0:	00400e13          	li	x28,4
      a4:	0dc38c63          	beq	x7,x28,17c <.L61>
      a8:	00500293          	li	x5,5
      ac:	0c538263          	beq	x7,x5,170 <.L62>
      b0:	00600313          	li	x6,6
      b4:	0a638863          	beq	x7,x6,164 <.L63>
      b8:	00700f13          	li	x30,7
      bc:	09e38e63          	beq	x7,x30,158 <.L64>
      c0:	00800e93          	li	x29,8
      c4:	09d38463          	beq	x7,x29,14c <.L65>
      c8:	00900713          	li	x14,9
      cc:	06e38a63          	beq	x7,x14,140 <.L66>
      d0:	00a00693          	li	x13,10
      d4:	06d38063          	beq	x7,x13,134 <.L67>
      d8:	00b00813          	li	x16,11
      dc:	05038663          	beq	x7,x16,128 <.L68>
      e0:	00c00613          	li	x12,12
      e4:	02c38c63          	beq	x7,x12,11c <.L69>
      e8:	00d00893          	li	x17,13
      ec:	03138263          	beq	x7,x17,110 <.L70>
      f0:	00e00e13          	li	x28,14
      f4:	01c38863          	beq	x7,x28,104 <.L71>
      f8:	0007a023          	sw	x0,0(x15)
      fc:	00150513          	addi	x10,x10,1
     100:	01f787b3          	add	x15,x15,x31

00000104 <.L71>:
     104:	0007a023          	sw	x0,0(x15)
     108:	00150513          	addi	x10,x10,1
     10c:	01f787b3          	add	x15,x15,x31

00000110 <.L70>:
     110:	0007a023          	sw	x0,0(x15)
     114:	00150513          	addi	x10,x10,1
     118:	01f787b3          	add	x15,x15,x31

0000011c <.L69>:
     11c:	0007a023          	sw	x0,0(x15)
     120:	00150513          	addi	x10,x10,1
     124:	01f787b3          	add	x15,x15,x31

00000128 <.L68>:
     128:	0007a023          	sw	x0,0(x15)
     12c:	00150513          	addi	x10,x10,1
     130:	01f787b3          	add	x15,x15,x31

00000134 <.L67>:
     134:	0007a023          	sw	x0,0(x15)
     138:	00150513          	addi	x10,x10,1
     13c:	01f787b3          	add	x15,x15,x31

00000140 <.L66>:
     140:	0007a023          	sw	x0,0(x15)
     144:	00150513          	addi	x10,x10,1
     148:	01f787b3          	add	x15,x15,x31

0000014c <.L65>:
     14c:	0007a023          	sw	x0,0(x15)
     150:	00150513          	addi	x10,x10,1
     154:	01f787b3          	add	x15,x15,x31

00000158 <.L64>:
     158:	0007a023          	sw	x0,0(x15)
     15c:	00150513          	addi	x10,x10,1
     160:	01f787b3          	add	x15,x15,x31

00000164 <.L63>:
     164:	0007a023          	sw	x0,0(x15)
     168:	00150513          	addi	x10,x10,1
     16c:	01f787b3          	add	x15,x15,x31

00000170 <.L62>:
     170:	0007a023          	sw	x0,0(x15)
     174:	00150513          	addi	x10,x10,1
     178:	01f787b3          	add	x15,x15,x31

0000017c <.L61>:
     17c:	0007a023          	sw	x0,0(x15)
     180:	00150513          	addi	x10,x10,1
     184:	01f787b3          	add	x15,x15,x31

00000188 <.L60>:
     188:	0007a023          	sw	x0,0(x15)
     18c:	00150513          	addi	x10,x10,1
     190:	01f787b3          	add	x15,x15,x31

00000194 <.L59>:
     194:	0007a023          	sw	x0,0(x15)
     198:	00150513          	addi	x10,x10,1
     19c:	01f787b3          	add	x15,x15,x31

000001a0 <.L58>:
     1a0:	0007a023          	sw	x0,0(x15)
     1a4:	00150513          	addi	x10,x10,1
     1a8:	01f787b3          	add	x15,x15,x31
     1ac:	08a58863          	beq	x11,x10,23c <.L76>

000001b0 <.L4>:
     1b0:	0007a023          	sw	x0,0(x15)
     1b4:	01f783b3          	add	x7,x15,x31
     1b8:	0003a023          	sw	x0,0(x7)
     1bc:	01f382b3          	add	x5,x7,x31
     1c0:	0002a023          	sw	x0,0(x5)
     1c4:	01f28333          	add	x6,x5,x31
     1c8:	00032023          	sw	x0,0(x6)
     1cc:	01f30f33          	add	x30,x6,x31
     1d0:	000f2023          	sw	x0,0(x30)
     1d4:	01ff0eb3          	add	x29,x30,x31
     1d8:	000ea023          	sw	x0,0(x29)
     1dc:	01fe8733          	add	x14,x29,x31
     1e0:	00072023          	sw	x0,0(x14)
     1e4:	01f706b3          	add	x13,x14,x31
     1e8:	0006a023          	sw	x0,0(x13)
     1ec:	01f68833          	add	x16,x13,x31
     1f0:	00082023          	sw	x0,0(x16)
     1f4:	01f80633          	add	x12,x16,x31
     1f8:	00062023          	sw	x0,0(x12)
     1fc:	01f608b3          	add	x17,x12,x31
     200:	0008a023          	sw	x0,0(x17)
     204:	01f88e33          	add	x28,x17,x31
     208:	000e2023          	sw	x0,0(x28)
     20c:	01fe07b3          	add	x15,x28,x31
     210:	0007a023          	sw	x0,0(x15)
     214:	01f783b3          	add	x7,x15,x31
     218:	0003a023          	sw	x0,0(x7)
     21c:	01f382b3          	add	x5,x7,x31
     220:	01f28333          	add	x6,x5,x31
     224:	0002a023          	sw	x0,0(x5)
     228:	00032023          	sw	x0,0(x6)
     22c:	01050513          	addi	x10,x10,16
     230:	01f307b3          	add	x15,x6,x31
     234:	f6a59ee3          	bne	x11,x10,1b0 <.L4>
     238:	00008067          	ret

0000023c <.L76>:
     23c:	00008067          	ret

00000240 <tensorlib_convolution_add_bias>:
     240:	00052783          	lw	x15,0(x10)
     244:	00000737          	lui	x14,0x0
     248:	00072283          	lw	x5,0(x14) # 0 <_Z21hb_tiled_foreach_implIfZL26convolution_backward_inputP11hb_tensor_tS1_S1_P11hb_vector_tS3_EUlvE_JEEvjjT0_8HBTensorIT_Lln1EEPS7_.isra.0>
     24c:	0077d613          	srli	x12,x15,0x7
     250:	ff010113          	addi	x2,x2,-16
     254:	00812623          	sw	x8,12(x2)
     258:	00160413          	addi	x8,x12,1
     25c:	02540733          	mul	x14,x8,x5
     260:	00852683          	lw	x13,8(x10)
     264:	01052383          	lw	x7,16(x10)
     268:	0105a803          	lw	x16,16(x11)
     26c:	0046a883          	lw	x17,4(x13)
     270:	0005a303          	lw	x6,0(x11)
     274:	00e40633          	add	x12,x8,x14
     278:	00c7f463          	bgeu	x15,x12,280 <.L78>
     27c:	00078613          	mv	x12,x15

00000280 <.L78>:
     280:	00000f37          	lui	x30,0x0
     284:	000005b7          	lui	x11,0x0
     288:	0005a403          	lw	x8,0(x11) # 0 <_Z21hb_tiled_foreach_implIfZL26convolution_backward_inputP11hb_tensor_tS1_S1_P11hb_vector_tS3_EUlvE_JEEvjjT0_8HBTensorIT_Lln1EEPS7_.isra.0>
     28c:	000f2783          	lw	x15,0(x30) # 0 <_Z21hb_tiled_foreach_implIfZL26convolution_backward_inputP11hb_tensor_tS1_S1_P11hb_vector_tS3_EUlvE_JEEvjjT0_8HBTensorIT_Lln1EEPS7_.isra.0>
     290:	00000eb7          	lui	x29,0x0
     294:	00000537          	lui	x10,0x0
     298:	00052683          	lw	x13,0(x10) # 0 <_Z21hb_tiled_foreach_implIfZL26convolution_backward_inputP11hb_tensor_tS1_S1_P11hb_vector_tS3_EUlvE_JEEvjjT0_8HBTensorIT_Lln1EEPS7_.isra.0>
     29c:	000eaf83          	lw	x31,0(x29) # 0 <_Z21hb_tiled_foreach_implIfZL26convolution_backward_inputP11hb_tensor_tS1_S1_P11hb_vector_tS3_EUlvE_JEEvjjT0_8HBTensorIT_Lln1EEPS7_.isra.0>
     2a0:	008787b3          	add	x15,x15,x8
     2a4:	01879413          	slli	x8,x15,0x18
     2a8:	00df8fb3          	add	x31,x31,x13
     2ac:	00000e37          	lui	x28,0x0
     2b0:	3f0006b7          	lui	x13,0x3f000
     2b4:	00d477b3          	and	x15,x8,x13
     2b8:	000e2283          	lw	x5,0(x28) # 0 <_Z21hb_tiled_foreach_implIfZL26convolution_backward_inputP11hb_tensor_tS1_S1_P11hb_vector_tS3_EUlvE_JEEvjjT0_8HBTensorIT_Lln1EEPS7_.isra.0>
     2bc:	00fc0437          	lui	x8,0xfc0
     2c0:	012f9f93          	slli	x31,x31,0x12
     2c4:	008fffb3          	and	x31,x31,x8
     2c8:	01f7e6b3          	or	x13,x15,x31
     2cc:	000407b7          	lui	x15,0x40
     2d0:	ff078413          	addi	x8,x15,-16 # 3fff0 <.L2120+0x32614>
     2d4:	00429293          	slli	x5,x5,0x4
     2d8:	0082ffb3          	and	x31,x5,x8
     2dc:	01f6e2b3          	or	x5,x13,x31
     2e0:	800006b7          	lui	x13,0x80000
     2e4:	00d2e7b3          	or	x15,x5,x13
     2e8:	41001fb7          	lui	x31,0x41001
     2ec:	00271413          	slli	x8,x14,0x2
     2f0:	d0ffa623          	sw	x15,-756(x31) # 41000d0c <.L2120+0x40ff3330>
     2f4:	007402b3          	add	x5,x8,x7
     2f8:	02c77863          	bgeu	x14,x12,328 <.L82>

000002fc <.L83>:
     2fc:	031753b3          	divu	x7,x14,x17
     300:	0002a787          	flw	f15,0(x5)
     304:	00428293          	addi	x5,x5,4
     308:	00170713          	addi	x14,x14,1
     30c:	0263f6b3          	remu	x13,x7,x6
     310:	00269793          	slli	x15,x13,0x2
     314:	00f80433          	add	x8,x16,x15
     318:	00042707          	flw	f14,0(x8) # fc0000 <.L2120+0xfb2624>
     31c:	00e7f053          	fadd.s	f0,f15,f14
     320:	fe02ae27          	fsw	f0,-4(x5)
     324:	fcc76ce3          	bltu	x14,x12,2fc <.L83>

00000328 <.L82>:
     328:	000f2883          	lw	x17,0(x30)
     32c:	000ea303          	lw	x6,0(x29)
     330:	0005a803          	lw	x16,0(x11)
     334:	00052603          	lw	x12,0(x10)
     338:	000e2f03          	lw	x30,0(x28)
     33c:	01088eb3          	add	x29,x17,x16
     340:	00c30e33          	add	x28,x6,x12
     344:	018e9f93          	slli	x31,x29,0x18
     348:	012e1393          	slli	x7,x28,0x12
     34c:	3f000737          	lui	x14,0x3f000
     350:	00fc06b7          	lui	x13,0xfc0
     354:	00040837          	lui	x16,0x40
     358:	00eff2b3          	and	x5,x31,x14
     35c:	00d3f7b3          	and	x15,x7,x13
     360:	004f1413          	slli	x8,x30,0x4
     364:	ff080313          	addi	x6,x16,-16 # 3fff0 <.L2120+0x32614>
     368:	00f2e8b3          	or	x17,x5,x15
     36c:	00647633          	and	x12,x8,x6
     370:	00c8ef33          	or	x30,x17,x12
     374:	c0000eb7          	lui	x29,0xc0000
     378:	01df6e33          	or	x28,x30,x29
     37c:	41001fb7          	lui	x31,0x41001
     380:	d1cfa623          	sw	x28,-756(x31) # 41000d0c <.L2120+0x40ff3330>
     384:	00052383          	lw	x7,0(x10)
     388:	0005a703          	lw	x14,0(x11)
     38c:	00000637          	lui	x12,0x0
     390:	00438293          	addi	x5,x7,4
     394:	00060693          	mv	x13,x12
     398:	005687b3          	add	x15,x13,x5
     39c:	01871413          	slli	x8,x14,0x18
     3a0:	0087e8b3          	or	x17,x15,x8
     3a4:	201c0837          	lui	x16,0x201c0
     3a8:	0108e333          	or	x6,x17,x16
     3ac:	00100f13          	li	x30,1
     3b0:	01e30023          	sb	x30,0(x6)
     3b4:	00052e83          	lw	x29,0(x10)
     3b8:	00700e13          	li	x28,7
     3bc:	03ce8c63          	beq	x29,x28,3f4 <.L112>

000003c0 <.L84>:
     3c0:	00100593          	li	x11,1
     3c4:	0100006f          	j	3d4 <.L97>

000003c8 <.L113>:
     3c8:	00060793          	mv	x15,x12
     3cc:	1407ae2f          	lr.w.aq	x28,(x15)
     3d0:	00be0863          	beq	x28,x11,3e0 <.L96>

000003d4 <.L97>:
     3d4:	00060393          	mv	x7,x12
     3d8:	1003a8af          	lr.w	x17,(x7)
     3dc:	feb896e3          	bne	x17,x11,3c8 <.L113>

000003e0 <.L96>:
     3e0:	00c12403          	lw	x8,12(x2)
     3e4:	0006a023          	sw	x0,0(x13) # fc0000 <.L2120+0xfb2624>
     3e8:	00000513          	li	x10,0
     3ec:	01010113          	addi	x2,x2,16
     3f0:	00008067          	ret

000003f4 <.L112>:
     3f4:	00000fb7          	lui	x31,0x0
     3f8:	00000737          	lui	x14,0x0
     3fc:	004f8393          	addi	x7,x31,4 # 4 <_Z21hb_tiled_foreach_implIfZL26convolution_backward_inputP11hb_tensor_tS1_S1_P11hb_vector_tS3_EUlvE_JEEvjjT0_8HBTensorIT_Lln1EEPS7_.isra.0+0x4>
     400:	01470293          	addi	x5,x14,20 # 14 <.L8>

00000404 <.L80>:
     404:	00038793          	mv	x15,x7

00000408 <.L86>:
     408:	0007c403          	lbu	x8,0(x15)
     40c:	00178793          	addi	x15,x15,1
     410:	0ff47893          	andi	x17,x8,255
     414:	fe0888e3          	beqz	x17,404 <.L80>
     418:	fef298e3          	bne	x5,x15,408 <.L86>
     41c:	0005a803          	lw	x16,0(x11)
     420:	231c0eb7          	lui	x29,0x231c0
     424:	00100f93          	li	x31,1
     428:	01880313          	addi	x6,x16,24 # 201c0018 <.L2120+0x201b263c>
     42c:	00668f33          	add	x30,x13,x6
     430:	01df6e33          	or	x28,x30,x29
     434:	01fe0023          	sb	x31,0(x28)
     438:	00052383          	lw	x7,0(x10)
     43c:	00700713          	li	x14,7
     440:	f8e390e3          	bne	x7,x14,3c0 <.L84>
     444:	0005a403          	lw	x8,0(x11)
     448:	00300793          	li	x15,3
     44c:	06f40e63          	beq	x8,x15,4c8 <.L114>

00000450 <.L92>:
     450:	00100413          	li	x8,1
     454:	0100006f          	j	464 <.L88>

00000458 <.L115>:
     458:	01468e93          	addi	x29,x13,20
     45c:	140ea32f          	lr.w.aq	x6,(x29)
     460:	00830863          	beq	x6,x8,470 <.L93>

00000464 <.L88>:
     464:	01468813          	addi	x16,x13,20
     468:	10082f2f          	lr.w	x30,(x16)
     46c:	fe8f16e3          	bne	x30,x8,458 <.L115>

00000470 <.L93>:
     470:	0006aa23          	sw	x0,20(x13)
     474:	00000793          	li	x15,0
     478:	01000393          	li	x7,16

0000047c <.L94>:
     47c:	00f688b3          	add	x17,x13,x15
     480:	00088223          	sb	x0,4(x17)
     484:	00178793          	addi	x15,x15,1
     488:	fe779ae3          	bne	x15,x7,47c <.L94>
     48c:	0006a023          	sw	x0,0(x13)
     490:	00000713          	li	x14,0
     494:	20000e37          	lui	x28,0x20000
     498:	00100f93          	li	x31,1
     49c:	000402b7          	lui	x5,0x40
     4a0:	00400437          	lui	x8,0x400

000004a4 <.L95>:
     4a4:	0005a803          	lw	x16,0(x11)
     4a8:	00e6e533          	or	x10,x13,x14
     4ac:	00570733          	add	x14,x14,x5
     4b0:	01881f13          	slli	x30,x16,0x18
     4b4:	00af6eb3          	or	x29,x30,x10
     4b8:	01cee333          	or	x6,x29,x28
     4bc:	01f32023          	sw	x31,0(x6)
     4c0:	fe8712e3          	bne	x14,x8,4a4 <.L95>
     4c4:	efdff06f          	j	3c0 <.L84>

000004c8 <.L114>:
     4c8:	000008b7          	lui	x17,0x0
     4cc:	00000337          	lui	x6,0x0
     4d0:	01888813          	addi	x16,x17,24 # 18 <.L8+0x4>
     4d4:	02030f13          	addi	x30,x6,32 # 20 <.L8+0xc>

000004d8 <.L87>:
     4d8:	00080e13          	mv	x28,x16

000004dc <.L89>:
     4dc:	000e4e83          	lbu	x29,0(x28) # 20000000 <.L2120+0x1fff2624>
     4e0:	001e0e13          	addi	x28,x28,1
     4e4:	0ffeff93          	andi	x31,x29,255
     4e8:	fe0f88e3          	beqz	x31,4d8 <.L87>
     4ec:	ffcf18e3          	bne	x30,x28,4dc <.L89>
     4f0:	00068c23          	sb	x0,24(x13)
     4f4:	00068ca3          	sb	x0,25(x13)
     4f8:	00068d23          	sb	x0,26(x13)
     4fc:	00068da3          	sb	x0,27(x13)
     500:	00068e23          	sb	x0,28(x13)
     504:	00068ea3          	sb	x0,29(x13)
     508:	00068f23          	sb	x0,30(x13)
     50c:	00068fa3          	sb	x0,31(x13)
     510:	0006aa23          	sw	x0,20(x13)
     514:	00000713          	li	x14,0
     518:	03fc0437          	lui	x8,0x3fc0
     51c:	20000837          	lui	x16,0x20000
     520:	00100f13          	li	x30,1
     524:	01000eb7          	lui	x29,0x1000
     528:	08000337          	lui	x6,0x8000
     52c:	0080006f          	j	534 <.L91>

00000530 <.L116>:
     530:	00052383          	lw	x7,0(x10)

00000534 <.L91>:
     534:	01239393          	slli	x7,x7,0x12
     538:	00e2e8b3          	or	x17,x5,x14
     53c:	0083f7b3          	and	x15,x7,x8
     540:	0117ee33          	or	x28,x15,x17
     544:	010e6fb3          	or	x31,x28,x16
     548:	01efa023          	sw	x30,0(x31)
     54c:	01d70733          	add	x14,x14,x29
     550:	fe6710e3          	bne	x14,x6,530 <.L116>
     554:	00052503          	lw	x10,0(x10)
     558:	00700293          	li	x5,7
     55c:	ee550ae3          	beq	x10,x5,450 <.L92>
     560:	e61ff06f          	j	3c0 <.L84>

00000564 <_ZN12_GLOBAL__N_110ConvParamsC2EP11hb_tensor_tS2_S2_P11hb_vector_tS4_.isra.0>:
     564:	f4010113          	addi	x2,x2,-192
     568:	0a812c23          	sw	x8,184(x2)
     56c:	00050413          	mv	x8,x10
     570:	00410513          	addi	x10,x2,4
     574:	0a112e23          	sw	x1,188(x2)
     578:	0a912a23          	sw	x9,180(x2)
     57c:	0b212823          	sw	x18,176(x2)
     580:	00068493          	mv	x9,x13
     584:	00060913          	mv	x18,x12
     588:	0b312623          	sw	x19,172(x2)
     58c:	0b412423          	sw	x20,168(x2)
     590:	00078993          	mv	x19,x15
     594:	00070a13          	mv	x20,x14
     598:	00000097          	auipc	x1,0x0
     59c:	000080e7          	jalr	x1 # 598 <_ZN12_GLOBAL__N_110ConvParamsC2EP11hb_tensor_tS2_S2_P11hb_vector_tS4_.isra.0+0x34>
     5a0:	00090593          	mv	x11,x18
     5a4:	03810513          	addi	x10,x2,56
     5a8:	00000097          	auipc	x1,0x0
     5ac:	000080e7          	jalr	x1 # 5a8 <_ZN12_GLOBAL__N_110ConvParamsC2EP11hb_tensor_tS2_S2_P11hb_vector_tS4_.isra.0+0x44>
     5b0:	00048593          	mv	x11,x9
     5b4:	06c10513          	addi	x10,x2,108
     5b8:	00000097          	auipc	x1,0x0
     5bc:	000080e7          	jalr	x1 # 5b8 <_ZN12_GLOBAL__N_110ConvParamsC2EP11hb_tensor_tS2_S2_P11hb_vector_tS4_.isra.0+0x54>
     5c0:	00812783          	lw	x15,8(x2)
     5c4:	12078463          	beqz	x15,6ec <.L146>
     5c8:	01012703          	lw	x14,16(x2)
     5cc:	000a2503          	lw	x10,0(x20)
     5d0:	0009a803          	lw	x16,0(x19)
     5d4:	00072603          	lw	x12,0(x14)
     5d8:	00100693          	li	x13,1
     5dc:	00c42023          	sw	x12,0(x8) # 3fc0000 <.L2120+0x3fb2624>
     5e0:	0af6fc63          	bgeu	x13,x15,698 <.L147>
     5e4:	00472583          	lw	x11,4(x14)
     5e8:	00200093          	li	x1,2
     5ec:	00b42223          	sw	x11,4(x8)
     5f0:	1a178263          	beq	x15,x1,794 <.L148>
     5f4:	00872883          	lw	x17,8(x14)
     5f8:	00300293          	li	x5,3
     5fc:	01142423          	sw	x17,8(x8)
     600:	1e578463          	beq	x15,x5,7e8 <.L149>
     604:	00c72303          	lw	x6,12(x14)
     608:	03c12383          	lw	x7,60(x2)
     60c:	00642623          	sw	x6,12(x8)
     610:	1276f863          	bgeu	x13,x7,740 <.L150>
     614:	04412e03          	lw	x28,68(x2)
     618:	004e2e83          	lw	x29,4(x28)
     61c:	01d42823          	sw	x29,16(x8)
     620:	26138863          	beq	x7,x1,890 <.L151>
     624:	008e2f03          	lw	x30,8(x28)
     628:	01e42a23          	sw	x30,20(x8)
     62c:	2a538c63          	beq	x7,x5,8e4 <.L152>
     630:	00ce2f83          	lw	x31,12(x28)
     634:	07012903          	lw	x18,112(x2)
     638:	01f42c23          	sw	x31,24(x8)
     63c:	2120f063          	bgeu	x1,x18,83c <.L153>
     640:	07812483          	lw	x9,120(x2)
     644:	0084aa03          	lw	x20,8(x9)
     648:	01442e23          	sw	x20,28(x8)
     64c:	2e590663          	beq	x18,x5,938 <.L154>
     650:	00c4a983          	lw	x19,12(x9)
     654:	00082603          	lw	x12,0(x16) # 20000000 <.L2120+0x1fff2624>
     658:	00052703          	lw	x14,0(x10)
     65c:	00482803          	lw	x16,4(x16)
     660:	00452783          	lw	x15,4(x10)
     664:	03342023          	sw	x19,32(x8)
     668:	0bc12083          	lw	x1,188(x2)
     66c:	02c42223          	sw	x12,36(x8)
     670:	03042423          	sw	x16,40(x8)
     674:	02e42623          	sw	x14,44(x8)
     678:	02f42823          	sw	x15,48(x8)
     67c:	0b812403          	lw	x8,184(x2)
     680:	0b412483          	lw	x9,180(x2)
     684:	0b012903          	lw	x18,176(x2)
     688:	0ac12983          	lw	x19,172(x2)
     68c:	0a812a03          	lw	x20,168(x2)
     690:	0c010113          	addi	x2,x2,192
     694:	00008067          	ret

00000698 <.L147>:
     698:	000003b7          	lui	x7,0x0
     69c:	00000e37          	lui	x28,0x0
     6a0:	06f00613          	li	x12,111
     6a4:	00038593          	mv	x11,x7
     6a8:	000e0513          	mv	x10,x28
     6ac:	00000097          	auipc	x1,0x0
     6b0:	000080e7          	jalr	x1 # 6ac <.L147+0x14>
     6b4:	00812583          	lw	x11,8(x2)
     6b8:	00000eb7          	lui	x29,0x0
     6bc:	000e8513          	mv	x10,x29
     6c0:	00000097          	auipc	x1,0x0
     6c4:	000080e7          	jalr	x1 # 6c0 <.L147+0x28>
     6c8:	00000f37          	lui	x30,0x0
     6cc:	000f2f83          	lw	x31,0(x30) # 0 <_Z21hb_tiled_foreach_implIfZL26convolution_backward_inputP11hb_tensor_tS1_S1_P11hb_vector_tS3_EUlvE_JEEvjjT0_8HBTensorIT_Lln1EEPS7_.isra.0>
     6d0:	00000937          	lui	x18,0x0
     6d4:	00092483          	lw	x9,0(x18) # 0 <_Z21hb_tiled_foreach_implIfZL26convolution_backward_inputP11hb_tensor_tS1_S1_P11hb_vector_tS3_EUlvE_JEEvjjT0_8HBTensorIT_Lln1EEPS7_.isra.0>
     6d8:	010f9a13          	slli	x20,x31,0x10
     6dc:	4100f637          	lui	x12,0x4100f
     6e0:	009a09b3          	add	x19,x20,x9
     6e4:	ad362c23          	sw	x19,-1320(x12) # 4100ead8 <.L2120+0x410010fc>

000006e8 <.L130>:
     6e8:	0000006f          	j	6e8 <.L130>

000006ec <.L146>:
     6ec:	00000837          	lui	x16,0x0
     6f0:	000000b7          	lui	x1,0x0
     6f4:	00080593          	mv	x11,x16
     6f8:	06f00613          	li	x12,111
     6fc:	00008513          	mv	x10,x1
     700:	00000097          	auipc	x1,0x0
     704:	000080e7          	jalr	x1 # 700 <.L146+0x14>
     708:	00812583          	lw	x11,8(x2)
     70c:	00000737          	lui	x14,0x0
     710:	00070513          	mv	x10,x14
     714:	00000097          	auipc	x1,0x0
     718:	000080e7          	jalr	x1 # 714 <.L146+0x28>
     71c:	000007b7          	lui	x15,0x0
     720:	0007a403          	lw	x8,0(x15) # 0 <_Z21hb_tiled_foreach_implIfZL26convolution_backward_inputP11hb_tensor_tS1_S1_P11hb_vector_tS3_EUlvE_JEEvjjT0_8HBTensorIT_Lln1EEPS7_.isra.0>
     724:	00000537          	lui	x10,0x0
     728:	00052683          	lw	x13,0(x10) # 0 <_Z21hb_tiled_foreach_implIfZL26convolution_backward_inputP11hb_tensor_tS1_S1_P11hb_vector_tS3_EUlvE_JEEvjjT0_8HBTensorIT_Lln1EEPS7_.isra.0>
     72c:	01041593          	slli	x11,x8,0x10
     730:	4100f2b7          	lui	x5,0x4100f
     734:	00d588b3          	add	x17,x11,x13
     738:	ad12ac23          	sw	x17,-1320(x5) # 4100ead8 <.L2120+0x410010fc>

0000073c <.L128>:
     73c:	0000006f          	j	73c <.L128>

00000740 <.L150>:
     740:	00000737          	lui	x14,0x0
     744:	000007b7          	lui	x15,0x0
     748:	00070593          	mv	x11,x14
     74c:	06f00613          	li	x12,111
     750:	00078513          	mv	x10,x15
     754:	00000097          	auipc	x1,0x0
     758:	000080e7          	jalr	x1 # 754 <.L150+0x14>
     75c:	03c12583          	lw	x11,60(x2)
     760:	00000437          	lui	x8,0x0
     764:	00040513          	mv	x10,x8
     768:	00000097          	auipc	x1,0x0
     76c:	000080e7          	jalr	x1 # 768 <.L150+0x28>
     770:	00000537          	lui	x10,0x0
     774:	00052683          	lw	x13,0(x10) # 0 <_Z21hb_tiled_foreach_implIfZL26convolution_backward_inputP11hb_tensor_tS1_S1_P11hb_vector_tS3_EUlvE_JEEvjjT0_8HBTensorIT_Lln1EEPS7_.isra.0>
     778:	000005b7          	lui	x11,0x0
     77c:	0005a883          	lw	x17,0(x11) # 0 <_Z21hb_tiled_foreach_implIfZL26convolution_backward_inputP11hb_tensor_tS1_S1_P11hb_vector_tS3_EUlvE_JEEvjjT0_8HBTensorIT_Lln1EEPS7_.isra.0>
     780:	01069293          	slli	x5,x13,0x10
     784:	4100f3b7          	lui	x7,0x4100f
     788:	01128333          	add	x6,x5,x17
     78c:	ac63ac23          	sw	x6,-1320(x7) # 4100ead8 <.L2120+0x410010fc>

00000790 <.L136>:
     790:	0000006f          	j	790 <.L136>

00000794 <.L148>:
     794:	000000b7          	lui	x1,0x0
     798:	00000737          	lui	x14,0x0
     79c:	00008593          	mv	x11,x1
     7a0:	06f00613          	li	x12,111
     7a4:	00070513          	mv	x10,x14
     7a8:	00000097          	auipc	x1,0x0
     7ac:	000080e7          	jalr	x1 # 7a8 <.L148+0x14>
     7b0:	00812583          	lw	x11,8(x2)
     7b4:	000007b7          	lui	x15,0x0
     7b8:	00078513          	mv	x10,x15
     7bc:	00000097          	auipc	x1,0x0
     7c0:	000080e7          	jalr	x1 # 7bc <.L148+0x28>
     7c4:	00000437          	lui	x8,0x0
     7c8:	00042503          	lw	x10,0(x8) # 0 <_Z21hb_tiled_foreach_implIfZL26convolution_backward_inputP11hb_tensor_tS1_S1_P11hb_vector_tS3_EUlvE_JEEvjjT0_8HBTensorIT_Lln1EEPS7_.isra.0>
     7cc:	000006b7          	lui	x13,0x0
     7d0:	0006a583          	lw	x11,0(x13) # 0 <_Z21hb_tiled_foreach_implIfZL26convolution_backward_inputP11hb_tensor_tS1_S1_P11hb_vector_tS3_EUlvE_JEEvjjT0_8HBTensorIT_Lln1EEPS7_.isra.0>
     7d4:	01051893          	slli	x17,x10,0x10
     7d8:	4100f337          	lui	x6,0x4100f
     7dc:	00b882b3          	add	x5,x17,x11
     7e0:	ac532c23          	sw	x5,-1320(x6) # 4100ead8 <.L2120+0x410010fc>

000007e4 <.L132>:
     7e4:	0000006f          	j	7e4 <.L132>

000007e8 <.L149>:
     7e8:	00000e37          	lui	x28,0x0
     7ec:	00000eb7          	lui	x29,0x0
     7f0:	06f00613          	li	x12,111
     7f4:	000e0593          	mv	x11,x28
     7f8:	000e8513          	mv	x10,x29
     7fc:	00000097          	auipc	x1,0x0
     800:	000080e7          	jalr	x1 # 7fc <.L149+0x14>
     804:	00812583          	lw	x11,8(x2)
     808:	00000f37          	lui	x30,0x0
     80c:	000f0513          	mv	x10,x30
     810:	00000097          	auipc	x1,0x0
     814:	000080e7          	jalr	x1 # 810 <.L149+0x28>
     818:	00000fb7          	lui	x31,0x0
     81c:	000fa903          	lw	x18,0(x31) # 0 <_Z21hb_tiled_foreach_implIfZL26convolution_backward_inputP11hb_tensor_tS1_S1_P11hb_vector_tS3_EUlvE_JEEvjjT0_8HBTensorIT_Lln1EEPS7_.isra.0>
     820:	000004b7          	lui	x9,0x0
     824:	0004aa03          	lw	x20,0(x9) # 0 <_Z21hb_tiled_foreach_implIfZL26convolution_backward_inputP11hb_tensor_tS1_S1_P11hb_vector_tS3_EUlvE_JEEvjjT0_8HBTensorIT_Lln1EEPS7_.isra.0>
     828:	01091993          	slli	x19,x18,0x10
     82c:	4100f837          	lui	x16,0x4100f
     830:	01498633          	add	x12,x19,x20
     834:	acc82c23          	sw	x12,-1320(x16) # 4100ead8 <.L2120+0x410010fc>

00000838 <.L134>:
     838:	0000006f          	j	838 <.L134>

0000083c <.L153>:
     83c:	000000b7          	lui	x1,0x0
     840:	00000f37          	lui	x30,0x0
     844:	06f00613          	li	x12,111
     848:	00008593          	mv	x11,x1
     84c:	000f0513          	mv	x10,x30
     850:	00000097          	auipc	x1,0x0
     854:	000080e7          	jalr	x1 # 850 <.L153+0x14>
     858:	07012583          	lw	x11,112(x2)
     85c:	00000fb7          	lui	x31,0x0
     860:	000f8513          	mv	x10,x31
     864:	00000937          	lui	x18,0x0
     868:	00000097          	auipc	x1,0x0
     86c:	000080e7          	jalr	x1 # 868 <.L153+0x2c>
     870:	00000a37          	lui	x20,0x0
     874:	00092483          	lw	x9,0(x18) # 0 <_Z21hb_tiled_foreach_implIfZL26convolution_backward_inputP11hb_tensor_tS1_S1_P11hb_vector_tS3_EUlvE_JEEvjjT0_8HBTensorIT_Lln1EEPS7_.isra.0>
     878:	000a2983          	lw	x19,0(x20) # 0 <_Z21hb_tiled_foreach_implIfZL26convolution_backward_inputP11hb_tensor_tS1_S1_P11hb_vector_tS3_EUlvE_JEEvjjT0_8HBTensorIT_Lln1EEPS7_.isra.0>
     87c:	4100f737          	lui	x14,0x4100f
     880:	01049613          	slli	x12,x9,0x10
     884:	01360833          	add	x16,x12,x19
     888:	ad072c23          	sw	x16,-1320(x14) # 4100ead8 <.L2120+0x410010fc>

0000088c <.L142>:
     88c:	0000006f          	j	88c <.L142>

00000890 <.L151>:
     890:	00000eb7          	lui	x29,0x0
     894:	000000b7          	lui	x1,0x0
     898:	06f00613          	li	x12,111
     89c:	000e8593          	mv	x11,x29
     8a0:	00008513          	mv	x10,x1
     8a4:	00000097          	auipc	x1,0x0
     8a8:	000080e7          	jalr	x1 # 8a4 <.L151+0x14>
     8ac:	03c12583          	lw	x11,60(x2)
     8b0:	00000f37          	lui	x30,0x0
     8b4:	000f0513          	mv	x10,x30
     8b8:	00000097          	auipc	x1,0x0
     8bc:	000080e7          	jalr	x1 # 8b8 <.L151+0x28>
     8c0:	00000fb7          	lui	x31,0x0
     8c4:	000fa903          	lw	x18,0(x31) # 0 <_Z21hb_tiled_foreach_implIfZL26convolution_backward_inputP11hb_tensor_tS1_S1_P11hb_vector_tS3_EUlvE_JEEvjjT0_8HBTensorIT_Lln1EEPS7_.isra.0>
     8c8:	000004b7          	lui	x9,0x0
     8cc:	0004aa03          	lw	x20,0(x9) # 0 <_Z21hb_tiled_foreach_implIfZL26convolution_backward_inputP11hb_tensor_tS1_S1_P11hb_vector_tS3_EUlvE_JEEvjjT0_8HBTensorIT_Lln1EEPS7_.isra.0>
     8d0:	01091993          	slli	x19,x18,0x10
     8d4:	4100f837          	lui	x16,0x4100f
     8d8:	01498633          	add	x12,x19,x20
     8dc:	acc82c23          	sw	x12,-1320(x16) # 4100ead8 <.L2120+0x410010fc>

000008e0 <.L138>:
     8e0:	0000006f          	j	8e0 <.L138>

000008e4 <.L152>:
     8e4:	000007b7          	lui	x15,0x0
     8e8:	00000437          	lui	x8,0x0
     8ec:	00078593          	mv	x11,x15
     8f0:	06f00613          	li	x12,111
     8f4:	00040513          	mv	x10,x8
     8f8:	00000097          	auipc	x1,0x0
     8fc:	000080e7          	jalr	x1 # 8f8 <.L152+0x14>
     900:	03c12583          	lw	x11,60(x2)
     904:	00000537          	lui	x10,0x0
     908:	00050513          	mv	x10,x10
     90c:	00000097          	auipc	x1,0x0
     910:	000080e7          	jalr	x1 # 90c <.L152+0x28>
     914:	000006b7          	lui	x13,0x0
     918:	0006a583          	lw	x11,0(x13) # 0 <_Z21hb_tiled_foreach_implIfZL26convolution_backward_inputP11hb_tensor_tS1_S1_P11hb_vector_tS3_EUlvE_JEEvjjT0_8HBTensorIT_Lln1EEPS7_.isra.0>
     91c:	000008b7          	lui	x17,0x0
     920:	0008a283          	lw	x5,0(x17) # 0 <_Z21hb_tiled_foreach_implIfZL26convolution_backward_inputP11hb_tensor_tS1_S1_P11hb_vector_tS3_EUlvE_JEEvjjT0_8HBTensorIT_Lln1EEPS7_.isra.0>
     924:	01059313          	slli	x6,x11,0x10
     928:	4100fe37          	lui	x28,0x4100f
     92c:	005303b3          	add	x7,x6,x5
     930:	ac7e2c23          	sw	x7,-1320(x28) # 4100ead8 <.L2120+0x410010fc>

00000934 <.L140>:
     934:	0000006f          	j	934 <.L140>

00000938 <.L154>:
     938:	00000437          	lui	x8,0x0
     93c:	00000537          	lui	x10,0x0
     940:	06f00613          	li	x12,111
     944:	00040593          	mv	x11,x8
     948:	00050513          	mv	x10,x10
     94c:	00000097          	auipc	x1,0x0
     950:	000080e7          	jalr	x1 # 94c <.L154+0x14>
     954:	07012583          	lw	x11,112(x2)
     958:	000006b7          	lui	x13,0x0
     95c:	00068513          	mv	x10,x13
     960:	00000097          	auipc	x1,0x0
     964:	000080e7          	jalr	x1 # 960 <.L154+0x28>
     968:	000005b7          	lui	x11,0x0
     96c:	0005a883          	lw	x17,0(x11) # 0 <_Z21hb_tiled_foreach_implIfZL26convolution_backward_inputP11hb_tensor_tS1_S1_P11hb_vector_tS3_EUlvE_JEEvjjT0_8HBTensorIT_Lln1EEPS7_.isra.0>
     970:	000002b7          	lui	x5,0x0
     974:	0002a303          	lw	x6,0(x5) # 0 <_Z21hb_tiled_foreach_implIfZL26convolution_backward_inputP11hb_tensor_tS1_S1_P11hb_vector_tS3_EUlvE_JEEvjjT0_8HBTensorIT_Lln1EEPS7_.isra.0>
     978:	01089393          	slli	x7,x17,0x10
     97c:	4100feb7          	lui	x29,0x4100f
     980:	00638e33          	add	x28,x7,x6
     984:	adceac23          	sw	x28,-1320(x29) # 4100ead8 <.L2120+0x410010fc>

00000988 <.L144>:
     988:	0000006f          	j	988 <.L144>

0000098c <_ZL19convolution_forwardP11hb_tensor_tS0_S0_P11hb_vector_tS2_.isra.0>:
     98c:	dc010113          	addi	x2,x2,-576
     990:	00050793          	mv	x15,x10
     994:	22912a23          	sw	x9,564(x2)
     998:	09c10513          	addi	x10,x2,156
     99c:	00058493          	mv	x9,x11
     9a0:	00078593          	mv	x11,x15
     9a4:	22112e23          	sw	x1,572(x2)
     9a8:	22812c23          	sw	x8,568(x2)
     9ac:	23212823          	sw	x18,560(x2)
     9b0:	00060413          	mv	x8,x12
     9b4:	00070913          	mv	x18,x14
     9b8:	23312623          	sw	x19,556(x2)
     9bc:	23412423          	sw	x20,552(x2)
     9c0:	00068993          	mv	x19,x13
     9c4:	23512223          	sw	x21,548(x2)
     9c8:	23612023          	sw	x22,544(x2)
     9cc:	21712e23          	sw	x23,540(x2)
     9d0:	21812c23          	sw	x24,536(x2)
     9d4:	21912a23          	sw	x25,532(x2)
     9d8:	21a12823          	sw	x26,528(x2)
     9dc:	21b12623          	sw	x27,524(x2)
     9e0:	00000097          	auipc	x1,0x0
     9e4:	000080e7          	jalr	x1 # 9e0 <_ZL19convolution_forwardP11hb_tensor_tS0_S0_P11hb_vector_tS2_.isra.0+0x54>
     9e8:	00048593          	mv	x11,x9
     9ec:	0d010513          	addi	x10,x2,208
     9f0:	00000097          	auipc	x1,0x0
     9f4:	000080e7          	jalr	x1 # 9f0 <_ZL19convolution_forwardP11hb_tensor_tS0_S0_P11hb_vector_tS2_.isra.0+0x64>
     9f8:	00040593          	mv	x11,x8
     9fc:	10410513          	addi	x10,x2,260
     a00:	00000097          	auipc	x1,0x0
     a04:	000080e7          	jalr	x1 # a00 <_ZL19convolution_forwardP11hb_tensor_tS0_S0_P11hb_vector_tS2_.isra.0+0x74>
     a08:	0a012283          	lw	x5,160(x2)
     a0c:	10028063          	beqz	x5,b0c <.L300>
     a10:	00100713          	li	x14,1
     a14:	0a577263          	bgeu	x14,x5,ab8 <.L301>
     a18:	00200693          	li	x13,2
     a1c:	18d28c63          	beq	x5,x13,bb4 <.L302>
     a20:	00300613          	li	x12,3
     a24:	1ec28263          	beq	x5,x12,c08 <.L303>
     a28:	0d412083          	lw	x1,212(x2)
     a2c:	12177a63          	bgeu	x14,x1,b60 <.L304>
     a30:	28d08063          	beq	x1,x13,cb0 <.L305>
     a34:	2cc08863          	beq	x1,x12,d04 <.L306>
     a38:	10812303          	lw	x6,264(x2)
     a3c:	2266f063          	bgeu	x13,x6,c5c <.L307>
     a40:	34c306e3          	beq	x6,x12,158c <.L308>
     a44:	00000537          	lui	x10,0x0
     a48:	11012383          	lw	x7,272(x2)
     a4c:	00052583          	lw	x11,0(x10) # 0 <_Z21hb_tiled_foreach_implIfZL26convolution_backward_inputP11hb_tensor_tS1_S1_P11hb_vector_tS3_EUlvE_JEEvjjT0_8HBTensorIT_Lln1EEPS7_.isra.0>
     a50:	0083ab03          	lw	x22,8(x7)
     a54:	00c3ac83          	lw	x25,12(x7)
     a58:	30059063          	bnez	x11,d58 <.L174>
     a5c:	00500813          	li	x16,5
     a60:	01686463          	bltu	x16,x22,a68 <.L175>
     a64:	2f987a63          	bgeu	x16,x25,d58 <.L174>

00000a68 <.L175>:
     a68:	000006b7          	lui	x13,0x0
     a6c:	000005b7          	lui	x11,0x0
     a70:	02b00613          	li	x12,43
     a74:	00058593          	mv	x11,x11
     a78:	00068513          	mv	x10,x13
     a7c:	00000097          	auipc	x1,0x0
     a80:	000080e7          	jalr	x1 # a7c <.L175+0x14>
     a84:	00000637          	lui	x12,0x0
     a88:	00060513          	mv	x10,x12
     a8c:	00000d37          	lui	x26,0x0
     a90:	00000097          	auipc	x1,0x0
     a94:	000080e7          	jalr	x1 # a90 <.L175+0x28>
     a98:	00000b37          	lui	x22,0x0
     a9c:	000d2a83          	lw	x21,0(x26) # 0 <_Z21hb_tiled_foreach_implIfZL26convolution_backward_inputP11hb_tensor_tS1_S1_P11hb_vector_tS3_EUlvE_JEEvjjT0_8HBTensorIT_Lln1EEPS7_.isra.0>
     aa0:	000b2b83          	lw	x23,0(x22) # 0 <_Z21hb_tiled_foreach_implIfZL26convolution_backward_inputP11hb_tensor_tS1_S1_P11hb_vector_tS3_EUlvE_JEEvjjT0_8HBTensorIT_Lln1EEPS7_.isra.0>
     aa4:	4100f9b7          	lui	x19,0x4100f
     aa8:	010a9c13          	slli	x24,x21,0x10
     aac:	017c0cb3          	add	x25,x24,x23
     ab0:	ad99ac23          	sw	x25,-1320(x19) # 4100ead8 <.L2120+0x410010fc>

00000ab4 <.L176>:
     ab4:	0000006f          	j	ab4 <.L176>

00000ab8 <.L301>:
     ab8:	000000b7          	lui	x1,0x0
     abc:	00000f37          	lui	x30,0x0
     ac0:	00008593          	mv	x11,x1
     ac4:	06f00613          	li	x12,111
     ac8:	000f0513          	mv	x10,x30
     acc:	00000097          	auipc	x1,0x0
     ad0:	000080e7          	jalr	x1 # acc <.L301+0x14>
     ad4:	0a012583          	lw	x11,160(x2)
     ad8:	00000fb7          	lui	x31,0x0
     adc:	000f8513          	mv	x10,x31
     ae0:	00000097          	auipc	x1,0x0
     ae4:	000080e7          	jalr	x1 # ae0 <.L301+0x28>
     ae8:	00000737          	lui	x14,0x0
     aec:	00072583          	lw	x11,0(x14) # 0 <_Z21hb_tiled_foreach_implIfZL26convolution_backward_inputP11hb_tensor_tS1_S1_P11hb_vector_tS3_EUlvE_JEEvjjT0_8HBTensorIT_Lln1EEPS7_.isra.0>
     af0:	000006b7          	lui	x13,0x0
     af4:	0006ad03          	lw	x26,0(x13) # 0 <_Z21hb_tiled_foreach_implIfZL26convolution_backward_inputP11hb_tensor_tS1_S1_P11hb_vector_tS3_EUlvE_JEEvjjT0_8HBTensorIT_Lln1EEPS7_.isra.0>
     af8:	01059a93          	slli	x21,x11,0x10
     afc:	4100fbb7          	lui	x23,0x4100f
     b00:	01aa8b33          	add	x22,x21,x26
     b04:	ad6bac23          	sw	x22,-1320(x23) # 4100ead8 <.L2120+0x410010fc>

00000b08 <.L159>:
     b08:	0000006f          	j	b08 <.L159>

00000b0c <.L300>:
     b0c:	00000c37          	lui	x24,0x0
     b10:	00000cb7          	lui	x25,0x0
     b14:	06f00613          	li	x12,111
     b18:	000c0593          	mv	x11,x24
     b1c:	000c8513          	mv	x10,x25
     b20:	00000097          	auipc	x1,0x0
     b24:	000080e7          	jalr	x1 # b20 <.L300+0x14>
     b28:	0a012583          	lw	x11,160(x2)
     b2c:	00000637          	lui	x12,0x0
     b30:	00060513          	mv	x10,x12
     b34:	00000097          	auipc	x1,0x0
     b38:	000080e7          	jalr	x1 # b34 <.L300+0x28>
     b3c:	000009b7          	lui	x19,0x0
     b40:	0009ad83          	lw	x27,0(x19) # 0 <_Z21hb_tiled_foreach_implIfZL26convolution_backward_inputP11hb_tensor_tS1_S1_P11hb_vector_tS3_EUlvE_JEEvjjT0_8HBTensorIT_Lln1EEPS7_.isra.0>
     b44:	000002b7          	lui	x5,0x0
     b48:	0002a383          	lw	x7,0(x5) # 0 <_Z21hb_tiled_foreach_implIfZL26convolution_backward_inputP11hb_tensor_tS1_S1_P11hb_vector_tS3_EUlvE_JEEvjjT0_8HBTensorIT_Lln1EEPS7_.isra.0>
     b4c:	010d9913          	slli	x18,x27,0x10
     b50:	4100fe37          	lui	x28,0x4100f
     b54:	00790eb3          	add	x29,x18,x7
     b58:	adde2c23          	sw	x29,-1320(x28) # 4100ead8 <.L2120+0x410010fc>

00000b5c <.L157>:
     b5c:	0000006f          	j	b5c <.L157>

00000b60 <.L304>:
     b60:	000000b7          	lui	x1,0x0
     b64:	00000437          	lui	x8,0x0
     b68:	00008593          	mv	x11,x1
     b6c:	06f00613          	li	x12,111
     b70:	00040513          	mv	x10,x8
     b74:	00000097          	auipc	x1,0x0
     b78:	000080e7          	jalr	x1 # b74 <.L304+0x14>
     b7c:	0d412583          	lw	x11,212(x2)
     b80:	00000a37          	lui	x20,0x0
     b84:	000a0513          	mv	x10,x20
     b88:	00000097          	auipc	x1,0x0
     b8c:	000080e7          	jalr	x1 # b88 <.L304+0x28>
     b90:	00000f37          	lui	x30,0x0
     b94:	000f2f83          	lw	x31,0(x30) # 0 <_Z21hb_tiled_foreach_implIfZL26convolution_backward_inputP11hb_tensor_tS1_S1_P11hb_vector_tS3_EUlvE_JEEvjjT0_8HBTensorIT_Lln1EEPS7_.isra.0>
     b98:	00000737          	lui	x14,0x0
     b9c:	00072583          	lw	x11,0(x14) # 0 <_Z21hb_tiled_foreach_implIfZL26convolution_backward_inputP11hb_tensor_tS1_S1_P11hb_vector_tS3_EUlvE_JEEvjjT0_8HBTensorIT_Lln1EEPS7_.isra.0>
     ba0:	010f9693          	slli	x13,x31,0x10
     ba4:	4100fab7          	lui	x21,0x4100f
     ba8:	00b68d33          	add	x26,x13,x11
     bac:	adaaac23          	sw	x26,-1320(x21) # 4100ead8 <.L2120+0x410010fc>

00000bb0 <.L165>:
     bb0:	0000006f          	j	bb0 <.L165>

00000bb4 <.L302>:
     bb4:	00000eb7          	lui	x29,0x0
     bb8:	00000e37          	lui	x28,0x0
     bbc:	000e8593          	mv	x11,x29
     bc0:	06f00613          	li	x12,111
     bc4:	000e0513          	mv	x10,x28
     bc8:	00000097          	auipc	x1,0x0
     bcc:	000080e7          	jalr	x1 # bc8 <.L302+0x14>
     bd0:	0a012583          	lw	x11,160(x2)
     bd4:	000004b7          	lui	x9,0x0
     bd8:	00048513          	mv	x10,x9
     bdc:	00000097          	auipc	x1,0x0
     be0:	000080e7          	jalr	x1 # bdc <.L302+0x28>
     be4:	000007b7          	lui	x15,0x0
     be8:	0007a303          	lw	x6,0(x15) # 0 <_Z21hb_tiled_foreach_implIfZL26convolution_backward_inputP11hb_tensor_tS1_S1_P11hb_vector_tS3_EUlvE_JEEvjjT0_8HBTensorIT_Lln1EEPS7_.isra.0>
     bec:	00000837          	lui	x16,0x0
     bf0:	00082503          	lw	x10,0(x16) # 0 <_Z21hb_tiled_foreach_implIfZL26convolution_backward_inputP11hb_tensor_tS1_S1_P11hb_vector_tS3_EUlvE_JEEvjjT0_8HBTensorIT_Lln1EEPS7_.isra.0>
     bf4:	01031893          	slli	x17,x6,0x10
     bf8:	4100fa37          	lui	x20,0x4100f
     bfc:	00a88433          	add	x8,x17,x10
     c00:	ac8a2c23          	sw	x8,-1320(x20) # 4100ead8 <.L2120+0x410010fc>

00000c04 <.L161>:
     c04:	0000006f          	j	c04 <.L161>

00000c08 <.L303>:
     c08:	00000b37          	lui	x22,0x0
     c0c:	00000bb7          	lui	x23,0x0
     c10:	06f00613          	li	x12,111
     c14:	000b0593          	mv	x11,x22
     c18:	000b8513          	mv	x10,x23
     c1c:	00000097          	auipc	x1,0x0
     c20:	000080e7          	jalr	x1 # c1c <.L303+0x14>
     c24:	0a012583          	lw	x11,160(x2)
     c28:	00000637          	lui	x12,0x0
     c2c:	00060513          	mv	x10,x12
     c30:	00000c37          	lui	x24,0x0
     c34:	00000097          	auipc	x1,0x0
     c38:	000080e7          	jalr	x1 # c34 <.L303+0x2c>
     c3c:	000009b7          	lui	x19,0x0
     c40:	000c2c83          	lw	x25,0(x24) # 0 <_Z21hb_tiled_foreach_implIfZL26convolution_backward_inputP11hb_tensor_tS1_S1_P11hb_vector_tS3_EUlvE_JEEvjjT0_8HBTensorIT_Lln1EEPS7_.isra.0>
     c44:	0009ad83          	lw	x27,0(x19) # 0 <_Z21hb_tiled_foreach_implIfZL26convolution_backward_inputP11hb_tensor_tS1_S1_P11hb_vector_tS3_EUlvE_JEEvjjT0_8HBTensorIT_Lln1EEPS7_.isra.0>
     c48:	4100f937          	lui	x18,0x4100f
     c4c:	010c9293          	slli	x5,x25,0x10
     c50:	01b283b3          	add	x7,x5,x27
     c54:	ac792c23          	sw	x7,-1320(x18) # 4100ead8 <.L2120+0x410010fc>

00000c58 <.L163>:
     c58:	0000006f          	j	c58 <.L163>

00000c5c <.L307>:
     c5c:	000000b7          	lui	x1,0x0
     c60:	00000537          	lui	x10,0x0
     c64:	00050593          	mv	x11,x10
     c68:	06f00613          	li	x12,111
     c6c:	00008513          	mv	x10,x1
     c70:	00000097          	auipc	x1,0x0
     c74:	000080e7          	jalr	x1 # c70 <.L307+0x14>
     c78:	10812583          	lw	x11,264(x2)
     c7c:	000008b7          	lui	x17,0x0
     c80:	00088513          	mv	x10,x17
     c84:	00000097          	auipc	x1,0x0
     c88:	000080e7          	jalr	x1 # c84 <.L307+0x28>
     c8c:	00000437          	lui	x8,0x0
     c90:	00042a03          	lw	x20,0(x8) # 0 <_Z21hb_tiled_foreach_implIfZL26convolution_backward_inputP11hb_tensor_tS1_S1_P11hb_vector_tS3_EUlvE_JEEvjjT0_8HBTensorIT_Lln1EEPS7_.isra.0>
     c94:	00000f37          	lui	x30,0x0
     c98:	000f2703          	lw	x14,0(x30) # 0 <_Z21hb_tiled_foreach_implIfZL26convolution_backward_inputP11hb_tensor_tS1_S1_P11hb_vector_tS3_EUlvE_JEEvjjT0_8HBTensorIT_Lln1EEPS7_.isra.0>
     c9c:	010a1f93          	slli	x31,x20,0x10
     ca0:	4100f6b7          	lui	x13,0x4100f
     ca4:	00ef85b3          	add	x11,x31,x14
     ca8:	acb6ac23          	sw	x11,-1320(x13) # 4100ead8 <.L2120+0x410010fc>

00000cac <.L171>:
     cac:	0000006f          	j	cac <.L171>

00000cb0 <.L305>:
     cb0:	000003b7          	lui	x7,0x0
     cb4:	00000937          	lui	x18,0x0
     cb8:	00038593          	mv	x11,x7
     cbc:	06f00613          	li	x12,111
     cc0:	00090513          	mv	x10,x18
     cc4:	00000097          	auipc	x1,0x0
     cc8:	000080e7          	jalr	x1 # cc4 <.L305+0x14>
     ccc:	0d412583          	lw	x11,212(x2)
     cd0:	00000eb7          	lui	x29,0x0
     cd4:	000e8513          	mv	x10,x29
     cd8:	00000097          	auipc	x1,0x0
     cdc:	000080e7          	jalr	x1 # cd8 <.L305+0x28>
     ce0:	00000e37          	lui	x28,0x0
     ce4:	000e2483          	lw	x9,0(x28) # 0 <_Z21hb_tiled_foreach_implIfZL26convolution_backward_inputP11hb_tensor_tS1_S1_P11hb_vector_tS3_EUlvE_JEEvjjT0_8HBTensorIT_Lln1EEPS7_.isra.0>
     ce8:	000007b7          	lui	x15,0x0
     cec:	0007a303          	lw	x6,0(x15) # 0 <_Z21hb_tiled_foreach_implIfZL26convolution_backward_inputP11hb_tensor_tS1_S1_P11hb_vector_tS3_EUlvE_JEEvjjT0_8HBTensorIT_Lln1EEPS7_.isra.0>
     cf0:	01049813          	slli	x16,x9,0x10
     cf4:	4100f8b7          	lui	x17,0x4100f
     cf8:	00680533          	add	x10,x16,x6
     cfc:	aca8ac23          	sw	x10,-1320(x17) # 4100ead8 <.L2120+0x410010fc>

00000d00 <.L167>:
     d00:	0000006f          	j	d00 <.L167>

00000d04 <.L306>:
     d04:	00000d37          	lui	x26,0x0
     d08:	00000ab7          	lui	x21,0x0
     d0c:	06f00613          	li	x12,111
     d10:	000d0593          	mv	x11,x26
     d14:	000a8513          	mv	x10,x21
     d18:	00000097          	auipc	x1,0x0
     d1c:	000080e7          	jalr	x1 # d18 <.L306+0x14>
     d20:	0d412583          	lw	x11,212(x2)
     d24:	00000637          	lui	x12,0x0
     d28:	00060513          	mv	x10,x12
     d2c:	00000b37          	lui	x22,0x0
     d30:	00000097          	auipc	x1,0x0
     d34:	000080e7          	jalr	x1 # d30 <.L306+0x2c>
     d38:	00000c37          	lui	x24,0x0
     d3c:	000b2b83          	lw	x23,0(x22) # 0 <_Z21hb_tiled_foreach_implIfZL26convolution_backward_inputP11hb_tensor_tS1_S1_P11hb_vector_tS3_EUlvE_JEEvjjT0_8HBTensorIT_Lln1EEPS7_.isra.0>
     d40:	000c2c83          	lw	x25,0(x24) # 0 <_Z21hb_tiled_foreach_implIfZL26convolution_backward_inputP11hb_tensor_tS1_S1_P11hb_vector_tS3_EUlvE_JEEvjjT0_8HBTensorIT_Lln1EEPS7_.isra.0>
     d44:	4100f2b7          	lui	x5,0x4100f
     d48:	010b9993          	slli	x19,x23,0x10
     d4c:	01998db3          	add	x27,x19,x25
     d50:	adb2ac23          	sw	x27,-1320(x5) # 4100ead8 <.L2120+0x410010fc>

00000d54 <.L169>:
     d54:	0000006f          	j	d54 <.L169>

00000d58 <.L174>:
     d58:	000008b7          	lui	x17,0x0
     d5c:	00000ab7          	lui	x21,0x0
     d60:	00000c37          	lui	x24,0x0
     d64:	00000db7          	lui	x27,0x0
     d68:	0008aa03          	lw	x20,0(x17) # 0 <_Z21hb_tiled_foreach_implIfZL26convolution_backward_inputP11hb_tensor_tS1_S1_P11hb_vector_tS3_EUlvE_JEEvjjT0_8HBTensorIT_Lln1EEPS7_.isra.0>
     d6c:	000aab83          	lw	x23,0(x21) # 0 <_Z21hb_tiled_foreach_implIfZL26convolution_backward_inputP11hb_tensor_tS1_S1_P11hb_vector_tS3_EUlvE_JEEvjjT0_8HBTensorIT_Lln1EEPS7_.isra.0>
     d70:	000c2d03          	lw	x26,0(x24) # 0 <_Z21hb_tiled_foreach_implIfZL26convolution_backward_inputP11hb_tensor_tS1_S1_P11hb_vector_tS3_EUlvE_JEEvjjT0_8HBTensorIT_Lln1EEPS7_.isra.0>
     d74:	000dae03          	lw	x28,0(x27) # 0 <_Z21hb_tiled_foreach_implIfZL26convolution_backward_inputP11hb_tensor_tS1_S1_P11hb_vector_tS3_EUlvE_JEEvjjT0_8HBTensorIT_Lln1EEPS7_.isra.0>
     d78:	00000eb7          	lui	x29,0x0
     d7c:	0a812403          	lw	x8,168(x2)
     d80:	000eaf03          	lw	x30,0(x29) # 0 <_Z21hb_tiled_foreach_implIfZL26convolution_backward_inputP11hb_tensor_tS1_S1_P11hb_vector_tS3_EUlvE_JEEvjjT0_8HBTensorIT_Lln1EEPS7_.isra.0>
     d84:	0dc12503          	lw	x10,220(x2)
     d88:	0009a983          	lw	x19,0(x19)
     d8c:	00092903          	lw	x18,0(x18) # 0 <_Z21hb_tiled_foreach_implIfZL26convolution_backward_inputP11hb_tensor_tS1_S1_P11hb_vector_tS3_EUlvE_JEEvjjT0_8HBTensorIT_Lln1EEPS7_.isra.0>
     d90:	017a0fb3          	add	x31,x20,x23
     d94:	01cd04b3          	add	x9,x26,x28
     d98:	018f9793          	slli	x15,x31,0x18
     d9c:	01249293          	slli	x5,x9,0x12
     da0:	3f000737          	lui	x14,0x3f000
     da4:	00fc06b7          	lui	x13,0xfc0
     da8:	000405b7          	lui	x11,0x40
     dac:	00042a03          	lw	x20,0(x8)
     db0:	00442d03          	lw	x26,4(x8)
     db4:	00842d83          	lw	x27,8(x8)
     db8:	00c42e03          	lw	x28,12(x8)
     dbc:	00e7f0b3          	and	x1,x15,x14
     dc0:	00452e83          	lw	x29,4(x10) # 4 <_Z21hb_tiled_foreach_implIfZL26convolution_backward_inputP11hb_tensor_tS1_S1_P11hb_vector_tS3_EUlvE_JEEvjjT0_8HBTensorIT_Lln1EEPS7_.isra.0+0x4>
     dc4:	00c52f83          	lw	x31,12(x10)
     dc8:	00092483          	lw	x9,0(x18)
     dcc:	0009a783          	lw	x15,0(x19)
     dd0:	00d2f333          	and	x6,x5,x13
     dd4:	004f1393          	slli	x7,x30,0x4
     dd8:	0049a283          	lw	x5,4(x19)
     ddc:	00852f03          	lw	x30,8(x10)
     de0:	ff058813          	addi	x16,x11,-16 # 3fff0 <.L2120+0x32614>
     de4:	0060e633          	or	x12,x1,x6
     de8:	0103f8b3          	and	x17,x7,x16
     dec:	01166ab3          	or	x21,x12,x17
     df0:	80000bb7          	lui	x23,0x80000
     df4:	09412423          	sw	x20,136(x2)
     df8:	017aec33          	or	x24,x21,x23
     dfc:	07a12a23          	sw	x26,116(x2)
     e00:	05b12a23          	sw	x27,84(x2)
     e04:	05c12023          	sw	x28,64(x2)
     e08:	07d12c23          	sw	x29,120(x2)
     e0c:	01e12623          	sw	x30,12(x2)
     e10:	01f12823          	sw	x31,16(x2)
     e14:	02912e23          	sw	x9,60(x2)
     e18:	06f12823          	sw	x15,112(x2)
     e1c:	02512823          	sw	x5,48(x2)
     e20:	41001737          	lui	x14,0x41001
     e24:	00492403          	lw	x8,4(x18)
     e28:	d1872623          	sw	x24,-756(x14) # 41000d0c <.L2120+0x40ff3330>
     e2c:	520a0863          	beqz	x20,135c <.L181>
     e30:	07412083          	lw	x1,116(x2)
     e34:	03012903          	lw	x18,48(x2)
     e38:	408c8333          	sub	x6,x25,x8
     e3c:	0070d693          	srli	x13,x1,0x7
     e40:	002c9513          	slli	x10,x25,0x2
     e44:	00168393          	addi	x7,x13,1 # fc0001 <.L2120+0xfb2625>
     e48:	00000993          	li	x19,0
     e4c:	41230633          	sub	x12,x6,x18
     e50:	fffc8d13          	addi	x26,x25,-1
     e54:	000b0b93          	mv	x23,x22
     e58:	08712623          	sw	x7,140(x2)
     e5c:	000c8b13          	mv	x22,x25
     e60:	06a12623          	sw	x10,108(x2)
     e64:	02c12c23          	sw	x12,56(x2)
     e68:	00040c13          	mv	x24,x8
     e6c:	00098c93          	mv	x25,x19

00000e70 <.L182>:
     e70:	07812803          	lw	x16,120(x2)
     e74:	4c080e63          	beqz	x16,1350 <.L186>
     e78:	000008b7          	lui	x17,0x0
     e7c:	0008aa03          	lw	x20,0(x17) # 0 <_Z21hb_tiled_foreach_implIfZL26convolution_backward_inputP11hb_tensor_tS1_S1_P11hb_vector_tS3_EUlvE_JEEvjjT0_8HBTensorIT_Lln1EEPS7_.isra.0>
     e80:	08c12d83          	lw	x27,140(x2)
     e84:	07412f03          	lw	x30,116(x2)
     e88:	07fa7a93          	andi	x21,x20,127
     e8c:	035d8e33          	mul	x28,x27,x21
     e90:	05412623          	sw	x20,76(x2)
     e94:	09512223          	sw	x21,132(x2)
     e98:	01cd8eb3          	add	x29,x27,x28
     e9c:	09c12023          	sw	x28,128(x2)
     ea0:	07d12e23          	sw	x29,124(x2)
     ea4:	01df7463          	bgeu	x30,x29,eac <.L183>
     ea8:	07e12e23          	sw	x30,124(x2)

00000eac <.L183>:
     eac:	03012483          	lw	x9,48(x2)
     eb0:	00000f93          	li	x31,0
     eb4:	000d0a93          	mv	x21,x26
     eb8:	409b0433          	sub	x8,x22,x9
     ebc:	03612423          	sw	x22,40(x2)
     ec0:	02812a23          	sw	x8,52(x2)
     ec4:	000f8d13          	mv	x26,x31

00000ec8 <.L187>:
     ec8:	07412283          	lw	x5,116(x2)
     ecc:	07f00793          	li	x15,127
     ed0:	6857f063          	bgeu	x15,x5,1550 <.L184>
     ed4:	08012603          	lw	x12,128(x2)
     ed8:	07c12583          	lw	x11,124(x2)
     edc:	44b67c63          	bgeu	x12,x11,1334 <.L188>
     ee0:	08012883          	lw	x17,128(x2)
     ee4:	07c12803          	lw	x16,124(x2)
     ee8:	00100a13          	li	x20,1
     eec:	00188d93          	addi	x27,x17,1
     ef0:	07012023          	sw	x16,96(x2)
     ef4:	03112023          	sw	x17,32(x2)
     ef8:	06012223          	sw	x0,100(x2)
     efc:	05412823          	sw	x20,80(x2)
     f00:	05b12c23          	sw	x27,88(x2)

00000f04 <.L185>:
     f04:	10c12e03          	lw	x28,268(x2)
     f08:	02012483          	lw	x9,32(x2)
     f0c:	11412e83          	lw	x29,276(x2)
     f10:	000e2f03          	lw	x30,0(x28)
     f14:	004e2f83          	lw	x31,4(x28)
     f18:	07d12423          	sw	x29,104(x2)
     f1c:	03e48433          	mul	x8,x9,x30
     f20:	05e12e23          	sw	x30,92(x2)
     f24:	03fd07b3          	mul	x15,x26,x31
     f28:	008782b3          	add	x5,x15,x8
     f2c:	04512423          	sw	x5,72(x2)

00000f30 <.L199>:
     f30:	04812603          	lw	x12,72(x2)
     f34:	13810693          	addi	x13,x2,312
     f38:	00000913          	li	x18,0
     f3c:	040b8263          	beqz	x23,f80 <.L193>
     f40:	06c12083          	lw	x1,108(x2)
     f44:	06812303          	lw	x6,104(x2)

00000f48 <.L194>:
     f48:	020b0463          	beqz	x22,f70 <.L195>
     f4c:	00261713          	slli	x14,x12,0x2
     f50:	00e309b3          	add	x19,x6,x14
     f54:	00d083b3          	add	x7,x1,x13
     f58:	00068513          	mv	x10,x13

00000f5c <.L196>:
     f5c:	0009a787          	flw	f15,0(x19)
     f60:	00450513          	addi	x10,x10,4
     f64:	00498993          	addi	x19,x19,4
     f68:	fef52e27          	fsw	f15,-4(x10)
     f6c:	fea398e3          	bne	x7,x10,f5c <.L196>

00000f70 <.L195>:
     f70:	00190913          	addi	x18,x18,1
     f74:	01468693          	addi	x13,x13,20
     f78:	01660633          	add	x12,x12,x22
     f7c:	fd7916e3          	bne	x18,x23,f48 <.L194>

00000f80 <.L193>:
     f80:	05412583          	lw	x11,84(x2)
     f84:	05012803          	lw	x16,80(x2)
     f88:	3905e263          	bltu	x11,x16,130c <.L309>
     f8c:	05412f03          	lw	x30,84(x2)
     f90:	05012f83          	lw	x31,80(x2)
     f94:	06412783          	lw	x15,100(x2)
     f98:	03ff54b3          	divu	x9,x30,x31
     f9c:	00148413          	addi	x8,x9,1 # 1 <_Z21hb_tiled_foreach_implIfZL26convolution_backward_inputP11hb_tensor_tS1_S1_P11hb_vector_tS3_EUlvE_JEEvjjT0_8HBTensorIT_Lln1EEPS7_.isra.0+0x1>
     fa0:	02f40eb3          	mul	x29,x8,x15
     fa4:	01d402b3          	add	x5,x8,x29
     fa8:	02512623          	sw	x5,44(x2)
     fac:	005f7463          	bgeu	x30,x5,fb4 <.L197>
     fb0:	03e12623          	sw	x30,44(x2)

00000fb4 <.L197>:
     fb4:	02c12303          	lw	x6,44(x2)
     fb8:	00100093          	li	x1,1
     fbc:	04112223          	sw	x1,68(x2)
     fc0:	001e8413          	addi	x8,x29,1
     fc4:	306efe63          	bgeu	x29,x6,12e0 <.L200>

00000fc8 <.L198>:
     fc8:	03c12703          	lw	x14,60(x2)
     fcc:	0ac12503          	lw	x10,172(x2)
     fd0:	07012983          	lw	x19,112(x2)
     fd4:	03d703b3          	mul	x7,x14,x29
     fd8:	04012903          	lw	x18,64(x2)
     fdc:	02a12223          	sw	x10,36(x2)
     fe0:	01d12c23          	sw	x29,24(x2)
     fe4:	fff00693          	li	x13,-1
     fe8:	0d812703          	lw	x14,216(x2)
     fec:	0e012a03          	lw	x20,224(x2)
     ff0:	0a412f83          	lw	x31,164(x2)
     ff4:	41338f33          	sub	x30,x7,x19
     ff8:	2cd90863          	beq	x18,x13,12c8 <.L202>

00000ffc <.L314>:
     ffc:	2c090663          	beqz	x18,12c8 <.L202>
    1000:	04412583          	lw	x11,68(x2)
    1004:	04c12603          	lw	x12,76(x2)
    1008:	02b958b3          	divu	x17,x18,x11
    100c:	02b67833          	remu	x16,x12,x11
    1010:	00188d93          	addi	x27,x17,1
    1014:	03b80833          	mul	x16,x16,x27
    1018:	010d8e33          	add	x28,x27,x16
    101c:	01c97463          	bgeu	x18,x28,1024 <.L203>
    1020:	00090e13          	mv	x28,x18

00001024 <.L203>:
    1024:	2bc87263          	bgeu	x16,x28,12c8 <.L202>
    1028:	030c0633          	mul	x12,x24,x16
    102c:	036674b3          	remu	x9,x12,x22
    1030:	00060093          	mv	x1,x12
    1034:	0c0b8263          	beqz	x23,10f8 <.L204>

00001038 <.L246>:
    1038:	000f0313          	mv	x6,x30
    103c:	00000893          	li	x17,0

00001040 <.L206>:
    1040:	0a0b0263          	beqz	x22,10e4 <.L210>
    1044:	03012e83          	lw	x29,48(x2)
    1048:	00289793          	slli	x15,x17,0x2
    104c:	00048593          	mv	x11,x9
    1050:	41d086b3          	sub	x13,x1,x29
    1054:	00db03b3          	add	x7,x22,x13
    1058:	01178633          	add	x12,x15,x17
    105c:	0100006f          	j	106c <.L211>

00001060 <.L310>:
    1060:	00168693          	addi	x13,x13,1
    1064:	00158593          	addi	x11,x11,1
    1068:	06d38e63          	beq	x7,x13,10e4 <.L210>

0000106c <.L211>:
    106c:	00b602b3          	add	x5,x12,x11
    1070:	00229513          	slli	x10,x5,0x2
    1074:	20010993          	addi	x19,x2,512
    1078:	f0000053          	fmv.w.x	f0,x0
    107c:	00a98eb3          	add	x29,x19,x10
    1080:	04034863          	bltz	x6,10d0 <.L208>
    1084:	00c12903          	lw	x18,12(x2)
    1088:	05237463          	bgeu	x6,x18,10d0 <.L208>
    108c:	0406c263          	bltz	x13,10d0 <.L208>
    1090:	01012d83          	lw	x27,16(x2)
    1094:	03b6fe63          	bgeu	x13,x27,10d0 <.L208>
    1098:	00072783          	lw	x15,0(x14)
    109c:	00472503          	lw	x10,4(x14)
    10a0:	00872983          	lw	x19,8(x14)
    10a4:	00c72903          	lw	x18,12(x14)
    10a8:	02ad0db3          	mul	x27,x26,x10
    10ac:	02fc82b3          	mul	x5,x25,x15
    10b0:	03330533          	mul	x10,x6,x19
    10b4:	01b287b3          	add	x15,x5,x27
    10b8:	032689b3          	mul	x19,x13,x18
    10bc:	00a78933          	add	x18,x15,x10
    10c0:	013902b3          	add	x5,x18,x19
    10c4:	00229d93          	slli	x27,x5,0x2
    10c8:	01ba0533          	add	x10,x20,x27
    10cc:	00052007          	flw	f0,0(x10)

000010d0 <.L208>:
    10d0:	f80eae27          	fsw	f0,-100(x29)
    10d4:	f8ba96e3          	bne	x21,x11,1060 <.L310>
    10d8:	00168693          	addi	x13,x13,1
    10dc:	00000593          	li	x11,0
    10e0:	f8d396e3          	bne	x7,x13,106c <.L211>

000010e4 <.L210>:
    10e4:	00188893          	addi	x17,x17,1
    10e8:	00130313          	addi	x6,x6,1
    10ec:	f578eae3          	bltu	x17,x23,1040 <.L206>
    10f0:	1bc87a63          	bgeu	x16,x28,12a4 <.L214>
    10f4:	030c0633          	mul	x12,x24,x16

000010f8 <.L204>:
    10f8:	01eb83b3          	add	x7,x23,x30
    10fc:	00cc00b3          	add	x1,x24,x12
    1100:	00080893          	mv	x17,x16
    1104:	00712e23          	sw	x7,28(x2)
    1108:	036674b3          	remu	x9,x12,x22

0000110c <.L247>:
    110c:	13810293          	addi	x5,x2,312
    1110:	00000693          	li	x13,0
    1114:	0c0b8463          	beqz	x23,11dc <.L225>

00001118 <.L226>:
    1118:	0a0b0c63          	beqz	x22,11d0 <.L230>
    111c:	000fae83          	lw	x29,0(x31) # 0 <_Z21hb_tiled_foreach_implIfZL26convolution_backward_inputP11hb_tensor_tS1_S1_P11hb_vector_tS3_EUlvE_JEEvjjT0_8HBTensorIT_Lln1EEPS7_.isra.0>
    1120:	02012383          	lw	x7,32(x2)
    1124:	004fa783          	lw	x15,4(x31)
    1128:	02812d83          	lw	x27,40(x2)
    112c:	008fa503          	lw	x10,8(x31)
    1130:	00269593          	slli	x11,x13,0x2
    1134:	00dd8333          	add	x6,x27,x13
    1138:	01812d83          	lw	x27,24(x2)
    113c:	00028993          	mv	x19,x5
    1140:	00912a23          	sw	x9,20(x2)
    1144:	00d585b3          	add	x11,x11,x13
    1148:	03dc8933          	mul	x18,x25,x29
    114c:	00dd0eb3          	add	x29,x26,x13
    1150:	02f387b3          	mul	x15,x7,x15
    1154:	00f903b3          	add	x7,x18,x15
    1158:	00cfa903          	lw	x18,12(x31)
    115c:	02ad8533          	mul	x10,x27,x10
    1160:	032887b3          	mul	x15,x17,x18
    1164:	00a38db3          	add	x27,x7,x10
    1168:	02412903          	lw	x18,36(x2)
    116c:	00fd8533          	add	x10,x27,x15
    1170:	00251393          	slli	x7,x10,0x2
    1174:	00790db3          	add	x27,x18,x7
    1178:	000da087          	flw	f1,0(x27)
    117c:	00048513          	mv	x10,x9
    1180:	0140006f          	j	1194 <.L229>

00001184 <.L312>:
    1184:	001e8e93          	addi	x29,x29,1
    1188:	00150513          	addi	x10,x10,1
    118c:	00498993          	addi	x19,x19,4
    1190:	026e8e63          	beq	x29,x6,11cc <.L311>

00001194 <.L229>:
    1194:	00a587b3          	add	x15,x11,x10
    1198:	00279393          	slli	x7,x15,0x2
    119c:	20010913          	addi	x18,x2,512
    11a0:	007907b3          	add	x15,x18,x7
    11a4:	000e9463          	bnez	x29,11ac <.L227>
    11a8:	f00000d3          	fmv.w.x	f1,x0

000011ac <.L227>:
    11ac:	0009a707          	flw	f14,0(x19)
    11b0:	f9c7a687          	flw	f13,-100(x15)
    11b4:	08e6f0c3          	fmadd.s	f1,f13,f14,f1
    11b8:	fcaa96e3          	bne	x21,x10,1184 <.L312>
    11bc:	001e8e93          	addi	x29,x29,1
    11c0:	00000513          	li	x10,0
    11c4:	00498993          	addi	x19,x19,4
    11c8:	fc6e96e3          	bne	x29,x6,1194 <.L229>

000011cc <.L311>:
    11cc:	001da027          	fsw	f1,0(x27)

000011d0 <.L230>:
    11d0:	00168693          	addi	x13,x13,1
    11d4:	01428293          	addi	x5,x5,20
    11d8:	f4db90e3          	bne	x23,x13,1118 <.L226>

000011dc <.L225>:
    11dc:	00188893          	addi	x17,x17,1
    11e0:	0d1e0263          	beq	x28,x17,12a4 <.L214>
    11e4:	0360f4b3          	remu	x9,x1,x22
    11e8:	0b180463          	beq	x16,x17,1290 <.L216>
    11ec:	03667533          	remu	x10,x12,x22
    11f0:	0a0c0063          	beqz	x24,1290 <.L216>
    11f4:	03812303          	lw	x6,56(x2)
    11f8:	03412583          	lw	x11,52(x2)
    11fc:	001306b3          	add	x13,x6,x1
    1200:	001589b3          	add	x19,x11,x1

00001204 <.L223>:
    1204:	060b8e63          	beqz	x23,1280 <.L221>
    1208:	00251d93          	slli	x27,x10,0x2
    120c:	19c10393          	addi	x7,x2,412
    1210:	01b38eb3          	add	x29,x7,x27
    1214:	000f0593          	mv	x11,x30

00001218 <.L222>:
    1218:	f0000153          	fmv.w.x	f2,x0
    121c:	0405c863          	bltz	x11,126c <.L220>
    1220:	00c12903          	lw	x18,12(x2)
    1224:	0525f463          	bgeu	x11,x18,126c <.L220>
    1228:	0406c263          	bltz	x13,126c <.L220>
    122c:	01012783          	lw	x15,16(x2)
    1230:	02f6fe63          	bgeu	x13,x15,126c <.L220>
    1234:	00472303          	lw	x6,4(x14)
    1238:	00072283          	lw	x5,0(x14)
    123c:	00c72d83          	lw	x27,12(x14)
    1240:	00872383          	lw	x7,8(x14)
    1244:	025c82b3          	mul	x5,x25,x5
    1248:	026d07b3          	mul	x15,x26,x6
    124c:	03b68933          	mul	x18,x13,x27
    1250:	00f28333          	add	x6,x5,x15
    1254:	02758db3          	mul	x27,x11,x7
    1258:	012303b3          	add	x7,x6,x18
    125c:	01b382b3          	add	x5,x7,x27
    1260:	00229793          	slli	x15,x5,0x2
    1264:	00fa0933          	add	x18,x20,x15
    1268:	00092107          	flw	f2,0(x18)

0000126c <.L220>:
    126c:	01c12303          	lw	x6,28(x2)
    1270:	00158593          	addi	x11,x11,1
    1274:	002ea027          	fsw	f2,0(x29)
    1278:	014e8e93          	addi	x29,x29,20
    127c:	f8b31ee3          	bne	x6,x11,1218 <.L222>

00001280 <.L221>:
    1280:	00aa8e63          	beq	x21,x10,129c <.L313>
    1284:	00150513          	addi	x10,x10,1

00001288 <.L219>:
    1288:	00168693          	addi	x13,x13,1
    128c:	f7369ce3          	bne	x13,x19,1204 <.L223>

00001290 <.L216>:
    1290:	01860633          	add	x12,x12,x24
    1294:	018080b3          	add	x1,x1,x24
    1298:	e75ff06f          	j	110c <.L247>

0000129c <.L313>:
    129c:	00000513          	li	x10,0
    12a0:	fe9ff06f          	j	1288 <.L219>

000012a4 <.L214>:
    12a4:	03c12e03          	lw	x28,60(x2)
    12a8:	02c12803          	lw	x16,44(x2)
    12ac:	00812c23          	sw	x8,24(x2)
    12b0:	01cf0f33          	add	x30,x30,x28
    12b4:	03047663          	bgeu	x8,x16,12e0 <.L200>
    12b8:	04012903          	lw	x18,64(x2)
    12bc:	fff00693          	li	x13,-1
    12c0:	00140413          	addi	x8,x8,1
    12c4:	d2d91ce3          	bne	x18,x13,ffc <.L314>

000012c8 <.L202>:
    12c8:	fc0b8ee3          	beqz	x23,12a4 <.L214>
    12cc:	00000e13          	li	x28,0
    12d0:	00000493          	li	x9,0
    12d4:	00000093          	li	x1,0
    12d8:	00000813          	li	x16,0
    12dc:	d5dff06f          	j	1038 <.L246>

000012e0 <.L200>:
    12e0:	04812483          	lw	x9,72(x2)
    12e4:	05c12083          	lw	x1,92(x2)
    12e8:	05812603          	lw	x12,88(x2)
    12ec:	06012403          	lw	x8,96(x2)
    12f0:	001488b3          	add	x17,x9,x1
    12f4:	02c12023          	sw	x12,32(x2)
    12f8:	05112423          	sw	x17,72(x2)
    12fc:	02867c63          	bgeu	x12,x8,1334 <.L188>
    1300:	00160713          	addi	x14,x12,1 # 1 <_Z21hb_tiled_foreach_implIfZL26convolution_backward_inputP11hb_tensor_tS1_S1_P11hb_vector_tS3_EUlvE_JEEvjjT0_8HBTensorIT_Lln1EEPS7_.isra.0+0x1>
    1304:	04e12c23          	sw	x14,88(x2)
    1308:	c29ff06f          	j	f30 <.L199>

0000130c <.L309>:
    130c:	05012883          	lw	x17,80(x2)
    1310:	05412a03          	lw	x20,84(x2)
    1314:	06412e03          	lw	x28,100(x2)
    1318:	0348ddb3          	divu	x27,x17,x20
    131c:	03be5eb3          	divu	x29,x28,x27
    1320:	05b12223          	sw	x27,68(x2)
    1324:	fb4efee3          	bgeu	x29,x20,12e0 <.L200>
    1328:	001e8413          	addi	x8,x29,1
    132c:	02812623          	sw	x8,44(x2)
    1330:	c99ff06f          	j	fc8 <.L198>

00001334 <.L188>:
    1334:	02812a03          	lw	x20,40(x2)
    1338:	07812f83          	lw	x31,120(x2)
    133c:	001d0d13          	addi	x26,x26,1 # 1 <_Z21hb_tiled_foreach_implIfZL26convolution_backward_inputP11hb_tensor_tS1_S1_P11hb_vector_tS3_EUlvE_JEEvjjT0_8HBTensorIT_Lln1EEPS7_.isra.0+0x1>
    1340:	001a0f13          	addi	x30,x20,1
    1344:	03e12423          	sw	x30,40(x2)
    1348:	b9af90e3          	bne	x31,x26,ec8 <.L187>
    134c:	000a8d13          	mv	x26,x21

00001350 <.L186>:
    1350:	08812a83          	lw	x21,136(x2)
    1354:	001c8c93          	addi	x25,x25,1
    1358:	b19a9ce3          	bne	x21,x25,e70 <.L182>

0000135c <.L181>:
    135c:	00000c37          	lui	x24,0x0
    1360:	000003b7          	lui	x7,0x0
    1364:	00000b37          	lui	x22,0x0
    1368:	000009b7          	lui	x19,0x0
    136c:	000b2b83          	lw	x23,0(x22) # 0 <_Z21hb_tiled_foreach_implIfZL26convolution_backward_inputP11hb_tensor_tS1_S1_P11hb_vector_tS3_EUlvE_JEEvjjT0_8HBTensorIT_Lln1EEPS7_.isra.0>
    1370:	000c2c83          	lw	x25,0(x24) # 0 <_Z21hb_tiled_foreach_implIfZL26convolution_backward_inputP11hb_tensor_tS1_S1_P11hb_vector_tS3_EUlvE_JEEvjjT0_8HBTensorIT_Lln1EEPS7_.isra.0>
    1374:	0009ad83          	lw	x27,0(x19) # 0 <_Z21hb_tiled_foreach_implIfZL26convolution_backward_inputP11hb_tensor_tS1_S1_P11hb_vector_tS3_EUlvE_JEEvjjT0_8HBTensorIT_Lln1EEPS7_.isra.0>
    1378:	0003a283          	lw	x5,0(x7) # 0 <_Z21hb_tiled_foreach_implIfZL26convolution_backward_inputP11hb_tensor_tS1_S1_P11hb_vector_tS3_EUlvE_JEEvjjT0_8HBTensorIT_Lln1EEPS7_.isra.0>
    137c:	000007b7          	lui	x15,0x0
    1380:	0007a903          	lw	x18,0(x15) # 0 <_Z21hb_tiled_foreach_implIfZL26convolution_backward_inputP11hb_tensor_tS1_S1_P11hb_vector_tS3_EUlvE_JEEvjjT0_8HBTensorIT_Lln1EEPS7_.isra.0>
    1384:	019b85b3          	add	x11,x23,x25
    1388:	005d8eb3          	add	x29,x27,x5
    138c:	01859313          	slli	x6,x11,0x18
    1390:	3f0006b7          	lui	x13,0x3f000
    1394:	012e9513          	slli	x10,x29,0x12
    1398:	00fc0837          	lui	x16,0xfc0
    139c:	000408b7          	lui	x17,0x40
    13a0:	00d37e33          	and	x28,x6,x13
    13a4:	00491493          	slli	x9,x18,0x4
    13a8:	01057633          	and	x12,x10,x16
    13ac:	ff088413          	addi	x8,x17,-16 # 3fff0 <.L2120+0x32614>
    13b0:	00ce60b3          	or	x1,x28,x12
    13b4:	0084f733          	and	x14,x9,x8
    13b8:	00e0ea33          	or	x20,x1,x14
    13bc:	c0000f37          	lui	x30,0xc0000
    13c0:	01ea6fb3          	or	x31,x20,x30
    13c4:	41001d37          	lui	x26,0x41001
    13c8:	d1fd2623          	sw	x31,-756(x26) # 41000d0c <.L2120+0x40ff3330>
    13cc:	0003aa83          	lw	x21,0(x7)
    13d0:	000c2b03          	lw	x22,0(x24)
    13d4:	000005b7          	lui	x11,0x0
    13d8:	004a8b93          	addi	x23,x21,4
    13dc:	00058693          	mv	x13,x11
    13e0:	01768c33          	add	x24,x13,x23
    13e4:	018b1c93          	slli	x25,x22,0x18
    13e8:	019c69b3          	or	x19,x24,x25
    13ec:	201c0db7          	lui	x27,0x201c0
    13f0:	01b9e2b3          	or	x5,x19,x27
    13f4:	00100793          	li	x15,1
    13f8:	00f28023          	sb	x15,0(x5)
    13fc:	0003a383          	lw	x7,0(x7)
    1400:	00700913          	li	x18,7
    1404:	07238463          	beq	x7,x18,146c <.L315>

00001408 <.L231>:
    1408:	00100413          	li	x8,1
    140c:	0100006f          	j	141c <.L244>

00001410 <.L316>:
    1410:	00058713          	mv	x14,x11
    1414:	14072faf          	lr.w.aq	x31,(x14)
    1418:	008f8863          	beq	x31,x8,1428 <.L243>

0000141c <.L244>:
    141c:	00058a13          	mv	x20,x11
    1420:	100a2f2f          	lr.w	x30,(x20)
    1424:	fe8f16e3          	bne	x30,x8,1410 <.L316>

00001428 <.L243>:
    1428:	23c12083          	lw	x1,572(x2)
    142c:	23812403          	lw	x8,568(x2)
    1430:	0006a023          	sw	x0,0(x13) # 3f000000 <.L2120+0x3eff2624>
    1434:	23412483          	lw	x9,564(x2)
    1438:	23012903          	lw	x18,560(x2)
    143c:	22c12983          	lw	x19,556(x2)
    1440:	22812a03          	lw	x20,552(x2)
    1444:	22412a83          	lw	x21,548(x2)
    1448:	22012b03          	lw	x22,544(x2)
    144c:	21c12b83          	lw	x23,540(x2)
    1450:	21812c03          	lw	x24,536(x2)
    1454:	21412c83          	lw	x25,532(x2)
    1458:	21012d03          	lw	x26,528(x2)
    145c:	20c12d83          	lw	x27,524(x2)
    1460:	00000513          	li	x10,0
    1464:	24010113          	addi	x2,x2,576
    1468:	00008067          	ret

0000146c <.L315>:
    146c:	00000eb7          	lui	x29,0x0
    1470:	00000537          	lui	x10,0x0
    1474:	004e8313          	addi	x6,x29,4 # 4 <_Z21hb_tiled_foreach_implIfZL26convolution_backward_inputP11hb_tensor_tS1_S1_P11hb_vector_tS3_EUlvE_JEEvjjT0_8HBTensorIT_Lln1EEPS7_.isra.0+0x4>
    1478:	01450613          	addi	x12,x10,20 # 14 <.L8>

0000147c <.L178>:
    147c:	00030813          	mv	x16,x6

00001480 <.L233>:
    1480:	00084e03          	lbu	x28,0(x16) # fc0000 <.L2120+0xfb2624>
    1484:	00180813          	addi	x16,x16,1
    1488:	0ffe7493          	andi	x9,x28,255
    148c:	fe0488e3          	beqz	x9,147c <.L178>
    1490:	ff0618e3          	bne	x12,x16,1480 <.L233>
    1494:	000000b7          	lui	x1,0x0
    1498:	0000a883          	lw	x17,0(x1) # 0 <_Z21hb_tiled_foreach_implIfZL26convolution_backward_inputP11hb_tensor_tS1_S1_P11hb_vector_tS3_EUlvE_JEEvjjT0_8HBTensorIT_Lln1EEPS7_.isra.0>
    149c:	231c0737          	lui	x14,0x231c0
    14a0:	00100f93          	li	x31,1
    14a4:	01888413          	addi	x8,x17,24
    14a8:	00868a33          	add	x20,x13,x8
    14ac:	00ea6f33          	or	x30,x20,x14
    14b0:	01ff0023          	sb	x31,0(x30) # c0000000 <.L2120+0xbfff2624>
    14b4:	00000d37          	lui	x26,0x0
    14b8:	000d2a83          	lw	x21,0(x26) # 0 <_Z21hb_tiled_foreach_implIfZL26convolution_backward_inputP11hb_tensor_tS1_S1_P11hb_vector_tS3_EUlvE_JEEvjjT0_8HBTensorIT_Lln1EEPS7_.isra.0>
    14bc:	00700b13          	li	x22,7
    14c0:	f56a94e3          	bne	x21,x22,1408 <.L231>
    14c4:	00000bb7          	lui	x23,0x0
    14c8:	000bac03          	lw	x24,0(x23) # 0 <_Z21hb_tiled_foreach_implIfZL26convolution_backward_inputP11hb_tensor_tS1_S1_P11hb_vector_tS3_EUlvE_JEEvjjT0_8HBTensorIT_Lln1EEPS7_.isra.0>
    14cc:	00300c93          	li	x25,3
    14d0:	119c0863          	beq	x24,x25,15e0 <.L317>

000014d4 <.L239>:
    14d4:	00100a93          	li	x21,1
    14d8:	0100006f          	j	14e8 <.L235>

000014dc <.L318>:
    14dc:	01468c13          	addi	x24,x13,20
    14e0:	140c2caf          	lr.w.aq	x25,(x24)
    14e4:	015c8863          	beq	x25,x21,14f4 <.L240>

000014e8 <.L235>:
    14e8:	01468b13          	addi	x22,x13,20
    14ec:	100b2baf          	lr.w	x23,(x22)
    14f0:	ff5b96e3          	bne	x23,x21,14dc <.L318>

000014f4 <.L240>:
    14f4:	0006aa23          	sw	x0,20(x13)
    14f8:	00000293          	li	x5,0
    14fc:	01000993          	li	x19,16

00001500 <.L241>:
    1500:	00568db3          	add	x27,x13,x5
    1504:	000d8223          	sb	x0,4(x27) # 201c0004 <.L2120+0x201b2628>
    1508:	00128293          	addi	x5,x5,1
    150c:	ff329ae3          	bne	x5,x19,1500 <.L241>
    1510:	0006a023          	sw	x0,0(x13)
    1514:	00000813          	li	x16,0
    1518:	200003b7          	lui	x7,0x20000
    151c:	00100913          	li	x18,1
    1520:	00040eb7          	lui	x29,0x40
    1524:	00400e37          	lui	x28,0x400

00001528 <.L242>:
    1528:	000007b7          	lui	x15,0x0
    152c:	0007a483          	lw	x9,0(x15) # 0 <_Z21hb_tiled_foreach_implIfZL26convolution_backward_inputP11hb_tensor_tS1_S1_P11hb_vector_tS3_EUlvE_JEEvjjT0_8HBTensorIT_Lln1EEPS7_.isra.0>
    1530:	0106e333          	or	x6,x13,x16
    1534:	01d80833          	add	x16,x16,x29
    1538:	01849513          	slli	x10,x9,0x18
    153c:	006560b3          	or	x1,x10,x6
    1540:	0070e8b3          	or	x17,x1,x7
    1544:	0128a023          	sw	x18,0(x17)
    1548:	ffc810e3          	bne	x16,x28,1528 <.L242>
    154c:	ebdff06f          	j	1408 <.L231>

00001550 <.L184>:
    1550:	07412083          	lw	x1,116(x2)
    1554:	08000713          	li	x14,128
    1558:	08412683          	lw	x13,132(x2)
    155c:	02175333          	divu	x6,x14,x1
    1560:	0266d3b3          	divu	x7,x13,x6
    1564:	04612823          	sw	x6,80(x2)
    1568:	02712023          	sw	x7,32(x2)
    156c:	dc13f4e3          	bgeu	x7,x1,1334 <.L188>
    1570:	04c12983          	lw	x19,76(x2)
    1574:	00138513          	addi	x10,x7,1 # 20000001 <.L2120+0x1fff2625>
    1578:	04a12c23          	sw	x10,88(x2)
    157c:	0269f933          	remu	x18,x19,x6
    1580:	06a12023          	sw	x10,96(x2)
    1584:	07212223          	sw	x18,100(x2)
    1588:	97dff06f          	j	f04 <.L185>

0000158c <.L308>:
    158c:	000002b7          	lui	x5,0x0
    1590:	00000db7          	lui	x27,0x0
    1594:	06f00613          	li	x12,111
    1598:	000d8593          	mv	x11,x27
    159c:	00028513          	mv	x10,x5
    15a0:	00000097          	auipc	x1,0x0
    15a4:	000080e7          	jalr	x1 # 15a0 <.L308+0x14>
    15a8:	10812583          	lw	x11,264(x2)
    15ac:	000003b7          	lui	x7,0x0
    15b0:	00038513          	mv	x10,x7
    15b4:	00000097          	auipc	x1,0x0
    15b8:	000080e7          	jalr	x1 # 15b4 <.L308+0x28>
    15bc:	00000937          	lui	x18,0x0
    15c0:	00092e83          	lw	x29,0(x18) # 0 <_Z21hb_tiled_foreach_implIfZL26convolution_backward_inputP11hb_tensor_tS1_S1_P11hb_vector_tS3_EUlvE_JEEvjjT0_8HBTensorIT_Lln1EEPS7_.isra.0>
    15c4:	00000e37          	lui	x28,0x0
    15c8:	000e2483          	lw	x9,0(x28) # 0 <_Z21hb_tiled_foreach_implIfZL26convolution_backward_inputP11hb_tensor_tS1_S1_P11hb_vector_tS3_EUlvE_JEEvjjT0_8HBTensorIT_Lln1EEPS7_.isra.0>
    15cc:	010e9793          	slli	x15,x29,0x10
    15d0:	4100f837          	lui	x16,0x4100f
    15d4:	00978333          	add	x6,x15,x9
    15d8:	ac682c23          	sw	x6,-1320(x16) # 4100ead8 <.L2120+0x410010fc>

000015dc <.L173>:
    15dc:	0000006f          	j	15dc <.L173>

000015e0 <.L317>:
    15e0:	000009b7          	lui	x19,0x0
    15e4:	000002b7          	lui	x5,0x0
    15e8:	01898d93          	addi	x27,x19,24 # 18 <.L8+0x4>
    15ec:	02028793          	addi	x15,x5,32 # 20 <.L8+0xc>

000015f0 <.L234>:
    15f0:	000d8913          	mv	x18,x27

000015f4 <.L236>:
    15f4:	00094383          	lbu	x7,0(x18)
    15f8:	00190913          	addi	x18,x18,1
    15fc:	0ff3fe93          	andi	x29,x7,255
    1600:	fe0e88e3          	beqz	x29,15f0 <.L234>
    1604:	ff2798e3          	bne	x15,x18,15f4 <.L236>
    1608:	00068c23          	sb	x0,24(x13)
    160c:	00068ca3          	sb	x0,25(x13)
    1610:	00068d23          	sb	x0,26(x13)
    1614:	00068da3          	sb	x0,27(x13)
    1618:	00068e23          	sb	x0,28(x13)
    161c:	00068ea3          	sb	x0,29(x13)
    1620:	00068f23          	sb	x0,30(x13)
    1624:	00068fa3          	sb	x0,31(x13)
    1628:	0006aa23          	sw	x0,20(x13)
    162c:	00000713          	li	x14,0
    1630:	03fc0e37          	lui	x28,0x3fc0
    1634:	20000337          	lui	x6,0x20000
    1638:	00100493          	li	x9,1
    163c:	01000837          	lui	x16,0x1000
    1640:	08000537          	lui	x10,0x8000
    1644:	0080006f          	j	164c <.L238>

00001648 <.L319>:
    1648:	000faa83          	lw	x21,0(x31)

0000164c <.L238>:
    164c:	012a9093          	slli	x1,x21,0x12
    1650:	00e668b3          	or	x17,x12,x14
    1654:	01c0f433          	and	x8,x1,x28
    1658:	01146a33          	or	x20,x8,x17
    165c:	006a6f33          	or	x30,x20,x6
    1660:	009f2023          	sw	x9,0(x30)
    1664:	01070733          	add	x14,x14,x16
    1668:	00000fb7          	lui	x31,0x0
    166c:	fca71ee3          	bne	x14,x10,1648 <.L319>
    1670:	000fa603          	lw	x12,0(x31) # 0 <_Z21hb_tiled_foreach_implIfZL26convolution_backward_inputP11hb_tensor_tS1_S1_P11hb_vector_tS3_EUlvE_JEEvjjT0_8HBTensorIT_Lln1EEPS7_.isra.0>
    1674:	00700d13          	li	x26,7
    1678:	e5a60ee3          	beq	x12,x26,14d4 <.L239>
    167c:	d8dff06f          	j	1408 <.L231>

00001680 <_ZN12_GLOBAL__N_128convolution_forward_templateILm8ELm32ELm32ELm32ELm16ELm32ELm32ELm1ELm1ELm1ELm1ELm0ELm0EEEiP11hb_tensor_tS2_S2_P11hb_vector_tS4_>:
    1680:	f2010113          	addi	x2,x2,-224
    1684:	0d212823          	sw	x18,208(x2)
    1688:	00050913          	mv	x18,x10
    168c:	0c912a23          	sw	x9,212(x2)
    1690:	00410513          	addi	x10,x2,4
    1694:	00058493          	mv	x9,x11
    1698:	00090593          	mv	x11,x18
    169c:	0c112e23          	sw	x1,220(x2)
    16a0:	0c812c23          	sw	x8,216(x2)
    16a4:	0d312623          	sw	x19,204(x2)
    16a8:	00060413          	mv	x8,x12
    16ac:	00070993          	mv	x19,x14
    16b0:	0d412423          	sw	x20,200(x2)
    16b4:	0d512223          	sw	x21,196(x2)
    16b8:	00068a13          	mv	x20,x13
    16bc:	0d612023          	sw	x22,192(x2)
    16c0:	0b712e23          	sw	x23,188(x2)
    16c4:	0b812c23          	sw	x24,184(x2)
    16c8:	0b912a23          	sw	x25,180(x2)
    16cc:	0ba12823          	sw	x26,176(x2)
    16d0:	0bb12623          	sw	x27,172(x2)
    16d4:	00000097          	auipc	x1,0x0
    16d8:	000080e7          	jalr	x1 # 16d4 <_ZN12_GLOBAL__N_128convolution_forward_templateILm8ELm32ELm32ELm32ELm16ELm32ELm32ELm1ELm1ELm1ELm1ELm0ELm0EEEiP11hb_tensor_tS2_S2_P11hb_vector_tS4_+0x54>
    16dc:	00048593          	mv	x11,x9
    16e0:	03810513          	addi	x10,x2,56
    16e4:	00000097          	auipc	x1,0x0
    16e8:	000080e7          	jalr	x1 # 16e4 <_ZN12_GLOBAL__N_128convolution_forward_templateILm8ELm32ELm32ELm32ELm16ELm32ELm32ELm1ELm1ELm1ELm1ELm0ELm0EEEiP11hb_tensor_tS2_S2_P11hb_vector_tS4_+0x64>
    16ec:	00040593          	mv	x11,x8
    16f0:	06c10513          	addi	x10,x2,108
    16f4:	00000097          	auipc	x1,0x0
    16f8:	000080e7          	jalr	x1 # 16f4 <_ZN12_GLOBAL__N_128convolution_forward_templateILm8ELm32ELm32ELm32ELm16ELm32ELm32ELm1ELm1ELm1ELm1ELm0ELm0EEEiP11hb_tensor_tS2_S2_P11hb_vector_tS4_+0x74>
    16fc:	00812783          	lw	x15,8(x2)
    1700:	10078e63          	beqz	x15,181c <.L394>
    1704:	00100713          	li	x14,1
    1708:	0cf77063          	bgeu	x14,x15,17c8 <.L395>
    170c:	00200693          	li	x13,2
    1710:	1ad78a63          	beq	x15,x13,18c4 <.L396>
    1714:	00300613          	li	x12,3
    1718:	20c78063          	beq	x15,x12,1918 <.L397>
    171c:	03c12083          	lw	x1,60(x2)
    1720:	14177863          	bgeu	x14,x1,1870 <.L398>
    1724:	28d08e63          	beq	x1,x13,19c0 <.L399>
    1728:	2ec08663          	beq	x1,x12,1a14 <.L400>
    172c:	07012283          	lw	x5,112(x2)
    1730:	2256fe63          	bgeu	x13,x5,196c <.L401>
    1734:	32c28a63          	beq	x5,x12,1a68 <.L402>
    1738:	01012383          	lw	x7,16(x2)
    173c:	04412a83          	lw	x21,68(x2)
    1740:	004a2503          	lw	x10,4(x20)
    1744:	0049a303          	lw	x6,4(x19)
    1748:	07812e03          	lw	x28,120(x2)
    174c:	0003ab03          	lw	x22,0(x7) # 0 <_Z21hb_tiled_foreach_implIfZL26convolution_backward_inputP11hb_tensor_tS1_S1_P11hb_vector_tS3_EUlvE_JEEvjjT0_8HBTensorIT_Lln1EEPS7_.isra.0>
    1750:	00800f93          	li	x31,8
    1754:	00052a03          	lw	x20,0(x10) # 8000000 <.L2120+0x7ff2624>
    1758:	00452983          	lw	x19,4(x10)
    175c:	0043a883          	lw	x17,4(x7)
    1760:	0083a803          	lw	x16,8(x7)
    1764:	00c3a583          	lw	x11,12(x7)
    1768:	004aaf03          	lw	x30,4(x21)
    176c:	008aab83          	lw	x23,8(x21)
    1770:	00caae83          	lw	x29,12(x21)
    1774:	008e2c03          	lw	x24,8(x28) # 3fc0008 <.L2120+0x3fb262c>
    1778:	00ce2c83          	lw	x25,12(x28)
    177c:	00032d03          	lw	x26,0(x6) # 20000000 <.L2120+0x1fff2624>
    1780:	00432d83          	lw	x27,4(x6)
    1784:	fff00513          	li	x10,-1
    1788:	33fb0a63          	beq	x22,x31,1abc <.L403>

0000178c <.L320>:
    178c:	0dc12083          	lw	x1,220(x2)
    1790:	0d812403          	lw	x8,216(x2)
    1794:	0d412483          	lw	x9,212(x2)
    1798:	0d012903          	lw	x18,208(x2)
    179c:	0cc12983          	lw	x19,204(x2)
    17a0:	0c812a03          	lw	x20,200(x2)
    17a4:	0c412a83          	lw	x21,196(x2)
    17a8:	0c012b03          	lw	x22,192(x2)
    17ac:	0bc12b83          	lw	x23,188(x2)
    17b0:	0b812c03          	lw	x24,184(x2)
    17b4:	0b412c83          	lw	x25,180(x2)
    17b8:	0b012d03          	lw	x26,176(x2)
    17bc:	0ac12d83          	lw	x27,172(x2)
    17c0:	0e010113          	addi	x2,x2,224
    17c4:	00008067          	ret

000017c8 <.L395>:
    17c8:	000000b7          	lui	x1,0x0
    17cc:	00000ab7          	lui	x21,0x0
    17d0:	00008593          	mv	x11,x1
    17d4:	06f00613          	li	x12,111
    17d8:	000a8513          	mv	x10,x21
    17dc:	00000097          	auipc	x1,0x0
    17e0:	000080e7          	jalr	x1 # 17dc <.L395+0x14>
    17e4:	00812583          	lw	x11,8(x2)
    17e8:	00000b37          	lui	x22,0x0
    17ec:	000b0513          	mv	x10,x22
    17f0:	00000097          	auipc	x1,0x0
    17f4:	000080e7          	jalr	x1 # 17f0 <.L395+0x28>
    17f8:	000005b7          	lui	x11,0x0
    17fc:	0005ac83          	lw	x25,0(x11) # 0 <_Z21hb_tiled_foreach_implIfZL26convolution_backward_inputP11hb_tensor_tS1_S1_P11hb_vector_tS3_EUlvE_JEEvjjT0_8HBTensorIT_Lln1EEPS7_.isra.0>
    1800:	00000d37          	lui	x26,0x0
    1804:	000d2e03          	lw	x28,0(x26) # 0 <_Z21hb_tiled_foreach_implIfZL26convolution_backward_inputP11hb_tensor_tS1_S1_P11hb_vector_tS3_EUlvE_JEEvjjT0_8HBTensorIT_Lln1EEPS7_.isra.0>
    1808:	010c9e93          	slli	x29,x25,0x10
    180c:	4100fa37          	lui	x20,0x4100f
    1810:	01ce8f33          	add	x30,x29,x28
    1814:	adea2c23          	sw	x30,-1320(x20) # 4100ead8 <.L2120+0x410010fc>

00001818 <.L324>:
    1818:	0000006f          	j	1818 <.L324>

0000181c <.L394>:
    181c:	00000fb7          	lui	x31,0x0
    1820:	00000c37          	lui	x24,0x0
    1824:	06f00613          	li	x12,111
    1828:	000c0593          	mv	x11,x24
    182c:	000f8513          	mv	x10,x31
    1830:	00000097          	auipc	x1,0x0
    1834:	000080e7          	jalr	x1 # 1830 <.L394+0x14>
    1838:	00812583          	lw	x11,8(x2)
    183c:	000004b7          	lui	x9,0x0
    1840:	00048513          	mv	x10,x9
    1844:	00000097          	auipc	x1,0x0
    1848:	000080e7          	jalr	x1 # 1844 <.L394+0x28>
    184c:	00000737          	lui	x14,0x0
    1850:	00072503          	lw	x10,0(x14) # 0 <_Z21hb_tiled_foreach_implIfZL26convolution_backward_inputP11hb_tensor_tS1_S1_P11hb_vector_tS3_EUlvE_JEEvjjT0_8HBTensorIT_Lln1EEPS7_.isra.0>
    1854:	000006b7          	lui	x13,0x0
    1858:	0006a983          	lw	x19,0(x13) # 0 <_Z21hb_tiled_foreach_implIfZL26convolution_backward_inputP11hb_tensor_tS1_S1_P11hb_vector_tS3_EUlvE_JEEvjjT0_8HBTensorIT_Lln1EEPS7_.isra.0>
    185c:	01051793          	slli	x15,x10,0x10
    1860:	4100fdb7          	lui	x27,0x4100f
    1864:	01378bb3          	add	x23,x15,x19
    1868:	ad7dac23          	sw	x23,-1320(x27) # 4100ead8 <.L2120+0x410010fc>

0000186c <.L322>:
    186c:	0000006f          	j	186c <.L322>

00001870 <.L398>:
    1870:	000000b7          	lui	x1,0x0
    1874:	00000937          	lui	x18,0x0
    1878:	00008593          	mv	x11,x1
    187c:	06f00613          	li	x12,111
    1880:	00090513          	mv	x10,x18
    1884:	00000097          	auipc	x1,0x0
    1888:	000080e7          	jalr	x1 # 1884 <.L398+0x14>
    188c:	03c12583          	lw	x11,60(x2)
    1890:	00000837          	lui	x16,0x0
    1894:	00080513          	mv	x10,x16
    1898:	00000097          	auipc	x1,0x0
    189c:	000080e7          	jalr	x1 # 1898 <.L398+0x28>
    18a0:	000005b7          	lui	x11,0x0
    18a4:	0005aa83          	lw	x21,0(x11) # 0 <_Z21hb_tiled_foreach_implIfZL26convolution_backward_inputP11hb_tensor_tS1_S1_P11hb_vector_tS3_EUlvE_JEEvjjT0_8HBTensorIT_Lln1EEPS7_.isra.0>
    18a8:	00000b37          	lui	x22,0x0
    18ac:	000b2c83          	lw	x25,0(x22) # 0 <_Z21hb_tiled_foreach_implIfZL26convolution_backward_inputP11hb_tensor_tS1_S1_P11hb_vector_tS3_EUlvE_JEEvjjT0_8HBTensorIT_Lln1EEPS7_.isra.0>
    18b0:	010a9d13          	slli	x26,x21,0x10
    18b4:	4100feb7          	lui	x29,0x4100f
    18b8:	019d0e33          	add	x28,x26,x25
    18bc:	adceac23          	sw	x28,-1320(x29) # 4100ead8 <.L2120+0x410010fc>

000018c0 <.L330>:
    18c0:	0000006f          	j	18c0 <.L330>

000018c4 <.L396>:
    18c4:	00000bb7          	lui	x23,0x0
    18c8:	00000db7          	lui	x27,0x0
    18cc:	06f00613          	li	x12,111
    18d0:	000b8593          	mv	x11,x23
    18d4:	000d8513          	mv	x10,x27
    18d8:	00000097          	auipc	x1,0x0
    18dc:	000080e7          	jalr	x1 # 18d8 <.L396+0x14>
    18e0:	00812583          	lw	x11,8(x2)
    18e4:	00000637          	lui	x12,0x0
    18e8:	00060513          	mv	x10,x12
    18ec:	00000097          	auipc	x1,0x0
    18f0:	000080e7          	jalr	x1 # 18ec <.L396+0x28>
    18f4:	000002b7          	lui	x5,0x0
    18f8:	0002a383          	lw	x7,0(x5) # 0 <_Z21hb_tiled_foreach_implIfZL26convolution_backward_inputP11hb_tensor_tS1_S1_P11hb_vector_tS3_EUlvE_JEEvjjT0_8HBTensorIT_Lln1EEPS7_.isra.0>
    18fc:	00000437          	lui	x8,0x0
    1900:	00042303          	lw	x6,0(x8) # 0 <_Z21hb_tiled_foreach_implIfZL26convolution_backward_inputP11hb_tensor_tS1_S1_P11hb_vector_tS3_EUlvE_JEEvjjT0_8HBTensorIT_Lln1EEPS7_.isra.0>
    1904:	01039893          	slli	x17,x7,0x10
    1908:	4100f837          	lui	x16,0x4100f
    190c:	00688933          	add	x18,x17,x6
    1910:	ad282c23          	sw	x18,-1320(x16) # 4100ead8 <.L2120+0x410010fc>

00001914 <.L326>:
    1914:	0000006f          	j	1914 <.L326>

00001918 <.L397>:
    1918:	00000f37          	lui	x30,0x0
    191c:	00000a37          	lui	x20,0x0
    1920:	000f0593          	mv	x11,x30
    1924:	06f00613          	li	x12,111
    1928:	000a0513          	mv	x10,x20
    192c:	00000097          	auipc	x1,0x0
    1930:	000080e7          	jalr	x1 # 192c <.L397+0x14>
    1934:	00812583          	lw	x11,8(x2)
    1938:	00000c37          	lui	x24,0x0
    193c:	000c0513          	mv	x10,x24
    1940:	00000097          	auipc	x1,0x0
    1944:	000080e7          	jalr	x1 # 1940 <.L397+0x28>
    1948:	00000fb7          	lui	x31,0x0
    194c:	000fa483          	lw	x9,0(x31) # 0 <_Z21hb_tiled_foreach_implIfZL26convolution_backward_inputP11hb_tensor_tS1_S1_P11hb_vector_tS3_EUlvE_JEEvjjT0_8HBTensorIT_Lln1EEPS7_.isra.0>
    1950:	00000737          	lui	x14,0x0
    1954:	00072503          	lw	x10,0(x14) # 0 <_Z21hb_tiled_foreach_implIfZL26convolution_backward_inputP11hb_tensor_tS1_S1_P11hb_vector_tS3_EUlvE_JEEvjjT0_8HBTensorIT_Lln1EEPS7_.isra.0>
    1958:	01049693          	slli	x13,x9,0x10
    195c:	4100f7b7          	lui	x15,0x4100f
    1960:	00a689b3          	add	x19,x13,x10
    1964:	ad37ac23          	sw	x19,-1320(x15) # 4100ead8 <.L2120+0x410010fc>

00001968 <.L328>:
    1968:	0000006f          	j	1968 <.L328>

0000196c <.L401>:
    196c:	000000b7          	lui	x1,0x0
    1970:	00000337          	lui	x6,0x0
    1974:	00008593          	mv	x11,x1
    1978:	06f00613          	li	x12,111
    197c:	00030513          	mv	x10,x6
    1980:	00000097          	auipc	x1,0x0
    1984:	000080e7          	jalr	x1 # 1980 <.L401+0x14>
    1988:	07012583          	lw	x11,112(x2)
    198c:	000008b7          	lui	x17,0x0
    1990:	00088513          	mv	x10,x17
    1994:	00000097          	auipc	x1,0x0
    1998:	000080e7          	jalr	x1 # 1994 <.L401+0x28>
    199c:	000005b7          	lui	x11,0x0
    19a0:	0005a903          	lw	x18,0(x11) # 0 <_Z21hb_tiled_foreach_implIfZL26convolution_backward_inputP11hb_tensor_tS1_S1_P11hb_vector_tS3_EUlvE_JEEvjjT0_8HBTensorIT_Lln1EEPS7_.isra.0>
    19a4:	00000837          	lui	x16,0x0
    19a8:	00082a83          	lw	x21,0(x16) # 0 <_Z21hb_tiled_foreach_implIfZL26convolution_backward_inputP11hb_tensor_tS1_S1_P11hb_vector_tS3_EUlvE_JEEvjjT0_8HBTensorIT_Lln1EEPS7_.isra.0>
    19ac:	01091b13          	slli	x22,x18,0x10
    19b0:	4100fd37          	lui	x26,0x4100f
    19b4:	015b0cb3          	add	x25,x22,x21
    19b8:	ad9d2c23          	sw	x25,-1320(x26) # 4100ead8 <.L2120+0x410010fc>

000019bc <.L336>:
    19bc:	0000006f          	j	19bc <.L336>

000019c0 <.L399>:
    19c0:	000007b7          	lui	x15,0x0
    19c4:	000009b7          	lui	x19,0x0
    19c8:	06f00613          	li	x12,111
    19cc:	00098593          	mv	x11,x19
    19d0:	00078513          	mv	x10,x15
    19d4:	00000097          	auipc	x1,0x0
    19d8:	000080e7          	jalr	x1 # 19d4 <.L399+0x14>
    19dc:	03c12583          	lw	x11,60(x2)
    19e0:	00000637          	lui	x12,0x0
    19e4:	00060513          	mv	x10,x12
    19e8:	00000097          	auipc	x1,0x0
    19ec:	000080e7          	jalr	x1 # 19e8 <.L399+0x28>
    19f0:	00000bb7          	lui	x23,0x0
    19f4:	000bad83          	lw	x27,0(x23) # 0 <_Z21hb_tiled_foreach_implIfZL26convolution_backward_inputP11hb_tensor_tS1_S1_P11hb_vector_tS3_EUlvE_JEEvjjT0_8HBTensorIT_Lln1EEPS7_.isra.0>
    19f8:	000002b7          	lui	x5,0x0
    19fc:	0002a383          	lw	x7,0(x5) # 0 <_Z21hb_tiled_foreach_implIfZL26convolution_backward_inputP11hb_tensor_tS1_S1_P11hb_vector_tS3_EUlvE_JEEvjjT0_8HBTensorIT_Lln1EEPS7_.isra.0>
    1a00:	010d9413          	slli	x8,x27,0x10
    1a04:	4100f8b7          	lui	x17,0x4100f
    1a08:	00740333          	add	x6,x8,x7
    1a0c:	ac68ac23          	sw	x6,-1320(x17) # 4100ead8 <.L2120+0x410010fc>

00001a10 <.L332>:
    1a10:	0000006f          	j	1a10 <.L332>

00001a14 <.L400>:
    1a14:	00000e37          	lui	x28,0x0
    1a18:	00000eb7          	lui	x29,0x0
    1a1c:	000e0593          	mv	x11,x28
    1a20:	06f00613          	li	x12,111
    1a24:	000e8513          	mv	x10,x29
    1a28:	00000097          	auipc	x1,0x0
    1a2c:	000080e7          	jalr	x1 # 1a28 <.L400+0x14>
    1a30:	03c12583          	lw	x11,60(x2)
    1a34:	00000f37          	lui	x30,0x0
    1a38:	000f0513          	mv	x10,x30
    1a3c:	00000097          	auipc	x1,0x0
    1a40:	000080e7          	jalr	x1 # 1a3c <.L400+0x28>
    1a44:	00000a37          	lui	x20,0x0
    1a48:	000a2c03          	lw	x24,0(x20) # 0 <_Z21hb_tiled_foreach_implIfZL26convolution_backward_inputP11hb_tensor_tS1_S1_P11hb_vector_tS3_EUlvE_JEEvjjT0_8HBTensorIT_Lln1EEPS7_.isra.0>
    1a4c:	00000fb7          	lui	x31,0x0
    1a50:	000fa703          	lw	x14,0(x31) # 0 <_Z21hb_tiled_foreach_implIfZL26convolution_backward_inputP11hb_tensor_tS1_S1_P11hb_vector_tS3_EUlvE_JEEvjjT0_8HBTensorIT_Lln1EEPS7_.isra.0>
    1a54:	010c1493          	slli	x9,x24,0x10
    1a58:	4100f6b7          	lui	x13,0x4100f
    1a5c:	00e48533          	add	x10,x9,x14
    1a60:	aca6ac23          	sw	x10,-1320(x13) # 4100ead8 <.L2120+0x410010fc>

00001a64 <.L334>:
    1a64:	0000006f          	j	1a64 <.L334>

00001a68 <.L402>:
    1a68:	000006b7          	lui	x13,0x0
    1a6c:	00000537          	lui	x10,0x0
    1a70:	06f00613          	li	x12,111
    1a74:	00050593          	mv	x11,x10
    1a78:	00068513          	mv	x10,x13
    1a7c:	00000097          	auipc	x1,0x0
    1a80:	000080e7          	jalr	x1 # 1a7c <.L402+0x14>
    1a84:	07012583          	lw	x11,112(x2)
    1a88:	000009b7          	lui	x19,0x0
    1a8c:	00098513          	mv	x10,x19
    1a90:	00000097          	auipc	x1,0x0
    1a94:	000080e7          	jalr	x1 # 1a90 <.L402+0x28>
    1a98:	000007b7          	lui	x15,0x0
    1a9c:	0007a603          	lw	x12,0(x15) # 0 <_Z21hb_tiled_foreach_implIfZL26convolution_backward_inputP11hb_tensor_tS1_S1_P11hb_vector_tS3_EUlvE_JEEvjjT0_8HBTensorIT_Lln1EEPS7_.isra.0>
    1aa0:	00000bb7          	lui	x23,0x0
    1aa4:	000bad83          	lw	x27,0(x23) # 0 <_Z21hb_tiled_foreach_implIfZL26convolution_backward_inputP11hb_tensor_tS1_S1_P11hb_vector_tS3_EUlvE_JEEvjjT0_8HBTensorIT_Lln1EEPS7_.isra.0>
    1aa8:	01061293          	slli	x5,x12,0x10
    1aac:	4100f437          	lui	x8,0x4100f
    1ab0:	01b283b3          	add	x7,x5,x27
    1ab4:	ac742c23          	sw	x7,-1320(x8) # 4100ead8 <.L2120+0x410010fc>

00001ab8 <.L338>:
    1ab8:	0000006f          	j	1ab8 <.L338>

00001abc <.L403>:
    1abc:	02000793          	li	x15,32
    1ac0:	ccf896e3          	bne	x17,x15,178c <.L320>
    1ac4:	cd1814e3          	bne	x16,x17,178c <.L320>
    1ac8:	cd0592e3          	bne	x11,x16,178c <.L320>
    1acc:	01000713          	li	x14,16
    1ad0:	caef1ee3          	bne	x30,x14,178c <.L320>
    1ad4:	cabb9ce3          	bne	x23,x11,178c <.L320>
    1ad8:	cb7e9ae3          	bne	x29,x23,178c <.L320>
    1adc:	00100693          	li	x13,1
    1ae0:	cadc16e3          	bne	x24,x13,178c <.L320>
    1ae4:	cb8c94e3          	bne	x25,x24,178c <.L320>
    1ae8:	cb9d12e3          	bne	x26,x25,178c <.L320>
    1aec:	cbad90e3          	bne	x27,x26,178c <.L320>
    1af0:	013a6a33          	or	x20,x20,x19
    1af4:	c80a1ce3          	bnez	x20,178c <.L320>
    1af8:	00000637          	lui	x12,0x0
    1afc:	000003b7          	lui	x7,0x0
    1b00:	00000c37          	lui	x24,0x0
    1b04:	00000bb7          	lui	x23,0x0
    1b08:	00062083          	lw	x1,0(x12) # 0 <_Z21hb_tiled_foreach_implIfZL26convolution_backward_inputP11hb_tensor_tS1_S1_P11hb_vector_tS3_EUlvE_JEEvjjT0_8HBTensorIT_Lln1EEPS7_.isra.0>
    1b0c:	0003aa83          	lw	x21,0(x7) # 0 <_Z21hb_tiled_foreach_implIfZL26convolution_backward_inputP11hb_tensor_tS1_S1_P11hb_vector_tS3_EUlvE_JEEvjjT0_8HBTensorIT_Lln1EEPS7_.isra.0>
    1b10:	000c2283          	lw	x5,0(x24) # 0 <_Z21hb_tiled_foreach_implIfZL26convolution_backward_inputP11hb_tensor_tS1_S1_P11hb_vector_tS3_EUlvE_JEEvjjT0_8HBTensorIT_Lln1EEPS7_.isra.0>
    1b14:	000ba503          	lw	x10,0(x23) # 0 <_Z21hb_tiled_foreach_implIfZL26convolution_backward_inputP11hb_tensor_tS1_S1_P11hb_vector_tS3_EUlvE_JEEvjjT0_8HBTensorIT_Lln1EEPS7_.isra.0>
    1b18:	00000337          	lui	x6,0x0
    1b1c:	00032e03          	lw	x28,0(x6) # 0 <_Z21hb_tiled_foreach_implIfZL26convolution_backward_inputP11hb_tensor_tS1_S1_P11hb_vector_tS3_EUlvE_JEEvjjT0_8HBTensorIT_Lln1EEPS7_.isra.0>
    1b20:	00508b33          	add	x22,x1,x5
    1b24:	00aa8fb3          	add	x31,x21,x10
    1b28:	018b1893          	slli	x17,x22,0x18
    1b2c:	012f9813          	slli	x16,x31,0x12
    1b30:	3f0005b7          	lui	x11,0x3f000
    1b34:	00fc0eb7          	lui	x29,0xfc0
    1b38:	000409b7          	lui	x19,0x40
    1b3c:	004e1d13          	slli	x26,x28,0x4
    1b40:	00b8ff33          	and	x30,x17,x11
    1b44:	01d87cb3          	and	x25,x16,x29
    1b48:	ff098793          	addi	x15,x19,-16 # 3fff0 <.L2120+0x32614>
    1b4c:	019f6db3          	or	x27,x30,x25
    1b50:	00fd7733          	and	x14,x26,x15
    1b54:	00ede6b3          	or	x13,x27,x14
    1b58:	80000637          	lui	x12,0x80000
    1b5c:	01092283          	lw	x5,16(x18) # 10 <_Z21hb_tiled_foreach_implIfZL26convolution_backward_inputP11hb_tensor_tS1_S1_P11hb_vector_tS3_EUlvE_JEEvjjT0_8HBTensorIT_Lln1EEPS7_.isra.0+0x10>
    1b60:	00c6e0b3          	or	x1,x13,x12
    1b64:	01042903          	lw	x18,16(x8)
    1b68:	41001437          	lui	x8,0x41001
    1b6c:	000003b7          	lui	x7,0x0
    1b70:	0104a483          	lw	x9,16(x9) # 10 <_Z21hb_tiled_foreach_implIfZL26convolution_backward_inputP11hb_tensor_tS1_S1_P11hb_vector_tS3_EUlvE_JEEvjjT0_8HBTensorIT_Lln1EEPS7_.isra.0+0x10>
    1b74:	d0142623          	sw	x1,-756(x8) # 41000d0c <.L2120+0x40ff3330>
    1b78:	0003aa83          	lw	x21,0(x7) # 0 <_Z21hb_tiled_foreach_implIfZL26convolution_backward_inputP11hb_tensor_tS1_S1_P11hb_vector_tS3_EUlvE_JEEvjjT0_8HBTensorIT_Lln1EEPS7_.isra.0>
    1b7c:	02000513          	li	x10,32
    1b80:	003af313          	andi	x6,x21,3
    1b84:	00331e13          	slli	x28,x6,0x3
    1b88:	006e0433          	add	x8,x28,x6
    1b8c:	002adb13          	srli	x22,x21,0x2
    1b90:	00940393          	addi	x7,x8,9
    1b94:	01fb7f93          	andi	x31,x22,31
    1b98:	00757463          	bgeu	x10,x7,1ba0 <.L340>
    1b9c:	02000393          	li	x7,32

00001ba0 <.L340>:
    1ba0:	006e08b3          	add	x17,x28,x6
    1ba4:	00bf9593          	slli	x11,x31,0xb
    1ba8:	00689813          	slli	x16,x17,0x6
    1bac:	40b80f33          	sub	x30,x16,x11
    1bb0:	009f0eb3          	add	x29,x30,x9
    1bb4:	00cf9c93          	slli	x25,x31,0xc
    1bb8:	40928d33          	sub	x26,x5,x9
    1bbc:	006f9d93          	slli	x27,x31,0x6
    1bc0:	001e9793          	slli	x15,x29,0x1
    1bc4:	01ac89b3          	add	x19,x25,x26
    1bc8:	012d8933          	add	x18,x27,x18
    1bcc:	00589b13          	slli	x22,x17,0x5
    1bd0:	00539d93          	slli	x27,x7,0x5
    1bd4:	40578ab3          	sub	x21,x15,x5
    1bd8:	00000493          	li	x9,0
    1bdc:	fffff0b7          	lui	x1,0xfffff
    1be0:	00001fb7          	lui	x31,0x1
    1be4:	01000f13          	li	x30,16
    1be8:	00010d37          	lui	x26,0x10
    1bec:	00004cb7          	lui	x25,0x4

00001bf0 <.L347>:
    1bf0:	01b48533          	add	x10,x9,x27
    1bf4:	013a8eb3          	add	x29,x21,x19
    1bf8:	01648e33          	add	x28,x9,x22
    1bfc:	00098293          	mv	x5,x19
    1c00:	00090893          	mv	x17,x18
    1c04:	00000313          	li	x6,0

00001c08 <.L343>:
    1c08:	0008a687          	flw	f13,0(x17)
    1c0c:	000e0693          	mv	x13,x28
    1c10:	000e8593          	mv	x11,x29
    1c14:	ffc28813          	addi	x16,x5,-4
    1c18:	04747a63          	bgeu	x8,x7,1c6c <.L346>

00001c1c <.L341>:
    1c1c:	00458713          	addi	x14,x11,4 # 3f000004 <.L2120+0x3eff2628>
    1c20:	0005a007          	flw	f0,0(x11)
    1c24:	f0000753          	fmv.w.x	f14,x0
    1c28:	08058593          	addi	x11,x11,128
    1c2c:	00e80633          	add	x12,x16,x14
    1c30:	00030463          	beqz	x6,1c38 <.L365>

00001c34 <.L405>:
    1c34:	00062707          	flw	f14,0(x12) # 80000000 <.L2120+0x7fff2624>

00001c38 <.L365>:
    1c38:	70d077c3          	fmadd.s	f15,f0,f13,f14
    1c3c:	00f62027          	fsw	f15,0(x12)
    1c40:	02e58263          	beq	x11,x14,1c64 <.L404>

00001c44 <.L345>:
    1c44:	00072007          	flw	f0,0(x14)
    1c48:	00470713          	addi	x14,x14,4
    1c4c:	f0000753          	fmv.w.x	f14,x0
    1c50:	00e80633          	add	x12,x16,x14
    1c54:	fe0310e3          	bnez	x6,1c34 <.L405>
    1c58:	70d077c3          	fmadd.s	f15,f0,f13,f14
    1c5c:	00f62027          	fsw	f15,0(x12)
    1c60:	fee592e3          	bne	x11,x14,1c44 <.L345>

00001c64 <.L404>:
    1c64:	02068693          	addi	x13,x13,32 # 20 <.L8+0xc>
    1c68:	faa69ae3          	bne	x13,x10,1c1c <.L341>

00001c6c <.L346>:
    1c6c:	00130313          	addi	x6,x6,1
    1c70:	00488893          	addi	x17,x17,4
    1c74:	40050513          	addi	x10,x10,1024 # 400 <.L112+0xc>
    1c78:	001282b3          	add	x5,x5,x1
    1c7c:	01fe8eb3          	add	x29,x29,x31
    1c80:	400e0e13          	addi	x28,x28,1024 # 400 <.L112+0xc>
    1c84:	f9e312e3          	bne	x6,x30,1c08 <.L343>
    1c88:	019484b3          	add	x9,x9,x25
    1c8c:	000207b7          	lui	x15,0x20
    1c90:	01a989b3          	add	x19,x19,x26
    1c94:	f4f49ee3          	bne	x9,x15,1bf0 <.L347>
    1c98:	00000637          	lui	x12,0x0
    1c9c:	000003b7          	lui	x7,0x0
    1ca0:	00062083          	lw	x1,0(x12) # 0 <_Z21hb_tiled_foreach_implIfZL26convolution_backward_inputP11hb_tensor_tS1_S1_P11hb_vector_tS3_EUlvE_JEEvjjT0_8HBTensorIT_Lln1EEPS7_.isra.0>
    1ca4:	0003a403          	lw	x8,0(x7) # 0 <_Z21hb_tiled_foreach_implIfZL26convolution_backward_inputP11hb_tensor_tS1_S1_P11hb_vector_tS3_EUlvE_JEEvjjT0_8HBTensorIT_Lln1EEPS7_.isra.0>
    1ca8:	000c2283          	lw	x5,0(x24)
    1cac:	000ba503          	lw	x10,0(x23)
    1cb0:	00000337          	lui	x6,0x0
    1cb4:	00032583          	lw	x11,0(x6) # 0 <_Z21hb_tiled_foreach_implIfZL26convolution_backward_inputP11hb_tensor_tS1_S1_P11hb_vector_tS3_EUlvE_JEEvjjT0_8HBTensorIT_Lln1EEPS7_.isra.0>
    1cb8:	00508833          	add	x16,x1,x5
    1cbc:	00a408b3          	add	x17,x8,x10
    1cc0:	01881913          	slli	x18,x16,0x18
    1cc4:	01289a93          	slli	x21,x17,0x12
    1cc8:	3f000b37          	lui	x22,0x3f000
    1ccc:	00fc0d37          	lui	x26,0xfc0
    1cd0:	00040f37          	lui	x30,0x40
    1cd4:	01697cb3          	and	x25,x18,x22
    1cd8:	01aafdb3          	and	x27,x21,x26
    1cdc:	00459e13          	slli	x28,x11,0x4
    1ce0:	ff0f0f93          	addi	x31,x30,-16 # 3fff0 <.L2120+0x32614>
    1ce4:	01bceeb3          	or	x29,x25,x27
    1ce8:	01fe7733          	and	x14,x28,x31
    1cec:	00eee6b3          	or	x13,x29,x14
    1cf0:	c00004b7          	lui	x9,0xc0000
    1cf4:	0096e9b3          	or	x19,x13,x9
    1cf8:	410017b7          	lui	x15,0x41001
    1cfc:	d137a623          	sw	x19,-756(x15) # 41000d0c <.L2120+0x40ff3330>
    1d00:	000ba603          	lw	x12,0(x23)
    1d04:	000c2083          	lw	x1,0(x24)
    1d08:	00000537          	lui	x10,0x0
    1d0c:	00460293          	addi	x5,x12,4
    1d10:	00050693          	mv	x13,x10
    1d14:	005683b3          	add	x7,x13,x5
    1d18:	01809413          	slli	x8,x1,0x18
    1d1c:	0083e333          	or	x6,x7,x8
    1d20:	201c05b7          	lui	x11,0x201c0
    1d24:	00b36833          	or	x16,x6,x11
    1d28:	00100893          	li	x17,1
    1d2c:	01180023          	sb	x17,0(x16)
    1d30:	000ba903          	lw	x18,0(x23)
    1d34:	00700a93          	li	x21,7
    1d38:	03590863          	beq	x18,x21,1d68 <.L406>

00001d3c <.L358>:
    1d3c:	00100a13          	li	x20,1
    1d40:	0100006f          	j	1d50 <.L363>

00001d44 <.L407>:
    1d44:	00050713          	mv	x14,x10
    1d48:	140724af          	lr.w.aq	x9,(x14)
    1d4c:	01448863          	beq	x9,x20,1d5c <.L362>

00001d50 <.L363>:
    1d50:	00050c13          	mv	x24,x10
    1d54:	100c2faf          	lr.w	x31,(x24)
    1d58:	ff4f96e3          	bne	x31,x20,1d44 <.L407>

00001d5c <.L362>:
    1d5c:	0006a023          	sw	x0,0(x13)
    1d60:	00000513          	li	x10,0
    1d64:	a29ff06f          	j	178c <.L320>

00001d68 <.L406>:
    1d68:	00000b37          	lui	x22,0x0
    1d6c:	00000d37          	lui	x26,0x0
    1d70:	004b0c93          	addi	x25,x22,4 # 4 <_Z21hb_tiled_foreach_implIfZL26convolution_backward_inputP11hb_tensor_tS1_S1_P11hb_vector_tS3_EUlvE_JEEvjjT0_8HBTensorIT_Lln1EEPS7_.isra.0+0x4>
    1d74:	014d0d93          	addi	x27,x26,20 # 14 <.L8>

00001d78 <.L349>:
    1d78:	000c8e93          	mv	x29,x25

00001d7c <.L351>:
    1d7c:	000ece03          	lbu	x28,0(x29) # fc0000 <.L2120+0xfb2624>
    1d80:	001e8e93          	addi	x29,x29,1
    1d84:	0ffe7f13          	andi	x30,x28,255
    1d88:	fe0f08e3          	beqz	x30,1d78 <.L349>
    1d8c:	ffdd98e3          	bne	x27,x29,1d7c <.L351>
    1d90:	000c2f83          	lw	x31,0(x24)
    1d94:	231c09b7          	lui	x19,0x231c0
    1d98:	00100613          	li	x12,1
    1d9c:	018f8713          	addi	x14,x31,24 # 1018 <.L314+0x1c>
    1da0:	00e684b3          	add	x9,x13,x14
    1da4:	0134e7b3          	or	x15,x9,x19
    1da8:	00c78023          	sb	x12,0(x15)
    1dac:	000ba083          	lw	x1,0(x23)
    1db0:	00700293          	li	x5,7
    1db4:	f85094e3          	bne	x1,x5,1d3c <.L358>
    1db8:	000c2383          	lw	x7,0(x24)
    1dbc:	00300413          	li	x8,3
    1dc0:	06838c63          	beq	x7,x8,1e38 <.L408>

00001dc4 <.L357>:
    1dc4:	00100d93          	li	x27,1
    1dc8:	0100006f          	j	1dd8 <.L353>

00001dcc <.L409>:
    1dcc:	01468393          	addi	x7,x13,20
    1dd0:	1403a42f          	lr.w.aq	x8,(x7)
    1dd4:	01b40863          	beq	x8,x27,1de4 <.L359>

00001dd8 <.L353>:
    1dd8:	01468093          	addi	x1,x13,20
    1ddc:	1000a2af          	lr.w	x5,(x1)
    1de0:	ffb296e3          	bne	x5,x27,1dcc <.L409>

00001de4 <.L359>:
    1de4:	0006aa23          	sw	x0,20(x13)
    1de8:	00000593          	li	x11,0
    1dec:	01000313          	li	x6,16

00001df0 <.L360>:
    1df0:	00b688b3          	add	x17,x13,x11
    1df4:	00088223          	sb	x0,4(x17)
    1df8:	00158593          	addi	x11,x11,1 # 201c0001 <.L2120+0x201b2625>
    1dfc:	fe659ae3          	bne	x11,x6,1df0 <.L360>
    1e00:	0006a023          	sw	x0,0(x13)
    1e04:	20000937          	lui	x18,0x20000
    1e08:	00100813          	li	x16,1
    1e0c:	00040ab7          	lui	x21,0x40
    1e10:	00400b37          	lui	x22,0x400

00001e14 <.L361>:
    1e14:	000c2c83          	lw	x25,0(x24)
    1e18:	0146ed33          	or	x26,x13,x20
    1e1c:	015a0a33          	add	x20,x20,x21
    1e20:	018c9e13          	slli	x28,x25,0x18
    1e24:	01ae6eb3          	or	x29,x28,x26
    1e28:	012eef33          	or	x30,x29,x18
    1e2c:	010f2023          	sw	x16,0(x30)
    1e30:	ff6a12e3          	bne	x20,x22,1e14 <.L361>
    1e34:	f09ff06f          	j	1d3c <.L358>

00001e38 <.L408>:
    1e38:	00000337          	lui	x6,0x0
    1e3c:	000005b7          	lui	x11,0x0
    1e40:	01830893          	addi	x17,x6,24 # 18 <.L8+0x4>
    1e44:	02058813          	addi	x16,x11,32 # 20 <.L8+0xc>

00001e48 <.L352>:
    1e48:	00088a93          	mv	x21,x17

00001e4c <.L354>:
    1e4c:	000ac903          	lbu	x18,0(x21) # 40000 <.L2120+0x32624>
    1e50:	001a8a93          	addi	x21,x21,1
    1e54:	0ff97b13          	andi	x22,x18,255
    1e58:	fe0b08e3          	beqz	x22,1e48 <.L352>
    1e5c:	ff5818e3          	bne	x16,x21,1e4c <.L354>
    1e60:	00068c23          	sb	x0,24(x13)
    1e64:	00068ca3          	sb	x0,25(x13)
    1e68:	00068d23          	sb	x0,26(x13)
    1e6c:	00068da3          	sb	x0,27(x13)
    1e70:	00068e23          	sb	x0,28(x13)
    1e74:	00068ea3          	sb	x0,29(x13)
    1e78:	00068f23          	sb	x0,30(x13)
    1e7c:	00068fa3          	sb	x0,31(x13)
    1e80:	0006aa23          	sw	x0,20(x13)
    1e84:	00000613          	li	x12,0
    1e88:	03fc0cb7          	lui	x25,0x3fc0
    1e8c:	20000d37          	lui	x26,0x20000
    1e90:	00100e13          	li	x28,1
    1e94:	01000eb7          	lui	x29,0x1000
    1e98:	08000f37          	lui	x30,0x8000

00001e9c <.L356>:
    1e9c:	01209f93          	slli	x31,x1,0x12
    1ea0:	00cde733          	or	x14,x27,x12
    1ea4:	019ff4b3          	and	x9,x31,x25
    1ea8:	00e4e9b3          	or	x19,x9,x14
    1eac:	01a9e7b3          	or	x15,x19,x26
    1eb0:	01c7a023          	sw	x28,0(x15)
    1eb4:	01d60633          	add	x12,x12,x29
    1eb8:	000ba083          	lw	x1,0(x23)
    1ebc:	ffe610e3          	bne	x12,x30,1e9c <.L356>
    1ec0:	00700b93          	li	x23,7
    1ec4:	f17080e3          	beq	x1,x23,1dc4 <.L357>
    1ec8:	e75ff06f          	j	1d3c <.L358>

00001ecc <_ZN12_GLOBAL__N_128convolution_forward_templateILm8ELm64ELm16ELm16ELm32ELm16ELm16ELm1ELm1ELm1ELm1ELm0ELm0EEEiP11hb_tensor_tS2_S2_P11hb_vector_tS4_>:
    1ecc:	f2010113          	addi	x2,x2,-224
    1ed0:	0d312623          	sw	x19,204(x2)
    1ed4:	00050993          	mv	x19,x10
    1ed8:	0c912a23          	sw	x9,212(x2)
    1edc:	00410513          	addi	x10,x2,4
    1ee0:	00058493          	mv	x9,x11
    1ee4:	00098593          	mv	x11,x19
    1ee8:	0c112e23          	sw	x1,220(x2)
    1eec:	0c812c23          	sw	x8,216(x2)
    1ef0:	0d212823          	sw	x18,208(x2)
    1ef4:	00060413          	mv	x8,x12
    1ef8:	00070913          	mv	x18,x14
    1efc:	0d412423          	sw	x20,200(x2)
    1f00:	0d512223          	sw	x21,196(x2)
    1f04:	00068a13          	mv	x20,x13
    1f08:	0d612023          	sw	x22,192(x2)
    1f0c:	0b712e23          	sw	x23,188(x2)
    1f10:	0b812c23          	sw	x24,184(x2)
    1f14:	0b912a23          	sw	x25,180(x2)
    1f18:	0ba12823          	sw	x26,176(x2)
    1f1c:	0bb12623          	sw	x27,172(x2)
    1f20:	00000097          	auipc	x1,0x0
    1f24:	000080e7          	jalr	x1 # 1f20 <_ZN12_GLOBAL__N_128convolution_forward_templateILm8ELm64ELm16ELm16ELm32ELm16ELm16ELm1ELm1ELm1ELm1ELm0ELm0EEEiP11hb_tensor_tS2_S2_P11hb_vector_tS4_+0x54>
    1f28:	00048593          	mv	x11,x9
    1f2c:	03810513          	addi	x10,x2,56
    1f30:	00000097          	auipc	x1,0x0
    1f34:	000080e7          	jalr	x1 # 1f30 <_ZN12_GLOBAL__N_128convolution_forward_templateILm8ELm64ELm16ELm16ELm32ELm16ELm16ELm1ELm1ELm1ELm1ELm0ELm0EEEiP11hb_tensor_tS2_S2_P11hb_vector_tS4_+0x64>
    1f38:	00040593          	mv	x11,x8
    1f3c:	06c10513          	addi	x10,x2,108
    1f40:	00000097          	auipc	x1,0x0
    1f44:	000080e7          	jalr	x1 # 1f40 <_ZN12_GLOBAL__N_128convolution_forward_templateILm8ELm64ELm16ELm16ELm32ELm16ELm16ELm1ELm1ELm1ELm1ELm0ELm0EEEiP11hb_tensor_tS2_S2_P11hb_vector_tS4_+0x74>
    1f48:	00812783          	lw	x15,8(x2)
    1f4c:	10078e63          	beqz	x15,2068 <.L484>
    1f50:	00100713          	li	x14,1
    1f54:	0cf77063          	bgeu	x14,x15,2014 <.L485>
    1f58:	00200693          	li	x13,2
    1f5c:	1ad78a63          	beq	x15,x13,2110 <.L486>
    1f60:	00300613          	li	x12,3
    1f64:	20c78063          	beq	x15,x12,2164 <.L487>
    1f68:	03c12083          	lw	x1,60(x2)
    1f6c:	14177863          	bgeu	x14,x1,20bc <.L488>
    1f70:	28d08e63          	beq	x1,x13,220c <.L489>
    1f74:	2ec08663          	beq	x1,x12,2260 <.L490>
    1f78:	07012283          	lw	x5,112(x2)
    1f7c:	2256fe63          	bgeu	x13,x5,21b8 <.L491>
    1f80:	32c28a63          	beq	x5,x12,22b4 <.L492>
    1f84:	01012383          	lw	x7,16(x2)
    1f88:	04412a83          	lw	x21,68(x2)
    1f8c:	004a2503          	lw	x10,4(x20)
    1f90:	00492883          	lw	x17,4(x18) # 20000004 <.L2120+0x1fff2628>
    1f94:	07812303          	lw	x6,120(x2)
    1f98:	0003ab03          	lw	x22,0(x7)
    1f9c:	00800f13          	li	x30,8
    1fa0:	00052a03          	lw	x20,0(x10) # 0 <_Z21hb_tiled_foreach_implIfZL26convolution_backward_inputP11hb_tensor_tS1_S1_P11hb_vector_tS3_EUlvE_JEEvjjT0_8HBTensorIT_Lln1EEPS7_.isra.0>
    1fa4:	00452903          	lw	x18,4(x10)
    1fa8:	0043af83          	lw	x31,4(x7)
    1fac:	0083a803          	lw	x16,8(x7)
    1fb0:	00c3a583          	lw	x11,12(x7)
    1fb4:	004aae83          	lw	x29,4(x21)
    1fb8:	008aab83          	lw	x23,8(x21)
    1fbc:	00caae03          	lw	x28,12(x21)
    1fc0:	00832c03          	lw	x24,8(x6)
    1fc4:	00c32c83          	lw	x25,12(x6)
    1fc8:	0008ad03          	lw	x26,0(x17)
    1fcc:	0048ad83          	lw	x27,4(x17)
    1fd0:	fff00513          	li	x10,-1
    1fd4:	33eb0a63          	beq	x22,x30,2308 <.L493>

00001fd8 <.L410>:
    1fd8:	0dc12083          	lw	x1,220(x2)
    1fdc:	0d812403          	lw	x8,216(x2)
    1fe0:	0d412483          	lw	x9,212(x2)
    1fe4:	0d012903          	lw	x18,208(x2)
    1fe8:	0cc12983          	lw	x19,204(x2)
    1fec:	0c812a03          	lw	x20,200(x2)
    1ff0:	0c412a83          	lw	x21,196(x2)
    1ff4:	0c012b03          	lw	x22,192(x2)
    1ff8:	0bc12b83          	lw	x23,188(x2)
    1ffc:	0b812c03          	lw	x24,184(x2)
    2000:	0b412c83          	lw	x25,180(x2)
    2004:	0b012d03          	lw	x26,176(x2)
    2008:	0ac12d83          	lw	x27,172(x2)
    200c:	0e010113          	addi	x2,x2,224
    2010:	00008067          	ret

00002014 <.L485>:
    2014:	000000b7          	lui	x1,0x0
    2018:	00000a37          	lui	x20,0x0
    201c:	00008593          	mv	x11,x1
    2020:	06f00613          	li	x12,111
    2024:	000a0513          	mv	x10,x20
    2028:	00000097          	auipc	x1,0x0
    202c:	000080e7          	jalr	x1 # 2028 <.L485+0x14>
    2030:	00812583          	lw	x11,8(x2)
    2034:	00000bb7          	lui	x23,0x0
    2038:	000b8513          	mv	x10,x23
    203c:	00000097          	auipc	x1,0x0
    2040:	000080e7          	jalr	x1 # 203c <.L485+0x28>
    2044:	000005b7          	lui	x11,0x0
    2048:	0005ac03          	lw	x24,0(x11) # 0 <_Z21hb_tiled_foreach_implIfZL26convolution_backward_inputP11hb_tensor_tS1_S1_P11hb_vector_tS3_EUlvE_JEEvjjT0_8HBTensorIT_Lln1EEPS7_.isra.0>
    204c:	00000cb7          	lui	x25,0x0
    2050:	000cad83          	lw	x27,0(x25) # 0 <_Z21hb_tiled_foreach_implIfZL26convolution_backward_inputP11hb_tensor_tS1_S1_P11hb_vector_tS3_EUlvE_JEEvjjT0_8HBTensorIT_Lln1EEPS7_.isra.0>
    2054:	010c1e13          	slli	x28,x24,0x10
    2058:	4100f937          	lui	x18,0x4100f
    205c:	01be0eb3          	add	x29,x28,x27
    2060:	add92c23          	sw	x29,-1320(x18) # 4100ead8 <.L2120+0x410010fc>

00002064 <.L414>:
    2064:	0000006f          	j	2064 <.L414>

00002068 <.L484>:
    2068:	00000f37          	lui	x30,0x0
    206c:	00000b37          	lui	x22,0x0
    2070:	06f00613          	li	x12,111
    2074:	000b0593          	mv	x11,x22
    2078:	000f0513          	mv	x10,x30
    207c:	00000097          	auipc	x1,0x0
    2080:	000080e7          	jalr	x1 # 207c <.L484+0x14>
    2084:	00812583          	lw	x11,8(x2)
    2088:	00000fb7          	lui	x31,0x0
    208c:	000f8513          	mv	x10,x31
    2090:	00000097          	auipc	x1,0x0
    2094:	000080e7          	jalr	x1 # 2090 <.L484+0x28>
    2098:	000007b7          	lui	x15,0x0
    209c:	0007a503          	lw	x10,0(x15) # 0 <_Z21hb_tiled_foreach_implIfZL26convolution_backward_inputP11hb_tensor_tS1_S1_P11hb_vector_tS3_EUlvE_JEEvjjT0_8HBTensorIT_Lln1EEPS7_.isra.0>
    20a0:	000006b7          	lui	x13,0x0
    20a4:	0006a383          	lw	x7,0(x13) # 0 <_Z21hb_tiled_foreach_implIfZL26convolution_backward_inputP11hb_tensor_tS1_S1_P11hb_vector_tS3_EUlvE_JEEvjjT0_8HBTensorIT_Lln1EEPS7_.isra.0>
    20a8:	01051713          	slli	x14,x10,0x10
    20ac:	4100fab7          	lui	x21,0x4100f
    20b0:	007704b3          	add	x9,x14,x7
    20b4:	ac9aac23          	sw	x9,-1320(x21) # 4100ead8 <.L2120+0x410010fc>

000020b8 <.L412>:
    20b8:	0000006f          	j	20b8 <.L412>

000020bc <.L488>:
    20bc:	000000b7          	lui	x1,0x0
    20c0:	000009b7          	lui	x19,0x0
    20c4:	00008593          	mv	x11,x1
    20c8:	06f00613          	li	x12,111
    20cc:	00098513          	mv	x10,x19
    20d0:	00000097          	auipc	x1,0x0
    20d4:	000080e7          	jalr	x1 # 20d0 <.L488+0x14>
    20d8:	03c12583          	lw	x11,60(x2)
    20dc:	00000837          	lui	x16,0x0
    20e0:	00080513          	mv	x10,x16
    20e4:	00000097          	auipc	x1,0x0
    20e8:	000080e7          	jalr	x1 # 20e4 <.L488+0x28>
    20ec:	000005b7          	lui	x11,0x0
    20f0:	0005aa03          	lw	x20,0(x11) # 0 <_Z21hb_tiled_foreach_implIfZL26convolution_backward_inputP11hb_tensor_tS1_S1_P11hb_vector_tS3_EUlvE_JEEvjjT0_8HBTensorIT_Lln1EEPS7_.isra.0>
    20f4:	00000bb7          	lui	x23,0x0
    20f8:	000bac03          	lw	x24,0(x23) # 0 <_Z21hb_tiled_foreach_implIfZL26convolution_backward_inputP11hb_tensor_tS1_S1_P11hb_vector_tS3_EUlvE_JEEvjjT0_8HBTensorIT_Lln1EEPS7_.isra.0>
    20fc:	010a1c93          	slli	x25,x20,0x10
    2100:	4100fe37          	lui	x28,0x4100f
    2104:	018c8db3          	add	x27,x25,x24
    2108:	adbe2c23          	sw	x27,-1320(x28) # 4100ead8 <.L2120+0x410010fc>

0000210c <.L420>:
    210c:	0000006f          	j	210c <.L420>

00002110 <.L486>:
    2110:	000004b7          	lui	x9,0x0
    2114:	00000ab7          	lui	x21,0x0
    2118:	06f00613          	li	x12,111
    211c:	00048593          	mv	x11,x9
    2120:	000a8513          	mv	x10,x21
    2124:	00000097          	auipc	x1,0x0
    2128:	000080e7          	jalr	x1 # 2124 <.L486+0x14>
    212c:	00812583          	lw	x11,8(x2)
    2130:	00000d37          	lui	x26,0x0
    2134:	000d0513          	mv	x10,x26
    2138:	00000097          	auipc	x1,0x0
    213c:	000080e7          	jalr	x1 # 2138 <.L486+0x28>
    2140:	000002b7          	lui	x5,0x0
    2144:	0002a403          	lw	x8,0(x5) # 0 <_Z21hb_tiled_foreach_implIfZL26convolution_backward_inputP11hb_tensor_tS1_S1_P11hb_vector_tS3_EUlvE_JEEvjjT0_8HBTensorIT_Lln1EEPS7_.isra.0>
    2148:	00000637          	lui	x12,0x0
    214c:	00062303          	lw	x6,0(x12) # 0 <_Z21hb_tiled_foreach_implIfZL26convolution_backward_inputP11hb_tensor_tS1_S1_P11hb_vector_tS3_EUlvE_JEEvjjT0_8HBTensorIT_Lln1EEPS7_.isra.0>
    2150:	01041893          	slli	x17,x8,0x10
    2154:	4100f837          	lui	x16,0x4100f
    2158:	006889b3          	add	x19,x17,x6
    215c:	ad382c23          	sw	x19,-1320(x16) # 4100ead8 <.L2120+0x410010fc>

00002160 <.L416>:
    2160:	0000006f          	j	2160 <.L416>

00002164 <.L487>:
    2164:	00000eb7          	lui	x29,0x0
    2168:	00000937          	lui	x18,0x0
    216c:	000e8593          	mv	x11,x29
    2170:	06f00613          	li	x12,111
    2174:	00090513          	mv	x10,x18
    2178:	00000097          	auipc	x1,0x0
    217c:	000080e7          	jalr	x1 # 2178 <.L487+0x14>
    2180:	00812583          	lw	x11,8(x2)
    2184:	00000b37          	lui	x22,0x0
    2188:	000b0513          	mv	x10,x22
    218c:	00000097          	auipc	x1,0x0
    2190:	000080e7          	jalr	x1 # 218c <.L487+0x28>
    2194:	00000f37          	lui	x30,0x0
    2198:	000f2f83          	lw	x31,0(x30) # 0 <_Z21hb_tiled_foreach_implIfZL26convolution_backward_inputP11hb_tensor_tS1_S1_P11hb_vector_tS3_EUlvE_JEEvjjT0_8HBTensorIT_Lln1EEPS7_.isra.0>
    219c:	000007b7          	lui	x15,0x0
    21a0:	0007a503          	lw	x10,0(x15) # 0 <_Z21hb_tiled_foreach_implIfZL26convolution_backward_inputP11hb_tensor_tS1_S1_P11hb_vector_tS3_EUlvE_JEEvjjT0_8HBTensorIT_Lln1EEPS7_.isra.0>
    21a4:	010f9693          	slli	x13,x31,0x10
    21a8:	4100f737          	lui	x14,0x4100f
    21ac:	00a683b3          	add	x7,x13,x10
    21b0:	ac772c23          	sw	x7,-1320(x14) # 4100ead8 <.L2120+0x410010fc>

000021b4 <.L418>:
    21b4:	0000006f          	j	21b4 <.L418>

000021b8 <.L491>:
    21b8:	000000b7          	lui	x1,0x0
    21bc:	00000337          	lui	x6,0x0
    21c0:	00008593          	mv	x11,x1
    21c4:	06f00613          	li	x12,111
    21c8:	00030513          	mv	x10,x6
    21cc:	00000097          	auipc	x1,0x0
    21d0:	000080e7          	jalr	x1 # 21cc <.L491+0x14>
    21d4:	07012583          	lw	x11,112(x2)
    21d8:	000008b7          	lui	x17,0x0
    21dc:	00088513          	mv	x10,x17
    21e0:	00000097          	auipc	x1,0x0
    21e4:	000080e7          	jalr	x1 # 21e0 <.L491+0x28>
    21e8:	000005b7          	lui	x11,0x0
    21ec:	0005a983          	lw	x19,0(x11) # 0 <_Z21hb_tiled_foreach_implIfZL26convolution_backward_inputP11hb_tensor_tS1_S1_P11hb_vector_tS3_EUlvE_JEEvjjT0_8HBTensorIT_Lln1EEPS7_.isra.0>
    21f0:	00000837          	lui	x16,0x0
    21f4:	00082a03          	lw	x20,0(x16) # 0 <_Z21hb_tiled_foreach_implIfZL26convolution_backward_inputP11hb_tensor_tS1_S1_P11hb_vector_tS3_EUlvE_JEEvjjT0_8HBTensorIT_Lln1EEPS7_.isra.0>
    21f8:	01099b93          	slli	x23,x19,0x10
    21fc:	4100fcb7          	lui	x25,0x4100f
    2200:	014b8c33          	add	x24,x23,x20
    2204:	ad8cac23          	sw	x24,-1320(x25) # 4100ead8 <.L2120+0x410010fc>

00002208 <.L426>:
    2208:	0000006f          	j	2208 <.L426>

0000220c <.L489>:
    220c:	00000737          	lui	x14,0x0
    2210:	000003b7          	lui	x7,0x0
    2214:	06f00613          	li	x12,111
    2218:	00070593          	mv	x11,x14
    221c:	00038513          	mv	x10,x7
    2220:	00000097          	auipc	x1,0x0
    2224:	000080e7          	jalr	x1 # 2220 <.L489+0x14>
    2228:	03c12583          	lw	x11,60(x2)
    222c:	000004b7          	lui	x9,0x0
    2230:	00048513          	mv	x10,x9
    2234:	00000097          	auipc	x1,0x0
    2238:	000080e7          	jalr	x1 # 2234 <.L489+0x28>
    223c:	00000ab7          	lui	x21,0x0
    2240:	000aad03          	lw	x26,0(x21) # 0 <_Z21hb_tiled_foreach_implIfZL26convolution_backward_inputP11hb_tensor_tS1_S1_P11hb_vector_tS3_EUlvE_JEEvjjT0_8HBTensorIT_Lln1EEPS7_.isra.0>
    2244:	000002b7          	lui	x5,0x0
    2248:	0002a403          	lw	x8,0(x5) # 0 <_Z21hb_tiled_foreach_implIfZL26convolution_backward_inputP11hb_tensor_tS1_S1_P11hb_vector_tS3_EUlvE_JEEvjjT0_8HBTensorIT_Lln1EEPS7_.isra.0>
    224c:	010d1613          	slli	x12,x26,0x10
    2250:	4100f8b7          	lui	x17,0x4100f
    2254:	00860333          	add	x6,x12,x8
    2258:	ac68ac23          	sw	x6,-1320(x17) # 4100ead8 <.L2120+0x410010fc>

0000225c <.L422>:
    225c:	0000006f          	j	225c <.L422>

00002260 <.L490>:
    2260:	00000e37          	lui	x28,0x0
    2264:	00000db7          	lui	x27,0x0
    2268:	06f00613          	li	x12,111
    226c:	000d8593          	mv	x11,x27
    2270:	000e0513          	mv	x10,x28
    2274:	00000097          	auipc	x1,0x0
    2278:	000080e7          	jalr	x1 # 2274 <.L490+0x14>
    227c:	03c12583          	lw	x11,60(x2)
    2280:	00000eb7          	lui	x29,0x0
    2284:	000e8513          	mv	x10,x29
    2288:	00000097          	auipc	x1,0x0
    228c:	000080e7          	jalr	x1 # 2288 <.L490+0x28>
    2290:	00000937          	lui	x18,0x0
    2294:	00092b03          	lw	x22,0(x18) # 0 <_Z21hb_tiled_foreach_implIfZL26convolution_backward_inputP11hb_tensor_tS1_S1_P11hb_vector_tS3_EUlvE_JEEvjjT0_8HBTensorIT_Lln1EEPS7_.isra.0>
    2298:	00000f37          	lui	x30,0x0
    229c:	000f2f83          	lw	x31,0(x30) # 0 <_Z21hb_tiled_foreach_implIfZL26convolution_backward_inputP11hb_tensor_tS1_S1_P11hb_vector_tS3_EUlvE_JEEvjjT0_8HBTensorIT_Lln1EEPS7_.isra.0>
    22a0:	010b1793          	slli	x15,x22,0x10
    22a4:	4100f6b7          	lui	x13,0x4100f
    22a8:	01f78533          	add	x10,x15,x31
    22ac:	aca6ac23          	sw	x10,-1320(x13) # 4100ead8 <.L2120+0x410010fc>

000022b0 <.L424>:
    22b0:	0000006f          	j	22b0 <.L424>

000022b4 <.L492>:
    22b4:	000006b7          	lui	x13,0x0
    22b8:	00000537          	lui	x10,0x0
    22bc:	06f00613          	li	x12,111
    22c0:	00050593          	mv	x11,x10
    22c4:	00068513          	mv	x10,x13
    22c8:	00000097          	auipc	x1,0x0
    22cc:	000080e7          	jalr	x1 # 22c8 <.L492+0x14>
    22d0:	07012583          	lw	x11,112(x2)
    22d4:	00000737          	lui	x14,0x0
    22d8:	00070513          	mv	x10,x14
    22dc:	00000097          	auipc	x1,0x0
    22e0:	000080e7          	jalr	x1 # 22dc <.L492+0x28>
    22e4:	000003b7          	lui	x7,0x0
    22e8:	0003a483          	lw	x9,0(x7) # 0 <_Z21hb_tiled_foreach_implIfZL26convolution_backward_inputP11hb_tensor_tS1_S1_P11hb_vector_tS3_EUlvE_JEEvjjT0_8HBTensorIT_Lln1EEPS7_.isra.0>
    22ec:	00000ab7          	lui	x21,0x0
    22f0:	000aad03          	lw	x26,0(x21) # 0 <_Z21hb_tiled_foreach_implIfZL26convolution_backward_inputP11hb_tensor_tS1_S1_P11hb_vector_tS3_EUlvE_JEEvjjT0_8HBTensorIT_Lln1EEPS7_.isra.0>
    22f4:	01049293          	slli	x5,x9,0x10
    22f8:	4100f637          	lui	x12,0x4100f
    22fc:	01a28433          	add	x8,x5,x26
    2300:	ac862c23          	sw	x8,-1320(x12) # 4100ead8 <.L2120+0x410010fc>

00002304 <.L428>:
    2304:	0000006f          	j	2304 <.L428>

00002308 <.L493>:
    2308:	04000793          	li	x15,64
    230c:	ccff96e3          	bne	x31,x15,1fd8 <.L410>
    2310:	01000713          	li	x14,16
    2314:	cce812e3          	bne	x16,x14,1fd8 <.L410>
    2318:	cd0590e3          	bne	x11,x16,1fd8 <.L410>
    231c:	02000693          	li	x13,32
    2320:	cade9ce3          	bne	x29,x13,1fd8 <.L410>
    2324:	cabb9ae3          	bne	x23,x11,1fd8 <.L410>
    2328:	cb7e18e3          	bne	x28,x23,1fd8 <.L410>
    232c:	00100613          	li	x12,1
    2330:	cacc14e3          	bne	x24,x12,1fd8 <.L410>
    2334:	cb8c92e3          	bne	x25,x24,1fd8 <.L410>
    2338:	cb9d10e3          	bne	x26,x25,1fd8 <.L410>
    233c:	c9ad9ee3          	bne	x27,x26,1fd8 <.L410>
    2340:	012a6933          	or	x18,x20,x18
    2344:	c8091ae3          	bnez	x18,1fd8 <.L410>
    2348:	000003b7          	lui	x7,0x0
    234c:	00000db7          	lui	x27,0x0
    2350:	00000b37          	lui	x22,0x0
    2354:	00000ab7          	lui	x21,0x0
    2358:	0003a503          	lw	x10,0(x7) # 0 <_Z21hb_tiled_foreach_implIfZL26convolution_backward_inputP11hb_tensor_tS1_S1_P11hb_vector_tS3_EUlvE_JEEvjjT0_8HBTensorIT_Lln1EEPS7_.isra.0>
    235c:	000da083          	lw	x1,0(x27) # 0 <_Z21hb_tiled_foreach_implIfZL26convolution_backward_inputP11hb_tensor_tS1_S1_P11hb_vector_tS3_EUlvE_JEEvjjT0_8HBTensorIT_Lln1EEPS7_.isra.0>
    2360:	000b2283          	lw	x5,0(x22) # 0 <_Z21hb_tiled_foreach_implIfZL26convolution_backward_inputP11hb_tensor_tS1_S1_P11hb_vector_tS3_EUlvE_JEEvjjT0_8HBTensorIT_Lln1EEPS7_.isra.0>
    2364:	000aa883          	lw	x17,0(x21) # 0 <_Z21hb_tiled_foreach_implIfZL26convolution_backward_inputP11hb_tensor_tS1_S1_P11hb_vector_tS3_EUlvE_JEEvjjT0_8HBTensorIT_Lln1EEPS7_.isra.0>
    2368:	00000337          	lui	x6,0x0
    236c:	00032f03          	lw	x30,0(x6) # 0 <_Z21hb_tiled_foreach_implIfZL26convolution_backward_inputP11hb_tensor_tS1_S1_P11hb_vector_tS3_EUlvE_JEEvjjT0_8HBTensorIT_Lln1EEPS7_.isra.0>
    2370:	00508fb3          	add	x31,x1,x5
    2374:	01150833          	add	x16,x10,x17
    2378:	018f9593          	slli	x11,x31,0x18
    237c:	01281e93          	slli	x29,x16,0x12
    2380:	3f000bb7          	lui	x23,0x3f000
    2384:	00fc0c37          	lui	x24,0xfc0
    2388:	000407b7          	lui	x15,0x40
    238c:	0175fe33          	and	x28,x11,x23
    2390:	018efcb3          	and	x25,x29,x24
    2394:	004f1d13          	slli	x26,x30,0x4
    2398:	ff078713          	addi	x14,x15,-16 # 3fff0 <.L2120+0x32614>
    239c:	019e6a33          	or	x20,x28,x25
    23a0:	00ed76b3          	and	x13,x26,x14
    23a4:	800000b7          	lui	x1,0x80000
    23a8:	00da6633          	or	x12,x20,x13
    23ac:	001662b3          	or	x5,x12,x1
    23b0:	0109a383          	lw	x7,16(x19) # 10 <_Z21hb_tiled_foreach_implIfZL26convolution_backward_inputP11hb_tensor_tS1_S1_P11hb_vector_tS3_EUlvE_JEEvjjT0_8HBTensorIT_Lln1EEPS7_.isra.0+0x10>
    23b4:	410019b7          	lui	x19,0x41001
    23b8:	0104a503          	lw	x10,16(x9) # 10 <_Z21hb_tiled_foreach_implIfZL26convolution_backward_inputP11hb_tensor_tS1_S1_P11hb_vector_tS3_EUlvE_JEEvjjT0_8HBTensorIT_Lln1EEPS7_.isra.0+0x10>
    23bc:	01042403          	lw	x8,16(x8)
    23c0:	000004b7          	lui	x9,0x0
    23c4:	d059a623          	sw	x5,-756(x19) # 41000d0c <.L2120+0x40ff3330>
    23c8:	0004a883          	lw	x17,0(x9) # 0 <_Z21hb_tiled_foreach_implIfZL26convolution_backward_inputP11hb_tensor_tS1_S1_P11hb_vector_tS3_EUlvE_JEEvjjT0_8HBTensorIT_Lln1EEPS7_.isra.0>
    23cc:	01000313          	li	x6,16
    23d0:	0018ff13          	andi	x30,x17,1
    23d4:	003f1813          	slli	x16,x30,0x3
    23d8:	01e800b3          	add	x1,x16,x30
    23dc:	0018d593          	srli	x11,x17,0x1
    23e0:	00908f93          	addi	x31,x1,9 # 80000009 <.L2120+0x7fff262d>
    23e4:	03f5fe93          	andi	x29,x11,63
    23e8:	01f37463          	bgeu	x6,x31,23f0 <.L430>
    23ec:	01000f93          	li	x31,16

000023f0 <.L430>:
    23f0:	01e80bb3          	add	x23,x16,x30
    23f4:	005b9e13          	slli	x28,x23,0x5
    23f8:	009e9c13          	slli	x24,x29,0x9
    23fc:	418e0cb3          	sub	x25,x28,x24
    2400:	00ac8d33          	add	x26,x25,x10
    2404:	00ae9a13          	slli	x20,x29,0xa
    2408:	40a38733          	sub	x14,x7,x10
    240c:	001d1693          	slli	x13,x26,0x1
    2410:	007e9793          	slli	x15,x29,0x7
    2414:	00ea04b3          	add	x9,x20,x14
    2418:	407689b3          	sub	x19,x13,x7
    241c:	004b9a13          	slli	x20,x23,0x4
    2420:	00878433          	add	x8,x15,x8
    2424:	004f9d13          	slli	x26,x31,0x4
    2428:	00000393          	li	x7,0
    242c:	02000f13          	li	x30,32
    2430:	00008cb7          	lui	x25,0x8
    2434:	00002c37          	lui	x24,0x2
    2438:	00010bb7          	lui	x23,0x10

0000243c <.L437>:
    243c:	01a38533          	add	x10,x7,x26
    2440:	00998eb3          	add	x29,x19,x9
    2444:	01438e33          	add	x28,x7,x20
    2448:	00048293          	mv	x5,x9
    244c:	00040893          	mv	x17,x8
    2450:	00000313          	li	x6,0

00002454 <.L433>:
    2454:	0008a687          	flw	f13,0(x17)
    2458:	000e0793          	mv	x15,x28
    245c:	000e8593          	mv	x11,x29
    2460:	ffc28813          	addi	x16,x5,-4
    2464:	05f0fa63          	bgeu	x1,x31,24b8 <.L436>

00002468 <.L431>:
    2468:	00458713          	addi	x14,x11,4
    246c:	0005a007          	flw	f0,0(x11)
    2470:	f0000753          	fmv.w.x	f14,x0
    2474:	04058593          	addi	x11,x11,64
    2478:	00e80633          	add	x12,x16,x14
    247c:	00030463          	beqz	x6,2484 <.L455>

00002480 <.L495>:
    2480:	00062707          	flw	f14,0(x12)

00002484 <.L455>:
    2484:	70d077c3          	fmadd.s	f15,f0,f13,f14
    2488:	00f62027          	fsw	f15,0(x12)
    248c:	02e58263          	beq	x11,x14,24b0 <.L494>

00002490 <.L435>:
    2490:	00072007          	flw	f0,0(x14) # 0 <_Z21hb_tiled_foreach_implIfZL26convolution_backward_inputP11hb_tensor_tS1_S1_P11hb_vector_tS3_EUlvE_JEEvjjT0_8HBTensorIT_Lln1EEPS7_.isra.0>
    2494:	00470713          	addi	x14,x14,4
    2498:	f0000753          	fmv.w.x	f14,x0
    249c:	00e80633          	add	x12,x16,x14
    24a0:	fe0310e3          	bnez	x6,2480 <.L495>
    24a4:	70d077c3          	fmadd.s	f15,f0,f13,f14
    24a8:	00f62027          	fsw	f15,0(x12)
    24ac:	fee592e3          	bne	x11,x14,2490 <.L435>

000024b0 <.L494>:
    24b0:	01078793          	addi	x15,x15,16
    24b4:	faa79ae3          	bne	x15,x10,2468 <.L431>

000024b8 <.L436>:
    24b8:	00130313          	addi	x6,x6,1
    24bc:	00488893          	addi	x17,x17,4
    24c0:	10050513          	addi	x10,x10,256 # 100 <.L75+0x94>
    24c4:	c0028293          	addi	x5,x5,-1024
    24c8:	400e8e93          	addi	x29,x29,1024 # 400 <.L112+0xc>
    24cc:	100e0e13          	addi	x28,x28,256 # 100 <.L75+0x94>
    24d0:	f9e312e3          	bne	x6,x30,2454 <.L433>
    24d4:	018383b3          	add	x7,x7,x24
    24d8:	019484b3          	add	x9,x9,x25
    24dc:	f77390e3          	bne	x7,x23,243c <.L437>
    24e0:	000006b7          	lui	x13,0x0
    24e4:	000da083          	lw	x1,0(x27)
    24e8:	0006a403          	lw	x8,0(x13) # 0 <_Z21hb_tiled_foreach_implIfZL26convolution_backward_inputP11hb_tensor_tS1_S1_P11hb_vector_tS3_EUlvE_JEEvjjT0_8HBTensorIT_Lln1EEPS7_.isra.0>
    24ec:	000b2283          	lw	x5,0(x22)
    24f0:	000aa603          	lw	x12,0(x21)
    24f4:	00000537          	lui	x10,0x0
    24f8:	00052303          	lw	x6,0(x10) # 0 <_Z21hb_tiled_foreach_implIfZL26convolution_backward_inputP11hb_tensor_tS1_S1_P11hb_vector_tS3_EUlvE_JEEvjjT0_8HBTensorIT_Lln1EEPS7_.isra.0>
    24fc:	005085b3          	add	x11,x1,x5
    2500:	00c40833          	add	x16,x8,x12
    2504:	01859893          	slli	x17,x11,0x18
    2508:	01281993          	slli	x19,x16,0x12
    250c:	3f000a37          	lui	x20,0x3f000
    2510:	00fc0c37          	lui	x24,0xfc0
    2514:	00040e37          	lui	x28,0x40
    2518:	0148fbb3          	and	x23,x17,x20
    251c:	0189fcb3          	and	x25,x19,x24
    2520:	00431d13          	slli	x26,x6,0x4
    2524:	ff0e0e93          	addi	x29,x28,-16 # 3fff0 <.L2120+0x32614>
    2528:	019bedb3          	or	x27,x23,x25
    252c:	01dd7f33          	and	x30,x26,x29
    2530:	01edefb3          	or	x31,x27,x30
    2534:	c0000737          	lui	x14,0xc0000
    2538:	00efe7b3          	or	x15,x31,x14
    253c:	410013b7          	lui	x7,0x41001
    2540:	d0f3a623          	sw	x15,-756(x7) # 41000d0c <.L2120+0x40ff3330>
    2544:	000aa483          	lw	x9,0(x21)
    2548:	000b2083          	lw	x1,0(x22)
    254c:	00000537          	lui	x10,0x0
    2550:	00448293          	addi	x5,x9,4
    2554:	00050693          	mv	x13,x10
    2558:	00568433          	add	x8,x13,x5
    255c:	01809613          	slli	x12,x1,0x18
    2560:	00c46333          	or	x6,x8,x12
    2564:	201c05b7          	lui	x11,0x201c0
    2568:	00b36833          	or	x16,x6,x11
    256c:	00100893          	li	x17,1
    2570:	01180023          	sb	x17,0(x16)
    2574:	000aa983          	lw	x19,0(x21)
    2578:	00700a13          	li	x20,7
    257c:	03498863          	beq	x19,x20,25ac <.L496>

00002580 <.L448>:
    2580:	00100913          	li	x18,1
    2584:	0100006f          	j	2594 <.L453>

00002588 <.L497>:
    2588:	00050f93          	mv	x31,x10
    258c:	140fa7af          	lr.w.aq	x15,(x31)
    2590:	01278863          	beq	x15,x18,25a0 <.L452>

00002594 <.L453>:
    2594:	00050b13          	mv	x22,x10
    2598:	100b2f2f          	lr.w	x30,(x22)
    259c:	ff2f16e3          	bne	x30,x18,2588 <.L497>

000025a0 <.L452>:
    25a0:	0006a023          	sw	x0,0(x13)
    25a4:	00000513          	li	x10,0
    25a8:	a31ff06f          	j	1fd8 <.L410>

000025ac <.L496>:
    25ac:	00000bb7          	lui	x23,0x0
    25b0:	00000cb7          	lui	x25,0x0
    25b4:	004b8c13          	addi	x24,x23,4 # 4 <_Z21hb_tiled_foreach_implIfZL26convolution_backward_inputP11hb_tensor_tS1_S1_P11hb_vector_tS3_EUlvE_JEEvjjT0_8HBTensorIT_Lln1EEPS7_.isra.0+0x4>
    25b8:	014c8d13          	addi	x26,x25,20 # 14 <.L8>

000025bc <.L439>:
    25bc:	000c0e13          	mv	x28,x24

000025c0 <.L441>:
    25c0:	000e4d83          	lbu	x27,0(x28)
    25c4:	001e0e13          	addi	x28,x28,1
    25c8:	0ffdfe93          	andi	x29,x27,255
    25cc:	fe0e88e3          	beqz	x29,25bc <.L439>
    25d0:	ffcd18e3          	bne	x26,x28,25c0 <.L441>
    25d4:	000b2f03          	lw	x30,0(x22)
    25d8:	231c0737          	lui	x14,0x231c0
    25dc:	00100493          	li	x9,1
    25e0:	018f0f93          	addi	x31,x30,24
    25e4:	01f687b3          	add	x15,x13,x31
    25e8:	00e7e3b3          	or	x7,x15,x14
    25ec:	00938023          	sb	x9,0(x7)
    25f0:	000aa083          	lw	x1,0(x21)
    25f4:	00700293          	li	x5,7
    25f8:	f85094e3          	bne	x1,x5,2580 <.L448>
    25fc:	000b2403          	lw	x8,0(x22)
    2600:	00300613          	li	x12,3
    2604:	06c40c63          	beq	x8,x12,267c <.L498>

00002608 <.L447>:
    2608:	00100d13          	li	x26,1
    260c:	0100006f          	j	261c <.L443>

00002610 <.L499>:
    2610:	01468413          	addi	x8,x13,20
    2614:	1404262f          	lr.w.aq	x12,(x8)
    2618:	01a60863          	beq	x12,x26,2628 <.L449>

0000261c <.L443>:
    261c:	01468093          	addi	x1,x13,20
    2620:	1000a2af          	lr.w	x5,(x1)
    2624:	ffa296e3          	bne	x5,x26,2610 <.L499>

00002628 <.L449>:
    2628:	0006aa23          	sw	x0,20(x13)
    262c:	00000593          	li	x11,0
    2630:	01000313          	li	x6,16

00002634 <.L450>:
    2634:	00b688b3          	add	x17,x13,x11
    2638:	00088223          	sb	x0,4(x17)
    263c:	00158593          	addi	x11,x11,1 # 201c0001 <.L2120+0x201b2625>
    2640:	fe659ae3          	bne	x11,x6,2634 <.L450>
    2644:	0006a023          	sw	x0,0(x13)
    2648:	200009b7          	lui	x19,0x20000
    264c:	00100813          	li	x16,1
    2650:	00040a37          	lui	x20,0x40
    2654:	00400bb7          	lui	x23,0x400

00002658 <.L451>:
    2658:	000b2c03          	lw	x24,0(x22)
    265c:	0126ecb3          	or	x25,x13,x18
    2660:	01490933          	add	x18,x18,x20
    2664:	018c1d93          	slli	x27,x24,0x18
    2668:	019dee33          	or	x28,x27,x25
    266c:	013e6eb3          	or	x29,x28,x19
    2670:	010ea023          	sw	x16,0(x29)
    2674:	ff7912e3          	bne	x18,x23,2658 <.L451>
    2678:	f09ff06f          	j	2580 <.L448>

0000267c <.L498>:
    267c:	00000337          	lui	x6,0x0
    2680:	000005b7          	lui	x11,0x0
    2684:	01830893          	addi	x17,x6,24 # 18 <.L8+0x4>
    2688:	02058813          	addi	x16,x11,32 # 20 <.L8+0xc>

0000268c <.L442>:
    268c:	00088a13          	mv	x20,x17

00002690 <.L444>:
    2690:	000a4983          	lbu	x19,0(x20) # 40000 <.L2120+0x32624>
    2694:	001a0a13          	addi	x20,x20,1
    2698:	0ff9fb93          	andi	x23,x19,255
    269c:	fe0b88e3          	beqz	x23,268c <.L442>
    26a0:	ff4818e3          	bne	x16,x20,2690 <.L444>
    26a4:	00068c23          	sb	x0,24(x13)
    26a8:	00068ca3          	sb	x0,25(x13)
    26ac:	00068d23          	sb	x0,26(x13)
    26b0:	00068da3          	sb	x0,27(x13)
    26b4:	00068e23          	sb	x0,28(x13)
    26b8:	00068ea3          	sb	x0,29(x13)
    26bc:	00068f23          	sb	x0,30(x13)
    26c0:	00068fa3          	sb	x0,31(x13)
    26c4:	0006aa23          	sw	x0,20(x13)
    26c8:	00000493          	li	x9,0
    26cc:	03fc0c37          	lui	x24,0x3fc0
    26d0:	20000cb7          	lui	x25,0x20000
    26d4:	00100d93          	li	x27,1
    26d8:	01000e37          	lui	x28,0x1000
    26dc:	08000eb7          	lui	x29,0x8000

000026e0 <.L446>:
    26e0:	01209f13          	slli	x30,x1,0x12
    26e4:	009d6fb3          	or	x31,x26,x9
    26e8:	018f77b3          	and	x15,x30,x24
    26ec:	01f7e733          	or	x14,x15,x31
    26f0:	019763b3          	or	x7,x14,x25
    26f4:	01b3a023          	sw	x27,0(x7)
    26f8:	01c484b3          	add	x9,x9,x28
    26fc:	000aa083          	lw	x1,0(x21)
    2700:	ffd490e3          	bne	x9,x29,26e0 <.L446>
    2704:	00700a93          	li	x21,7
    2708:	f15080e3          	beq	x1,x21,2608 <.L447>
    270c:	e75ff06f          	j	2580 <.L448>

00002710 <_ZN12_GLOBAL__N_128convolution_forward_templateILm8ELm128ELm8ELm8ELm64ELm8ELm8ELm1ELm1ELm1ELm1ELm0ELm0EEEiP11hb_tensor_tS2_S2_P11hb_vector_tS4_>:
    2710:	f2010113          	addi	x2,x2,-224
    2714:	0d312623          	sw	x19,204(x2)
    2718:	00050993          	mv	x19,x10
    271c:	0c912a23          	sw	x9,212(x2)
    2720:	00410513          	addi	x10,x2,4
    2724:	00058493          	mv	x9,x11
    2728:	00098593          	mv	x11,x19
    272c:	0c112e23          	sw	x1,220(x2)
    2730:	0c812c23          	sw	x8,216(x2)
    2734:	0d212823          	sw	x18,208(x2)
    2738:	00060413          	mv	x8,x12
    273c:	00070913          	mv	x18,x14
    2740:	0d412423          	sw	x20,200(x2)
    2744:	0d512223          	sw	x21,196(x2)
    2748:	00068a13          	mv	x20,x13
    274c:	0d612023          	sw	x22,192(x2)
    2750:	0b712e23          	sw	x23,188(x2)
    2754:	0b812c23          	sw	x24,184(x2)
    2758:	0b912a23          	sw	x25,180(x2)
    275c:	0ba12823          	sw	x26,176(x2)
    2760:	0bb12623          	sw	x27,172(x2)
    2764:	00000097          	auipc	x1,0x0
    2768:	000080e7          	jalr	x1 # 2764 <_ZN12_GLOBAL__N_128convolution_forward_templateILm8ELm128ELm8ELm8ELm64ELm8ELm8ELm1ELm1ELm1ELm1ELm0ELm0EEEiP11hb_tensor_tS2_S2_P11hb_vector_tS4_+0x54>
    276c:	00048593          	mv	x11,x9
    2770:	03810513          	addi	x10,x2,56
    2774:	00000097          	auipc	x1,0x0
    2778:	000080e7          	jalr	x1 # 2774 <_ZN12_GLOBAL__N_128convolution_forward_templateILm8ELm128ELm8ELm8ELm64ELm8ELm8ELm1ELm1ELm1ELm1ELm0ELm0EEEiP11hb_tensor_tS2_S2_P11hb_vector_tS4_+0x64>
    277c:	00040593          	mv	x11,x8
    2780:	06c10513          	addi	x10,x2,108
    2784:	00000097          	auipc	x1,0x0
    2788:	000080e7          	jalr	x1 # 2784 <_ZN12_GLOBAL__N_128convolution_forward_templateILm8ELm128ELm8ELm8ELm64ELm8ELm8ELm1ELm1ELm1ELm1ELm0ELm0EEEiP11hb_tensor_tS2_S2_P11hb_vector_tS4_+0x74>
    278c:	00812783          	lw	x15,8(x2)
    2790:	10078e63          	beqz	x15,28ac <.L576>
    2794:	00100713          	li	x14,1
    2798:	0cf77063          	bgeu	x14,x15,2858 <.L577>
    279c:	00200693          	li	x13,2
    27a0:	1ad78a63          	beq	x15,x13,2954 <.L578>
    27a4:	00300613          	li	x12,3
    27a8:	20c78063          	beq	x15,x12,29a8 <.L579>
    27ac:	03c12083          	lw	x1,60(x2)
    27b0:	14177863          	bgeu	x14,x1,2900 <.L580>
    27b4:	28d08e63          	beq	x1,x13,2a50 <.L581>
    27b8:	2ec08663          	beq	x1,x12,2aa4 <.L582>
    27bc:	07012283          	lw	x5,112(x2)
    27c0:	2256fe63          	bgeu	x13,x5,29fc <.L583>
    27c4:	32c28a63          	beq	x5,x12,2af8 <.L584>
    27c8:	01012383          	lw	x7,16(x2)
    27cc:	04412a83          	lw	x21,68(x2)
    27d0:	004a2503          	lw	x10,4(x20)
    27d4:	00492883          	lw	x17,4(x18)
    27d8:	07812303          	lw	x6,120(x2)
    27dc:	0003af83          	lw	x31,0(x7)
    27e0:	00800e93          	li	x29,8
    27e4:	00052d83          	lw	x27,0(x10) # 0 <_Z21hb_tiled_foreach_implIfZL26convolution_backward_inputP11hb_tensor_tS1_S1_P11hb_vector_tS3_EUlvE_JEEvjjT0_8HBTensorIT_Lln1EEPS7_.isra.0>
    27e8:	00452a03          	lw	x20,4(x10)
    27ec:	0043af03          	lw	x30,4(x7)
    27f0:	0083a803          	lw	x16,8(x7)
    27f4:	00c3a583          	lw	x11,12(x7)
    27f8:	004aa903          	lw	x18,4(x21)
    27fc:	008aab03          	lw	x22,8(x21)
    2800:	00caae03          	lw	x28,12(x21)
    2804:	00832b83          	lw	x23,8(x6)
    2808:	00c32c03          	lw	x24,12(x6)
    280c:	0008ac83          	lw	x25,0(x17)
    2810:	0048ad03          	lw	x26,4(x17)
    2814:	fff00513          	li	x10,-1
    2818:	33df8a63          	beq	x31,x29,2b4c <.L585>

0000281c <.L500>:
    281c:	0dc12083          	lw	x1,220(x2)
    2820:	0d812403          	lw	x8,216(x2)
    2824:	0d412483          	lw	x9,212(x2)
    2828:	0d012903          	lw	x18,208(x2)
    282c:	0cc12983          	lw	x19,204(x2)
    2830:	0c812a03          	lw	x20,200(x2)
    2834:	0c412a83          	lw	x21,196(x2)
    2838:	0c012b03          	lw	x22,192(x2)
    283c:	0bc12b83          	lw	x23,188(x2)
    2840:	0b812c03          	lw	x24,184(x2)
    2844:	0b412c83          	lw	x25,180(x2)
    2848:	0b012d03          	lw	x26,176(x2)
    284c:	0ac12d83          	lw	x27,172(x2)
    2850:	0e010113          	addi	x2,x2,224
    2854:	00008067          	ret

00002858 <.L577>:
    2858:	000000b7          	lui	x1,0x0
    285c:	00000cb7          	lui	x25,0x0
    2860:	00008593          	mv	x11,x1
    2864:	06f00613          	li	x12,111
    2868:	000c8513          	mv	x10,x25
    286c:	00000097          	auipc	x1,0x0
    2870:	000080e7          	jalr	x1 # 286c <.L577+0x14>
    2874:	00812583          	lw	x11,8(x2)
    2878:	00000d37          	lui	x26,0x0
    287c:	000d0513          	mv	x10,x26
    2880:	00000097          	auipc	x1,0x0
    2884:	000080e7          	jalr	x1 # 2880 <.L577+0x28>
    2888:	00000db7          	lui	x27,0x0
    288c:	000dae83          	lw	x29,0(x27) # 0 <_Z21hb_tiled_foreach_implIfZL26convolution_backward_inputP11hb_tensor_tS1_S1_P11hb_vector_tS3_EUlvE_JEEvjjT0_8HBTensorIT_Lln1EEPS7_.isra.0>
    2890:	00000e37          	lui	x28,0x0
    2894:	000e2903          	lw	x18,0(x28) # 0 <_Z21hb_tiled_foreach_implIfZL26convolution_backward_inputP11hb_tensor_tS1_S1_P11hb_vector_tS3_EUlvE_JEEvjjT0_8HBTensorIT_Lln1EEPS7_.isra.0>
    2898:	010e9893          	slli	x17,x29,0x10
    289c:	4100fa37          	lui	x20,0x4100f
    28a0:	01288833          	add	x16,x17,x18
    28a4:	ad0a2c23          	sw	x16,-1320(x20) # 4100ead8 <.L2120+0x410010fc>

000028a8 <.L504>:
    28a8:	0000006f          	j	28a8 <.L504>

000028ac <.L576>:
    28ac:	000007b7          	lui	x15,0x0
    28b0:	00000b37          	lui	x22,0x0
    28b4:	06f00613          	li	x12,111
    28b8:	000b0593          	mv	x11,x22
    28bc:	00078513          	mv	x10,x15
    28c0:	00000097          	auipc	x1,0x0
    28c4:	000080e7          	jalr	x1 # 28c0 <.L576+0x14>
    28c8:	00812583          	lw	x11,8(x2)
    28cc:	000009b7          	lui	x19,0x0
    28d0:	00098513          	mv	x10,x19
    28d4:	00000097          	auipc	x1,0x0
    28d8:	000080e7          	jalr	x1 # 28d4 <.L576+0x28>
    28dc:	00000fb7          	lui	x31,0x0
    28e0:	000fa503          	lw	x10,0(x31) # 0 <_Z21hb_tiled_foreach_implIfZL26convolution_backward_inputP11hb_tensor_tS1_S1_P11hb_vector_tS3_EUlvE_JEEvjjT0_8HBTensorIT_Lln1EEPS7_.isra.0>
    28e4:	000006b7          	lui	x13,0x0
    28e8:	0006a583          	lw	x11,0(x13) # 0 <_Z21hb_tiled_foreach_implIfZL26convolution_backward_inputP11hb_tensor_tS1_S1_P11hb_vector_tS3_EUlvE_JEEvjjT0_8HBTensorIT_Lln1EEPS7_.isra.0>
    28ec:	01051a93          	slli	x21,x10,0x10
    28f0:	4100f2b7          	lui	x5,0x4100f
    28f4:	00ba8f33          	add	x30,x21,x11
    28f8:	ade2ac23          	sw	x30,-1320(x5) # 4100ead8 <.L2120+0x410010fc>

000028fc <.L502>:
    28fc:	0000006f          	j	28fc <.L502>

00002900 <.L580>:
    2900:	000000b7          	lui	x1,0x0
    2904:	00000bb7          	lui	x23,0x0
    2908:	00008593          	mv	x11,x1
    290c:	06f00613          	li	x12,111
    2910:	000b8513          	mv	x10,x23
    2914:	00000097          	auipc	x1,0x0
    2918:	000080e7          	jalr	x1 # 2914 <.L580+0x14>
    291c:	03c12583          	lw	x11,60(x2)
    2920:	00000c37          	lui	x24,0x0
    2924:	000c0513          	mv	x10,x24
    2928:	00000cb7          	lui	x25,0x0
    292c:	00000097          	auipc	x1,0x0
    2930:	000080e7          	jalr	x1 # 292c <.L580+0x2c>
    2934:	00000db7          	lui	x27,0x0
    2938:	000cad03          	lw	x26,0(x25) # 0 <_Z21hb_tiled_foreach_implIfZL26convolution_backward_inputP11hb_tensor_tS1_S1_P11hb_vector_tS3_EUlvE_JEEvjjT0_8HBTensorIT_Lln1EEPS7_.isra.0>
    293c:	000dae83          	lw	x29,0(x27) # 0 <_Z21hb_tiled_foreach_implIfZL26convolution_backward_inputP11hb_tensor_tS1_S1_P11hb_vector_tS3_EUlvE_JEEvjjT0_8HBTensorIT_Lln1EEPS7_.isra.0>
    2940:	4100f8b7          	lui	x17,0x4100f
    2944:	010d1e13          	slli	x28,x26,0x10
    2948:	01de0933          	add	x18,x28,x29
    294c:	ad28ac23          	sw	x18,-1320(x17) # 4100ead8 <.L2120+0x410010fc>

00002950 <.L510>:
    2950:	0000006f          	j	2950 <.L510>

00002954 <.L578>:
    2954:	00000f37          	lui	x30,0x0
    2958:	000002b7          	lui	x5,0x0
    295c:	000f0593          	mv	x11,x30
    2960:	06f00613          	li	x12,111
    2964:	00028513          	mv	x10,x5
    2968:	00000097          	auipc	x1,0x0
    296c:	000080e7          	jalr	x1 # 2968 <.L578+0x14>
    2970:	00812583          	lw	x11,8(x2)
    2974:	00000637          	lui	x12,0x0
    2978:	00060513          	mv	x10,x12
    297c:	00000097          	auipc	x1,0x0
    2980:	000080e7          	jalr	x1 # 297c <.L578+0x28>
    2984:	000003b7          	lui	x7,0x0
    2988:	0003a403          	lw	x8,0(x7) # 0 <_Z21hb_tiled_foreach_implIfZL26convolution_backward_inputP11hb_tensor_tS1_S1_P11hb_vector_tS3_EUlvE_JEEvjjT0_8HBTensorIT_Lln1EEPS7_.isra.0>
    298c:	000004b7          	lui	x9,0x0
    2990:	0004a303          	lw	x6,0(x9) # 0 <_Z21hb_tiled_foreach_implIfZL26convolution_backward_inputP11hb_tensor_tS1_S1_P11hb_vector_tS3_EUlvE_JEEvjjT0_8HBTensorIT_Lln1EEPS7_.isra.0>
    2994:	01041713          	slli	x14,x8,0x10
    2998:	4100fc37          	lui	x24,0x4100f
    299c:	00670bb3          	add	x23,x14,x6
    29a0:	ad7c2c23          	sw	x23,-1320(x24) # 4100ead8 <.L2120+0x410010fc>

000029a4 <.L506>:
    29a4:	0000006f          	j	29a4 <.L506>

000029a8 <.L579>:
    29a8:	00000837          	lui	x16,0x0
    29ac:	00000a37          	lui	x20,0x0
    29b0:	00080593          	mv	x11,x16
    29b4:	06f00613          	li	x12,111
    29b8:	000a0513          	mv	x10,x20
    29bc:	00000097          	auipc	x1,0x0
    29c0:	000080e7          	jalr	x1 # 29bc <.L579+0x14>
    29c4:	00812583          	lw	x11,8(x2)
    29c8:	00000b37          	lui	x22,0x0
    29cc:	000b0513          	mv	x10,x22
    29d0:	00000097          	auipc	x1,0x0
    29d4:	000080e7          	jalr	x1 # 29d0 <.L579+0x28>
    29d8:	000007b7          	lui	x15,0x0
    29dc:	0007a983          	lw	x19,0(x15) # 0 <_Z21hb_tiled_foreach_implIfZL26convolution_backward_inputP11hb_tensor_tS1_S1_P11hb_vector_tS3_EUlvE_JEEvjjT0_8HBTensorIT_Lln1EEPS7_.isra.0>
    29e0:	00000fb7          	lui	x31,0x0
    29e4:	000fa503          	lw	x10,0(x31) # 0 <_Z21hb_tiled_foreach_implIfZL26convolution_backward_inputP11hb_tensor_tS1_S1_P11hb_vector_tS3_EUlvE_JEEvjjT0_8HBTensorIT_Lln1EEPS7_.isra.0>
    29e8:	01099693          	slli	x13,x19,0x10
    29ec:	4100fab7          	lui	x21,0x4100f
    29f0:	00a685b3          	add	x11,x13,x10
    29f4:	acbaac23          	sw	x11,-1320(x21) # 4100ead8 <.L2120+0x410010fc>

000029f8 <.L508>:
    29f8:	0000006f          	j	29f8 <.L508>

000029fc <.L583>:
    29fc:	000000b7          	lui	x1,0x0
    2a00:	00000337          	lui	x6,0x0
    2a04:	00008593          	mv	x11,x1
    2a08:	06f00613          	li	x12,111
    2a0c:	00030513          	mv	x10,x6
    2a10:	00000097          	auipc	x1,0x0
    2a14:	000080e7          	jalr	x1 # 2a10 <.L583+0x14>
    2a18:	07012583          	lw	x11,112(x2)
    2a1c:	00000737          	lui	x14,0x0
    2a20:	00070513          	mv	x10,x14
    2a24:	00000bb7          	lui	x23,0x0
    2a28:	00000097          	auipc	x1,0x0
    2a2c:	000080e7          	jalr	x1 # 2a28 <.L583+0x2c>
    2a30:	00000cb7          	lui	x25,0x0
    2a34:	000bac03          	lw	x24,0(x23) # 0 <_Z21hb_tiled_foreach_implIfZL26convolution_backward_inputP11hb_tensor_tS1_S1_P11hb_vector_tS3_EUlvE_JEEvjjT0_8HBTensorIT_Lln1EEPS7_.isra.0>
    2a38:	000cad03          	lw	x26,0(x25) # 0 <_Z21hb_tiled_foreach_implIfZL26convolution_backward_inputP11hb_tensor_tS1_S1_P11hb_vector_tS3_EUlvE_JEEvjjT0_8HBTensorIT_Lln1EEPS7_.isra.0>
    2a3c:	4100fe37          	lui	x28,0x4100f
    2a40:	010c1d93          	slli	x27,x24,0x10
    2a44:	01ad8eb3          	add	x29,x27,x26
    2a48:	adde2c23          	sw	x29,-1320(x28) # 4100ead8 <.L2120+0x410010fc>

00002a4c <.L516>:
    2a4c:	0000006f          	j	2a4c <.L516>

00002a50 <.L581>:
    2a50:	000005b7          	lui	x11,0x0
    2a54:	00000ab7          	lui	x21,0x0
    2a58:	06f00613          	li	x12,111
    2a5c:	00058593          	mv	x11,x11
    2a60:	000a8513          	mv	x10,x21
    2a64:	00000097          	auipc	x1,0x0
    2a68:	000080e7          	jalr	x1 # 2a64 <.L581+0x14>
    2a6c:	03c12583          	lw	x11,60(x2)
    2a70:	00000637          	lui	x12,0x0
    2a74:	00060513          	mv	x10,x12
    2a78:	00000097          	auipc	x1,0x0
    2a7c:	000080e7          	jalr	x1 # 2a78 <.L581+0x28>
    2a80:	00000f37          	lui	x30,0x0
    2a84:	000f2283          	lw	x5,0(x30) # 0 <_Z21hb_tiled_foreach_implIfZL26convolution_backward_inputP11hb_tensor_tS1_S1_P11hb_vector_tS3_EUlvE_JEEvjjT0_8HBTensorIT_Lln1EEPS7_.isra.0>
    2a88:	000003b7          	lui	x7,0x0
    2a8c:	0003a403          	lw	x8,0(x7) # 0 <_Z21hb_tiled_foreach_implIfZL26convolution_backward_inputP11hb_tensor_tS1_S1_P11hb_vector_tS3_EUlvE_JEEvjjT0_8HBTensorIT_Lln1EEPS7_.isra.0>
    2a90:	01029493          	slli	x9,x5,0x10
    2a94:	4100f737          	lui	x14,0x4100f
    2a98:	00848333          	add	x6,x9,x8
    2a9c:	ac672c23          	sw	x6,-1320(x14) # 4100ead8 <.L2120+0x410010fc>

00002aa0 <.L512>:
    2aa0:	0000006f          	j	2aa0 <.L512>

00002aa4 <.L582>:
    2aa4:	000008b7          	lui	x17,0x0
    2aa8:	00000937          	lui	x18,0x0
    2aac:	06f00613          	li	x12,111
    2ab0:	00090593          	mv	x11,x18
    2ab4:	00088513          	mv	x10,x17
    2ab8:	00000097          	auipc	x1,0x0
    2abc:	000080e7          	jalr	x1 # 2ab8 <.L582+0x14>
    2ac0:	03c12583          	lw	x11,60(x2)
    2ac4:	00000837          	lui	x16,0x0
    2ac8:	00080513          	mv	x10,x16
    2acc:	00000097          	auipc	x1,0x0
    2ad0:	000080e7          	jalr	x1 # 2acc <.L582+0x28>
    2ad4:	00000a37          	lui	x20,0x0
    2ad8:	000a2b03          	lw	x22,0(x20) # 0 <_Z21hb_tiled_foreach_implIfZL26convolution_backward_inputP11hb_tensor_tS1_S1_P11hb_vector_tS3_EUlvE_JEEvjjT0_8HBTensorIT_Lln1EEPS7_.isra.0>
    2adc:	000007b7          	lui	x15,0x0
    2ae0:	0007a983          	lw	x19,0(x15) # 0 <_Z21hb_tiled_foreach_implIfZL26convolution_backward_inputP11hb_tensor_tS1_S1_P11hb_vector_tS3_EUlvE_JEEvjjT0_8HBTensorIT_Lln1EEPS7_.isra.0>
    2ae4:	010b1f93          	slli	x31,x22,0x10
    2ae8:	4100f6b7          	lui	x13,0x4100f
    2aec:	013f8533          	add	x10,x31,x19
    2af0:	aca6ac23          	sw	x10,-1320(x13) # 4100ead8 <.L2120+0x410010fc>

00002af4 <.L514>:
    2af4:	0000006f          	j	2af4 <.L514>

00002af8 <.L584>:
    2af8:	000006b7          	lui	x13,0x0
    2afc:	00000537          	lui	x10,0x0
    2b00:	00050593          	mv	x11,x10
    2b04:	06f00613          	li	x12,111
    2b08:	00068513          	mv	x10,x13
    2b0c:	00000097          	auipc	x1,0x0
    2b10:	000080e7          	jalr	x1 # 2b0c <.L584+0x14>
    2b14:	07012583          	lw	x11,112(x2)
    2b18:	00000637          	lui	x12,0x0
    2b1c:	00060513          	mv	x10,x12
    2b20:	00000097          	auipc	x1,0x0
    2b24:	000080e7          	jalr	x1 # 2b20 <.L584+0x28>
    2b28:	000005b7          	lui	x11,0x0
    2b2c:	0005aa83          	lw	x21,0(x11) # 0 <_Z21hb_tiled_foreach_implIfZL26convolution_backward_inputP11hb_tensor_tS1_S1_P11hb_vector_tS3_EUlvE_JEEvjjT0_8HBTensorIT_Lln1EEPS7_.isra.0>
    2b30:	00000f37          	lui	x30,0x0
    2b34:	000f2283          	lw	x5,0(x30) # 0 <_Z21hb_tiled_foreach_implIfZL26convolution_backward_inputP11hb_tensor_tS1_S1_P11hb_vector_tS3_EUlvE_JEEvjjT0_8HBTensorIT_Lln1EEPS7_.isra.0>
    2b38:	010a9393          	slli	x7,x21,0x10
    2b3c:	4100f4b7          	lui	x9,0x4100f
    2b40:	00538433          	add	x8,x7,x5
    2b44:	ac84ac23          	sw	x8,-1320(x9) # 4100ead8 <.L2120+0x410010fc>

00002b48 <.L518>:
    2b48:	0000006f          	j	2b48 <.L518>

00002b4c <.L585>:
    2b4c:	08000793          	li	x15,128
    2b50:	ccff16e3          	bne	x30,x15,281c <.L500>
    2b54:	00800713          	li	x14,8
    2b58:	cce812e3          	bne	x16,x14,281c <.L500>
    2b5c:	cd0590e3          	bne	x11,x16,281c <.L500>
    2b60:	04000693          	li	x13,64
    2b64:	cad91ce3          	bne	x18,x13,281c <.L500>
    2b68:	cabb1ae3          	bne	x22,x11,281c <.L500>
    2b6c:	cb6e18e3          	bne	x28,x22,281c <.L500>
    2b70:	00100613          	li	x12,1
    2b74:	cacb94e3          	bne	x23,x12,281c <.L500>
    2b78:	cb7c12e3          	bne	x24,x23,281c <.L500>
    2b7c:	cb8c90e3          	bne	x25,x24,281c <.L500>
    2b80:	c99d1ee3          	bne	x26,x25,281c <.L500>
    2b84:	014dea33          	or	x20,x27,x20
    2b88:	c80a1ae3          	bnez	x20,281c <.L500>
    2b8c:	000000b7          	lui	x1,0x0
    2b90:	00000537          	lui	x10,0x0
    2b94:	00000b37          	lui	x22,0x0
    2b98:	00000ab7          	lui	x21,0x0
    2b9c:	0000a283          	lw	x5,0(x1) # 0 <_Z21hb_tiled_foreach_implIfZL26convolution_backward_inputP11hb_tensor_tS1_S1_P11hb_vector_tS3_EUlvE_JEEvjjT0_8HBTensorIT_Lln1EEPS7_.isra.0>
    2ba0:	00052883          	lw	x17,0(x10) # 0 <_Z21hb_tiled_foreach_implIfZL26convolution_backward_inputP11hb_tensor_tS1_S1_P11hb_vector_tS3_EUlvE_JEEvjjT0_8HBTensorIT_Lln1EEPS7_.isra.0>
    2ba4:	000b2383          	lw	x7,0(x22) # 0 <_Z21hb_tiled_foreach_implIfZL26convolution_backward_inputP11hb_tensor_tS1_S1_P11hb_vector_tS3_EUlvE_JEEvjjT0_8HBTensorIT_Lln1EEPS7_.isra.0>
    2ba8:	000aa303          	lw	x6,0(x21) # 0 <_Z21hb_tiled_foreach_implIfZL26convolution_backward_inputP11hb_tensor_tS1_S1_P11hb_vector_tS3_EUlvE_JEEvjjT0_8HBTensorIT_Lln1EEPS7_.isra.0>
    2bac:	00000fb7          	lui	x31,0x0
    2bb0:	000fae83          	lw	x29,0(x31) # 0 <_Z21hb_tiled_foreach_implIfZL26convolution_backward_inputP11hb_tensor_tS1_S1_P11hb_vector_tS3_EUlvE_JEEvjjT0_8HBTensorIT_Lln1EEPS7_.isra.0>
    2bb4:	00728f33          	add	x30,x5,x7
    2bb8:	00688833          	add	x16,x17,x6
    2bbc:	00fc0cb7          	lui	x25,0xfc0
    2bc0:	018f1593          	slli	x11,x30,0x18
    2bc4:	01281e13          	slli	x28,x16,0x12
    2bc8:	3f000bb7          	lui	x23,0x3f000
    2bcc:	00040737          	lui	x14,0x40
    2bd0:	019e7d33          	and	x26,x28,x25
    2bd4:	004e9d93          	slli	x27,x29,0x4
    2bd8:	0175fc33          	and	x24,x11,x23
    2bdc:	ff070693          	addi	x13,x14,-16 # 3fff0 <.L2120+0x32614>
    2be0:	01ac67b3          	or	x15,x24,x26
    2be4:	00ddf633          	and	x12,x27,x13
    2be8:	00c7e0b3          	or	x1,x15,x12
    2bec:	800002b7          	lui	x5,0x80000
    2bf0:	0104ac83          	lw	x25,16(x9)
    2bf4:	0050e3b3          	or	x7,x1,x5
    2bf8:	01042483          	lw	x9,16(x8)
    2bfc:	41001437          	lui	x8,0x41001
    2c00:	0109a983          	lw	x19,16(x19) # 10 <_Z21hb_tiled_foreach_implIfZL26convolution_backward_inputP11hb_tensor_tS1_S1_P11hb_vector_tS3_EUlvE_JEEvjjT0_8HBTensorIT_Lln1EEPS7_.isra.0+0x10>
    2c04:	00000537          	lui	x10,0x0
    2c08:	d0742623          	sw	x7,-756(x8) # 41000d0c <.L2120+0x40ff3330>
    2c0c:	00052883          	lw	x17,0(x10) # 0 <_Z21hb_tiled_foreach_implIfZL26convolution_backward_inputP11hb_tensor_tS1_S1_P11hb_vector_tS3_EUlvE_JEEvjjT0_8HBTensorIT_Lln1EEPS7_.isra.0>
    2c10:	08000313          	li	x6,128
    2c14:	07f8fe93          	andi	x29,x17,127
    2c18:	001e9413          	slli	x8,x29,0x1
    2c1c:	00240393          	addi	x7,x8,2
    2c20:	00737463          	bgeu	x6,x7,2c28 <.L520>
    2c24:	08000393          	li	x7,128

00002c28 <.L520>:
    2c28:	41998fb3          	sub	x31,x19,x25
    2c2c:	009e9f13          	slli	x30,x29,0x9
    2c30:	00839813          	slli	x16,x7,0x8
    2c34:	407405b3          	sub	x11,x8,x7
    2c38:	00980bb3          	add	x23,x16,x9
    2c3c:	00008c37          	lui	x24,0x8
    2c40:	01ef8fb3          	add	x31,x31,x30
    2c44:	00859093          	slli	x1,x11,0x8
    2c48:	00000993          	li	x19,0
    2c4c:	04000493          	li	x9,64
    2c50:	00001db7          	lui	x27,0x1
    2c54:	00004d37          	lui	x26,0x4

00002c58 <.L529>:
    2c58:	013c8e33          	add	x28,x25,x19
    2c5c:	00098f13          	mv	x30,x19
    2c60:	00090313          	mv	x6,x18
    2c64:	000b8293          	mv	x5,x23
    2c68:	00000513          	li	x10,0

00002c6c <.L523>:
    2c6c:	fc030e93          	addi	x29,x6,-64 # ffffffc0 <.L2120+0xffff25e4>
    2c70:	005088b3          	add	x17,x1,x5
    2c74:	41ef8833          	sub	x16,x31,x30
    2c78:	06747863          	bgeu	x8,x7,2ce8 <.L527>

00002c7c <.L528>:
    2c7c:	0008a687          	flw	f13,0(x17) # 0 <_Z21hb_tiled_foreach_implIfZL26convolution_backward_inputP11hb_tensor_tS1_S1_P11hb_vector_tS3_EUlvE_JEEvjjT0_8HBTensorIT_Lln1EEPS7_.isra.0>
    2c80:	000e8693          	mv	x13,x29
    2c84:	000e0713          	mv	x14,x28

00002c88 <.L526>:
    2c88:	00070793          	mv	x15,x14
    2c8c:	00072007          	flw	f0,0(x14)
    2c90:	f0000753          	fmv.w.x	f14,x0
    2c94:	02070713          	addi	x14,x14,32
    2c98:	01078633          	add	x12,x15,x16
    2c9c:	00050463          	beqz	x10,2ca4 <.L547>

00002ca0 <.L587>:
    2ca0:	00062707          	flw	f14,0(x12) # 0 <_Z21hb_tiled_foreach_implIfZL26convolution_backward_inputP11hb_tensor_tS1_S1_P11hb_vector_tS3_EUlvE_JEEvjjT0_8HBTensorIT_Lln1EEPS7_.isra.0>

00002ca4 <.L547>:
    2ca4:	70d077c3          	fmadd.s	f15,f0,f13,f14
    2ca8:	00478793          	addi	x15,x15,4
    2cac:	00f62027          	fsw	f15,0(x12)
    2cb0:	02f70263          	beq	x14,x15,2cd4 <.L586>

00002cb4 <.L525>:
    2cb4:	0007a007          	flw	f0,0(x15)
    2cb8:	f0000753          	fmv.w.x	f14,x0
    2cbc:	01078633          	add	x12,x15,x16
    2cc0:	fe0510e3          	bnez	x10,2ca0 <.L587>
    2cc4:	70d077c3          	fmadd.s	f15,f0,f13,f14
    2cc8:	00478793          	addi	x15,x15,4
    2ccc:	00f62027          	fsw	f15,0(x12)
    2cd0:	fef712e3          	bne	x14,x15,2cb4 <.L525>

00002cd4 <.L586>:
    2cd4:	00868693          	addi	x13,x13,8 # 8 <_Z21hb_tiled_foreach_implIfZL26convolution_backward_inputP11hb_tensor_tS1_S1_P11hb_vector_tS3_EUlvE_JEEvjjT0_8HBTensorIT_Lln1EEPS7_.isra.0+0x8>
    2cd8:	fad318e3          	bne	x6,x13,2c88 <.L526>
    2cdc:	10088893          	addi	x17,x17,256
    2ce0:	10080813          	addi	x16,x16,256 # 100 <.L75+0x94>
    2ce4:	f9129ce3          	bne	x5,x17,2c7c <.L528>

00002ce8 <.L527>:
    2ce8:	00150513          	addi	x10,x10,1
    2cec:	00428293          	addi	x5,x5,4 # 80000004 <.L2120+0x7fff2628>
    2cf0:	04030313          	addi	x6,x6,64
    2cf4:	100f0f13          	addi	x30,x30,256
    2cf8:	100e0e13          	addi	x28,x28,256
    2cfc:	f69518e3          	bne	x10,x9,2c6c <.L523>
    2d00:	000085b7          	lui	x11,0x8
    2d04:	01b90933          	add	x18,x18,x27
    2d08:	04058613          	addi	x12,x11,64 # 8040 <.L1423>
    2d0c:	01a989b3          	add	x19,x19,x26
    2d10:	018f8fb3          	add	x31,x31,x24
    2d14:	f4c912e3          	bne	x18,x12,2c58 <.L529>
    2d18:	000000b7          	lui	x1,0x0
    2d1c:	00000437          	lui	x8,0x0
    2d20:	0000a283          	lw	x5,0(x1) # 0 <_Z21hb_tiled_foreach_implIfZL26convolution_backward_inputP11hb_tensor_tS1_S1_P11hb_vector_tS3_EUlvE_JEEvjjT0_8HBTensorIT_Lln1EEPS7_.isra.0>
    2d24:	00042483          	lw	x9,0(x8) # 0 <_Z21hb_tiled_foreach_implIfZL26convolution_backward_inputP11hb_tensor_tS1_S1_P11hb_vector_tS3_EUlvE_JEEvjjT0_8HBTensorIT_Lln1EEPS7_.isra.0>
    2d28:	000b2383          	lw	x7,0(x22)
    2d2c:	000aa503          	lw	x10,0(x21)
    2d30:	00000737          	lui	x14,0x0
    2d34:	00072303          	lw	x6,0(x14) # 0 <_Z21hb_tiled_foreach_implIfZL26convolution_backward_inputP11hb_tensor_tS1_S1_P11hb_vector_tS3_EUlvE_JEEvjjT0_8HBTensorIT_Lln1EEPS7_.isra.0>
    2d38:	00728bb3          	add	x23,x5,x7
    2d3c:	00a48c33          	add	x24,x9,x10
    2d40:	018b9c93          	slli	x25,x23,0x18
    2d44:	012c1d13          	slli	x26,x24,0x12
    2d48:	3f000db7          	lui	x27,0x3f000
    2d4c:	00fc0eb7          	lui	x29,0xfc0
    2d50:	000408b7          	lui	x17,0x40
    2d54:	00431693          	slli	x13,x6,0x4
    2d58:	01bcfe33          	and	x28,x25,x27
    2d5c:	01dd7f33          	and	x30,x26,x29
    2d60:	ff088813          	addi	x16,x17,-16 # 3fff0 <.L2120+0x32614>
    2d64:	0106f933          	and	x18,x13,x16
    2d68:	01ee67b3          	or	x15,x28,x30
    2d6c:	0127e9b3          	or	x19,x15,x18
    2d70:	c0000fb7          	lui	x31,0xc0000
    2d74:	01f9e5b3          	or	x11,x19,x31
    2d78:	41001637          	lui	x12,0x41001
    2d7c:	d0b62623          	sw	x11,-756(x12) # 41000d0c <.L2120+0x40ff3330>
    2d80:	000aa083          	lw	x1,0(x21)
    2d84:	000b2283          	lw	x5,0(x22)
    2d88:	00000537          	lui	x10,0x0
    2d8c:	00408393          	addi	x7,x1,4
    2d90:	00050693          	mv	x13,x10
    2d94:	00768433          	add	x8,x13,x7
    2d98:	01829493          	slli	x9,x5,0x18
    2d9c:	00946333          	or	x6,x8,x9
    2da0:	201c0737          	lui	x14,0x201c0
    2da4:	00e36bb3          	or	x23,x6,x14
    2da8:	00100c13          	li	x24,1
    2dac:	018b8023          	sb	x24,0(x23) # 3f000000 <.L2120+0x3eff2624>
    2db0:	000aac83          	lw	x25,0(x21)
    2db4:	00700d13          	li	x26,7
    2db8:	03ac8863          	beq	x25,x26,2de8 <.L588>

00002dbc <.L540>:
    2dbc:	00100a13          	li	x20,1
    2dc0:	0100006f          	j	2dd0 <.L545>

00002dc4 <.L589>:
    2dc4:	00050993          	mv	x19,x10
    2dc8:	1409afaf          	lr.w.aq	x31,(x19)
    2dcc:	014f8863          	beq	x31,x20,2ddc <.L544>

00002dd0 <.L545>:
    2dd0:	00050b13          	mv	x22,x10
    2dd4:	100b27af          	lr.w	x15,(x22)
    2dd8:	ff4796e3          	bne	x15,x20,2dc4 <.L589>

00002ddc <.L544>:
    2ddc:	0006a023          	sw	x0,0(x13)
    2de0:	00000513          	li	x10,0
    2de4:	a39ff06f          	j	281c <.L500>

00002de8 <.L588>:
    2de8:	00000db7          	lui	x27,0x0
    2dec:	00000eb7          	lui	x29,0x0
    2df0:	004d8e13          	addi	x28,x27,4 # 4 <_Z21hb_tiled_foreach_implIfZL26convolution_backward_inputP11hb_tensor_tS1_S1_P11hb_vector_tS3_EUlvE_JEEvjjT0_8HBTensorIT_Lln1EEPS7_.isra.0+0x4>
    2df4:	014e8f13          	addi	x30,x29,20 # 14 <.L8>

00002df8 <.L531>:
    2df8:	000e0793          	mv	x15,x28

00002dfc <.L533>:
    2dfc:	0007c883          	lbu	x17,0(x15)
    2e00:	00178793          	addi	x15,x15,1
    2e04:	0ff8f813          	andi	x16,x17,255
    2e08:	fe0808e3          	beqz	x16,2df8 <.L531>
    2e0c:	feff18e3          	bne	x30,x15,2dfc <.L533>
    2e10:	000b2903          	lw	x18,0(x22)
    2e14:	231c05b7          	lui	x11,0x231c0
    2e18:	00100093          	li	x1,1
    2e1c:	01890993          	addi	x19,x18,24 # 18 <.L8+0x4>
    2e20:	01368fb3          	add	x31,x13,x19
    2e24:	00bfe633          	or	x12,x31,x11
    2e28:	00160023          	sb	x1,0(x12)
    2e2c:	000aa283          	lw	x5,0(x21)
    2e30:	00700393          	li	x7,7
    2e34:	f87294e3          	bne	x5,x7,2dbc <.L540>
    2e38:	000b2403          	lw	x8,0(x22)
    2e3c:	00300493          	li	x9,3
    2e40:	06940c63          	beq	x8,x9,2eb8 <.L590>

00002e44 <.L539>:
    2e44:	00100f13          	li	x30,1
    2e48:	0100006f          	j	2e58 <.L535>

00002e4c <.L591>:
    2e4c:	01468413          	addi	x8,x13,20
    2e50:	140424af          	lr.w.aq	x9,(x8)
    2e54:	01e48863          	beq	x9,x30,2e64 <.L541>

00002e58 <.L535>:
    2e58:	01468293          	addi	x5,x13,20
    2e5c:	1002a3af          	lr.w	x7,(x5)
    2e60:	ffe396e3          	bne	x7,x30,2e4c <.L591>

00002e64 <.L541>:
    2e64:	0006aa23          	sw	x0,20(x13)
    2e68:	00000b93          	li	x23,0
    2e6c:	01000313          	li	x6,16

00002e70 <.L542>:
    2e70:	01768733          	add	x14,x13,x23
    2e74:	00070223          	sb	x0,4(x14) # 201c0004 <.L2120+0x201b2628>
    2e78:	001b8b93          	addi	x23,x23,1
    2e7c:	fe6b9ae3          	bne	x23,x6,2e70 <.L542>
    2e80:	0006a023          	sw	x0,0(x13)
    2e84:	20000c37          	lui	x24,0x20000
    2e88:	00100c93          	li	x25,1
    2e8c:	00040d37          	lui	x26,0x40
    2e90:	00400db7          	lui	x27,0x400

00002e94 <.L543>:
    2e94:	000b2e83          	lw	x29,0(x22)
    2e98:	0146ee33          	or	x28,x13,x20
    2e9c:	01aa0a33          	add	x20,x20,x26
    2ea0:	018e9913          	slli	x18,x29,0x18
    2ea4:	01c968b3          	or	x17,x18,x28
    2ea8:	0188e833          	or	x16,x17,x24
    2eac:	01982023          	sw	x25,0(x16)
    2eb0:	ffba12e3          	bne	x20,x27,2e94 <.L543>
    2eb4:	f09ff06f          	j	2dbc <.L540>

00002eb8 <.L590>:
    2eb8:	00000337          	lui	x6,0x0
    2ebc:	00000bb7          	lui	x23,0x0
    2ec0:	01830713          	addi	x14,x6,24 # 18 <.L8+0x4>
    2ec4:	020b8c13          	addi	x24,x23,32 # 20 <.L8+0xc>

00002ec8 <.L534>:
    2ec8:	00070d13          	mv	x26,x14

00002ecc <.L536>:
    2ecc:	000d4c83          	lbu	x25,0(x26) # 40000 <.L2120+0x32624>
    2ed0:	001d0d13          	addi	x26,x26,1
    2ed4:	0ffcfd93          	andi	x27,x25,255
    2ed8:	fe0d88e3          	beqz	x27,2ec8 <.L534>
    2edc:	ffac18e3          	bne	x24,x26,2ecc <.L536>
    2ee0:	00068c23          	sb	x0,24(x13)
    2ee4:	00068ca3          	sb	x0,25(x13)
    2ee8:	00068d23          	sb	x0,26(x13)
    2eec:	00068da3          	sb	x0,27(x13)
    2ef0:	00068e23          	sb	x0,28(x13)
    2ef4:	00068ea3          	sb	x0,29(x13)
    2ef8:	00068f23          	sb	x0,30(x13)
    2efc:	00068fa3          	sb	x0,31(x13)
    2f00:	0006aa23          	sw	x0,20(x13)
    2f04:	00000593          	li	x11,0
    2f08:	03fc0eb7          	lui	x29,0x3fc0
    2f0c:	20000e37          	lui	x28,0x20000
    2f10:	00100913          	li	x18,1
    2f14:	010008b7          	lui	x17,0x1000
    2f18:	08000837          	lui	x16,0x8000

00002f1c <.L538>:
    2f1c:	01229793          	slli	x15,x5,0x12
    2f20:	00bf69b3          	or	x19,x30,x11
    2f24:	01d7ffb3          	and	x31,x15,x29
    2f28:	013fe633          	or	x12,x31,x19
    2f2c:	01c660b3          	or	x1,x12,x28
    2f30:	0120a023          	sw	x18,0(x1)
    2f34:	011585b3          	add	x11,x11,x17
    2f38:	000aa283          	lw	x5,0(x21)
    2f3c:	ff0590e3          	bne	x11,x16,2f1c <.L538>
    2f40:	00700a93          	li	x21,7
    2f44:	f15280e3          	beq	x5,x21,2e44 <.L539>
    2f48:	e75ff06f          	j	2dbc <.L540>

00002f4c <_ZN12_GLOBAL__N_128convolution_forward_templateILm8ELm16ELm32ELm32ELm3ELm32ELm32ELm3ELm3ELm1ELm1ELm1ELm1EEEiP11hb_tensor_tS2_S2_P11hb_vector_tS4_>:
    2f4c:	e8010113          	addi	x2,x2,-384
    2f50:	17212823          	sw	x18,368(x2)
    2f54:	00050913          	mv	x18,x10
    2f58:	16912a23          	sw	x9,372(x2)
    2f5c:	04410513          	addi	x10,x2,68
    2f60:	00058493          	mv	x9,x11
    2f64:	00090593          	mv	x11,x18
    2f68:	16112e23          	sw	x1,380(x2)
    2f6c:	16812c23          	sw	x8,376(x2)
    2f70:	17312623          	sw	x19,364(x2)
    2f74:	00060413          	mv	x8,x12
    2f78:	00070993          	mv	x19,x14
    2f7c:	17412423          	sw	x20,360(x2)
    2f80:	17512223          	sw	x21,356(x2)
    2f84:	00068a13          	mv	x20,x13
    2f88:	17612023          	sw	x22,352(x2)
    2f8c:	15712e23          	sw	x23,348(x2)
    2f90:	15812c23          	sw	x24,344(x2)
    2f94:	15912a23          	sw	x25,340(x2)
    2f98:	15a12823          	sw	x26,336(x2)
    2f9c:	15b12623          	sw	x27,332(x2)
    2fa0:	00000097          	auipc	x1,0x0
    2fa4:	000080e7          	jalr	x1 # 2fa0 <_ZN12_GLOBAL__N_128convolution_forward_templateILm8ELm16ELm32ELm32ELm3ELm32ELm32ELm3ELm3ELm1ELm1ELm1ELm1EEEiP11hb_tensor_tS2_S2_P11hb_vector_tS4_+0x54>
    2fa8:	00048593          	mv	x11,x9
    2fac:	07810513          	addi	x10,x2,120
    2fb0:	00000097          	auipc	x1,0x0
    2fb4:	000080e7          	jalr	x1 # 2fb0 <_ZN12_GLOBAL__N_128convolution_forward_templateILm8ELm16ELm32ELm32ELm3ELm32ELm32ELm3ELm3ELm1ELm1ELm1ELm1EEEiP11hb_tensor_tS2_S2_P11hb_vector_tS4_+0x64>
    2fb8:	00040593          	mv	x11,x8
    2fbc:	0dc10513          	addi	x10,x2,220
    2fc0:	00000097          	auipc	x1,0x0
    2fc4:	000080e7          	jalr	x1 # 2fc0 <_ZN12_GLOBAL__N_128convolution_forward_templateILm8ELm16ELm32ELm32ELm3ELm32ELm32ELm3ELm3ELm1ELm1ELm1ELm1EEEiP11hb_tensor_tS2_S2_P11hb_vector_tS4_+0x74>
    2fc8:	04812783          	lw	x15,72(x2)
    2fcc:	10078e63          	beqz	x15,30e8 <.L691>
    2fd0:	00100713          	li	x14,1
    2fd4:	0cf77063          	bgeu	x14,x15,3094 <.L692>
    2fd8:	00200693          	li	x13,2
    2fdc:	1ad78a63          	beq	x15,x13,3190 <.L693>
    2fe0:	00300613          	li	x12,3
    2fe4:	20c78063          	beq	x15,x12,31e4 <.L694>
    2fe8:	07c12083          	lw	x1,124(x2)
    2fec:	14177863          	bgeu	x14,x1,313c <.L695>
    2ff0:	28d08e63          	beq	x1,x13,328c <.L696>
    2ff4:	2ec08663          	beq	x1,x12,32e0 <.L697>
    2ff8:	0e012283          	lw	x5,224(x2)
    2ffc:	2256fe63          	bgeu	x13,x5,3238 <.L698>
    3000:	32c28a63          	beq	x5,x12,3334 <.L699>
    3004:	05012583          	lw	x11,80(x2)
    3008:	08412a83          	lw	x21,132(x2)
    300c:	004a2503          	lw	x10,4(x20)
    3010:	0049a303          	lw	x6,4(x19)
    3014:	0e812e03          	lw	x28,232(x2)
    3018:	0005a383          	lw	x7,0(x11) # 231c0000 <.L2120+0x231b2624>
    301c:	00800f93          	li	x31,8
    3020:	00052a03          	lw	x20,0(x10) # 0 <_Z21hb_tiled_foreach_implIfZL26convolution_backward_inputP11hb_tensor_tS1_S1_P11hb_vector_tS3_EUlvE_JEEvjjT0_8HBTensorIT_Lln1EEPS7_.isra.0>
    3024:	00452983          	lw	x19,4(x10)
    3028:	0045ab03          	lw	x22,4(x11)
    302c:	0085a883          	lw	x17,8(x11)
    3030:	00c5a803          	lw	x16,12(x11)
    3034:	004aab83          	lw	x23,4(x21)
    3038:	008aac03          	lw	x24,8(x21)
    303c:	00caaf03          	lw	x30,12(x21)
    3040:	008e2c83          	lw	x25,8(x28) # 20000008 <.L2120+0x1fff262c>
    3044:	00ce2e83          	lw	x29,12(x28)
    3048:	00032d03          	lw	x26,0(x6)
    304c:	00432d83          	lw	x27,4(x6)
    3050:	fff00513          	li	x10,-1
    3054:	33f38a63          	beq	x7,x31,3388 <.L700>

00003058 <.L592>:
    3058:	17c12083          	lw	x1,380(x2)
    305c:	17812403          	lw	x8,376(x2)
    3060:	17412483          	lw	x9,372(x2)
    3064:	17012903          	lw	x18,368(x2)
    3068:	16c12983          	lw	x19,364(x2)
    306c:	16812a03          	lw	x20,360(x2)
    3070:	16412a83          	lw	x21,356(x2)
    3074:	16012b03          	lw	x22,352(x2)
    3078:	15c12b83          	lw	x23,348(x2)
    307c:	15812c03          	lw	x24,344(x2)
    3080:	15412c83          	lw	x25,340(x2)
    3084:	15012d03          	lw	x26,336(x2)
    3088:	14c12d83          	lw	x27,332(x2)
    308c:	18010113          	addi	x2,x2,384
    3090:	00008067          	ret

00003094 <.L692>:
    3094:	000000b7          	lui	x1,0x0
    3098:	00000bb7          	lui	x23,0x0
    309c:	00008593          	mv	x11,x1
    30a0:	06f00613          	li	x12,111
    30a4:	000b8513          	mv	x10,x23
    30a8:	00000097          	auipc	x1,0x0
    30ac:	000080e7          	jalr	x1 # 30a8 <.L692+0x14>
    30b0:	04812583          	lw	x11,72(x2)
    30b4:	00000437          	lui	x8,0x0
    30b8:	00040513          	mv	x10,x8
    30bc:	00000097          	auipc	x1,0x0
    30c0:	000080e7          	jalr	x1 # 30bc <.L692+0x28>
    30c4:	000005b7          	lui	x11,0x0
    30c8:	0005a983          	lw	x19,0(x11) # 0 <_Z21hb_tiled_foreach_implIfZL26convolution_backward_inputP11hb_tensor_tS1_S1_P11hb_vector_tS3_EUlvE_JEEvjjT0_8HBTensorIT_Lln1EEPS7_.isra.0>
    30cc:	00000f37          	lui	x30,0x0
    30d0:	000f2483          	lw	x9,0(x30) # 0 <_Z21hb_tiled_foreach_implIfZL26convolution_backward_inputP11hb_tensor_tS1_S1_P11hb_vector_tS3_EUlvE_JEEvjjT0_8HBTensorIT_Lln1EEPS7_.isra.0>
    30d4:	01099a13          	slli	x20,x19,0x10
    30d8:	4100fab7          	lui	x21,0x4100f
    30dc:	009a07b3          	add	x15,x20,x9
    30e0:	acfaac23          	sw	x15,-1320(x21) # 4100ead8 <.L2120+0x410010fc>

000030e4 <.L596>:
    30e4:	0000006f          	j	30e4 <.L596>

000030e8 <.L691>:
    30e8:	00000837          	lui	x16,0x0
    30ec:	00000cb7          	lui	x25,0x0
    30f0:	06f00613          	li	x12,111
    30f4:	000c8593          	mv	x11,x25
    30f8:	00080513          	mv	x10,x16
    30fc:	00000097          	auipc	x1,0x0
    3100:	000080e7          	jalr	x1 # 30fc <.L691+0x14>
    3104:	04812583          	lw	x11,72(x2)
    3108:	00000637          	lui	x12,0x0
    310c:	00060513          	mv	x10,x12
    3110:	00000097          	auipc	x1,0x0
    3114:	000080e7          	jalr	x1 # 3110 <.L691+0x28>
    3118:	00000fb7          	lui	x31,0x0
    311c:	000fa503          	lw	x10,0(x31) # 0 <_Z21hb_tiled_foreach_implIfZL26convolution_backward_inputP11hb_tensor_tS1_S1_P11hb_vector_tS3_EUlvE_JEEvjjT0_8HBTensorIT_Lln1EEPS7_.isra.0>
    3120:	000006b7          	lui	x13,0x0
    3124:	0006a903          	lw	x18,0(x13) # 0 <_Z21hb_tiled_foreach_implIfZL26convolution_backward_inputP11hb_tensor_tS1_S1_P11hb_vector_tS3_EUlvE_JEEvjjT0_8HBTensorIT_Lln1EEPS7_.isra.0>
    3128:	01051713          	slli	x14,x10,0x10
    312c:	4100f3b7          	lui	x7,0x4100f
    3130:	012702b3          	add	x5,x14,x18
    3134:	ac53ac23          	sw	x5,-1320(x7) # 4100ead8 <.L2120+0x410010fc>

00003138 <.L594>:
    3138:	0000006f          	j	3138 <.L594>

0000313c <.L695>:
    313c:	000000b7          	lui	x1,0x0
    3140:	000008b7          	lui	x17,0x0
    3144:	00008593          	mv	x11,x1
    3148:	06f00613          	li	x12,111
    314c:	00088513          	mv	x10,x17
    3150:	00000097          	auipc	x1,0x0
    3154:	000080e7          	jalr	x1 # 3150 <.L695+0x14>
    3158:	07c12583          	lw	x11,124(x2)
    315c:	00000db7          	lui	x27,0x0
    3160:	000d8513          	mv	x10,x27
    3164:	00000097          	auipc	x1,0x0
    3168:	000080e7          	jalr	x1 # 3164 <.L695+0x28>
    316c:	00000bb7          	lui	x23,0x0
    3170:	000ba583          	lw	x11,0(x23) # 0 <_Z21hb_tiled_foreach_implIfZL26convolution_backward_inputP11hb_tensor_tS1_S1_P11hb_vector_tS3_EUlvE_JEEvjjT0_8HBTensorIT_Lln1EEPS7_.isra.0>
    3174:	00000437          	lui	x8,0x0
    3178:	00042983          	lw	x19,0(x8) # 0 <_Z21hb_tiled_foreach_implIfZL26convolution_backward_inputP11hb_tensor_tS1_S1_P11hb_vector_tS3_EUlvE_JEEvjjT0_8HBTensorIT_Lln1EEPS7_.isra.0>
    317c:	01059f13          	slli	x30,x11,0x10
    3180:	4100fa37          	lui	x20,0x4100f
    3184:	013f04b3          	add	x9,x30,x19
    3188:	ac9a2c23          	sw	x9,-1320(x20) # 4100ead8 <.L2120+0x410010fc>

0000318c <.L602>:
    318c:	0000006f          	j	318c <.L602>

00003190 <.L693>:
    3190:	000002b7          	lui	x5,0x0
    3194:	000003b7          	lui	x7,0x0
    3198:	00028593          	mv	x11,x5
    319c:	06f00613          	li	x12,111
    31a0:	00038513          	mv	x10,x7
    31a4:	00000097          	auipc	x1,0x0
    31a8:	000080e7          	jalr	x1 # 31a4 <.L693+0x14>
    31ac:	04812583          	lw	x11,72(x2)
    31b0:	00000eb7          	lui	x29,0x0
    31b4:	000e8513          	mv	x10,x29
    31b8:	00000097          	auipc	x1,0x0
    31bc:	000080e7          	jalr	x1 # 31b8 <.L693+0x28>
    31c0:	00000e37          	lui	x28,0x0
    31c4:	000e2b03          	lw	x22,0(x28) # 0 <_Z21hb_tiled_foreach_implIfZL26convolution_backward_inputP11hb_tensor_tS1_S1_P11hb_vector_tS3_EUlvE_JEEvjjT0_8HBTensorIT_Lln1EEPS7_.isra.0>
    31c8:	00000d37          	lui	x26,0x0
    31cc:	000d2c03          	lw	x24,0(x26) # 0 <_Z21hb_tiled_foreach_implIfZL26convolution_backward_inputP11hb_tensor_tS1_S1_P11hb_vector_tS3_EUlvE_JEEvjjT0_8HBTensorIT_Lln1EEPS7_.isra.0>
    31d0:	010b1313          	slli	x6,x22,0x10
    31d4:	4100fdb7          	lui	x27,0x4100f
    31d8:	018308b3          	add	x17,x6,x24
    31dc:	ad1dac23          	sw	x17,-1320(x27) # 4100ead8 <.L2120+0x410010fc>

000031e0 <.L598>:
    31e0:	0000006f          	j	31e0 <.L598>

000031e4 <.L694>:
    31e4:	000007b7          	lui	x15,0x0
    31e8:	00000ab7          	lui	x21,0x0
    31ec:	06f00613          	li	x12,111
    31f0:	00078593          	mv	x11,x15
    31f4:	000a8513          	mv	x10,x21
    31f8:	00000097          	auipc	x1,0x0
    31fc:	000080e7          	jalr	x1 # 31f8 <.L694+0x14>
    3200:	04812583          	lw	x11,72(x2)
    3204:	00000cb7          	lui	x25,0x0
    3208:	000c8513          	mv	x10,x25
    320c:	00000097          	auipc	x1,0x0
    3210:	000080e7          	jalr	x1 # 320c <.L694+0x28>
    3214:	00000637          	lui	x12,0x0
    3218:	00062803          	lw	x16,0(x12) # 0 <_Z21hb_tiled_foreach_implIfZL26convolution_backward_inputP11hb_tensor_tS1_S1_P11hb_vector_tS3_EUlvE_JEEvjjT0_8HBTensorIT_Lln1EEPS7_.isra.0>
    321c:	00000fb7          	lui	x31,0x0
    3220:	000fa503          	lw	x10,0(x31) # 0 <_Z21hb_tiled_foreach_implIfZL26convolution_backward_inputP11hb_tensor_tS1_S1_P11hb_vector_tS3_EUlvE_JEEvjjT0_8HBTensorIT_Lln1EEPS7_.isra.0>
    3224:	01081693          	slli	x13,x16,0x10
    3228:	4100f737          	lui	x14,0x4100f
    322c:	00a68933          	add	x18,x13,x10
    3230:	ad272c23          	sw	x18,-1320(x14) # 4100ead8 <.L2120+0x410010fc>

00003234 <.L600>:
    3234:	0000006f          	j	3234 <.L600>

00003238 <.L698>:
    3238:	000000b7          	lui	x1,0x0
    323c:	00000c37          	lui	x24,0x0
    3240:	00008593          	mv	x11,x1
    3244:	06f00613          	li	x12,111
    3248:	000c0513          	mv	x10,x24
    324c:	00000097          	auipc	x1,0x0
    3250:	000080e7          	jalr	x1 # 324c <.L698+0x14>
    3254:	0e012583          	lw	x11,224(x2)
    3258:	00000337          	lui	x6,0x0
    325c:	00030513          	mv	x10,x6
    3260:	00000097          	auipc	x1,0x0
    3264:	000080e7          	jalr	x1 # 3260 <.L698+0x28>
    3268:	000008b7          	lui	x17,0x0
    326c:	0008ad83          	lw	x27,0(x17) # 0 <_Z21hb_tiled_foreach_implIfZL26convolution_backward_inputP11hb_tensor_tS1_S1_P11hb_vector_tS3_EUlvE_JEEvjjT0_8HBTensorIT_Lln1EEPS7_.isra.0>
    3270:	00000bb7          	lui	x23,0x0
    3274:	000ba583          	lw	x11,0(x23) # 0 <_Z21hb_tiled_foreach_implIfZL26convolution_backward_inputP11hb_tensor_tS1_S1_P11hb_vector_tS3_EUlvE_JEEvjjT0_8HBTensorIT_Lln1EEPS7_.isra.0>
    3278:	010d9413          	slli	x8,x27,0x10
    327c:	4100ff37          	lui	x30,0x4100f
    3280:	00b409b3          	add	x19,x8,x11
    3284:	ad3f2c23          	sw	x19,-1320(x30) # 4100ead8 <.L2120+0x410010fc>

00003288 <.L608>:
    3288:	0000006f          	j	3288 <.L608>

0000328c <.L696>:
    328c:	00000737          	lui	x14,0x0
    3290:	00000937          	lui	x18,0x0
    3294:	00070593          	mv	x11,x14
    3298:	06f00613          	li	x12,111
    329c:	00090513          	mv	x10,x18
    32a0:	00000097          	auipc	x1,0x0
    32a4:	000080e7          	jalr	x1 # 32a0 <.L696+0x14>
    32a8:	07c12583          	lw	x11,124(x2)
    32ac:	000002b7          	lui	x5,0x0
    32b0:	00028513          	mv	x10,x5
    32b4:	00000097          	auipc	x1,0x0
    32b8:	000080e7          	jalr	x1 # 32b4 <.L696+0x28>
    32bc:	000003b7          	lui	x7,0x0
    32c0:	0003ae83          	lw	x29,0(x7) # 0 <_Z21hb_tiled_foreach_implIfZL26convolution_backward_inputP11hb_tensor_tS1_S1_P11hb_vector_tS3_EUlvE_JEEvjjT0_8HBTensorIT_Lln1EEPS7_.isra.0>
    32c4:	00000e37          	lui	x28,0x0
    32c8:	000e2b03          	lw	x22,0(x28) # 0 <_Z21hb_tiled_foreach_implIfZL26convolution_backward_inputP11hb_tensor_tS1_S1_P11hb_vector_tS3_EUlvE_JEEvjjT0_8HBTensorIT_Lln1EEPS7_.isra.0>
    32cc:	010e9d13          	slli	x26,x29,0x10
    32d0:	4100f337          	lui	x6,0x4100f
    32d4:	016d0c33          	add	x24,x26,x22
    32d8:	ad832c23          	sw	x24,-1320(x6) # 4100ead8 <.L2120+0x410010fc>

000032dc <.L604>:
    32dc:	0000006f          	j	32dc <.L604>

000032e0 <.L697>:
    32e0:	000004b7          	lui	x9,0x0
    32e4:	00000a37          	lui	x20,0x0
    32e8:	06f00613          	li	x12,111
    32ec:	00048593          	mv	x11,x9
    32f0:	000a0513          	mv	x10,x20
    32f4:	00000097          	auipc	x1,0x0
    32f8:	000080e7          	jalr	x1 # 32f4 <.L697+0x14>
    32fc:	07c12583          	lw	x11,124(x2)
    3300:	000007b7          	lui	x15,0x0
    3304:	00078513          	mv	x10,x15
    3308:	00000097          	auipc	x1,0x0
    330c:	000080e7          	jalr	x1 # 3308 <.L697+0x28>
    3310:	00000ab7          	lui	x21,0x0
    3314:	000aac83          	lw	x25,0(x21) # 0 <_Z21hb_tiled_foreach_implIfZL26convolution_backward_inputP11hb_tensor_tS1_S1_P11hb_vector_tS3_EUlvE_JEEvjjT0_8HBTensorIT_Lln1EEPS7_.isra.0>
    3318:	00000637          	lui	x12,0x0
    331c:	00062803          	lw	x16,0(x12) # 0 <_Z21hb_tiled_foreach_implIfZL26convolution_backward_inputP11hb_tensor_tS1_S1_P11hb_vector_tS3_EUlvE_JEEvjjT0_8HBTensorIT_Lln1EEPS7_.isra.0>
    3320:	010c9f93          	slli	x31,x25,0x10
    3324:	4100f6b7          	lui	x13,0x4100f
    3328:	010f8533          	add	x10,x31,x16
    332c:	aca6ac23          	sw	x10,-1320(x13) # 4100ead8 <.L2120+0x410010fc>

00003330 <.L606>:
    3330:	0000006f          	j	3330 <.L606>

00003334 <.L699>:
    3334:	000006b7          	lui	x13,0x0
    3338:	00000537          	lui	x10,0x0
    333c:	00050593          	mv	x11,x10
    3340:	06f00613          	li	x12,111
    3344:	00068513          	mv	x10,x13
    3348:	00000097          	auipc	x1,0x0
    334c:	000080e7          	jalr	x1 # 3348 <.L699+0x14>
    3350:	0e012583          	lw	x11,224(x2)
    3354:	00000737          	lui	x14,0x0
    3358:	00070513          	mv	x10,x14
    335c:	00000097          	auipc	x1,0x0
    3360:	000080e7          	jalr	x1 # 335c <.L699+0x28>
    3364:	00000937          	lui	x18,0x0
    3368:	00092283          	lw	x5,0(x18) # 0 <_Z21hb_tiled_foreach_implIfZL26convolution_backward_inputP11hb_tensor_tS1_S1_P11hb_vector_tS3_EUlvE_JEEvjjT0_8HBTensorIT_Lln1EEPS7_.isra.0>
    336c:	000003b7          	lui	x7,0x0
    3370:	0003ae83          	lw	x29,0(x7) # 0 <_Z21hb_tiled_foreach_implIfZL26convolution_backward_inputP11hb_tensor_tS1_S1_P11hb_vector_tS3_EUlvE_JEEvjjT0_8HBTensorIT_Lln1EEPS7_.isra.0>
    3374:	01029e13          	slli	x28,x5,0x10
    3378:	4100fd37          	lui	x26,0x4100f
    337c:	01de0b33          	add	x22,x28,x29
    3380:	ad6d2c23          	sw	x22,-1320(x26) # 4100ead8 <.L2120+0x410010fc>

00003384 <.L610>:
    3384:	0000006f          	j	3384 <.L610>

00003388 <.L700>:
    3388:	01000793          	li	x15,16
    338c:	ccfb16e3          	bne	x22,x15,3058 <.L592>
    3390:	02000713          	li	x14,32
    3394:	cce892e3          	bne	x17,x14,3058 <.L592>
    3398:	cd1810e3          	bne	x16,x17,3058 <.L592>
    339c:	00300693          	li	x13,3
    33a0:	cadb9ce3          	bne	x23,x13,3058 <.L592>
    33a4:	cb0c1ae3          	bne	x24,x16,3058 <.L592>
    33a8:	cb8f18e3          	bne	x30,x24,3058 <.L592>
    33ac:	cb7c96e3          	bne	x25,x23,3058 <.L592>
    33b0:	cb9e94e3          	bne	x29,x25,3058 <.L592>
    33b4:	00100613          	li	x12,1
    33b8:	cacd10e3          	bne	x26,x12,3058 <.L592>
    33bc:	c9ad9ee3          	bne	x27,x26,3058 <.L592>
    33c0:	00100093          	li	x1,1
    33c4:	c81a1ae3          	bne	x20,x1,3058 <.L592>
    33c8:	c94998e3          	bne	x19,x20,3058 <.L592>
    33cc:	000002b7          	lui	x5,0x0
    33d0:	000005b7          	lui	x11,0x0
    33d4:	00000337          	lui	x6,0x0
    33d8:	000003b7          	lui	x7,0x0
    33dc:	0002aa83          	lw	x21,0(x5) # 0 <_Z21hb_tiled_foreach_implIfZL26convolution_backward_inputP11hb_tensor_tS1_S1_P11hb_vector_tS3_EUlvE_JEEvjjT0_8HBTensorIT_Lln1EEPS7_.isra.0>
    33e0:	0005a503          	lw	x10,0(x11) # 0 <_Z21hb_tiled_foreach_implIfZL26convolution_backward_inputP11hb_tensor_tS1_S1_P11hb_vector_tS3_EUlvE_JEEvjjT0_8HBTensorIT_Lln1EEPS7_.isra.0>
    33e4:	00032e03          	lw	x28,0(x6) # 0 <_Z21hb_tiled_foreach_implIfZL26convolution_backward_inputP11hb_tensor_tS1_S1_P11hb_vector_tS3_EUlvE_JEEvjjT0_8HBTensorIT_Lln1EEPS7_.isra.0>
    33e8:	0003af83          	lw	x31,0(x7) # 0 <_Z21hb_tiled_foreach_implIfZL26convolution_backward_inputP11hb_tensor_tS1_S1_P11hb_vector_tS3_EUlvE_JEEvjjT0_8HBTensorIT_Lln1EEPS7_.isra.0>
    33ec:	00000b37          	lui	x22,0x0
    33f0:	000b2883          	lw	x17,0(x22) # 0 <_Z21hb_tiled_foreach_implIfZL26convolution_backward_inputP11hb_tensor_tS1_S1_P11hb_vector_tS3_EUlvE_JEEvjjT0_8HBTensorIT_Lln1EEPS7_.isra.0>
    33f4:	00aa8833          	add	x16,x21,x10
    33f8:	01fe0bb3          	add	x23,x28,x31
    33fc:	01881c13          	slli	x24,x16,0x18
    3400:	012b9f13          	slli	x30,x23,0x12
    3404:	3f000cb7          	lui	x25,0x3f000
    3408:	00fc0d37          	lui	x26,0xfc0
    340c:	000407b7          	lui	x15,0x40
    3410:	019c7eb3          	and	x29,x24,x25
    3414:	0104a483          	lw	x9,16(x9) # 10 <_Z21hb_tiled_foreach_implIfZL26convolution_backward_inputP11hb_tensor_tS1_S1_P11hb_vector_tS3_EUlvE_JEEvjjT0_8HBTensorIT_Lln1EEPS7_.isra.0+0x10>
    3418:	01af7db3          	and	x27,x30,x26
    341c:	00489a13          	slli	x20,x17,0x4
    3420:	ff078713          	addi	x14,x15,-16 # 3fff0 <.L2120+0x32614>
    3424:	01bee9b3          	or	x19,x29,x27
    3428:	00ea76b3          	and	x13,x20,x14
    342c:	00d9e633          	or	x12,x19,x13
    3430:	800000b7          	lui	x1,0x80000
    3434:	001662b3          	or	x5,x12,x1
    3438:	00912423          	sw	x9,8(x2)
    343c:	41001ab7          	lui	x21,0x41001
    3440:	01092903          	lw	x18,16(x18)
    3444:	01042403          	lw	x8,16(x8)
    3448:	000005b7          	lui	x11,0x0
    344c:	d05aa623          	sw	x5,-756(x21) # 41000d0c <.L2120+0x40ff3330>
    3450:	0005a503          	lw	x10,0(x11) # 0 <_Z21hb_tiled_foreach_implIfZL26convolution_backward_inputP11hb_tensor_tS1_S1_P11hb_vector_tS3_EUlvE_JEEvjjT0_8HBTensorIT_Lln1EEPS7_.isra.0>
    3454:	02000313          	li	x6,32
    3458:	00757f93          	andi	x31,x10,7
    345c:	00355e13          	srli	x28,x10,0x3
    3460:	00fe7393          	andi	x7,x28,15
    3464:	002f9893          	slli	x17,x31,0x2
    3468:	01f88bb3          	add	x23,x17,x31
    346c:	00339b13          	slli	x22,x7,0x3
    3470:	407b0833          	sub	x16,x22,x7
    3474:	005b8f13          	addi	x30,x23,5
    3478:	00281c13          	slli	x24,x16,0x2
    347c:	01712e23          	sw	x23,28(x2)
    3480:	03e12023          	sw	x30,32(x2)
    3484:	407c0cb3          	sub	x25,x24,x7
    3488:	01e37663          	bgeu	x6,x30,3494 <.L612>
    348c:	02000e93          	li	x29,32
    3490:	03d12023          	sw	x29,32(x2)

00003494 <.L612>:
    3494:	06c00d13          	li	x26,108
    3498:	03a38db3          	mul	x27,x7,x26
    349c:	01c12983          	lw	x19,28(x2)
    34a0:	00812683          	lw	x13,8(x2)
    34a4:	00539a13          	slli	x20,x7,0x5
    34a8:	02012883          	lw	x17,32(x2)
    34ac:	013a0733          	add	x14,x20,x19
    34b0:	07810a93          	addi	x21,x2,120
    34b4:	00018e37          	lui	x28,0x18
    34b8:	00771093          	slli	x1,x14,0x7
    34bc:	00a39793          	slli	x15,x7,0xa
    34c0:	40d90633          	sub	x12,x18,x13
    34c4:	415d85b3          	sub	x11,x27,x21
    34c8:	008e0393          	addi	x7,x28,8 # 18008 <.L2120+0xa62c>
    34cc:	00160533          	add	x10,x12,x1
    34d0:	00571293          	slli	x5,x14,0x5
    34d4:	00868493          	addi	x9,x13,8 # 8 <_Z21hb_tiled_foreach_implIfZL26convolution_backward_inputP11hb_tensor_tS1_S1_P11hb_vector_tS3_EUlvE_JEEvjjT0_8HBTensorIT_Lln1EEPS7_.isra.0+0x8>
    34d8:	40f00333          	neg	x6,x15
    34dc:	00768fb3          	add	x31,x13,x7
    34e0:	00858433          	add	x8,x11,x8
    34e4:	009c8b13          	addi	x22,x25,9 # 3f000009 <.L2120+0x3eff262d>
    34e8:	fff88813          	addi	x16,x17,-1
    34ec:	02512223          	sw	x5,36(x2)
    34f0:	02912423          	sw	x9,40(x2)
    34f4:	02a12623          	sw	x10,44(x2)
    34f8:	02612823          	sw	x6,48(x2)
    34fc:	03f12c23          	sw	x31,56(x2)
    3500:	02812a23          	sw	x8,52(x2)
    3504:	03612e23          	sw	x22,60(x2)
    3508:	01012623          	sw	x16,12(x2)
    350c:	00200093          	li	x1,2

00003510 <.L634>:
    3510:	03412c03          	lw	x24,52(x2)
    3514:	03012f03          	lw	x30,48(x2)
    3518:	02c12c83          	lw	x25,44(x2)
    351c:	01812c23          	sw	x24,24(x2)
    3520:	03c12b83          	lw	x23,60(x2)
    3524:	02812c03          	lw	x24,40(x2)
    3528:	01e12a23          	sw	x30,20(x2)
    352c:	01912823          	sw	x25,16(x2)
    3530:	00000b13          	li	x22,0
    3534:	01f00913          	li	x18,31

00003538 <.L617>:
    3538:	01812703          	lw	x14,24(x2)
    353c:	ff7b8a13          	addi	x20,x23,-9
    3540:	07810993          	addi	x19,x2,120

00003544 <.L614>:
    3544:	00098d93          	mv	x27,x19
    3548:	00c98e93          	addi	x29,x19,12

0000354c <.L613>:
    354c:	01b70d33          	add	x26,x14,x27
    3550:	000d2787          	flw	f15,0(x26) # fc0000 <.L2120+0xfb2624>
    3554:	004d8d93          	addi	x27,x27,4
    3558:	fefdae27          	fsw	f15,-4(x27)
    355c:	ffdd98e3          	bne	x27,x29,354c <.L613>
    3560:	003a0a13          	addi	x20,x20,3 # 3 <_Z21hb_tiled_foreach_implIfZL26convolution_backward_inputP11hb_tensor_tS1_S1_P11hb_vector_tS3_EUlvE_JEEvjjT0_8HBTensorIT_Lln1EEPS7_.isra.0+0x3>
    3564:	01498993          	addi	x19,x19,20
    3568:	ff870713          	addi	x14,x14,-8 # fffffff8 <.L2120+0xffff261c>
    356c:	fd7a1ce3          	bne	x20,x23,3544 <.L614>
    3570:	01c12683          	lw	x13,28(x2)
    3574:	02012603          	lw	x12,32(x2)
    3578:	1ac6f463          	bgeu	x13,x12,3720 <.L632>
    357c:	01c12783          	lw	x15,28(x2)
    3580:	01412483          	lw	x9,20(x2)
    3584:	01012383          	lw	x7,16(x2)
    3588:	02412283          	lw	x5,36(x2)
    358c:	fff78313          	addi	x6,x15,-1
    3590:	fe048e13          	addi	x28,x9,-32
    3594:	003b0d13          	addi	x26,x22,3
    3598:	00300893          	li	x17,3

0000359c <.L633>:
    359c:	00030e93          	mv	x29,x6
    35a0:	005e0f33          	add	x30,x28,x5
    35a4:	00130313          	addi	x6,x6,1
    35a8:	00000713          	li	x14,0

000035ac <.L624>:
    35ac:	00812583          	lw	x11,8(x2)
    35b0:	002f1a93          	slli	x21,x30,0x2
    35b4:	00271513          	slli	x10,x14,0x2
    35b8:	00ba8cb3          	add	x25,x21,x11
    35bc:	fff00613          	li	x12,-1
    35c0:	00000793          	li	x15,0
    35c4:	01d70fb3          	add	x31,x14,x29
    35c8:	00e50db3          	add	x27,x10,x14

000035cc <.L622>:
    35cc:	f0000053          	fmv.w.x	f0,x0
    35d0:	03f96463          	bltu	x18,x31,35f8 <.L618>
    35d4:	00fd8433          	add	x8,x27,x15
    35d8:	00241a13          	slli	x20,x8,0x2
    35dc:	00261813          	slli	x16,x12,0x2
    35e0:	14010993          	addi	x19,x2,320
    35e4:	fff00a93          	li	x21,-1
    35e8:	014986b3          	add	x13,x19,x20
    35ec:	019804b3          	add	x9,x16,x25
    35f0:	37560c63          	beq	x12,x21,3968 <.L619>
    35f4:	0004a007          	flw	f0,0(x9)

000035f8 <.L618>:
    35f8:	00fd8533          	add	x10,x27,x15
    35fc:	00251593          	slli	x11,x10,0x2
    3600:	14010413          	addi	x8,x2,320
    3604:	00b40a33          	add	x20,x8,x11
    3608:	f80a2e27          	fsw	f0,-100(x20)
    360c:	00178663          	beq	x15,x1,3618 <.L668>

00003610 <.L652>:
    3610:	00178793          	addi	x15,x15,1
    3614:	0080006f          	j	361c <.L620>

00003618 <.L668>:
    3618:	00000793          	li	x15,0

0000361c <.L620>:
    361c:	00160613          	addi	x12,x12,1
    3620:	fa1616e3          	bne	x12,x1,35cc <.L622>
    3624:	00170713          	addi	x14,x14,1
    3628:	020f0f13          	addi	x30,x30,32
    362c:	f91710e3          	bne	x14,x17,35ac <.L624>
    3630:	000c0d93          	mv	x27,x24
    3634:	00000513          	li	x10,0
    3638:	00000593          	li	x11,0
    363c:	ff838413          	addi	x8,x7,-8
    3640:	003e8993          	addi	x19,x29,3 # 3 <_Z21hb_tiled_foreach_implIfZL26convolution_backward_inputP11hb_tensor_tS1_S1_P11hb_vector_tS3_EUlvE_JEEvjjT0_8HBTensorIT_Lln1EEPS7_.isra.0+0x3>

00003644 <.L623>:
    3644:	01b404b3          	add	x9,x8,x27
    3648:	0004a087          	flw	f1,0(x9)
    364c:	07810f13          	addi	x30,x2,120
    3650:	00000793          	li	x15,0

00003654 <.L630>:
    3654:	00279c93          	slli	x25,x15,0x2
    3658:	00fb0833          	add	x16,x22,x15
    365c:	000f0f93          	mv	x31,x30
    3660:	00050693          	mv	x13,x10
    3664:	00fc8a33          	add	x20,x25,x15
    3668:	00fd0ab3          	add	x21,x26,x15

0000366c <.L629>:
    366c:	00da0633          	add	x12,x20,x13
    3670:	00261713          	slli	x14,x12,0x2
    3674:	14010c93          	addi	x25,x2,320
    3678:	00ec8633          	add	x12,x25,x14
    367c:	00081463          	bnez	x16,3684 <.L627>
    3680:	f00000d3          	fmv.w.x	f1,x0

00003684 <.L627>:
    3684:	000fa707          	flw	f14,0(x31)
    3688:	f9c62687          	flw	f13,-100(x12)
    368c:	08e6f0c3          	fmadd.s	f1,f13,f14,f1
    3690:	2e168663          	beq	x13,x1,397c <.L673>
    3694:	00168693          	addi	x13,x13,1

00003698 <.L628>:
    3698:	00180813          	addi	x16,x16,1 # 1 <_Z21hb_tiled_foreach_implIfZL26convolution_backward_inputP11hb_tensor_tS1_S1_P11hb_vector_tS3_EUlvE_JEEvjjT0_8HBTensorIT_Lln1EEPS7_.isra.0+0x1>
    369c:	004f8f93          	addi	x31,x31,4
    36a0:	fd5816e3          	bne	x16,x21,366c <.L629>
    36a4:	00178793          	addi	x15,x15,1
    36a8:	014f0f13          	addi	x30,x30,20
    36ac:	fb1794e3          	bne	x15,x17,3654 <.L630>
    36b0:	0014a027          	fsw	f1,0(x9)
    36b4:	02000513          	li	x10,32
    36b8:	00158493          	addi	x9,x11,1
    36bc:	04a48a63          	beq	x9,x10,3710 <.L701>
    36c0:	0315fa33          	remu	x20,x11,x17
    36c4:	0dc10c93          	addi	x25,x2,220
    36c8:	000e8713          	mv	x14,x29
    36cc:	0314f533          	remu	x10,x9,x17
    36d0:	002a1a93          	slli	x21,x20,0x2
    36d4:	015c8fb3          	add	x31,x25,x21

000036d8 <.L626>:
    36d8:	f0000153          	fmv.w.x	f2,x0
    36dc:	00e96c63          	bltu	x18,x14,36f4 <.L625>
    36e0:	00771613          	slli	x12,x14,0x7
    36e4:	01e00813          	li	x16,30
    36e8:	01b606b3          	add	x13,x12,x27
    36ec:	01058463          	beq	x11,x16,36f4 <.L625>
    36f0:	0006a107          	flw	f2,0(x13)

000036f4 <.L625>:
    36f4:	00170713          	addi	x14,x14,1
    36f8:	002fa027          	fsw	f2,0(x31)
    36fc:	014f8f93          	addi	x31,x31,20
    3700:	fce99ce3          	bne	x19,x14,36d8 <.L626>
    3704:	004d8d93          	addi	x27,x27,4
    3708:	00048593          	mv	x11,x9
    370c:	f39ff06f          	j	3644 <.L623>

00003710 <.L701>:
    3710:	00c12e83          	lw	x29,12(x2)
    3714:	02028293          	addi	x5,x5,32
    3718:	08038393          	addi	x7,x7,128
    371c:	e86e90e3          	bne	x29,x6,359c <.L633>

00003720 <.L632>:
    3720:	01012883          	lw	x17,16(x2)
    3724:	01412d83          	lw	x27,20(x2)
    3728:	01812403          	lw	x8,24(x2)
    372c:	00001e37          	lui	x28,0x1
    3730:	41c88333          	sub	x6,x17,x28
    3734:	400d8593          	addi	x11,x27,1024
    3738:	02440993          	addi	x19,x8,36
    373c:	001b0b13          	addi	x22,x22,1
    3740:	00300d13          	li	x26,3
    3744:	00612823          	sw	x6,16(x2)
    3748:	00b12a23          	sw	x11,20(x2)
    374c:	01312c23          	sw	x19,24(x2)
    3750:	01cc0c33          	add	x24,x24,x28
    3754:	009b8b93          	addi	x23,x23,9
    3758:	dfab10e3          	bne	x22,x26,3538 <.L617>
    375c:	02812783          	lw	x15,40(x2)
    3760:	02412503          	lw	x10,36(x2)
    3764:	02c12c83          	lw	x25,44(x2)
    3768:	03012703          	lw	x14,48(x2)
    376c:	ffffd6b7          	lui	x13,0xffffd
    3770:	00003937          	lui	x18,0x3
    3774:	000044b7          	lui	x9,0x4
    3778:	0000dab7          	lui	x21,0xd
    377c:	c0068813          	addi	x16,x13,-1024 # ffffcc00 <.L2120+0xfffef224>
    3780:	03812283          	lw	x5,56(x2)
    3784:	01278f33          	add	x30,x15,x18
    3788:	00950a33          	add	x20,x10,x9
    378c:	015c8633          	add	x12,x25,x21
    3790:	01070fb3          	add	x31,x14,x16
    3794:	03e12423          	sw	x30,40(x2)
    3798:	03412223          	sw	x20,36(x2)
    379c:	02c12623          	sw	x12,44(x2)
    37a0:	03f12823          	sw	x31,48(x2)
    37a4:	d65f16e3          	bne	x30,x5,3510 <.L634>
    37a8:	00000c37          	lui	x24,0x0
    37ac:	00000eb7          	lui	x29,0x0
    37b0:	000000b7          	lui	x1,0x0
    37b4:	00000b37          	lui	x22,0x0
    37b8:	0000a383          	lw	x7,0(x1) # 0 <_Z21hb_tiled_foreach_implIfZL26convolution_backward_inputP11hb_tensor_tS1_S1_P11hb_vector_tS3_EUlvE_JEEvjjT0_8HBTensorIT_Lln1EEPS7_.isra.0>
    37bc:	000eae03          	lw	x28,0(x29) # 0 <_Z21hb_tiled_foreach_implIfZL26convolution_backward_inputP11hb_tensor_tS1_S1_P11hb_vector_tS3_EUlvE_JEEvjjT0_8HBTensorIT_Lln1EEPS7_.isra.0>
    37c0:	000b2d03          	lw	x26,0(x22) # 0 <_Z21hb_tiled_foreach_implIfZL26convolution_backward_inputP11hb_tensor_tS1_S1_P11hb_vector_tS3_EUlvE_JEEvjjT0_8HBTensorIT_Lln1EEPS7_.isra.0>
    37c4:	000c2883          	lw	x17,0(x24) # 0 <_Z21hb_tiled_foreach_implIfZL26convolution_backward_inputP11hb_tensor_tS1_S1_P11hb_vector_tS3_EUlvE_JEEvjjT0_8HBTensorIT_Lln1EEPS7_.isra.0>
    37c8:	00000337          	lui	x6,0x0
    37cc:	00032d83          	lw	x27,0(x6) # 0 <_Z21hb_tiled_foreach_implIfZL26convolution_backward_inputP11hb_tensor_tS1_S1_P11hb_vector_tS3_EUlvE_JEEvjjT0_8HBTensorIT_Lln1EEPS7_.isra.0>
    37d0:	01c385b3          	add	x11,x7,x28
    37d4:	011d0bb3          	add	x23,x26,x17
    37d8:	01859413          	slli	x8,x11,0x18
    37dc:	012b9993          	slli	x19,x23,0x12
    37e0:	3f000937          	lui	x18,0x3f000
    37e4:	00fc0f37          	lui	x30,0xfc0
    37e8:	00040ab7          	lui	x21,0x40
    37ec:	004d9513          	slli	x10,x27,0x4
    37f0:	012477b3          	and	x15,x8,x18
    37f4:	01e9f4b3          	and	x9,x19,x30
    37f8:	ff0a8c93          	addi	x25,x21,-16 # 3fff0 <.L2120+0x32614>
    37fc:	01957633          	and	x12,x10,x25
    3800:	0097ea33          	or	x20,x15,x9
    3804:	00ca66b3          	or	x13,x20,x12
    3808:	c0000837          	lui	x16,0xc0000
    380c:	0106efb3          	or	x31,x13,x16
    3810:	41001737          	lui	x14,0x41001
    3814:	d1f72623          	sw	x31,-756(x14) # 41000d0c <.L2120+0x40ff3330>
    3818:	000c2083          	lw	x1,0(x24)
    381c:	000ea383          	lw	x7,0(x29)
    3820:	00000537          	lui	x10,0x0
    3824:	00408e93          	addi	x29,x1,4
    3828:	00050693          	mv	x13,x10
    382c:	01d68e33          	add	x28,x13,x29
    3830:	01839b13          	slli	x22,x7,0x18
    3834:	000c0293          	mv	x5,x24
    3838:	016e6d33          	or	x26,x28,x22
    383c:	201c0c37          	lui	x24,0x201c0
    3840:	018d68b3          	or	x17,x26,x24
    3844:	00100313          	li	x6,1
    3848:	00688023          	sb	x6,0(x17)
    384c:	0002ad83          	lw	x27,0(x5)
    3850:	00700593          	li	x11,7
    3854:	02bd8863          	beq	x27,x11,3884 <.L702>

00003858 <.L636>:
    3858:	00100a93          	li	x21,1
    385c:	0100006f          	j	386c <.L649>

00003860 <.L703>:
    3860:	00050813          	mv	x16,x10
    3864:	14082faf          	lr.w.aq	x31,(x16)
    3868:	015f8863          	beq	x31,x21,3878 <.L648>

0000386c <.L649>:
    386c:	00050c93          	mv	x25,x10
    3870:	100ca62f          	lr.w	x12,(x25)
    3874:	ff5616e3          	bne	x12,x21,3860 <.L703>

00003878 <.L648>:
    3878:	0006a023          	sw	x0,0(x13)
    387c:	00000513          	li	x10,0
    3880:	fd8ff06f          	j	3058 <.L592>

00003884 <.L702>:
    3884:	00000bb7          	lui	x23,0x0
    3888:	000009b7          	lui	x19,0x0
    388c:	004b8413          	addi	x8,x23,4 # 4 <_Z21hb_tiled_foreach_implIfZL26convolution_backward_inputP11hb_tensor_tS1_S1_P11hb_vector_tS3_EUlvE_JEEvjjT0_8HBTensorIT_Lln1EEPS7_.isra.0+0x4>
    3890:	01498913          	addi	x18,x19,20 # 14 <.L8>

00003894 <.L635>:
    3894:	00040793          	mv	x15,x8

00003898 <.L638>:
    3898:	0007cf03          	lbu	x30,0(x15)
    389c:	00178793          	addi	x15,x15,1
    38a0:	0fff7493          	andi	x9,x30,255
    38a4:	fe0488e3          	beqz	x9,3894 <.L635>
    38a8:	fef918e3          	bne	x18,x15,3898 <.L638>
    38ac:	00000a37          	lui	x20,0x0
    38b0:	000a2a83          	lw	x21,0(x20) # 0 <_Z21hb_tiled_foreach_implIfZL26convolution_backward_inputP11hb_tensor_tS1_S1_P11hb_vector_tS3_EUlvE_JEEvjjT0_8HBTensorIT_Lln1EEPS7_.isra.0>
    38b4:	231c0837          	lui	x16,0x231c0
    38b8:	00100713          	li	x14,1
    38bc:	018a8c93          	addi	x25,x21,24
    38c0:	01968633          	add	x12,x13,x25
    38c4:	01066fb3          	or	x31,x12,x16
    38c8:	00ef8023          	sb	x14,0(x31)
    38cc:	000002b7          	lui	x5,0x0
    38d0:	0002a083          	lw	x1,0(x5) # 0 <_Z21hb_tiled_foreach_implIfZL26convolution_backward_inputP11hb_tensor_tS1_S1_P11hb_vector_tS3_EUlvE_JEEvjjT0_8HBTensorIT_Lln1EEPS7_.isra.0>
    38d4:	00700393          	li	x7,7
    38d8:	f87090e3          	bne	x1,x7,3858 <.L636>
    38dc:	00000eb7          	lui	x29,0x0
    38e0:	000eae03          	lw	x28,0(x29) # 0 <_Z21hb_tiled_foreach_implIfZL26convolution_backward_inputP11hb_tensor_tS1_S1_P11hb_vector_tS3_EUlvE_JEEvjjT0_8HBTensorIT_Lln1EEPS7_.isra.0>
    38e4:	00300b13          	li	x22,3
    38e8:	096e0e63          	beq	x28,x22,3984 <.L704>

000038ec <.L644>:
    38ec:	00100293          	li	x5,1
    38f0:	0100006f          	j	3900 <.L640>

000038f4 <.L705>:
    38f4:	01468e93          	addi	x29,x13,20
    38f8:	140eae2f          	lr.w.aq	x28,(x29)
    38fc:	005e0863          	beq	x28,x5,390c <.L645>

00003900 <.L640>:
    3900:	01468093          	addi	x1,x13,20
    3904:	1000a3af          	lr.w	x7,(x1)
    3908:	fe5396e3          	bne	x7,x5,38f4 <.L705>

0000390c <.L645>:
    390c:	0006aa23          	sw	x0,20(x13)
    3910:	00000c13          	li	x24,0
    3914:	01000b13          	li	x22,16

00003918 <.L646>:
    3918:	01868d33          	add	x26,x13,x24
    391c:	000d0223          	sb	x0,4(x26)
    3920:	001c0c13          	addi	x24,x24,1 # 201c0001 <.L2120+0x201b2625>
    3924:	ff6c1ae3          	bne	x24,x22,3918 <.L646>
    3928:	0006a023          	sw	x0,0(x13)
    392c:	00000f13          	li	x30,0
    3930:	20000337          	lui	x6,0x20000
    3934:	00100893          	li	x17,1
    3938:	00040db7          	lui	x27,0x40
    393c:	00400bb7          	lui	x23,0x400

00003940 <.L647>:
    3940:	000005b7          	lui	x11,0x0
    3944:	0005a403          	lw	x8,0(x11) # 0 <_Z21hb_tiled_foreach_implIfZL26convolution_backward_inputP11hb_tensor_tS1_S1_P11hb_vector_tS3_EUlvE_JEEvjjT0_8HBTensorIT_Lln1EEPS7_.isra.0>
    3948:	01e6e9b3          	or	x19,x13,x30
    394c:	01bf0f33          	add	x30,x30,x27
    3950:	01841493          	slli	x9,x8,0x18
    3954:	0134ea33          	or	x20,x9,x19
    3958:	006a67b3          	or	x15,x20,x6
    395c:	0117a023          	sw	x17,0(x15)
    3960:	ff7f10e3          	bne	x30,x23,3940 <.L647>
    3964:	ef5ff06f          	j	3858 <.L636>

00003968 <.L619>:
    3968:	f806ae23          	sw	x0,-100(x13)
    396c:	ca1792e3          	bne	x15,x1,3610 <.L652>
    3970:	00000793          	li	x15,0
    3974:	00000613          	li	x12,0
    3978:	c55ff06f          	j	35cc <.L622>

0000397c <.L673>:
    397c:	00000693          	li	x13,0
    3980:	d19ff06f          	j	3698 <.L628>

00003984 <.L704>:
    3984:	00000d37          	lui	x26,0x0
    3988:	000008b7          	lui	x17,0x0
    398c:	018d0c13          	addi	x24,x26,24 # 18 <.L8+0x4>
    3990:	02088313          	addi	x6,x17,32 # 20 <.L8+0xc>

00003994 <.L639>:
    3994:	000c0b93          	mv	x23,x24

00003998 <.L641>:
    3998:	000bcd83          	lbu	x27,0(x23) # 400000 <.L2120+0x3f2624>
    399c:	001b8b93          	addi	x23,x23,1
    39a0:	0ffdf593          	andi	x11,x27,255
    39a4:	fe0588e3          	beqz	x11,3994 <.L639>
    39a8:	ff7318e3          	bne	x6,x23,3998 <.L641>
    39ac:	00068c23          	sb	x0,24(x13)
    39b0:	00068ca3          	sb	x0,25(x13)
    39b4:	00068d23          	sb	x0,26(x13)
    39b8:	00068da3          	sb	x0,27(x13)
    39bc:	00068e23          	sb	x0,28(x13)
    39c0:	00068ea3          	sb	x0,29(x13)
    39c4:	00068f23          	sb	x0,30(x13)
    39c8:	00068fa3          	sb	x0,31(x13)
    39cc:	0006aa23          	sw	x0,20(x13)
    39d0:	00000f93          	li	x31,0
    39d4:	03fc0437          	lui	x8,0x3fc0
    39d8:	200009b7          	lui	x19,0x20000
    39dc:	00100f13          	li	x30,1
    39e0:	010004b7          	lui	x9,0x1000
    39e4:	08000a37          	lui	x20,0x8000

000039e8 <.L643>:
    39e8:	01209793          	slli	x15,x1,0x12
    39ec:	01f96ab3          	or	x21,x18,x31
    39f0:	0087fcb3          	and	x25,x15,x8
    39f4:	015ce633          	or	x12,x25,x21
    39f8:	01366833          	or	x16,x12,x19
    39fc:	01e82023          	sw	x30,0(x16) # 231c0000 <.L2120+0x231b2624>
    3a00:	00000737          	lui	x14,0x0
    3a04:	009f8fb3          	add	x31,x31,x9
    3a08:	00072083          	lw	x1,0(x14) # 0 <_Z21hb_tiled_foreach_implIfZL26convolution_backward_inputP11hb_tensor_tS1_S1_P11hb_vector_tS3_EUlvE_JEEvjjT0_8HBTensorIT_Lln1EEPS7_.isra.0>
    3a0c:	fd4f9ee3          	bne	x31,x20,39e8 <.L643>
    3a10:	00700913          	li	x18,7
    3a14:	ed208ce3          	beq	x1,x18,38ec <.L644>
    3a18:	e41ff06f          	j	3858 <.L636>

00003a1c <_ZN12_GLOBAL__N_128convolution_forward_templateILm8ELm128ELm8ELm8ELm64ELm8ELm8ELm3ELm3ELm1ELm1ELm1ELm1EEEiP11hb_tensor_tS2_S2_P11hb_vector_tS4_>:
    3a1c:	e7010113          	addi	x2,x2,-400
    3a20:	19212023          	sw	x18,384(x2)
    3a24:	00050913          	mv	x18,x10
    3a28:	18912223          	sw	x9,388(x2)
    3a2c:	05410513          	addi	x10,x2,84
    3a30:	00058493          	mv	x9,x11
    3a34:	00090593          	mv	x11,x18
    3a38:	18112623          	sw	x1,396(x2)
    3a3c:	18812423          	sw	x8,392(x2)
    3a40:	17312e23          	sw	x19,380(x2)
    3a44:	00060413          	mv	x8,x12
    3a48:	00070993          	mv	x19,x14
    3a4c:	17412c23          	sw	x20,376(x2)
    3a50:	17712623          	sw	x23,364(x2)
    3a54:	00068a13          	mv	x20,x13
    3a58:	17512a23          	sw	x21,372(x2)
    3a5c:	17612823          	sw	x22,368(x2)
    3a60:	17812423          	sw	x24,360(x2)
    3a64:	17912223          	sw	x25,356(x2)
    3a68:	17a12023          	sw	x26,352(x2)
    3a6c:	15b12e23          	sw	x27,348(x2)
    3a70:	08810b93          	addi	x23,x2,136
    3a74:	00000097          	auipc	x1,0x0
    3a78:	000080e7          	jalr	x1 # 3a74 <_ZN12_GLOBAL__N_128convolution_forward_templateILm8ELm128ELm8ELm8ELm64ELm8ELm8ELm3ELm3ELm1ELm1ELm1ELm1EEEiP11hb_tensor_tS2_S2_P11hb_vector_tS4_+0x58>
    3a7c:	00048593          	mv	x11,x9
    3a80:	000b8513          	mv	x10,x23
    3a84:	00000097          	auipc	x1,0x0
    3a88:	000080e7          	jalr	x1 # 3a84 <_ZN12_GLOBAL__N_128convolution_forward_templateILm8ELm128ELm8ELm8ELm64ELm8ELm8ELm3ELm3ELm1ELm1ELm1ELm1EEEiP11hb_tensor_tS2_S2_P11hb_vector_tS4_+0x68>
    3a8c:	00040593          	mv	x11,x8
    3a90:	0ec10513          	addi	x10,x2,236
    3a94:	00000097          	auipc	x1,0x0
    3a98:	000080e7          	jalr	x1 # 3a94 <_ZN12_GLOBAL__N_128convolution_forward_templateILm8ELm128ELm8ELm8ELm64ELm8ELm8ELm3ELm3ELm1ELm1ELm1ELm1EEEiP11hb_tensor_tS2_S2_P11hb_vector_tS4_+0x78>
    3a9c:	05812783          	lw	x15,88(x2)
    3aa0:	10078e63          	beqz	x15,3bbc <.L807>
    3aa4:	00100713          	li	x14,1
    3aa8:	0cf77063          	bgeu	x14,x15,3b68 <.L808>
    3aac:	00200693          	li	x13,2
    3ab0:	1ad78a63          	beq	x15,x13,3c64 <.L809>
    3ab4:	00300613          	li	x12,3
    3ab8:	20c78063          	beq	x15,x12,3cb8 <.L810>
    3abc:	08c12083          	lw	x1,140(x2)
    3ac0:	14177863          	bgeu	x14,x1,3c10 <.L811>
    3ac4:	28d08e63          	beq	x1,x13,3d60 <.L812>
    3ac8:	2ec08663          	beq	x1,x12,3db4 <.L813>
    3acc:	0f012283          	lw	x5,240(x2)
    3ad0:	2256fe63          	bgeu	x13,x5,3d0c <.L814>
    3ad4:	32c28a63          	beq	x5,x12,3e08 <.L815>
    3ad8:	06012583          	lw	x11,96(x2)
    3adc:	004a2503          	lw	x10,4(x20) # 8000004 <.L2120+0x7ff2628>
    3ae0:	09412a83          	lw	x21,148(x2)
    3ae4:	0049a883          	lw	x17,4(x19) # 20000004 <.L2120+0x1fff2628>
    3ae8:	0f812303          	lw	x6,248(x2)
    3aec:	0005a383          	lw	x7,0(x11)
    3af0:	00800f93          	li	x31,8
    3af4:	00052983          	lw	x19,0(x10) # 0 <_Z21hb_tiled_foreach_implIfZL26convolution_backward_inputP11hb_tensor_tS1_S1_P11hb_vector_tS3_EUlvE_JEEvjjT0_8HBTensorIT_Lln1EEPS7_.isra.0>
    3af8:	00452783          	lw	x15,4(x10)
    3afc:	0045ab03          	lw	x22,4(x11)
    3b00:	0085a803          	lw	x16,8(x11)
    3b04:	00c5ac03          	lw	x24,12(x11)
    3b08:	004aaf03          	lw	x30,4(x21)
    3b0c:	008aac83          	lw	x25,8(x21)
    3b10:	00caae83          	lw	x29,12(x21)
    3b14:	00832d03          	lw	x26,8(x6) # 20000008 <.L2120+0x1fff262c>
    3b18:	00c32e03          	lw	x28,12(x6)
    3b1c:	0008ad83          	lw	x27,0(x17)
    3b20:	0048aa03          	lw	x20,4(x17)
    3b24:	fff00513          	li	x10,-1
    3b28:	33f38a63          	beq	x7,x31,3e5c <.L816>

00003b2c <.L706>:
    3b2c:	18c12083          	lw	x1,396(x2)
    3b30:	18812403          	lw	x8,392(x2)
    3b34:	18412483          	lw	x9,388(x2)
    3b38:	18012903          	lw	x18,384(x2)
    3b3c:	17c12983          	lw	x19,380(x2)
    3b40:	17812a03          	lw	x20,376(x2)
    3b44:	17412a83          	lw	x21,372(x2)
    3b48:	17012b03          	lw	x22,368(x2)
    3b4c:	16c12b83          	lw	x23,364(x2)
    3b50:	16812c03          	lw	x24,360(x2)
    3b54:	16412c83          	lw	x25,356(x2)
    3b58:	16012d03          	lw	x26,352(x2)
    3b5c:	15c12d83          	lw	x27,348(x2)
    3b60:	19010113          	addi	x2,x2,400
    3b64:	00008067          	ret

00003b68 <.L808>:
    3b68:	000007b7          	lui	x15,0x0
    3b6c:	00000db7          	lui	x27,0x0
    3b70:	06f00613          	li	x12,111
    3b74:	000d8593          	mv	x11,x27
    3b78:	00078513          	mv	x10,x15
    3b7c:	00000097          	auipc	x1,0x0
    3b80:	000080e7          	jalr	x1 # 3b7c <.L808+0x14>
    3b84:	05812583          	lw	x11,88(x2)
    3b88:	00000f37          	lui	x30,0x0
    3b8c:	000f0513          	mv	x10,x30
    3b90:	00000937          	lui	x18,0x0
    3b94:	00000097          	auipc	x1,0x0
    3b98:	000080e7          	jalr	x1 # 3b94 <.L808+0x2c>
    3b9c:	00000cb7          	lui	x25,0x0
    3ba0:	00092a83          	lw	x21,0(x18) # 0 <_Z21hb_tiled_foreach_implIfZL26convolution_backward_inputP11hb_tensor_tS1_S1_P11hb_vector_tS3_EUlvE_JEEvjjT0_8HBTensorIT_Lln1EEPS7_.isra.0>
    3ba4:	000ca803          	lw	x16,0(x25) # 0 <_Z21hb_tiled_foreach_implIfZL26convolution_backward_inputP11hb_tensor_tS1_S1_P11hb_vector_tS3_EUlvE_JEEvjjT0_8HBTensorIT_Lln1EEPS7_.isra.0>
    3ba8:	4100f3b7          	lui	x7,0x4100f
    3bac:	010a9613          	slli	x12,x21,0x10
    3bb0:	01060fb3          	add	x31,x12,x16
    3bb4:	adf3ac23          	sw	x31,-1320(x7) # 4100ead8 <.L2120+0x410010fc>

00003bb8 <.L710>:
    3bb8:	0000006f          	j	3bb8 <.L710>

00003bbc <.L807>:
    3bbc:	000000b7          	lui	x1,0x0
    3bc0:	00000737          	lui	x14,0x0
    3bc4:	00008593          	mv	x11,x1
    3bc8:	06f00613          	li	x12,111
    3bcc:	00070513          	mv	x10,x14
    3bd0:	00000097          	auipc	x1,0x0
    3bd4:	000080e7          	jalr	x1 # 3bd0 <.L807+0x14>
    3bd8:	05812583          	lw	x11,88(x2)
    3bdc:	000002b7          	lui	x5,0x0
    3be0:	00028513          	mv	x10,x5
    3be4:	00000097          	auipc	x1,0x0
    3be8:	000080e7          	jalr	x1 # 3be4 <.L807+0x28>
    3bec:	00000337          	lui	x6,0x0
    3bf0:	00032503          	lw	x10,0(x6) # 0 <_Z21hb_tiled_foreach_implIfZL26convolution_backward_inputP11hb_tensor_tS1_S1_P11hb_vector_tS3_EUlvE_JEEvjjT0_8HBTensorIT_Lln1EEPS7_.isra.0>
    3bf4:	000006b7          	lui	x13,0x0
    3bf8:	0006ac03          	lw	x24,0(x13) # 0 <_Z21hb_tiled_foreach_implIfZL26convolution_backward_inputP11hb_tensor_tS1_S1_P11hb_vector_tS3_EUlvE_JEEvjjT0_8HBTensorIT_Lln1EEPS7_.isra.0>
    3bfc:	01051993          	slli	x19,x10,0x10
    3c00:	4100fbb7          	lui	x23,0x4100f
    3c04:	01898b33          	add	x22,x19,x24
    3c08:	ad6bac23          	sw	x22,-1320(x23) # 4100ead8 <.L2120+0x410010fc>

00003c0c <.L708>:
    3c0c:	0000006f          	j	3c0c <.L708>

00003c10 <.L811>:
    3c10:	00000d37          	lui	x26,0x0
    3c14:	00000437          	lui	x8,0x0
    3c18:	06f00613          	li	x12,111
    3c1c:	000d0593          	mv	x11,x26
    3c20:	00040513          	mv	x10,x8
    3c24:	00000097          	auipc	x1,0x0
    3c28:	000080e7          	jalr	x1 # 3c24 <.L811+0x14>
    3c2c:	08c12583          	lw	x11,140(x2)
    3c30:	00000db7          	lui	x27,0x0
    3c34:	000d8513          	mv	x10,x27
    3c38:	00000097          	auipc	x1,0x0
    3c3c:	000080e7          	jalr	x1 # 3c38 <.L811+0x28>
    3c40:	000007b7          	lui	x15,0x0
    3c44:	0007af03          	lw	x30,0(x15) # 0 <_Z21hb_tiled_foreach_implIfZL26convolution_backward_inputP11hb_tensor_tS1_S1_P11hb_vector_tS3_EUlvE_JEEvjjT0_8HBTensorIT_Lln1EEPS7_.isra.0>
    3c48:	00000937          	lui	x18,0x0
    3c4c:	00092a83          	lw	x21,0(x18) # 0 <_Z21hb_tiled_foreach_implIfZL26convolution_backward_inputP11hb_tensor_tS1_S1_P11hb_vector_tS3_EUlvE_JEEvjjT0_8HBTensorIT_Lln1EEPS7_.isra.0>
    3c50:	010f1c93          	slli	x25,x30,0x10
    3c54:	4100f637          	lui	x12,0x4100f
    3c58:	015c8833          	add	x16,x25,x21
    3c5c:	ad062c23          	sw	x16,-1320(x12) # 4100ead8 <.L2120+0x410010fc>

00003c60 <.L716>:
    3c60:	0000006f          	j	3c60 <.L716>

00003c64 <.L809>:
    3c64:	00000b37          	lui	x22,0x0
    3c68:	00000bb7          	lui	x23,0x0
    3c6c:	06f00613          	li	x12,111
    3c70:	000b0593          	mv	x11,x22
    3c74:	000b8513          	mv	x10,x23
    3c78:	00000097          	auipc	x1,0x0
    3c7c:	000080e7          	jalr	x1 # 3c78 <.L809+0x14>
    3c80:	05812583          	lw	x11,88(x2)
    3c84:	00000e37          	lui	x28,0x0
    3c88:	000e0513          	mv	x10,x28
    3c8c:	00000097          	auipc	x1,0x0
    3c90:	000080e7          	jalr	x1 # 3c8c <.L809+0x28>
    3c94:	000008b7          	lui	x17,0x0
    3c98:	0008ae83          	lw	x29,0(x17) # 0 <_Z21hb_tiled_foreach_implIfZL26convolution_backward_inputP11hb_tensor_tS1_S1_P11hb_vector_tS3_EUlvE_JEEvjjT0_8HBTensorIT_Lln1EEPS7_.isra.0>
    3c9c:	000005b7          	lui	x11,0x0
    3ca0:	0005aa03          	lw	x20,0(x11) # 0 <_Z21hb_tiled_foreach_implIfZL26convolution_backward_inputP11hb_tensor_tS1_S1_P11hb_vector_tS3_EUlvE_JEEvjjT0_8HBTensorIT_Lln1EEPS7_.isra.0>
    3ca4:	010e9493          	slli	x9,x29,0x10
    3ca8:	4100f437          	lui	x8,0x4100f
    3cac:	01448d33          	add	x26,x9,x20
    3cb0:	ada42c23          	sw	x26,-1320(x8) # 4100ead8 <.L2120+0x410010fc>

00003cb4 <.L712>:
    3cb4:	0000006f          	j	3cb4 <.L712>

00003cb8 <.L810>:
    3cb8:	000000b7          	lui	x1,0x0
    3cbc:	00000fb7          	lui	x31,0x0
    3cc0:	00008593          	mv	x11,x1
    3cc4:	06f00613          	li	x12,111
    3cc8:	000f8513          	mv	x10,x31
    3ccc:	00000097          	auipc	x1,0x0
    3cd0:	000080e7          	jalr	x1 # 3ccc <.L810+0x14>
    3cd4:	05812583          	lw	x11,88(x2)
    3cd8:	000003b7          	lui	x7,0x0
    3cdc:	00038513          	mv	x10,x7
    3ce0:	00000097          	auipc	x1,0x0
    3ce4:	000080e7          	jalr	x1 # 3ce0 <.L810+0x28>
    3ce8:	00000737          	lui	x14,0x0
    3cec:	00072283          	lw	x5,0(x14) # 0 <_Z21hb_tiled_foreach_implIfZL26convolution_backward_inputP11hb_tensor_tS1_S1_P11hb_vector_tS3_EUlvE_JEEvjjT0_8HBTensorIT_Lln1EEPS7_.isra.0>
    3cf0:	00000337          	lui	x6,0x0
    3cf4:	00032503          	lw	x10,0(x6) # 0 <_Z21hb_tiled_foreach_implIfZL26convolution_backward_inputP11hb_tensor_tS1_S1_P11hb_vector_tS3_EUlvE_JEEvjjT0_8HBTensorIT_Lln1EEPS7_.isra.0>
    3cf8:	01029693          	slli	x13,x5,0x10
    3cfc:	4100f9b7          	lui	x19,0x4100f
    3d00:	00a68c33          	add	x24,x13,x10
    3d04:	ad89ac23          	sw	x24,-1320(x19) # 4100ead8 <.L2120+0x410010fc>

00003d08 <.L714>:
    3d08:	0000006f          	j	3d08 <.L714>

00003d0c <.L814>:
    3d0c:	00000a37          	lui	x20,0x0
    3d10:	000004b7          	lui	x9,0x0
    3d14:	06f00613          	li	x12,111
    3d18:	000a0593          	mv	x11,x20
    3d1c:	00048513          	mv	x10,x9
    3d20:	00000097          	auipc	x1,0x0
    3d24:	000080e7          	jalr	x1 # 3d20 <.L814+0x14>
    3d28:	0f012583          	lw	x11,240(x2)
    3d2c:	00000d37          	lui	x26,0x0
    3d30:	000d0513          	mv	x10,x26
    3d34:	00000097          	auipc	x1,0x0
    3d38:	000080e7          	jalr	x1 # 3d34 <.L814+0x28>
    3d3c:	00000437          	lui	x8,0x0
    3d40:	00042d83          	lw	x27,0(x8) # 0 <_Z21hb_tiled_foreach_implIfZL26convolution_backward_inputP11hb_tensor_tS1_S1_P11hb_vector_tS3_EUlvE_JEEvjjT0_8HBTensorIT_Lln1EEPS7_.isra.0>
    3d44:	000007b7          	lui	x15,0x0
    3d48:	0007af03          	lw	x30,0(x15) # 0 <_Z21hb_tiled_foreach_implIfZL26convolution_backward_inputP11hb_tensor_tS1_S1_P11hb_vector_tS3_EUlvE_JEEvjjT0_8HBTensorIT_Lln1EEPS7_.isra.0>
    3d4c:	010d9913          	slli	x18,x27,0x10
    3d50:	4100fcb7          	lui	x25,0x4100f
    3d54:	01e90ab3          	add	x21,x18,x30
    3d58:	ad5cac23          	sw	x21,-1320(x25) # 4100ead8 <.L2120+0x410010fc>

00003d5c <.L722>:
    3d5c:	0000006f          	j	3d5c <.L722>

00003d60 <.L812>:
    3d60:	00000c37          	lui	x24,0x0
    3d64:	000009b7          	lui	x19,0x0
    3d68:	06f00613          	li	x12,111
    3d6c:	000c0593          	mv	x11,x24
    3d70:	00098513          	mv	x10,x19
    3d74:	00000097          	auipc	x1,0x0
    3d78:	000080e7          	jalr	x1 # 3d74 <.L812+0x14>
    3d7c:	08c12583          	lw	x11,140(x2)
    3d80:	00000b37          	lui	x22,0x0
    3d84:	000b0513          	mv	x10,x22
    3d88:	00000097          	auipc	x1,0x0
    3d8c:	000080e7          	jalr	x1 # 3d88 <.L812+0x28>
    3d90:	00000bb7          	lui	x23,0x0
    3d94:	000bae03          	lw	x28,0(x23) # 0 <_Z21hb_tiled_foreach_implIfZL26convolution_backward_inputP11hb_tensor_tS1_S1_P11hb_vector_tS3_EUlvE_JEEvjjT0_8HBTensorIT_Lln1EEPS7_.isra.0>
    3d98:	000008b7          	lui	x17,0x0
    3d9c:	0008ae83          	lw	x29,0(x17) # 0 <_Z21hb_tiled_foreach_implIfZL26convolution_backward_inputP11hb_tensor_tS1_S1_P11hb_vector_tS3_EUlvE_JEEvjjT0_8HBTensorIT_Lln1EEPS7_.isra.0>
    3da0:	010e1593          	slli	x11,x28,0x10
    3da4:	4100f4b7          	lui	x9,0x4100f
    3da8:	01d58a33          	add	x20,x11,x29
    3dac:	ad44ac23          	sw	x20,-1320(x9) # 4100ead8 <.L2120+0x410010fc>

00003db0 <.L718>:
    3db0:	0000006f          	j	3db0 <.L718>

00003db4 <.L813>:
    3db4:	000000b7          	lui	x1,0x0
    3db8:	00000837          	lui	x16,0x0
    3dbc:	00008593          	mv	x11,x1
    3dc0:	06f00613          	li	x12,111
    3dc4:	00080513          	mv	x10,x16
    3dc8:	00000097          	auipc	x1,0x0
    3dcc:	000080e7          	jalr	x1 # 3dc8 <.L813+0x14>
    3dd0:	08c12583          	lw	x11,140(x2)
    3dd4:	00000637          	lui	x12,0x0
    3dd8:	00060513          	mv	x10,x12
    3ddc:	00000097          	auipc	x1,0x0
    3de0:	000080e7          	jalr	x1 # 3ddc <.L813+0x28>
    3de4:	00000fb7          	lui	x31,0x0
    3de8:	000fa383          	lw	x7,0(x31) # 0 <_Z21hb_tiled_foreach_implIfZL26convolution_backward_inputP11hb_tensor_tS1_S1_P11hb_vector_tS3_EUlvE_JEEvjjT0_8HBTensorIT_Lln1EEPS7_.isra.0>
    3dec:	00000737          	lui	x14,0x0
    3df0:	00072283          	lw	x5,0(x14) # 0 <_Z21hb_tiled_foreach_implIfZL26convolution_backward_inputP11hb_tensor_tS1_S1_P11hb_vector_tS3_EUlvE_JEEvjjT0_8HBTensorIT_Lln1EEPS7_.isra.0>
    3df4:	01039313          	slli	x6,x7,0x10
    3df8:	4100f6b7          	lui	x13,0x4100f
    3dfc:	00530533          	add	x10,x6,x5
    3e00:	aca6ac23          	sw	x10,-1320(x13) # 4100ead8 <.L2120+0x410010fc>

00003e04 <.L720>:
    3e04:	0000006f          	j	3e04 <.L720>

00003e08 <.L815>:
    3e08:	000006b7          	lui	x13,0x0
    3e0c:	00000537          	lui	x10,0x0
    3e10:	00050593          	mv	x11,x10
    3e14:	06f00613          	li	x12,111
    3e18:	00068513          	mv	x10,x13
    3e1c:	00000097          	auipc	x1,0x0
    3e20:	000080e7          	jalr	x1 # 3e1c <.L815+0x14>
    3e24:	0f012583          	lw	x11,240(x2)
    3e28:	00000c37          	lui	x24,0x0
    3e2c:	000c0513          	mv	x10,x24
    3e30:	000009b7          	lui	x19,0x0
    3e34:	00000097          	auipc	x1,0x0
    3e38:	000080e7          	jalr	x1 # 3e34 <.L815+0x2c>
    3e3c:	00000bb7          	lui	x23,0x0
    3e40:	0009ab03          	lw	x22,0(x19) # 0 <_Z21hb_tiled_foreach_implIfZL26convolution_backward_inputP11hb_tensor_tS1_S1_P11hb_vector_tS3_EUlvE_JEEvjjT0_8HBTensorIT_Lln1EEPS7_.isra.0>
    3e44:	000bae03          	lw	x28,0(x23) # 0 <_Z21hb_tiled_foreach_implIfZL26convolution_backward_inputP11hb_tensor_tS1_S1_P11hb_vector_tS3_EUlvE_JEEvjjT0_8HBTensorIT_Lln1EEPS7_.isra.0>
    3e48:	4100f5b7          	lui	x11,0x4100f
    3e4c:	010b1893          	slli	x17,x22,0x10
    3e50:	01c88eb3          	add	x29,x17,x28
    3e54:	add5ac23          	sw	x29,-1320(x11) # 4100ead8 <.L2120+0x410010fc>

00003e58 <.L724>:
    3e58:	0000006f          	j	3e58 <.L724>

00003e5c <.L816>:
    3e5c:	08000713          	li	x14,128
    3e60:	cceb16e3          	bne	x22,x14,3b2c <.L706>
    3e64:	00800693          	li	x13,8
    3e68:	ccd812e3          	bne	x16,x13,3b2c <.L706>
    3e6c:	cd0c10e3          	bne	x24,x16,3b2c <.L706>
    3e70:	04000613          	li	x12,64
    3e74:	cacf1ce3          	bne	x30,x12,3b2c <.L706>
    3e78:	cb8c9ae3          	bne	x25,x24,3b2c <.L706>
    3e7c:	cb9e98e3          	bne	x29,x25,3b2c <.L706>
    3e80:	00300093          	li	x1,3
    3e84:	ca1d14e3          	bne	x26,x1,3b2c <.L706>
    3e88:	cbae12e3          	bne	x28,x26,3b2c <.L706>
    3e8c:	00100293          	li	x5,1
    3e90:	c85d9ee3          	bne	x27,x5,3b2c <.L706>
    3e94:	c9ba1ce3          	bne	x20,x27,3b2c <.L706>
    3e98:	00100593          	li	x11,1
    3e9c:	c8b998e3          	bne	x19,x11,3b2c <.L706>
    3ea0:	c93796e3          	bne	x15,x19,3b2c <.L706>
    3ea4:	00000ab7          	lui	x21,0x0
    3ea8:	000008b7          	lui	x17,0x0
    3eac:	000003b7          	lui	x7,0x0
    3eb0:	00000b37          	lui	x22,0x0
    3eb4:	000aa503          	lw	x10,0(x21) # 0 <_Z21hb_tiled_foreach_implIfZL26convolution_backward_inputP11hb_tensor_tS1_S1_P11hb_vector_tS3_EUlvE_JEEvjjT0_8HBTensorIT_Lln1EEPS7_.isra.0>
    3eb8:	0008a303          	lw	x6,0(x17) # 0 <_Z21hb_tiled_foreach_implIfZL26convolution_backward_inputP11hb_tensor_tS1_S1_P11hb_vector_tS3_EUlvE_JEEvjjT0_8HBTensorIT_Lln1EEPS7_.isra.0>
    3ebc:	0003af83          	lw	x31,0(x7) # 0 <_Z21hb_tiled_foreach_implIfZL26convolution_backward_inputP11hb_tensor_tS1_S1_P11hb_vector_tS3_EUlvE_JEEvjjT0_8HBTensorIT_Lln1EEPS7_.isra.0>
    3ec0:	000b2803          	lw	x16,0(x22) # 0 <_Z21hb_tiled_foreach_implIfZL26convolution_backward_inputP11hb_tensor_tS1_S1_P11hb_vector_tS3_EUlvE_JEEvjjT0_8HBTensorIT_Lln1EEPS7_.isra.0>
    3ec4:	00000c37          	lui	x24,0x0
    3ec8:	000c2f03          	lw	x30,0(x24) # 0 <_Z21hb_tiled_foreach_implIfZL26convolution_backward_inputP11hb_tensor_tS1_S1_P11hb_vector_tS3_EUlvE_JEEvjjT0_8HBTensorIT_Lln1EEPS7_.isra.0>
    3ecc:	00650cb3          	add	x25,x10,x6
    3ed0:	010f8eb3          	add	x29,x31,x16
    3ed4:	018c9d13          	slli	x26,x25,0x18
    3ed8:	012e9e13          	slli	x28,x29,0x12
    3edc:	3f000db7          	lui	x27,0x3f000
    3ee0:	00fc09b7          	lui	x19,0xfc0
    3ee4:	00040737          	lui	x14,0x40
    3ee8:	0104a483          	lw	x9,16(x9)
    3eec:	01bd7a33          	and	x20,x26,x27
    3ef0:	013e77b3          	and	x15,x28,x19
    3ef4:	004f1693          	slli	x13,x30,0x4
    3ef8:	ff070093          	addi	x1,x14,-16 # 3fff0 <.L2120+0x32614>
    3efc:	00fa6633          	or	x12,x20,x15
    3f00:	0016f2b3          	and	x5,x13,x1
    3f04:	005665b3          	or	x11,x12,x5
    3f08:	80000ab7          	lui	x21,0x80000
    3f0c:	0155e533          	or	x10,x11,x21
    3f10:	00912623          	sw	x9,12(x2)
    3f14:	410018b7          	lui	x17,0x41001
    3f18:	01092903          	lw	x18,16(x18)
    3f1c:	01042403          	lw	x8,16(x8)
    3f20:	00000337          	lui	x6,0x0
    3f24:	d0a8a623          	sw	x10,-756(x17) # 41000d0c <.L2120+0x40ff3330>
    3f28:	00032383          	lw	x7,0(x6) # 0 <_Z21hb_tiled_foreach_implIfZL26convolution_backward_inputP11hb_tensor_tS1_S1_P11hb_vector_tS3_EUlvE_JEEvjjT0_8HBTensorIT_Lln1EEPS7_.isra.0>
    3f2c:	08000f93          	li	x31,128
    3f30:	07f3fb13          	andi	x22,x7,127
    3f34:	001b1813          	slli	x16,x22,0x1
    3f38:	00280c13          	addi	x24,x16,2 # 2 <_Z21hb_tiled_foreach_implIfZL26convolution_backward_inputP11hb_tensor_tS1_S1_P11hb_vector_tS3_EUlvE_JEEvjjT0_8HBTensorIT_Lln1EEPS7_.isra.0+0x2>
    3f3c:	03012a23          	sw	x16,52(x2)
    3f40:	03812823          	sw	x24,48(x2)
    3f44:	018ff663          	bgeu	x31,x24,3f50 <.L726>
    3f48:	08000f13          	li	x30,128
    3f4c:	03e12823          	sw	x30,48(x2)

00003f50 <.L726>:
    3f50:	03012e03          	lw	x28,48(x2)
    3f54:	03412783          	lw	x15,52(x2)
    3f58:	003b1c93          	slli	x25,x22,0x3
    3f5c:	00c12703          	lw	x14,12(x2)
    3f60:	016c8eb3          	add	x29,x25,x22
    3f64:	009e9d13          	slli	x26,x29,0x9
    3f68:	006e1d93          	slli	x27,x28,0x6
    3f6c:	40fe06b3          	sub	x13,x28,x15
    3f70:	007e9a13          	slli	x20,x29,0x7
    3f74:	417d09b3          	sub	x19,x26,x23
    3f78:	41b00633          	neg	x12,x27
    3f7c:	00870093          	addi	x1,x14,8
    3f80:	009a0293          	addi	x5,x20,9 # 9 <_Z21hb_tiled_foreach_implIfZL26convolution_backward_inputP11hb_tensor_tS1_S1_P11hb_vector_tS3_EUlvE_JEEvjjT0_8HBTensorIT_Lln1EEPS7_.isra.0+0x9>
    3f84:	008985b3          	add	x11,x19,x8
    3f88:	00669513          	slli	x10,x13,0x6
    3f8c:	40e90933          	sub	x18,x18,x14
    3f90:	03b12623          	sw	x27,44(x2)
    3f94:	02c12e23          	sw	x12,60(x2)
    3f98:	04112023          	sw	x1,64(x2)
    3f9c:	04512423          	sw	x5,72(x2)
    3fa0:	04b12623          	sw	x11,76(x2)
    3fa4:	02a12c23          	sw	x10,56(x2)
    3fa8:	04012223          	sw	x0,68(x2)
    3fac:	00200e13          	li	x28,2
    3fb0:	03212023          	sw	x18,32(x2)

00003fb4 <.L749>:
    3fb4:	04c12483          	lw	x9,76(x2)
    3fb8:	04812403          	lw	x8,72(x2)
    3fbc:	03c12883          	lw	x17,60(x2)
    3fc0:	04012d83          	lw	x27,64(x2)
    3fc4:	02912423          	sw	x9,40(x2)
    3fc8:	02812223          	sw	x8,36(x2)
    3fcc:	01112c23          	sw	x17,24(x2)
    3fd0:	00000d13          	li	x26,0

00003fd4 <.L729>:
    3fd4:	03012303          	lw	x6,48(x2)
    3fd8:	03412383          	lw	x7,52(x2)
    3fdc:	2463f263          	bgeu	x7,x6,4220 <.L747>
    3fe0:	01812f83          	lw	x31,24(x2)
    3fe4:	02c12b03          	lw	x22,44(x2)
    3fe8:	03812c03          	lw	x24,56(x2)
    3fec:	02812c83          	lw	x25,40(x2)
    3ff0:	016f8833          	add	x16,x31,x22
    3ff4:	02412b03          	lw	x22,36(x2)
    3ff8:	018f8f33          	add	x30,x31,x24
    3ffc:	003d0e93          	addi	x29,x26,3 # 3 <_Z21hb_tiled_foreach_implIfZL26convolution_backward_inputP11hb_tensor_tS1_S1_P11hb_vector_tS3_EUlvE_JEEvjjT0_8HBTensorIT_Lln1EEPS7_.isra.0+0x3>
    4000:	01012e23          	sw	x16,28(x2)
    4004:	01e12a23          	sw	x30,20(x2)
    4008:	01912823          	sw	x25,16(x2)
    400c:	01d12423          	sw	x29,8(x2)
    4010:	00700093          	li	x1,7
    4014:	00300413          	li	x8,3

00004018 <.L748>:
    4018:	01012683          	lw	x13,16(x2)
    401c:	ff7b0613          	addi	x12,x22,-9
    4020:	000b8713          	mv	x14,x23

00004024 <.L731>:
    4024:	00070793          	mv	x15,x14
    4028:	00c70a13          	addi	x20,x14,12

0000402c <.L730>:
    402c:	00f689b3          	add	x19,x13,x15
    4030:	0009a787          	flw	f15,0(x19) # fc0000 <.L2120+0xfb2624>
    4034:	00478793          	addi	x15,x15,4
    4038:	fef7ae27          	fsw	f15,-4(x15)
    403c:	fefa18e3          	bne	x20,x15,402c <.L730>
    4040:	00360613          	addi	x12,x12,3 # 3 <_Z21hb_tiled_foreach_implIfZL26convolution_backward_inputP11hb_tensor_tS1_S1_P11hb_vector_tS3_EUlvE_JEEvjjT0_8HBTensorIT_Lln1EEPS7_.isra.0+0x3>
    4044:	01470713          	addi	x14,x14,20
    4048:	ff868693          	addi	x13,x13,-8 # fffffff8 <.L2120+0xffff261c>
    404c:	fd661ce3          	bne	x12,x22,4024 <.L731>
    4050:	01412583          	lw	x11,20(x2)
    4054:	01c12a83          	lw	x21,28(x2)
    4058:	02012503          	lw	x10,32(x2)
    405c:	00259293          	slli	x5,x11,0x2
    4060:	40ba83b3          	sub	x7,x21,x11
    4064:	405502b3          	sub	x5,x10,x5
    4068:	fff00893          	li	x17,-1
    406c:	ff858313          	addi	x6,x11,-8

00004070 <.L746>:
    4070:	00088c13          	mv	x24,x17
    4074:	00730f33          	add	x30,x6,x7
    4078:	00188893          	addi	x17,x17,1
    407c:	00000713          	li	x14,0

00004080 <.L738>:
    4080:	00c12f83          	lw	x31,12(x2)
    4084:	002f1913          	slli	x18,x30,0x2
    4088:	00271493          	slli	x9,x14,0x2
    408c:	01f90cb3          	add	x25,x18,x31
    4090:	fff00613          	li	x12,-1
    4094:	00000793          	li	x15,0
    4098:	00ec0eb3          	add	x29,x24,x14
    409c:	00e48a33          	add	x20,x9,x14

000040a0 <.L736>:
    40a0:	f0000053          	fmv.w.x	f0,x0
    40a4:	03d0e463          	bltu	x1,x29,40cc <.L732>
    40a8:	00fa0833          	add	x16,x20,x15
    40ac:	00281993          	slli	x19,x16,0x2
    40b0:	00261693          	slli	x13,x12,0x2
    40b4:	15010593          	addi	x11,x2,336
    40b8:	fff00913          	li	x18,-1
    40bc:	01358ab3          	add	x21,x11,x19
    40c0:	01968533          	add	x10,x13,x25
    40c4:	39260a63          	beq	x12,x18,4458 <.L733>
    40c8:	00052007          	flw	f0,0(x10) # 0 <_Z21hb_tiled_foreach_implIfZL26convolution_backward_inputP11hb_tensor_tS1_S1_P11hb_vector_tS3_EUlvE_JEEvjjT0_8HBTensorIT_Lln1EEPS7_.isra.0>

000040cc <.L732>:
    40cc:	00fa04b3          	add	x9,x20,x15
    40d0:	00249f93          	slli	x31,x9,0x2
    40d4:	15010813          	addi	x16,x2,336
    40d8:	01f809b3          	add	x19,x16,x31
    40dc:	f809ae27          	fsw	f0,-100(x19)
    40e0:	01c78663          	beq	x15,x28,40ec <.L783>

000040e4 <.L767>:
    40e4:	00178793          	addi	x15,x15,1
    40e8:	0080006f          	j	40f0 <.L734>

000040ec <.L783>:
    40ec:	00000793          	li	x15,0

000040f0 <.L734>:
    40f0:	00160613          	addi	x12,x12,1
    40f4:	fbc616e3          	bne	x12,x28,40a0 <.L736>
    40f8:	00170713          	addi	x14,x14,1
    40fc:	008f0f13          	addi	x30,x30,8 # 8 <_Z21hb_tiled_foreach_implIfZL26convolution_backward_inputP11hb_tensor_tS1_S1_P11hb_vector_tS3_EUlvE_JEEvjjT0_8HBTensorIT_Lln1EEPS7_.isra.0+0x8>
    4100:	f88710e3          	bne	x14,x8,4080 <.L738>
    4104:	000d8e93          	mv	x29,x27
    4108:	00000513          	li	x10,0
    410c:	00000593          	li	x11,0
    4110:	ff828a13          	addi	x20,x5,-8 # fffffff8 <.L2120+0xffff261c>
    4114:	003c0493          	addi	x9,x24,3

00004118 <.L737>:
    4118:	01da0933          	add	x18,x20,x29
    411c:	00092087          	flw	f1,0(x18)
    4120:	000b8f13          	mv	x30,x23
    4124:	00000793          	li	x15,0

00004128 <.L744>:
    4128:	00812a83          	lw	x21,8(x2)
    412c:	00279c93          	slli	x25,x15,0x2
    4130:	00fd0833          	add	x16,x26,x15
    4134:	000f0f93          	mv	x31,x30
    4138:	00050693          	mv	x13,x10
    413c:	00fc89b3          	add	x19,x25,x15
    4140:	00fa8733          	add	x14,x21,x15

00004144 <.L743>:
    4144:	00d98633          	add	x12,x19,x13
    4148:	00261a93          	slli	x21,x12,0x2
    414c:	15010c93          	addi	x25,x2,336
    4150:	015c8633          	add	x12,x25,x21
    4154:	00081463          	bnez	x16,415c <.L741>
    4158:	f00000d3          	fmv.w.x	f1,x0

0000415c <.L741>:
    415c:	000fa707          	flw	f14,0(x31)
    4160:	f9c62687          	flw	f13,-100(x12)
    4164:	08e6f0c3          	fmadd.s	f1,f13,f14,f1
    4168:	31c68263          	beq	x13,x28,446c <.L788>
    416c:	00168693          	addi	x13,x13,1

00004170 <.L742>:
    4170:	00180813          	addi	x16,x16,1
    4174:	004f8f93          	addi	x31,x31,4
    4178:	fce816e3          	bne	x16,x14,4144 <.L743>
    417c:	00178793          	addi	x15,x15,1
    4180:	014f0f13          	addi	x30,x30,20
    4184:	fa8792e3          	bne	x15,x8,4128 <.L744>
    4188:	00192027          	fsw	f1,0(x18)
    418c:	00800513          	li	x10,8
    4190:	00158913          	addi	x18,x11,1
    4194:	04a90a63          	beq	x18,x10,41e8 <.L817>
    4198:	0285f9b3          	remu	x19,x11,x8
    419c:	0ec10c93          	addi	x25,x2,236
    41a0:	000c0713          	mv	x14,x24
    41a4:	02897533          	remu	x10,x18,x8
    41a8:	00299a93          	slli	x21,x19,0x2
    41ac:	015c8fb3          	add	x31,x25,x21

000041b0 <.L740>:
    41b0:	f0000153          	fmv.w.x	f2,x0
    41b4:	00e0ec63          	bltu	x1,x14,41cc <.L739>
    41b8:	00571613          	slli	x12,x14,0x5
    41bc:	00600813          	li	x16,6
    41c0:	01d606b3          	add	x13,x12,x29
    41c4:	01058463          	beq	x11,x16,41cc <.L739>
    41c8:	0006a107          	flw	f2,0(x13)

000041cc <.L739>:
    41cc:	00170713          	addi	x14,x14,1
    41d0:	002fa027          	fsw	f2,0(x31)
    41d4:	014f8f93          	addi	x31,x31,20
    41d8:	fce49ce3          	bne	x9,x14,41b0 <.L740>
    41dc:	004e8e93          	addi	x29,x29,4
    41e0:	00090593          	mv	x11,x18
    41e4:	f35ff06f          	j	4118 <.L737>

000041e8 <.L817>:
    41e8:	00838393          	addi	x7,x7,8
    41ec:	02028293          	addi	x5,x5,32
    41f0:	e81890e3          	bne	x17,x1,4070 <.L746>
    41f4:	01412303          	lw	x6,20(x2)
    41f8:	01012583          	lw	x11,16(x2)
    41fc:	000018b7          	lui	x17,0x1
    4200:	90088e93          	addi	x29,x17,-1792 # 900 <.L152+0x1c>
    4204:	01812483          	lw	x9,24(x2)
    4208:	fc030c13          	addi	x24,x6,-64
    420c:	01d58a33          	add	x20,x11,x29
    4210:	01812a23          	sw	x24,20(x2)
    4214:	01412823          	sw	x20,16(x2)
    4218:	240b0b13          	addi	x22,x22,576
    421c:	de9c1ee3          	bne	x24,x9,4018 <.L748>

00004220 <.L747>:
    4220:	01812403          	lw	x8,24(x2)
    4224:	02412f03          	lw	x30,36(x2)
    4228:	02812503          	lw	x10,40(x2)
    422c:	04040793          	addi	x15,x8,64
    4230:	009f0913          	addi	x18,x30,9
    4234:	02450993          	addi	x19,x10,36
    4238:	001d0d13          	addi	x26,x26,1
    423c:	04000093          	li	x1,64
    4240:	00f12c23          	sw	x15,24(x2)
    4244:	03212223          	sw	x18,36(x2)
    4248:	03312423          	sw	x19,40(x2)
    424c:	100d8d93          	addi	x27,x27,256 # 3f000100 <.L2120+0x3eff2724>
    4250:	d81d12e3          	bne	x26,x1,3fd4 <.L729>
    4254:	04412c83          	lw	x25,68(x2)
    4258:	03c12703          	lw	x14,60(x2)
    425c:	04012283          	lw	x5,64(x2)
    4260:	02c12c03          	lw	x24,44(x2)
    4264:	00002ab7          	lui	x21,0x2
    4268:	fffff6b7          	lui	x13,0xfffff
    426c:	000043b7          	lui	x7,0x4
    4270:	015c8633          	add	x12,x25,x21
    4274:	00d70fb3          	add	x31,x14,x13
    4278:	00728333          	add	x6,x5,x7
    427c:	015c0b33          	add	x22,x24,x21
    4280:	04c12223          	sw	x12,68(x2)
    4284:	00010837          	lui	x16,0x10
    4288:	03f12e23          	sw	x31,60(x2)
    428c:	04612023          	sw	x6,64(x2)
    4290:	03612623          	sw	x22,44(x2)
    4294:	d30610e3          	bne	x12,x16,3fb4 <.L749>
    4298:	000004b7          	lui	x9,0x0
    429c:	000008b7          	lui	x17,0x0
    42a0:	00000bb7          	lui	x23,0x0
    42a4:	000005b7          	lui	x11,0x0
    42a8:	000bae03          	lw	x28,0(x23) # 0 <_Z21hb_tiled_foreach_implIfZL26convolution_backward_inputP11hb_tensor_tS1_S1_P11hb_vector_tS3_EUlvE_JEEvjjT0_8HBTensorIT_Lln1EEPS7_.isra.0>
    42ac:	0008ae83          	lw	x29,0(x17) # 0 <_Z21hb_tiled_foreach_implIfZL26convolution_backward_inputP11hb_tensor_tS1_S1_P11hb_vector_tS3_EUlvE_JEEvjjT0_8HBTensorIT_Lln1EEPS7_.isra.0>
    42b0:	0005aa03          	lw	x20,0(x11) # 0 <_Z21hb_tiled_foreach_implIfZL26convolution_backward_inputP11hb_tensor_tS1_S1_P11hb_vector_tS3_EUlvE_JEEvjjT0_8HBTensorIT_Lln1EEPS7_.isra.0>
    42b4:	0004ad03          	lw	x26,0(x9) # 0 <_Z21hb_tiled_foreach_implIfZL26convolution_backward_inputP11hb_tensor_tS1_S1_P11hb_vector_tS3_EUlvE_JEEvjjT0_8HBTensorIT_Lln1EEPS7_.isra.0>
    42b8:	000000b7          	lui	x1,0x0
    42bc:	0000a403          	lw	x8,0(x1) # 0 <_Z21hb_tiled_foreach_implIfZL26convolution_backward_inputP11hb_tensor_tS1_S1_P11hb_vector_tS3_EUlvE_JEEvjjT0_8HBTensorIT_Lln1EEPS7_.isra.0>
    42c0:	01de07b3          	add	x15,x28,x29
    42c4:	01aa0db3          	add	x27,x20,x26
    42c8:	01879f13          	slli	x30,x15,0x18
    42cc:	3f000537          	lui	x10,0x3f000
    42d0:	000406b7          	lui	x13,0x40
    42d4:	012d9913          	slli	x18,x27,0x12
    42d8:	00fc0ab7          	lui	x21,0xfc0
    42dc:	00af79b3          	and	x19,x30,x10
    42e0:	00441613          	slli	x12,x8,0x4
    42e4:	ff068713          	addi	x14,x13,-16 # 3fff0 <.L2120+0x32614>
    42e8:	01597cb3          	and	x25,x18,x21
    42ec:	0199e833          	or	x16,x19,x25
    42f0:	00e67fb3          	and	x31,x12,x14
    42f4:	01f863b3          	or	x7,x16,x31
    42f8:	c00002b7          	lui	x5,0xc0000
    42fc:	0053e333          	or	x6,x7,x5
    4300:	41001c37          	lui	x24,0x41001
    4304:	d06c2623          	sw	x6,-756(x24) # 41000d0c <.L2120+0x40ff3330>
    4308:	0004ab83          	lw	x23,0(x9)
    430c:	0008ae03          	lw	x28,0(x17)
    4310:	00000537          	lui	x10,0x0
    4314:	004b8893          	addi	x17,x23,4
    4318:	00050693          	mv	x13,x10
    431c:	01168eb3          	add	x29,x13,x17
    4320:	018e1593          	slli	x11,x28,0x18
    4324:	00048b13          	mv	x22,x9
    4328:	00beea33          	or	x20,x29,x11
    432c:	201c04b7          	lui	x9,0x201c0
    4330:	009a6d33          	or	x26,x20,x9
    4334:	00100093          	li	x1,1
    4338:	001d0023          	sb	x1,0(x26)
    433c:	000b2403          	lw	x8,0(x22)
    4340:	00700793          	li	x15,7
    4344:	02f40863          	beq	x8,x15,4374 <.L818>

00004348 <.L751>:
    4348:	00100f93          	li	x31,1
    434c:	0100006f          	j	435c <.L764>

00004350 <.L819>:
    4350:	00050293          	mv	x5,x10
    4354:	1402a32f          	lr.w.aq	x6,(x5)
    4358:	01f30863          	beq	x6,x31,4368 <.L763>

0000435c <.L764>:
    435c:	00050713          	mv	x14,x10
    4360:	100723af          	lr.w	x7,(x14)
    4364:	fff396e3          	bne	x7,x31,4350 <.L819>

00004368 <.L763>:
    4368:	0006a023          	sw	x0,0(x13)
    436c:	00000513          	li	x10,0
    4370:	fbcff06f          	j	3b2c <.L706>

00004374 <.L818>:
    4374:	00000db7          	lui	x27,0x0
    4378:	00000937          	lui	x18,0x0
    437c:	004d8f13          	addi	x30,x27,4 # 4 <_Z21hb_tiled_foreach_implIfZL26convolution_backward_inputP11hb_tensor_tS1_S1_P11hb_vector_tS3_EUlvE_JEEvjjT0_8HBTensorIT_Lln1EEPS7_.isra.0+0x4>
    4380:	01490993          	addi	x19,x18,20 # 14 <.L8>

00004384 <.L750>:
    4384:	000f0c93          	mv	x25,x30

00004388 <.L753>:
    4388:	000cca83          	lbu	x21,0(x25)
    438c:	001c8c93          	addi	x25,x25,1
    4390:	0ffaf613          	andi	x12,x21,255
    4394:	fe0608e3          	beqz	x12,4384 <.L750>
    4398:	ff9998e3          	bne	x19,x25,4388 <.L753>
    439c:	00000837          	lui	x16,0x0
    43a0:	00082703          	lw	x14,0(x16) # 0 <_Z21hb_tiled_foreach_implIfZL26convolution_backward_inputP11hb_tensor_tS1_S1_P11hb_vector_tS3_EUlvE_JEEvjjT0_8HBTensorIT_Lln1EEPS7_.isra.0>
    43a4:	231c02b7          	lui	x5,0x231c0
    43a8:	00100c13          	li	x24,1
    43ac:	01870f93          	addi	x31,x14,24
    43b0:	01f683b3          	add	x7,x13,x31
    43b4:	0053e333          	or	x6,x7,x5
    43b8:	01830023          	sb	x24,0(x6)
    43bc:	00000b37          	lui	x22,0x0
    43c0:	000b2b83          	lw	x23,0(x22) # 0 <_Z21hb_tiled_foreach_implIfZL26convolution_backward_inputP11hb_tensor_tS1_S1_P11hb_vector_tS3_EUlvE_JEEvjjT0_8HBTensorIT_Lln1EEPS7_.isra.0>
    43c4:	00700e13          	li	x28,7
    43c8:	f9cb90e3          	bne	x23,x28,4348 <.L751>
    43cc:	000008b7          	lui	x17,0x0
    43d0:	0008ae83          	lw	x29,0(x17) # 0 <_Z21hb_tiled_foreach_implIfZL26convolution_backward_inputP11hb_tensor_tS1_S1_P11hb_vector_tS3_EUlvE_JEEvjjT0_8HBTensorIT_Lln1EEPS7_.isra.0>
    43d4:	00300593          	li	x11,3
    43d8:	08be8e63          	beq	x29,x11,4474 <.L820>

000043dc <.L759>:
    43dc:	00100b13          	li	x22,1
    43e0:	0100006f          	j	43f0 <.L755>

000043e4 <.L821>:
    43e4:	01468893          	addi	x17,x13,20
    43e8:	1408aeaf          	lr.w.aq	x29,(x17)
    43ec:	016e8863          	beq	x29,x22,43fc <.L760>

000043f0 <.L755>:
    43f0:	01468b93          	addi	x23,x13,20
    43f4:	100bae2f          	lr.w	x28,(x23)
    43f8:	ff6e16e3          	bne	x28,x22,43e4 <.L821>

000043fc <.L760>:
    43fc:	0006aa23          	sw	x0,20(x13)
    4400:	00000493          	li	x9,0
    4404:	01000593          	li	x11,16

00004408 <.L761>:
    4408:	00968a33          	add	x20,x13,x9
    440c:	000a0223          	sb	x0,4(x20)
    4410:	00148493          	addi	x9,x9,1 # 201c0001 <.L2120+0x201b2625>
    4414:	feb49ae3          	bne	x9,x11,4408 <.L761>
    4418:	0006a023          	sw	x0,0(x13)
    441c:	00000a93          	li	x21,0
    4420:	20000d37          	lui	x26,0x20000
    4424:	00100093          	li	x1,1
    4428:	00040437          	lui	x8,0x40
    442c:	00400db7          	lui	x27,0x400

00004430 <.L762>:
    4430:	000007b7          	lui	x15,0x0
    4434:	0007af03          	lw	x30,0(x15) # 0 <_Z21hb_tiled_foreach_implIfZL26convolution_backward_inputP11hb_tensor_tS1_S1_P11hb_vector_tS3_EUlvE_JEEvjjT0_8HBTensorIT_Lln1EEPS7_.isra.0>
    4438:	0156e933          	or	x18,x13,x21
    443c:	008a8ab3          	add	x21,x21,x8
    4440:	018f1c93          	slli	x25,x30,0x18
    4444:	012ce633          	or	x12,x25,x18
    4448:	01a66833          	or	x16,x12,x26
    444c:	00182023          	sw	x1,0(x16)
    4450:	ffba90e3          	bne	x21,x27,4430 <.L762>
    4454:	ef5ff06f          	j	4348 <.L751>

00004458 <.L733>:
    4458:	f80aae23          	sw	x0,-100(x21) # fbff9c <.L2120+0xfb25c0>
    445c:	c9c794e3          	bne	x15,x28,40e4 <.L767>
    4460:	00000793          	li	x15,0
    4464:	00000613          	li	x12,0
    4468:	c39ff06f          	j	40a0 <.L736>

0000446c <.L788>:
    446c:	00000693          	li	x13,0
    4470:	d01ff06f          	j	4170 <.L742>

00004474 <.L820>:
    4474:	00000a37          	lui	x20,0x0
    4478:	00000d37          	lui	x26,0x0
    447c:	018a0493          	addi	x9,x20,24 # 18 <.L8+0x4>
    4480:	020d0093          	addi	x1,x26,32 # 20 <.L8+0xc>

00004484 <.L754>:
    4484:	00048793          	mv	x15,x9

00004488 <.L756>:
    4488:	0007c403          	lbu	x8,0(x15)
    448c:	00178793          	addi	x15,x15,1
    4490:	0ff47d93          	andi	x27,x8,255
    4494:	fe0d88e3          	beqz	x27,4484 <.L754>
    4498:	fef098e3          	bne	x1,x15,4488 <.L756>
    449c:	00068c23          	sb	x0,24(x13)
    44a0:	00068ca3          	sb	x0,25(x13)
    44a4:	00068d23          	sb	x0,26(x13)
    44a8:	00068da3          	sb	x0,27(x13)
    44ac:	00068e23          	sb	x0,28(x13)
    44b0:	00068ea3          	sb	x0,29(x13)
    44b4:	00068f23          	sb	x0,30(x13)
    44b8:	00068fa3          	sb	x0,31(x13)
    44bc:	0006aa23          	sw	x0,20(x13)
    44c0:	00000313          	li	x6,0
    44c4:	03fc0f37          	lui	x30,0x3fc0
    44c8:	20000937          	lui	x18,0x20000
    44cc:	00100a93          	li	x21,1
    44d0:	01000cb7          	lui	x25,0x1000
    44d4:	08000637          	lui	x12,0x8000

000044d8 <.L758>:
    44d8:	012b9813          	slli	x16,x23,0x12
    44dc:	0069e733          	or	x14,x19,x6
    44e0:	01e87fb3          	and	x31,x16,x30
    44e4:	00efe3b3          	or	x7,x31,x14
    44e8:	0123e2b3          	or	x5,x7,x18
    44ec:	0152a023          	sw	x21,0(x5) # 231c0000 <.L2120+0x231b2624>
    44f0:	00000c37          	lui	x24,0x0
    44f4:	01930333          	add	x6,x6,x25
    44f8:	000c2b83          	lw	x23,0(x24) # 0 <_Z21hb_tiled_foreach_implIfZL26convolution_backward_inputP11hb_tensor_tS1_S1_P11hb_vector_tS3_EUlvE_JEEvjjT0_8HBTensorIT_Lln1EEPS7_.isra.0>
    44fc:	fcc31ee3          	bne	x6,x12,44d8 <.L758>
    4500:	00700993          	li	x19,7
    4504:	ed3b8ce3          	beq	x23,x19,43dc <.L759>
    4508:	e41ff06f          	j	4348 <.L751>

0000450c <_ZN12_GLOBAL__N_128convolution_forward_templateILm8ELm32ELm32ELm32ELm16ELm32ELm32ELm3ELm3ELm1ELm1ELm1ELm1EEEiP11hb_tensor_tS2_S2_P11hb_vector_tS4_>:
    450c:	e8010113          	addi	x2,x2,-384
    4510:	17212823          	sw	x18,368(x2)
    4514:	00050913          	mv	x18,x10
    4518:	16912a23          	sw	x9,372(x2)
    451c:	04410513          	addi	x10,x2,68
    4520:	00058493          	mv	x9,x11
    4524:	00090593          	mv	x11,x18
    4528:	16112e23          	sw	x1,380(x2)
    452c:	16812c23          	sw	x8,376(x2)
    4530:	17312623          	sw	x19,364(x2)
    4534:	00060413          	mv	x8,x12
    4538:	00070993          	mv	x19,x14
    453c:	17412423          	sw	x20,360(x2)
    4540:	17512223          	sw	x21,356(x2)
    4544:	00068a13          	mv	x20,x13
    4548:	17612023          	sw	x22,352(x2)
    454c:	15712e23          	sw	x23,348(x2)
    4550:	15812c23          	sw	x24,344(x2)
    4554:	15912a23          	sw	x25,340(x2)
    4558:	15a12823          	sw	x26,336(x2)
    455c:	15b12623          	sw	x27,332(x2)
    4560:	00000097          	auipc	x1,0x0
    4564:	000080e7          	jalr	x1 # 4560 <_ZN12_GLOBAL__N_128convolution_forward_templateILm8ELm32ELm32ELm32ELm16ELm32ELm32ELm3ELm3ELm1ELm1ELm1ELm1EEEiP11hb_tensor_tS2_S2_P11hb_vector_tS4_+0x54>
    4568:	00048593          	mv	x11,x9
    456c:	07810513          	addi	x10,x2,120
    4570:	00000097          	auipc	x1,0x0
    4574:	000080e7          	jalr	x1 # 4570 <_ZN12_GLOBAL__N_128convolution_forward_templateILm8ELm32ELm32ELm32ELm16ELm32ELm32ELm3ELm3ELm1ELm1ELm1ELm1EEEiP11hb_tensor_tS2_S2_P11hb_vector_tS4_+0x64>
    4578:	00040593          	mv	x11,x8
    457c:	0dc10513          	addi	x10,x2,220
    4580:	00000097          	auipc	x1,0x0
    4584:	000080e7          	jalr	x1 # 4580 <_ZN12_GLOBAL__N_128convolution_forward_templateILm8ELm32ELm32ELm32ELm16ELm32ELm32ELm3ELm3ELm1ELm1ELm1ELm1EEEiP11hb_tensor_tS2_S2_P11hb_vector_tS4_+0x74>
    4588:	04812783          	lw	x15,72(x2)
    458c:	10078e63          	beqz	x15,46a8 <.L921>
    4590:	00100713          	li	x14,1
    4594:	0cf77063          	bgeu	x14,x15,4654 <.L922>
    4598:	00200693          	li	x13,2
    459c:	1ad78a63          	beq	x15,x13,4750 <.L923>
    45a0:	00300613          	li	x12,3
    45a4:	20c78063          	beq	x15,x12,47a4 <.L924>
    45a8:	07c12083          	lw	x1,124(x2)
    45ac:	14177863          	bgeu	x14,x1,46fc <.L925>
    45b0:	28d08e63          	beq	x1,x13,484c <.L926>
    45b4:	2ec08663          	beq	x1,x12,48a0 <.L927>
    45b8:	0e012283          	lw	x5,224(x2)
    45bc:	2256fe63          	bgeu	x13,x5,47f8 <.L928>
    45c0:	32c28a63          	beq	x5,x12,48f4 <.L929>
    45c4:	05012583          	lw	x11,80(x2)
    45c8:	08412a83          	lw	x21,132(x2)
    45cc:	004a2503          	lw	x10,4(x20)
    45d0:	0049a303          	lw	x6,4(x19)
    45d4:	0e812e03          	lw	x28,232(x2)
    45d8:	0005a383          	lw	x7,0(x11)
    45dc:	00800b13          	li	x22,8
    45e0:	00052a03          	lw	x20,0(x10) # 0 <_Z21hb_tiled_foreach_implIfZL26convolution_backward_inputP11hb_tensor_tS1_S1_P11hb_vector_tS3_EUlvE_JEEvjjT0_8HBTensorIT_Lln1EEPS7_.isra.0>
    45e4:	00452983          	lw	x19,4(x10)
    45e8:	0045a883          	lw	x17,4(x11)
    45ec:	0085a803          	lw	x16,8(x11)
    45f0:	00c5ab83          	lw	x23,12(x11)
    45f4:	004aaf83          	lw	x31,4(x21)
    45f8:	008aac03          	lw	x24,8(x21)
    45fc:	00caaf03          	lw	x30,12(x21)
    4600:	008e2c83          	lw	x25,8(x28) # 8 <_Z21hb_tiled_foreach_implIfZL26convolution_backward_inputP11hb_tensor_tS1_S1_P11hb_vector_tS3_EUlvE_JEEvjjT0_8HBTensorIT_Lln1EEPS7_.isra.0+0x8>
    4604:	00ce2e83          	lw	x29,12(x28)
    4608:	00032d03          	lw	x26,0(x6)
    460c:	00432d83          	lw	x27,4(x6)
    4610:	fff00513          	li	x10,-1
    4614:	33638a63          	beq	x7,x22,4948 <.L930>

00004618 <.L822>:
    4618:	17c12083          	lw	x1,380(x2)
    461c:	17812403          	lw	x8,376(x2)
    4620:	17412483          	lw	x9,372(x2)
    4624:	17012903          	lw	x18,368(x2)
    4628:	16c12983          	lw	x19,364(x2)
    462c:	16812a03          	lw	x20,360(x2)
    4630:	16412a83          	lw	x21,356(x2)
    4634:	16012b03          	lw	x22,352(x2)
    4638:	15c12b83          	lw	x23,348(x2)
    463c:	15812c03          	lw	x24,344(x2)
    4640:	15412c83          	lw	x25,340(x2)
    4644:	15012d03          	lw	x26,336(x2)
    4648:	14c12d83          	lw	x27,332(x2)
    464c:	18010113          	addi	x2,x2,384
    4650:	00008067          	ret

00004654 <.L922>:
    4654:	000000b7          	lui	x1,0x0
    4658:	00000c37          	lui	x24,0x0
    465c:	00008593          	mv	x11,x1
    4660:	06f00613          	li	x12,111
    4664:	000c0513          	mv	x10,x24
    4668:	00000097          	auipc	x1,0x0
    466c:	000080e7          	jalr	x1 # 4668 <.L922+0x14>
    4670:	04812583          	lw	x11,72(x2)
    4674:	000008b7          	lui	x17,0x0
    4678:	00088513          	mv	x10,x17
    467c:	00000097          	auipc	x1,0x0
    4680:	000080e7          	jalr	x1 # 467c <.L922+0x28>
    4684:	00000db7          	lui	x27,0x0
    4688:	000daa03          	lw	x20,0(x27) # 0 <_Z21hb_tiled_foreach_implIfZL26convolution_backward_inputP11hb_tensor_tS1_S1_P11hb_vector_tS3_EUlvE_JEEvjjT0_8HBTensorIT_Lln1EEPS7_.isra.0>
    468c:	00000337          	lui	x6,0x0
    4690:	00032983          	lw	x19,0(x6) # 0 <_Z21hb_tiled_foreach_implIfZL26convolution_backward_inputP11hb_tensor_tS1_S1_P11hb_vector_tS3_EUlvE_JEEvjjT0_8HBTensorIT_Lln1EEPS7_.isra.0>
    4694:	010a1913          	slli	x18,x20,0x10
    4698:	4100ff37          	lui	x30,0x4100f
    469c:	013907b3          	add	x15,x18,x19
    46a0:	acff2c23          	sw	x15,-1320(x30) # 4100ead8 <.L2120+0x410010fc>

000046a4 <.L826>:
    46a4:	0000006f          	j	46a4 <.L826>

000046a8 <.L921>:
    46a8:	000004b7          	lui	x9,0x0
    46ac:	00000437          	lui	x8,0x0
    46b0:	06f00613          	li	x12,111
    46b4:	00048593          	mv	x11,x9
    46b8:	00040513          	mv	x10,x8
    46bc:	00000097          	auipc	x1,0x0
    46c0:	000080e7          	jalr	x1 # 46bc <.L921+0x14>
    46c4:	04812583          	lw	x11,72(x2)
    46c8:	00000ab7          	lui	x21,0x0
    46cc:	000a8513          	mv	x10,x21
    46d0:	00000097          	auipc	x1,0x0
    46d4:	000080e7          	jalr	x1 # 46d0 <.L921+0x28>
    46d8:	000005b7          	lui	x11,0x0
    46dc:	0005a503          	lw	x10,0(x11) # 0 <_Z21hb_tiled_foreach_implIfZL26convolution_backward_inputP11hb_tensor_tS1_S1_P11hb_vector_tS3_EUlvE_JEEvjjT0_8HBTensorIT_Lln1EEPS7_.isra.0>
    46e0:	000006b7          	lui	x13,0x0
    46e4:	0006ac83          	lw	x25,0(x13) # 0 <_Z21hb_tiled_foreach_implIfZL26convolution_backward_inputP11hb_tensor_tS1_S1_P11hb_vector_tS3_EUlvE_JEEvjjT0_8HBTensorIT_Lln1EEPS7_.isra.0>
    46e8:	01051b93          	slli	x23,x10,0x10
    46ec:	4100f837          	lui	x16,0x4100f
    46f0:	019b8fb3          	add	x31,x23,x25
    46f4:	adf82c23          	sw	x31,-1320(x16) # 4100ead8 <.L2120+0x410010fc>

000046f8 <.L824>:
    46f8:	0000006f          	j	46f8 <.L824>

000046fc <.L925>:
    46fc:	000000b7          	lui	x1,0x0
    4700:	00000b37          	lui	x22,0x0
    4704:	00008593          	mv	x11,x1
    4708:	06f00613          	li	x12,111
    470c:	000b0513          	mv	x10,x22
    4710:	00000097          	auipc	x1,0x0
    4714:	000080e7          	jalr	x1 # 4710 <.L925+0x14>
    4718:	07c12583          	lw	x11,124(x2)
    471c:	00000d37          	lui	x26,0x0
    4720:	000d0513          	mv	x10,x26
    4724:	00000097          	auipc	x1,0x0
    4728:	000080e7          	jalr	x1 # 4724 <.L925+0x28>
    472c:	00000c37          	lui	x24,0x0
    4730:	000c2883          	lw	x17,0(x24) # 0 <_Z21hb_tiled_foreach_implIfZL26convolution_backward_inputP11hb_tensor_tS1_S1_P11hb_vector_tS3_EUlvE_JEEvjjT0_8HBTensorIT_Lln1EEPS7_.isra.0>
    4734:	00000db7          	lui	x27,0x0
    4738:	000daa03          	lw	x20,0(x27) # 0 <_Z21hb_tiled_foreach_implIfZL26convolution_backward_inputP11hb_tensor_tS1_S1_P11hb_vector_tS3_EUlvE_JEEvjjT0_8HBTensorIT_Lln1EEPS7_.isra.0>
    473c:	01089313          	slli	x6,x17,0x10
    4740:	4100f937          	lui	x18,0x4100f
    4744:	014309b3          	add	x19,x6,x20
    4748:	ad392c23          	sw	x19,-1320(x18) # 4100ead8 <.L2120+0x410010fc>

0000474c <.L832>:
    474c:	0000006f          	j	474c <.L832>

00004750 <.L923>:
    4750:	00000fb7          	lui	x31,0x0
    4754:	00000837          	lui	x16,0x0
    4758:	000f8593          	mv	x11,x31
    475c:	06f00613          	li	x12,111
    4760:	00080513          	mv	x10,x16
    4764:	00000097          	auipc	x1,0x0
    4768:	000080e7          	jalr	x1 # 4764 <.L923+0x14>
    476c:	04812583          	lw	x11,72(x2)
    4770:	00000637          	lui	x12,0x0
    4774:	00060513          	mv	x10,x12
    4778:	00000097          	auipc	x1,0x0
    477c:	000080e7          	jalr	x1 # 4778 <.L923+0x28>
    4780:	000002b7          	lui	x5,0x0
    4784:	0002a383          	lw	x7,0(x5) # 0 <_Z21hb_tiled_foreach_implIfZL26convolution_backward_inputP11hb_tensor_tS1_S1_P11hb_vector_tS3_EUlvE_JEEvjjT0_8HBTensorIT_Lln1EEPS7_.isra.0>
    4788:	00000737          	lui	x14,0x0
    478c:	00072e83          	lw	x29,0(x14) # 0 <_Z21hb_tiled_foreach_implIfZL26convolution_backward_inputP11hb_tensor_tS1_S1_P11hb_vector_tS3_EUlvE_JEEvjjT0_8HBTensorIT_Lln1EEPS7_.isra.0>
    4790:	01039e13          	slli	x28,x7,0x10
    4794:	4100fd37          	lui	x26,0x4100f
    4798:	01de0b33          	add	x22,x28,x29
    479c:	ad6d2c23          	sw	x22,-1320(x26) # 4100ead8 <.L2120+0x410010fc>

000047a0 <.L828>:
    47a0:	0000006f          	j	47a0 <.L828>

000047a4 <.L924>:
    47a4:	000007b7          	lui	x15,0x0
    47a8:	00000f37          	lui	x30,0x0
    47ac:	00078593          	mv	x11,x15
    47b0:	06f00613          	li	x12,111
    47b4:	000f0513          	mv	x10,x30
    47b8:	00000097          	auipc	x1,0x0
    47bc:	000080e7          	jalr	x1 # 47b8 <.L924+0x14>
    47c0:	04812583          	lw	x11,72(x2)
    47c4:	000004b7          	lui	x9,0x0
    47c8:	00048513          	mv	x10,x9
    47cc:	00000097          	auipc	x1,0x0
    47d0:	000080e7          	jalr	x1 # 47cc <.L924+0x28>
    47d4:	00000437          	lui	x8,0x0
    47d8:	00042a83          	lw	x21,0(x8) # 0 <_Z21hb_tiled_foreach_implIfZL26convolution_backward_inputP11hb_tensor_tS1_S1_P11hb_vector_tS3_EUlvE_JEEvjjT0_8HBTensorIT_Lln1EEPS7_.isra.0>
    47dc:	000005b7          	lui	x11,0x0
    47e0:	0005a503          	lw	x10,0(x11) # 0 <_Z21hb_tiled_foreach_implIfZL26convolution_backward_inputP11hb_tensor_tS1_S1_P11hb_vector_tS3_EUlvE_JEEvjjT0_8HBTensorIT_Lln1EEPS7_.isra.0>
    47e4:	010a9693          	slli	x13,x21,0x10
    47e8:	4100fbb7          	lui	x23,0x4100f
    47ec:	00a68cb3          	add	x25,x13,x10
    47f0:	ad9bac23          	sw	x25,-1320(x23) # 4100ead8 <.L2120+0x410010fc>

000047f4 <.L830>:
    47f4:	0000006f          	j	47f4 <.L830>

000047f8 <.L928>:
    47f8:	000000b7          	lui	x1,0x0
    47fc:	00000eb7          	lui	x29,0x0
    4800:	00008593          	mv	x11,x1
    4804:	06f00613          	li	x12,111
    4808:	000e8513          	mv	x10,x29
    480c:	00000097          	auipc	x1,0x0
    4810:	000080e7          	jalr	x1 # 480c <.L928+0x14>
    4814:	0e012583          	lw	x11,224(x2)
    4818:	00000e37          	lui	x28,0x0
    481c:	000e0513          	mv	x10,x28
    4820:	00000b37          	lui	x22,0x0
    4824:	00000097          	auipc	x1,0x0
    4828:	000080e7          	jalr	x1 # 4824 <.L928+0x2c>
    482c:	00000c37          	lui	x24,0x0
    4830:	000b2d03          	lw	x26,0(x22) # 0 <_Z21hb_tiled_foreach_implIfZL26convolution_backward_inputP11hb_tensor_tS1_S1_P11hb_vector_tS3_EUlvE_JEEvjjT0_8HBTensorIT_Lln1EEPS7_.isra.0>
    4834:	000c2883          	lw	x17,0(x24) # 0 <_Z21hb_tiled_foreach_implIfZL26convolution_backward_inputP11hb_tensor_tS1_S1_P11hb_vector_tS3_EUlvE_JEEvjjT0_8HBTensorIT_Lln1EEPS7_.isra.0>
    4838:	4100f337          	lui	x6,0x4100f
    483c:	010d1d93          	slli	x27,x26,0x10
    4840:	011d8a33          	add	x20,x27,x17
    4844:	ad432c23          	sw	x20,-1320(x6) # 4100ead8 <.L2120+0x410010fc>

00004848 <.L838>:
    4848:	0000006f          	j	4848 <.L838>

0000484c <.L926>:
    484c:	00000cb7          	lui	x25,0x0
    4850:	00000bb7          	lui	x23,0x0
    4854:	06f00613          	li	x12,111
    4858:	000c8593          	mv	x11,x25
    485c:	000b8513          	mv	x10,x23
    4860:	00000097          	auipc	x1,0x0
    4864:	000080e7          	jalr	x1 # 4860 <.L926+0x14>
    4868:	07c12583          	lw	x11,124(x2)
    486c:	00000637          	lui	x12,0x0
    4870:	00060513          	mv	x10,x12
    4874:	00000097          	auipc	x1,0x0
    4878:	000080e7          	jalr	x1 # 4874 <.L926+0x28>
    487c:	00000fb7          	lui	x31,0x0
    4880:	000fa803          	lw	x16,0(x31) # 0 <_Z21hb_tiled_foreach_implIfZL26convolution_backward_inputP11hb_tensor_tS1_S1_P11hb_vector_tS3_EUlvE_JEEvjjT0_8HBTensorIT_Lln1EEPS7_.isra.0>
    4884:	000002b7          	lui	x5,0x0
    4888:	0002a383          	lw	x7,0(x5) # 0 <_Z21hb_tiled_foreach_implIfZL26convolution_backward_inputP11hb_tensor_tS1_S1_P11hb_vector_tS3_EUlvE_JEEvjjT0_8HBTensorIT_Lln1EEPS7_.isra.0>
    488c:	01081713          	slli	x14,x16,0x10
    4890:	4100fe37          	lui	x28,0x4100f
    4894:	00770eb3          	add	x29,x14,x7
    4898:	adde2c23          	sw	x29,-1320(x28) # 4100ead8 <.L2120+0x410010fc>

0000489c <.L834>:
    489c:	0000006f          	j	489c <.L834>

000048a0 <.L927>:
    48a0:	000009b7          	lui	x19,0x0
    48a4:	00000937          	lui	x18,0x0
    48a8:	06f00613          	li	x12,111
    48ac:	00098593          	mv	x11,x19
    48b0:	00090513          	mv	x10,x18
    48b4:	00000097          	auipc	x1,0x0
    48b8:	000080e7          	jalr	x1 # 48b4 <.L927+0x14>
    48bc:	07c12583          	lw	x11,124(x2)
    48c0:	000007b7          	lui	x15,0x0
    48c4:	00078513          	mv	x10,x15
    48c8:	00000097          	auipc	x1,0x0
    48cc:	000080e7          	jalr	x1 # 48c8 <.L927+0x28>
    48d0:	00000f37          	lui	x30,0x0
    48d4:	000f2483          	lw	x9,0(x30) # 0 <_Z21hb_tiled_foreach_implIfZL26convolution_backward_inputP11hb_tensor_tS1_S1_P11hb_vector_tS3_EUlvE_JEEvjjT0_8HBTensorIT_Lln1EEPS7_.isra.0>
    48d8:	00000437          	lui	x8,0x0
    48dc:	00042a83          	lw	x21,0(x8) # 0 <_Z21hb_tiled_foreach_implIfZL26convolution_backward_inputP11hb_tensor_tS1_S1_P11hb_vector_tS3_EUlvE_JEEvjjT0_8HBTensorIT_Lln1EEPS7_.isra.0>
    48e0:	01049593          	slli	x11,x9,0x10
    48e4:	4100f6b7          	lui	x13,0x4100f
    48e8:	01558533          	add	x10,x11,x21
    48ec:	aca6ac23          	sw	x10,-1320(x13) # 4100ead8 <.L2120+0x410010fc>

000048f0 <.L836>:
    48f0:	0000006f          	j	48f0 <.L836>

000048f4 <.L929>:
    48f4:	000006b7          	lui	x13,0x0
    48f8:	00000537          	lui	x10,0x0
    48fc:	06f00613          	li	x12,111
    4900:	00050593          	mv	x11,x10
    4904:	00068513          	mv	x10,x13
    4908:	00000097          	auipc	x1,0x0
    490c:	000080e7          	jalr	x1 # 4908 <.L929+0x14>
    4910:	0e012583          	lw	x11,224(x2)
    4914:	00000cb7          	lui	x25,0x0
    4918:	000c8513          	mv	x10,x25
    491c:	00000097          	auipc	x1,0x0
    4920:	000080e7          	jalr	x1 # 491c <.L929+0x28>
    4924:	00000bb7          	lui	x23,0x0
    4928:	000ba603          	lw	x12,0(x23) # 0 <_Z21hb_tiled_foreach_implIfZL26convolution_backward_inputP11hb_tensor_tS1_S1_P11hb_vector_tS3_EUlvE_JEEvjjT0_8HBTensorIT_Lln1EEPS7_.isra.0>
    492c:	00000fb7          	lui	x31,0x0
    4930:	000fa803          	lw	x16,0(x31) # 0 <_Z21hb_tiled_foreach_implIfZL26convolution_backward_inputP11hb_tensor_tS1_S1_P11hb_vector_tS3_EUlvE_JEEvjjT0_8HBTensorIT_Lln1EEPS7_.isra.0>
    4934:	01061293          	slli	x5,x12,0x10
    4938:	4100f737          	lui	x14,0x4100f
    493c:	010283b3          	add	x7,x5,x16
    4940:	ac772c23          	sw	x7,-1320(x14) # 4100ead8 <.L2120+0x410010fc>

00004944 <.L840>:
    4944:	0000006f          	j	4944 <.L840>

00004948 <.L930>:
    4948:	02000793          	li	x15,32
    494c:	ccf896e3          	bne	x17,x15,4618 <.L822>
    4950:	cd1814e3          	bne	x16,x17,4618 <.L822>
    4954:	cd0b92e3          	bne	x23,x16,4618 <.L822>
    4958:	01000713          	li	x14,16
    495c:	caef9ee3          	bne	x31,x14,4618 <.L822>
    4960:	cb7c1ce3          	bne	x24,x23,4618 <.L822>
    4964:	cb8f1ae3          	bne	x30,x24,4618 <.L822>
    4968:	00300693          	li	x13,3
    496c:	cadc96e3          	bne	x25,x13,4618 <.L822>
    4970:	cb9e94e3          	bne	x29,x25,4618 <.L822>
    4974:	00100613          	li	x12,1
    4978:	cacd10e3          	bne	x26,x12,4618 <.L822>
    497c:	c9ad9ee3          	bne	x27,x26,4618 <.L822>
    4980:	00100093          	li	x1,1
    4984:	c81a1ae3          	bne	x20,x1,4618 <.L822>
    4988:	c94998e3          	bne	x19,x20,4618 <.L822>
    498c:	000002b7          	lui	x5,0x0
    4990:	000005b7          	lui	x11,0x0
    4994:	00000337          	lui	x6,0x0
    4998:	000003b7          	lui	x7,0x0
    499c:	0002aa83          	lw	x21,0(x5) # 0 <_Z21hb_tiled_foreach_implIfZL26convolution_backward_inputP11hb_tensor_tS1_S1_P11hb_vector_tS3_EUlvE_JEEvjjT0_8HBTensorIT_Lln1EEPS7_.isra.0>
    49a0:	0005a503          	lw	x10,0(x11) # 0 <_Z21hb_tiled_foreach_implIfZL26convolution_backward_inputP11hb_tensor_tS1_S1_P11hb_vector_tS3_EUlvE_JEEvjjT0_8HBTensorIT_Lln1EEPS7_.isra.0>
    49a4:	00032e03          	lw	x28,0(x6) # 0 <_Z21hb_tiled_foreach_implIfZL26convolution_backward_inputP11hb_tensor_tS1_S1_P11hb_vector_tS3_EUlvE_JEEvjjT0_8HBTensorIT_Lln1EEPS7_.isra.0>
    49a8:	0003ab03          	lw	x22,0(x7) # 0 <_Z21hb_tiled_foreach_implIfZL26convolution_backward_inputP11hb_tensor_tS1_S1_P11hb_vector_tS3_EUlvE_JEEvjjT0_8HBTensorIT_Lln1EEPS7_.isra.0>
    49ac:	000008b7          	lui	x17,0x0
    49b0:	0008a803          	lw	x16,0(x17) # 0 <_Z21hb_tiled_foreach_implIfZL26convolution_backward_inputP11hb_tensor_tS1_S1_P11hb_vector_tS3_EUlvE_JEEvjjT0_8HBTensorIT_Lln1EEPS7_.isra.0>
    49b4:	00aa8bb3          	add	x23,x21,x10
    49b8:	016e0fb3          	add	x31,x28,x22
    49bc:	018b9c13          	slli	x24,x23,0x18
    49c0:	012f9f13          	slli	x30,x31,0x12
    49c4:	3f000cb7          	lui	x25,0x3f000
    49c8:	00fc0d37          	lui	x26,0xfc0
    49cc:	000407b7          	lui	x15,0x40
    49d0:	0104a483          	lw	x9,16(x9) # 10 <_Z21hb_tiled_foreach_implIfZL26convolution_backward_inputP11hb_tensor_tS1_S1_P11hb_vector_tS3_EUlvE_JEEvjjT0_8HBTensorIT_Lln1EEPS7_.isra.0+0x10>
    49d4:	019c7eb3          	and	x29,x24,x25
    49d8:	01af7db3          	and	x27,x30,x26
    49dc:	00481a13          	slli	x20,x16,0x4
    49e0:	ff078713          	addi	x14,x15,-16 # 3fff0 <.L2120+0x32614>
    49e4:	01bee9b3          	or	x19,x29,x27
    49e8:	00ea76b3          	and	x13,x20,x14
    49ec:	00d9e633          	or	x12,x19,x13
    49f0:	800000b7          	lui	x1,0x80000
    49f4:	001662b3          	or	x5,x12,x1
    49f8:	00912423          	sw	x9,8(x2)
    49fc:	41001ab7          	lui	x21,0x41001
    4a00:	01092903          	lw	x18,16(x18) # 10 <_Z21hb_tiled_foreach_implIfZL26convolution_backward_inputP11hb_tensor_tS1_S1_P11hb_vector_tS3_EUlvE_JEEvjjT0_8HBTensorIT_Lln1EEPS7_.isra.0+0x10>
    4a04:	01042403          	lw	x8,16(x8)
    4a08:	000005b7          	lui	x11,0x0
    4a0c:	d05aa623          	sw	x5,-756(x21) # 41000d0c <.L2120+0x40ff3330>
    4a10:	0005a503          	lw	x10,0(x11) # 0 <_Z21hb_tiled_foreach_implIfZL26convolution_backward_inputP11hb_tensor_tS1_S1_P11hb_vector_tS3_EUlvE_JEEvjjT0_8HBTensorIT_Lln1EEPS7_.isra.0>
    4a14:	02000313          	li	x6,32
    4a18:	00357e13          	andi	x28,x10,3
    4a1c:	00255393          	srli	x7,x10,0x2
    4a20:	003e1893          	slli	x17,x28,0x3
    4a24:	01f3fb13          	andi	x22,x7,31
    4a28:	01c88bb3          	add	x23,x17,x28
    4a2c:	003b1813          	slli	x16,x22,0x3
    4a30:	009b8c13          	addi	x24,x23,9
    4a34:	01680fb3          	add	x31,x16,x22
    4a38:	01712e23          	sw	x23,28(x2)
    4a3c:	03812023          	sw	x24,32(x2)
    4a40:	004f9f13          	slli	x30,x31,0x4
    4a44:	01837663          	bgeu	x6,x24,4a50 <.L842>
    4a48:	02000c93          	li	x25,32
    4a4c:	03912023          	sw	x25,32(x2)

00004a50 <.L842>:
    4a50:	01c12d83          	lw	x27,28(x2)
    4a54:	00812603          	lw	x12,8(x2)
    4a58:	02012303          	lw	x6,32(x2)
    4a5c:	005b1e93          	slli	x29,x22,0x5
    4a60:	01680d33          	add	x26,x16,x22
    4a64:	01be8a33          	add	x20,x29,x27
    4a68:	006d1993          	slli	x19,x26,0x6
    4a6c:	07810713          	addi	x14,x2,120
    4a70:	40c900b3          	sub	x1,x18,x12
    4a74:	00ab1793          	slli	x15,x22,0xa
    4a78:	007a1293          	slli	x5,x20,0x7
    4a7c:	40e98933          	sub	x18,x19,x14
    4a80:	00508ab3          	add	x21,x1,x5
    4a84:	005a1693          	slli	x13,x20,0x5
    4a88:	40f004b3          	neg	x9,x15
    4a8c:	00890433          	add	x8,x18,x8
    4a90:	00860593          	addi	x11,x12,8 # 8 <_Z21hb_tiled_foreach_implIfZL26convolution_backward_inputP11hb_tensor_tS1_S1_P11hb_vector_tS3_EUlvE_JEEvjjT0_8HBTensorIT_Lln1EEPS7_.isra.0+0x8>
    4a94:	009f0513          	addi	x10,x30,9
    4a98:	fff30e13          	addi	x28,x6,-1
    4a9c:	02d12223          	sw	x13,36(x2)
    4aa0:	02912623          	sw	x9,44(x2)
    4aa4:	03512a23          	sw	x21,52(x2)
    4aa8:	02812823          	sw	x8,48(x2)
    4aac:	02012423          	sw	x0,40(x2)
    4ab0:	02b12c23          	sw	x11,56(x2)
    4ab4:	02a12e23          	sw	x10,60(x2)
    4ab8:	01c12623          	sw	x28,12(x2)
    4abc:	00200093          	li	x1,2

00004ac0 <.L864>:
    4ac0:	02812b03          	lw	x22,40(x2)
    4ac4:	03412883          	lw	x17,52(x2)
    4ac8:	03812383          	lw	x7,56(x2)
    4acc:	03012f83          	lw	x31,48(x2)
    4ad0:	02c12f03          	lw	x30,44(x2)
    4ad4:	03c12b83          	lw	x23,60(x2)
    4ad8:	011b0833          	add	x16,x22,x17
    4adc:	01638c33          	add	x24,x7,x22
    4ae0:	01012823          	sw	x16,16(x2)
    4ae4:	01f12c23          	sw	x31,24(x2)
    4ae8:	01e12a23          	sw	x30,20(x2)
    4aec:	00000b13          	li	x22,0
    4af0:	01f00913          	li	x18,31

00004af4 <.L847>:
    4af4:	01812983          	lw	x19,24(x2)
    4af8:	ff7b8d93          	addi	x27,x23,-9
    4afc:	07810a13          	addi	x20,x2,120

00004b00 <.L844>:
    4b00:	000a0d13          	mv	x26,x20
    4b04:	00ca0c93          	addi	x25,x20,12

00004b08 <.L843>:
    4b08:	01a98eb3          	add	x29,x19,x26
    4b0c:	000ea787          	flw	f15,0(x29) # 0 <_Z21hb_tiled_foreach_implIfZL26convolution_backward_inputP11hb_tensor_tS1_S1_P11hb_vector_tS3_EUlvE_JEEvjjT0_8HBTensorIT_Lln1EEPS7_.isra.0>
    4b10:	004d0d13          	addi	x26,x26,4 # fc0004 <.L2120+0xfb2628>
    4b14:	fefd2e27          	fsw	f15,-4(x26)
    4b18:	ff9d18e3          	bne	x26,x25,4b08 <.L843>
    4b1c:	003d8d93          	addi	x27,x27,3
    4b20:	014a0a13          	addi	x20,x20,20
    4b24:	ff898993          	addi	x19,x19,-8 # fffffff8 <.L2120+0xffff261c>
    4b28:	fd7d9ce3          	bne	x27,x23,4b00 <.L844>
    4b2c:	01c12783          	lw	x15,28(x2)
    4b30:	02012603          	lw	x12,32(x2)
    4b34:	1ac7f463          	bgeu	x15,x12,4cdc <.L862>
    4b38:	01c12283          	lw	x5,28(x2)
    4b3c:	01412703          	lw	x14,20(x2)
    4b40:	01012383          	lw	x7,16(x2)
    4b44:	fff28313          	addi	x6,x5,-1
    4b48:	02412283          	lw	x5,36(x2)
    4b4c:	fe070e13          	addi	x28,x14,-32
    4b50:	003b0d13          	addi	x26,x22,3
    4b54:	00300893          	li	x17,3

00004b58 <.L863>:
    4b58:	00030e93          	mv	x29,x6
    4b5c:	005e0f33          	add	x30,x28,x5
    4b60:	00130313          	addi	x6,x6,1
    4b64:	00000713          	li	x14,0

00004b68 <.L854>:
    4b68:	00812a83          	lw	x21,8(x2)
    4b6c:	002f1493          	slli	x9,x30,0x2
    4b70:	00271693          	slli	x13,x14,0x2
    4b74:	015485b3          	add	x11,x9,x21
    4b78:	fff00613          	li	x12,-1
    4b7c:	00000793          	li	x15,0
    4b80:	01d70fb3          	add	x31,x14,x29
    4b84:	00e68cb3          	add	x25,x13,x14

00004b88 <.L852>:
    4b88:	f0000053          	fmv.w.x	f0,x0
    4b8c:	03f96463          	bltu	x18,x31,4bb4 <.L848>
    4b90:	00fc8433          	add	x8,x25,x15
    4b94:	00241513          	slli	x10,x8,0x2
    4b98:	00261813          	slli	x16,x12,0x2
    4b9c:	14010d93          	addi	x27,x2,320
    4ba0:	fff00493          	li	x9,-1
    4ba4:	00ad8a33          	add	x20,x27,x10
    4ba8:	00b809b3          	add	x19,x16,x11
    4bac:	36960263          	beq	x12,x9,4f10 <.L849>
    4bb0:	0009a007          	flw	f0,0(x19)

00004bb4 <.L848>:
    4bb4:	00fc86b3          	add	x13,x25,x15
    4bb8:	00269a93          	slli	x21,x13,0x2
    4bbc:	14010413          	addi	x8,x2,320
    4bc0:	01540533          	add	x10,x8,x21
    4bc4:	f8052e27          	fsw	f0,-100(x10) # ffffff9c <.L2120+0xffff25c0>
    4bc8:	00178663          	beq	x15,x1,4bd4 <.L898>

00004bcc <.L882>:
    4bcc:	00178793          	addi	x15,x15,1
    4bd0:	0080006f          	j	4bd8 <.L850>

00004bd4 <.L898>:
    4bd4:	00000793          	li	x15,0

00004bd8 <.L850>:
    4bd8:	00160613          	addi	x12,x12,1
    4bdc:	fa1616e3          	bne	x12,x1,4b88 <.L852>
    4be0:	00170713          	addi	x14,x14,1
    4be4:	020f0f13          	addi	x30,x30,32
    4be8:	f91710e3          	bne	x14,x17,4b68 <.L854>
    4bec:	000c0d93          	mv	x27,x24
    4bf0:	00000413          	li	x8,0
    4bf4:	00000593          	li	x11,0
    4bf8:	ff838a13          	addi	x20,x7,-8
    4bfc:	003e8993          	addi	x19,x29,3

00004c00 <.L853>:
    4c00:	01ba04b3          	add	x9,x20,x27
    4c04:	0004a087          	flw	f1,0(x9)
    4c08:	07810f13          	addi	x30,x2,120
    4c0c:	00000793          	li	x15,0

00004c10 <.L860>:
    4c10:	00279c93          	slli	x25,x15,0x2
    4c14:	00fb0833          	add	x16,x22,x15
    4c18:	000f0f93          	mv	x31,x30
    4c1c:	00040693          	mv	x13,x8
    4c20:	00fc8533          	add	x10,x25,x15
    4c24:	00fd0ab3          	add	x21,x26,x15

00004c28 <.L859>:
    4c28:	00d50633          	add	x12,x10,x13
    4c2c:	00261713          	slli	x14,x12,0x2
    4c30:	14010c93          	addi	x25,x2,320
    4c34:	00ec8633          	add	x12,x25,x14
    4c38:	00081463          	bnez	x16,4c40 <.L857>
    4c3c:	f00000d3          	fmv.w.x	f1,x0

00004c40 <.L857>:
    4c40:	000fa707          	flw	f14,0(x31)
    4c44:	f9c62687          	flw	f13,-100(x12)
    4c48:	08e6f0c3          	fmadd.s	f1,f13,f14,f1
    4c4c:	2c168c63          	beq	x13,x1,4f24 <.L903>
    4c50:	00168693          	addi	x13,x13,1 # 1 <_Z21hb_tiled_foreach_implIfZL26convolution_backward_inputP11hb_tensor_tS1_S1_P11hb_vector_tS3_EUlvE_JEEvjjT0_8HBTensorIT_Lln1EEPS7_.isra.0+0x1>

00004c54 <.L858>:
    4c54:	00180813          	addi	x16,x16,1 # 1 <_Z21hb_tiled_foreach_implIfZL26convolution_backward_inputP11hb_tensor_tS1_S1_P11hb_vector_tS3_EUlvE_JEEvjjT0_8HBTensorIT_Lln1EEPS7_.isra.0+0x1>
    4c58:	004f8f93          	addi	x31,x31,4
    4c5c:	fd5816e3          	bne	x16,x21,4c28 <.L859>
    4c60:	00178793          	addi	x15,x15,1
    4c64:	014f0f13          	addi	x30,x30,20
    4c68:	fb1794e3          	bne	x15,x17,4c10 <.L860>
    4c6c:	0014a027          	fsw	f1,0(x9)
    4c70:	02000413          	li	x8,32
    4c74:	00158493          	addi	x9,x11,1
    4c78:	04848a63          	beq	x9,x8,4ccc <.L931>
    4c7c:	0315f533          	remu	x10,x11,x17
    4c80:	0dc10c93          	addi	x25,x2,220
    4c84:	000e8713          	mv	x14,x29
    4c88:	0314f433          	remu	x8,x9,x17
    4c8c:	00251a93          	slli	x21,x10,0x2
    4c90:	015c8fb3          	add	x31,x25,x21

00004c94 <.L856>:
    4c94:	f0000153          	fmv.w.x	f2,x0
    4c98:	00e96c63          	bltu	x18,x14,4cb0 <.L855>
    4c9c:	00771613          	slli	x12,x14,0x7
    4ca0:	01e00813          	li	x16,30
    4ca4:	01b606b3          	add	x13,x12,x27
    4ca8:	01058463          	beq	x11,x16,4cb0 <.L855>
    4cac:	0006a107          	flw	f2,0(x13)

00004cb0 <.L855>:
    4cb0:	00170713          	addi	x14,x14,1
    4cb4:	002fa027          	fsw	f2,0(x31)
    4cb8:	014f8f93          	addi	x31,x31,20
    4cbc:	fce99ce3          	bne	x19,x14,4c94 <.L856>
    4cc0:	004d8d93          	addi	x27,x27,4
    4cc4:	00048593          	mv	x11,x9
    4cc8:	f39ff06f          	j	4c00 <.L853>

00004ccc <.L931>:
    4ccc:	00c12e83          	lw	x29,12(x2)
    4cd0:	02028293          	addi	x5,x5,32
    4cd4:	08038393          	addi	x7,x7,128
    4cd8:	e86e90e3          	bne	x29,x6,4b58 <.L863>

00004cdc <.L862>:
    4cdc:	01012883          	lw	x17,16(x2)
    4ce0:	01412d83          	lw	x27,20(x2)
    4ce4:	01812a03          	lw	x20,24(x2)
    4ce8:	00001e37          	lui	x28,0x1
    4cec:	41c88333          	sub	x6,x17,x28
    4cf0:	400d8593          	addi	x11,x27,1024
    4cf4:	024a0993          	addi	x19,x20,36
    4cf8:	001b0b13          	addi	x22,x22,1
    4cfc:	01000d13          	li	x26,16
    4d00:	00612823          	sw	x6,16(x2)
    4d04:	00b12a23          	sw	x11,20(x2)
    4d08:	01312c23          	sw	x19,24(x2)
    4d0c:	01cc0c33          	add	x24,x24,x28
    4d10:	009b8b93          	addi	x23,x23,9
    4d14:	dfab10e3          	bne	x22,x26,4af4 <.L847>
    4d18:	02812783          	lw	x15,40(x2)
    4d1c:	02412503          	lw	x10,36(x2)
    4d20:	02c12603          	lw	x12,44(x2)
    4d24:	00010937          	lui	x18,0x10
    4d28:	00008437          	lui	x8,0x8
    4d2c:	ffffccb7          	lui	x25,0xffffc
    4d30:	01278f33          	add	x30,x15,x18
    4d34:	00850ab3          	add	x21,x10,x8
    4d38:	019606b3          	add	x13,x12,x25
    4d3c:	03e12423          	sw	x30,40(x2)
    4d40:	000804b7          	lui	x9,0x80
    4d44:	03512223          	sw	x21,36(x2)
    4d48:	02d12623          	sw	x13,44(x2)
    4d4c:	d69f1ae3          	bne	x30,x9,4ac0 <.L864>
    4d50:	00000eb7          	lui	x29,0x0
    4d54:	00000837          	lui	x16,0x0
    4d58:	000000b7          	lui	x1,0x0
    4d5c:	00000737          	lui	x14,0x0
    4d60:	0000af83          	lw	x31,0(x1) # 0 <_Z21hb_tiled_foreach_implIfZL26convolution_backward_inputP11hb_tensor_tS1_S1_P11hb_vector_tS3_EUlvE_JEEvjjT0_8HBTensorIT_Lln1EEPS7_.isra.0>
    4d64:	00082283          	lw	x5,0(x16) # 0 <_Z21hb_tiled_foreach_implIfZL26convolution_backward_inputP11hb_tensor_tS1_S1_P11hb_vector_tS3_EUlvE_JEEvjjT0_8HBTensorIT_Lln1EEPS7_.isra.0>
    4d68:	00072383          	lw	x7,0(x14) # 0 <_Z21hb_tiled_foreach_implIfZL26convolution_backward_inputP11hb_tensor_tS1_S1_P11hb_vector_tS3_EUlvE_JEEvjjT0_8HBTensorIT_Lln1EEPS7_.isra.0>
    4d6c:	000eae03          	lw	x28,0(x29) # 0 <_Z21hb_tiled_foreach_implIfZL26convolution_backward_inputP11hb_tensor_tS1_S1_P11hb_vector_tS3_EUlvE_JEEvjjT0_8HBTensorIT_Lln1EEPS7_.isra.0>
    4d70:	00000b37          	lui	x22,0x0
    4d74:	000b2d03          	lw	x26,0(x22) # 0 <_Z21hb_tiled_foreach_implIfZL26convolution_backward_inputP11hb_tensor_tS1_S1_P11hb_vector_tS3_EUlvE_JEEvjjT0_8HBTensorIT_Lln1EEPS7_.isra.0>
    4d78:	005f8c33          	add	x24,x31,x5
    4d7c:	01c388b3          	add	x17,x7,x28
    4d80:	018c1313          	slli	x6,x24,0x18
    4d84:	01289d93          	slli	x27,x17,0x12
    4d88:	3f0005b7          	lui	x11,0x3f000
    4d8c:	00fc0a37          	lui	x20,0xfc0
    4d90:	00040f37          	lui	x30,0x40
    4d94:	004d1913          	slli	x18,x26,0x4
    4d98:	00b37bb3          	and	x23,x6,x11
    4d9c:	014df9b3          	and	x19,x27,x20
    4da0:	ff0f0493          	addi	x9,x30,-16 # 3fff0 <.L2120+0x32614>
    4da4:	013be7b3          	or	x15,x23,x19
    4da8:	00997433          	and	x8,x18,x9
    4dac:	0087e533          	or	x10,x15,x8
    4db0:	c0000ab7          	lui	x21,0xc0000
    4db4:	01556cb3          	or	x25,x10,x21
    4db8:	41001637          	lui	x12,0x41001
    4dbc:	d1962623          	sw	x25,-756(x12) # 41000d0c <.L2120+0x40ff3330>
    4dc0:	000ea683          	lw	x13,0(x29)
    4dc4:	00082f83          	lw	x31,0(x16)
    4dc8:	00000537          	lui	x10,0x0
    4dcc:	00468813          	addi	x16,x13,4
    4dd0:	00050693          	mv	x13,x10
    4dd4:	010682b3          	add	x5,x13,x16
    4dd8:	018f9713          	slli	x14,x31,0x18
    4ddc:	000e8093          	mv	x1,x29
    4de0:	00e2e3b3          	or	x7,x5,x14
    4de4:	201c0eb7          	lui	x29,0x201c0
    4de8:	01d3ee33          	or	x28,x7,x29
    4dec:	00100b13          	li	x22,1
    4df0:	016e0023          	sb	x22,0(x28) # 1000 <.L314+0x4>
    4df4:	0000ad03          	lw	x26,0(x1)
    4df8:	00700c13          	li	x24,7
    4dfc:	038d0863          	beq	x26,x24,4e2c <.L932>

00004e00 <.L866>:
    4e00:	00100f13          	li	x30,1
    4e04:	0100006f          	j	4e14 <.L879>

00004e08 <.L933>:
    4e08:	00050a93          	mv	x21,x10
    4e0c:	140aa5af          	lr.w.aq	x11,(x21)
    4e10:	01e58863          	beq	x11,x30,4e20 <.L878>

00004e14 <.L879>:
    4e14:	00050493          	mv	x9,x10
    4e18:	1004a42f          	lr.w	x8,(x9)
    4e1c:	ffe416e3          	bne	x8,x30,4e08 <.L933>

00004e20 <.L878>:
    4e20:	0006a023          	sw	x0,0(x13)
    4e24:	00000513          	li	x10,0
    4e28:	ff0ff06f          	j	4618 <.L822>

00004e2c <.L932>:
    4e2c:	000008b7          	lui	x17,0x0
    4e30:	00000db7          	lui	x27,0x0
    4e34:	00488313          	addi	x6,x17,4 # 4 <_Z21hb_tiled_foreach_implIfZL26convolution_backward_inputP11hb_tensor_tS1_S1_P11hb_vector_tS3_EUlvE_JEEvjjT0_8HBTensorIT_Lln1EEPS7_.isra.0+0x4>
    4e38:	014d8b93          	addi	x23,x27,20 # 14 <.L8>

00004e3c <.L865>:
    4e3c:	00030a13          	mv	x20,x6

00004e40 <.L868>:
    4e40:	000a4583          	lbu	x11,0(x20) # fc0000 <.L2120+0xfb2624>
    4e44:	001a0a13          	addi	x20,x20,1
    4e48:	0ff5f993          	andi	x19,x11,255
    4e4c:	fe0988e3          	beqz	x19,4e3c <.L865>
    4e50:	ff4b98e3          	bne	x23,x20,4e40 <.L868>
    4e54:	00000937          	lui	x18,0x0
    4e58:	00092783          	lw	x15,0(x18) # 0 <_Z21hb_tiled_foreach_implIfZL26convolution_backward_inputP11hb_tensor_tS1_S1_P11hb_vector_tS3_EUlvE_JEEvjjT0_8HBTensorIT_Lln1EEPS7_.isra.0>
    4e5c:	231c0437          	lui	x8,0x231c0
    4e60:	00100c93          	li	x25,1
    4e64:	01878f13          	addi	x30,x15,24
    4e68:	01e684b3          	add	x9,x13,x30
    4e6c:	0084eab3          	or	x21,x9,x8
    4e70:	019a8023          	sb	x25,0(x21) # c0000000 <.L2120+0xbfff2624>
    4e74:	00000637          	lui	x12,0x0
    4e78:	00062083          	lw	x1,0(x12) # 0 <_Z21hb_tiled_foreach_implIfZL26convolution_backward_inputP11hb_tensor_tS1_S1_P11hb_vector_tS3_EUlvE_JEEvjjT0_8HBTensorIT_Lln1EEPS7_.isra.0>
    4e7c:	00700f93          	li	x31,7
    4e80:	f9f090e3          	bne	x1,x31,4e00 <.L866>
    4e84:	00000837          	lui	x16,0x0
    4e88:	00082283          	lw	x5,0(x16) # 0 <_Z21hb_tiled_foreach_implIfZL26convolution_backward_inputP11hb_tensor_tS1_S1_P11hb_vector_tS3_EUlvE_JEEvjjT0_8HBTensorIT_Lln1EEPS7_.isra.0>
    4e8c:	00300713          	li	x14,3
    4e90:	08e28e63          	beq	x5,x14,4f2c <.L934>

00004e94 <.L874>:
    4e94:	00100613          	li	x12,1
    4e98:	0100006f          	j	4ea8 <.L870>

00004e9c <.L935>:
    4e9c:	01468813          	addi	x16,x13,20
    4ea0:	140822af          	lr.w.aq	x5,(x16)
    4ea4:	00c28863          	beq	x5,x12,4eb4 <.L875>

00004ea8 <.L870>:
    4ea8:	01468093          	addi	x1,x13,20
    4eac:	1000afaf          	lr.w	x31,(x1)
    4eb0:	fecf96e3          	bne	x31,x12,4e9c <.L935>

00004eb4 <.L875>:
    4eb4:	0006aa23          	sw	x0,20(x13)
    4eb8:	00000e93          	li	x29,0
    4ebc:	01000393          	li	x7,16

00004ec0 <.L876>:
    4ec0:	01d68733          	add	x14,x13,x29
    4ec4:	00070223          	sb	x0,4(x14)
    4ec8:	001e8e93          	addi	x29,x29,1 # 201c0001 <.L2120+0x201b2625>
    4ecc:	fe7e9ae3          	bne	x29,x7,4ec0 <.L876>
    4ed0:	0006a023          	sw	x0,0(x13)
    4ed4:	00000313          	li	x6,0
    4ed8:	20000e37          	lui	x28,0x20000
    4edc:	00100b13          	li	x22,1
    4ee0:	00040d37          	lui	x26,0x40
    4ee4:	00400c37          	lui	x24,0x400

00004ee8 <.L877>:
    4ee8:	000008b7          	lui	x17,0x0
    4eec:	0008ad83          	lw	x27,0(x17) # 0 <_Z21hb_tiled_foreach_implIfZL26convolution_backward_inputP11hb_tensor_tS1_S1_P11hb_vector_tS3_EUlvE_JEEvjjT0_8HBTensorIT_Lln1EEPS7_.isra.0>
    4ef0:	0066ea33          	or	x20,x13,x6
    4ef4:	01a30333          	add	x6,x6,x26
    4ef8:	018d9993          	slli	x19,x27,0x18
    4efc:	0149e933          	or	x18,x19,x20
    4f00:	01c967b3          	or	x15,x18,x28
    4f04:	0167a023          	sw	x22,0(x15)
    4f08:	ff8310e3          	bne	x6,x24,4ee8 <.L877>
    4f0c:	ef5ff06f          	j	4e00 <.L866>

00004f10 <.L849>:
    4f10:	f80a2e23          	sw	x0,-100(x20)
    4f14:	ca179ce3          	bne	x15,x1,4bcc <.L882>
    4f18:	00000793          	li	x15,0
    4f1c:	00000613          	li	x12,0
    4f20:	c69ff06f          	j	4b88 <.L852>

00004f24 <.L903>:
    4f24:	00000693          	li	x13,0
    4f28:	d2dff06f          	j	4c54 <.L858>

00004f2c <.L934>:
    4f2c:	000003b7          	lui	x7,0x0
    4f30:	00000e37          	lui	x28,0x0
    4f34:	01838e93          	addi	x29,x7,24 # 18 <.L8+0x4>
    4f38:	020e0b13          	addi	x22,x28,32 # 20 <.L8+0xc>

00004f3c <.L869>:
    4f3c:	000e8c13          	mv	x24,x29

00004f40 <.L871>:
    4f40:	000c4d03          	lbu	x26,0(x24) # 400000 <.L2120+0x3f2624>
    4f44:	001c0c13          	addi	x24,x24,1
    4f48:	0ffd7893          	andi	x17,x26,255
    4f4c:	fe0888e3          	beqz	x17,4f3c <.L869>
    4f50:	ff8b18e3          	bne	x22,x24,4f40 <.L871>
    4f54:	00068c23          	sb	x0,24(x13)
    4f58:	00068ca3          	sb	x0,25(x13)
    4f5c:	00068d23          	sb	x0,26(x13)
    4f60:	00068da3          	sb	x0,27(x13)
    4f64:	00068e23          	sb	x0,28(x13)
    4f68:	00068ea3          	sb	x0,29(x13)
    4f6c:	00068f23          	sb	x0,30(x13)
    4f70:	00068fa3          	sb	x0,31(x13)
    4f74:	0006aa23          	sw	x0,20(x13)
    4f78:	00000593          	li	x11,0
    4f7c:	03fc0db7          	lui	x27,0x3fc0
    4f80:	20000a37          	lui	x20,0x20000
    4f84:	00100313          	li	x6,1
    4f88:	010009b7          	lui	x19,0x1000
    4f8c:	08000937          	lui	x18,0x8000

00004f90 <.L873>:
    4f90:	01209793          	slli	x15,x1,0x12
    4f94:	00bbef33          	or	x30,x23,x11
    4f98:	01b7f4b3          	and	x9,x15,x27
    4f9c:	01e4e433          	or	x8,x9,x30
    4fa0:	01446ab3          	or	x21,x8,x20
    4fa4:	006aa023          	sw	x6,0(x21)
    4fa8:	00000cb7          	lui	x25,0x0
    4fac:	013585b3          	add	x11,x11,x19
    4fb0:	000ca083          	lw	x1,0(x25) # 0 <_Z21hb_tiled_foreach_implIfZL26convolution_backward_inputP11hb_tensor_tS1_S1_P11hb_vector_tS3_EUlvE_JEEvjjT0_8HBTensorIT_Lln1EEPS7_.isra.0>
    4fb4:	fd259ee3          	bne	x11,x18,4f90 <.L873>
    4fb8:	00700b93          	li	x23,7
    4fbc:	ed708ce3          	beq	x1,x23,4e94 <.L874>
    4fc0:	e41ff06f          	j	4e00 <.L866>

00004fc4 <_ZN12_GLOBAL__N_128convolution_forward_templateILm8ELm64ELm16ELm16ELm32ELm16ELm16ELm3ELm3ELm1ELm1ELm1ELm1EEEiP11hb_tensor_tS2_S2_P11hb_vector_tS4_>:
    4fc4:	e8010113          	addi	x2,x2,-384
    4fc8:	17212823          	sw	x18,368(x2)
    4fcc:	00050913          	mv	x18,x10
    4fd0:	16912a23          	sw	x9,372(x2)
    4fd4:	04410513          	addi	x10,x2,68
    4fd8:	00058493          	mv	x9,x11
    4fdc:	00090593          	mv	x11,x18
    4fe0:	16112e23          	sw	x1,380(x2)
    4fe4:	16812c23          	sw	x8,376(x2)
    4fe8:	17312623          	sw	x19,364(x2)
    4fec:	00060413          	mv	x8,x12
    4ff0:	00070993          	mv	x19,x14
    4ff4:	17412423          	sw	x20,360(x2)
    4ff8:	17512223          	sw	x21,356(x2)
    4ffc:	00068a13          	mv	x20,x13
    5000:	17612023          	sw	x22,352(x2)
    5004:	15712e23          	sw	x23,348(x2)
    5008:	15812c23          	sw	x24,344(x2)
    500c:	15912a23          	sw	x25,340(x2)
    5010:	15a12823          	sw	x26,336(x2)
    5014:	15b12623          	sw	x27,332(x2)
    5018:	00000097          	auipc	x1,0x0
    501c:	000080e7          	jalr	x1 # 5018 <_ZN12_GLOBAL__N_128convolution_forward_templateILm8ELm64ELm16ELm16ELm32ELm16ELm16ELm3ELm3ELm1ELm1ELm1ELm1EEEiP11hb_tensor_tS2_S2_P11hb_vector_tS4_+0x54>
    5020:	00048593          	mv	x11,x9
    5024:	07810513          	addi	x10,x2,120
    5028:	00000097          	auipc	x1,0x0
    502c:	000080e7          	jalr	x1 # 5028 <_ZN12_GLOBAL__N_128convolution_forward_templateILm8ELm64ELm16ELm16ELm32ELm16ELm16ELm3ELm3ELm1ELm1ELm1ELm1EEEiP11hb_tensor_tS2_S2_P11hb_vector_tS4_+0x64>
    5030:	00040593          	mv	x11,x8
    5034:	0dc10513          	addi	x10,x2,220
    5038:	00000097          	auipc	x1,0x0
    503c:	000080e7          	jalr	x1 # 5038 <_ZN12_GLOBAL__N_128convolution_forward_templateILm8ELm64ELm16ELm16ELm32ELm16ELm16ELm3ELm3ELm1ELm1ELm1ELm1EEEiP11hb_tensor_tS2_S2_P11hb_vector_tS4_+0x74>
    5040:	04812783          	lw	x15,72(x2)
    5044:	10078e63          	beqz	x15,5160 <.L1035>
    5048:	00100713          	li	x14,1
    504c:	0cf77063          	bgeu	x14,x15,510c <.L1036>
    5050:	00200693          	li	x13,2
    5054:	1ad78a63          	beq	x15,x13,5208 <.L1037>
    5058:	00300613          	li	x12,3
    505c:	20c78063          	beq	x15,x12,525c <.L1038>
    5060:	07c12083          	lw	x1,124(x2)
    5064:	14177863          	bgeu	x14,x1,51b4 <.L1039>
    5068:	28d08e63          	beq	x1,x13,5304 <.L1040>
    506c:	2ec08663          	beq	x1,x12,5358 <.L1041>
    5070:	0e012283          	lw	x5,224(x2)
    5074:	2256fe63          	bgeu	x13,x5,52b0 <.L1042>
    5078:	32c28a63          	beq	x5,x12,53ac <.L1043>
    507c:	05012583          	lw	x11,80(x2)
    5080:	08412a83          	lw	x21,132(x2)
    5084:	004a2503          	lw	x10,4(x20) # 20000004 <.L2120+0x1fff2628>
    5088:	0049a883          	lw	x17,4(x19) # 1000004 <.L2120+0xff2628>
    508c:	0e812303          	lw	x6,232(x2)
    5090:	0005a383          	lw	x7,0(x11) # 3f000000 <.L2120+0x3eff2624>
    5094:	00800f93          	li	x31,8
    5098:	00052a03          	lw	x20,0(x10) # 0 <_Z21hb_tiled_foreach_implIfZL26convolution_backward_inputP11hb_tensor_tS1_S1_P11hb_vector_tS3_EUlvE_JEEvjjT0_8HBTensorIT_Lln1EEPS7_.isra.0>
    509c:	00452983          	lw	x19,4(x10)
    50a0:	0045ab03          	lw	x22,4(x11)
    50a4:	0085a803          	lw	x16,8(x11)
    50a8:	00c5ab83          	lw	x23,12(x11)
    50ac:	004aaf03          	lw	x30,4(x21)
    50b0:	008aac03          	lw	x24,8(x21)
    50b4:	00caae83          	lw	x29,12(x21)
    50b8:	00832c83          	lw	x25,8(x6)
    50bc:	00c32e03          	lw	x28,12(x6)
    50c0:	0008ad03          	lw	x26,0(x17)
    50c4:	0048ad83          	lw	x27,4(x17)
    50c8:	fff00513          	li	x10,-1
    50cc:	33f38a63          	beq	x7,x31,5400 <.L1044>

000050d0 <.L936>:
    50d0:	17c12083          	lw	x1,380(x2)
    50d4:	17812403          	lw	x8,376(x2)
    50d8:	17412483          	lw	x9,372(x2)
    50dc:	17012903          	lw	x18,368(x2)
    50e0:	16c12983          	lw	x19,364(x2)
    50e4:	16812a03          	lw	x20,360(x2)
    50e8:	16412a83          	lw	x21,356(x2)
    50ec:	16012b03          	lw	x22,352(x2)
    50f0:	15c12b83          	lw	x23,348(x2)
    50f4:	15812c03          	lw	x24,344(x2)
    50f8:	15412c83          	lw	x25,340(x2)
    50fc:	15012d03          	lw	x26,336(x2)
    5100:	14c12d83          	lw	x27,332(x2)
    5104:	18010113          	addi	x2,x2,384
    5108:	00008067          	ret

0000510c <.L1036>:
    510c:	00000c37          	lui	x24,0x0
    5110:	00000d37          	lui	x26,0x0
    5114:	06f00613          	li	x12,111
    5118:	000c0593          	mv	x11,x24
    511c:	000d0513          	mv	x10,x26
    5120:	00000097          	auipc	x1,0x0
    5124:	000080e7          	jalr	x1 # 5120 <.L1036+0x14>
    5128:	04812583          	lw	x11,72(x2)
    512c:	000008b7          	lui	x17,0x0
    5130:	00088513          	mv	x10,x17
    5134:	00000097          	auipc	x1,0x0
    5138:	000080e7          	jalr	x1 # 5134 <.L1036+0x28>
    513c:	00000db7          	lui	x27,0x0
    5140:	000daa03          	lw	x20,0(x27) # 0 <_Z21hb_tiled_foreach_implIfZL26convolution_backward_inputP11hb_tensor_tS1_S1_P11hb_vector_tS3_EUlvE_JEEvjjT0_8HBTensorIT_Lln1EEPS7_.isra.0>
    5144:	00000337          	lui	x6,0x0
    5148:	00032983          	lw	x19,0(x6) # 0 <_Z21hb_tiled_foreach_implIfZL26convolution_backward_inputP11hb_tensor_tS1_S1_P11hb_vector_tS3_EUlvE_JEEvjjT0_8HBTensorIT_Lln1EEPS7_.isra.0>
    514c:	010a1f13          	slli	x30,x20,0x10
    5150:	4100f7b7          	lui	x15,0x4100f
    5154:	013f04b3          	add	x9,x30,x19
    5158:	ac97ac23          	sw	x9,-1320(x15) # 4100ead8 <.L2120+0x410010fc>

0000515c <.L940>:
    515c:	0000006f          	j	515c <.L940>

00005160 <.L1035>:
    5160:	000000b7          	lui	x1,0x0
    5164:	00000437          	lui	x8,0x0
    5168:	00008593          	mv	x11,x1
    516c:	06f00613          	li	x12,111
    5170:	00040513          	mv	x10,x8
    5174:	00000097          	auipc	x1,0x0
    5178:	000080e7          	jalr	x1 # 5174 <.L1035+0x14>
    517c:	04812583          	lw	x11,72(x2)
    5180:	00000ab7          	lui	x21,0x0
    5184:	000a8513          	mv	x10,x21
    5188:	00000097          	auipc	x1,0x0
    518c:	000080e7          	jalr	x1 # 5188 <.L1035+0x28>
    5190:	000005b7          	lui	x11,0x0
    5194:	0005a503          	lw	x10,0(x11) # 0 <_Z21hb_tiled_foreach_implIfZL26convolution_backward_inputP11hb_tensor_tS1_S1_P11hb_vector_tS3_EUlvE_JEEvjjT0_8HBTensorIT_Lln1EEPS7_.isra.0>
    5198:	000006b7          	lui	x13,0x0
    519c:	0006ac83          	lw	x25,0(x13) # 0 <_Z21hb_tiled_foreach_implIfZL26convolution_backward_inputP11hb_tensor_tS1_S1_P11hb_vector_tS3_EUlvE_JEEvjjT0_8HBTensorIT_Lln1EEPS7_.isra.0>
    51a0:	01051b93          	slli	x23,x10,0x10
    51a4:	4100f737          	lui	x14,0x4100f
    51a8:	019b8e33          	add	x28,x23,x25
    51ac:	adc72c23          	sw	x28,-1320(x14) # 4100ead8 <.L2120+0x410010fc>

000051b0 <.L938>:
    51b0:	0000006f          	j	51b0 <.L938>

000051b4 <.L1039>:
    51b4:	00000b37          	lui	x22,0x0
    51b8:	00000937          	lui	x18,0x0
    51bc:	06f00613          	li	x12,111
    51c0:	000b0593          	mv	x11,x22
    51c4:	00090513          	mv	x10,x18
    51c8:	00000097          	auipc	x1,0x0
    51cc:	000080e7          	jalr	x1 # 51c8 <.L1039+0x14>
    51d0:	07c12583          	lw	x11,124(x2)
    51d4:	00000c37          	lui	x24,0x0
    51d8:	000c0513          	mv	x10,x24
    51dc:	00000097          	auipc	x1,0x0
    51e0:	000080e7          	jalr	x1 # 51dc <.L1039+0x28>
    51e4:	00000d37          	lui	x26,0x0
    51e8:	000d2883          	lw	x17,0(x26) # 0 <_Z21hb_tiled_foreach_implIfZL26convolution_backward_inputP11hb_tensor_tS1_S1_P11hb_vector_tS3_EUlvE_JEEvjjT0_8HBTensorIT_Lln1EEPS7_.isra.0>
    51ec:	00000db7          	lui	x27,0x0
    51f0:	000daa03          	lw	x20,0(x27) # 0 <_Z21hb_tiled_foreach_implIfZL26convolution_backward_inputP11hb_tensor_tS1_S1_P11hb_vector_tS3_EUlvE_JEEvjjT0_8HBTensorIT_Lln1EEPS7_.isra.0>
    51f4:	01089313          	slli	x6,x17,0x10
    51f8:	4100ff37          	lui	x30,0x4100f
    51fc:	014309b3          	add	x19,x6,x20
    5200:	ad3f2c23          	sw	x19,-1320(x30) # 4100ead8 <.L2120+0x410010fc>

00005204 <.L946>:
    5204:	0000006f          	j	5204 <.L946>

00005208 <.L1037>:
    5208:	00000737          	lui	x14,0x0
    520c:	00000e37          	lui	x28,0x0
    5210:	00070593          	mv	x11,x14
    5214:	06f00613          	li	x12,111
    5218:	000e0513          	mv	x10,x28
    521c:	00000097          	auipc	x1,0x0
    5220:	000080e7          	jalr	x1 # 521c <.L1037+0x14>
    5224:	04812583          	lw	x11,72(x2)
    5228:	00000637          	lui	x12,0x0
    522c:	00060513          	mv	x10,x12
    5230:	00000097          	auipc	x1,0x0
    5234:	000080e7          	jalr	x1 # 5230 <.L1037+0x28>
    5238:	00000837          	lui	x16,0x0
    523c:	00082f83          	lw	x31,0(x16) # 0 <_Z21hb_tiled_foreach_implIfZL26convolution_backward_inputP11hb_tensor_tS1_S1_P11hb_vector_tS3_EUlvE_JEEvjjT0_8HBTensorIT_Lln1EEPS7_.isra.0>
    5240:	000002b7          	lui	x5,0x0
    5244:	0002a383          	lw	x7,0(x5) # 0 <_Z21hb_tiled_foreach_implIfZL26convolution_backward_inputP11hb_tensor_tS1_S1_P11hb_vector_tS3_EUlvE_JEEvjjT0_8HBTensorIT_Lln1EEPS7_.isra.0>
    5248:	010f9e93          	slli	x29,x31,0x10
    524c:	4100f937          	lui	x18,0x4100f
    5250:	007e8b33          	add	x22,x29,x7
    5254:	ad692c23          	sw	x22,-1320(x18) # 4100ead8 <.L2120+0x410010fc>

00005258 <.L942>:
    5258:	0000006f          	j	5258 <.L942>

0000525c <.L1038>:
    525c:	000000b7          	lui	x1,0x0
    5260:	000004b7          	lui	x9,0x0
    5264:	00008593          	mv	x11,x1
    5268:	06f00613          	li	x12,111
    526c:	00048513          	mv	x10,x9
    5270:	00000097          	auipc	x1,0x0
    5274:	000080e7          	jalr	x1 # 5270 <.L1038+0x14>
    5278:	04812583          	lw	x11,72(x2)
    527c:	000007b7          	lui	x15,0x0
    5280:	00078513          	mv	x10,x15
    5284:	00000097          	auipc	x1,0x0
    5288:	000080e7          	jalr	x1 # 5284 <.L1038+0x28>
    528c:	00000437          	lui	x8,0x0
    5290:	00042a83          	lw	x21,0(x8) # 0 <_Z21hb_tiled_foreach_implIfZL26convolution_backward_inputP11hb_tensor_tS1_S1_P11hb_vector_tS3_EUlvE_JEEvjjT0_8HBTensorIT_Lln1EEPS7_.isra.0>
    5294:	000005b7          	lui	x11,0x0
    5298:	0005a503          	lw	x10,0(x11) # 0 <_Z21hb_tiled_foreach_implIfZL26convolution_backward_inputP11hb_tensor_tS1_S1_P11hb_vector_tS3_EUlvE_JEEvjjT0_8HBTensorIT_Lln1EEPS7_.isra.0>
    529c:	010a9693          	slli	x13,x21,0x10
    52a0:	4100fbb7          	lui	x23,0x4100f
    52a4:	00a68cb3          	add	x25,x13,x10
    52a8:	ad9bac23          	sw	x25,-1320(x23) # 4100ead8 <.L2120+0x410010fc>

000052ac <.L944>:
    52ac:	0000006f          	j	52ac <.L944>

000052b0 <.L1042>:
    52b0:	000003b7          	lui	x7,0x0
    52b4:	00000eb7          	lui	x29,0x0
    52b8:	00038593          	mv	x11,x7
    52bc:	06f00613          	li	x12,111
    52c0:	000e8513          	mv	x10,x29
    52c4:	00000097          	auipc	x1,0x0
    52c8:	000080e7          	jalr	x1 # 52c4 <.L1042+0x14>
    52cc:	0e012583          	lw	x11,224(x2)
    52d0:	00000b37          	lui	x22,0x0
    52d4:	000b0513          	mv	x10,x22
    52d8:	00000937          	lui	x18,0x0
    52dc:	00000097          	auipc	x1,0x0
    52e0:	000080e7          	jalr	x1 # 52dc <.L1042+0x2c>
    52e4:	00000d37          	lui	x26,0x0
    52e8:	00092c03          	lw	x24,0(x18) # 0 <_Z21hb_tiled_foreach_implIfZL26convolution_backward_inputP11hb_tensor_tS1_S1_P11hb_vector_tS3_EUlvE_JEEvjjT0_8HBTensorIT_Lln1EEPS7_.isra.0>
    52ec:	000d2883          	lw	x17,0(x26) # 0 <_Z21hb_tiled_foreach_implIfZL26convolution_backward_inputP11hb_tensor_tS1_S1_P11hb_vector_tS3_EUlvE_JEEvjjT0_8HBTensorIT_Lln1EEPS7_.isra.0>
    52f0:	4100f337          	lui	x6,0x4100f
    52f4:	010c1d93          	slli	x27,x24,0x10
    52f8:	011d8a33          	add	x20,x27,x17
    52fc:	ad432c23          	sw	x20,-1320(x6) # 4100ead8 <.L2120+0x410010fc>

00005300 <.L952>:
    5300:	0000006f          	j	5300 <.L952>

00005304 <.L1040>:
    5304:	00000cb7          	lui	x25,0x0
    5308:	00000bb7          	lui	x23,0x0
    530c:	06f00613          	li	x12,111
    5310:	000c8593          	mv	x11,x25
    5314:	000b8513          	mv	x10,x23
    5318:	00000097          	auipc	x1,0x0
    531c:	000080e7          	jalr	x1 # 5318 <.L1040+0x14>
    5320:	07c12583          	lw	x11,124(x2)
    5324:	00000637          	lui	x12,0x0
    5328:	00060513          	mv	x10,x12
    532c:	00000097          	auipc	x1,0x0
    5330:	000080e7          	jalr	x1 # 532c <.L1040+0x28>
    5334:	00000737          	lui	x14,0x0
    5338:	00072e03          	lw	x28,0(x14) # 0 <_Z21hb_tiled_foreach_implIfZL26convolution_backward_inputP11hb_tensor_tS1_S1_P11hb_vector_tS3_EUlvE_JEEvjjT0_8HBTensorIT_Lln1EEPS7_.isra.0>
    533c:	00000837          	lui	x16,0x0
    5340:	00082f83          	lw	x31,0(x16) # 0 <_Z21hb_tiled_foreach_implIfZL26convolution_backward_inputP11hb_tensor_tS1_S1_P11hb_vector_tS3_EUlvE_JEEvjjT0_8HBTensorIT_Lln1EEPS7_.isra.0>
    5344:	010e1293          	slli	x5,x28,0x10
    5348:	4100feb7          	lui	x29,0x4100f
    534c:	01f283b3          	add	x7,x5,x31
    5350:	ac7eac23          	sw	x7,-1320(x29) # 4100ead8 <.L2120+0x410010fc>

00005354 <.L948>:
    5354:	0000006f          	j	5354 <.L948>

00005358 <.L1041>:
    5358:	000000b7          	lui	x1,0x0
    535c:	000009b7          	lui	x19,0x0
    5360:	00008593          	mv	x11,x1
    5364:	06f00613          	li	x12,111
    5368:	00098513          	mv	x10,x19
    536c:	00000097          	auipc	x1,0x0
    5370:	000080e7          	jalr	x1 # 536c <.L1041+0x14>
    5374:	07c12583          	lw	x11,124(x2)
    5378:	00000f37          	lui	x30,0x0
    537c:	000f0513          	mv	x10,x30
    5380:	00000097          	auipc	x1,0x0
    5384:	000080e7          	jalr	x1 # 5380 <.L1041+0x28>
    5388:	000004b7          	lui	x9,0x0
    538c:	0004a783          	lw	x15,0(x9) # 0 <_Z21hb_tiled_foreach_implIfZL26convolution_backward_inputP11hb_tensor_tS1_S1_P11hb_vector_tS3_EUlvE_JEEvjjT0_8HBTensorIT_Lln1EEPS7_.isra.0>
    5390:	00000437          	lui	x8,0x0
    5394:	00042a83          	lw	x21,0(x8) # 0 <_Z21hb_tiled_foreach_implIfZL26convolution_backward_inputP11hb_tensor_tS1_S1_P11hb_vector_tS3_EUlvE_JEEvjjT0_8HBTensorIT_Lln1EEPS7_.isra.0>
    5398:	01079593          	slli	x11,x15,0x10
    539c:	4100f6b7          	lui	x13,0x4100f
    53a0:	01558533          	add	x10,x11,x21
    53a4:	aca6ac23          	sw	x10,-1320(x13) # 4100ead8 <.L2120+0x410010fc>

000053a8 <.L950>:
    53a8:	0000006f          	j	53a8 <.L950>

000053ac <.L1043>:
    53ac:	000006b7          	lui	x13,0x0
    53b0:	00000537          	lui	x10,0x0
    53b4:	06f00613          	li	x12,111
    53b8:	00050593          	mv	x11,x10
    53bc:	00068513          	mv	x10,x13
    53c0:	00000097          	auipc	x1,0x0
    53c4:	000080e7          	jalr	x1 # 53c0 <.L1043+0x14>
    53c8:	0e012583          	lw	x11,224(x2)
    53cc:	00000cb7          	lui	x25,0x0
    53d0:	000c8513          	mv	x10,x25
    53d4:	00000097          	auipc	x1,0x0
    53d8:	000080e7          	jalr	x1 # 53d4 <.L1043+0x28>
    53dc:	00000bb7          	lui	x23,0x0
    53e0:	000ba603          	lw	x12,0(x23) # 0 <_Z21hb_tiled_foreach_implIfZL26convolution_backward_inputP11hb_tensor_tS1_S1_P11hb_vector_tS3_EUlvE_JEEvjjT0_8HBTensorIT_Lln1EEPS7_.isra.0>
    53e4:	00000737          	lui	x14,0x0
    53e8:	00072e03          	lw	x28,0(x14) # 0 <_Z21hb_tiled_foreach_implIfZL26convolution_backward_inputP11hb_tensor_tS1_S1_P11hb_vector_tS3_EUlvE_JEEvjjT0_8HBTensorIT_Lln1EEPS7_.isra.0>
    53ec:	01061813          	slli	x16,x12,0x10
    53f0:	4100f2b7          	lui	x5,0x4100f
    53f4:	01c80fb3          	add	x31,x16,x28
    53f8:	adf2ac23          	sw	x31,-1320(x5) # 4100ead8 <.L2120+0x410010fc>

000053fc <.L954>:
    53fc:	0000006f          	j	53fc <.L954>

00005400 <.L1044>:
    5400:	04000793          	li	x15,64
    5404:	ccfb16e3          	bne	x22,x15,50d0 <.L936>
    5408:	01000713          	li	x14,16
    540c:	cce812e3          	bne	x16,x14,50d0 <.L936>
    5410:	cd0b90e3          	bne	x23,x16,50d0 <.L936>
    5414:	02000693          	li	x13,32
    5418:	cadf1ce3          	bne	x30,x13,50d0 <.L936>
    541c:	cb7c1ae3          	bne	x24,x23,50d0 <.L936>
    5420:	cb8e98e3          	bne	x29,x24,50d0 <.L936>
    5424:	00300613          	li	x12,3
    5428:	cacc94e3          	bne	x25,x12,50d0 <.L936>
    542c:	cb9e12e3          	bne	x28,x25,50d0 <.L936>
    5430:	00100093          	li	x1,1
    5434:	c81d1ee3          	bne	x26,x1,50d0 <.L936>
    5438:	c9ad9ce3          	bne	x27,x26,50d0 <.L936>
    543c:	00100293          	li	x5,1
    5440:	c85a18e3          	bne	x20,x5,50d0 <.L936>
    5444:	c94996e3          	bne	x19,x20,50d0 <.L936>
    5448:	000005b7          	lui	x11,0x0
    544c:	00000537          	lui	x10,0x0
    5450:	00000337          	lui	x6,0x0
    5454:	00000fb7          	lui	x31,0x0
    5458:	0005aa83          	lw	x21,0(x11) # 0 <_Z21hb_tiled_foreach_implIfZL26convolution_backward_inputP11hb_tensor_tS1_S1_P11hb_vector_tS3_EUlvE_JEEvjjT0_8HBTensorIT_Lln1EEPS7_.isra.0>
    545c:	00052883          	lw	x17,0(x10) # 0 <_Z21hb_tiled_foreach_implIfZL26convolution_backward_inputP11hb_tensor_tS1_S1_P11hb_vector_tS3_EUlvE_JEEvjjT0_8HBTensorIT_Lln1EEPS7_.isra.0>
    5460:	00032383          	lw	x7,0(x6) # 0 <_Z21hb_tiled_foreach_implIfZL26convolution_backward_inputP11hb_tensor_tS1_S1_P11hb_vector_tS3_EUlvE_JEEvjjT0_8HBTensorIT_Lln1EEPS7_.isra.0>
    5464:	000fab03          	lw	x22,0(x31) # 0 <_Z21hb_tiled_foreach_implIfZL26convolution_backward_inputP11hb_tensor_tS1_S1_P11hb_vector_tS3_EUlvE_JEEvjjT0_8HBTensorIT_Lln1EEPS7_.isra.0>
    5468:	00000837          	lui	x16,0x0
    546c:	00082b83          	lw	x23,0(x16) # 0 <_Z21hb_tiled_foreach_implIfZL26convolution_backward_inputP11hb_tensor_tS1_S1_P11hb_vector_tS3_EUlvE_JEEvjjT0_8HBTensorIT_Lln1EEPS7_.isra.0>
    5470:	011a8f33          	add	x30,x21,x17
    5474:	01638c33          	add	x24,x7,x22
    5478:	018f1e93          	slli	x29,x30,0x18
    547c:	012c1c93          	slli	x25,x24,0x12
    5480:	3f000e37          	lui	x28,0x3f000
    5484:	00fc0db7          	lui	x27,0xfc0
    5488:	00040737          	lui	x14,0x40
    548c:	0104a483          	lw	x9,16(x9)
    5490:	01cefd33          	and	x26,x29,x28
    5494:	01bcfa33          	and	x20,x25,x27
    5498:	004b9993          	slli	x19,x23,0x4
    549c:	ff070693          	addi	x13,x14,-16 # 3fff0 <.L2120+0x32614>
    54a0:	014d67b3          	or	x15,x26,x20
    54a4:	00d9f633          	and	x12,x19,x13
    54a8:	00c7e0b3          	or	x1,x15,x12
    54ac:	800002b7          	lui	x5,0x80000
    54b0:	0050eab3          	or	x21,x1,x5
    54b4:	00912423          	sw	x9,8(x2)
    54b8:	410015b7          	lui	x11,0x41001
    54bc:	01092903          	lw	x18,16(x18)
    54c0:	01042403          	lw	x8,16(x8)
    54c4:	00000537          	lui	x10,0x0
    54c8:	d155a623          	sw	x21,-756(x11) # 41000d0c <.L2120+0x40ff3330>
    54cc:	00052883          	lw	x17,0(x10) # 0 <_Z21hb_tiled_foreach_implIfZL26convolution_backward_inputP11hb_tensor_tS1_S1_P11hb_vector_tS3_EUlvE_JEEvjjT0_8HBTensorIT_Lln1EEPS7_.isra.0>
    54d0:	01000313          	li	x6,16
    54d4:	0018f393          	andi	x7,x17,1
    54d8:	0018df93          	srli	x31,x17,0x1
    54dc:	00339813          	slli	x16,x7,0x3
    54e0:	03fffb13          	andi	x22,x31,63
    54e4:	00780f33          	add	x30,x16,x7
    54e8:	003b1b93          	slli	x23,x22,0x3
    54ec:	009f0e93          	addi	x29,x30,9 # 9 <_Z21hb_tiled_foreach_implIfZL26convolution_backward_inputP11hb_tensor_tS1_S1_P11hb_vector_tS3_EUlvE_JEEvjjT0_8HBTensorIT_Lln1EEPS7_.isra.0+0x9>
    54f0:	016b8c33          	add	x24,x23,x22
    54f4:	01e12e23          	sw	x30,28(x2)
    54f8:	03d12023          	sw	x29,32(x2)
    54fc:	005c1c93          	slli	x25,x24,0x5
    5500:	01d37663          	bgeu	x6,x29,550c <.L956>
    5504:	01000e13          	li	x28,16
    5508:	03c12023          	sw	x28,32(x2)

0000550c <.L956>:
    550c:	01c12a03          	lw	x20,28(x2)
    5510:	00812603          	lw	x12,8(x2)
    5514:	02012303          	lw	x6,32(x2)
    5518:	004b1d13          	slli	x26,x22,0x4
    551c:	016b8db3          	add	x27,x23,x22
    5520:	014d09b3          	add	x19,x26,x20
    5524:	007d9713          	slli	x14,x27,0x7
    5528:	07810693          	addi	x13,x2,120
    552c:	40c900b3          	sub	x1,x18,x12
    5530:	008b1793          	slli	x15,x22,0x8
    5534:	00699293          	slli	x5,x19,0x6
    5538:	40d70ab3          	sub	x21,x14,x13
    553c:	00499913          	slli	x18,x19,0x4
    5540:	40f004b3          	neg	x9,x15
    5544:	005085b3          	add	x11,x1,x5
    5548:	008a8433          	add	x8,x21,x8
    554c:	00860513          	addi	x10,x12,8 # 8 <_Z21hb_tiled_foreach_implIfZL26convolution_backward_inputP11hb_tensor_tS1_S1_P11hb_vector_tS3_EUlvE_JEEvjjT0_8HBTensorIT_Lln1EEPS7_.isra.0+0x8>
    5550:	009c8893          	addi	x17,x25,9 # 9 <_Z21hb_tiled_foreach_implIfZL26convolution_backward_inputP11hb_tensor_tS1_S1_P11hb_vector_tS3_EUlvE_JEEvjjT0_8HBTensorIT_Lln1EEPS7_.isra.0+0x9>
    5554:	fff30393          	addi	x7,x6,-1
    5558:	03212223          	sw	x18,36(x2)
    555c:	02912623          	sw	x9,44(x2)
    5560:	02b12a23          	sw	x11,52(x2)
    5564:	02812823          	sw	x8,48(x2)
    5568:	02012423          	sw	x0,40(x2)
    556c:	02a12c23          	sw	x10,56(x2)
    5570:	03112e23          	sw	x17,60(x2)
    5574:	00712623          	sw	x7,12(x2)
    5578:	00200e13          	li	x28,2

0000557c <.L978>:
    557c:	02812b03          	lw	x22,40(x2)
    5580:	03412803          	lw	x16,52(x2)
    5584:	03812f83          	lw	x31,56(x2)
    5588:	03012f03          	lw	x30,48(x2)
    558c:	010b0bb3          	add	x23,x22,x16
    5590:	02c12e83          	lw	x29,44(x2)
    5594:	01712823          	sw	x23,16(x2)
    5598:	03c12b83          	lw	x23,60(x2)
    559c:	016f8c33          	add	x24,x31,x22
    55a0:	01e12c23          	sw	x30,24(x2)
    55a4:	01d12a23          	sw	x29,20(x2)
    55a8:	00000b13          	li	x22,0
    55ac:	00f00093          	li	x1,15

000055b0 <.L961>:
    55b0:	01812703          	lw	x14,24(x2)
    55b4:	ff7b8a13          	addi	x20,x23,-9
    55b8:	07810993          	addi	x19,x2,120

000055bc <.L958>:
    55bc:	00098d93          	mv	x27,x19
    55c0:	00c98c93          	addi	x25,x19,12 # c <_Z21hb_tiled_foreach_implIfZL26convolution_backward_inputP11hb_tensor_tS1_S1_P11hb_vector_tS3_EUlvE_JEEvjjT0_8HBTensorIT_Lln1EEPS7_.isra.0+0xc>

000055c4 <.L957>:
    55c4:	01b70d33          	add	x26,x14,x27
    55c8:	000d2787          	flw	f15,0(x26)
    55cc:	004d8d93          	addi	x27,x27,4 # fc0004 <.L2120+0xfb2628>
    55d0:	fefdae27          	fsw	f15,-4(x27)
    55d4:	ff9d98e3          	bne	x27,x25,55c4 <.L957>
    55d8:	003a0a13          	addi	x20,x20,3
    55dc:	01498993          	addi	x19,x19,20
    55e0:	ff870713          	addi	x14,x14,-8
    55e4:	fd7a1ce3          	bne	x20,x23,55bc <.L958>
    55e8:	01c12783          	lw	x15,28(x2)
    55ec:	02012603          	lw	x12,32(x2)
    55f0:	1ac7f463          	bgeu	x15,x12,5798 <.L976>
    55f4:	01c12283          	lw	x5,28(x2)
    55f8:	01412683          	lw	x13,20(x2)
    55fc:	01012383          	lw	x7,16(x2)
    5600:	fff28313          	addi	x6,x5,-1 # 7fffffff <.L2120+0x7fff2623>
    5604:	02412283          	lw	x5,36(x2)
    5608:	ff068913          	addi	x18,x13,-16 # fffffff0 <.L2120+0xffff2614>
    560c:	003b0d13          	addi	x26,x22,3 # 3 <_Z21hb_tiled_foreach_implIfZL26convolution_backward_inputP11hb_tensor_tS1_S1_P11hb_vector_tS3_EUlvE_JEEvjjT0_8HBTensorIT_Lln1EEPS7_.isra.0+0x3>
    5610:	00300893          	li	x17,3

00005614 <.L977>:
    5614:	00030e93          	mv	x29,x6
    5618:	00590f33          	add	x30,x18,x5
    561c:	00130313          	addi	x6,x6,1
    5620:	00000713          	li	x14,0

00005624 <.L968>:
    5624:	00812583          	lw	x11,8(x2)
    5628:	002f1a93          	slli	x21,x30,0x2
    562c:	00271493          	slli	x9,x14,0x2
    5630:	00ba8cb3          	add	x25,x21,x11
    5634:	fff00613          	li	x12,-1
    5638:	00000793          	li	x15,0
    563c:	01d70fb3          	add	x31,x14,x29
    5640:	00e48db3          	add	x27,x9,x14

00005644 <.L966>:
    5644:	f0000053          	fmv.w.x	f0,x0
    5648:	03f0e463          	bltu	x1,x31,5670 <.L962>
    564c:	00fd8433          	add	x8,x27,x15
    5650:	00241513          	slli	x10,x8,0x2
    5654:	00261813          	slli	x16,x12,0x2
    5658:	14010a13          	addi	x20,x2,320
    565c:	fff00a93          	li	x21,-1
    5660:	00aa09b3          	add	x19,x20,x10
    5664:	019806b3          	add	x13,x16,x25
    5668:	37560063          	beq	x12,x21,59c8 <.L963>
    566c:	0006a007          	flw	f0,0(x13)

00005670 <.L962>:
    5670:	00fd84b3          	add	x9,x27,x15
    5674:	00249593          	slli	x11,x9,0x2
    5678:	14010413          	addi	x8,x2,320
    567c:	00b40533          	add	x10,x8,x11
    5680:	f8052e27          	fsw	f0,-100(x10)
    5684:	01c78663          	beq	x15,x28,5690 <.L1012>

00005688 <.L996>:
    5688:	00178793          	addi	x15,x15,1 # 1 <_Z21hb_tiled_foreach_implIfZL26convolution_backward_inputP11hb_tensor_tS1_S1_P11hb_vector_tS3_EUlvE_JEEvjjT0_8HBTensorIT_Lln1EEPS7_.isra.0+0x1>
    568c:	0080006f          	j	5694 <.L964>

00005690 <.L1012>:
    5690:	00000793          	li	x15,0

00005694 <.L964>:
    5694:	00160613          	addi	x12,x12,1
    5698:	fbc616e3          	bne	x12,x28,5644 <.L966>
    569c:	00170713          	addi	x14,x14,1
    56a0:	010f0f13          	addi	x30,x30,16
    56a4:	f91710e3          	bne	x14,x17,5624 <.L968>
    56a8:	000c0d93          	mv	x27,x24
    56ac:	00000413          	li	x8,0
    56b0:	00000593          	li	x11,0
    56b4:	ff838a13          	addi	x20,x7,-8 # fffffff8 <.L2120+0xffff261c>
    56b8:	003e8993          	addi	x19,x29,3

000056bc <.L967>:
    56bc:	01ba04b3          	add	x9,x20,x27
    56c0:	0004a087          	flw	f1,0(x9)
    56c4:	07810f13          	addi	x30,x2,120
    56c8:	00000793          	li	x15,0

000056cc <.L974>:
    56cc:	00279c93          	slli	x25,x15,0x2
    56d0:	00fb0833          	add	x16,x22,x15
    56d4:	000f0f93          	mv	x31,x30
    56d8:	00040693          	mv	x13,x8
    56dc:	00fc8533          	add	x10,x25,x15
    56e0:	00fd0ab3          	add	x21,x26,x15

000056e4 <.L973>:
    56e4:	00d50633          	add	x12,x10,x13
    56e8:	00261713          	slli	x14,x12,0x2
    56ec:	14010c93          	addi	x25,x2,320
    56f0:	00ec8633          	add	x12,x25,x14
    56f4:	00081463          	bnez	x16,56fc <.L971>
    56f8:	f00000d3          	fmv.w.x	f1,x0

000056fc <.L971>:
    56fc:	000fa707          	flw	f14,0(x31)
    5700:	f9c62687          	flw	f13,-100(x12)
    5704:	08e6f0c3          	fmadd.s	f1,f13,f14,f1
    5708:	2dc68a63          	beq	x13,x28,59dc <.L1017>
    570c:	00168693          	addi	x13,x13,1

00005710 <.L972>:
    5710:	00180813          	addi	x16,x16,1
    5714:	004f8f93          	addi	x31,x31,4
    5718:	fd5816e3          	bne	x16,x21,56e4 <.L973>
    571c:	00178793          	addi	x15,x15,1
    5720:	014f0f13          	addi	x30,x30,20
    5724:	fb1794e3          	bne	x15,x17,56cc <.L974>
    5728:	0014a027          	fsw	f1,0(x9)
    572c:	01000413          	li	x8,16
    5730:	00158493          	addi	x9,x11,1
    5734:	04848a63          	beq	x9,x8,5788 <.L1045>
    5738:	0315f533          	remu	x10,x11,x17
    573c:	0dc10c93          	addi	x25,x2,220
    5740:	000e8713          	mv	x14,x29
    5744:	0314f433          	remu	x8,x9,x17
    5748:	00251a93          	slli	x21,x10,0x2
    574c:	015c8fb3          	add	x31,x25,x21

00005750 <.L970>:
    5750:	f0000153          	fmv.w.x	f2,x0
    5754:	00e0ec63          	bltu	x1,x14,576c <.L969>
    5758:	00671613          	slli	x12,x14,0x6
    575c:	00e00813          	li	x16,14
    5760:	01b606b3          	add	x13,x12,x27
    5764:	01058463          	beq	x11,x16,576c <.L969>
    5768:	0006a107          	flw	f2,0(x13)

0000576c <.L969>:
    576c:	00170713          	addi	x14,x14,1
    5770:	002fa027          	fsw	f2,0(x31)
    5774:	014f8f93          	addi	x31,x31,20
    5778:	fce99ce3          	bne	x19,x14,5750 <.L970>
    577c:	004d8d93          	addi	x27,x27,4
    5780:	00048593          	mv	x11,x9
    5784:	f39ff06f          	j	56bc <.L967>

00005788 <.L1045>:
    5788:	00c12e83          	lw	x29,12(x2)
    578c:	01028293          	addi	x5,x5,16
    5790:	04038393          	addi	x7,x7,64
    5794:	e86e90e3          	bne	x29,x6,5614 <.L977>

00005798 <.L976>:
    5798:	01012d03          	lw	x26,16(x2)
    579c:	01412303          	lw	x6,20(x2)
    57a0:	01812583          	lw	x11,24(x2)
    57a4:	c00d0893          	addi	x17,x26,-1024
    57a8:	10030d93          	addi	x27,x6,256
    57ac:	02458a13          	addi	x20,x11,36
    57b0:	001b0b13          	addi	x22,x22,1
    57b4:	02000913          	li	x18,32
    57b8:	01112823          	sw	x17,16(x2)
    57bc:	01b12a23          	sw	x27,20(x2)
    57c0:	01412c23          	sw	x20,24(x2)
    57c4:	400c0c13          	addi	x24,x24,1024 # 400 <.L112+0xc>
    57c8:	009b8b93          	addi	x23,x23,9
    57cc:	df2b12e3          	bne	x22,x18,55b0 <.L961>
    57d0:	02812983          	lw	x19,40(x2)
    57d4:	02412403          	lw	x8,36(x2)
    57d8:	02c12c83          	lw	x25,44(x2)
    57dc:	000080b7          	lui	x1,0x8
    57e0:	000044b7          	lui	x9,0x4
    57e4:	ffffeab7          	lui	x21,0xffffe
    57e8:	00198f33          	add	x30,x19,x1
    57ec:	00940533          	add	x10,x8,x9
    57f0:	015c8633          	add	x12,x25,x21
    57f4:	03e12423          	sw	x30,40(x2)
    57f8:	000407b7          	lui	x15,0x40
    57fc:	02a12223          	sw	x10,36(x2)
    5800:	02c12623          	sw	x12,44(x2)
    5804:	d6ff1ce3          	bne	x30,x15,557c <.L978>
    5808:	000003b7          	lui	x7,0x0
    580c:	00000837          	lui	x16,0x0
    5810:	00000e37          	lui	x28,0x0
    5814:	000006b7          	lui	x13,0x0
    5818:	000e2703          	lw	x14,0(x28) # 0 <_Z21hb_tiled_foreach_implIfZL26convolution_backward_inputP11hb_tensor_tS1_S1_P11hb_vector_tS3_EUlvE_JEEvjjT0_8HBTensorIT_Lln1EEPS7_.isra.0>
    581c:	00082f83          	lw	x31,0(x16) # 0 <_Z21hb_tiled_foreach_implIfZL26convolution_backward_inputP11hb_tensor_tS1_S1_P11hb_vector_tS3_EUlvE_JEEvjjT0_8HBTensorIT_Lln1EEPS7_.isra.0>
    5820:	0006a283          	lw	x5,0(x13) # 0 <_Z21hb_tiled_foreach_implIfZL26convolution_backward_inputP11hb_tensor_tS1_S1_P11hb_vector_tS3_EUlvE_JEEvjjT0_8HBTensorIT_Lln1EEPS7_.isra.0>
    5824:	0003ae83          	lw	x29,0(x7) # 0 <_Z21hb_tiled_foreach_implIfZL26convolution_backward_inputP11hb_tensor_tS1_S1_P11hb_vector_tS3_EUlvE_JEEvjjT0_8HBTensorIT_Lln1EEPS7_.isra.0>
    5828:	00000b37          	lui	x22,0x0
    582c:	000b2903          	lw	x18,0(x22) # 0 <_Z21hb_tiled_foreach_implIfZL26convolution_backward_inputP11hb_tensor_tS1_S1_P11hb_vector_tS3_EUlvE_JEEvjjT0_8HBTensorIT_Lln1EEPS7_.isra.0>
    5830:	02812983          	lw	x19,40(x2)
    5834:	01f70c33          	add	x24,x14,x31
    5838:	01d28d33          	add	x26,x5,x29
    583c:	018c1893          	slli	x17,x24,0x18
    5840:	012d1313          	slli	x6,x26,0x12
    5844:	3f000db7          	lui	x27,0x3f000
    5848:	00fc05b7          	lui	x11,0xfc0
    584c:	00491093          	slli	x1,x18,0x4
    5850:	01b8fbb3          	and	x23,x17,x27
    5854:	00b37a33          	and	x20,x6,x11
    5858:	ff098f13          	addi	x30,x19,-16
    585c:	014be4b3          	or	x9,x23,x20
    5860:	01e0f7b3          	and	x15,x1,x30
    5864:	c0000537          	lui	x10,0xc0000
    5868:	00f4e433          	or	x8,x9,x15
    586c:	00a46ab3          	or	x21,x8,x10
    5870:	41001cb7          	lui	x25,0x41001
    5874:	d15ca623          	sw	x21,-756(x25) # 41000d0c <.L2120+0x40ff3330>
    5878:	0003ae03          	lw	x28,0(x7)
    587c:	00082703          	lw	x14,0(x16)
    5880:	00000537          	lui	x10,0x0
    5884:	004e0813          	addi	x16,x28,4
    5888:	00050693          	mv	x13,x10
    588c:	01068fb3          	add	x31,x13,x16
    5890:	01871293          	slli	x5,x14,0x18
    5894:	00038613          	mv	x12,x7
    5898:	201c0eb7          	lui	x29,0x201c0
    589c:	005fe3b3          	or	x7,x31,x5
    58a0:	01d3eb33          	or	x22,x7,x29
    58a4:	00100913          	li	x18,1
    58a8:	012b0023          	sb	x18,0(x22)
    58ac:	00062c03          	lw	x24,0(x12)
    58b0:	00700d13          	li	x26,7
    58b4:	03ac0863          	beq	x24,x26,58e4 <.L1046>

000058b8 <.L980>:
    58b8:	00100493          	li	x9,1
    58bc:	0100006f          	j	58cc <.L993>

000058c0 <.L1047>:
    58c0:	00050a93          	mv	x21,x10
    58c4:	140aa5af          	lr.w.aq	x11,(x21)
    58c8:	00958863          	beq	x11,x9,58d8 <.L992>

000058cc <.L993>:
    58cc:	00050793          	mv	x15,x10
    58d0:	1007a42f          	lr.w	x8,(x15)
    58d4:	fe9416e3          	bne	x8,x9,58c0 <.L1047>

000058d8 <.L992>:
    58d8:	0006a023          	sw	x0,0(x13)
    58dc:	00000513          	li	x10,0
    58e0:	ff0ff06f          	j	50d0 <.L936>

000058e4 <.L1046>:
    58e4:	000008b7          	lui	x17,0x0
    58e8:	00000db7          	lui	x27,0x0
    58ec:	00488313          	addi	x6,x17,4 # 4 <_Z21hb_tiled_foreach_implIfZL26convolution_backward_inputP11hb_tensor_tS1_S1_P11hb_vector_tS3_EUlvE_JEEvjjT0_8HBTensorIT_Lln1EEPS7_.isra.0+0x4>
    58f0:	014d8b93          	addi	x23,x27,20 # 14 <.L8>

000058f4 <.L979>:
    58f4:	00030a13          	mv	x20,x6

000058f8 <.L982>:
    58f8:	000a4583          	lbu	x11,0(x20)
    58fc:	001a0a13          	addi	x20,x20,1
    5900:	0ff5f093          	andi	x1,x11,255
    5904:	fe0088e3          	beqz	x1,58f4 <.L979>
    5908:	ff4b98e3          	bne	x23,x20,58f8 <.L982>
    590c:	000009b7          	lui	x19,0x0
    5910:	0009af03          	lw	x30,0(x19) # 0 <_Z21hb_tiled_foreach_implIfZL26convolution_backward_inputP11hb_tensor_tS1_S1_P11hb_vector_tS3_EUlvE_JEEvjjT0_8HBTensorIT_Lln1EEPS7_.isra.0>
    5914:	231c0437          	lui	x8,0x231c0
    5918:	00100c93          	li	x25,1
    591c:	018f0493          	addi	x9,x30,24
    5920:	009687b3          	add	x15,x13,x9
    5924:	0087eab3          	or	x21,x15,x8
    5928:	019a8023          	sb	x25,0(x21) # ffffe000 <.L2120+0xffff0624>
    592c:	00000637          	lui	x12,0x0
    5930:	00062703          	lw	x14,0(x12) # 0 <_Z21hb_tiled_foreach_implIfZL26convolution_backward_inputP11hb_tensor_tS1_S1_P11hb_vector_tS3_EUlvE_JEEvjjT0_8HBTensorIT_Lln1EEPS7_.isra.0>
    5934:	00700e13          	li	x28,7
    5938:	f9c710e3          	bne	x14,x28,58b8 <.L980>
    593c:	00000837          	lui	x16,0x0
    5940:	00082f83          	lw	x31,0(x16) # 0 <_Z21hb_tiled_foreach_implIfZL26convolution_backward_inputP11hb_tensor_tS1_S1_P11hb_vector_tS3_EUlvE_JEEvjjT0_8HBTensorIT_Lln1EEPS7_.isra.0>
    5944:	00300293          	li	x5,3
    5948:	085f8e63          	beq	x31,x5,59e4 <.L1048>

0000594c <.L988>:
    594c:	00100613          	li	x12,1
    5950:	0100006f          	j	5960 <.L984>

00005954 <.L1049>:
    5954:	01468813          	addi	x16,x13,20
    5958:	14082faf          	lr.w.aq	x31,(x16)
    595c:	00cf8863          	beq	x31,x12,596c <.L989>

00005960 <.L984>:
    5960:	01468713          	addi	x14,x13,20
    5964:	10072e2f          	lr.w	x28,(x14)
    5968:	fece16e3          	bne	x28,x12,5954 <.L1049>

0000596c <.L989>:
    596c:	0006aa23          	sw	x0,20(x13)
    5970:	00000e93          	li	x29,0
    5974:	01000293          	li	x5,16

00005978 <.L990>:
    5978:	01d683b3          	add	x7,x13,x29
    597c:	00038223          	sb	x0,4(x7)
    5980:	001e8e93          	addi	x29,x29,1 # 201c0001 <.L2120+0x201b2625>
    5984:	fe5e9ae3          	bne	x29,x5,5978 <.L990>
    5988:	0006a023          	sw	x0,0(x13)
    598c:	00000313          	li	x6,0
    5990:	20000b37          	lui	x22,0x20000
    5994:	00100913          	li	x18,1
    5998:	00040c37          	lui	x24,0x40
    599c:	00400d37          	lui	x26,0x400

000059a0 <.L991>:
    59a0:	000008b7          	lui	x17,0x0
    59a4:	0008ad83          	lw	x27,0(x17) # 0 <_Z21hb_tiled_foreach_implIfZL26convolution_backward_inputP11hb_tensor_tS1_S1_P11hb_vector_tS3_EUlvE_JEEvjjT0_8HBTensorIT_Lln1EEPS7_.isra.0>
    59a8:	0066ea33          	or	x20,x13,x6
    59ac:	01830333          	add	x6,x6,x24
    59b0:	018d9093          	slli	x1,x27,0x18
    59b4:	0140e9b3          	or	x19,x1,x20
    59b8:	0169ef33          	or	x30,x19,x22
    59bc:	012f2023          	sw	x18,0(x30)
    59c0:	ffa310e3          	bne	x6,x26,59a0 <.L991>
    59c4:	ef5ff06f          	j	58b8 <.L980>

000059c8 <.L963>:
    59c8:	f809ae23          	sw	x0,-100(x19)
    59cc:	cbc79ee3          	bne	x15,x28,5688 <.L996>
    59d0:	00000793          	li	x15,0
    59d4:	00000613          	li	x12,0
    59d8:	c6dff06f          	j	5644 <.L966>

000059dc <.L1017>:
    59dc:	00000693          	li	x13,0
    59e0:	d31ff06f          	j	5710 <.L972>

000059e4 <.L1048>:
    59e4:	000003b7          	lui	x7,0x0
    59e8:	00000b37          	lui	x22,0x0
    59ec:	01838e93          	addi	x29,x7,24 # 18 <.L8+0x4>
    59f0:	020b0913          	addi	x18,x22,32 # 20 <.L8+0xc>

000059f4 <.L983>:
    59f4:	000e8d13          	mv	x26,x29

000059f8 <.L985>:
    59f8:	000d4c03          	lbu	x24,0(x26) # 400000 <.L2120+0x3f2624>
    59fc:	001d0d13          	addi	x26,x26,1
    5a00:	0ffc7893          	andi	x17,x24,255
    5a04:	fe0888e3          	beqz	x17,59f4 <.L983>
    5a08:	ffa918e3          	bne	x18,x26,59f8 <.L985>
    5a0c:	00068c23          	sb	x0,24(x13)
    5a10:	00068ca3          	sb	x0,25(x13)
    5a14:	00068d23          	sb	x0,26(x13)
    5a18:	00068da3          	sb	x0,27(x13)
    5a1c:	00068e23          	sb	x0,28(x13)
    5a20:	00068ea3          	sb	x0,29(x13)
    5a24:	00068f23          	sb	x0,30(x13)
    5a28:	00068fa3          	sb	x0,31(x13)
    5a2c:	0006aa23          	sw	x0,20(x13)
    5a30:	00000593          	li	x11,0
    5a34:	03fc0db7          	lui	x27,0x3fc0
    5a38:	20000a37          	lui	x20,0x20000
    5a3c:	00100313          	li	x6,1
    5a40:	010000b7          	lui	x1,0x1000
    5a44:	080009b7          	lui	x19,0x8000

00005a48 <.L987>:
    5a48:	01271f13          	slli	x30,x14,0x12
    5a4c:	00bbe4b3          	or	x9,x23,x11
    5a50:	01bf77b3          	and	x15,x30,x27
    5a54:	0097e433          	or	x8,x15,x9
    5a58:	01446ab3          	or	x21,x8,x20
    5a5c:	006aa023          	sw	x6,0(x21)
    5a60:	00000cb7          	lui	x25,0x0
    5a64:	001585b3          	add	x11,x11,x1
    5a68:	000ca703          	lw	x14,0(x25) # 0 <_Z21hb_tiled_foreach_implIfZL26convolution_backward_inputP11hb_tensor_tS1_S1_P11hb_vector_tS3_EUlvE_JEEvjjT0_8HBTensorIT_Lln1EEPS7_.isra.0>
    5a6c:	fd359ee3          	bne	x11,x19,5a48 <.L987>
    5a70:	00700b93          	li	x23,7
    5a74:	ed770ce3          	beq	x14,x23,594c <.L988>
    5a78:	e41ff06f          	j	58b8 <.L980>

00005a7c <tensorlib_convolution_forward>:
    5a7c:	fe010113          	addi	x2,x2,-32
    5a80:	00812c23          	sw	x8,24(x2)
    5a84:	00912a23          	sw	x9,20(x2)
    5a88:	01212823          	sw	x18,16(x2)
    5a8c:	01312623          	sw	x19,12(x2)
    5a90:	01412423          	sw	x20,8(x2)
    5a94:	00112e23          	sw	x1,28(x2)
    5a98:	00050a13          	mv	x20,x10
    5a9c:	00058993          	mv	x19,x11
    5aa0:	00060913          	mv	x18,x12
    5aa4:	00068493          	mv	x9,x13
    5aa8:	00070413          	mv	x8,x14
    5aac:	00000097          	auipc	x1,0x0
    5ab0:	000080e7          	jalr	x1 # 5aac <tensorlib_convolution_forward+0x30>
    5ab4:	02051463          	bnez	x10,5adc <.L1073>

00005ab8 <.L1052>:
    5ab8:	01c12083          	lw	x1,28(x2)
    5abc:	01812403          	lw	x8,24(x2)
    5ac0:	01412483          	lw	x9,20(x2)
    5ac4:	01012903          	lw	x18,16(x2)
    5ac8:	00c12983          	lw	x19,12(x2)
    5acc:	00812a03          	lw	x20,8(x2)
    5ad0:	00000513          	li	x10,0
    5ad4:	02010113          	addi	x2,x2,32
    5ad8:	00008067          	ret

00005adc <.L1073>:
    5adc:	00040713          	mv	x14,x8
    5ae0:	00048693          	mv	x13,x9
    5ae4:	00090613          	mv	x12,x18
    5ae8:	00098593          	mv	x11,x19
    5aec:	000a0513          	mv	x10,x20
    5af0:	00000097          	auipc	x1,0x0
    5af4:	000080e7          	jalr	x1 # 5af0 <.L1073+0x14>
    5af8:	fc0500e3          	beqz	x10,5ab8 <.L1052>
    5afc:	00040713          	mv	x14,x8
    5b00:	00048693          	mv	x13,x9
    5b04:	00090613          	mv	x12,x18
    5b08:	00098593          	mv	x11,x19
    5b0c:	000a0513          	mv	x10,x20
    5b10:	00000097          	auipc	x1,0x0
    5b14:	000080e7          	jalr	x1 # 5b10 <.L1073+0x34>
    5b18:	fa0500e3          	beqz	x10,5ab8 <.L1052>
    5b1c:	00040713          	mv	x14,x8
    5b20:	00048693          	mv	x13,x9
    5b24:	00090613          	mv	x12,x18
    5b28:	00098593          	mv	x11,x19
    5b2c:	000a0513          	mv	x10,x20
    5b30:	00000097          	auipc	x1,0x0
    5b34:	000080e7          	jalr	x1 # 5b30 <.L1073+0x54>
    5b38:	f80500e3          	beqz	x10,5ab8 <.L1052>
    5b3c:	00040713          	mv	x14,x8
    5b40:	00048693          	mv	x13,x9
    5b44:	00090613          	mv	x12,x18
    5b48:	00098593          	mv	x11,x19
    5b4c:	000a0513          	mv	x10,x20
    5b50:	00000097          	auipc	x1,0x0
    5b54:	000080e7          	jalr	x1 # 5b50 <.L1073+0x74>
    5b58:	f60500e3          	beqz	x10,5ab8 <.L1052>
    5b5c:	00040713          	mv	x14,x8
    5b60:	00048693          	mv	x13,x9
    5b64:	00090613          	mv	x12,x18
    5b68:	00098593          	mv	x11,x19
    5b6c:	000a0513          	mv	x10,x20
    5b70:	00000097          	auipc	x1,0x0
    5b74:	000080e7          	jalr	x1 # 5b70 <.L1073+0x94>
    5b78:	f40500e3          	beqz	x10,5ab8 <.L1052>
    5b7c:	00040713          	mv	x14,x8
    5b80:	00048693          	mv	x13,x9
    5b84:	00090613          	mv	x12,x18
    5b88:	00098593          	mv	x11,x19
    5b8c:	000a0513          	mv	x10,x20
    5b90:	00000097          	auipc	x1,0x0
    5b94:	000080e7          	jalr	x1 # 5b90 <.L1073+0xb4>
    5b98:	f20500e3          	beqz	x10,5ab8 <.L1052>
    5b9c:	00440713          	addi	x14,x8,4 # 231c0004 <.L2120+0x231b2628>
    5ba0:	01812403          	lw	x8,24(x2)
    5ba4:	01c12083          	lw	x1,28(x2)
    5ba8:	00448693          	addi	x13,x9,4 # 4004 <.L729+0x30>
    5bac:	00090613          	mv	x12,x18
    5bb0:	01412483          	lw	x9,20(x2)
    5bb4:	01012903          	lw	x18,16(x2)
    5bb8:	00098593          	mv	x11,x19
    5bbc:	000a0513          	mv	x10,x20
    5bc0:	00c12983          	lw	x19,12(x2)
    5bc4:	00812a03          	lw	x20,8(x2)
    5bc8:	02010113          	addi	x2,x2,32
    5bcc:	00000317          	auipc	x6,0x0
    5bd0:	00030067          	jr	x6 # 5bcc <.L1073+0xf0>

00005bd4 <tensorlib_convolution_backward_bias>:
    5bd4:	f5010113          	addi	x2,x2,-176
    5bd8:	00050793          	mv	x15,x10
    5bdc:	0a812423          	sw	x8,168(x2)
    5be0:	00810513          	addi	x10,x2,8
    5be4:	00058413          	mv	x8,x11
    5be8:	00078593          	mv	x11,x15
    5bec:	0a112623          	sw	x1,172(x2)
    5bf0:	0a912223          	sw	x9,164(x2)
    5bf4:	0b212023          	sw	x18,160(x2)
    5bf8:	09312e23          	sw	x19,156(x2)
    5bfc:	09412c23          	sw	x20,152(x2)
    5c00:	09512a23          	sw	x21,148(x2)
    5c04:	09612823          	sw	x22,144(x2)
    5c08:	09712623          	sw	x23,140(x2)
    5c0c:	09812423          	sw	x24,136(x2)
    5c10:	09912223          	sw	x25,132(x2)
    5c14:	09a12023          	sw	x26,128(x2)
    5c18:	00000097          	auipc	x1,0x0
    5c1c:	000080e7          	jalr	x1 # 5c18 <tensorlib_convolution_backward_bias+0x44>
    5c20:	00040593          	mv	x11,x8
    5c24:	04410513          	addi	x10,x2,68
    5c28:	00000097          	auipc	x1,0x0
    5c2c:	000080e7          	jalr	x1 # 5c28 <tensorlib_convolution_backward_bias+0x54>
    5c30:	04812283          	lw	x5,72(x2)
    5c34:	2e028263          	beqz	x5,5f18 <.L1183>
    5c38:	00100713          	li	x14,1
    5c3c:	28577463          	bgeu	x14,x5,5ec4 <.L1184>
    5c40:	00200093          	li	x1,2
    5c44:	32128463          	beq	x5,x1,5f6c <.L1185>
    5c48:	00300313          	li	x6,3
    5c4c:	36628a63          	beq	x5,x6,5fc0 <.L1186>
    5c50:	00000f37          	lui	x30,0x0
    5c54:	000004b7          	lui	x9,0x0
    5c58:	00000eb7          	lui	x29,0x0
    5c5c:	00000937          	lui	x18,0x0
    5c60:	000f2383          	lw	x7,0(x30) # 0 <_Z21hb_tiled_foreach_implIfZL26convolution_backward_inputP11hb_tensor_tS1_S1_P11hb_vector_tS3_EUlvE_JEEvjjT0_8HBTensorIT_Lln1EEPS7_.isra.0>
    5c64:	0004a503          	lw	x10,0(x9) # 0 <_Z21hb_tiled_foreach_implIfZL26convolution_backward_inputP11hb_tensor_tS1_S1_P11hb_vector_tS3_EUlvE_JEEvjjT0_8HBTensorIT_Lln1EEPS7_.isra.0>
    5c68:	000ea803          	lw	x16,0(x29) # 0 <_Z21hb_tiled_foreach_implIfZL26convolution_backward_inputP11hb_tensor_tS1_S1_P11hb_vector_tS3_EUlvE_JEEvjjT0_8HBTensorIT_Lln1EEPS7_.isra.0>
    5c6c:	00092583          	lw	x11,0(x18) # 0 <_Z21hb_tiled_foreach_implIfZL26convolution_backward_inputP11hb_tensor_tS1_S1_P11hb_vector_tS3_EUlvE_JEEvjjT0_8HBTensorIT_Lln1EEPS7_.isra.0>
    5c70:	00000fb7          	lui	x31,0x0
    5c74:	000fa683          	lw	x13,0(x31) # 0 <_Z21hb_tiled_foreach_implIfZL26convolution_backward_inputP11hb_tensor_tS1_S1_P11hb_vector_tS3_EUlvE_JEEvjjT0_8HBTensorIT_Lln1EEPS7_.isra.0>
    5c78:	05012603          	lw	x12,80(x2)
    5c7c:	00b809b3          	add	x19,x16,x11
    5c80:	00a388b3          	add	x17,x7,x10
    5c84:	01299a93          	slli	x21,x19,0x12
    5c88:	01889a13          	slli	x20,x17,0x18
    5c8c:	3f000b37          	lui	x22,0x3f000
    5c90:	00fc0c37          	lui	x24,0xfc0
    5c94:	00040437          	lui	x8,0x40
    5c98:	00469d13          	slli	x26,x13,0x4
    5c9c:	016a7bb3          	and	x23,x20,x22
    5ca0:	018afcb3          	and	x25,x21,x24
    5ca4:	ff040293          	addi	x5,x8,-16 # 3fff0 <.L2120+0x32614>
    5ca8:	00462e03          	lw	x28,4(x12)
    5cac:	019be7b3          	or	x15,x23,x25
    5cb0:	005d7733          	and	x14,x26,x5
    5cb4:	00e7e0b3          	or	x1,x15,x14
    5cb8:	80000337          	lui	x6,0x80000
    5cbc:	0060e533          	or	x10,x1,x6
    5cc0:	410015b7          	lui	x11,0x41001
    5cc4:	00062983          	lw	x19,0(x12)
    5cc8:	00862383          	lw	x7,8(x12)
    5ccc:	00c62083          	lw	x1,12(x12)
    5cd0:	fffe0813          	addi	x16,x28,-1
    5cd4:	d0a5a623          	sw	x10,-756(x11) # 41000d0c <.L2120+0x40ff3330>
    5cd8:	ffd00693          	li	x13,-3
    5cdc:	0f06e863          	bltu	x13,x16,5dcc <.L1133>
    5ce0:	00000637          	lui	x12,0x0
    5ce4:	00062a03          	lw	x20,0(x12) # 0 <_Z21hb_tiled_foreach_implIfZL26convolution_backward_inputP11hb_tensor_tS1_S1_P11hb_vector_tS3_EUlvE_JEEvjjT0_8HBTensorIT_Lln1EEPS7_.isra.0>
    5ce8:	007e5893          	srli	x17,x28,0x7
    5cec:	00188a93          	addi	x21,x17,1
    5cf0:	07fa7b13          	andi	x22,x20,127
    5cf4:	035b0433          	mul	x8,x22,x21
    5cf8:	008a8333          	add	x6,x21,x8
    5cfc:	306e6c63          	bltu	x28,x6,6014 <.L1187>
    5d00:	0c647663          	bgeu	x8,x6,5dcc <.L1133>

00005d04 <.L1192>:
    5d04:	00812283          	lw	x5,8(x2)
    5d08:	00c12883          	lw	x17,12(x2)
    5d0c:	01812a83          	lw	x21,24(x2)
    5d10:	01012c03          	lw	x24,16(x2)
    5d14:	04c12603          	lw	x12,76(x2)
    5d18:	05412b83          	lw	x23,84(x2)
    5d1c:	00100a13          	li	x20,1

00005d20 <.L1135>:
    5d20:	00241c93          	slli	x25,x8,0x2
    5d24:	019a85b3          	add	x11,x21,x25
    5d28:	00000813          	li	x16,0
    5d2c:	08098c63          	beqz	x19,5dc4 <.L1137>

00005d30 <.L1138>:
    5d30:	00000513          	li	x10,0
    5d34:	08038463          	beqz	x7,5dbc <.L1140>

00005d38 <.L1136>:
    5d38:	00a80e33          	add	x28,x16,x10
    5d3c:	00000713          	li	x14,0
    5d40:	06008a63          	beqz	x1,5db4 <.L1148>

00005d44 <.L1149>:
    5d44:	00ee0d33          	add	x26,x28,x14
    5d48:	440d0463          	beqz	x26,6190 <.L1188>
    5d4c:	46547863          	bgeu	x8,x5,61bc <.L1189>

00005d50 <.L1145>:
    5d50:	00058693          	mv	x13,x11
    5d54:	01489a63          	bne	x17,x20,5d68 <.L1147>
    5d58:	000c2783          	lw	x15,0(x24) # fc0000 <.L2120+0xfb2624>
    5d5c:	02f406b3          	mul	x13,x8,x15
    5d60:	00269b13          	slli	x22,x13,0x2
    5d64:	016a86b3          	add	x13,x21,x22

00005d68 <.L1147>:
    5d68:	00062c83          	lw	x25,0(x12)
    5d6c:	00462783          	lw	x15,4(x12)
    5d70:	00862d03          	lw	x26,8(x12)
    5d74:	03980b33          	mul	x22,x16,x25
    5d78:	0006a787          	flw	f15,0(x13)
    5d7c:	02f40cb3          	mul	x25,x8,x15
    5d80:	019b07b3          	add	x15,x22,x25
    5d84:	00c62b03          	lw	x22,12(x12)
    5d88:	03a50d33          	mul	x26,x10,x26
    5d8c:	03670cb3          	mul	x25,x14,x22
    5d90:	01a78d33          	add	x26,x15,x26
    5d94:	00170713          	addi	x14,x14,1
    5d98:	019d07b3          	add	x15,x26,x25
    5d9c:	00279b13          	slli	x22,x15,0x2
    5da0:	016b8cb3          	add	x25,x23,x22
    5da4:	000ca707          	flw	f14,0(x25)
    5da8:	00e7f053          	fadd.s	f0,f15,f14
    5dac:	0006a027          	fsw	f0,0(x13)
    5db0:	f8e09ae3          	bne	x1,x14,5d44 <.L1149>

00005db4 <.L1148>:
    5db4:	00150513          	addi	x10,x10,1 # 1 <_Z21hb_tiled_foreach_implIfZL26convolution_backward_inputP11hb_tensor_tS1_S1_P11hb_vector_tS3_EUlvE_JEEvjjT0_8HBTensorIT_Lln1EEPS7_.isra.0+0x1>
    5db8:	f8a390e3          	bne	x7,x10,5d38 <.L1136>

00005dbc <.L1140>:
    5dbc:	00180813          	addi	x16,x16,1
    5dc0:	f70998e3          	bne	x19,x16,5d30 <.L1138>

00005dc4 <.L1137>:
    5dc4:	00140413          	addi	x8,x8,1
    5dc8:	f4831ce3          	bne	x6,x8,5d20 <.L1135>

00005dcc <.L1133>:
    5dcc:	000f2083          	lw	x1,0(x30)
    5dd0:	000eab83          	lw	x23,0(x29)
    5dd4:	0004ac03          	lw	x24,0(x9)
    5dd8:	00092603          	lw	x12,0(x18)
    5ddc:	000faa03          	lw	x20,0(x31)
    5de0:	018085b3          	add	x11,x1,x24
    5de4:	00cb8e33          	add	x28,x23,x12
    5de8:	01859f13          	slli	x30,x11,0x18
    5dec:	012e1e93          	slli	x29,x28,0x12
    5df0:	00fc06b7          	lui	x13,0xfc0
    5df4:	3f000fb7          	lui	x31,0x3f000
    5df8:	00040cb7          	lui	x25,0x40
    5dfc:	00def733          	and	x14,x29,x13
    5e00:	01ff7d33          	and	x26,x30,x31
    5e04:	004a1b13          	slli	x22,x20,0x4
    5e08:	ff0c8993          	addi	x19,x25,-16 # 3fff0 <.L2120+0x32614>
    5e0c:	00ed67b3          	or	x15,x26,x14
    5e10:	013b73b3          	and	x7,x22,x19
    5e14:	0077e333          	or	x6,x15,x7
    5e18:	c00002b7          	lui	x5,0xc0000
    5e1c:	005368b3          	or	x17,x6,x5
    5e20:	41001ab7          	lui	x21,0x41001
    5e24:	d11aa623          	sw	x17,-756(x21) # 41000d0c <.L2120+0x40ff3330>
    5e28:	00092503          	lw	x10,0(x18)
    5e2c:	0004a803          	lw	x16,0(x9)
    5e30:	000005b7          	lui	x11,0x0
    5e34:	00450413          	addi	x8,x10,4
    5e38:	00058693          	mv	x13,x11
    5e3c:	008680b3          	add	x1,x13,x8
    5e40:	01881c13          	slli	x24,x16,0x18
    5e44:	0180ebb3          	or	x23,x1,x24
    5e48:	201c0637          	lui	x12,0x201c0
    5e4c:	00cbea33          	or	x20,x23,x12
    5e50:	00100e13          	li	x28,1
    5e54:	01ca0023          	sb	x28,0(x20) # 20000000 <.L2120+0x1fff2624>
    5e58:	00092f03          	lw	x30,0(x18)
    5e5c:	00700e93          	li	x29,7
    5e60:	1ddf0063          	beq	x30,x29,6020 <.L1190>

00005e64 <.L1150>:
    5e64:	00100493          	li	x9,1
    5e68:	0100006f          	j	5e78 <.L1163>

00005e6c <.L1191>:
    5e6c:	00058513          	mv	x10,x11
    5e70:	1405272f          	lr.w.aq	x14,(x10)
    5e74:	00970863          	beq	x14,x9,5e84 <.L1162>

00005e78 <.L1163>:
    5e78:	00058893          	mv	x17,x11
    5e7c:	1008aaaf          	lr.w	x21,(x17)
    5e80:	fe9a96e3          	bne	x21,x9,5e6c <.L1191>

00005e84 <.L1162>:
    5e84:	0ac12083          	lw	x1,172(x2)
    5e88:	0a812403          	lw	x8,168(x2)
    5e8c:	0006a023          	sw	x0,0(x13) # fc0000 <.L2120+0xfb2624>
    5e90:	0a412483          	lw	x9,164(x2)
    5e94:	0a012903          	lw	x18,160(x2)
    5e98:	09c12983          	lw	x19,156(x2)
    5e9c:	09812a03          	lw	x20,152(x2)
    5ea0:	09412a83          	lw	x21,148(x2)
    5ea4:	09012b03          	lw	x22,144(x2)
    5ea8:	08c12b83          	lw	x23,140(x2)
    5eac:	08812c03          	lw	x24,136(x2)
    5eb0:	08412c83          	lw	x25,132(x2)
    5eb4:	08012d03          	lw	x26,128(x2)
    5eb8:	00000513          	li	x10,0
    5ebc:	0b010113          	addi	x2,x2,176
    5ec0:	00008067          	ret

00005ec4 <.L1184>:
    5ec4:	000007b7          	lui	x15,0x0
    5ec8:	000002b7          	lui	x5,0x0
    5ecc:	00078593          	mv	x11,x15
    5ed0:	06f00613          	li	x12,111
    5ed4:	00028513          	mv	x10,x5
    5ed8:	00000097          	auipc	x1,0x0
    5edc:	000080e7          	jalr	x1 # 5ed8 <.L1184+0x14>
    5ee0:	04812583          	lw	x11,72(x2)
    5ee4:	000004b7          	lui	x9,0x0
    5ee8:	00048513          	mv	x10,x9
    5eec:	00000097          	auipc	x1,0x0
    5ef0:	000080e7          	jalr	x1 # 5eec <.L1184+0x28>
    5ef4:	000008b7          	lui	x17,0x0
    5ef8:	0008aa83          	lw	x21,0(x17) # 0 <_Z21hb_tiled_foreach_implIfZL26convolution_backward_inputP11hb_tensor_tS1_S1_P11hb_vector_tS3_EUlvE_JEEvjjT0_8HBTensorIT_Lln1EEPS7_.isra.0>
    5efc:	00000537          	lui	x10,0x0
    5f00:	00052703          	lw	x14,0(x10) # 0 <_Z21hb_tiled_foreach_implIfZL26convolution_backward_inputP11hb_tensor_tS1_S1_P11hb_vector_tS3_EUlvE_JEEvjjT0_8HBTensorIT_Lln1EEPS7_.isra.0>
    5f04:	010a9593          	slli	x11,x21,0x10
    5f08:	4100f937          	lui	x18,0x4100f
    5f0c:	00e586b3          	add	x13,x11,x14
    5f10:	acd92c23          	sw	x13,-1320(x18) # 4100ead8 <.L2120+0x410010fc>

00005f14 <.L1124>:
    5f14:	0000006f          	j	5f14 <.L1124>

00005f18 <.L1183>:
    5f18:	00000b37          	lui	x22,0x0
    5f1c:	00000437          	lui	x8,0x0
    5f20:	06f00613          	li	x12,111
    5f24:	000b0593          	mv	x11,x22
    5f28:	00040513          	mv	x10,x8
    5f2c:	00000097          	auipc	x1,0x0
    5f30:	000080e7          	jalr	x1 # 5f2c <.L1183+0x14>
    5f34:	04812583          	lw	x11,72(x2)
    5f38:	00000837          	lui	x16,0x0
    5f3c:	00080513          	mv	x10,x16
    5f40:	00000097          	auipc	x1,0x0
    5f44:	000080e7          	jalr	x1 # 5f40 <.L1183+0x28>
    5f48:	00000c37          	lui	x24,0x0
    5f4c:	000c2b83          	lw	x23,0(x24) # 0 <_Z21hb_tiled_foreach_implIfZL26convolution_backward_inputP11hb_tensor_tS1_S1_P11hb_vector_tS3_EUlvE_JEEvjjT0_8HBTensorIT_Lln1EEPS7_.isra.0>
    5f50:	00000637          	lui	x12,0x0
    5f54:	00062a03          	lw	x20,0(x12) # 0 <_Z21hb_tiled_foreach_implIfZL26convolution_backward_inputP11hb_tensor_tS1_S1_P11hb_vector_tS3_EUlvE_JEEvjjT0_8HBTensorIT_Lln1EEPS7_.isra.0>
    5f58:	010b9e13          	slli	x28,x23,0x10
    5f5c:	4100feb7          	lui	x29,0x4100f
    5f60:	014e0f33          	add	x30,x28,x20
    5f64:	adeeac23          	sw	x30,-1320(x29) # 4100ead8 <.L2120+0x410010fc>

00005f68 <.L1122>:
    5f68:	0000006f          	j	5f68 <.L1122>

00005f6c <.L1185>:
    5f6c:	000000b7          	lui	x1,0x0
    5f70:	00000e37          	lui	x28,0x0
    5f74:	00008593          	mv	x11,x1
    5f78:	06f00613          	li	x12,111
    5f7c:	000e0513          	mv	x10,x28
    5f80:	00000097          	auipc	x1,0x0
    5f84:	000080e7          	jalr	x1 # 5f80 <.L1185+0x14>
    5f88:	04812583          	lw	x11,72(x2)
    5f8c:	00000f37          	lui	x30,0x0
    5f90:	000f0513          	mv	x10,x30
    5f94:	00000097          	auipc	x1,0x0
    5f98:	000080e7          	jalr	x1 # 5f94 <.L1185+0x28>
    5f9c:	00000eb7          	lui	x29,0x0
    5fa0:	000eaf83          	lw	x31,0(x29) # 0 <_Z21hb_tiled_foreach_implIfZL26convolution_backward_inputP11hb_tensor_tS1_S1_P11hb_vector_tS3_EUlvE_JEEvjjT0_8HBTensorIT_Lln1EEPS7_.isra.0>
    5fa4:	00000d37          	lui	x26,0x0
    5fa8:	000d2c83          	lw	x25,0(x26) # 0 <_Z21hb_tiled_foreach_implIfZL26convolution_backward_inputP11hb_tensor_tS1_S1_P11hb_vector_tS3_EUlvE_JEEvjjT0_8HBTensorIT_Lln1EEPS7_.isra.0>
    5fac:	010f9993          	slli	x19,x31,0x10
    5fb0:	4100f337          	lui	x6,0x4100f
    5fb4:	019983b3          	add	x7,x19,x25
    5fb8:	ac732c23          	sw	x7,-1320(x6) # 4100ead8 <.L2120+0x410010fc>

00005fbc <.L1126>:
    5fbc:	0000006f          	j	5fbc <.L1126>

00005fc0 <.L1186>:
    5fc0:	000006b7          	lui	x13,0x0
    5fc4:	000005b7          	lui	x11,0x0
    5fc8:	06f00613          	li	x12,111
    5fcc:	00058593          	mv	x11,x11
    5fd0:	00068513          	mv	x10,x13
    5fd4:	00000097          	auipc	x1,0x0
    5fd8:	000080e7          	jalr	x1 # 5fd4 <.L1186+0x14>
    5fdc:	04812583          	lw	x11,72(x2)
    5fe0:	00000937          	lui	x18,0x0
    5fe4:	00090513          	mv	x10,x18
    5fe8:	00000097          	auipc	x1,0x0
    5fec:	000080e7          	jalr	x1 # 5fe8 <.L1186+0x28>
    5ff0:	00000b37          	lui	x22,0x0
    5ff4:	000b2403          	lw	x8,0(x22) # 0 <_Z21hb_tiled_foreach_implIfZL26convolution_backward_inputP11hb_tensor_tS1_S1_P11hb_vector_tS3_EUlvE_JEEvjjT0_8HBTensorIT_Lln1EEPS7_.isra.0>
    5ff8:	00000837          	lui	x16,0x0
    5ffc:	00082c03          	lw	x24,0(x16) # 0 <_Z21hb_tiled_foreach_implIfZL26convolution_backward_inputP11hb_tensor_tS1_S1_P11hb_vector_tS3_EUlvE_JEEvjjT0_8HBTensorIT_Lln1EEPS7_.isra.0>
    6000:	01041b93          	slli	x23,x8,0x10
    6004:	4100fa37          	lui	x20,0x4100f
    6008:	018b8633          	add	x12,x23,x24
    600c:	acca2c23          	sw	x12,-1320(x20) # 4100ead8 <.L2120+0x410010fc>

00006010 <.L1128>:
    6010:	0000006f          	j	6010 <.L1128>

00006014 <.L1187>:
    6014:	000e0313          	mv	x6,x28
    6018:	ce6466e3          	bltu	x8,x6,5d04 <.L1192>
    601c:	db1ff06f          	j	5dcc <.L1133>

00006020 <.L1190>:
    6020:	00000fb7          	lui	x31,0x0
    6024:	00000737          	lui	x14,0x0
    6028:	004f8d13          	addi	x26,x31,4 # 4 <_Z21hb_tiled_foreach_implIfZL26convolution_backward_inputP11hb_tensor_tS1_S1_P11hb_vector_tS3_EUlvE_JEEvjjT0_8HBTensorIT_Lln1EEPS7_.isra.0+0x4>
    602c:	01470b13          	addi	x22,x14,20 # 14 <.L8>

00006030 <.L1130>:
    6030:	000d0793          	mv	x15,x26

00006034 <.L1152>:
    6034:	0007cc83          	lbu	x25,0(x15) # 0 <_Z21hb_tiled_foreach_implIfZL26convolution_backward_inputP11hb_tensor_tS1_S1_P11hb_vector_tS3_EUlvE_JEEvjjT0_8HBTensorIT_Lln1EEPS7_.isra.0>
    6038:	00178793          	addi	x15,x15,1
    603c:	0ffcf993          	andi	x19,x25,255
    6040:	fe0988e3          	beqz	x19,6030 <.L1130>
    6044:	fefb18e3          	bne	x22,x15,6034 <.L1152>
    6048:	0004a383          	lw	x7,0(x9) # 0 <_Z21hb_tiled_foreach_implIfZL26convolution_backward_inputP11hb_tensor_tS1_S1_P11hb_vector_tS3_EUlvE_JEEvjjT0_8HBTensorIT_Lln1EEPS7_.isra.0>
    604c:	231c08b7          	lui	x17,0x231c0
    6050:	00100513          	li	x10,1
    6054:	01838313          	addi	x6,x7,24
    6058:	006682b3          	add	x5,x13,x6
    605c:	0112eab3          	or	x21,x5,x17
    6060:	00aa8023          	sb	x10,0(x21)
    6064:	00092403          	lw	x8,0(x18) # 0 <_Z21hb_tiled_foreach_implIfZL26convolution_backward_inputP11hb_tensor_tS1_S1_P11hb_vector_tS3_EUlvE_JEEvjjT0_8HBTensorIT_Lln1EEPS7_.isra.0>
    6068:	00700813          	li	x16,7
    606c:	df041ce3          	bne	x8,x16,5e64 <.L1150>
    6070:	0004a083          	lw	x1,0(x9)
    6074:	00300c13          	li	x24,3
    6078:	07808e63          	beq	x1,x24,60f4 <.L1193>

0000607c <.L1158>:
    607c:	00100413          	li	x8,1
    6080:	0100006f          	j	6090 <.L1154>

00006084 <.L1194>:
    6084:	01468c13          	addi	x24,x13,20 # 14 <.L8>
    6088:	140c2baf          	lr.w.aq	x23,(x24)
    608c:	008b8863          	beq	x23,x8,609c <.L1159>

00006090 <.L1154>:
    6090:	01468813          	addi	x16,x13,20
    6094:	100820af          	lr.w	x1,(x16)
    6098:	fe8096e3          	bne	x1,x8,6084 <.L1194>

0000609c <.L1159>:
    609c:	0006aa23          	sw	x0,20(x13)
    60a0:	00000e13          	li	x28,0
    60a4:	01000613          	li	x12,16

000060a8 <.L1160>:
    60a8:	01c68a33          	add	x20,x13,x28
    60ac:	000a0223          	sb	x0,4(x20)
    60b0:	001e0e13          	addi	x28,x28,1 # 1 <_Z21hb_tiled_foreach_implIfZL26convolution_backward_inputP11hb_tensor_tS1_S1_P11hb_vector_tS3_EUlvE_JEEvjjT0_8HBTensorIT_Lln1EEPS7_.isra.0+0x1>
    60b4:	fece1ae3          	bne	x28,x12,60a8 <.L1160>
    60b8:	0006a023          	sw	x0,0(x13)
    60bc:	00000393          	li	x7,0
    60c0:	20000f37          	lui	x30,0x20000
    60c4:	00100e93          	li	x29,1
    60c8:	00040fb7          	lui	x31,0x40
    60cc:	00400d37          	lui	x26,0x400

000060d0 <.L1161>:
    60d0:	0004ac83          	lw	x25,0(x9)
    60d4:	0076e9b3          	or	x19,x13,x7
    60d8:	01f383b3          	add	x7,x7,x31
    60dc:	018c9313          	slli	x6,x25,0x18
    60e0:	013367b3          	or	x15,x6,x19
    60e4:	01e7e2b3          	or	x5,x15,x30
    60e8:	01d2a023          	sw	x29,0(x5) # 0 <_Z21hb_tiled_foreach_implIfZL26convolution_backward_inputP11hb_tensor_tS1_S1_P11hb_vector_tS3_EUlvE_JEEvjjT0_8HBTensorIT_Lln1EEPS7_.isra.0>
    60ec:	ffa392e3          	bne	x7,x26,60d0 <.L1161>
    60f0:	d75ff06f          	j	5e64 <.L1150>

000060f4 <.L1193>:
    60f4:	00000bb7          	lui	x23,0x0
    60f8:	00000a37          	lui	x20,0x0
    60fc:	018b8613          	addi	x12,x23,24 # 18 <.L8+0x4>
    6100:	020a0e13          	addi	x28,x20,32 # 20 <.L8+0xc>

00006104 <.L1153>:
    6104:	00060e93          	mv	x29,x12

00006108 <.L1155>:
    6108:	000ecf03          	lbu	x30,0(x29)
    610c:	001e8e93          	addi	x29,x29,1
    6110:	0fff7f93          	andi	x31,x30,255
    6114:	fe0f88e3          	beqz	x31,6104 <.L1153>
    6118:	ffde18e3          	bne	x28,x29,6108 <.L1155>
    611c:	00068c23          	sb	x0,24(x13)
    6120:	00068ca3          	sb	x0,25(x13)
    6124:	00068d23          	sb	x0,26(x13)
    6128:	00068da3          	sb	x0,27(x13)
    612c:	00068e23          	sb	x0,28(x13)
    6130:	00068ea3          	sb	x0,29(x13)
    6134:	00068f23          	sb	x0,30(x13)
    6138:	00068fa3          	sb	x0,31(x13)
    613c:	0006aa23          	sw	x0,20(x13)
    6140:	00000713          	li	x14,0
    6144:	03fc0d37          	lui	x26,0x3fc0
    6148:	20000cb7          	lui	x25,0x20000
    614c:	00100993          	li	x19,1
    6150:	010003b7          	lui	x7,0x1000
    6154:	08000337          	lui	x6,0x8000
    6158:	0080006f          	j	6160 <.L1157>

0000615c <.L1195>:
    615c:	00092403          	lw	x8,0(x18)

00006160 <.L1157>:
    6160:	01241793          	slli	x15,x8,0x12
    6164:	00eb62b3          	or	x5,x22,x14
    6168:	01a7f8b3          	and	x17,x15,x26
    616c:	0058eab3          	or	x21,x17,x5
    6170:	019ae533          	or	x10,x21,x25
    6174:	01352023          	sw	x19,0(x10)
    6178:	00770733          	add	x14,x14,x7
    617c:	fe6710e3          	bne	x14,x6,615c <.L1195>
    6180:	00092903          	lw	x18,0(x18)
    6184:	00700b13          	li	x22,7
    6188:	ef690ae3          	beq	x18,x22,607c <.L1158>
    618c:	cd9ff06f          	j	5e64 <.L1150>

00006190 <.L1188>:
    6190:	06547e63          	bgeu	x8,x5,620c <.L1196>
    6194:	00058d13          	mv	x26,x11
    6198:	01488663          	beq	x17,x20,61a4 <.L1197>
    619c:	000d2023          	sw	x0,0(x26) # 3fc0000 <.L2120+0x3fb2624>
    61a0:	bb1ff06f          	j	5d50 <.L1145>

000061a4 <.L1197>:
    61a4:	000c2683          	lw	x13,0(x24)
    61a8:	02d40b33          	mul	x22,x8,x13
    61ac:	002b1c93          	slli	x25,x22,0x2
    61b0:	019a8d33          	add	x26,x21,x25
    61b4:	000d2023          	sw	x0,0(x26)
    61b8:	b99ff06f          	j	5d50 <.L1145>

000061bc <.L1189>:
    61bc:	00000f37          	lui	x30,0x0
    61c0:	00000eb7          	lui	x29,0x0
    61c4:	000f0593          	mv	x11,x30
    61c8:	08c00613          	li	x12,140
    61cc:	000e8513          	mv	x10,x29
    61d0:	00000097          	auipc	x1,0x0
    61d4:	000080e7          	jalr	x1 # 61d0 <.L1189+0x14>
    61d8:	00812583          	lw	x11,8(x2)
    61dc:	00000fb7          	lui	x31,0x0
    61e0:	00040613          	mv	x12,x8
    61e4:	000f8513          	mv	x10,x31
    61e8:	00000097          	auipc	x1,0x0
    61ec:	000080e7          	jalr	x1 # 61e8 <.L1189+0x2c>
    61f0:	0004a483          	lw	x9,0(x9)
    61f4:	00092903          	lw	x18,0(x18)
    61f8:	4100f737          	lui	x14,0x4100f
    61fc:	01049793          	slli	x15,x9,0x10
    6200:	01278433          	add	x8,x15,x18
    6204:	ac872c23          	sw	x8,-1320(x14) # 4100ead8 <.L2120+0x410010fc>

00006208 <.L1146>:
    6208:	0000006f          	j	6208 <.L1146>

0000620c <.L1196>:
    620c:	00000537          	lui	x10,0x0
    6210:	000009b7          	lui	x19,0x0
    6214:	00050593          	mv	x11,x10
    6218:	08c00613          	li	x12,140
    621c:	00098513          	mv	x10,x19
    6220:	00000097          	auipc	x1,0x0
    6224:	000080e7          	jalr	x1 # 6220 <.L1196+0x14>
    6228:	00812583          	lw	x11,8(x2)
    622c:	000003b7          	lui	x7,0x0
    6230:	00040613          	mv	x12,x8
    6234:	00038513          	mv	x10,x7
    6238:	00000097          	auipc	x1,0x0
    623c:	000080e7          	jalr	x1 # 6238 <.L1196+0x2c>
    6240:	0004a803          	lw	x16,0(x9)
    6244:	00092303          	lw	x6,0(x18)
    6248:	4100fab7          	lui	x21,0x4100f
    624c:	01081293          	slli	x5,x16,0x10
    6250:	006288b3          	add	x17,x5,x6
    6254:	ad1aac23          	sw	x17,-1320(x21) # 4100ead8 <.L2120+0x410010fc>

00006258 <.L1143>:
    6258:	0000006f          	j	6258 <.L1143>

0000625c <_ZL26convolution_backward_inputP11hb_tensor_tS0_S0_P11hb_vector_tS2_.isra.0>:
    625c:	eb010113          	addi	x2,x2,-336
    6260:	00050793          	mv	x15,x10
    6264:	14912223          	sw	x9,324(x2)
    6268:	05c10513          	addi	x10,x2,92
    626c:	00058493          	mv	x9,x11
    6270:	00078593          	mv	x11,x15
    6274:	14112623          	sw	x1,332(x2)
    6278:	14812423          	sw	x8,328(x2)
    627c:	15212023          	sw	x18,320(x2)
    6280:	00060413          	mv	x8,x12
    6284:	00070913          	mv	x18,x14
    6288:	13312e23          	sw	x19,316(x2)
    628c:	13412c23          	sw	x20,312(x2)
    6290:	00068993          	mv	x19,x13
    6294:	13512a23          	sw	x21,308(x2)
    6298:	13612823          	sw	x22,304(x2)
    629c:	13712623          	sw	x23,300(x2)
    62a0:	13812423          	sw	x24,296(x2)
    62a4:	13912223          	sw	x25,292(x2)
    62a8:	13a12023          	sw	x26,288(x2)
    62ac:	11b12e23          	sw	x27,284(x2)
    62b0:	00000097          	auipc	x1,0x0
    62b4:	000080e7          	jalr	x1 # 62b0 <_ZL26convolution_backward_inputP11hb_tensor_tS0_S0_P11hb_vector_tS2_.isra.0+0x54>
    62b8:	00048593          	mv	x11,x9
    62bc:	09810513          	addi	x10,x2,152
    62c0:	00000097          	auipc	x1,0x0
    62c4:	000080e7          	jalr	x1 # 62c0 <_ZL26convolution_backward_inputP11hb_tensor_tS0_S0_P11hb_vector_tS2_.isra.0+0x64>
    62c8:	00040593          	mv	x11,x8
    62cc:	0d410513          	addi	x10,x2,212
    62d0:	00000097          	auipc	x1,0x0
    62d4:	000080e7          	jalr	x1 # 62d0 <_ZL26convolution_backward_inputP11hb_tensor_tS0_S0_P11hb_vector_tS2_.isra.0+0x74>
    62d8:	09c12283          	lw	x5,156(x2)
    62dc:	54028a63          	beqz	x5,6830 <.L1298>
    62e0:	00100713          	li	x14,1
    62e4:	4e577c63          	bgeu	x14,x5,67dc <.L1299>
    62e8:	00200693          	li	x13,2
    62ec:	5ed28663          	beq	x5,x13,68d8 <.L1300>
    62f0:	00300593          	li	x11,3
    62f4:	62b28c63          	beq	x5,x11,692c <.L1301>
    62f8:	06012603          	lw	x12,96(x2)
    62fc:	58c77463          	bgeu	x14,x12,6884 <.L1302>
    6300:	26d60ce3          	beq	x12,x13,6d78 <.L1303>
    6304:	2cb604e3          	beq	x12,x11,6dcc <.L1304>
    6308:	0d812083          	lw	x1,216(x2)
    630c:	6616fa63          	bgeu	x13,x1,6980 <.L1305>
    6310:	30b088e3          	beq	x1,x11,6e20 <.L1306>
    6314:	00000337          	lui	x6,0x0
    6318:	00000537          	lui	x10,0x0
    631c:	000008b7          	lui	x17,0x0
    6320:	00000ab7          	lui	x21,0x0
    6324:	00032383          	lw	x7,0(x6) # 0 <_Z21hb_tiled_foreach_implIfZL26convolution_backward_inputP11hb_tensor_tS1_S1_P11hb_vector_tS3_EUlvE_JEEvjjT0_8HBTensorIT_Lln1EEPS7_.isra.0>
    6328:	00052803          	lw	x16,0(x10) # 0 <_Z21hb_tiled_foreach_implIfZL26convolution_backward_inputP11hb_tensor_tS1_S1_P11hb_vector_tS3_EUlvE_JEEvjjT0_8HBTensorIT_Lln1EEPS7_.isra.0>
    632c:	0008aa03          	lw	x20,0(x17) # 0 <_Z21hb_tiled_foreach_implIfZL26convolution_backward_inputP11hb_tensor_tS1_S1_P11hb_vector_tS3_EUlvE_JEEvjjT0_8HBTensorIT_Lln1EEPS7_.isra.0>
    6330:	000aab03          	lw	x22,0(x21) # 0 <_Z21hb_tiled_foreach_implIfZL26convolution_backward_inputP11hb_tensor_tS1_S1_P11hb_vector_tS3_EUlvE_JEEvjjT0_8HBTensorIT_Lln1EEPS7_.isra.0>
    6334:	00000bb7          	lui	x23,0x0
    6338:	0a412403          	lw	x8,164(x2)
    633c:	000bac03          	lw	x24,0(x23) # 0 <_Z21hb_tiled_foreach_implIfZL26convolution_backward_inputP11hb_tensor_tS1_S1_P11hb_vector_tS3_EUlvE_JEEvjjT0_8HBTensorIT_Lln1EEPS7_.isra.0>
    6340:	06812703          	lw	x14,104(x2)
    6344:	0009a983          	lw	x19,0(x19) # 0 <_Z21hb_tiled_foreach_implIfZL26convolution_backward_inputP11hb_tensor_tS1_S1_P11hb_vector_tS3_EUlvE_JEEvjjT0_8HBTensorIT_Lln1EEPS7_.isra.0>
    6348:	01038cb3          	add	x25,x7,x16
    634c:	016a0d33          	add	x26,x20,x22
    6350:	018c9d93          	slli	x27,x25,0x18
    6354:	012d1e13          	slli	x28,x26,0x12
    6358:	3f000eb7          	lui	x29,0x3f000
    635c:	00fc0fb7          	lui	x31,0xfc0
    6360:	000406b7          	lui	x13,0x40
    6364:	01ddff33          	and	x30,x27,x29
    6368:	01fe77b3          	and	x15,x28,x31
    636c:	00042a03          	lw	x20,0(x8) # 0 <_Z21hb_tiled_foreach_implIfZL26convolution_backward_inputP11hb_tensor_tS1_S1_P11hb_vector_tS3_EUlvE_JEEvjjT0_8HBTensorIT_Lln1EEPS7_.isra.0>
    6370:	00842b03          	lw	x22,8(x8)
    6374:	00872c83          	lw	x25,8(x14)
    6378:	004c1493          	slli	x9,x24,0x4
    637c:	05c12083          	lw	x1,92(x2)
    6380:	00442a83          	lw	x21,4(x8)
    6384:	00c42b83          	lw	x23,12(x8)
    6388:	00472c03          	lw	x24,4(x14)
    638c:	0009ae03          	lw	x28,0(x19)
    6390:	0049ae83          	lw	x29,4(x19)
    6394:	ff068313          	addi	x6,x13,-16 # 3fff0 <.L2120+0x32614>
    6398:	00092903          	lw	x18,0(x18)
    639c:	0e012283          	lw	x5,224(x2)
    63a0:	00ff65b3          	or	x11,x30,x15
    63a4:	0064f3b3          	and	x7,x9,x6
    63a8:	0075e533          	or	x10,x11,x7
    63ac:	80000837          	lui	x16,0x80000
    63b0:	05412423          	sw	x20,72(x2)
    63b4:	03612223          	sw	x22,36(x2)
    63b8:	03912023          	sw	x25,32(x2)
    63bc:	010568b3          	or	x17,x10,x16
    63c0:	03512a23          	sw	x21,52(x2)
    63c4:	03712423          	sw	x23,40(x2)
    63c8:	01812e23          	sw	x24,28(x2)
    63cc:	03c12623          	sw	x28,44(x2)
    63d0:	03d12823          	sw	x29,48(x2)
    63d4:	41001fb7          	lui	x31,0x41001
    63d8:	fff08f13          	addi	x30,x1,-1
    63dc:	ffd00493          	li	x9,-3
    63e0:	00c72a03          	lw	x20,12(x14)
    63e4:	0082ac83          	lw	x25,8(x5)
    63e8:	00c2ad03          	lw	x26,12(x5)
    63ec:	00092d83          	lw	x27,0(x18)
    63f0:	00492b03          	lw	x22,4(x18)
    63f4:	d11fa623          	sw	x17,-756(x31) # 41000d0c <.L2120+0x40ff3330>
    63f8:	06412683          	lw	x13,100(x2)
    63fc:	06c12783          	lw	x15,108(x2)
    6400:	27e4eae3          	bltu	x9,x30,6e74 <.L1269>
    6404:	00000437          	lui	x8,0x0
    6408:	00042983          	lw	x19,0(x8) # 0 <_Z21hb_tiled_foreach_implIfZL26convolution_backward_inputP11hb_tensor_tS1_S1_P11hb_vector_tS3_EUlvE_JEEvjjT0_8HBTensorIT_Lln1EEPS7_.isra.0>
    640c:	0070d913          	srli	x18,x1,0x7
    6410:	00190293          	addi	x5,x18,1
    6414:	07f9f593          	andi	x11,x19,127
    6418:	02558533          	mul	x10,x11,x5
    641c:	00a285b3          	add	x11,x5,x10
    6420:	00b0f463          	bgeu	x1,x11,6428 <.L1218>
    6424:	00008593          	mv	x11,x1

00006428 <.L1218>:
    6428:	24b576e3          	bgeu	x10,x11,6e74 <.L1269>

0000642c <.L1217>:
    642c:	00000097          	auipc	x1,0x0
    6430:	000080e7          	jalr	x1 # 642c <.L1217>
    6434:	000006b7          	lui	x13,0x0
    6438:	0006a603          	lw	x12,0(x13) # 0 <_Z21hb_tiled_foreach_implIfZL26convolution_backward_inputP11hb_tensor_tS1_S1_P11hb_vector_tS3_EUlvE_JEEvjjT0_8HBTensorIT_Lln1EEPS7_.isra.0>
    643c:	00000737          	lui	x14,0x0
    6440:	00072303          	lw	x6,0(x14) # 0 <_Z21hb_tiled_foreach_implIfZL26convolution_backward_inputP11hb_tensor_tS1_S1_P11hb_vector_tS3_EUlvE_JEEvjjT0_8HBTensorIT_Lln1EEPS7_.isra.0>
    6444:	000003b7          	lui	x7,0x0
    6448:	00460793          	addi	x15,x12,4
    644c:	00038513          	mv	x10,x7
    6450:	00f50833          	add	x16,x10,x15
    6454:	01831893          	slli	x17,x6,0x18
    6458:	01186ab3          	or	x21,x16,x17
    645c:	201c0bb7          	lui	x23,0x201c0
    6460:	017aec33          	or	x24,x21,x23
    6464:	00100e13          	li	x28,1
    6468:	01cc0023          	sb	x28,0(x24)
    646c:	0006a703          	lw	x14,0(x13)
    6470:	00700f13          	li	x30,7
    6474:	04e12623          	sw	x14,76(x2)
    6478:	67e70a63          	beq	x14,x30,6aec <.L1307>

0000647c <.L1229>:
    647c:	00100513          	li	x10,1
    6480:	0100006f          	j	6490 <.L1234>

00006484 <.L1308>:
    6484:	00080b93          	mv	x23,x16
    6488:	140bac2f          	lr.w.aq	x24,(x23)
    648c:	00ac0a63          	beq	x24,x10,64a0 <.L1233>

00006490 <.L1234>:
    6490:	00000837          	lui	x16,0x0
    6494:	00080893          	mv	x17,x16
    6498:	1008aaaf          	lr.w	x21,(x17)
    649c:	feaa94e3          	bne	x21,x10,6484 <.L1308>

000064a0 <.L1233>:
    64a0:	00000e37          	lui	x28,0x0
    64a4:	04812f03          	lw	x30,72(x2)
    64a8:	000e0e93          	mv	x29,x28
    64ac:	000ea023          	sw	x0,0(x29) # 3f000000 <.L2120+0x3eff2624>
    64b0:	200f0863          	beqz	x30,66c0 <.L1239>
    64b4:	02012083          	lw	x1,32(x2)
    64b8:	01c12403          	lw	x8,28(x2)
    64bc:	000d8a93          	mv	x21,x27
    64c0:	034084b3          	mul	x9,x1,x20
    64c4:	000d0d93          	mv	x27,x26
    64c8:	00000993          	li	x19,0
    64cc:	000c8d13          	mv	x26,x25
    64d0:	000a0c93          	mv	x25,x20
    64d4:	021406b3          	mul	x13,x8,x1
    64d8:	02912c23          	sw	x9,56(x2)
    64dc:	03468fb3          	mul	x31,x13,x20
    64e0:	007fd293          	srli	x5,x31,0x7
    64e4:	ffff8713          	addi	x14,x31,-1
    64e8:	00128593          	addi	x11,x5,1
    64ec:	05f12023          	sw	x31,64(x2)
    64f0:	02e12e23          	sw	x14,60(x2)
    64f4:	04b12223          	sw	x11,68(x2)

000064f8 <.L1240>:
    64f8:	03412a03          	lw	x20,52(x2)
    64fc:	00000f13          	li	x30,0
    6500:	1a0a0a63          	beqz	x20,66b4 <.L1242>

00006504 <.L1238>:
    6504:	03c12603          	lw	x12,60(x2)
    6508:	ffd00313          	li	x6,-3
    650c:	18c36e63          	bltu	x6,x12,66a8 <.L1244>
    6510:	000007b7          	lui	x15,0x0
    6514:	0007a383          	lw	x7,0(x15) # 0 <_Z21hb_tiled_foreach_implIfZL26convolution_backward_inputP11hb_tensor_tS1_S1_P11hb_vector_tS3_EUlvE_JEEvjjT0_8HBTensorIT_Lln1EEPS7_.isra.0>
    6518:	04412803          	lw	x16,68(x2)
    651c:	04012883          	lw	x17,64(x2)
    6520:	07f3f513          	andi	x10,x7,127
    6524:	03050633          	mul	x12,x10,x16
    6528:	00c80bb3          	add	x23,x16,x12
    652c:	0178f463          	bgeu	x17,x23,6534 <.L1243>
    6530:	00088b93          	mv	x23,x17

00006534 <.L1243>:
    6534:	17767a63          	bgeu	x12,x23,66a8 <.L1244>
    6538:	0a812c03          	lw	x24,168(x2)
    653c:	0e412e03          	lw	x28,228(x2)
    6540:	06c12e83          	lw	x29,108(x2)
    6544:	0a012083          	lw	x1,160(x2)
    6548:	0dc12283          	lw	x5,220(x2)
    654c:	06412f83          	lw	x31,100(x2)
    6550:	01812623          	sw	x24,12(x2)
    6554:	01c12823          	sw	x28,16(x2)
    6558:	01d12a23          	sw	x29,20(x2)
    655c:	01712c23          	sw	x23,24(x2)

00006560 <.L1246>:
    6560:	03965433          	divu	x8,x12,x25
    6564:	02012483          	lw	x9,32(x2)
    6568:	03812683          	lw	x13,56(x2)
    656c:	02c12703          	lw	x14,44(x2)
    6570:	01c12583          	lw	x11,28(x2)
    6574:	03012a03          	lw	x20,48(x2)
    6578:	00000893          	li	x17,0
    657c:	029473b3          	remu	x7,x8,x9
    6580:	02d65933          	divu	x18,x12,x13
    6584:	00770bb3          	add	x23,x14,x7
    6588:	03967833          	remu	x16,x12,x25
    658c:	02b97533          	remu	x10,x18,x11
    6590:	010a04b3          	add	x9,x20,x16
    6594:	100d0463          	beqz	x26,669c <.L1248>

00006598 <.L1245>:
    6598:	0e0d8e63          	beqz	x27,6694 <.L1250>
    659c:	411b8933          	sub	x18,x23,x17
    65a0:	00000693          	li	x13,0
    65a4:	03597c33          	remu	x24,x18,x21

000065a8 <.L1251>:
    65a8:	40d48333          	sub	x6,x9,x13
    65ac:	0e0c1063          	bnez	x24,668c <.L1249>
    65b0:	036377b3          	remu	x15,x6,x22
    65b4:	0c079c63          	bnez	x15,668c <.L1249>
    65b8:	03595a33          	divu	x20,x18,x21
    65bc:	02412e03          	lw	x28,36(x2)
    65c0:	0dca7663          	bgeu	x20,x28,668c <.L1249>
    65c4:	03635733          	divu	x14,x6,x22
    65c8:	02812e83          	lw	x29,40(x2)
    65cc:	0dd77063          	bgeu	x14,x29,668c <.L1249>
    65d0:	00cfa783          	lw	x15,12(x31)
    65d4:	000fa403          	lw	x8,0(x31)
    65d8:	0000ae83          	lw	x29,0(x1)
    65dc:	0040a303          	lw	x6,4(x1)
    65e0:	02898433          	mul	x8,x19,x8
    65e4:	0002a583          	lw	x11,0(x5)
    65e8:	02f80e33          	mul	x28,x16,x15
    65ec:	03d987b3          	mul	x15,x19,x29
    65f0:	01c40e33          	add	x28,x8,x28
    65f4:	0042a403          	lw	x8,4(x5)
    65f8:	026f0eb3          	mul	x29,x30,x6
    65fc:	02bf05b3          	mul	x11,x30,x11
    6600:	01d78333          	add	x6,x15,x29
    6604:	004fae83          	lw	x29,4(x31)
    6608:	028507b3          	mul	x15,x10,x8
    660c:	00f585b3          	add	x11,x11,x15
    6610:	0080a783          	lw	x15,8(x1)
    6614:	03d50433          	mul	x8,x10,x29
    6618:	0082ae83          	lw	x29,8(x5)
    661c:	02fa0a33          	mul	x20,x20,x15
    6620:	00c2a783          	lw	x15,12(x5)
    6624:	008e0e33          	add	x28,x28,x8
    6628:	03d88433          	mul	x8,x17,x29
    662c:	01430333          	add	x6,x6,x20
    6630:	008fae83          	lw	x29,8(x31)
    6634:	02f68a33          	mul	x20,x13,x15
    6638:	008585b3          	add	x11,x11,x8
    663c:	014587b3          	add	x15,x11,x20
    6640:	00279a13          	slli	x20,x15,0x2
    6644:	00c0a783          	lw	x15,12(x1)
    6648:	03d38433          	mul	x8,x7,x29
    664c:	01012583          	lw	x11,16(x2)
    6650:	01458eb3          	add	x29,x11,x20
    6654:	01412a03          	lw	x20,20(x2)
    6658:	000ea687          	flw	f13,0(x29)
    665c:	02f70733          	mul	x14,x14,x15
    6660:	00c12783          	lw	x15,12(x2)
    6664:	008e0e33          	add	x28,x28,x8
    6668:	002e1413          	slli	x8,x28,0x2
    666c:	008a05b3          	add	x11,x20,x8
    6670:	0005a707          	flw	f14,0(x11) # 0 <_Z21hb_tiled_foreach_implIfZL26convolution_backward_inputP11hb_tensor_tS1_S1_P11hb_vector_tS3_EUlvE_JEEvjjT0_8HBTensorIT_Lln1EEPS7_.isra.0>
    6674:	00e30333          	add	x6,x6,x14
    6678:	00231e93          	slli	x29,x6,0x2
    667c:	01d78733          	add	x14,x15,x29
    6680:	00072787          	flw	f15,0(x14)
    6684:	70d7f043          	fmadd.s	f0,f15,f13,f14
    6688:	0005a027          	fsw	f0,0(x11)

0000668c <.L1249>:
    668c:	00168693          	addi	x13,x13,1
    6690:	f0dd9ce3          	bne	x27,x13,65a8 <.L1251>

00006694 <.L1250>:
    6694:	00188893          	addi	x17,x17,1
    6698:	f11d10e3          	bne	x26,x17,6598 <.L1245>

0000669c <.L1248>:
    669c:	01812383          	lw	x7,24(x2)
    66a0:	00160613          	addi	x12,x12,1
    66a4:	eac39ee3          	bne	x7,x12,6560 <.L1246>

000066a8 <.L1244>:
    66a8:	03412083          	lw	x1,52(x2)
    66ac:	001f0f13          	addi	x30,x30,1 # 1 <_Z21hb_tiled_foreach_implIfZL26convolution_backward_inputP11hb_tensor_tS1_S1_P11hb_vector_tS3_EUlvE_JEEvjjT0_8HBTensorIT_Lln1EEPS7_.isra.0+0x1>
    66b0:	e5e09ae3          	bne	x1,x30,6504 <.L1238>

000066b4 <.L1242>:
    66b4:	04812283          	lw	x5,72(x2)
    66b8:	00198993          	addi	x19,x19,1
    66bc:	e3329ee3          	bne	x5,x19,64f8 <.L1240>

000066c0 <.L1239>:
    66c0:	00000b37          	lui	x22,0x0
    66c4:	000b2a83          	lw	x21,0(x22) # 0 <_Z21hb_tiled_foreach_implIfZL26convolution_backward_inputP11hb_tensor_tS1_S1_P11hb_vector_tS3_EUlvE_JEEvjjT0_8HBTensorIT_Lln1EEPS7_.isra.0>
    66c8:	04c12503          	lw	x10,76(x2)
    66cc:	00000837          	lui	x16,0x0
    66d0:	00000db7          	lui	x27,0x0
    66d4:	00000cb7          	lui	x25,0x0
    66d8:	000dad03          	lw	x26,0(x27) # 0 <_Z21hb_tiled_foreach_implIfZL26convolution_backward_inputP11hb_tensor_tS1_S1_P11hb_vector_tS3_EUlvE_JEEvjjT0_8HBTensorIT_Lln1EEPS7_.isra.0>
    66dc:	000caf83          	lw	x31,0(x25) # 0 <_Z21hb_tiled_foreach_implIfZL26convolution_backward_inputP11hb_tensor_tS1_S1_P11hb_vector_tS3_EUlvE_JEEvjjT0_8HBTensorIT_Lln1EEPS7_.isra.0>
    66e0:	00082b83          	lw	x23,0(x16) # 0 <_Z21hb_tiled_foreach_implIfZL26convolution_backward_inputP11hb_tensor_tS1_S1_P11hb_vector_tS3_EUlvE_JEEvjjT0_8HBTensorIT_Lln1EEPS7_.isra.0>
    66e4:	015504b3          	add	x9,x10,x21
    66e8:	000405b7          	lui	x11,0x40
    66ec:	01249913          	slli	x18,x9,0x12
    66f0:	004d1c13          	slli	x24,x26,0x4
    66f4:	017f8e33          	add	x28,x31,x23
    66f8:	00fc0437          	lui	x8,0xfc0
    66fc:	ff058313          	addi	x6,x11,-16 # 3fff0 <.L2120+0x32614>
    6700:	00897a33          	and	x20,x18,x8
    6704:	006c7eb3          	and	x29,x24,x6
    6708:	018e1713          	slli	x14,x28,0x18
    670c:	3f0006b7          	lui	x13,0x3f000
    6710:	01da67b3          	or	x15,x20,x29
    6714:	00d778b3          	and	x17,x14,x13
    6718:	0117e633          	or	x12,x15,x17
    671c:	c00003b7          	lui	x7,0xc0000
    6720:	00766f33          	or	x30,x12,x7
    6724:	410010b7          	lui	x1,0x41001
    6728:	d1e0a623          	sw	x30,-756(x1) # 41000d0c <.L2120+0x40ff3330>
    672c:	000009b7          	lui	x19,0x0
    6730:	0009a283          	lw	x5,0(x19) # 0 <_Z21hb_tiled_foreach_implIfZL26convolution_backward_inputP11hb_tensor_tS1_S1_P11hb_vector_tS3_EUlvE_JEEvjjT0_8HBTensorIT_Lln1EEPS7_.isra.0>
    6734:	00082b03          	lw	x22,0(x16)
    6738:	00000db7          	lui	x27,0x0
    673c:	00428a93          	addi	x21,x5,4
    6740:	000d8d13          	mv	x26,x27
    6744:	015d0cb3          	add	x25,x26,x21
    6748:	018b1f93          	slli	x31,x22,0x18
    674c:	01fce833          	or	x16,x25,x31
    6750:	201c0bb7          	lui	x23,0x201c0
    6754:	01786533          	or	x10,x16,x23
    6758:	00100493          	li	x9,1
    675c:	00950023          	sb	x9,0(x10)
    6760:	0009a903          	lw	x18,0(x19)
    6764:	00700c13          	li	x24,7
    6768:	27890663          	beq	x18,x24,69d4 <.L1309>

0000676c <.L1260>:
    676c:	00100c93          	li	x25,1
    6770:	0100006f          	j	6780 <.L1265>

00006774 <.L1310>:
    6774:	000f8513          	mv	x10,x31
    6778:	140524af          	lr.w.aq	x9,(x10)
    677c:	01948a63          	beq	x9,x25,6790 <.L1264>

00006780 <.L1265>:
    6780:	00000fb7          	lui	x31,0x0
    6784:	000f8813          	mv	x16,x31
    6788:	10082baf          	lr.w	x23,(x16)
    678c:	ff9b94e3          	bne	x23,x25,6774 <.L1310>

00006790 <.L1264>:
    6790:	14c12083          	lw	x1,332(x2)
    6794:	14812403          	lw	x8,328(x2)
    6798:	00000937          	lui	x18,0x0
    679c:	00090c13          	mv	x24,x18
    67a0:	000c2023          	sw	x0,0(x24)
    67a4:	14412483          	lw	x9,324(x2)
    67a8:	14012903          	lw	x18,320(x2)
    67ac:	13c12983          	lw	x19,316(x2)
    67b0:	13812a03          	lw	x20,312(x2)
    67b4:	13412a83          	lw	x21,308(x2)
    67b8:	13012b03          	lw	x22,304(x2)
    67bc:	12c12b83          	lw	x23,300(x2)
    67c0:	12812c03          	lw	x24,296(x2)
    67c4:	12412c83          	lw	x25,292(x2)
    67c8:	12012d03          	lw	x26,288(x2)
    67cc:	11c12d83          	lw	x27,284(x2)
    67d0:	00000513          	li	x10,0
    67d4:	15010113          	addi	x2,x2,336
    67d8:	00008067          	ret

000067dc <.L1299>:
    67dc:	000000b7          	lui	x1,0x0
    67e0:	00000eb7          	lui	x29,0x0
    67e4:	00008593          	mv	x11,x1
    67e8:	06f00613          	li	x12,111
    67ec:	000e8513          	mv	x10,x29
    67f0:	00000097          	auipc	x1,0x0
    67f4:	000080e7          	jalr	x1 # 67f0 <.L1299+0x14>
    67f8:	09c12583          	lw	x11,156(x2)
    67fc:	00000ab7          	lui	x21,0x0
    6800:	000a8513          	mv	x10,x21
    6804:	00000097          	auipc	x1,0x0
    6808:	000080e7          	jalr	x1 # 6804 <.L1299+0x28>
    680c:	00000737          	lui	x14,0x0
    6810:	00072d83          	lw	x27,0(x14) # 0 <_Z21hb_tiled_foreach_implIfZL26convolution_backward_inputP11hb_tensor_tS1_S1_P11hb_vector_tS3_EUlvE_JEEvjjT0_8HBTensorIT_Lln1EEPS7_.isra.0>
    6814:	00000d37          	lui	x26,0x0
    6818:	000d2c83          	lw	x25,0(x26) # 0 <_Z21hb_tiled_foreach_implIfZL26convolution_backward_inputP11hb_tensor_tS1_S1_P11hb_vector_tS3_EUlvE_JEEvjjT0_8HBTensorIT_Lln1EEPS7_.isra.0>
    681c:	010d9f93          	slli	x31,x27,0x10
    6820:	4100fbb7          	lui	x23,0x4100f
    6824:	019f8833          	add	x16,x31,x25
    6828:	ad0bac23          	sw	x16,-1320(x23) # 4100ead8 <.L2120+0x410010fc>

0000682c <.L1202>:
    682c:	0000006f          	j	682c <.L1202>

00006830 <.L1298>:
    6830:	00000537          	lui	x10,0x0
    6834:	000004b7          	lui	x9,0x0
    6838:	00050593          	mv	x11,x10
    683c:	06f00613          	li	x12,111
    6840:	00048513          	mv	x10,x9
    6844:	00000097          	auipc	x1,0x0
    6848:	000080e7          	jalr	x1 # 6844 <.L1298+0x14>
    684c:	09c12583          	lw	x11,156(x2)
    6850:	00000937          	lui	x18,0x0
    6854:	00090513          	mv	x10,x18
    6858:	00000097          	auipc	x1,0x0
    685c:	000080e7          	jalr	x1 # 6858 <.L1298+0x28>
    6860:	00000c37          	lui	x24,0x0
    6864:	000c2e03          	lw	x28,0(x24) # 0 <_Z21hb_tiled_foreach_implIfZL26convolution_backward_inputP11hb_tensor_tS1_S1_P11hb_vector_tS3_EUlvE_JEEvjjT0_8HBTensorIT_Lln1EEPS7_.isra.0>
    6868:	00000437          	lui	x8,0x0
    686c:	00042a03          	lw	x20,0(x8) # 0 <_Z21hb_tiled_foreach_implIfZL26convolution_backward_inputP11hb_tensor_tS1_S1_P11hb_vector_tS3_EUlvE_JEEvjjT0_8HBTensorIT_Lln1EEPS7_.isra.0>
    6870:	010e1313          	slli	x6,x28,0x10
    6874:	4100f8b7          	lui	x17,0x4100f
    6878:	014306b3          	add	x13,x6,x20
    687c:	acd8ac23          	sw	x13,-1320(x17) # 4100ead8 <.L2120+0x410010fc>

00006880 <.L1200>:
    6880:	0000006f          	j	6880 <.L1200>

00006884 <.L1302>:
    6884:	000000b7          	lui	x1,0x0
    6888:	000002b7          	lui	x5,0x0
    688c:	00008593          	mv	x11,x1
    6890:	06f00613          	li	x12,111
    6894:	00028513          	mv	x10,x5
    6898:	00000097          	auipc	x1,0x0
    689c:	000080e7          	jalr	x1 # 6898 <.L1302+0x14>
    68a0:	06012583          	lw	x11,96(x2)
    68a4:	00000b37          	lui	x22,0x0
    68a8:	000b0513          	mv	x10,x22
    68ac:	00000097          	auipc	x1,0x0
    68b0:	000080e7          	jalr	x1 # 68ac <.L1302+0x28>
    68b4:	00000eb7          	lui	x29,0x0
    68b8:	000eaa83          	lw	x21,0(x29) # 0 <_Z21hb_tiled_foreach_implIfZL26convolution_backward_inputP11hb_tensor_tS1_S1_P11hb_vector_tS3_EUlvE_JEEvjjT0_8HBTensorIT_Lln1EEPS7_.isra.0>
    68bc:	00000737          	lui	x14,0x0
    68c0:	00072d83          	lw	x27,0(x14) # 0 <_Z21hb_tiled_foreach_implIfZL26convolution_backward_inputP11hb_tensor_tS1_S1_P11hb_vector_tS3_EUlvE_JEEvjjT0_8HBTensorIT_Lln1EEPS7_.isra.0>
    68c4:	010a9d13          	slli	x26,x21,0x10
    68c8:	4100ffb7          	lui	x31,0x4100f
    68cc:	01bd0cb3          	add	x25,x26,x27
    68d0:	ad9fac23          	sw	x25,-1320(x31) # 4100ead8 <.L2120+0x410010fc>

000068d4 <.L1208>:
    68d4:	0000006f          	j	68d4 <.L1208>

000068d8 <.L1300>:
    68d8:	000006b7          	lui	x13,0x0
    68dc:	000008b7          	lui	x17,0x0
    68e0:	06f00613          	li	x12,111
    68e4:	00068593          	mv	x11,x13
    68e8:	00088513          	mv	x10,x17
    68ec:	00000097          	auipc	x1,0x0
    68f0:	000080e7          	jalr	x1 # 68ec <.L1300+0x14>
    68f4:	09c12583          	lw	x11,156(x2)
    68f8:	000003b7          	lui	x7,0x0
    68fc:	00038513          	mv	x10,x7
    6900:	00000097          	auipc	x1,0x0
    6904:	000080e7          	jalr	x1 # 6900 <.L1300+0x28>
    6908:	000005b7          	lui	x11,0x0
    690c:	0005af03          	lw	x30,0(x11) # 0 <_Z21hb_tiled_foreach_implIfZL26convolution_backward_inputP11hb_tensor_tS1_S1_P11hb_vector_tS3_EUlvE_JEEvjjT0_8HBTensorIT_Lln1EEPS7_.isra.0>
    6910:	00000637          	lui	x12,0x0
    6914:	00062983          	lw	x19,0(x12) # 0 <_Z21hb_tiled_foreach_implIfZL26convolution_backward_inputP11hb_tensor_tS1_S1_P11hb_vector_tS3_EUlvE_JEEvjjT0_8HBTensorIT_Lln1EEPS7_.isra.0>
    6918:	010f1793          	slli	x15,x30,0x10
    691c:	4100fb37          	lui	x22,0x4100f
    6920:	013782b3          	add	x5,x15,x19
    6924:	ac5b2c23          	sw	x5,-1320(x22) # 4100ead8 <.L2120+0x410010fc>

00006928 <.L1204>:
    6928:	0000006f          	j	6928 <.L1204>

0000692c <.L1301>:
    692c:	00000837          	lui	x16,0x0
    6930:	00000bb7          	lui	x23,0x0
    6934:	00080593          	mv	x11,x16
    6938:	06f00613          	li	x12,111
    693c:	000b8513          	mv	x10,x23
    6940:	00000097          	auipc	x1,0x0
    6944:	000080e7          	jalr	x1 # 6940 <.L1301+0x14>
    6948:	09c12583          	lw	x11,156(x2)
    694c:	00000537          	lui	x10,0x0
    6950:	00050513          	mv	x10,x10
    6954:	000004b7          	lui	x9,0x0
    6958:	00000097          	auipc	x1,0x0
    695c:	000080e7          	jalr	x1 # 6958 <.L1301+0x2c>
    6960:	00000c37          	lui	x24,0x0
    6964:	0004a903          	lw	x18,0(x9) # 0 <_Z21hb_tiled_foreach_implIfZL26convolution_backward_inputP11hb_tensor_tS1_S1_P11hb_vector_tS3_EUlvE_JEEvjjT0_8HBTensorIT_Lln1EEPS7_.isra.0>
    6968:	000c2e03          	lw	x28,0(x24) # 0 <_Z21hb_tiled_foreach_implIfZL26convolution_backward_inputP11hb_tensor_tS1_S1_P11hb_vector_tS3_EUlvE_JEEvjjT0_8HBTensorIT_Lln1EEPS7_.isra.0>
    696c:	4100f337          	lui	x6,0x4100f
    6970:	01091413          	slli	x8,x18,0x10
    6974:	01c40a33          	add	x20,x8,x28
    6978:	ad432c23          	sw	x20,-1320(x6) # 4100ead8 <.L2120+0x410010fc>

0000697c <.L1206>:
    697c:	0000006f          	j	697c <.L1206>

00006980 <.L1305>:
    6980:	000000b7          	lui	x1,0x0
    6984:	000007b7          	lui	x15,0x0
    6988:	00008593          	mv	x11,x1
    698c:	06f00613          	li	x12,111
    6990:	00078513          	mv	x10,x15
    6994:	00000097          	auipc	x1,0x0
    6998:	000080e7          	jalr	x1 # 6994 <.L1305+0x14>
    699c:	0d812583          	lw	x11,216(x2)
    69a0:	000009b7          	lui	x19,0x0
    69a4:	00098513          	mv	x10,x19
    69a8:	00000097          	auipc	x1,0x0
    69ac:	000080e7          	jalr	x1 # 69a8 <.L1305+0x28>
    69b0:	000002b7          	lui	x5,0x0
    69b4:	0002ab03          	lw	x22,0(x5) # 0 <_Z21hb_tiled_foreach_implIfZL26convolution_backward_inputP11hb_tensor_tS1_S1_P11hb_vector_tS3_EUlvE_JEEvjjT0_8HBTensorIT_Lln1EEPS7_.isra.0>
    69b8:	00000eb7          	lui	x29,0x0
    69bc:	000ea703          	lw	x14,0(x29) # 0 <_Z21hb_tiled_foreach_implIfZL26convolution_backward_inputP11hb_tensor_tS1_S1_P11hb_vector_tS3_EUlvE_JEEvjjT0_8HBTensorIT_Lln1EEPS7_.isra.0>
    69c0:	010b1a93          	slli	x21,x22,0x10
    69c4:	4100fd37          	lui	x26,0x4100f
    69c8:	00ea8db3          	add	x27,x21,x14
    69cc:	adbd2c23          	sw	x27,-1320(x26) # 4100ead8 <.L2120+0x410010fc>

000069d0 <.L1214>:
    69d0:	0000006f          	j	69d0 <.L1214>

000069d4 <.L1309>:
    69d4:	00000e37          	lui	x28,0x0
    69d8:	00000a37          	lui	x20,0x0
    69dc:	004e0413          	addi	x8,x28,4 # 4 <_Z21hb_tiled_foreach_implIfZL26convolution_backward_inputP11hb_tensor_tS1_S1_P11hb_vector_tS3_EUlvE_JEEvjjT0_8HBTensorIT_Lln1EEPS7_.isra.0+0x4>
    69e0:	014a0e93          	addi	x29,x20,20 # 14 <.L8>

000069e4 <.L1236>:
    69e4:	00040313          	mv	x6,x8

000069e8 <.L1253>:
    69e8:	00034583          	lbu	x11,0(x6)
    69ec:	00130313          	addi	x6,x6,1
    69f0:	0ff5f713          	andi	x14,x11,255
    69f4:	fe0708e3          	beqz	x14,69e4 <.L1236>
    69f8:	fe6e98e3          	bne	x29,x6,69e8 <.L1253>
    69fc:	000007b7          	lui	x15,0x0
    6a00:	0007a683          	lw	x13,0(x15) # 0 <_Z21hb_tiled_foreach_implIfZL26convolution_backward_inputP11hb_tensor_tS1_S1_P11hb_vector_tS3_EUlvE_JEEvjjT0_8HBTensorIT_Lln1EEPS7_.isra.0>
    6a04:	00000637          	lui	x12,0x0
    6a08:	00060393          	mv	x7,x12
    6a0c:	01868893          	addi	x17,x13,24 # 18 <.L8+0x4>
    6a10:	01138f33          	add	x30,x7,x17
    6a14:	231c00b7          	lui	x1,0x231c0
    6a18:	001f69b3          	or	x19,x30,x1
    6a1c:	00100293          	li	x5,1
    6a20:	00598023          	sb	x5,0(x19) # 0 <_Z21hb_tiled_foreach_implIfZL26convolution_backward_inputP11hb_tensor_tS1_S1_P11hb_vector_tS3_EUlvE_JEEvjjT0_8HBTensorIT_Lln1EEPS7_.isra.0>
    6a24:	00000b37          	lui	x22,0x0
    6a28:	000b2a83          	lw	x21,0(x22) # 0 <_Z21hb_tiled_foreach_implIfZL26convolution_backward_inputP11hb_tensor_tS1_S1_P11hb_vector_tS3_EUlvE_JEEvjjT0_8HBTensorIT_Lln1EEPS7_.isra.0>
    6a2c:	00700d93          	li	x27,7
    6a30:	d3ba9ee3          	bne	x21,x27,676c <.L1260>
    6a34:	00000d37          	lui	x26,0x0
    6a38:	000d2c83          	lw	x25,0(x26) # 0 <_Z21hb_tiled_foreach_implIfZL26convolution_backward_inputP11hb_tensor_tS1_S1_P11hb_vector_tS3_EUlvE_JEEvjjT0_8HBTensorIT_Lln1EEPS7_.isra.0>
    6a3c:	00300f93          	li	x31,3
    6a40:	29fc8663          	beq	x25,x31,6ccc <.L1311>

00006a44 <.L1259>:
    6a44:	00100d93          	li	x27,1
    6a48:	0140006f          	j	6a5c <.L1255>

00006a4c <.L1312>:
    6a4c:	000d0b93          	mv	x23,x26
    6a50:	014b8513          	addi	x10,x23,20 # 14 <.L8>
    6a54:	140524af          	lr.w.aq	x9,(x10)
    6a58:	01b48c63          	beq	x9,x27,6a70 <.L1261>

00006a5c <.L1255>:
    6a5c:	00000d37          	lui	x26,0x0
    6a60:	000d0c93          	mv	x25,x26
    6a64:	014c8f93          	addi	x31,x25,20
    6a68:	100fa82f          	lr.w	x16,(x31)
    6a6c:	ffb810e3          	bne	x16,x27,6a4c <.L1312>

00006a70 <.L1261>:
    6a70:	00000937          	lui	x18,0x0
    6a74:	00090c13          	mv	x24,x18
    6a78:	000c2a23          	sw	x0,20(x24)
    6a7c:	00000313          	li	x6,0
    6a80:	01000e13          	li	x28,16

00006a84 <.L1262>:
    6a84:	00000437          	lui	x8,0x0
    6a88:	00040a13          	mv	x20,x8
    6a8c:	006a05b3          	add	x11,x20,x6
    6a90:	00058223          	sb	x0,4(x11)
    6a94:	00130313          	addi	x6,x6,1
    6a98:	ffc316e3          	bne	x6,x28,6a84 <.L1262>
    6a9c:	000006b7          	lui	x13,0x0
    6aa0:	00068893          	mv	x17,x13
    6aa4:	0008a023          	sw	x0,0(x17) # 0 <_Z21hb_tiled_foreach_implIfZL26convolution_backward_inputP11hb_tensor_tS1_S1_P11hb_vector_tS3_EUlvE_JEEvjjT0_8HBTensorIT_Lln1EEPS7_.isra.0>
    6aa8:	00000713          	li	x14,0
    6aac:	200003b7          	lui	x7,0x20000
    6ab0:	00100f13          	li	x30,1
    6ab4:	000400b7          	lui	x1,0x40
    6ab8:	00400637          	lui	x12,0x400

00006abc <.L1263>:
    6abc:	000007b7          	lui	x15,0x0
    6ac0:	0007a983          	lw	x19,0(x15) # 0 <_Z21hb_tiled_foreach_implIfZL26convolution_backward_inputP11hb_tensor_tS1_S1_P11hb_vector_tS3_EUlvE_JEEvjjT0_8HBTensorIT_Lln1EEPS7_.isra.0>
    6ac4:	000002b7          	lui	x5,0x0
    6ac8:	00028b13          	mv	x22,x5
    6acc:	00eb6eb3          	or	x29,x22,x14
    6ad0:	01899a93          	slli	x21,x19,0x18
    6ad4:	01daedb3          	or	x27,x21,x29
    6ad8:	007ded33          	or	x26,x27,x7
    6adc:	00170733          	add	x14,x14,x1
    6ae0:	01ed2023          	sw	x30,0(x26) # 0 <_Z21hb_tiled_foreach_implIfZL26convolution_backward_inputP11hb_tensor_tS1_S1_P11hb_vector_tS3_EUlvE_JEEvjjT0_8HBTensorIT_Lln1EEPS7_.isra.0>
    6ae4:	fcc71ce3          	bne	x14,x12,6abc <.L1263>
    6ae8:	c85ff06f          	j	676c <.L1260>

00006aec <.L1307>:
    6aec:	000000b7          	lui	x1,0x0
    6af0:	000004b7          	lui	x9,0x0
    6af4:	00408f93          	addi	x31,x1,4 # 4 <_Z21hb_tiled_foreach_implIfZL26convolution_backward_inputP11hb_tensor_tS1_S1_P11hb_vector_tS3_EUlvE_JEEvjjT0_8HBTensorIT_Lln1EEPS7_.isra.0+0x4>
    6af8:	01448413          	addi	x8,x9,20 # 14 <.L8>

00006afc <.L1220>:
    6afc:	000f8913          	mv	x18,x31

00006b00 <.L1222>:
    6b00:	00094983          	lbu	x19,0(x18) # 0 <_Z21hb_tiled_foreach_implIfZL26convolution_backward_inputP11hb_tensor_tS1_S1_P11hb_vector_tS3_EUlvE_JEEvjjT0_8HBTensorIT_Lln1EEPS7_.isra.0>
    6b04:	00190913          	addi	x18,x18,1
    6b08:	0ff9f293          	andi	x5,x19,255
    6b0c:	fe0288e3          	beqz	x5,6afc <.L1220>
    6b10:	ff2418e3          	bne	x8,x18,6b00 <.L1222>
    6b14:	000005b7          	lui	x11,0x0
    6b18:	0005a683          	lw	x13,0(x11) # 0 <_Z21hb_tiled_foreach_implIfZL26convolution_backward_inputP11hb_tensor_tS1_S1_P11hb_vector_tS3_EUlvE_JEEvjjT0_8HBTensorIT_Lln1EEPS7_.isra.0>
    6b1c:	00000337          	lui	x6,0x0
    6b20:	00030793          	mv	x15,x6
    6b24:	01868613          	addi	x12,x13,24 # 18 <.L8+0x4>
    6b28:	00c783b3          	add	x7,x15,x12
    6b2c:	231c0537          	lui	x10,0x231c0
    6b30:	00a3e833          	or	x16,x7,x10
    6b34:	00100893          	li	x17,1
    6b38:	01180023          	sb	x17,0(x16) # 0 <_Z21hb_tiled_foreach_implIfZL26convolution_backward_inputP11hb_tensor_tS1_S1_P11hb_vector_tS3_EUlvE_JEEvjjT0_8HBTensorIT_Lln1EEPS7_.isra.0>
    6b3c:	00000ab7          	lui	x21,0x0
    6b40:	000aa683          	lw	x13,0(x21) # 0 <_Z21hb_tiled_foreach_implIfZL26convolution_backward_inputP11hb_tensor_tS1_S1_P11hb_vector_tS3_EUlvE_JEEvjjT0_8HBTensorIT_Lln1EEPS7_.isra.0>
    6b44:	00700c13          	li	x24,7
    6b48:	04d12623          	sw	x13,76(x2)
    6b4c:	938698e3          	bne	x13,x24,647c <.L1229>
    6b50:	00000e37          	lui	x28,0x0
    6b54:	000e2e83          	lw	x29,0(x28) # 0 <_Z21hb_tiled_foreach_implIfZL26convolution_backward_inputP11hb_tensor_tS1_S1_P11hb_vector_tS3_EUlvE_JEEvjjT0_8HBTensorIT_Lln1EEPS7_.isra.0>
    6b58:	00300713          	li	x14,3
    6b5c:	0aee8c63          	beq	x29,x14,6c14 <.L1313>

00006b60 <.L1228>:
    6b60:	00100493          	li	x9,1
    6b64:	0140006f          	j	6b78 <.L1224>

00006b68 <.L1314>:
    6b68:	00098613          	mv	x12,x19
    6b6c:	01460313          	addi	x6,x12,20 # 400014 <.L2120+0x3f2638>
    6b70:	140327af          	lr.w.aq	x15,(x6)
    6b74:	00978c63          	beq	x15,x9,6b8c <.L1230>

00006b78 <.L1224>:
    6b78:	000009b7          	lui	x19,0x0
    6b7c:	00098913          	mv	x18,x19
    6b80:	01490293          	addi	x5,x18,20
    6b84:	1002a5af          	lr.w	x11,(x5)
    6b88:	fe9590e3          	bne	x11,x9,6b68 <.L1314>

00006b8c <.L1230>:
    6b8c:	000003b7          	lui	x7,0x0
    6b90:	00038513          	mv	x10,x7
    6b94:	00052a23          	sw	x0,20(x10) # 231c0014 <.L2120+0x231b2638>
    6b98:	00000c13          	li	x24,0
    6b9c:	01000813          	li	x16,16

00006ba0 <.L1231>:
    6ba0:	000008b7          	lui	x17,0x0
    6ba4:	00088a93          	mv	x21,x17
    6ba8:	018a8bb3          	add	x23,x21,x24
    6bac:	000b8223          	sb	x0,4(x23)
    6bb0:	001c0c13          	addi	x24,x24,1
    6bb4:	ff0c16e3          	bne	x24,x16,6ba0 <.L1231>
    6bb8:	00000e37          	lui	x28,0x0
    6bbc:	000e0e93          	mv	x29,x28
    6bc0:	000ea023          	sw	x0,0(x29)
    6bc4:	00000713          	li	x14,0
    6bc8:	20000f37          	lui	x30,0x20000
    6bcc:	00100413          	li	x8,1
    6bd0:	000400b7          	lui	x1,0x40
    6bd4:	004006b7          	lui	x13,0x400

00006bd8 <.L1232>:
    6bd8:	00000fb7          	lui	x31,0x0
    6bdc:	000fa483          	lw	x9,0(x31) # 0 <_Z21hb_tiled_foreach_implIfZL26convolution_backward_inputP11hb_tensor_tS1_S1_P11hb_vector_tS3_EUlvE_JEEvjjT0_8HBTensorIT_Lln1EEPS7_.isra.0>
    6be0:	000009b7          	lui	x19,0x0
    6be4:	00098913          	mv	x18,x19
    6be8:	00e962b3          	or	x5,x18,x14
    6bec:	01849593          	slli	x11,x9,0x18
    6bf0:	0055e633          	or	x12,x11,x5
    6bf4:	01e66333          	or	x6,x12,x30
    6bf8:	00170733          	add	x14,x14,x1
    6bfc:	00832023          	sw	x8,0(x6) # 0 <_Z21hb_tiled_foreach_implIfZL26convolution_backward_inputP11hb_tensor_tS1_S1_P11hb_vector_tS3_EUlvE_JEEvjjT0_8HBTensorIT_Lln1EEPS7_.isra.0>
    6c00:	fcd71ce3          	bne	x14,x13,6bd8 <.L1232>
    6c04:	000007b7          	lui	x15,0x0
    6c08:	0007a383          	lw	x7,0(x15) # 0 <_Z21hb_tiled_foreach_implIfZL26convolution_backward_inputP11hb_tensor_tS1_S1_P11hb_vector_tS3_EUlvE_JEEvjjT0_8HBTensorIT_Lln1EEPS7_.isra.0>
    6c0c:	04712623          	sw	x7,76(x2)
    6c10:	86dff06f          	j	647c <.L1229>

00006c14 <.L1313>:
    6c14:	00000f37          	lui	x30,0x0
    6c18:	00000fb7          	lui	x31,0x0
    6c1c:	018f0093          	addi	x1,x30,24 # 18 <.L8+0x4>
    6c20:	020f8493          	addi	x9,x31,32 # 20 <.L8+0xc>

00006c24 <.L1223>:
    6c24:	00008913          	mv	x18,x1

00006c28 <.L1225>:
    6c28:	00094983          	lbu	x19,0(x18)
    6c2c:	00190913          	addi	x18,x18,1
    6c30:	0ff9f293          	andi	x5,x19,255
    6c34:	fe0288e3          	beqz	x5,6c24 <.L1223>
    6c38:	ff2498e3          	bne	x9,x18,6c28 <.L1225>
    6c3c:	000005b7          	lui	x11,0x0
    6c40:	00058613          	mv	x12,x11
    6c44:	00060c23          	sb	x0,24(x12)
    6c48:	00060ca3          	sb	x0,25(x12)
    6c4c:	00060d23          	sb	x0,26(x12)
    6c50:	00060da3          	sb	x0,27(x12)
    6c54:	00060e23          	sb	x0,28(x12)
    6c58:	00060ea3          	sb	x0,29(x12)
    6c5c:	00060f23          	sb	x0,30(x12)
    6c60:	00060fa3          	sb	x0,31(x12)
    6c64:	00058313          	mv	x6,x11
    6c68:	04c12f03          	lw	x30,76(x2)
    6c6c:	00032a23          	sw	x0,20(x6)
    6c70:	00000693          	li	x13,0
    6c74:	03fc07b7          	lui	x15,0x3fc0
    6c78:	200003b7          	lui	x7,0x20000
    6c7c:	00100513          	li	x10,1
    6c80:	01000837          	lui	x16,0x1000
    6c84:	080008b7          	lui	x17,0x8000
    6c88:	00c0006f          	j	6c94 <.L1227>

00006c8c <.L1315>:
    6c8c:	00000737          	lui	x14,0x0
    6c90:	00072f03          	lw	x30,0(x14) # 0 <_Z21hb_tiled_foreach_implIfZL26convolution_backward_inputP11hb_tensor_tS1_S1_P11hb_vector_tS3_EUlvE_JEEvjjT0_8HBTensorIT_Lln1EEPS7_.isra.0>

00006c94 <.L1227>:
    6c94:	012f1a93          	slli	x21,x30,0x12
    6c98:	00d46bb3          	or	x23,x8,x13
    6c9c:	00fafc33          	and	x24,x21,x15
    6ca0:	017c6e33          	or	x28,x24,x23
    6ca4:	007e6eb3          	or	x29,x28,x7
    6ca8:	00aea023          	sw	x10,0(x29)
    6cac:	010686b3          	add	x13,x13,x16
    6cb0:	fd169ee3          	bne	x13,x17,6c8c <.L1315>
    6cb4:	00000437          	lui	x8,0x0
    6cb8:	00042703          	lw	x14,0(x8) # 0 <_Z21hb_tiled_foreach_implIfZL26convolution_backward_inputP11hb_tensor_tS1_S1_P11hb_vector_tS3_EUlvE_JEEvjjT0_8HBTensorIT_Lln1EEPS7_.isra.0>
    6cbc:	00700f93          	li	x31,7
    6cc0:	04e12623          	sw	x14,76(x2)
    6cc4:	e9f70ee3          	beq	x14,x31,6b60 <.L1228>
    6cc8:	fb4ff06f          	j	647c <.L1229>

00006ccc <.L1311>:
    6ccc:	00000837          	lui	x16,0x0
    6cd0:	00000537          	lui	x10,0x0
    6cd4:	01880b93          	addi	x23,x16,24 # 18 <.L8+0x4>
    6cd8:	02050493          	addi	x9,x10,32 # 20 <.L8+0xc>

00006cdc <.L1254>:
    6cdc:	000b8c13          	mv	x24,x23

00006ce0 <.L1256>:
    6ce0:	000c4903          	lbu	x18,0(x24)
    6ce4:	001c0c13          	addi	x24,x24,1
    6ce8:	0ff97e13          	andi	x28,x18,255
    6cec:	fe0e08e3          	beqz	x28,6cdc <.L1254>
    6cf0:	ff8498e3          	bne	x9,x24,6ce0 <.L1256>
    6cf4:	00000437          	lui	x8,0x0
    6cf8:	00040a13          	mv	x20,x8
    6cfc:	000a0c23          	sb	x0,24(x20)
    6d00:	000a0ca3          	sb	x0,25(x20)
    6d04:	000a0d23          	sb	x0,26(x20)
    6d08:	000a0da3          	sb	x0,27(x20)
    6d0c:	000a0e23          	sb	x0,28(x20)
    6d10:	000a0ea3          	sb	x0,29(x20)
    6d14:	000a0f23          	sb	x0,30(x20)
    6d18:	000a0fa3          	sb	x0,31(x20)
    6d1c:	00040593          	mv	x11,x8
    6d20:	0005aa23          	sw	x0,20(x11) # 14 <.L8>
    6d24:	00000713          	li	x14,0
    6d28:	03fc0337          	lui	x6,0x3fc0
    6d2c:	200006b7          	lui	x13,0x20000
    6d30:	00100893          	li	x17,1
    6d34:	010003b7          	lui	x7,0x1000
    6d38:	08000f37          	lui	x30,0x8000
    6d3c:	0080006f          	j	6d44 <.L1258>

00006d40 <.L1316>:
    6d40:	000b2a83          	lw	x21,0(x22)

00006d44 <.L1258>:
    6d44:	012a9793          	slli	x15,x21,0x12
    6d48:	00eee633          	or	x12,x29,x14
    6d4c:	0067f0b3          	and	x1,x15,x6
    6d50:	00c0e9b3          	or	x19,x1,x12
    6d54:	00d9e2b3          	or	x5,x19,x13
    6d58:	0112a023          	sw	x17,0(x5) # 0 <_Z21hb_tiled_foreach_implIfZL26convolution_backward_inputP11hb_tensor_tS1_S1_P11hb_vector_tS3_EUlvE_JEEvjjT0_8HBTensorIT_Lln1EEPS7_.isra.0>
    6d5c:	00770733          	add	x14,x14,x7
    6d60:	00000b37          	lui	x22,0x0
    6d64:	fde71ee3          	bne	x14,x30,6d40 <.L1316>
    6d68:	000b2e83          	lw	x29,0(x22) # 0 <_Z21hb_tiled_foreach_implIfZL26convolution_backward_inputP11hb_tensor_tS1_S1_P11hb_vector_tS3_EUlvE_JEEvjjT0_8HBTensorIT_Lln1EEPS7_.isra.0>
    6d6c:	00700a93          	li	x21,7
    6d70:	cd5e8ae3          	beq	x29,x21,6a44 <.L1259>
    6d74:	9f9ff06f          	j	676c <.L1260>

00006d78 <.L1303>:
    6d78:	00000337          	lui	x6,0x0
    6d7c:	00000a37          	lui	x20,0x0
    6d80:	06f00613          	li	x12,111
    6d84:	000a0593          	mv	x11,x20
    6d88:	00030513          	mv	x10,x6
    6d8c:	00000097          	auipc	x1,0x0
    6d90:	000080e7          	jalr	x1 # 6d8c <.L1303+0x14>
    6d94:	06012583          	lw	x11,96(x2)
    6d98:	000006b7          	lui	x13,0x0
    6d9c:	00068513          	mv	x10,x13
    6da0:	00000097          	auipc	x1,0x0
    6da4:	000080e7          	jalr	x1 # 6da0 <.L1303+0x28>
    6da8:	000005b7          	lui	x11,0x0
    6dac:	0005a883          	lw	x17,0(x11) # 0 <_Z21hb_tiled_foreach_implIfZL26convolution_backward_inputP11hb_tensor_tS1_S1_P11hb_vector_tS3_EUlvE_JEEvjjT0_8HBTensorIT_Lln1EEPS7_.isra.0>
    6db0:	000003b7          	lui	x7,0x0
    6db4:	0003af03          	lw	x30,0(x7) # 0 <_Z21hb_tiled_foreach_implIfZL26convolution_backward_inputP11hb_tensor_tS1_S1_P11hb_vector_tS3_EUlvE_JEEvjjT0_8HBTensorIT_Lln1EEPS7_.isra.0>
    6db8:	01089613          	slli	x12,x17,0x10
    6dbc:	4100f9b7          	lui	x19,0x4100f
    6dc0:	01e607b3          	add	x15,x12,x30
    6dc4:	acf9ac23          	sw	x15,-1320(x19) # 4100ead8 <.L2120+0x410010fc>

00006dc8 <.L1210>:
    6dc8:	0000006f          	j	6dc8 <.L1210>

00006dcc <.L1304>:
    6dcc:	00000fb7          	lui	x31,0x0
    6dd0:	00000cb7          	lui	x25,0x0
    6dd4:	06f00613          	li	x12,111
    6dd8:	000c8593          	mv	x11,x25
    6ddc:	000f8513          	mv	x10,x31
    6de0:	00000097          	auipc	x1,0x0
    6de4:	000080e7          	jalr	x1 # 6de0 <.L1304+0x14>
    6de8:	06012583          	lw	x11,96(x2)
    6dec:	00000837          	lui	x16,0x0
    6df0:	00080513          	mv	x10,x16
    6df4:	00000097          	auipc	x1,0x0
    6df8:	000080e7          	jalr	x1 # 6df4 <.L1304+0x28>
    6dfc:	00000bb7          	lui	x23,0x0
    6e00:	000ba503          	lw	x10,0(x23) # 0 <_Z21hb_tiled_foreach_implIfZL26convolution_backward_inputP11hb_tensor_tS1_S1_P11hb_vector_tS3_EUlvE_JEEvjjT0_8HBTensorIT_Lln1EEPS7_.isra.0>
    6e04:	000004b7          	lui	x9,0x0
    6e08:	0004a903          	lw	x18,0(x9) # 0 <_Z21hb_tiled_foreach_implIfZL26convolution_backward_inputP11hb_tensor_tS1_S1_P11hb_vector_tS3_EUlvE_JEEvjjT0_8HBTensorIT_Lln1EEPS7_.isra.0>
    6e0c:	01051c13          	slli	x24,x10,0x10
    6e10:	4100f437          	lui	x8,0x4100f
    6e14:	012c0e33          	add	x28,x24,x18
    6e18:	adc42c23          	sw	x28,-1320(x8) # 4100ead8 <.L2120+0x410010fc>

00006e1c <.L1212>:
    6e1c:	0000006f          	j	6e1c <.L1212>

00006e20 <.L1306>:
    6e20:	00000e37          	lui	x28,0x0
    6e24:	00000437          	lui	x8,0x0
    6e28:	06f00613          	li	x12,111
    6e2c:	000e0593          	mv	x11,x28
    6e30:	00040513          	mv	x10,x8
    6e34:	00000097          	auipc	x1,0x0
    6e38:	000080e7          	jalr	x1 # 6e34 <.L1306+0x14>
    6e3c:	0d812583          	lw	x11,216(x2)
    6e40:	00000a37          	lui	x20,0x0
    6e44:	000a0513          	mv	x10,x20
    6e48:	00000097          	auipc	x1,0x0
    6e4c:	000080e7          	jalr	x1 # 6e48 <.L1306+0x28>
    6e50:	000005b7          	lui	x11,0x0
    6e54:	0005a303          	lw	x6,0(x11) # 0 <_Z21hb_tiled_foreach_implIfZL26convolution_backward_inputP11hb_tensor_tS1_S1_P11hb_vector_tS3_EUlvE_JEEvjjT0_8HBTensorIT_Lln1EEPS7_.isra.0>
    6e58:	000006b7          	lui	x13,0x0
    6e5c:	0006a883          	lw	x17,0(x13) # 0 <_Z21hb_tiled_foreach_implIfZL26convolution_backward_inputP11hb_tensor_tS1_S1_P11hb_vector_tS3_EUlvE_JEEvjjT0_8HBTensorIT_Lln1EEPS7_.isra.0>
    6e60:	01031393          	slli	x7,x6,0x10
    6e64:	4100f637          	lui	x12,0x4100f
    6e68:	01138f33          	add	x30,x7,x17
    6e6c:	ade62c23          	sw	x30,-1320(x12) # 4100ead8 <.L2120+0x410010fc>

00006e70 <.L1216>:
    6e70:	0000006f          	j	6e70 <.L1216>

00006e74 <.L1269>:
    6e74:	00000593          	li	x11,0
    6e78:	00000513          	li	x10,0
    6e7c:	db0ff06f          	j	642c <.L1217>

00006e80 <tensorlib_convolution_backward_input>:
    6e80:	f0010113          	addi	x2,x2,-256
    6e84:	0e912a23          	sw	x9,244(x2)
    6e88:	00050493          	mv	x9,x10
    6e8c:	02410513          	addi	x10,x2,36
    6e90:	0e112e23          	sw	x1,252(x2)
    6e94:	0e812c23          	sw	x8,248(x2)
    6e98:	0f212823          	sw	x18,240(x2)
    6e9c:	00060413          	mv	x8,x12
    6ea0:	0f312623          	sw	x19,236(x2)
    6ea4:	0f412423          	sw	x20,232(x2)
    6ea8:	00070993          	mv	x19,x14
    6eac:	00068a13          	mv	x20,x13
    6eb0:	00058913          	mv	x18,x11
    6eb4:	0f512223          	sw	x21,228(x2)
    6eb8:	0f612023          	sw	x22,224(x2)
    6ebc:	0d712e23          	sw	x23,220(x2)
    6ec0:	0d812c23          	sw	x24,216(x2)
    6ec4:	0d912a23          	sw	x25,212(x2)
    6ec8:	0da12823          	sw	x26,208(x2)
    6ecc:	0db12623          	sw	x27,204(x2)
    6ed0:	00000097          	auipc	x1,0x0
    6ed4:	000080e7          	jalr	x1 # 6ed0 <tensorlib_convolution_backward_input+0x50>
    6ed8:	00048593          	mv	x11,x9
    6edc:	05810513          	addi	x10,x2,88
    6ee0:	00000097          	auipc	x1,0x0
    6ee4:	000080e7          	jalr	x1 # 6ee0 <tensorlib_convolution_backward_input+0x60>
    6ee8:	00040593          	mv	x11,x8
    6eec:	08c10513          	addi	x10,x2,140
    6ef0:	00000097          	auipc	x1,0x0
    6ef4:	000080e7          	jalr	x1 # 6ef0 <tensorlib_convolution_backward_input+0x70>
    6ef8:	02812783          	lw	x15,40(x2)
    6efc:	38078e63          	beqz	x15,7298 <.L1749>
    6f00:	00100713          	li	x14,1
    6f04:	34f77063          	bgeu	x14,x15,7244 <.L1750>
    6f08:	00200693          	li	x13,2
    6f0c:	42d78a63          	beq	x15,x13,7340 <.L1751>
    6f10:	00300613          	li	x12,3
    6f14:	48c78063          	beq	x15,x12,7394 <.L1752>
    6f18:	05c12083          	lw	x1,92(x2)
    6f1c:	3c177863          	bgeu	x14,x1,72ec <.L1753>
    6f20:	50d08e63          	beq	x1,x13,743c <.L1754>
    6f24:	56c08663          	beq	x1,x12,7490 <.L1755>
    6f28:	09012283          	lw	x5,144(x2)
    6f2c:	4a56fe63          	bgeu	x13,x5,73e8 <.L1756>
    6f30:	5ac28a63          	beq	x5,x12,74e4 <.L1757>
    6f34:	03012383          	lw	x7,48(x2)
    6f38:	06412a83          	lw	x21,100(x2)
    6f3c:	004a2b03          	lw	x22,4(x20) # 4 <_Z21hb_tiled_foreach_implIfZL26convolution_backward_inputP11hb_tensor_tS1_S1_P11hb_vector_tS3_EUlvE_JEEvjjT0_8HBTensorIT_Lln1EEPS7_.isra.0+0x4>
    6f40:	0049ab83          	lw	x23,4(x19)
    6f44:	09812583          	lw	x11,152(x2)
    6f48:	0003a803          	lw	x16,0(x7)
    6f4c:	00800513          	li	x10,8
    6f50:	0043a883          	lw	x17,4(x7)
    6f54:	0083a303          	lw	x6,8(x7)
    6f58:	00c3af83          	lw	x31,12(x7)
    6f5c:	004aae83          	lw	x29,4(x21)
    6f60:	008aaf03          	lw	x30,8(x21)
    6f64:	00caac03          	lw	x24,12(x21)
    6f68:	0085ae03          	lw	x28,8(x11)
    6f6c:	00c5ac83          	lw	x25,12(x11)
    6f70:	000bad03          	lw	x26,0(x23)
    6f74:	004bad83          	lw	x27,4(x23)
    6f78:	000b2783          	lw	x15,0(x22)
    6f7c:	004b2683          	lw	x13,4(x22)
    6f80:	5aa80c63          	beq	x16,x10,7538 <.L1758>

00006f84 <.L1336>:
    6f84:	00090593          	mv	x11,x18
    6f88:	02410513          	addi	x10,x2,36
    6f8c:	00000097          	auipc	x1,0x0
    6f90:	000080e7          	jalr	x1 # 6f8c <.L1336+0x8>
    6f94:	00048593          	mv	x11,x9
    6f98:	05810513          	addi	x10,x2,88
    6f9c:	00000097          	auipc	x1,0x0
    6fa0:	000080e7          	jalr	x1 # 6f9c <.L1336+0x18>
    6fa4:	00040593          	mv	x11,x8
    6fa8:	08c10513          	addi	x10,x2,140
    6fac:	00000097          	auipc	x1,0x0
    6fb0:	000080e7          	jalr	x1 # 6fac <.L1336+0x28>
    6fb4:	02812a83          	lw	x21,40(x2)
    6fb8:	380a8ce3          	beqz	x21,7b50 <.L1759>
    6fbc:	00100b13          	li	x22,1
    6fc0:	3f5b72e3          	bgeu	x22,x21,7ba4 <.L1760>
    6fc4:	00200b93          	li	x23,2
    6fc8:	437a88e3          	beq	x21,x23,7bf8 <.L1761>
    6fcc:	00300593          	li	x11,3
    6fd0:	46ba8ee3          	beq	x21,x11,7c4c <.L1762>
    6fd4:	05c12803          	lw	x16,92(x2)
    6fd8:	4d0b74e3          	bgeu	x22,x16,7ca0 <.L1763>
    6fdc:	51780ce3          	beq	x16,x23,7cf4 <.L1764>
    6fe0:	56b804e3          	beq	x16,x11,7d48 <.L1765>
    6fe4:	09012503          	lw	x10,144(x2)
    6fe8:	5aabfae3          	bgeu	x23,x10,7d9c <.L1766>
    6fec:	60b502e3          	beq	x10,x11,7df0 <.L1767>
    6ff0:	03012e83          	lw	x29,48(x2)
    6ff4:	06412c03          	lw	x24,100(x2)
    6ff8:	004a2883          	lw	x17,4(x20)
    6ffc:	0049a303          	lw	x6,4(x19)
    7000:	09812e03          	lw	x28,152(x2)
    7004:	000eac83          	lw	x25,0(x29)
    7008:	00800f93          	li	x31,8
    700c:	004ead03          	lw	x26,4(x29)
    7010:	008ead83          	lw	x27,8(x29)
    7014:	00cea083          	lw	x1,12(x29)
    7018:	004c2f03          	lw	x30,4(x24)
    701c:	008c2603          	lw	x12,8(x24)
    7020:	00cc2283          	lw	x5,12(x24)
    7024:	008e2683          	lw	x13,8(x28) # 8 <_Z21hb_tiled_foreach_implIfZL26convolution_backward_inputP11hb_tensor_tS1_S1_P11hb_vector_tS3_EUlvE_JEEvjjT0_8HBTensorIT_Lln1EEPS7_.isra.0+0x8>
    7028:	00ce2383          	lw	x7,12(x28)
    702c:	00032703          	lw	x14,0(x6) # 0 <_Z21hb_tiled_foreach_implIfZL26convolution_backward_inputP11hb_tensor_tS1_S1_P11hb_vector_tS3_EUlvE_JEEvjjT0_8HBTensorIT_Lln1EEPS7_.isra.0>
    7030:	00432a83          	lw	x21,4(x6)
    7034:	0008a783          	lw	x15,0(x17) # 8000000 <.L2120+0x7ff2624>
    7038:	0048ab03          	lw	x22,4(x17)
    703c:	61fc84e3          	beq	x25,x31,7e44 <.L1768>

00007040 <.L1399>:
    7040:	00090593          	mv	x11,x18
    7044:	02410513          	addi	x10,x2,36
    7048:	00000097          	auipc	x1,0x0
    704c:	000080e7          	jalr	x1 # 7048 <.L1399+0x8>
    7050:	00048593          	mv	x11,x9
    7054:	05810513          	addi	x10,x2,88
    7058:	00000097          	auipc	x1,0x0
    705c:	000080e7          	jalr	x1 # 7058 <.L1399+0x18>
    7060:	00040593          	mv	x11,x8
    7064:	08c10513          	addi	x10,x2,140
    7068:	00000097          	auipc	x1,0x0
    706c:	000080e7          	jalr	x1 # 7068 <.L1399+0x28>
    7070:	02812c03          	lw	x24,40(x2)
    7074:	000c1463          	bnez	x24,707c <.L1399+0x3c>
    7078:	2740106f          	j	82ec <.L1769>
    707c:	00100893          	li	x17,1
    7080:	0188e463          	bltu	x17,x24,7088 <.L1399+0x48>
    7084:	2bc0106f          	j	8340 <.L1770>
    7088:	00200313          	li	x6,2
    708c:	006c1463          	bne	x24,x6,7094 <.L1399+0x54>
    7090:	4fd0206f          	j	9d8c <.L1771>
    7094:	00300c93          	li	x25,3
    7098:	019c1463          	bne	x24,x25,70a0 <.L1399+0x60>
    709c:	49d0206f          	j	9d38 <.L1772>
    70a0:	05c12e03          	lw	x28,92(x2)
    70a4:	01c8e463          	bltu	x17,x28,70ac <.L1399+0x6c>
    70a8:	5390206f          	j	9de0 <.L1773>
    70ac:	006e1463          	bne	x28,x6,70b4 <.L1399+0x74>
    70b0:	4350206f          	j	9ce4 <.L1774>
    70b4:	019e1463          	bne	x28,x25,70bc <.L1399+0x7c>
    70b8:	0f50206f          	j	99ac <.L1775>
    70bc:	09012f83          	lw	x31,144(x2)
    70c0:	01f36463          	bltu	x6,x31,70c8 <.L1399+0x88>
    70c4:	0950206f          	j	9958 <.L1776>
    70c8:	09812d03          	lw	x26,152(x2)
    70cc:	008d2d83          	lw	x27,8(x26)
    70d0:	019f9463          	bne	x31,x25,70d8 <.L1399+0x98>
    70d4:	0310206f          	j	9904 <.L1777>
    70d8:	03012083          	lw	x1,48(x2)
    70dc:	06412f03          	lw	x30,100(x2)
    70e0:	004a2683          	lw	x13,4(x20)
    70e4:	0049aa83          	lw	x21,4(x19)
    70e8:	0000a383          	lw	x7,0(x1)
    70ec:	00800293          	li	x5,8
    70f0:	0040ab03          	lw	x22,4(x1)
    70f4:	0080ab83          	lw	x23,8(x1)
    70f8:	00c0a583          	lw	x11,12(x1)
    70fc:	004f2c03          	lw	x24,4(x30) # 8000004 <.L2120+0x7ff2628>
    7100:	008f2603          	lw	x12,8(x30)
    7104:	00cf2883          	lw	x17,12(x30)
    7108:	00cd2703          	lw	x14,12(x26)
    710c:	000aa783          	lw	x15,0(x21)
    7110:	004aae83          	lw	x29,4(x21)
    7114:	0006ac83          	lw	x25,0(x13)
    7118:	0046a803          	lw	x16,4(x13)
    711c:	00539463          	bne	x7,x5,7124 <.L1460>
    7120:	5280206f          	j	9648 <.L1778>

00007124 <.L1460>:
    7124:	004a0a13          	addi	x20,x20,4
    7128:	00498993          	addi	x19,x19,4
    712c:	00098793          	mv	x15,x19
    7130:	000a0713          	mv	x14,x20
    7134:	00040693          	mv	x13,x8
    7138:	00048613          	mv	x12,x9
    713c:	00090593          	mv	x11,x18
    7140:	08c10513          	addi	x10,x2,140
    7144:	00000097          	auipc	x1,0x0
    7148:	000080e7          	jalr	x1 # 7144 <.L1460+0x20>
    714c:	08c12f83          	lw	x31,140(x2)
    7150:	00800d13          	li	x26,8
    7154:	01af9463          	bne	x31,x26,715c <.L1463>
    7158:	3950106f          	j	8cec <.L1779>

0000715c <.L1463>:
    715c:	08c10513          	addi	x10,x2,140
    7160:	00098793          	mv	x15,x19
    7164:	000a0713          	mv	x14,x20
    7168:	00040693          	mv	x13,x8
    716c:	00048613          	mv	x12,x9
    7170:	00090593          	mv	x11,x18
    7174:	00000097          	auipc	x1,0x0
    7178:	000080e7          	jalr	x1 # 7174 <.L1463+0x18>
    717c:	08c12803          	lw	x16,140(x2)
    7180:	00800513          	li	x10,8
    7184:	00a81463          	bne	x16,x10,718c <.L1504>
    7188:	05d0106f          	j	89e4 <.L1780>

0000718c <.L1504>:
    718c:	00098793          	mv	x15,x19
    7190:	000a0713          	mv	x14,x20
    7194:	00040693          	mv	x13,x8
    7198:	00048613          	mv	x12,x9
    719c:	00090593          	mv	x11,x18
    71a0:	08c10513          	addi	x10,x2,140
    71a4:	00000097          	auipc	x1,0x0
    71a8:	000080e7          	jalr	x1 # 71a4 <.L1504+0x18>
    71ac:	08c12703          	lw	x14,140(x2)
    71b0:	00800793          	li	x15,8
    71b4:	00f71463          	bne	x14,x15,71bc <.L1548>
    71b8:	5640106f          	j	871c <.L1781>

000071bc <.L1548>:
    71bc:	00090593          	mv	x11,x18
    71c0:	00098793          	mv	x15,x19
    71c4:	000a0713          	mv	x14,x20
    71c8:	00040693          	mv	x13,x8
    71cc:	00048613          	mv	x12,x9
    71d0:	08c10513          	addi	x10,x2,140
    71d4:	00000097          	auipc	x1,0x0
    71d8:	000080e7          	jalr	x1 # 71d4 <.L1548+0x18>
    71dc:	08c12b83          	lw	x23,140(x2)
    71e0:	00800593          	li	x11,8
    71e4:	00bb9463          	bne	x23,x11,71ec <.L1589>
    71e8:	2dc0106f          	j	84c4 <.L1782>

000071ec <.L1589>:
    71ec:	00098713          	mv	x14,x19
    71f0:	000a0693          	mv	x13,x20
    71f4:	00040613          	mv	x12,x8
    71f8:	00090593          	mv	x11,x18
    71fc:	00048513          	mv	x10,x9
    7200:	00000097          	auipc	x1,0x0
    7204:	000080e7          	jalr	x1 # 7200 <.L1589+0x14>

00007208 <.L1317>:
    7208:	0fc12083          	lw	x1,252(x2)
    720c:	0f812403          	lw	x8,248(x2)
    7210:	0f412483          	lw	x9,244(x2)
    7214:	0f012903          	lw	x18,240(x2)
    7218:	0ec12983          	lw	x19,236(x2)
    721c:	0e812a03          	lw	x20,232(x2)
    7220:	0e412a83          	lw	x21,228(x2)
    7224:	0e012b03          	lw	x22,224(x2)
    7228:	0dc12b83          	lw	x23,220(x2)
    722c:	0d812c03          	lw	x24,216(x2)
    7230:	0d412c83          	lw	x25,212(x2)
    7234:	0d012d03          	lw	x26,208(x2)
    7238:	0cc12d83          	lw	x27,204(x2)
    723c:	10010113          	addi	x2,x2,256
    7240:	00008067          	ret

00007244 <.L1750>:
    7244:	000000b7          	lui	x1,0x0
    7248:	00000337          	lui	x6,0x0
    724c:	00008593          	mv	x11,x1
    7250:	06f00613          	li	x12,111
    7254:	00030513          	mv	x10,x6
    7258:	00000097          	auipc	x1,0x0
    725c:	000080e7          	jalr	x1 # 7258 <.L1750+0x14>
    7260:	02812583          	lw	x11,40(x2)
    7264:	00000cb7          	lui	x25,0x0
    7268:	000c8513          	mv	x10,x25
    726c:	00000097          	auipc	x1,0x0
    7270:	000080e7          	jalr	x1 # 726c <.L1750+0x28>
    7274:	000005b7          	lui	x11,0x0
    7278:	0005a683          	lw	x13,0(x11) # 0 <_Z21hb_tiled_foreach_implIfZL26convolution_backward_inputP11hb_tensor_tS1_S1_P11hb_vector_tS3_EUlvE_JEEvjjT0_8HBTensorIT_Lln1EEPS7_.isra.0>
    727c:	00000737          	lui	x14,0x0
    7280:	00072503          	lw	x10,0(x14) # 0 <_Z21hb_tiled_foreach_implIfZL26convolution_backward_inputP11hb_tensor_tS1_S1_P11hb_vector_tS3_EUlvE_JEEvjjT0_8HBTensorIT_Lln1EEPS7_.isra.0>
    7284:	01069993          	slli	x19,x13,0x10
    7288:	4100fd37          	lui	x26,0x4100f
    728c:	00a987b3          	add	x15,x19,x10
    7290:	acfd2c23          	sw	x15,-1320(x26) # 4100ead8 <.L2120+0x410010fc>

00007294 <.L1321>:
    7294:	0000006f          	j	7294 <.L1321>

00007298 <.L1749>:
    7298:	000003b7          	lui	x7,0x0
    729c:	00000c37          	lui	x24,0x0
    72a0:	06f00613          	li	x12,111
    72a4:	000c0593          	mv	x11,x24
    72a8:	00038513          	mv	x10,x7
    72ac:	00000097          	auipc	x1,0x0
    72b0:	000080e7          	jalr	x1 # 72ac <.L1749+0x14>
    72b4:	02812583          	lw	x11,40(x2)
    72b8:	00000637          	lui	x12,0x0
    72bc:	00060513          	mv	x10,x12
    72c0:	000004b7          	lui	x9,0x0
    72c4:	00000097          	auipc	x1,0x0
    72c8:	000080e7          	jalr	x1 # 72c4 <.L1749+0x2c>
    72cc:	00000a37          	lui	x20,0x0
    72d0:	0004a903          	lw	x18,0(x9) # 0 <_Z21hb_tiled_foreach_implIfZL26convolution_backward_inputP11hb_tensor_tS1_S1_P11hb_vector_tS3_EUlvE_JEEvjjT0_8HBTensorIT_Lln1EEPS7_.isra.0>
    72d4:	000a2403          	lw	x8,0(x20) # 0 <_Z21hb_tiled_foreach_implIfZL26convolution_backward_inputP11hb_tensor_tS1_S1_P11hb_vector_tS3_EUlvE_JEEvjjT0_8HBTensorIT_Lln1EEPS7_.isra.0>
    72d8:	4100fab7          	lui	x21,0x4100f
    72dc:	01091d93          	slli	x27,x18,0x10
    72e0:	008d8eb3          	add	x29,x27,x8
    72e4:	addaac23          	sw	x29,-1320(x21) # 4100ead8 <.L2120+0x410010fc>

000072e8 <.L1319>:
    72e8:	0000006f          	j	72e8 <.L1319>

000072ec <.L1753>:
    72ec:	000000b7          	lui	x1,0x0
    72f0:	00000e37          	lui	x28,0x0
    72f4:	00008593          	mv	x11,x1
    72f8:	06f00613          	li	x12,111
    72fc:	000e0513          	mv	x10,x28
    7300:	00000097          	auipc	x1,0x0
    7304:	000080e7          	jalr	x1 # 7300 <.L1753+0x14>
    7308:	05c12583          	lw	x11,92(x2)
    730c:	00000837          	lui	x16,0x0
    7310:	00080513          	mv	x10,x16
    7314:	00000097          	auipc	x1,0x0
    7318:	000080e7          	jalr	x1 # 7314 <.L1753+0x28>
    731c:	000005b7          	lui	x11,0x0
    7320:	0005a303          	lw	x6,0(x11) # 0 <_Z21hb_tiled_foreach_implIfZL26convolution_backward_inputP11hb_tensor_tS1_S1_P11hb_vector_tS3_EUlvE_JEEvjjT0_8HBTensorIT_Lln1EEPS7_.isra.0>
    7324:	00000cb7          	lui	x25,0x0
    7328:	000ca683          	lw	x13,0(x25) # 0 <_Z21hb_tiled_foreach_implIfZL26convolution_backward_inputP11hb_tensor_tS1_S1_P11hb_vector_tS3_EUlvE_JEEvjjT0_8HBTensorIT_Lln1EEPS7_.isra.0>
    732c:	01031713          	slli	x14,x6,0x10
    7330:	4100f9b7          	lui	x19,0x4100f
    7334:	00d70533          	add	x10,x14,x13
    7338:	aca9ac23          	sw	x10,-1320(x19) # 4100ead8 <.L2120+0x410010fc>

0000733c <.L1327>:
    733c:	0000006f          	j	733c <.L1327>

00007340 <.L1751>:
    7340:	00000eb7          	lui	x29,0x0
    7344:	00000ab7          	lui	x21,0x0
    7348:	000e8593          	mv	x11,x29
    734c:	06f00613          	li	x12,111
    7350:	000a8513          	mv	x10,x21
    7354:	00000097          	auipc	x1,0x0
    7358:	000080e7          	jalr	x1 # 7354 <.L1751+0x14>
    735c:	02812583          	lw	x11,40(x2)
    7360:	00000b37          	lui	x22,0x0
    7364:	000b0513          	mv	x10,x22
    7368:	00000097          	auipc	x1,0x0
    736c:	000080e7          	jalr	x1 # 7368 <.L1751+0x28>
    7370:	00000f37          	lui	x30,0x0
    7374:	000f2f83          	lw	x31,0(x30) # 0 <_Z21hb_tiled_foreach_implIfZL26convolution_backward_inputP11hb_tensor_tS1_S1_P11hb_vector_tS3_EUlvE_JEEvjjT0_8HBTensorIT_Lln1EEPS7_.isra.0>
    7378:	000002b7          	lui	x5,0x0
    737c:	0002ab83          	lw	x23,0(x5) # 0 <_Z21hb_tiled_foreach_implIfZL26convolution_backward_inputP11hb_tensor_tS1_S1_P11hb_vector_tS3_EUlvE_JEEvjjT0_8HBTensorIT_Lln1EEPS7_.isra.0>
    7380:	010f9893          	slli	x17,x31,0x10
    7384:	4100f837          	lui	x16,0x4100f
    7388:	01788e33          	add	x28,x17,x23
    738c:	adc82c23          	sw	x28,-1320(x16) # 4100ead8 <.L2120+0x410010fc>

00007390 <.L1323>:
    7390:	0000006f          	j	7390 <.L1323>

00007394 <.L1752>:
    7394:	000007b7          	lui	x15,0x0
    7398:	00000d37          	lui	x26,0x0
    739c:	06f00613          	li	x12,111
    73a0:	00078593          	mv	x11,x15
    73a4:	000d0513          	mv	x10,x26
    73a8:	00000097          	auipc	x1,0x0
    73ac:	000080e7          	jalr	x1 # 73a8 <.L1752+0x14>
    73b0:	02812583          	lw	x11,40(x2)
    73b4:	00000c37          	lui	x24,0x0
    73b8:	000c0513          	mv	x10,x24
    73bc:	00000097          	auipc	x1,0x0
    73c0:	000080e7          	jalr	x1 # 73bc <.L1752+0x28>
    73c4:	000003b7          	lui	x7,0x0
    73c8:	0003a603          	lw	x12,0(x7) # 0 <_Z21hb_tiled_foreach_implIfZL26convolution_backward_inputP11hb_tensor_tS1_S1_P11hb_vector_tS3_EUlvE_JEEvjjT0_8HBTensorIT_Lln1EEPS7_.isra.0>
    73cc:	000004b7          	lui	x9,0x0
    73d0:	0004a903          	lw	x18,0(x9) # 0 <_Z21hb_tiled_foreach_implIfZL26convolution_backward_inputP11hb_tensor_tS1_S1_P11hb_vector_tS3_EUlvE_JEEvjjT0_8HBTensorIT_Lln1EEPS7_.isra.0>
    73d4:	01061a13          	slli	x20,x12,0x10
    73d8:	4100fdb7          	lui	x27,0x4100f
    73dc:	012a0433          	add	x8,x20,x18
    73e0:	ac8dac23          	sw	x8,-1320(x27) # 4100ead8 <.L2120+0x410010fc>

000073e4 <.L1325>:
    73e4:	0000006f          	j	73e4 <.L1325>

000073e8 <.L1756>:
    73e8:	000000b7          	lui	x1,0x0
    73ec:	00000bb7          	lui	x23,0x0
    73f0:	00008593          	mv	x11,x1
    73f4:	06f00613          	li	x12,111
    73f8:	000b8513          	mv	x10,x23
    73fc:	00000097          	auipc	x1,0x0
    7400:	000080e7          	jalr	x1 # 73fc <.L1756+0x14>
    7404:	09012583          	lw	x11,144(x2)
    7408:	000008b7          	lui	x17,0x0
    740c:	00088513          	mv	x10,x17
    7410:	00000097          	auipc	x1,0x0
    7414:	000080e7          	jalr	x1 # 7410 <.L1756+0x28>
    7418:	00000e37          	lui	x28,0x0
    741c:	000e2803          	lw	x16,0(x28) # 0 <_Z21hb_tiled_foreach_implIfZL26convolution_backward_inputP11hb_tensor_tS1_S1_P11hb_vector_tS3_EUlvE_JEEvjjT0_8HBTensorIT_Lln1EEPS7_.isra.0>
    7420:	000005b7          	lui	x11,0x0
    7424:	0005a303          	lw	x6,0(x11) # 0 <_Z21hb_tiled_foreach_implIfZL26convolution_backward_inputP11hb_tensor_tS1_S1_P11hb_vector_tS3_EUlvE_JEEvjjT0_8HBTensorIT_Lln1EEPS7_.isra.0>
    7428:	01081c93          	slli	x25,x16,0x10
    742c:	4100f737          	lui	x14,0x4100f
    7430:	006c86b3          	add	x13,x25,x6
    7434:	acd72c23          	sw	x13,-1320(x14) # 4100ead8 <.L2120+0x410010fc>

00007438 <.L1333>:
    7438:	0000006f          	j	7438 <.L1333>

0000743c <.L1754>:
    743c:	00000437          	lui	x8,0x0
    7440:	00000db7          	lui	x27,0x0
    7444:	06f00613          	li	x12,111
    7448:	00040593          	mv	x11,x8
    744c:	000d8513          	mv	x10,x27
    7450:	00000097          	auipc	x1,0x0
    7454:	000080e7          	jalr	x1 # 7450 <.L1754+0x14>
    7458:	05c12583          	lw	x11,92(x2)
    745c:	00000eb7          	lui	x29,0x0
    7460:	000e8513          	mv	x10,x29
    7464:	00000097          	auipc	x1,0x0
    7468:	000080e7          	jalr	x1 # 7464 <.L1754+0x28>
    746c:	00000ab7          	lui	x21,0x0
    7470:	000aab03          	lw	x22,0(x21) # 0 <_Z21hb_tiled_foreach_implIfZL26convolution_backward_inputP11hb_tensor_tS1_S1_P11hb_vector_tS3_EUlvE_JEEvjjT0_8HBTensorIT_Lln1EEPS7_.isra.0>
    7474:	00000f37          	lui	x30,0x0
    7478:	000f2f83          	lw	x31,0(x30) # 0 <_Z21hb_tiled_foreach_implIfZL26convolution_backward_inputP11hb_tensor_tS1_S1_P11hb_vector_tS3_EUlvE_JEEvjjT0_8HBTensorIT_Lln1EEPS7_.isra.0>
    747c:	010b1293          	slli	x5,x22,0x10
    7480:	4100f8b7          	lui	x17,0x4100f
    7484:	01f28bb3          	add	x23,x5,x31
    7488:	ad78ac23          	sw	x23,-1320(x17) # 4100ead8 <.L2120+0x410010fc>

0000748c <.L1329>:
    748c:	0000006f          	j	748c <.L1329>

00007490 <.L1755>:
    7490:	00000537          	lui	x10,0x0
    7494:	000009b7          	lui	x19,0x0
    7498:	06f00613          	li	x12,111
    749c:	00050593          	mv	x11,x10
    74a0:	00098513          	mv	x10,x19
    74a4:	00000097          	auipc	x1,0x0
    74a8:	000080e7          	jalr	x1 # 74a4 <.L1755+0x14>
    74ac:	05c12583          	lw	x11,92(x2)
    74b0:	000007b7          	lui	x15,0x0
    74b4:	00078513          	mv	x10,x15
    74b8:	00000097          	auipc	x1,0x0
    74bc:	000080e7          	jalr	x1 # 74b8 <.L1755+0x28>
    74c0:	00000d37          	lui	x26,0x0
    74c4:	000d2c03          	lw	x24,0(x26) # 0 <_Z21hb_tiled_foreach_implIfZL26convolution_backward_inputP11hb_tensor_tS1_S1_P11hb_vector_tS3_EUlvE_JEEvjjT0_8HBTensorIT_Lln1EEPS7_.isra.0>
    74c8:	000003b7          	lui	x7,0x0
    74cc:	0003a603          	lw	x12,0(x7) # 0 <_Z21hb_tiled_foreach_implIfZL26convolution_backward_inputP11hb_tensor_tS1_S1_P11hb_vector_tS3_EUlvE_JEEvjjT0_8HBTensorIT_Lln1EEPS7_.isra.0>
    74d0:	010c1493          	slli	x9,x24,0x10
    74d4:	4100fa37          	lui	x20,0x4100f
    74d8:	00c48933          	add	x18,x9,x12
    74dc:	ad2a2c23          	sw	x18,-1320(x20) # 4100ead8 <.L2120+0x410010fc>

000074e0 <.L1331>:
    74e0:	0000006f          	j	74e0 <.L1331>

000074e4 <.L1757>:
    74e4:	00000937          	lui	x18,0x0
    74e8:	00000a37          	lui	x20,0x0
    74ec:	06f00613          	li	x12,111
    74f0:	00090593          	mv	x11,x18
    74f4:	000a0513          	mv	x10,x20
    74f8:	00000097          	auipc	x1,0x0
    74fc:	000080e7          	jalr	x1 # 74f8 <.L1757+0x14>
    7500:	09012583          	lw	x11,144(x2)
    7504:	00000437          	lui	x8,0x0
    7508:	00040513          	mv	x10,x8
    750c:	00000097          	auipc	x1,0x0
    7510:	000080e7          	jalr	x1 # 750c <.L1757+0x28>
    7514:	00000db7          	lui	x27,0x0
    7518:	000dae83          	lw	x29,0(x27) # 0 <_Z21hb_tiled_foreach_implIfZL26convolution_backward_inputP11hb_tensor_tS1_S1_P11hb_vector_tS3_EUlvE_JEEvjjT0_8HBTensorIT_Lln1EEPS7_.isra.0>
    751c:	00000ab7          	lui	x21,0x0
    7520:	000aab03          	lw	x22,0(x21) # 0 <_Z21hb_tiled_foreach_implIfZL26convolution_backward_inputP11hb_tensor_tS1_S1_P11hb_vector_tS3_EUlvE_JEEvjjT0_8HBTensorIT_Lln1EEPS7_.isra.0>
    7524:	010e9f13          	slli	x30,x29,0x10
    7528:	4100f2b7          	lui	x5,0x4100f
    752c:	016f0fb3          	add	x31,x30,x22
    7530:	adf2ac23          	sw	x31,-1320(x5) # 4100ead8 <.L2120+0x410010fc>

00007534 <.L1335>:
    7534:	0000006f          	j	7534 <.L1335>

00007538 <.L1758>:
    7538:	01000713          	li	x14,16
    753c:	a4e894e3          	bne	x17,x14,6f84 <.L1336>
    7540:	02000613          	li	x12,32
    7544:	a4c310e3          	bne	x6,x12,6f84 <.L1336>
    7548:	a26f9ee3          	bne	x31,x6,6f84 <.L1336>
    754c:	00300093          	li	x1,3
    7550:	a21e9ae3          	bne	x29,x1,6f84 <.L1336>
    7554:	a3ff18e3          	bne	x30,x31,6f84 <.L1336>
    7558:	a3ec16e3          	bne	x24,x30,6f84 <.L1336>
    755c:	a3de14e3          	bne	x28,x29,6f84 <.L1336>
    7560:	a3cc92e3          	bne	x25,x28,6f84 <.L1336>
    7564:	00100293          	li	x5,1
    7568:	a05d1ee3          	bne	x26,x5,6f84 <.L1336>
    756c:	a1ad9ce3          	bne	x27,x26,6f84 <.L1336>
    7570:	00100393          	li	x7,1
    7574:	a07798e3          	bne	x15,x7,6f84 <.L1336>
    7578:	a0f696e3          	bne	x13,x15,6f84 <.L1336>
    757c:	000009b7          	lui	x19,0x0
    7580:	00000337          	lui	x6,0x0
    7584:	00000d37          	lui	x26,0x0
    7588:	00000db7          	lui	x27,0x0
    758c:	0009aa83          	lw	x21,0(x19) # 0 <_Z21hb_tiled_foreach_implIfZL26convolution_backward_inputP11hb_tensor_tS1_S1_P11hb_vector_tS3_EUlvE_JEEvjjT0_8HBTensorIT_Lln1EEPS7_.isra.0>
    7590:	000d2b03          	lw	x22,0(x26) # 0 <_Z21hb_tiled_foreach_implIfZL26convolution_backward_inputP11hb_tensor_tS1_S1_P11hb_vector_tS3_EUlvE_JEEvjjT0_8HBTensorIT_Lln1EEPS7_.isra.0>
    7594:	00032e83          	lw	x29,0(x6) # 0 <_Z21hb_tiled_foreach_implIfZL26convolution_backward_inputP11hb_tensor_tS1_S1_P11hb_vector_tS3_EUlvE_JEEvjjT0_8HBTensorIT_Lln1EEPS7_.isra.0>
    7598:	000da083          	lw	x1,0(x27) # 0 <_Z21hb_tiled_foreach_implIfZL26convolution_backward_inputP11hb_tensor_tS1_S1_P11hb_vector_tS3_EUlvE_JEEvjjT0_8HBTensorIT_Lln1EEPS7_.isra.0>
    759c:	000008b7          	lui	x17,0x0
    75a0:	0008af03          	lw	x30,0(x17) # 0 <_Z21hb_tiled_foreach_implIfZL26convolution_backward_inputP11hb_tensor_tS1_S1_P11hb_vector_tS3_EUlvE_JEEvjjT0_8HBTensorIT_Lln1EEPS7_.isra.0>
    75a4:	016a8e33          	add	x28,x21,x22
    75a8:	001e8533          	add	x10,x29,x1
    75ac:	0104a303          	lw	x6,16(x9)
    75b0:	018e1593          	slli	x11,x28,0x18
    75b4:	01251393          	slli	x7,x10,0x12
    75b8:	3f0007b7          	lui	x15,0x3f000
    75bc:	00fc0fb7          	lui	x31,0xfc0
    75c0:	000404b7          	lui	x9,0x40
    75c4:	00f5fcb3          	and	x25,x11,x15
    75c8:	01f3f733          	and	x14,x7,x31
    75cc:	004f1813          	slli	x16,x30,0x4
    75d0:	ff048a13          	addi	x20,x9,-16 # 3fff0 <.L2120+0x32614>
    75d4:	00ece633          	or	x12,x25,x14
    75d8:	01487bb3          	and	x23,x16,x20
    75dc:	80000c37          	lui	x24,0x80000
    75e0:	017662b3          	or	x5,x12,x23
    75e4:	0182e9b3          	or	x19,x5,x24
    75e8:	01042b03          	lw	x22,16(x8) # 10 <_Z21hb_tiled_foreach_implIfZL26convolution_backward_inputP11hb_tensor_tS1_S1_P11hb_vector_tS3_EUlvE_JEEvjjT0_8HBTensorIT_Lln1EEPS7_.isra.0+0x10>
    75ec:	41001437          	lui	x8,0x41001
    75f0:	01092c03          	lw	x24,16(x18) # 10 <_Z21hb_tiled_foreach_implIfZL26convolution_backward_inputP11hb_tensor_tS1_S1_P11hb_vector_tS3_EUlvE_JEEvjjT0_8HBTensorIT_Lln1EEPS7_.isra.0+0x10>
    75f4:	00030a93          	mv	x21,x6
    75f8:	d1342623          	sw	x19,-756(x8) # 41000d0c <.L2120+0x40ff3330>
    75fc:	02030693          	addi	x13,x6,32

00007600 <.L1337>:
    7600:	00032023          	sw	x0,0(x6)
    7604:	00430313          	addi	x6,x6,4
    7608:	fed31ce3          	bne	x6,x13,7600 <.L1337>
    760c:	000da903          	lw	x18,0(x27)
    7610:	000d2e83          	lw	x29,0(x26)
    7614:	00000a37          	lui	x20,0x0
    7618:	00490093          	addi	x1,x18,4
    761c:	000a0913          	mv	x18,x20
    7620:	001908b3          	add	x17,x18,x1
    7624:	018e9f13          	slli	x30,x29,0x18
    7628:	01e8ee33          	or	x28,x17,x30
    762c:	201c0537          	lui	x10,0x201c0
    7630:	00ae65b3          	or	x11,x28,x10
    7634:	00100393          	li	x7,1
    7638:	00758023          	sb	x7,0(x11)
    763c:	000da703          	lw	x14,0(x27)
    7640:	00700793          	li	x15,7
    7644:	00e12623          	sw	x14,12(x2)
    7648:	2ef70463          	beq	x14,x15,7930 <.L1783>

0000764c <.L1350>:
    764c:	00100493          	li	x9,1
    7650:	0100006f          	j	7660 <.L1355>

00007654 <.L1784>:
    7654:	000a0793          	mv	x15,x20
    7658:	1407afaf          	lr.w.aq	x31,(x15)
    765c:	009f8863          	beq	x31,x9,766c <.L1354>

00007660 <.L1355>:
    7660:	000a0393          	mv	x7,x20
    7664:	1003acaf          	lr.w	x25,(x7)
    7668:	fe9c96e3          	bne	x25,x9,7654 <.L1784>

0000766c <.L1354>:
    766c:	00000837          	lui	x16,0x0
    7670:	00082603          	lw	x12,0(x16) # 0 <_Z21hb_tiled_foreach_implIfZL26convolution_backward_inputP11hb_tensor_tS1_S1_P11hb_vector_tS3_EUlvE_JEEvjjT0_8HBTensorIT_Lln1EEPS7_.isra.0>
    7674:	00001337          	lui	x6,0x1
    7678:	00092023          	sw	x0,0(x18)
    767c:	07f67b93          	andi	x23,x12,127
    7680:	001b9293          	slli	x5,x23,0x1
    7684:	017289b3          	add	x19,x5,x23
    7688:	00399413          	slli	x8,x19,0x3
    768c:	017400b3          	add	x1,x8,x23
    7690:	01908f13          	addi	x30,x1,25
    7694:	c0030e93          	addi	x29,x6,-1024 # c00 <.L302+0x4c>
    7698:	01eef463          	bgeu	x29,x30,76a0 <.L1356>
    769c:	000e8f13          	mv	x30,x29

000076a0 <.L1356>:
    76a0:	00001fb7          	lui	x31,0x1
    76a4:	00000493          	li	x9,0
    76a8:	00000c93          	li	x25,0
    76ac:	01f00293          	li	x5,31
    76b0:	1b000b93          	li	x23,432

000076b4 <.L1364>:
    76b4:	000c0e93          	mv	x29,x24
    76b8:	00000313          	li	x6,0

000076bc <.L1359>:
    76bc:	00008513          	mv	x10,x1
    76c0:	0be0f263          	bgeu	x1,x30,7764 <.L1363>

000076c4 <.L1357>:
    76c4:	00a55893          	srli	x17,x10,0xa
    76c8:	01f57e13          	andi	x28,x10,31
    76cc:	00555693          	srli	x13,x10,0x5
    76d0:	00a89393          	slli	x7,x17,0xa
    76d4:	01f6f593          	andi	x11,x13,31
    76d8:	009e07b3          	add	x15,x28,x9
    76dc:	00f38633          	add	x12,x7,x15
    76e0:	00389713          	slli	x14,x17,0x3
    76e4:	00559813          	slli	x16,x11,0x5
    76e8:	011709b3          	add	x19,x14,x17
    76ec:	01060433          	add	x8,x12,x16
    76f0:	00698733          	add	x14,x19,x6
    76f4:	00241893          	slli	x17,x8,0x2
    76f8:	011a87b3          	add	x15,x21,x17
    76fc:	00158693          	addi	x13,x11,1
    7700:	001e0993          	addi	x19,x28,1
    7704:	00970393          	addi	x7,x14,9
    7708:	ffee0613          	addi	x12,x28,-2

0000770c <.L1362>:
    770c:	00769813          	slli	x16,x13,0x7
    7710:	00271e13          	slli	x28,x14,0x2
    7714:	01d80433          	add	x8,x16,x29
    7718:	016e05b3          	add	x11,x28,x22
    771c:	00098813          	mv	x16,x19

00007720 <.L1361>:
    7720:	02d2e263          	bltu	x5,x13,7744 <.L1360>
    7724:	00281893          	slli	x17,x16,0x2
    7728:	00888e33          	add	x28,x17,x8
    772c:	0102ec63          	bltu	x5,x16,7744 <.L1360>
    7730:	0005a087          	flw	f1,0(x11)
    7734:	000e2107          	flw	f2,0(x28)
    7738:	0007a187          	flw	f3,0(x15) # 3f000000 <.L2120+0x3eff2624>
    773c:	18117243          	fmadd.s	f4,f2,f1,f3
    7740:	0047a027          	fsw	f4,0(x15)

00007744 <.L1360>:
    7744:	fff80813          	addi	x16,x16,-1
    7748:	00458593          	addi	x11,x11,4
    774c:	fd061ae3          	bne	x12,x16,7720 <.L1361>
    7750:	00370713          	addi	x14,x14,3
    7754:	fff68693          	addi	x13,x13,-1
    7758:	fa771ae3          	bne	x14,x7,770c <.L1362>
    775c:	00150513          	addi	x10,x10,1 # 201c0001 <.L2120+0x201b2625>
    7760:	f7e512e3          	bne	x10,x30,76c4 <.L1357>

00007764 <.L1363>:
    7764:	01b30313          	addi	x6,x6,27
    7768:	01fe8eb3          	add	x29,x29,x31
    776c:	f57318e3          	bne	x6,x23,76bc <.L1359>
    7770:	000047b7          	lui	x15,0x4
    7774:	000013b7          	lui	x7,0x1
    7778:	000109b7          	lui	x19,0x10
    777c:	c0038613          	addi	x12,x7,-1024 # c00 <.L302+0x4c>
    7780:	00fc8cb3          	add	x25,x25,x15
    7784:	00020437          	lui	x8,0x20
    7788:	013c0c33          	add	x24,x24,x19
    778c:	00c484b3          	add	x9,x9,x12
    7790:	f28c92e3          	bne	x25,x8,76b4 <.L1364>
    7794:	00000ab7          	lui	x21,0x0
    7798:	000aab03          	lw	x22,0(x21) # 0 <_Z21hb_tiled_foreach_implIfZL26convolution_backward_inputP11hb_tensor_tS1_S1_P11hb_vector_tS3_EUlvE_JEEvjjT0_8HBTensorIT_Lln1EEPS7_.isra.0>
    779c:	00c12883          	lw	x17,12(x2)
    77a0:	000000b7          	lui	x1,0x0
    77a4:	00000fb7          	lui	x31,0x0
    77a8:	0000af03          	lw	x30,0(x1) # 0 <_Z21hb_tiled_foreach_implIfZL26convolution_backward_inputP11hb_tensor_tS1_S1_P11hb_vector_tS3_EUlvE_JEEvjjT0_8HBTensorIT_Lln1EEPS7_.isra.0>
    77ac:	000fa283          	lw	x5,0(x31) # 0 <_Z21hb_tiled_foreach_implIfZL26convolution_backward_inputP11hb_tensor_tS1_S1_P11hb_vector_tS3_EUlvE_JEEvjjT0_8HBTensorIT_Lln1EEPS7_.isra.0>
    77b0:	000d2b83          	lw	x23,0(x26)
    77b4:	01688e33          	add	x28,x17,x22
    77b8:	00040337          	lui	x6,0x40
    77bc:	01728733          	add	x14,x5,x23
    77c0:	012e1813          	slli	x16,x28,0x12
    77c4:	004f1593          	slli	x11,x30,0x4
    77c8:	00fc06b7          	lui	x13,0xfc0
    77cc:	ff030e93          	addi	x29,x6,-16 # 3fff0 <.L2120+0x32614>
    77d0:	00d87533          	and	x10,x16,x13
    77d4:	01d5f7b3          	and	x15,x11,x29
    77d8:	01871c93          	slli	x25,x14,0x18
    77dc:	3f000c37          	lui	x24,0x3f000
    77e0:	00f569b3          	or	x19,x10,x15
    77e4:	018cf3b3          	and	x7,x25,x24
    77e8:	0079e633          	or	x12,x19,x7
    77ec:	c00004b7          	lui	x9,0xc0000
    77f0:	00966433          	or	x8,x12,x9
    77f4:	41001ab7          	lui	x21,0x41001
    77f8:	d08aa623          	sw	x8,-756(x21) # 41000d0c <.L2120+0x40ff3330>
    77fc:	000dab03          	lw	x22,0(x27)
    7800:	000d2083          	lw	x1,0(x26)
    7804:	201c08b7          	lui	x17,0x201c0
    7808:	004b0f13          	addi	x30,x22,4 # 4 <_Z21hb_tiled_foreach_implIfZL26convolution_backward_inputP11hb_tensor_tS1_S1_P11hb_vector_tS3_EUlvE_JEEvjjT0_8HBTensorIT_Lln1EEPS7_.isra.0+0x4>
    780c:	01e90fb3          	add	x31,x18,x30
    7810:	01809293          	slli	x5,x1,0x18
    7814:	005febb3          	or	x23,x31,x5
    7818:	011bee33          	or	x28,x23,x17
    781c:	00100813          	li	x16,1
    7820:	010e0023          	sb	x16,0(x28)
    7824:	000da583          	lw	x11,0(x27)
    7828:	00700713          	li	x14,7
    782c:	02e58863          	beq	x11,x14,785c <.L1785>

00007830 <.L1375>:
    7830:	00100d13          	li	x26,1
    7834:	0100006f          	j	7844 <.L1380>

00007838 <.L1786>:
    7838:	000a0613          	mv	x12,x20
    783c:	140624af          	lr.w.aq	x9,(x12)
    7840:	01a48863          	beq	x9,x26,7850 <.L1379>

00007844 <.L1380>:
    7844:	000a0c13          	mv	x24,x20
    7848:	100c23af          	lr.w	x7,(x24)
    784c:	ffa396e3          	bne	x7,x26,7838 <.L1786>

00007850 <.L1379>:
    7850:	00092023          	sw	x0,0(x18)
    7854:	00000513          	li	x10,0
    7858:	9b1ff06f          	j	7208 <.L1317>

0000785c <.L1785>:
    785c:	000006b7          	lui	x13,0x0
    7860:	00000337          	lui	x6,0x0
    7864:	00468513          	addi	x10,x13,4 # 4 <_Z21hb_tiled_foreach_implIfZL26convolution_backward_inputP11hb_tensor_tS1_S1_P11hb_vector_tS3_EUlvE_JEEvjjT0_8HBTensorIT_Lln1EEPS7_.isra.0+0x4>
    7868:	01430e93          	addi	x29,x6,20 # 14 <.L8>

0000786c <.L1366>:
    786c:	00050793          	mv	x15,x10

00007870 <.L1368>:
    7870:	0007cc83          	lbu	x25,0(x15) # 4000 <.L729+0x2c>
    7874:	00178793          	addi	x15,x15,1
    7878:	0ffcf993          	andi	x19,x25,255
    787c:	fe0988e3          	beqz	x19,786c <.L1366>
    7880:	fefe98e3          	bne	x29,x15,7870 <.L1368>
    7884:	000d2c03          	lw	x24,0(x26)
    7888:	231c04b7          	lui	x9,0x231c0
    788c:	00100a93          	li	x21,1
    7890:	018c0393          	addi	x7,x24,24 # 3f000018 <.L2120+0x3eff263c>
    7894:	00790633          	add	x12,x18,x7
    7898:	00966433          	or	x8,x12,x9
    789c:	01540023          	sb	x21,0(x8) # 20000 <.L2120+0x12624>
    78a0:	000dab03          	lw	x22,0(x27)
    78a4:	00700093          	li	x1,7
    78a8:	f81b14e3          	bne	x22,x1,7830 <.L1375>
    78ac:	000d2f03          	lw	x30,0(x26)
    78b0:	00300f93          	li	x31,3
    78b4:	21ff0063          	beq	x30,x31,7ab4 <.L1787>

000078b8 <.L1374>:
    78b8:	00100a93          	li	x21,1
    78bc:	0100006f          	j	78cc <.L1370>

000078c0 <.L1788>:
    78c0:	01490f13          	addi	x30,x18,20
    78c4:	140f2faf          	lr.w.aq	x31,(x30)
    78c8:	015f8863          	beq	x31,x21,78d8 <.L1376>

000078cc <.L1370>:
    78cc:	01490b13          	addi	x22,x18,20
    78d0:	100b20af          	lr.w	x1,(x22)
    78d4:	ff5096e3          	bne	x1,x21,78c0 <.L1788>

000078d8 <.L1376>:
    78d8:	00092a23          	sw	x0,20(x18)
    78dc:	00000893          	li	x17,0
    78e0:	01000293          	li	x5,16

000078e4 <.L1377>:
    78e4:	01190bb3          	add	x23,x18,x17
    78e8:	000b8223          	sb	x0,4(x23) # 4 <_Z21hb_tiled_foreach_implIfZL26convolution_backward_inputP11hb_tensor_tS1_S1_P11hb_vector_tS3_EUlvE_JEEvjjT0_8HBTensorIT_Lln1EEPS7_.isra.0+0x4>
    78ec:	00188893          	addi	x17,x17,1 # 201c0001 <.L2120+0x201b2625>
    78f0:	fe589ae3          	bne	x17,x5,78e4 <.L1377>
    78f4:	00092023          	sw	x0,0(x18)
    78f8:	00000713          	li	x14,0
    78fc:	20000e37          	lui	x28,0x20000
    7900:	00100813          	li	x16,1
    7904:	000405b7          	lui	x11,0x40
    7908:	00400337          	lui	x6,0x400

0000790c <.L1378>:
    790c:	000d2c83          	lw	x25,0(x26)
    7910:	00e966b3          	or	x13,x18,x14
    7914:	00b70733          	add	x14,x14,x11
    7918:	018c9513          	slli	x10,x25,0x18
    791c:	00d569b3          	or	x19,x10,x13
    7920:	01c9e7b3          	or	x15,x19,x28
    7924:	0107a023          	sw	x16,0(x15)
    7928:	fe6712e3          	bne	x14,x6,790c <.L1378>
    792c:	f05ff06f          	j	7830 <.L1375>

00007930 <.L1783>:
    7930:	00000fb7          	lui	x31,0x0
    7934:	00000637          	lui	x12,0x0
    7938:	004f8813          	addi	x16,x31,4 # 4 <_Z21hb_tiled_foreach_implIfZL26convolution_backward_inputP11hb_tensor_tS1_S1_P11hb_vector_tS3_EUlvE_JEEvjjT0_8HBTensorIT_Lln1EEPS7_.isra.0+0x4>
    793c:	01460493          	addi	x9,x12,20 # 14 <.L8>

00007940 <.L1341>:
    7940:	00080293          	mv	x5,x16

00007944 <.L1343>:
    7944:	0002cb83          	lbu	x23,0(x5)
    7948:	00128293          	addi	x5,x5,1
    794c:	0ffbf993          	andi	x19,x23,255
    7950:	fe0988e3          	beqz	x19,7940 <.L1341>
    7954:	fe5498e3          	bne	x9,x5,7944 <.L1343>
    7958:	000d2403          	lw	x8,0(x26)
    795c:	231c0eb7          	lui	x29,0x231c0
    7960:	00100893          	li	x17,1
    7964:	01840693          	addi	x13,x8,24
    7968:	00d90333          	add	x6,x18,x13
    796c:	01d360b3          	or	x1,x6,x29
    7970:	01108023          	sb	x17,0(x1)
    7974:	000da703          	lw	x14,0(x27)
    7978:	00700e13          	li	x28,7
    797c:	00e12623          	sw	x14,12(x2)
    7980:	cdc716e3          	bne	x14,x28,764c <.L1350>
    7984:	000d2503          	lw	x10,0(x26)
    7988:	00300593          	li	x11,3
    798c:	08b50263          	beq	x10,x11,7a10 <.L1789>

00007990 <.L1349>:
    7990:	00100c93          	li	x25,1
    7994:	0100006f          	j	79a4 <.L1345>

00007998 <.L1790>:
    7998:	01490813          	addi	x16,x18,20
    799c:	1408262f          	lr.w.aq	x12,(x16)
    79a0:	01960863          	beq	x12,x25,79b0 <.L1351>

000079a4 <.L1345>:
    79a4:	01490793          	addi	x15,x18,20
    79a8:	1007afaf          	lr.w	x31,(x15)
    79ac:	ff9f96e3          	bne	x31,x25,7998 <.L1790>

000079b0 <.L1351>:
    79b0:	00092a23          	sw	x0,20(x18)
    79b4:	00000993          	li	x19,0
    79b8:	01000b93          	li	x23,16

000079bc <.L1352>:
    79bc:	013902b3          	add	x5,x18,x19
    79c0:	00028223          	sb	x0,4(x5)
    79c4:	00198993          	addi	x19,x19,1 # 10001 <.L2120+0x2625>
    79c8:	ff799ae3          	bne	x19,x23,79bc <.L1352>
    79cc:	00092023          	sw	x0,0(x18)
    79d0:	00000f13          	li	x30,0
    79d4:	20000437          	lui	x8,0x20000
    79d8:	00100313          	li	x6,1
    79dc:	00040eb7          	lui	x29,0x40
    79e0:	004000b7          	lui	x1,0x400

000079e4 <.L1353>:
    79e4:	000d2883          	lw	x17,0(x26)
    79e8:	01e966b3          	or	x13,x18,x30
    79ec:	01df0f33          	add	x30,x30,x29
    79f0:	01889e13          	slli	x28,x17,0x18
    79f4:	00de6533          	or	x10,x28,x13
    79f8:	00856733          	or	x14,x10,x8
    79fc:	00672023          	sw	x6,0(x14)
    7a00:	fe1f12e3          	bne	x30,x1,79e4 <.L1353>
    7a04:	000da583          	lw	x11,0(x27)
    7a08:	00b12623          	sw	x11,12(x2)
    7a0c:	c41ff06f          	j	764c <.L1350>

00007a10 <.L1789>:
    7a10:	000003b7          	lui	x7,0x0
    7a14:	000007b7          	lui	x15,0x0
    7a18:	01838c93          	addi	x25,x7,24 # 18 <.L8+0x4>
    7a1c:	02078f93          	addi	x31,x15,32 # 20 <.L8+0xc>

00007a20 <.L1344>:
    7a20:	000c8613          	mv	x12,x25

00007a24 <.L1346>:
    7a24:	00064803          	lbu	x16,0(x12)
    7a28:	00160613          	addi	x12,x12,1
    7a2c:	0ff87b93          	andi	x23,x16,255
    7a30:	fe0b88e3          	beqz	x23,7a20 <.L1344>
    7a34:	fecf98e3          	bne	x31,x12,7a24 <.L1346>
    7a38:	00090c23          	sb	x0,24(x18)
    7a3c:	00090ca3          	sb	x0,25(x18)
    7a40:	00090d23          	sb	x0,26(x18)
    7a44:	00090da3          	sb	x0,27(x18)
    7a48:	00090e23          	sb	x0,28(x18)
    7a4c:	00090ea3          	sb	x0,29(x18)
    7a50:	00090f23          	sb	x0,30(x18)
    7a54:	00090fa3          	sb	x0,31(x18)
    7a58:	00092a23          	sw	x0,20(x18)
    7a5c:	00000713          	li	x14,0
    7a60:	03fc02b7          	lui	x5,0x3fc0
    7a64:	200009b7          	lui	x19,0x20000
    7a68:	00100413          	li	x8,1
    7a6c:	010006b7          	lui	x13,0x1000
    7a70:	08000337          	lui	x6,0x8000
    7a74:	0080006f          	j	7a7c <.L1348>

00007a78 <.L1791>:
    7a78:	00b12623          	sw	x11,12(x2)

00007a7c <.L1348>:
    7a7c:	00c12e83          	lw	x29,12(x2)
    7a80:	00e4e8b3          	or	x17,x9,x14
    7a84:	00d70733          	add	x14,x14,x13
    7a88:	012e9093          	slli	x1,x29,0x12
    7a8c:	0050ff33          	and	x30,x1,x5
    7a90:	011f6e33          	or	x28,x30,x17
    7a94:	013e6533          	or	x10,x28,x19
    7a98:	00852023          	sw	x8,0(x10)
    7a9c:	000da583          	lw	x11,0(x27)
    7aa0:	fc671ce3          	bne	x14,x6,7a78 <.L1791>
    7aa4:	00b12623          	sw	x11,12(x2)
    7aa8:	00700393          	li	x7,7
    7aac:	ee7582e3          	beq	x11,x7,7990 <.L1349>
    7ab0:	b9dff06f          	j	764c <.L1350>

00007ab4 <.L1787>:
    7ab4:	000002b7          	lui	x5,0x0
    7ab8:	000008b7          	lui	x17,0x0
    7abc:	01828b93          	addi	x23,x5,24 # 18 <.L8+0x4>
    7ac0:	02088e13          	addi	x28,x17,32 # 20 <.L8+0xc>

00007ac4 <.L1369>:
    7ac4:	000b8593          	mv	x11,x23

00007ac8 <.L1371>:
    7ac8:	0005c803          	lbu	x16,0(x11) # 40000 <.L2120+0x32624>
    7acc:	00158593          	addi	x11,x11,1
    7ad0:	0ff87713          	andi	x14,x16,255
    7ad4:	fe0708e3          	beqz	x14,7ac4 <.L1369>
    7ad8:	febe18e3          	bne	x28,x11,7ac8 <.L1371>
    7adc:	00090c23          	sb	x0,24(x18)
    7ae0:	00090ca3          	sb	x0,25(x18)
    7ae4:	00090d23          	sb	x0,26(x18)
    7ae8:	00090da3          	sb	x0,27(x18)
    7aec:	00090e23          	sb	x0,28(x18)
    7af0:	00090ea3          	sb	x0,29(x18)
    7af4:	00090f23          	sb	x0,30(x18)
    7af8:	00090fa3          	sb	x0,31(x18)
    7afc:	00092a23          	sw	x0,20(x18)
    7b00:	00000413          	li	x8,0
    7b04:	03fc06b7          	lui	x13,0x3fc0
    7b08:	20000337          	lui	x6,0x20000
    7b0c:	00100c93          	li	x25,1
    7b10:	01000537          	lui	x10,0x1000
    7b14:	080009b7          	lui	x19,0x8000
    7b18:	0080006f          	j	7b20 <.L1373>

00007b1c <.L1792>:
    7b1c:	000dab03          	lw	x22,0(x27)

00007b20 <.L1373>:
    7b20:	012b1793          	slli	x15,x22,0x12
    7b24:	008eec33          	or	x24,x29,x8
    7b28:	00d7f3b3          	and	x7,x15,x13
    7b2c:	0183e633          	or	x12,x7,x24
    7b30:	006664b3          	or	x9,x12,x6
    7b34:	0194a023          	sw	x25,0(x9) # 231c0000 <.L2120+0x231b2624>
    7b38:	00a40433          	add	x8,x8,x10
    7b3c:	ff3410e3          	bne	x8,x19,7b1c <.L1792>
    7b40:	000dad83          	lw	x27,0(x27)
    7b44:	00700e93          	li	x29,7
    7b48:	d7dd88e3          	beq	x27,x29,78b8 <.L1374>
    7b4c:	ce5ff06f          	j	7830 <.L1375>

00007b50 <.L1759>:
    7b50:	00000737          	lui	x14,0x0
    7b54:	00000837          	lui	x16,0x0
    7b58:	00070593          	mv	x11,x14
    7b5c:	06f00613          	li	x12,111
    7b60:	00080513          	mv	x10,x16
    7b64:	00000097          	auipc	x1,0x0
    7b68:	000080e7          	jalr	x1 # 7b64 <.L1759+0x14>
    7b6c:	02812583          	lw	x11,40(x2)
    7b70:	00000637          	lui	x12,0x0
    7b74:	00060513          	mv	x10,x12
    7b78:	000004b7          	lui	x9,0x0
    7b7c:	00000097          	auipc	x1,0x0
    7b80:	000080e7          	jalr	x1 # 7b7c <.L1759+0x2c>
    7b84:	00000bb7          	lui	x23,0x0
    7b88:	0004aa03          	lw	x20,0(x9) # 0 <_Z21hb_tiled_foreach_implIfZL26convolution_backward_inputP11hb_tensor_tS1_S1_P11hb_vector_tS3_EUlvE_JEEvjjT0_8HBTensorIT_Lln1EEPS7_.isra.0>
    7b8c:	000ba283          	lw	x5,0(x23) # 0 <_Z21hb_tiled_foreach_implIfZL26convolution_backward_inputP11hb_tensor_tS1_S1_P11hb_vector_tS3_EUlvE_JEEvjjT0_8HBTensorIT_Lln1EEPS7_.isra.0>
    7b90:	4100f937          	lui	x18,0x4100f
    7b94:	010a1c13          	slli	x24,x20,0x10
    7b98:	005c06b3          	add	x13,x24,x5
    7b9c:	acd92c23          	sw	x13,-1320(x18) # 4100ead8 <.L2120+0x410010fc>

00007ba0 <.L1382>:
    7ba0:	0000006f          	j	7ba0 <.L1382>

00007ba4 <.L1760>:
    7ba4:	000000b7          	lui	x1,0x0
    7ba8:	000008b7          	lui	x17,0x0
    7bac:	00008593          	mv	x11,x1
    7bb0:	06f00613          	li	x12,111
    7bb4:	00088513          	mv	x10,x17
    7bb8:	00000097          	auipc	x1,0x0
    7bbc:	000080e7          	jalr	x1 # 7bb8 <.L1760+0x14>
    7bc0:	02812583          	lw	x11,40(x2)
    7bc4:	00000f37          	lui	x30,0x0
    7bc8:	000f0513          	mv	x10,x30
    7bcc:	00000097          	auipc	x1,0x0
    7bd0:	000080e7          	jalr	x1 # 7bcc <.L1760+0x28>
    7bd4:	00000e37          	lui	x28,0x0
    7bd8:	000e2503          	lw	x10,0(x28) # 0 <_Z21hb_tiled_foreach_implIfZL26convolution_backward_inputP11hb_tensor_tS1_S1_P11hb_vector_tS3_EUlvE_JEEvjjT0_8HBTensorIT_Lln1EEPS7_.isra.0>
    7bdc:	000005b7          	lui	x11,0x0
    7be0:	0005a383          	lw	x7,0(x11) # 0 <_Z21hb_tiled_foreach_implIfZL26convolution_backward_inputP11hb_tensor_tS1_S1_P11hb_vector_tS3_EUlvE_JEEvjjT0_8HBTensorIT_Lln1EEPS7_.isra.0>
    7be4:	01051793          	slli	x15,x10,0x10
    7be8:	4100ffb7          	lui	x31,0x4100f
    7bec:	00778cb3          	add	x25,x15,x7
    7bf0:	ad9fac23          	sw	x25,-1320(x31) # 4100ead8 <.L2120+0x410010fc>

00007bf4 <.L1384>:
    7bf4:	0000006f          	j	7bf4 <.L1384>

00007bf8 <.L1761>:
    7bf8:	000006b7          	lui	x13,0x0
    7bfc:	00000937          	lui	x18,0x0
    7c00:	00068593          	mv	x11,x13
    7c04:	06f00613          	li	x12,111
    7c08:	00090513          	mv	x10,x18
    7c0c:	00000097          	auipc	x1,0x0
    7c10:	000080e7          	jalr	x1 # 7c0c <.L1761+0x14>
    7c14:	02812583          	lw	x11,40(x2)
    7c18:	00000d37          	lui	x26,0x0
    7c1c:	000d0513          	mv	x10,x26
    7c20:	000009b7          	lui	x19,0x0
    7c24:	00000097          	auipc	x1,0x0
    7c28:	000080e7          	jalr	x1 # 7c24 <.L1761+0x2c>
    7c2c:	00000ab7          	lui	x21,0x0
    7c30:	0009a403          	lw	x8,0(x19) # 0 <_Z21hb_tiled_foreach_implIfZL26convolution_backward_inputP11hb_tensor_tS1_S1_P11hb_vector_tS3_EUlvE_JEEvjjT0_8HBTensorIT_Lln1EEPS7_.isra.0>
    7c34:	000aab03          	lw	x22,0(x21) # 0 <_Z21hb_tiled_foreach_implIfZL26convolution_backward_inputP11hb_tensor_tS1_S1_P11hb_vector_tS3_EUlvE_JEEvjjT0_8HBTensorIT_Lln1EEPS7_.isra.0>
    7c38:	4100feb7          	lui	x29,0x4100f
    7c3c:	01041d93          	slli	x27,x8,0x10
    7c40:	016d8333          	add	x6,x27,x22
    7c44:	ac6eac23          	sw	x6,-1320(x29) # 4100ead8 <.L2120+0x410010fc>

00007c48 <.L1386>:
    7c48:	0000006f          	j	7c48 <.L1386>

00007c4c <.L1762>:
    7c4c:	00000fb7          	lui	x31,0x0
    7c50:	00000cb7          	lui	x25,0x0
    7c54:	06f00613          	li	x12,111
    7c58:	000c8593          	mv	x11,x25
    7c5c:	000f8513          	mv	x10,x31
    7c60:	00000097          	auipc	x1,0x0
    7c64:	000080e7          	jalr	x1 # 7c60 <.L1762+0x14>
    7c68:	02812583          	lw	x11,40(x2)
    7c6c:	00000637          	lui	x12,0x0
    7c70:	00060513          	mv	x10,x12
    7c74:	00000097          	auipc	x1,0x0
    7c78:	000080e7          	jalr	x1 # 7c74 <.L1762+0x28>
    7c7c:	00000737          	lui	x14,0x0
    7c80:	00072803          	lw	x16,0(x14) # 0 <_Z21hb_tiled_foreach_implIfZL26convolution_backward_inputP11hb_tensor_tS1_S1_P11hb_vector_tS3_EUlvE_JEEvjjT0_8HBTensorIT_Lln1EEPS7_.isra.0>
    7c84:	000004b7          	lui	x9,0x0
    7c88:	0004aa03          	lw	x20,0(x9) # 0 <_Z21hb_tiled_foreach_implIfZL26convolution_backward_inputP11hb_tensor_tS1_S1_P11hb_vector_tS3_EUlvE_JEEvjjT0_8HBTensorIT_Lln1EEPS7_.isra.0>
    7c8c:	01081b93          	slli	x23,x16,0x10
    7c90:	4100fc37          	lui	x24,0x4100f
    7c94:	014b82b3          	add	x5,x23,x20
    7c98:	ac5c2c23          	sw	x5,-1320(x24) # 4100ead8 <.L2120+0x410010fc>

00007c9c <.L1388>:
    7c9c:	0000006f          	j	7c9c <.L1388>

00007ca0 <.L1763>:
    7ca0:	000000b7          	lui	x1,0x0
    7ca4:	00000337          	lui	x6,0x0
    7ca8:	00008593          	mv	x11,x1
    7cac:	06f00613          	li	x12,111
    7cb0:	00030513          	mv	x10,x6
    7cb4:	00000097          	auipc	x1,0x0
    7cb8:	000080e7          	jalr	x1 # 7cb4 <.L1763+0x14>
    7cbc:	05c12583          	lw	x11,92(x2)
    7cc0:	00000eb7          	lui	x29,0x0
    7cc4:	000e8513          	mv	x10,x29
    7cc8:	00000097          	auipc	x1,0x0
    7ccc:	000080e7          	jalr	x1 # 7cc8 <.L1763+0x28>
    7cd0:	000008b7          	lui	x17,0x0
    7cd4:	0008af03          	lw	x30,0(x17) # 0 <_Z21hb_tiled_foreach_implIfZL26convolution_backward_inputP11hb_tensor_tS1_S1_P11hb_vector_tS3_EUlvE_JEEvjjT0_8HBTensorIT_Lln1EEPS7_.isra.0>
    7cd8:	00000e37          	lui	x28,0x0
    7cdc:	000e2503          	lw	x10,0(x28) # 0 <_Z21hb_tiled_foreach_implIfZL26convolution_backward_inputP11hb_tensor_tS1_S1_P11hb_vector_tS3_EUlvE_JEEvjjT0_8HBTensorIT_Lln1EEPS7_.isra.0>
    7ce0:	010f1593          	slli	x11,x30,0x10
    7ce4:	4100f3b7          	lui	x7,0x4100f
    7ce8:	00a587b3          	add	x15,x11,x10
    7cec:	acf3ac23          	sw	x15,-1320(x7) # 4100ead8 <.L2120+0x410010fc>

00007cf0 <.L1390>:
    7cf0:	0000006f          	j	7cf0 <.L1390>

00007cf4 <.L1764>:
    7cf4:	000002b7          	lui	x5,0x0
    7cf8:	00000c37          	lui	x24,0x0
    7cfc:	00028593          	mv	x11,x5
    7d00:	06f00613          	li	x12,111
    7d04:	000c0513          	mv	x10,x24
    7d08:	00000097          	auipc	x1,0x0
    7d0c:	000080e7          	jalr	x1 # 7d08 <.L1764+0x14>
    7d10:	05c12583          	lw	x11,92(x2)
    7d14:	000006b7          	lui	x13,0x0
    7d18:	00068513          	mv	x10,x13
    7d1c:	00000937          	lui	x18,0x0
    7d20:	00000097          	auipc	x1,0x0
    7d24:	000080e7          	jalr	x1 # 7d20 <.L1764+0x2c>
    7d28:	000009b7          	lui	x19,0x0
    7d2c:	00092d03          	lw	x26,0(x18) # 0 <_Z21hb_tiled_foreach_implIfZL26convolution_backward_inputP11hb_tensor_tS1_S1_P11hb_vector_tS3_EUlvE_JEEvjjT0_8HBTensorIT_Lln1EEPS7_.isra.0>
    7d30:	0009a403          	lw	x8,0(x19) # 0 <_Z21hb_tiled_foreach_implIfZL26convolution_backward_inputP11hb_tensor_tS1_S1_P11hb_vector_tS3_EUlvE_JEEvjjT0_8HBTensorIT_Lln1EEPS7_.isra.0>
    7d34:	4100fdb7          	lui	x27,0x4100f
    7d38:	010d1a93          	slli	x21,x26,0x10
    7d3c:	008a8b33          	add	x22,x21,x8
    7d40:	ad6dac23          	sw	x22,-1320(x27) # 4100ead8 <.L2120+0x410010fc>

00007d44 <.L1392>:
    7d44:	0000006f          	j	7d44 <.L1392>

00007d48 <.L1765>:
    7d48:	000007b7          	lui	x15,0x0
    7d4c:	000003b7          	lui	x7,0x0
    7d50:	00078593          	mv	x11,x15
    7d54:	06f00613          	li	x12,111
    7d58:	00038513          	mv	x10,x7
    7d5c:	00000097          	auipc	x1,0x0
    7d60:	000080e7          	jalr	x1 # 7d5c <.L1765+0x14>
    7d64:	05c12583          	lw	x11,92(x2)
    7d68:	00000637          	lui	x12,0x0
    7d6c:	00060513          	mv	x10,x12
    7d70:	00000097          	auipc	x1,0x0
    7d74:	000080e7          	jalr	x1 # 7d70 <.L1765+0x28>
    7d78:	00000cb7          	lui	x25,0x0
    7d7c:	000caf83          	lw	x31,0(x25) # 0 <_Z21hb_tiled_foreach_implIfZL26convolution_backward_inputP11hb_tensor_tS1_S1_P11hb_vector_tS3_EUlvE_JEEvjjT0_8HBTensorIT_Lln1EEPS7_.isra.0>
    7d80:	00000737          	lui	x14,0x0
    7d84:	00072803          	lw	x16,0(x14) # 0 <_Z21hb_tiled_foreach_implIfZL26convolution_backward_inputP11hb_tensor_tS1_S1_P11hb_vector_tS3_EUlvE_JEEvjjT0_8HBTensorIT_Lln1EEPS7_.isra.0>
    7d88:	010f9493          	slli	x9,x31,0x10
    7d8c:	4100fbb7          	lui	x23,0x4100f
    7d90:	01048a33          	add	x20,x9,x16
    7d94:	ad4bac23          	sw	x20,-1320(x23) # 4100ead8 <.L2120+0x410010fc>

00007d98 <.L1394>:
    7d98:	0000006f          	j	7d98 <.L1394>

00007d9c <.L1766>:
    7d9c:	000000b7          	lui	x1,0x0
    7da0:	00000b37          	lui	x22,0x0
    7da4:	00008593          	mv	x11,x1
    7da8:	06f00613          	li	x12,111
    7dac:	000b0513          	mv	x10,x22
    7db0:	00000097          	auipc	x1,0x0
    7db4:	000080e7          	jalr	x1 # 7db0 <.L1766+0x14>
    7db8:	09012583          	lw	x11,144(x2)
    7dbc:	00000db7          	lui	x27,0x0
    7dc0:	000d8513          	mv	x10,x27
    7dc4:	00000097          	auipc	x1,0x0
    7dc8:	000080e7          	jalr	x1 # 7dc4 <.L1766+0x28>
    7dcc:	00000337          	lui	x6,0x0
    7dd0:	00032e83          	lw	x29,0(x6) # 0 <_Z21hb_tiled_foreach_implIfZL26convolution_backward_inputP11hb_tensor_tS1_S1_P11hb_vector_tS3_EUlvE_JEEvjjT0_8HBTensorIT_Lln1EEPS7_.isra.0>
    7dd4:	000008b7          	lui	x17,0x0
    7dd8:	0008af03          	lw	x30,0(x17) # 0 <_Z21hb_tiled_foreach_implIfZL26convolution_backward_inputP11hb_tensor_tS1_S1_P11hb_vector_tS3_EUlvE_JEEvjjT0_8HBTensorIT_Lln1EEPS7_.isra.0>
    7ddc:	010e9e13          	slli	x28,x29,0x10
    7de0:	4100f5b7          	lui	x11,0x4100f
    7de4:	01ee0533          	add	x10,x28,x30
    7de8:	aca5ac23          	sw	x10,-1320(x11) # 4100ead8 <.L2120+0x410010fc>

00007dec <.L1396>:
    7dec:	0000006f          	j	7dec <.L1396>

00007df0 <.L1767>:
    7df0:	00000a37          	lui	x20,0x0
    7df4:	00000bb7          	lui	x23,0x0
    7df8:	06f00613          	li	x12,111
    7dfc:	000a0593          	mv	x11,x20
    7e00:	000b8513          	mv	x10,x23
    7e04:	00000097          	auipc	x1,0x0
    7e08:	000080e7          	jalr	x1 # 7e04 <.L1767+0x14>
    7e0c:	09012583          	lw	x11,144(x2)
    7e10:	000002b7          	lui	x5,0x0
    7e14:	00028513          	mv	x10,x5
    7e18:	00000097          	auipc	x1,0x0
    7e1c:	000080e7          	jalr	x1 # 7e18 <.L1767+0x28>
    7e20:	00000c37          	lui	x24,0x0
    7e24:	000c2683          	lw	x13,0(x24) # 0 <_Z21hb_tiled_foreach_implIfZL26convolution_backward_inputP11hb_tensor_tS1_S1_P11hb_vector_tS3_EUlvE_JEEvjjT0_8HBTensorIT_Lln1EEPS7_.isra.0>
    7e28:	00000937          	lui	x18,0x0
    7e2c:	00092d03          	lw	x26,0(x18) # 0 <_Z21hb_tiled_foreach_implIfZL26convolution_backward_inputP11hb_tensor_tS1_S1_P11hb_vector_tS3_EUlvE_JEEvjjT0_8HBTensorIT_Lln1EEPS7_.isra.0>
    7e30:	01069993          	slli	x19,x13,0x10
    7e34:	4100fab7          	lui	x21,0x4100f
    7e38:	01a98433          	add	x8,x19,x26
    7e3c:	ac8aac23          	sw	x8,-1320(x21) # 4100ead8 <.L2120+0x410010fc>

00007e40 <.L1398>:
    7e40:	0000006f          	j	7e40 <.L1398>

00007e44 <.L1768>:
    7e44:	02000b93          	li	x23,32
    7e48:	9f7d1c63          	bne	x26,x23,7040 <.L1399>
    7e4c:	9fad9a63          	bne	x27,x26,7040 <.L1399>
    7e50:	9fb09863          	bne	x1,x27,7040 <.L1399>
    7e54:	01000593          	li	x11,16
    7e58:	9ebf1463          	bne	x30,x11,7040 <.L1399>
    7e5c:	9e161263          	bne	x12,x1,7040 <.L1399>
    7e60:	9ec29063          	bne	x5,x12,7040 <.L1399>
    7e64:	00300813          	li	x16,3
    7e68:	9d069c63          	bne	x13,x16,7040 <.L1399>
    7e6c:	9cd39a63          	bne	x7,x13,7040 <.L1399>
    7e70:	00100513          	li	x10,1
    7e74:	9ca71663          	bne	x14,x10,7040 <.L1399>
    7e78:	9cea9463          	bne	x21,x14,7040 <.L1399>
    7e7c:	00100e93          	li	x29,1
    7e80:	9dd79063          	bne	x15,x29,7040 <.L1399>
    7e84:	9afb1e63          	bne	x22,x15,7040 <.L1399>
    7e88:	00000ab7          	lui	x21,0x0
    7e8c:	00000cb7          	lui	x25,0x0
    7e90:	00000c37          	lui	x24,0x0
    7e94:	00000b37          	lui	x22,0x0
    7e98:	000aaf83          	lw	x31,0(x21) # 0 <_Z21hb_tiled_foreach_implIfZL26convolution_backward_inputP11hb_tensor_tS1_S1_P11hb_vector_tS3_EUlvE_JEEvjjT0_8HBTensorIT_Lln1EEPS7_.isra.0>
    7e9c:	000ca583          	lw	x11,0(x25) # 0 <_Z21hb_tiled_foreach_implIfZL26convolution_backward_inputP11hb_tensor_tS1_S1_P11hb_vector_tS3_EUlvE_JEEvjjT0_8HBTensorIT_Lln1EEPS7_.isra.0>
    7ea0:	000b2b83          	lw	x23,0(x22) # 0 <_Z21hb_tiled_foreach_implIfZL26convolution_backward_inputP11hb_tensor_tS1_S1_P11hb_vector_tS3_EUlvE_JEEvjjT0_8HBTensorIT_Lln1EEPS7_.isra.0>
    7ea4:	000c2083          	lw	x1,0(x24) # 0 <_Z21hb_tiled_foreach_implIfZL26convolution_backward_inputP11hb_tensor_tS1_S1_P11hb_vector_tS3_EUlvE_JEEvjjT0_8HBTensorIT_Lln1EEPS7_.isra.0>
    7ea8:	00000d37          	lui	x26,0x0
    7eac:	000d2f03          	lw	x30,0(x26) # 0 <_Z21hb_tiled_foreach_implIfZL26convolution_backward_inputP11hb_tensor_tS1_S1_P11hb_vector_tS3_EUlvE_JEEvjjT0_8HBTensorIT_Lln1EEPS7_.isra.0>
    7eb0:	00bf8eb3          	add	x29,x31,x11
    7eb4:	001b8db3          	add	x27,x23,x1
    7eb8:	018e9513          	slli	x10,x29,0x18
    7ebc:	012d9813          	slli	x16,x27,0x12
    7ec0:	3f000737          	lui	x14,0x3f000
    7ec4:	00fc06b7          	lui	x13,0xfc0
    7ec8:	00040e37          	lui	x28,0x40
    7ecc:	00e57333          	and	x6,x10,x14
    7ed0:	00d878b3          	and	x17,x16,x13
    7ed4:	004f1613          	slli	x12,x30,0x4
    7ed8:	ff0e0793          	addi	x15,x28,-16 # 3fff0 <.L2120+0x32614>
    7edc:	0104af83          	lw	x31,16(x9)
    7ee0:	00f672b3          	and	x5,x12,x15
    7ee4:	011364b3          	or	x9,x6,x17
    7ee8:	0054e3b3          	or	x7,x9,x5
    7eec:	800009b7          	lui	x19,0x80000
    7ef0:	01042283          	lw	x5,16(x8) # 20000010 <.L2120+0x1fff2634>
    7ef4:	0133ea33          	or	x20,x7,x19
    7ef8:	41001437          	lui	x8,0x41001
    7efc:	01092d03          	lw	x26,16(x18)
    7f00:	020f8a93          	addi	x21,x31,32 # 20 <.L8+0xc>
    7f04:	000f8913          	mv	x18,x31
    7f08:	d1442623          	sw	x20,-756(x8) # 41000d0c <.L2120+0x40ff3330>

00007f0c <.L1403>:
    7f0c:	000fa023          	sw	x0,0(x31)
    7f10:	004f8f93          	addi	x31,x31,4
    7f14:	fffa9ce3          	bne	x21,x31,7f0c <.L1403>
    7f18:	000c2583          	lw	x11,0(x24)
    7f1c:	000cab03          	lw	x22,0(x25)
    7f20:	00000bb7          	lui	x23,0x0
    7f24:	00458093          	addi	x1,x11,4
    7f28:	000b8a13          	mv	x20,x23
    7f2c:	001a0f33          	add	x30,x20,x1
    7f30:	018b1e93          	slli	x29,x22,0x18
    7f34:	01df6db3          	or	x27,x30,x29
    7f38:	201c0537          	lui	x10,0x201c0
    7f3c:	00ade833          	or	x16,x27,x10
    7f40:	00100713          	li	x14,1
    7f44:	00e80023          	sb	x14,0(x16) # 0 <_Z21hb_tiled_foreach_implIfZL26convolution_backward_inputP11hb_tensor_tS1_S1_P11hb_vector_tS3_EUlvE_JEEvjjT0_8HBTensorIT_Lln1EEPS7_.isra.0>
    7f48:	000c2303          	lw	x6,0(x24)
    7f4c:	00700693          	li	x13,7
    7f50:	2cd30463          	beq	x6,x13,8218 <.L1793>

00007f54 <.L1413>:
    7f54:	00100d93          	li	x27,1
    7f58:	0100006f          	j	7f68 <.L1418>

00007f5c <.L1794>:
    7f5c:	000b8813          	mv	x16,x23
    7f60:	1408232f          	lr.w.aq	x6,(x16)
    7f64:	01b30863          	beq	x6,x27,7f74 <.L1417>

00007f68 <.L1418>:
    7f68:	000b8e13          	mv	x28,x23
    7f6c:	100e252f          	lr.w	x10,(x28)
    7f70:	ffb516e3          	bne	x10,x27,7f5c <.L1794>

00007f74 <.L1417>:
    7f74:	00000737          	lui	x14,0x0
    7f78:	00072683          	lw	x13,0(x14) # 0 <_Z21hb_tiled_foreach_implIfZL26convolution_backward_inputP11hb_tensor_tS1_S1_P11hb_vector_tS3_EUlvE_JEEvjjT0_8HBTensorIT_Lln1EEPS7_.isra.0>
    7f7c:	08100613          	li	x12,129
    7f80:	000a2023          	sw	x0,0(x20) # 0 <_Z21hb_tiled_foreach_implIfZL26convolution_backward_inputP11hb_tensor_tS1_S1_P11hb_vector_tS3_EUlvE_JEEvjjT0_8HBTensorIT_Lln1EEPS7_.isra.0>
    7f84:	07f6f893          	andi	x17,x13,127
    7f88:	02c889b3          	mul	x19,x17,x12
    7f8c:	000044b7          	lui	x9,0x4
    7f90:	08198413          	addi	x8,x19,129 # 80000081 <.L2120+0x7fff26a5>
    7f94:	0084f463          	bgeu	x9,x8,7f9c <.L1419>
    7f98:	00004437          	lui	x8,0x4

00007f9c <.L1419>:
    7f9c:	00001ab7          	lui	x21,0x1
    7fa0:	00000493          	li	x9,0
    7fa4:	01f00093          	li	x1,31
    7fa8:	200a8b13          	addi	x22,x21,512 # 1200 <.L225+0x24>
    7fac:	00020db7          	lui	x27,0x20

00007fb0 <.L1427>:
    7fb0:	000d0f93          	mv	x31,x26
    7fb4:	00000393          	li	x7,0

00007fb8 <.L1422>:
    7fb8:	00098e13          	mv	x28,x19
    7fbc:	0a89f263          	bgeu	x19,x8,8060 <.L1426>

00007fc0 <.L1420>:
    7fc0:	00ae5f13          	srli	x30,x28,0xa
    7fc4:	01fe7513          	andi	x10,x28,31
    7fc8:	005e5793          	srli	x15,x28,0x5
    7fcc:	01f7fe93          	andi	x29,x15,31
    7fd0:	00af1813          	slli	x16,x30,0xa
    7fd4:	00950333          	add	x6,x10,x9
    7fd8:	003f1593          	slli	x11,x30,0x3
    7fdc:	00680733          	add	x14,x16,x6
    7fe0:	005e9693          	slli	x13,x29,0x5
    7fe4:	01e588b3          	add	x17,x11,x30
    7fe8:	00d70633          	add	x12,x14,x13
    7fec:	007885b3          	add	x11,x17,x7
    7ff0:	00261f13          	slli	x30,x12,0x2
    7ff4:	001e8693          	addi	x13,x29,1 # 1 <_Z21hb_tiled_foreach_implIfZL26convolution_backward_inputP11hb_tensor_tS1_S1_P11hb_vector_tS3_EUlvE_JEEvjjT0_8HBTensorIT_Lln1EEPS7_.isra.0+0x1>
    7ff8:	01e90833          	add	x16,x18,x30
    7ffc:	00150313          	addi	x6,x10,1 # 201c0001 <.L2120+0x201b2625>
    8000:	00958e93          	addi	x29,x11,9
    8004:	ffe50893          	addi	x17,x10,-2

00008008 <.L1425>:
    8008:	00769793          	slli	x15,x13,0x7
    800c:	00259513          	slli	x10,x11,0x2
    8010:	01f78633          	add	x12,x15,x31
    8014:	00550733          	add	x14,x10,x5
    8018:	00030793          	mv	x15,x6

0000801c <.L1424>:
    801c:	02d0e263          	bltu	x1,x13,8040 <.L1423>
    8020:	00279f13          	slli	x30,x15,0x2
    8024:	00cf0533          	add	x10,x30,x12
    8028:	00f0ec63          	bltu	x1,x15,8040 <.L1423>
    802c:	00072687          	flw	f13,0(x14)
    8030:	00052787          	flw	f15,0(x10)
    8034:	00082707          	flw	f14,0(x16)
    8038:	70d7f043          	fmadd.s	f0,f15,f13,f14
    803c:	00082027          	fsw	f0,0(x16)

00008040 <.L1423>:
    8040:	fff78793          	addi	x15,x15,-1
    8044:	00470713          	addi	x14,x14,4
    8048:	fd179ae3          	bne	x15,x17,801c <.L1424>
    804c:	00358593          	addi	x11,x11,3
    8050:	fff68693          	addi	x13,x13,-1 # fbffff <.L2120+0xfb2623>
    8054:	fabe9ae3          	bne	x29,x11,8008 <.L1425>
    8058:	001e0e13          	addi	x28,x28,1
    805c:	f68e12e3          	bne	x28,x8,7fc0 <.L1420>

00008060 <.L1426>:
    8060:	09038393          	addi	x7,x7,144 # 90 <.L75+0x24>
    8064:	015f8fb3          	add	x31,x31,x21
    8068:	f56398e3          	bne	x7,x22,7fb8 <.L1422>
    806c:	00004837          	lui	x16,0x4
    8070:	010484b3          	add	x9,x9,x16
    8074:	01bd0d33          	add	x26,x26,x27
    8078:	f3b49ce3          	bne	x9,x27,7fb0 <.L1427>
    807c:	000002b7          	lui	x5,0x0
    8080:	000009b7          	lui	x19,0x0
    8084:	0002a903          	lw	x18,0(x5) # 0 <_Z21hb_tiled_foreach_implIfZL26convolution_backward_inputP11hb_tensor_tS1_S1_P11hb_vector_tS3_EUlvE_JEEvjjT0_8HBTensorIT_Lln1EEPS7_.isra.0>
    8088:	0009a403          	lw	x8,0(x19) # 0 <_Z21hb_tiled_foreach_implIfZL26convolution_backward_inputP11hb_tensor_tS1_S1_P11hb_vector_tS3_EUlvE_JEEvjjT0_8HBTensorIT_Lln1EEPS7_.isra.0>
    808c:	000cad03          	lw	x26,0(x25)
    8090:	000c2a83          	lw	x21,0(x24)
    8094:	000000b7          	lui	x1,0x0
    8098:	0000ab03          	lw	x22,0(x1) # 0 <_Z21hb_tiled_foreach_implIfZL26convolution_backward_inputP11hb_tensor_tS1_S1_P11hb_vector_tS3_EUlvE_JEEvjjT0_8HBTensorIT_Lln1EEPS7_.isra.0>
    809c:	01a90db3          	add	x27,x18,x26
    80a0:	01540333          	add	x6,x8,x21
    80a4:	018d9e93          	slli	x29,x27,0x18
    80a8:	01231893          	slli	x17,x6,0x12
    80ac:	3f000637          	lui	x12,0x3f000
    80b0:	00fc0537          	lui	x10,0xfc0
    80b4:	00040737          	lui	x14,0x40
    80b8:	00ceff33          	and	x30,x29,x12
    80bc:	00a8f7b3          	and	x15,x17,x10
    80c0:	004b1593          	slli	x11,x22,0x4
    80c4:	ff070e13          	addi	x28,x14,-16 # 3fff0 <.L2120+0x32614>
    80c8:	00ff66b3          	or	x13,x30,x15
    80cc:	01c5f3b3          	and	x7,x11,x28
    80d0:	0076efb3          	or	x31,x13,x7
    80d4:	c0000837          	lui	x16,0xc0000
    80d8:	010fe4b3          	or	x9,x31,x16
    80dc:	410012b7          	lui	x5,0x41001
    80e0:	d092a623          	sw	x9,-756(x5) # 41000d0c <.L2120+0x40ff3330>
    80e4:	000c2903          	lw	x18,0(x24)
    80e8:	000cad03          	lw	x26,0(x25)
    80ec:	201c0b37          	lui	x22,0x201c0
    80f0:	00490993          	addi	x19,x18,4
    80f4:	013a0433          	add	x8,x20,x19
    80f8:	018d1a93          	slli	x21,x26,0x18
    80fc:	015460b3          	or	x1,x8,x21
    8100:	0160edb3          	or	x27,x1,x22
    8104:	00100313          	li	x6,1
    8108:	006d8023          	sb	x6,0(x27) # 20000 <.L2120+0x12624>
    810c:	000c2e83          	lw	x29,0(x24)
    8110:	00700893          	li	x17,7
    8114:	031e8863          	beq	x29,x17,8144 <.L1795>

00008118 <.L1437>:
    8118:	00100c93          	li	x25,1
    811c:	0100006f          	j	812c <.L1442>

00008120 <.L1796>:
    8120:	000b8813          	mv	x16,x23
    8124:	140824af          	lr.w.aq	x9,(x16)
    8128:	01948863          	beq	x9,x25,8138 <.L1441>

0000812c <.L1442>:
    812c:	000b8713          	mv	x14,x23
    8130:	10072faf          	lr.w	x31,(x14)
    8134:	ff9f96e3          	bne	x31,x25,8120 <.L1796>

00008138 <.L1441>:
    8138:	000a2023          	sw	x0,0(x20)
    813c:	00000513          	li	x10,0
    8140:	8c8ff06f          	j	7208 <.L1317>

00008144 <.L1795>:
    8144:	00000637          	lui	x12,0x0
    8148:	00000537          	lui	x10,0x0
    814c:	00460f13          	addi	x30,x12,4 # 4 <_Z21hb_tiled_foreach_implIfZL26convolution_backward_inputP11hb_tensor_tS1_S1_P11hb_vector_tS3_EUlvE_JEEvjjT0_8HBTensorIT_Lln1EEPS7_.isra.0+0x4>
    8150:	01450693          	addi	x13,x10,20 # 14 <.L8>

00008154 <.L1429>:
    8154:	000f0793          	mv	x15,x30

00008158 <.L1431>:
    8158:	0007c583          	lbu	x11,0(x15)
    815c:	00178793          	addi	x15,x15,1
    8160:	0ff5f713          	andi	x14,x11,255
    8164:	fe0708e3          	beqz	x14,8154 <.L1429>
    8168:	fef698e3          	bne	x13,x15,8158 <.L1431>
    816c:	000cae03          	lw	x28,0(x25)
    8170:	231c0837          	lui	x16,0x231c0
    8174:	00100293          	li	x5,1
    8178:	018e0393          	addi	x7,x28,24
    817c:	007a0fb3          	add	x31,x20,x7
    8180:	010fe4b3          	or	x9,x31,x16
    8184:	00548023          	sb	x5,0(x9) # 4000 <.L729+0x2c>
    8188:	000c2903          	lw	x18,0(x24)
    818c:	00700d13          	li	x26,7
    8190:	f9a914e3          	bne	x18,x26,8118 <.L1437>
    8194:	000ca983          	lw	x19,0(x25)
    8198:	00300413          	li	x8,3
    819c:	28898863          	beq	x19,x8,842c <.L1797>

000081a0 <.L1436>:
    81a0:	00100913          	li	x18,1
    81a4:	0100006f          	j	81b4 <.L1433>

000081a8 <.L1798>:
    81a8:	014a0413          	addi	x8,x20,20
    81ac:	14042aaf          	lr.w.aq	x21,(x8)
    81b0:	012a8863          	beq	x21,x18,81c0 <.L1438>

000081b4 <.L1433>:
    81b4:	014a0d13          	addi	x26,x20,20
    81b8:	100d29af          	lr.w	x19,(x26)
    81bc:	ff2996e3          	bne	x19,x18,81a8 <.L1798>

000081c0 <.L1438>:
    81c0:	000a2a23          	sw	x0,20(x20)
    81c4:	00000d93          	li	x27,0
    81c8:	01000093          	li	x1,16

000081cc <.L1439>:
    81cc:	01ba0b33          	add	x22,x20,x27
    81d0:	000b0223          	sb	x0,4(x22) # 201c0004 <.L2120+0x201b2628>
    81d4:	001d8d93          	addi	x27,x27,1
    81d8:	fe1d9ae3          	bne	x27,x1,81cc <.L1439>
    81dc:	000a2023          	sw	x0,0(x20)
    81e0:	00000593          	li	x11,0
    81e4:	20000337          	lui	x6,0x20000
    81e8:	00100e93          	li	x29,1
    81ec:	000408b7          	lui	x17,0x40
    81f0:	00400f37          	lui	x30,0x400

000081f4 <.L1440>:
    81f4:	000cae03          	lw	x28,0(x25)
    81f8:	00ba6533          	or	x10,x20,x11
    81fc:	011585b3          	add	x11,x11,x17
    8200:	018e1613          	slli	x12,x28,0x18
    8204:	00a667b3          	or	x15,x12,x10
    8208:	0067e3b3          	or	x7,x15,x6
    820c:	01d3a023          	sw	x29,0(x7)
    8210:	ffe592e3          	bne	x11,x30,81f4 <.L1440>
    8214:	f05ff06f          	j	8118 <.L1437>

00008218 <.L1793>:
    8218:	000008b7          	lui	x17,0x0
    821c:	000004b7          	lui	x9,0x0
    8220:	00488613          	addi	x12,x17,4 # 4 <_Z21hb_tiled_foreach_implIfZL26convolution_backward_inputP11hb_tensor_tS1_S1_P11hb_vector_tS3_EUlvE_JEEvjjT0_8HBTensorIT_Lln1EEPS7_.isra.0+0x4>
    8224:	01448e13          	addi	x28,x9,20 # 14 <.L8>

00008228 <.L1405>:
    8228:	00060793          	mv	x15,x12

0000822c <.L1407>:
    822c:	0007c383          	lbu	x7,0(x15)
    8230:	00178793          	addi	x15,x15,1
    8234:	0ff3f993          	andi	x19,x7,255
    8238:	fe0988e3          	beqz	x19,8228 <.L1405>
    823c:	fefe18e3          	bne	x28,x15,822c <.L1407>
    8240:	000ca403          	lw	x8,0(x25)
    8244:	231c05b7          	lui	x11,0x231c0
    8248:	00100093          	li	x1,1
    824c:	01840a93          	addi	x21,x8,24 # 4018 <.L748>
    8250:	015a0fb3          	add	x31,x20,x21
    8254:	00bfeb33          	or	x22,x31,x11
    8258:	001b0023          	sb	x1,0(x22)
    825c:	000c2f03          	lw	x30,0(x24)
    8260:	00700e93          	li	x29,7
    8264:	cfdf18e3          	bne	x30,x29,7f54 <.L1413>
    8268:	000cad83          	lw	x27,0(x25)
    826c:	00300513          	li	x10,3
    8270:	12ad8263          	beq	x27,x10,8394 <.L1799>

00008274 <.L1412>:
    8274:	00100813          	li	x16,1
    8278:	0100006f          	j	8288 <.L1409>

0000827c <.L1800>:
    827c:	014a0693          	addi	x13,x20,20
    8280:	1406a8af          	lr.w.aq	x17,(x13)
    8284:	01088863          	beq	x17,x16,8294 <.L1414>

00008288 <.L1409>:
    8288:	014a0313          	addi	x6,x20,20
    828c:	1003272f          	lr.w	x14,(x6)
    8290:	ff0716e3          	bne	x14,x16,827c <.L1800>

00008294 <.L1414>:
    8294:	000a2a23          	sw	x0,20(x20)
    8298:	00000393          	li	x7,0
    829c:	01000613          	li	x12,16

000082a0 <.L1415>:
    82a0:	007a04b3          	add	x9,x20,x7
    82a4:	00048223          	sb	x0,4(x9)
    82a8:	00138393          	addi	x7,x7,1
    82ac:	fec39ae3          	bne	x7,x12,82a0 <.L1415>
    82b0:	000a2023          	sw	x0,0(x20)
    82b4:	00000b13          	li	x22,0
    82b8:	200009b7          	lui	x19,0x20000
    82bc:	00100413          	li	x8,1
    82c0:	00040ab7          	lui	x21,0x40
    82c4:	00400fb7          	lui	x31,0x400

000082c8 <.L1416>:
    82c8:	000ca783          	lw	x15,0(x25)
    82cc:	016a65b3          	or	x11,x20,x22
    82d0:	015b0b33          	add	x22,x22,x21
    82d4:	01879093          	slli	x1,x15,0x18
    82d8:	00b0ef33          	or	x30,x1,x11
    82dc:	013f6eb3          	or	x29,x30,x19
    82e0:	008ea023          	sw	x8,0(x29)
    82e4:	fffb12e3          	bne	x22,x31,82c8 <.L1416>
    82e8:	c6dff06f          	j	7f54 <.L1413>

000082ec <.L1769>:
    82ec:	000006b7          	lui	x13,0x0
    82f0:	00000337          	lui	x6,0x0
    82f4:	00068593          	mv	x11,x13
    82f8:	06f00613          	li	x12,111
    82fc:	00030513          	mv	x10,x6
    8300:	00000097          	auipc	x1,0x0
    8304:	000080e7          	jalr	x1 # 8300 <.L1769+0x14>
    8308:	02812583          	lw	x11,40(x2)
    830c:	00000637          	lui	x12,0x0
    8310:	00060513          	mv	x10,x12
    8314:	00000097          	auipc	x1,0x0
    8318:	000080e7          	jalr	x1 # 8314 <.L1769+0x28>
    831c:	000008b7          	lui	x17,0x0
    8320:	0008ae03          	lw	x28,0(x17) # 0 <_Z21hb_tiled_foreach_implIfZL26convolution_backward_inputP11hb_tensor_tS1_S1_P11hb_vector_tS3_EUlvE_JEEvjjT0_8HBTensorIT_Lln1EEPS7_.isra.0>
    8324:	000007b7          	lui	x15,0x0
    8328:	0007a283          	lw	x5,0(x15) # 0 <_Z21hb_tiled_foreach_implIfZL26convolution_backward_inputP11hb_tensor_tS1_S1_P11hb_vector_tS3_EUlvE_JEEvjjT0_8HBTensorIT_Lln1EEPS7_.isra.0>
    832c:	010e1393          	slli	x7,x28,0x10
    8330:	4100fa37          	lui	x20,0x4100f
    8334:	005389b3          	add	x19,x7,x5
    8338:	ad3a2c23          	sw	x19,-1320(x20) # 4100ead8 <.L2120+0x410010fc>

0000833c <.L1443>:
    833c:	0000006f          	j	833c <.L1443>

00008340 <.L1770>:
    8340:	000000b7          	lui	x1,0x0
    8344:	00000c37          	lui	x24,0x0
    8348:	00008593          	mv	x11,x1
    834c:	06f00613          	li	x12,111
    8350:	000c0513          	mv	x10,x24
    8354:	00000097          	auipc	x1,0x0
    8358:	000080e7          	jalr	x1 # 8354 <.L1770+0x14>
    835c:	02812583          	lw	x11,40(x2)
    8360:	00000d37          	lui	x26,0x0
    8364:	000d0513          	mv	x10,x26
    8368:	00000097          	auipc	x1,0x0
    836c:	000080e7          	jalr	x1 # 8368 <.L1770+0x28>
    8370:	00000f37          	lui	x30,0x0
    8374:	000f2c83          	lw	x25,0(x30) # 0 <_Z21hb_tiled_foreach_implIfZL26convolution_backward_inputP11hb_tensor_tS1_S1_P11hb_vector_tS3_EUlvE_JEEvjjT0_8HBTensorIT_Lln1EEPS7_.isra.0>
    8378:	00000eb7          	lui	x29,0x0
    837c:	000ead83          	lw	x27,0(x29) # 0 <_Z21hb_tiled_foreach_implIfZL26convolution_backward_inputP11hb_tensor_tS1_S1_P11hb_vector_tS3_EUlvE_JEEvjjT0_8HBTensorIT_Lln1EEPS7_.isra.0>
    8380:	010c9713          	slli	x14,x25,0x10
    8384:	4100f837          	lui	x16,0x4100f
    8388:	01b70533          	add	x10,x14,x27
    838c:	aca82c23          	sw	x10,-1320(x16) # 4100ead8 <.L2120+0x410010fc>

00008390 <.L1445>:
    8390:	0000006f          	j	8390 <.L1445>

00008394 <.L1799>:
    8394:	00000837          	lui	x16,0x0
    8398:	00000737          	lui	x14,0x0
    839c:	01880313          	addi	x6,x16,24 # 18 <.L8+0x4>
    83a0:	02070693          	addi	x13,x14,32 # 20 <.L8+0xc>

000083a4 <.L1408>:
    83a4:	00030613          	mv	x12,x6

000083a8 <.L1410>:
    83a8:	00064883          	lbu	x17,0(x12) # 0 <_Z21hb_tiled_foreach_implIfZL26convolution_backward_inputP11hb_tensor_tS1_S1_P11hb_vector_tS3_EUlvE_JEEvjjT0_8HBTensorIT_Lln1EEPS7_.isra.0>
    83ac:	00160613          	addi	x12,x12,1
    83b0:	0ff8f493          	andi	x9,x17,255
    83b4:	fe0488e3          	beqz	x9,83a4 <.L1408>
    83b8:	fec698e3          	bne	x13,x12,83a8 <.L1410>
    83bc:	000a0c23          	sb	x0,24(x20)
    83c0:	000a0ca3          	sb	x0,25(x20)
    83c4:	000a0d23          	sb	x0,26(x20)
    83c8:	000a0da3          	sb	x0,27(x20)
    83cc:	000a0e23          	sb	x0,28(x20)
    83d0:	000a0ea3          	sb	x0,29(x20)
    83d4:	000a0f23          	sb	x0,30(x20)
    83d8:	000a0fa3          	sb	x0,31(x20)
    83dc:	000a2a23          	sw	x0,20(x20)
    83e0:	00000b13          	li	x22,0
    83e4:	03fc03b7          	lui	x7,0x3fc0
    83e8:	200009b7          	lui	x19,0x20000
    83ec:	00100413          	li	x8,1
    83f0:	01000ab7          	lui	x21,0x1000
    83f4:	08000fb7          	lui	x31,0x8000

000083f8 <.L1411>:
    83f8:	000c2783          	lw	x15,0(x24) # 0 <_Z21hb_tiled_foreach_implIfZL26convolution_backward_inputP11hb_tensor_tS1_S1_P11hb_vector_tS3_EUlvE_JEEvjjT0_8HBTensorIT_Lln1EEPS7_.isra.0>
    83fc:	016e65b3          	or	x11,x28,x22
    8400:	015b0b33          	add	x22,x22,x21
    8404:	01279093          	slli	x1,x15,0x12
    8408:	0070ff33          	and	x30,x1,x7
    840c:	00bf6eb3          	or	x29,x30,x11
    8410:	013eedb3          	or	x27,x29,x19
    8414:	008da023          	sw	x8,0(x27)
    8418:	fffb10e3          	bne	x22,x31,83f8 <.L1411>
    841c:	000c2e03          	lw	x28,0(x24)
    8420:	00700513          	li	x10,7
    8424:	e4ae08e3          	beq	x28,x10,8274 <.L1412>
    8428:	b2dff06f          	j	7f54 <.L1413>

0000842c <.L1797>:
    842c:	00000ab7          	lui	x21,0x0
    8430:	00000b37          	lui	x22,0x0
    8434:	018a8093          	addi	x1,x21,24 # 18 <.L8+0x4>
    8438:	020b0d93          	addi	x27,x22,32 # 20 <.L8+0xc>

0000843c <.L1432>:
    843c:	00008e93          	mv	x29,x1

00008440 <.L1434>:
    8440:	000ec303          	lbu	x6,0(x29)
    8444:	001e8e93          	addi	x29,x29,1
    8448:	0ff37893          	andi	x17,x6,255
    844c:	fe0888e3          	beqz	x17,843c <.L1432>
    8450:	ffdd98e3          	bne	x27,x29,8440 <.L1434>
    8454:	000a0c23          	sb	x0,24(x20)
    8458:	000a0ca3          	sb	x0,25(x20)
    845c:	000a0d23          	sb	x0,26(x20)
    8460:	000a0da3          	sb	x0,27(x20)
    8464:	000a0e23          	sb	x0,28(x20)
    8468:	000a0ea3          	sb	x0,29(x20)
    846c:	000a0f23          	sb	x0,30(x20)
    8470:	000a0fa3          	sb	x0,31(x20)
    8474:	000a2a23          	sw	x0,20(x20)
    8478:	00000713          	li	x14,0
    847c:	03fc0f37          	lui	x30,0x3fc0
    8480:	20000e37          	lui	x28,0x20000
    8484:	00100513          	li	x10,1
    8488:	010005b7          	lui	x11,0x1000
    848c:	08000637          	lui	x12,0x8000

00008490 <.L1435>:
    8490:	000c2783          	lw	x15,0(x24)
    8494:	00e6e3b3          	or	x7,x13,x14
    8498:	00b70733          	add	x14,x14,x11
    849c:	01279f93          	slli	x31,x15,0x12
    84a0:	01eff833          	and	x16,x31,x30
    84a4:	007864b3          	or	x9,x16,x7
    84a8:	01c4e2b3          	or	x5,x9,x28
    84ac:	00a2a023          	sw	x10,0(x5)
    84b0:	fec710e3          	bne	x14,x12,8490 <.L1435>
    84b4:	000c2c03          	lw	x24,0(x24)
    84b8:	00700693          	li	x13,7
    84bc:	cedc02e3          	beq	x24,x13,81a0 <.L1436>
    84c0:	c59ff06f          	j	8118 <.L1437>

000084c4 <.L1782>:
    84c4:	09012c03          	lw	x24,144(x2)
    84c8:	08000613          	li	x12,128
    84cc:	00cc0463          	beq	x24,x12,84d4 <.L1782+0x10>
    84d0:	d1dfe06f          	j	71ec <.L1589>
    84d4:	09412883          	lw	x17,148(x2)
    84d8:	01788463          	beq	x17,x23,84e0 <.L1782+0x1c>
    84dc:	d11fe06f          	j	71ec <.L1589>
    84e0:	09812703          	lw	x14,152(x2)
    84e4:	01170463          	beq	x14,x17,84ec <.L1782+0x28>
    84e8:	d05fe06f          	j	71ec <.L1589>
    84ec:	09c12e83          	lw	x29,156(x2)
    84f0:	04000793          	li	x15,64
    84f4:	00fe8463          	beq	x29,x15,84fc <.L1782+0x38>
    84f8:	cf5fe06f          	j	71ec <.L1589>
    84fc:	0a012c83          	lw	x25,160(x2)
    8500:	00ec8463          	beq	x25,x14,8508 <.L1782+0x44>
    8504:	ce9fe06f          	j	71ec <.L1589>
    8508:	0a412803          	lw	x16,164(x2)
    850c:	01980463          	beq	x16,x25,8514 <.L1782+0x50>
    8510:	cddfe06f          	j	71ec <.L1589>
    8514:	0a812503          	lw	x10,168(x2)
    8518:	00100313          	li	x6,1
    851c:	00650463          	beq	x10,x6,8524 <.L1782+0x60>
    8520:	ccdfe06f          	j	71ec <.L1589>
    8524:	0ac12e03          	lw	x28,172(x2)
    8528:	00ae0463          	beq	x28,x10,8530 <.L1782+0x6c>
    852c:	cc1fe06f          	j	71ec <.L1589>
    8530:	0b012f83          	lw	x31,176(x2)
    8534:	01cf8463          	beq	x31,x28,853c <.L1782+0x78>
    8538:	cb5fe06f          	j	71ec <.L1589>
    853c:	0b412d03          	lw	x26,180(x2)
    8540:	00100d93          	li	x27,1
    8544:	01bd0463          	beq	x26,x27,854c <.L1782+0x88>
    8548:	ca5fe06f          	j	71ec <.L1589>
    854c:	0b812083          	lw	x1,184(x2)
    8550:	0bc12f03          	lw	x30,188(x2)
    8554:	01e0e6b3          	or	x13,x1,x30
    8558:	00068463          	beqz	x13,8560 <.L1782+0x9c>
    855c:	c91fe06f          	j	71ec <.L1589>
    8560:	00000bb7          	lui	x23,0x0
    8564:	00000b37          	lui	x22,0x0
    8568:	00000ab7          	lui	x21,0x0
    856c:	00000a37          	lui	x20,0x0
    8570:	000ba383          	lw	x7,0(x23) # 0 <_Z21hb_tiled_foreach_implIfZL26convolution_backward_inputP11hb_tensor_tS1_S1_P11hb_vector_tS3_EUlvE_JEEvjjT0_8HBTensorIT_Lln1EEPS7_.isra.0>
    8574:	000b2283          	lw	x5,0(x22) # 0 <_Z21hb_tiled_foreach_implIfZL26convolution_backward_inputP11hb_tensor_tS1_S1_P11hb_vector_tS3_EUlvE_JEEvjjT0_8HBTensorIT_Lln1EEPS7_.isra.0>
    8578:	000a2c03          	lw	x24,0(x20) # 0 <_Z21hb_tiled_foreach_implIfZL26convolution_backward_inputP11hb_tensor_tS1_S1_P11hb_vector_tS3_EUlvE_JEEvjjT0_8HBTensorIT_Lln1EEPS7_.isra.0>
    857c:	000aa583          	lw	x11,0(x21) # 0 <_Z21hb_tiled_foreach_implIfZL26convolution_backward_inputP11hb_tensor_tS1_S1_P11hb_vector_tS3_EUlvE_JEEvjjT0_8HBTensorIT_Lln1EEPS7_.isra.0>
    8580:	000009b7          	lui	x19,0x0
    8584:	0009a603          	lw	x12,0(x19) # 0 <_Z21hb_tiled_foreach_implIfZL26convolution_backward_inputP11hb_tensor_tS1_S1_P11hb_vector_tS3_EUlvE_JEEvjjT0_8HBTensorIT_Lln1EEPS7_.isra.0>
    8588:	005388b3          	add	x17,x7,x5
    858c:	01858733          	add	x14,x11,x24
    8590:	01271c93          	slli	x25,x14,0x12
    8594:	01889e93          	slli	x29,x17,0x18
    8598:	3f0007b7          	lui	x15,0x3f000
    859c:	00fc0537          	lui	x10,0xfc0
    85a0:	00040fb7          	lui	x31,0x40
    85a4:	00acf333          	and	x6,x25,x10
    85a8:	00fef833          	and	x16,x29,x15
    85ac:	00461e13          	slli	x28,x12,0x4
    85b0:	ff0f8d13          	addi	x26,x31,-16 # 3fff0 <.L2120+0x32614>
    85b4:	0104a683          	lw	x13,16(x9)
    85b8:	01ae7db3          	and	x27,x28,x26
    85bc:	006864b3          	or	x9,x16,x6
    85c0:	01b4e0b3          	or	x1,x9,x27
    85c4:	80000f37          	lui	x30,0x80000
    85c8:	01042c03          	lw	x24,16(x8)
    85cc:	01e0e3b3          	or	x7,x1,x30
    85d0:	41001437          	lui	x8,0x41001
    85d4:	01092c83          	lw	x25,16(x18)
    85d8:	02068293          	addi	x5,x13,32 # 20 <.L8+0xc>
    85dc:	00068913          	mv	x18,x13
    85e0:	d0742623          	sw	x7,-756(x8) # 41000d0c <.L2120+0x40ff3330>

000085e4 <.L1601>:
    85e4:	0006a023          	sw	x0,0(x13)
    85e8:	00468693          	addi	x13,x13,4
    85ec:	fed29ce3          	bne	x5,x13,85e4 <.L1601>
    85f0:	000004b7          	lui	x9,0x0
    85f4:	00048513          	mv	x10,x9
    85f8:	00000097          	auipc	x1,0x0
    85fc:	000080e7          	jalr	x1 # 85f8 <.L1601+0x14>
    8600:	00000613          	li	x12,0
    8604:	00000eb7          	lui	x29,0x0
    8608:	02100e13          	li	x28,33
    860c:	00001837          	lui	x16,0x1
    8610:	00002337          	lui	x6,0x2
    8614:	000088b7          	lui	x17,0x8

00008618 <.L1608>:
    8618:	00161d13          	slli	x26,x12,0x1
    861c:	00000593          	li	x11,0

00008620 <.L1605>:
    8620:	000ea703          	lw	x14,0(x29) # 0 <_Z21hb_tiled_foreach_implIfZL26convolution_backward_inputP11hb_tensor_tS1_S1_P11hb_vector_tS3_EUlvE_JEEvjjT0_8HBTensorIT_Lln1EEPS7_.isra.0>
    8624:	07f77793          	andi	x15,x14,127
    8628:	03c787b3          	mul	x15,x15,x28
    862c:	02178513          	addi	x10,x15,33 # 3f000021 <.L2120+0x3eff2645>
    8630:	00a87463          	bgeu	x16,x10,8638 <.L1602>
    8634:	00001537          	lui	x10,0x1

00008638 <.L1602>:
    8638:	00bd0fb3          	add	x31,x26,x11
    863c:	06a7f063          	bgeu	x15,x10,869c <.L1606>

00008640 <.L1607>:
    8640:	0077fd93          	andi	x27,x15,7
    8644:	fc07f093          	andi	x1,x15,-64
    8648:	01b60f33          	add	x30,x12,x27
    864c:	0387f393          	andi	x7,x15,56
    8650:	001f02b3          	add	x5,x30,x1
    8654:	0067d413          	srli	x8,x15,0x6
    8658:	01bf86b3          	add	x13,x31,x27
    865c:	00728733          	add	x14,x5,x7
    8660:	00768db3          	add	x27,x13,x7
    8664:	008580b3          	add	x1,x11,x8
    8668:	00271f13          	slli	x30,x14,0x2
    866c:	002d9393          	slli	x7,x27,0x2
    8670:	00209413          	slli	x8,x1,0x2
    8674:	01e90733          	add	x14,x18,x30
    8678:	019386b3          	add	x13,x7,x25
    867c:	018402b3          	add	x5,x8,x24
    8680:	0006a787          	flw	f15,0(x13)
    8684:	0002a687          	flw	f13,0(x5)
    8688:	00072707          	flw	f14,0(x14)
    868c:	00178793          	addi	x15,x15,1
    8690:	70d7f043          	fmadd.s	f0,f15,f13,f14
    8694:	00072027          	fsw	f0,0(x14)
    8698:	faf514e3          	bne	x10,x15,8640 <.L1607>

0000869c <.L1606>:
    869c:	04058593          	addi	x11,x11,64 # 1000040 <.L2120+0xff2664>
    86a0:	f86590e3          	bne	x11,x6,8620 <.L1605>
    86a4:	01060633          	add	x12,x12,x16
    86a8:	f71618e3          	bne	x12,x17,8618 <.L1608>
    86ac:	000bab83          	lw	x23,0(x23)
    86b0:	000b2b03          	lw	x22,0(x22)
    86b4:	000aaa83          	lw	x21,0(x21)
    86b8:	000a2a03          	lw	x20,0(x20)
    86bc:	0009a983          	lw	x19,0(x19)
    86c0:	016b8cb3          	add	x25,x23,x22
    86c4:	014a8c33          	add	x24,x21,x20
    86c8:	012c1e93          	slli	x29,x24,0x12
    86cc:	3f000e37          	lui	x28,0x3f000
    86d0:	00fc0337          	lui	x6,0xfc0
    86d4:	00040fb7          	lui	x31,0x40
    86d8:	018c9913          	slli	x18,x25,0x18
    86dc:	01c97833          	and	x16,x18,x28
    86e0:	006ef8b3          	and	x17,x29,x6
    86e4:	ff0f8d93          	addi	x27,x31,-16 # 3fff0 <.L2120+0x32614>
    86e8:	00499d13          	slli	x26,x19,0x4
    86ec:	01186533          	or	x10,x16,x17
    86f0:	01bd70b3          	and	x1,x26,x27
    86f4:	00156f33          	or	x30,x10,x1
    86f8:	c00003b7          	lui	x7,0xc0000
    86fc:	007f6433          	or	x8,x30,x7
    8700:	41001737          	lui	x14,0x41001
    8704:	00048513          	mv	x10,x9
    8708:	d0872623          	sw	x8,-756(x14) # 41000d0c <.L2120+0x40ff3330>
    870c:	00000097          	auipc	x1,0x0
    8710:	000080e7          	jalr	x1 # 870c <.L1606+0x70>
    8714:	00000513          	li	x10,0
    8718:	af1fe06f          	j	7208 <.L1317>

0000871c <.L1781>:
    871c:	09012e83          	lw	x29,144(x2)
    8720:	08000c93          	li	x25,128
    8724:	019e8463          	beq	x29,x25,872c <.L1781+0x10>
    8728:	a95fe06f          	j	71bc <.L1548>
    872c:	09412803          	lw	x16,148(x2)
    8730:	00e80463          	beq	x16,x14,8738 <.L1781+0x1c>
    8734:	a89fe06f          	j	71bc <.L1548>
    8738:	09812503          	lw	x10,152(x2)
    873c:	01050463          	beq	x10,x16,8744 <.L1781+0x28>
    8740:	a7dfe06f          	j	71bc <.L1548>
    8744:	09c12303          	lw	x6,156(x2)
    8748:	04000e13          	li	x28,64
    874c:	01c30463          	beq	x6,x28,8754 <.L1781+0x38>
    8750:	a6dfe06f          	j	71bc <.L1548>
    8754:	0a012f83          	lw	x31,160(x2)
    8758:	00af8463          	beq	x31,x10,8760 <.L1781+0x44>
    875c:	a61fe06f          	j	71bc <.L1548>
    8760:	0a412d03          	lw	x26,164(x2)
    8764:	01fd0463          	beq	x26,x31,876c <.L1781+0x50>
    8768:	a55fe06f          	j	71bc <.L1548>
    876c:	0a812d83          	lw	x27,168(x2)
    8770:	00300093          	li	x1,3
    8774:	001d8463          	beq	x27,x1,877c <.L1781+0x60>
    8778:	a45fe06f          	j	71bc <.L1548>
    877c:	0ac12f03          	lw	x30,172(x2)
    8780:	01bf0463          	beq	x30,x27,8788 <.L1781+0x6c>
    8784:	a39fe06f          	j	71bc <.L1548>
    8788:	0b012683          	lw	x13,176(x2)
    878c:	00100a93          	li	x21,1
    8790:	01568463          	beq	x13,x21,8798 <.L1781+0x7c>
    8794:	a29fe06f          	j	71bc <.L1548>
    8798:	0b412383          	lw	x7,180(x2)
    879c:	01538463          	beq	x7,x21,87a4 <.L1781+0x88>
    87a0:	a1dfe06f          	j	71bc <.L1548>
    87a4:	0b812283          	lw	x5,184(x2)
    87a8:	00728463          	beq	x5,x7,87b0 <.L1781+0x94>
    87ac:	a11fe06f          	j	71bc <.L1548>
    87b0:	0bc12b03          	lw	x22,188(x2)
    87b4:	005b0463          	beq	x22,x5,87bc <.L1781+0xa0>
    87b8:	a05fe06f          	j	71bc <.L1548>
    87bc:	00000bb7          	lui	x23,0x0
    87c0:	00000b37          	lui	x22,0x0
    87c4:	00000ab7          	lui	x21,0x0
    87c8:	00000a37          	lui	x20,0x0
    87cc:	000ba283          	lw	x5,0(x23) # 0 <_Z21hb_tiled_foreach_implIfZL26convolution_backward_inputP11hb_tensor_tS1_S1_P11hb_vector_tS3_EUlvE_JEEvjjT0_8HBTensorIT_Lln1EEPS7_.isra.0>
    87d0:	000b2783          	lw	x15,0(x22) # 0 <_Z21hb_tiled_foreach_implIfZL26convolution_backward_inputP11hb_tensor_tS1_S1_P11hb_vector_tS3_EUlvE_JEEvjjT0_8HBTensorIT_Lln1EEPS7_.isra.0>
    87d4:	000aa583          	lw	x11,0(x21) # 0 <_Z21hb_tiled_foreach_implIfZL26convolution_backward_inputP11hb_tensor_tS1_S1_P11hb_vector_tS3_EUlvE_JEEvjjT0_8HBTensorIT_Lln1EEPS7_.isra.0>
    87d8:	000a2683          	lw	x13,0(x20) # 0 <_Z21hb_tiled_foreach_implIfZL26convolution_backward_inputP11hb_tensor_tS1_S1_P11hb_vector_tS3_EUlvE_JEEvjjT0_8HBTensorIT_Lln1EEPS7_.isra.0>
    87dc:	000009b7          	lui	x19,0x0
    87e0:	0009a603          	lw	x12,0(x19) # 0 <_Z21hb_tiled_foreach_implIfZL26convolution_backward_inputP11hb_tensor_tS1_S1_P11hb_vector_tS3_EUlvE_JEEvjjT0_8HBTensorIT_Lln1EEPS7_.isra.0>
    87e4:	00f28cb3          	add	x25,x5,x15
    87e8:	00d58c33          	add	x24,x11,x13
    87ec:	018c9e93          	slli	x29,x25,0x18
    87f0:	012c1e13          	slli	x28,x24,0x12
    87f4:	3f000837          	lui	x16,0x3f000
    87f8:	00fc08b7          	lui	x17,0xfc0
    87fc:	00040fb7          	lui	x31,0x40
    8800:	01092903          	lw	x18,16(x18)
    8804:	011e7d33          	and	x26,x28,x17
    8808:	010ef333          	and	x6,x29,x16
    880c:	00461513          	slli	x10,x12,0x4
    8810:	ff0f8d93          	addi	x27,x31,-16 # 3fff0 <.L2120+0x32614>
    8814:	0104a783          	lw	x15,16(x9) # 10 <_Z21hb_tiled_foreach_implIfZL26convolution_backward_inputP11hb_tensor_tS1_S1_P11hb_vector_tS3_EUlvE_JEEvjjT0_8HBTensorIT_Lln1EEPS7_.isra.0+0x10>
    8818:	01b570b3          	and	x1,x10,x27
    881c:	01a364b3          	or	x9,x6,x26
    8820:	0014ef33          	or	x30,x9,x1
    8824:	800003b7          	lui	x7,0x80000
    8828:	01042d03          	lw	x26,16(x8)
    882c:	007f62b3          	or	x5,x30,x7
    8830:	01212623          	sw	x18,12(x2)
    8834:	41001437          	lui	x8,0x41001
    8838:	00078c93          	mv	x25,x15
    883c:	d0542623          	sw	x5,-756(x8) # 41000d0c <.L2120+0x40ff3330>
    8840:	02078713          	addi	x14,x15,32

00008844 <.L1590>:
    8844:	0007a023          	sw	x0,0(x15)
    8848:	00478793          	addi	x15,x15,4
    884c:	fef71ce3          	bne	x14,x15,8844 <.L1590>
    8850:	00000937          	lui	x18,0x0
    8854:	00090513          	mv	x10,x18
    8858:	00000097          	auipc	x1,0x0
    885c:	000080e7          	jalr	x1 # 8858 <.L1590+0x14>
    8860:	00000813          	li	x16,0
    8864:	000000b7          	lui	x1,0x0
    8868:	00001db7          	lui	x27,0x1
    886c:	00700293          	li	x5,7
    8870:	00300c13          	li	x24,3

00008874 <.L1599>:
    8874:	00181393          	slli	x7,x16,0x1
    8878:	00000f13          	li	x30,0

0000887c <.L1594>:
    887c:	0000a583          	lw	x11,0(x1) # 0 <_Z21hb_tiled_foreach_implIfZL26convolution_backward_inputP11hb_tensor_tS1_S1_P11hb_vector_tS3_EUlvE_JEEvjjT0_8HBTensorIT_Lln1EEPS7_.isra.0>
    8880:	02100613          	li	x12,33
    8884:	07f5f693          	andi	x13,x11,127
    8888:	02c687b3          	mul	x15,x13,x12
    888c:	02178f93          	addi	x31,x15,33
    8890:	01fdf463          	bgeu	x27,x31,8898 <.L1591>
    8894:	00001fb7          	lui	x31,0x1

00008898 <.L1591>:
    8898:	0df7f063          	bgeu	x15,x31,8958 <.L1598>

0000889c <.L1592>:
    889c:	0067de93          	srli	x29,x15,0x6
    88a0:	00900e13          	li	x28,9
    88a4:	03ce8333          	mul	x6,x29,x28
    88a8:	0077f493          	andi	x9,x15,7
    88ac:	0037d893          	srli	x17,x15,0x3
    88b0:	0078f413          	andi	x8,x17,7
    88b4:	006e9713          	slli	x14,x29,0x6
    88b8:	00980533          	add	x10,x16,x9
    88bc:	00e505b3          	add	x11,x10,x14
    88c0:	00341693          	slli	x13,x8,0x3
    88c4:	00d58633          	add	x12,x11,x13
    88c8:	00140513          	addi	x10,x8,1
    88cc:	ffe40593          	addi	x11,x8,-2
    88d0:	00c12403          	lw	x8,12(x2)
    88d4:	00938eb3          	add	x29,x7,x9
    88d8:	00261e13          	slli	x28,x12,0x2
    88dc:	002e9893          	slli	x17,x29,0x2
    88e0:	01e30333          	add	x6,x6,x30
    88e4:	01cc8733          	add	x14,x25,x28
    88e8:	008888b3          	add	x17,x17,x8
    88ec:	00148613          	addi	x12,x9,1

000088f0 <.L1597>:
    88f0:	00551493          	slli	x9,x10,0x5
    88f4:	00231693          	slli	x13,x6,0x2
    88f8:	01148eb3          	add	x29,x9,x17
    88fc:	01a68433          	add	x8,x13,x26
    8900:	004e8e13          	addi	x28,x29,4
    8904:	00000693          	li	x13,0

00008908 <.L1596>:
    8908:	40d60eb3          	sub	x29,x12,x13
    890c:	02a2e863          	bltu	x5,x10,893c <.L1595>
    8910:	00269493          	slli	x9,x13,0x2
    8914:	008484b3          	add	x9,x9,x8
    8918:	03d2e263          	bltu	x5,x29,893c <.L1595>
    891c:	ffc00e93          	li	x29,-4
    8920:	03d68eb3          	mul	x29,x13,x29
    8924:	0004a087          	flw	f1,0(x9)
    8928:	00072107          	flw	f2,0(x14)
    892c:	01ce84b3          	add	x9,x29,x28
    8930:	0004a187          	flw	f3,0(x9)
    8934:	1011f243          	fmadd.s	f4,f3,f1,f2
    8938:	00472027          	fsw	f4,0(x14)

0000893c <.L1595>:
    893c:	00168693          	addi	x13,x13,1
    8940:	fd8694e3          	bne	x13,x24,8908 <.L1596>
    8944:	fff50513          	addi	x10,x10,-1 # fff <.L314+0x3>
    8948:	00330313          	addi	x6,x6,3 # fc0003 <.L2120+0xfb2627>
    894c:	faa592e3          	bne	x11,x10,88f0 <.L1597>
    8950:	00178793          	addi	x15,x15,1
    8954:	f4ff94e3          	bne	x31,x15,889c <.L1592>

00008958 <.L1598>:
    8958:	240f0f13          	addi	x30,x30,576 # 80000240 <.L2120+0x7fff2864>
    895c:	00012fb7          	lui	x31,0x12
    8960:	04038393          	addi	x7,x7,64 # 80000040 <.L2120+0x7fff2664>
    8964:	f1ff1ce3          	bne	x30,x31,887c <.L1594>
    8968:	01b80833          	add	x16,x16,x27
    896c:	00008737          	lui	x14,0x8
    8970:	f0e812e3          	bne	x16,x14,8874 <.L1599>
    8974:	000bab83          	lw	x23,0(x23)
    8978:	000b2b03          	lw	x22,0(x22)
    897c:	000aaa83          	lw	x21,0(x21)
    8980:	000a2a03          	lw	x20,0(x20)
    8984:	0009a983          	lw	x19,0(x19)
    8988:	016b8d33          	add	x26,x23,x22
    898c:	014a8cb3          	add	x25,x21,x20
    8990:	018d1093          	slli	x1,x26,0x18
    8994:	3f0002b7          	lui	x5,0x3f000
    8998:	00fc05b7          	lui	x11,0xfc0
    899c:	00040e37          	lui	x28,0x40
    89a0:	012c9d93          	slli	x27,x25,0x12
    89a4:	0050fc33          	and	x24,x1,x5
    89a8:	00bdf8b3          	and	x17,x27,x11
    89ac:	00499613          	slli	x12,x19,0x4
    89b0:	ff0e0e93          	addi	x29,x28,-16 # 3fff0 <.L2120+0x32614>
    89b4:	011c6433          	or	x8,x24,x17
    89b8:	01d674b3          	and	x9,x12,x29
    89bc:	009466b3          	or	x13,x8,x9
    89c0:	c0000537          	lui	x10,0xc0000
    89c4:	00a6e333          	or	x6,x13,x10
    89c8:	410017b7          	lui	x15,0x41001
    89cc:	00090513          	mv	x10,x18
    89d0:	d067a623          	sw	x6,-756(x15) # 41000d0c <.L2120+0x40ff3330>
    89d4:	00000097          	auipc	x1,0x0
    89d8:	000080e7          	jalr	x1 # 89d4 <.L1598+0x7c>
    89dc:	00000513          	li	x10,0
    89e0:	829fe06f          	j	7208 <.L1317>

000089e4 <.L1780>:
    89e4:	09012303          	lw	x6,144(x2)
    89e8:	04000e13          	li	x28,64
    89ec:	01c30463          	beq	x6,x28,89f4 <.L1780+0x10>
    89f0:	f9cfe06f          	j	718c <.L1504>
    89f4:	09412f83          	lw	x31,148(x2)
    89f8:	01000d13          	li	x26,16
    89fc:	01af8463          	beq	x31,x26,8a04 <.L1780+0x20>
    8a00:	f8cfe06f          	j	718c <.L1504>
    8a04:	09812d83          	lw	x27,152(x2)
    8a08:	01fd8463          	beq	x27,x31,8a10 <.L1780+0x2c>
    8a0c:	f80fe06f          	j	718c <.L1504>
    8a10:	09c12083          	lw	x1,156(x2)
    8a14:	02000f13          	li	x30,32
    8a18:	01e08463          	beq	x1,x30,8a20 <.L1780+0x3c>
    8a1c:	f70fe06f          	j	718c <.L1504>
    8a20:	0a012683          	lw	x13,160(x2)
    8a24:	01b68463          	beq	x13,x27,8a2c <.L1780+0x48>
    8a28:	f64fe06f          	j	718c <.L1504>
    8a2c:	0a412a83          	lw	x21,164(x2)
    8a30:	00da8463          	beq	x21,x13,8a38 <.L1780+0x54>
    8a34:	f58fe06f          	j	718c <.L1504>
    8a38:	0a812383          	lw	x7,168(x2)
    8a3c:	00100293          	li	x5,1
    8a40:	00538463          	beq	x7,x5,8a48 <.L1780+0x64>
    8a44:	f48fe06f          	j	718c <.L1504>
    8a48:	0ac12b03          	lw	x22,172(x2)
    8a4c:	007b0463          	beq	x22,x7,8a54 <.L1780+0x70>
    8a50:	f3cfe06f          	j	718c <.L1504>
    8a54:	0b012b83          	lw	x23,176(x2)
    8a58:	016b8463          	beq	x23,x22,8a60 <.L1780+0x7c>
    8a5c:	f30fe06f          	j	718c <.L1504>
    8a60:	0b412583          	lw	x11,180(x2)
    8a64:	00100c13          	li	x24,1
    8a68:	01858463          	beq	x11,x24,8a70 <.L1780+0x8c>
    8a6c:	f20fe06f          	j	718c <.L1504>
    8a70:	0b812603          	lw	x12,184(x2)
    8a74:	0bc12883          	lw	x17,188(x2)
    8a78:	01166833          	or	x16,x12,x17
    8a7c:	00080463          	beqz	x16,8a84 <.L1780+0xa0>
    8a80:	f0cfe06f          	j	718c <.L1504>
    8a84:	000002b7          	lui	x5,0x0
    8a88:	00000637          	lui	x12,0x0
    8a8c:	000003b7          	lui	x7,0x0
    8a90:	000006b7          	lui	x13,0x0
    8a94:	0002af03          	lw	x30,0(x5) # 0 <_Z21hb_tiled_foreach_implIfZL26convolution_backward_inputP11hb_tensor_tS1_S1_P11hb_vector_tS3_EUlvE_JEEvjjT0_8HBTensorIT_Lln1EEPS7_.isra.0>
    8a98:	00062f83          	lw	x31,0(x12) # 0 <_Z21hb_tiled_foreach_implIfZL26convolution_backward_inputP11hb_tensor_tS1_S1_P11hb_vector_tS3_EUlvE_JEEvjjT0_8HBTensorIT_Lln1EEPS7_.isra.0>
    8a9c:	0003a703          	lw	x14,0(x7) # 0 <_Z21hb_tiled_foreach_implIfZL26convolution_backward_inputP11hb_tensor_tS1_S1_P11hb_vector_tS3_EUlvE_JEEvjjT0_8HBTensorIT_Lln1EEPS7_.isra.0>
    8aa0:	0006ab83          	lw	x23,0(x13) # 0 <_Z21hb_tiled_foreach_implIfZL26convolution_backward_inputP11hb_tensor_tS1_S1_P11hb_vector_tS3_EUlvE_JEEvjjT0_8HBTensorIT_Lln1EEPS7_.isra.0>
    8aa4:	000009b7          	lui	x19,0x0
    8aa8:	0009ab03          	lw	x22,0(x19) # 0 <_Z21hb_tiled_foreach_implIfZL26convolution_backward_inputP11hb_tensor_tS1_S1_P11hb_vector_tS3_EUlvE_JEEvjjT0_8HBTensorIT_Lln1EEPS7_.isra.0>
    8aac:	01ff0ab3          	add	x21,x30,x31
    8ab0:	01770a33          	add	x20,x14,x23
    8ab4:	0104a583          	lw	x11,16(x9)
    8ab8:	012a1c93          	slli	x25,x20,0x12
    8abc:	018a9d13          	slli	x26,x21,0x18
    8ac0:	3f0000b7          	lui	x1,0x3f000
    8ac4:	00fc0c37          	lui	x24,0xfc0
    8ac8:	000404b7          	lui	x9,0x40
    8acc:	01092903          	lw	x18,16(x18) # 10 <_Z21hb_tiled_foreach_implIfZL26convolution_backward_inputP11hb_tensor_tS1_S1_P11hb_vector_tS3_EUlvE_JEEvjjT0_8HBTensorIT_Lln1EEPS7_.isra.0+0x10>
    8ad0:	001d7db3          	and	x27,x26,x1
    8ad4:	018cf8b3          	and	x17,x25,x24
    8ad8:	004b1e13          	slli	x28,x22,0x4
    8adc:	ff048513          	addi	x10,x9,-16 # 3fff0 <.L2120+0x32614>
    8ae0:	011deeb3          	or	x29,x27,x17
    8ae4:	00ae7333          	and	x6,x28,x10
    8ae8:	006ee7b3          	or	x15,x29,x6
    8aec:	80000f37          	lui	x30,0x80000
    8af0:	01212623          	sw	x18,12(x2)
    8af4:	01042a03          	lw	x20,16(x8)
    8af8:	01e7efb3          	or	x31,x15,x30
    8afc:	41001437          	lui	x8,0x41001
    8b00:	00058913          	mv	x18,x11
    8b04:	d1f42623          	sw	x31,-756(x8) # 41000d0c <.L2120+0x40ff3330>
    8b08:	02058713          	addi	x14,x11,32 # fc0020 <.L2120+0xfb2644>

00008b0c <.L1549>:
    8b0c:	0005a023          	sw	x0,0(x11)
    8b10:	00458593          	addi	x11,x11,4
    8b14:	feb71ce3          	bne	x14,x11,8b0c <.L1549>
    8b18:	0006ab83          	lw	x23,0(x13)
    8b1c:	00062b03          	lw	x22,0(x12)
    8b20:	00000337          	lui	x6,0x0
    8b24:	004b8a93          	addi	x21,x23,4
    8b28:	00030793          	mv	x15,x6
    8b2c:	01578d33          	add	x26,x15,x21
    8b30:	018b1c93          	slli	x25,x22,0x18
    8b34:	019d60b3          	or	x1,x26,x25
    8b38:	201c0db7          	lui	x27,0x201c0
    8b3c:	01b0ec33          	or	x24,x1,x27
    8b40:	00100893          	li	x17,1
    8b44:	011c0023          	sb	x17,0(x24) # fc0000 <.L2120+0xfb2624>
    8b48:	0006ae03          	lw	x28,0(x13)
    8b4c:	00700e93          	li	x29,7
    8b50:	53de0663          	beq	x28,x29,907c <.L1801>

00008b54 <.L1559>:
    8b54:	00100413          	li	x8,1
    8b58:	0100006f          	j	8b68 <.L1564>

00008b5c <.L1802>:
    8b5c:	00030b13          	mv	x22,x6
    8b60:	140b2aaf          	lr.w.aq	x21,(x22)
    8b64:	008a8863          	beq	x21,x8,8b74 <.L1563>

00008b68 <.L1564>:
    8b68:	00030713          	mv	x14,x6
    8b6c:	10072baf          	lr.w	x23,(x14)
    8b70:	fe8b96e3          	bne	x23,x8,8b5c <.L1802>

00008b74 <.L1563>:
    8b74:	0007a023          	sw	x0,0(x15)
    8b78:	00000e13          	li	x28,0
    8b7c:	000000b7          	lui	x1,0x0
    8b80:	04100c13          	li	x24,65
    8b84:	00002437          	lui	x8,0x2
    8b88:	04000b93          	li	x23,64
    8b8c:	00010b37          	lui	x22,0x10

00008b90 <.L1571>:
    8b90:	001e1c93          	slli	x25,x28,0x1
    8b94:	00000e93          	li	x29,0

00008b98 <.L1568>:
    8b98:	0000ad03          	lw	x26,0(x1) # 0 <_Z21hb_tiled_foreach_implIfZL26convolution_backward_inputP11hb_tensor_tS1_S1_P11hb_vector_tS3_EUlvE_JEEvjjT0_8HBTensorIT_Lln1EEPS7_.isra.0>
    8b9c:	07fd7d93          	andi	x27,x26,127
    8ba0:	038d8733          	mul	x14,x27,x24
    8ba4:	04170f13          	addi	x30,x14,65 # 8041 <.L1423+0x1>
    8ba8:	01e47463          	bgeu	x8,x30,8bb0 <.L1565>
    8bac:	00002f37          	lui	x30,0x2

00008bb0 <.L1565>:
    8bb0:	07e77863          	bgeu	x14,x30,8c20 <.L1569>
    8bb4:	008e9893          	slli	x17,x29,0x8
    8bb8:	01988fb3          	add	x31,x17,x25
    8bbc:	005e9a93          	slli	x21,x29,0x5

00008bc0 <.L1570>:
    8bc0:	00f77513          	andi	x10,x14,15
    8bc4:	f0077593          	andi	x11,x14,-256
    8bc8:	01c50d33          	add	x26,x10,x28
    8bcc:	0f077493          	andi	x9,x14,240
    8bd0:	00bd08b3          	add	x17,x26,x11
    8bd4:	009885b3          	add	x11,x17,x9
    8bd8:	00af8533          	add	x10,x31,x10
    8bdc:	00950d33          	add	x26,x10,x9
    8be0:	00875d93          	srli	x27,x14,0x8
    8be4:	00259513          	slli	x10,x11,0x2
    8be8:	00c12583          	lw	x11,12(x2)
    8bec:	015d8db3          	add	x27,x27,x21
    8bf0:	002d1493          	slli	x9,x26,0x2
    8bf4:	002d9893          	slli	x17,x27,0x2
    8bf8:	00a90d33          	add	x26,x18,x10
    8bfc:	00b48db3          	add	x27,x9,x11
    8c00:	01488533          	add	x10,x17,x20
    8c04:	000da287          	flw	f5,0(x27) # 201c0000 <.L2120+0x201b2624>
    8c08:	00052307          	flw	f6,0(x10) # c0000000 <.L2120+0xbfff2624>
    8c0c:	000d2387          	flw	f7,0(x26) # 0 <_Z21hb_tiled_foreach_implIfZL26convolution_backward_inputP11hb_tensor_tS1_S1_P11hb_vector_tS3_EUlvE_JEEvjjT0_8HBTensorIT_Lln1EEPS7_.isra.0>
    8c10:	00170713          	addi	x14,x14,1
    8c14:	3862f543          	fmadd.s	f10,f5,f6,f7
    8c18:	00ad2027          	fsw	f10,0(x26)
    8c1c:	faef12e3          	bne	x30,x14,8bc0 <.L1570>

00008c20 <.L1569>:
    8c20:	001e8e93          	addi	x29,x29,1
    8c24:	f77e9ae3          	bne	x29,x23,8b98 <.L1568>
    8c28:	008e0e33          	add	x28,x28,x8
    8c2c:	f76e12e3          	bne	x28,x22,8b90 <.L1571>
    8c30:	0002a283          	lw	x5,0(x5)
    8c34:	00062903          	lw	x18,0(x12)
    8c38:	0003a383          	lw	x7,0(x7)
    8c3c:	0006aa03          	lw	x20,0(x13)
    8c40:	0009a983          	lw	x19,0(x19)
    8c44:	012280b3          	add	x1,x5,x18
    8c48:	01438c33          	add	x24,x7,x20
    8c4c:	01809413          	slli	x8,x1,0x18
    8c50:	012c1b93          	slli	x23,x24,0x12
    8c54:	3f000b37          	lui	x22,0x3f000
    8c58:	00fc0f37          	lui	x30,0xfc0
    8c5c:	000408b7          	lui	x17,0x40
    8c60:	01647cb3          	and	x25,x8,x22
    8c64:	01ebffb3          	and	x31,x23,x30
    8c68:	00499a93          	slli	x21,x19,0x4
    8c6c:	ff088d13          	addi	x26,x17,-16 # 3fff0 <.L2120+0x32614>
    8c70:	01fce4b3          	or	x9,x25,x31
    8c74:	01aaf5b3          	and	x11,x21,x26
    8c78:	00b4edb3          	or	x27,x9,x11
    8c7c:	c0000537          	lui	x10,0xc0000
    8c80:	00ade733          	or	x14,x27,x10
    8c84:	41001eb7          	lui	x29,0x41001
    8c88:	d0eea623          	sw	x14,-756(x29) # 41000d0c <.L2120+0x40ff3330>
    8c8c:	0006ae03          	lw	x28,0(x13)
    8c90:	00062283          	lw	x5,0(x12)
    8c94:	201c00b7          	lui	x1,0x201c0
    8c98:	004e0913          	addi	x18,x28,4
    8c9c:	012783b3          	add	x7,x15,x18
    8ca0:	01829a13          	slli	x20,x5,0x18
    8ca4:	0143e9b3          	or	x19,x7,x20
    8ca8:	0019ec33          	or	x24,x19,x1
    8cac:	00100413          	li	x8,1
    8cb0:	008c0023          	sb	x8,0(x24)
    8cb4:	0006ab83          	lw	x23,0(x13)
    8cb8:	00700b13          	li	x22,7
    8cbc:	496b8a63          	beq	x23,x22,9150 <.L1803>

00008cc0 <.L1581>:
    8cc0:	00100613          	li	x12,1
    8cc4:	0100006f          	j	8cd4 <.L1586>

00008cc8 <.L1804>:
    8cc8:	00030713          	mv	x14,x6
    8ccc:	14072e2f          	lr.w.aq	x28,(x14)
    8cd0:	00ce0863          	beq	x28,x12,8ce0 <.L1585>

00008cd4 <.L1586>:
    8cd4:	00030813          	mv	x16,x6
    8cd8:	100825af          	lr.w	x11,(x16)
    8cdc:	fec596e3          	bne	x11,x12,8cc8 <.L1804>

00008ce0 <.L1585>:
    8ce0:	0007a023          	sw	x0,0(x15)
    8ce4:	00000513          	li	x10,0
    8ce8:	d20fe06f          	j	7208 <.L1317>

00008cec <.L1779>:
    8cec:	09012d83          	lw	x27,144(x2)
    8cf0:	04000093          	li	x1,64
    8cf4:	001d8463          	beq	x27,x1,8cfc <.L1779+0x10>
    8cf8:	c64fe06f          	j	715c <.L1463>
    8cfc:	09412f03          	lw	x30,148(x2)
    8d00:	01000693          	li	x13,16
    8d04:	00df0463          	beq	x30,x13,8d0c <.L1779+0x20>
    8d08:	c54fe06f          	j	715c <.L1463>
    8d0c:	09812a83          	lw	x21,152(x2)
    8d10:	01ea8463          	beq	x21,x30,8d18 <.L1779+0x2c>
    8d14:	c48fe06f          	j	715c <.L1463>
    8d18:	09c12383          	lw	x7,156(x2)
    8d1c:	02000293          	li	x5,32
    8d20:	00538463          	beq	x7,x5,8d28 <.L1779+0x3c>
    8d24:	c38fe06f          	j	715c <.L1463>
    8d28:	0a012b03          	lw	x22,160(x2)
    8d2c:	015b0463          	beq	x22,x21,8d34 <.L1779+0x48>
    8d30:	c2cfe06f          	j	715c <.L1463>
    8d34:	0a412b83          	lw	x23,164(x2)
    8d38:	016b8463          	beq	x23,x22,8d40 <.L1779+0x54>
    8d3c:	c20fe06f          	j	715c <.L1463>
    8d40:	0a812583          	lw	x11,168(x2)
    8d44:	00300c13          	li	x24,3
    8d48:	01858463          	beq	x11,x24,8d50 <.L1779+0x64>
    8d4c:	c10fe06f          	j	715c <.L1463>
    8d50:	0ac12603          	lw	x12,172(x2)
    8d54:	00b60463          	beq	x12,x11,8d5c <.L1779+0x70>
    8d58:	c04fe06f          	j	715c <.L1463>
    8d5c:	0b012883          	lw	x17,176(x2)
    8d60:	00100793          	li	x15,1
    8d64:	00f88463          	beq	x17,x15,8d6c <.L1779+0x80>
    8d68:	bf4fe06f          	j	715c <.L1463>
    8d6c:	0b412703          	lw	x14,180(x2)
    8d70:	00f70463          	beq	x14,x15,8d78 <.L1779+0x8c>
    8d74:	be8fe06f          	j	715c <.L1463>
    8d78:	0b812e83          	lw	x29,184(x2)
    8d7c:	00ee8463          	beq	x29,x14,8d84 <.L1779+0x98>
    8d80:	bdcfe06f          	j	715c <.L1463>
    8d84:	0bc12c83          	lw	x25,188(x2)
    8d88:	01dc8463          	beq	x25,x29,8d90 <.L1779+0xa4>
    8d8c:	bd0fe06f          	j	715c <.L1463>
    8d90:	00000b37          	lui	x22,0x0
    8d94:	000009b7          	lui	x19,0x0
    8d98:	00000bb7          	lui	x23,0x0
    8d9c:	00000fb7          	lui	x31,0x0
    8da0:	000b2303          	lw	x6,0(x22) # 0 <_Z21hb_tiled_foreach_implIfZL26convolution_backward_inputP11hb_tensor_tS1_S1_P11hb_vector_tS3_EUlvE_JEEvjjT0_8HBTensorIT_Lln1EEPS7_.isra.0>
    8da4:	0009a783          	lw	x15,0(x19) # 0 <_Z21hb_tiled_foreach_implIfZL26convolution_backward_inputP11hb_tensor_tS1_S1_P11hb_vector_tS3_EUlvE_JEEvjjT0_8HBTensorIT_Lln1EEPS7_.isra.0>
    8da8:	000ba283          	lw	x5,0(x23) # 0 <_Z21hb_tiled_foreach_implIfZL26convolution_backward_inputP11hb_tensor_tS1_S1_P11hb_vector_tS3_EUlvE_JEEvjjT0_8HBTensorIT_Lln1EEPS7_.isra.0>
    8dac:	000fa683          	lw	x13,0(x31) # 0 <_Z21hb_tiled_foreach_implIfZL26convolution_backward_inputP11hb_tensor_tS1_S1_P11hb_vector_tS3_EUlvE_JEEvjjT0_8HBTensorIT_Lln1EEPS7_.isra.0>
    8db0:	00000c37          	lui	x24,0x0
    8db4:	000c2383          	lw	x7,0(x24) # 0 <_Z21hb_tiled_foreach_implIfZL26convolution_backward_inputP11hb_tensor_tS1_S1_P11hb_vector_tS3_EUlvE_JEEvjjT0_8HBTensorIT_Lln1EEPS7_.isra.0>
    8db8:	00f30a33          	add	x20,x6,x15
    8dbc:	00d280b3          	add	x1,x5,x13
    8dc0:	018a1c93          	slli	x25,x20,0x18
    8dc4:	01209f13          	slli	x30,x1,0x12
    8dc8:	3f000ab7          	lui	x21,0x3f000
    8dcc:	00fc0db7          	lui	x27,0xfc0
    8dd0:	00040eb7          	lui	x29,0x40
    8dd4:	0104a783          	lw	x15,16(x9)
    8dd8:	01092903          	lw	x18,16(x18)
    8ddc:	015cfd33          	and	x26,x25,x21
    8de0:	01bf78b3          	and	x17,x30,x27
    8de4:	00439513          	slli	x10,x7,0x4
    8de8:	ff0e8613          	addi	x12,x29,-16 # 3fff0 <.L2120+0x32614>
    8dec:	011d64b3          	or	x9,x26,x17
    8df0:	00c57833          	and	x16,x10,x12
    8df4:	0104e5b3          	or	x11,x9,x16
    8df8:	80000737          	lui	x14,0x80000
    8dfc:	01042d03          	lw	x26,16(x8) # 2010 <.L410+0x38>
    8e00:	00e5ee33          	or	x28,x11,x14
    8e04:	01212623          	sw	x18,12(x2)
    8e08:	00f12823          	sw	x15,16(x2)
    8e0c:	41001437          	lui	x8,0x41001
    8e10:	d1c42623          	sw	x28,-756(x8) # 41000d0c <.L2120+0x40ff3330>
    8e14:	02078313          	addi	x6,x15,32

00008e18 <.L1505>:
    8e18:	0007a023          	sw	x0,0(x15)
    8e1c:	00478793          	addi	x15,x15,4
    8e20:	fef31ce3          	bne	x6,x15,8e18 <.L1505>
    8e24:	000fa283          	lw	x5,0(x31)
    8e28:	0009a683          	lw	x13,0(x19)
    8e2c:	000004b7          	lui	x9,0x0
    8e30:	00428393          	addi	x7,x5,4
    8e34:	00048713          	mv	x14,x9
    8e38:	00770a33          	add	x20,x14,x7
    8e3c:	01869093          	slli	x1,x13,0x18
    8e40:	001a6cb3          	or	x25,x20,x1
    8e44:	201c0f37          	lui	x30,0x201c0
    8e48:	01eceab3          	or	x21,x25,x30
    8e4c:	00100d93          	li	x27,1
    8e50:	01ba8023          	sb	x27,0(x21) # 3f000000 <.L2120+0x3eff2624>
    8e54:	000fa883          	lw	x17,0(x31)
    8e58:	00700513          	li	x10,7
    8e5c:	3ca88263          	beq	x17,x10,9220 <.L1805>

00008e60 <.L1515>:
    8e60:	00100893          	li	x17,1
    8e64:	0100006f          	j	8e74 <.L1520>

00008e68 <.L1806>:
    8e68:	00048813          	mv	x16,x9
    8e6c:	140825af          	lr.w.aq	x11,(x16)
    8e70:	01158863          	beq	x11,x17,8e80 <.L1519>

00008e74 <.L1520>:
    8e74:	00048513          	mv	x10,x9
    8e78:	10052eaf          	lr.w	x29,(x10)
    8e7c:	ff1e96e3          	bne	x29,x17,8e68 <.L1806>

00008e80 <.L1519>:
    8e80:	00072023          	sw	x0,0(x14) # 80000000 <.L2120+0x7fff2624>
    8e84:	00000913          	li	x18,0
    8e88:	00f00e13          	li	x28,15
    8e8c:	00300413          	li	x8,3

00008e90 <.L1530>:
    8e90:	00191613          	slli	x12,x18,0x1
    8e94:	00c12c23          	sw	x12,24(x2)
    8e98:	00000a13          	li	x20,0

00008e9c <.L1524>:
    8e9c:	00000337          	lui	x6,0x0
    8ea0:	00032283          	lw	x5,0(x6) # 0 <_Z21hb_tiled_foreach_implIfZL26convolution_backward_inputP11hb_tensor_tS1_S1_P11hb_vector_tS3_EUlvE_JEEvjjT0_8HBTensorIT_Lln1EEPS7_.isra.0>
    8ea4:	04100093          	li	x1,65
    8ea8:	000027b7          	lui	x15,0x2
    8eac:	07f2f393          	andi	x7,x5,127
    8eb0:	021382b3          	mul	x5,x7,x1
    8eb4:	04128c93          	addi	x25,x5,65
    8eb8:	0197f463          	bgeu	x15,x25,8ec0 <.L1521>
    8ebc:	00002cb7          	lui	x25,0x2

00008ec0 <.L1521>:
    8ec0:	0f92f263          	bgeu	x5,x25,8fa4 <.L1528>
    8ec4:	12000693          	li	x13,288
    8ec8:	02da0f33          	mul	x30,x20,x13
    8ecc:	01812d83          	lw	x27,24(x2)
    8ed0:	008a1a93          	slli	x21,x20,0x8
    8ed4:	01ba88b3          	add	x17,x21,x27
    8ed8:	01112a23          	sw	x17,20(x2)
    8edc:	01e12e23          	sw	x30,28(x2)

00008ee0 <.L1529>:
    8ee0:	0082de93          	srli	x29,x5,0x8
    8ee4:	00f2f813          	andi	x16,x5,15
    8ee8:	0042d513          	srli	x10,x5,0x4
    8eec:	00f57593          	andi	x11,x10,15
    8ef0:	008e9613          	slli	x12,x29,0x8
    8ef4:	01280333          	add	x6,x16,x18
    8ef8:	003e9793          	slli	x15,x29,0x3
    8efc:	01c12a83          	lw	x21,28(x2)
    8f00:	00459093          	slli	x1,x11,0x4
    8f04:	006603b3          	add	x7,x12,x6
    8f08:	01d786b3          	add	x13,x15,x29
    8f0c:	00281513          	slli	x10,x16,0x2
    8f10:	01012603          	lw	x12,16(x2)
    8f14:	00c12783          	lw	x15,12(x2)
    8f18:	00180313          	addi	x6,x16,1 # 3f000001 <.L2120+0x3eff2625>
    8f1c:	01412803          	lw	x16,20(x2)
    8f20:	00138f33          	add	x30,x7,x1
    8f24:	015688b3          	add	x17,x13,x21
    8f28:	002f1d93          	slli	x27,x30,0x2
    8f2c:	01008e93          	addi	x29,x1,16 # 201c0010 <.L2120+0x201b2634>
    8f30:	00158593          	addi	x11,x11,1
    8f34:	01b600b3          	add	x1,x12,x27
    8f38:	010e8f33          	add	x30,x29,x16
    8f3c:	00988393          	addi	x7,x17,9
    8f40:	00f50ab3          	add	x21,x10,x15

00008f44 <.L1527>:
    8f44:	002f1693          	slli	x13,x30,0x2
    8f48:	00289d93          	slli	x27,x17,0x2
    8f4c:	01568833          	add	x16,x13,x21
    8f50:	01ad8533          	add	x10,x27,x26
    8f54:	00000793          	li	x15,0

00008f58 <.L1526>:
    8f58:	40f30eb3          	sub	x29,x6,x15
    8f5c:	02be6463          	bltu	x28,x11,8f84 <.L1525>
    8f60:	00279613          	slli	x12,x15,0x2
    8f64:	40c80db3          	sub	x27,x16,x12
    8f68:	00a60633          	add	x12,x12,x10
    8f6c:	01de6c63          	bltu	x28,x29,8f84 <.L1525>
    8f70:	004da587          	flw	f11,4(x27) # fc0004 <.L2120+0xfb2628>
    8f74:	00062607          	flw	f12,0(x12)
    8f78:	0000a807          	flw	f16,0(x1)
    8f7c:	80c5f8c3          	fmadd.s	f17,f11,f12,f16
    8f80:	0110a027          	fsw	f17,0(x1)

00008f84 <.L1525>:
    8f84:	00178793          	addi	x15,x15,1 # 2001 <.L410+0x29>
    8f88:	fc8798e3          	bne	x15,x8,8f58 <.L1526>
    8f8c:	00388893          	addi	x17,x17,3
    8f90:	ff0f0f13          	addi	x30,x30,-16 # 201bfff0 <.L2120+0x201b2614>
    8f94:	fff58593          	addi	x11,x11,-1
    8f98:	fb1396e3          	bne	x7,x17,8f44 <.L1527>
    8f9c:	00128293          	addi	x5,x5,1
    8fa0:	f45c90e3          	bne	x25,x5,8ee0 <.L1529>

00008fa4 <.L1528>:
    8fa4:	001a0a13          	addi	x20,x20,1
    8fa8:	04000c93          	li	x25,64
    8fac:	ef9a18e3          	bne	x20,x25,8e9c <.L1524>
    8fb0:	000020b7          	lui	x1,0x2
    8fb4:	00190933          	add	x18,x18,x1
    8fb8:	00010337          	lui	x6,0x10
    8fbc:	ec691ae3          	bne	x18,x6,8e90 <.L1530>
    8fc0:	000b2b03          	lw	x22,0(x22)
    8fc4:	0009ad03          	lw	x26,0(x19)
    8fc8:	000bab83          	lw	x23,0(x23)
    8fcc:	000fae03          	lw	x28,0(x31)
    8fd0:	000c2c03          	lw	x24,0(x24)
    8fd4:	01ab0433          	add	x8,x22,x26
    8fd8:	01cb83b3          	add	x7,x23,x28
    8fdc:	01841a93          	slli	x21,x8,0x18
    8fe0:	01239813          	slli	x16,x7,0x12
    8fe4:	3f000537          	lui	x10,0x3f000
    8fe8:	00fc06b7          	lui	x13,0xfc0
    8fec:	000408b7          	lui	x17,0x40
    8ff0:	00aafeb3          	and	x29,x21,x10
    8ff4:	00d87db3          	and	x27,x16,x13
    8ff8:	004c1613          	slli	x12,x24,0x4
    8ffc:	ff088f13          	addi	x30,x17,-16 # 3fff0 <.L2120+0x32614>
    9000:	01bee7b3          	or	x15,x29,x27
    9004:	01e675b3          	and	x11,x12,x30
    9008:	00b7e2b3          	or	x5,x15,x11
    900c:	c0000a37          	lui	x20,0xc0000
    9010:	0142ecb3          	or	x25,x5,x20
    9014:	410010b7          	lui	x1,0x41001
    9018:	d190a623          	sw	x25,-756(x1) # 41000d0c <.L2120+0x40ff3330>
    901c:	000fa903          	lw	x18,0(x31)
    9020:	0009a303          	lw	x6,0(x19)
    9024:	201c0c37          	lui	x24,0x201c0
    9028:	00490b13          	addi	x22,x18,4
    902c:	01670d33          	add	x26,x14,x22
    9030:	01831b93          	slli	x23,x6,0x18
    9034:	017d6e33          	or	x28,x26,x23
    9038:	018e6433          	or	x8,x28,x24
    903c:	00100393          	li	x7,1
    9040:	00740023          	sb	x7,0(x8)
    9044:	000faa83          	lw	x21,0(x31)
    9048:	00700813          	li	x16,7
    904c:	350a8463          	beq	x21,x16,9394 <.L1807>

00009050 <.L1540>:
    9050:	00100993          	li	x19,1
    9054:	0100006f          	j	9064 <.L1545>

00009058 <.L1808>:
    9058:	00048c93          	mv	x25,x9
    905c:	140ca0af          	lr.w.aq	x1,(x25)
    9060:	01308863          	beq	x1,x19,9070 <.L1544>

00009064 <.L1545>:
    9064:	00048693          	mv	x13,x9
    9068:	1006aa2f          	lr.w	x20,(x13)
    906c:	ff3a16e3          	bne	x20,x19,9058 <.L1808>

00009070 <.L1544>:
    9070:	00072023          	sw	x0,0(x14)
    9074:	00000513          	li	x10,0
    9078:	990fe06f          	j	7208 <.L1317>

0000907c <.L1801>:
    907c:	000004b7          	lui	x9,0x0
    9080:	00448f13          	addi	x30,x9,4 # 4 <_Z21hb_tiled_foreach_implIfZL26convolution_backward_inputP11hb_tensor_tS1_S1_P11hb_vector_tS3_EUlvE_JEEvjjT0_8HBTensorIT_Lln1EEPS7_.isra.0+0x4>
    9084:	01000f93          	li	x31,16

00009088 <.L1551>:
    9088:	00000713          	li	x14,0

0000908c <.L1553>:
    908c:	00ef0533          	add	x10,x30,x14
    9090:	00054403          	lbu	x8,0(x10) # 3f000000 <.L2120+0x3eff2624>
    9094:	00170713          	addi	x14,x14,1
    9098:	0ff47593          	andi	x11,x8,255
    909c:	fe0586e3          	beqz	x11,9088 <.L1551>
    90a0:	fff716e3          	bne	x14,x31,908c <.L1553>
    90a4:	00062b83          	lw	x23,0(x12)
    90a8:	231c0d37          	lui	x26,0x231c0
    90ac:	00100093          	li	x1,1
    90b0:	018b8b13          	addi	x22,x23,24
    90b4:	01678ab3          	add	x21,x15,x22
    90b8:	01aaecb3          	or	x25,x21,x26
    90bc:	001c8023          	sb	x1,0(x25) # 2000 <.L410+0x28>
    90c0:	0006ad83          	lw	x27,0(x13) # fc0000 <.L2120+0xfb2624>
    90c4:	00700c13          	li	x24,7
    90c8:	a98d96e3          	bne	x27,x24,8b54 <.L1559>
    90cc:	00062883          	lw	x17,0(x12)
    90d0:	00300e13          	li	x28,3
    90d4:	23c88063          	beq	x17,x28,92f4 <.L1809>

000090d8 <.L1558>:
    90d8:	00100413          	li	x8,1
    90dc:	0100006f          	j	90ec <.L1555>

000090e0 <.L1810>:
    90e0:	01478b13          	addi	x22,x15,20
    90e4:	140b2aaf          	lr.w.aq	x21,(x22)
    90e8:	008a8863          	beq	x21,x8,90f8 <.L1560>

000090ec <.L1555>:
    90ec:	01478713          	addi	x14,x15,20
    90f0:	10072baf          	lr.w	x23,(x14)
    90f4:	fe8b96e3          	bne	x23,x8,90e0 <.L1810>

000090f8 <.L1560>:
    90f8:	0007aa23          	sw	x0,20(x15)
    90fc:	00000093          	li	x1,0
    9100:	01000d13          	li	x26,16

00009104 <.L1561>:
    9104:	00178cb3          	add	x25,x15,x1
    9108:	000c8223          	sb	x0,4(x25)
    910c:	00108093          	addi	x1,x1,1
    9110:	ffa09ae3          	bne	x1,x26,9104 <.L1561>
    9114:	0007a023          	sw	x0,0(x15)
    9118:	00000593          	li	x11,0
    911c:	20000db7          	lui	x27,0x20000
    9120:	00100c13          	li	x24,1
    9124:	000408b7          	lui	x17,0x40
    9128:	00400e37          	lui	x28,0x400

0000912c <.L1562>:
    912c:	00062e83          	lw	x29,0(x12)
    9130:	00b7e4b3          	or	x9,x15,x11
    9134:	011585b3          	add	x11,x11,x17
    9138:	018e9f13          	slli	x30,x29,0x18
    913c:	009f6fb3          	or	x31,x30,x9
    9140:	01bfe533          	or	x10,x31,x27
    9144:	01852023          	sw	x24,0(x10)
    9148:	ffc592e3          	bne	x11,x28,912c <.L1562>
    914c:	a09ff06f          	j	8b54 <.L1559>

00009150 <.L1803>:
    9150:	00000cb7          	lui	x25,0x0
    9154:	004c8f13          	addi	x30,x25,4 # 4 <_Z21hb_tiled_foreach_implIfZL26convolution_backward_inputP11hb_tensor_tS1_S1_P11hb_vector_tS3_EUlvE_JEEvjjT0_8HBTensorIT_Lln1EEPS7_.isra.0+0x4>
    9158:	01000f93          	li	x31,16

0000915c <.L1573>:
    915c:	00000893          	li	x17,0

00009160 <.L1575>:
    9160:	011f0ab3          	add	x21,x30,x17
    9164:	000ac483          	lbu	x9,0(x21)
    9168:	00188893          	addi	x17,x17,1 # 40001 <.L2120+0x32625>
    916c:	0ff4fd13          	andi	x26,x9,255
    9170:	fe0d06e3          	beqz	x26,915c <.L1573>
    9174:	fff896e3          	bne	x17,x31,9160 <.L1575>
    9178:	00062583          	lw	x11,0(x12)
    917c:	231c0737          	lui	x14,0x231c0
    9180:	00100e13          	li	x28,1
    9184:	01858d93          	addi	x27,x11,24
    9188:	01b78533          	add	x10,x15,x27
    918c:	00e56eb3          	or	x29,x10,x14
    9190:	01ce8023          	sb	x28,0(x29)
    9194:	0006a283          	lw	x5,0(x13)
    9198:	00700913          	li	x18,7
    919c:	b32292e3          	bne	x5,x18,8cc0 <.L1581>
    91a0:	00062383          	lw	x7,0(x12)
    91a4:	00300a13          	li	x20,3
    91a8:	41438063          	beq	x7,x20,95a8 <.L1811>

000091ac <.L1580>:
    91ac:	00100a13          	li	x20,1
    91b0:	0100006f          	j	91c0 <.L1577>

000091b4 <.L1812>:
    91b4:	01478c13          	addi	x24,x15,20
    91b8:	140c242f          	lr.w.aq	x8,(x24)
    91bc:	01440863          	beq	x8,x20,91cc <.L1582>

000091c0 <.L1577>:
    91c0:	01478993          	addi	x19,x15,20
    91c4:	1009a0af          	lr.w	x1,(x19)
    91c8:	ff4096e3          	bne	x1,x20,91b4 <.L1812>

000091cc <.L1582>:
    91cc:	0007aa23          	sw	x0,20(x15)
    91d0:	00000c93          	li	x25,0
    91d4:	01000b93          	li	x23,16

000091d8 <.L1583>:
    91d8:	01978b33          	add	x22,x15,x25
    91dc:	000b0223          	sb	x0,4(x22)
    91e0:	001c8c93          	addi	x25,x25,1
    91e4:	ff7c9ae3          	bne	x25,x23,91d8 <.L1583>
    91e8:	0007a023          	sw	x0,0(x15)
    91ec:	20000f37          	lui	x30,0x20000
    91f0:	00100a93          	li	x21,1
    91f4:	00040fb7          	lui	x31,0x40
    91f8:	004004b7          	lui	x9,0x400

000091fc <.L1584>:
    91fc:	00062d03          	lw	x26,0(x12)
    9200:	0107edb3          	or	x27,x15,x16
    9204:	01f80833          	add	x16,x16,x31
    9208:	018d1893          	slli	x17,x26,0x18
    920c:	01b8e533          	or	x10,x17,x27
    9210:	01e56eb3          	or	x29,x10,x30
    9214:	015ea023          	sw	x21,0(x29)
    9218:	fe9812e3          	bne	x16,x9,91fc <.L1584>
    921c:	aa5ff06f          	j	8cc0 <.L1581>

00009220 <.L1805>:
    9220:	00000eb7          	lui	x29,0x0
    9224:	004e8813          	addi	x16,x29,4 # 4 <_Z21hb_tiled_foreach_implIfZL26convolution_backward_inputP11hb_tensor_tS1_S1_P11hb_vector_tS3_EUlvE_JEEvjjT0_8HBTensorIT_Lln1EEPS7_.isra.0+0x4>
    9228:	01000593          	li	x11,16

0000922c <.L1507>:
    922c:	00000913          	li	x18,0

00009230 <.L1509>:
    9230:	01280633          	add	x12,x16,x18
    9234:	00064e03          	lbu	x28,0(x12)
    9238:	00190913          	addi	x18,x18,1
    923c:	0ffe7413          	andi	x8,x28,255
    9240:	fe0406e3          	beqz	x8,922c <.L1507>
    9244:	feb916e3          	bne	x18,x11,9230 <.L1509>
    9248:	0009a303          	lw	x6,0(x19)
    924c:	231c06b7          	lui	x13,0x231c0
    9250:	00100a13          	li	x20,1
    9254:	01830793          	addi	x15,x6,24 # 10018 <.L2120+0x263c>
    9258:	00f702b3          	add	x5,x14,x15
    925c:	00d2e3b3          	or	x7,x5,x13
    9260:	01438023          	sb	x20,0(x7)
    9264:	000fa083          	lw	x1,0(x31) # 40000 <.L2120+0x32624>
    9268:	00700c93          	li	x25,7
    926c:	bf909ae3          	bne	x1,x25,8e60 <.L1515>
    9270:	0009af03          	lw	x30,0(x19)
    9274:	00300a93          	li	x21,3
    9278:	1f5f0863          	beq	x30,x21,9468 <.L1813>

0000927c <.L1514>:
    927c:	00100e93          	li	x29,1
    9280:	0100006f          	j	9290 <.L1511>

00009284 <.L1814>:
    9284:	01470613          	addi	x12,x14,20 # 231c0014 <.L2120+0x231b2638>
    9288:	14062e2f          	lr.w.aq	x28,(x12)
    928c:	01de0863          	beq	x28,x29,929c <.L1516>

00009290 <.L1511>:
    9290:	01470813          	addi	x16,x14,20
    9294:	100825af          	lr.w	x11,(x16)
    9298:	ffd596e3          	bne	x11,x29,9284 <.L1814>

0000929c <.L1516>:
    929c:	00072a23          	sw	x0,20(x14)
    92a0:	00000313          	li	x6,0
    92a4:	01000913          	li	x18,16

000092a8 <.L1517>:
    92a8:	00670433          	add	x8,x14,x6
    92ac:	00040223          	sb	x0,4(x8)
    92b0:	00130313          	addi	x6,x6,1
    92b4:	ff231ae3          	bne	x6,x18,92a8 <.L1517>
    92b8:	00072023          	sw	x0,0(x14)
    92bc:	00000693          	li	x13,0
    92c0:	200002b7          	lui	x5,0x20000
    92c4:	00100393          	li	x7,1
    92c8:	00040a37          	lui	x20,0x40
    92cc:	004000b7          	lui	x1,0x400

000092d0 <.L1518>:
    92d0:	0009a783          	lw	x15,0(x19)
    92d4:	00d76cb3          	or	x25,x14,x13
    92d8:	014686b3          	add	x13,x13,x20
    92dc:	01879f13          	slli	x30,x15,0x18
    92e0:	019f6ab3          	or	x21,x30,x25
    92e4:	005aedb3          	or	x27,x21,x5
    92e8:	007da023          	sw	x7,0(x27) # 20000000 <.L2120+0x1fff2624>
    92ec:	fe1692e3          	bne	x13,x1,92d0 <.L1518>
    92f0:	b71ff06f          	j	8e60 <.L1515>

000092f4 <.L1809>:
    92f4:	00000eb7          	lui	x29,0x0
    92f8:	018e8493          	addi	x9,x29,24 # 18 <.L8+0x4>
    92fc:	00800f13          	li	x30,8

00009300 <.L1554>:
    9300:	00000413          	li	x8,0

00009304 <.L1556>:
    9304:	00848fb3          	add	x31,x9,x8
    9308:	000fc503          	lbu	x10,0(x31)
    930c:	00140413          	addi	x8,x8,1
    9310:	0ff57713          	andi	x14,x10,255
    9314:	fe0706e3          	beqz	x14,9300 <.L1554>
    9318:	ffe416e3          	bne	x8,x30,9304 <.L1556>
    931c:	00078c23          	sb	x0,24(x15)
    9320:	00078ca3          	sb	x0,25(x15)
    9324:	00078d23          	sb	x0,26(x15)
    9328:	00078da3          	sb	x0,27(x15)
    932c:	00078e23          	sb	x0,28(x15)
    9330:	00078ea3          	sb	x0,29(x15)
    9334:	00078f23          	sb	x0,30(x15)
    9338:	00078fa3          	sb	x0,31(x15)
    933c:	00000bb7          	lui	x23,0x0
    9340:	0007aa23          	sw	x0,20(x15)
    9344:	00000593          	li	x11,0
    9348:	014b8b13          	addi	x22,x23,20 # 14 <.L8>
    934c:	03fc0ab7          	lui	x21,0x3fc0
    9350:	20000d37          	lui	x26,0x20000
    9354:	00100c93          	li	x25,1
    9358:	010000b7          	lui	x1,0x1000
    935c:	08000db7          	lui	x27,0x8000

00009360 <.L1557>:
    9360:	0006ac03          	lw	x24,0(x13) # 231c0000 <.L2120+0x231b2624>
    9364:	00bb68b3          	or	x17,x22,x11
    9368:	001585b3          	add	x11,x11,x1
    936c:	012c1e13          	slli	x28,x24,0x12
    9370:	015e7eb3          	and	x29,x28,x21
    9374:	011ee4b3          	or	x9,x29,x17
    9378:	01a4ef33          	or	x30,x9,x26
    937c:	019f2023          	sw	x25,0(x30) # 20000000 <.L2120+0x1fff2624>
    9380:	ffb590e3          	bne	x11,x27,9360 <.L1557>
    9384:	0006af83          	lw	x31,0(x13)
    9388:	00700513          	li	x10,7
    938c:	fcaf9463          	bne	x31,x10,8b54 <.L1559>
    9390:	d49ff06f          	j	90d8 <.L1558>

00009394 <.L1807>:
    9394:	00000537          	lui	x10,0x0
    9398:	00450e93          	addi	x29,x10,4 # 4 <_Z21hb_tiled_foreach_implIfZL26convolution_backward_inputP11hb_tensor_tS1_S1_P11hb_vector_tS3_EUlvE_JEEvjjT0_8HBTensorIT_Lln1EEPS7_.isra.0+0x4>
    939c:	01000693          	li	x13,16

000093a0 <.L1532>:
    93a0:	00000793          	li	x15,0

000093a4 <.L1534>:
    93a4:	00fe8db3          	add	x27,x29,x15
    93a8:	000dc603          	lbu	x12,0(x27) # 8000000 <.L2120+0x7ff2624>
    93ac:	00178793          	addi	x15,x15,1
    93b0:	0ff67893          	andi	x17,x12,255
    93b4:	fe0886e3          	beqz	x17,93a0 <.L1532>
    93b8:	fed796e3          	bne	x15,x13,93a4 <.L1534>
    93bc:	0009af03          	lw	x30,0(x19)
    93c0:	231c0a37          	lui	x20,0x231c0
    93c4:	00100093          	li	x1,1
    93c8:	018f0593          	addi	x11,x30,24
    93cc:	00b702b3          	add	x5,x14,x11
    93d0:	0142ecb3          	or	x25,x5,x20
    93d4:	001c8023          	sb	x1,0(x25)
    93d8:	000fa903          	lw	x18,0(x31)
    93dc:	00700313          	li	x6,7
    93e0:	c66918e3          	bne	x18,x6,9050 <.L1540>
    93e4:	0009ab03          	lw	x22,0(x19)
    93e8:	00300d13          	li	x26,3
    93ec:	11ab0e63          	beq	x22,x26,9508 <.L1815>

000093f0 <.L1539>:
    93f0:	00100b13          	li	x22,1
    93f4:	0100006f          	j	9404 <.L1536>

000093f8 <.L1816>:
    93f8:	01470e13          	addi	x28,x14,20
    93fc:	140e2c2f          	lr.w.aq	x24,(x28)
    9400:	016c0863          	beq	x24,x22,9410 <.L1541>

00009404 <.L1536>:
    9404:	01470d13          	addi	x26,x14,20
    9408:	100d2baf          	lr.w	x23,(x26)
    940c:	ff6b96e3          	bne	x23,x22,93f8 <.L1816>

00009410 <.L1541>:
    9410:	00072a23          	sw	x0,20(x14)
    9414:	00000a93          	li	x21,0
    9418:	01000413          	li	x8,16

0000941c <.L1542>:
    941c:	015703b3          	add	x7,x14,x21
    9420:	00038223          	sb	x0,4(x7)
    9424:	001a8a93          	addi	x21,x21,1 # 3fc0001 <.L2120+0x3fb2625>
    9428:	fe8a9ae3          	bne	x21,x8,941c <.L1542>
    942c:	00072023          	sw	x0,0(x14)
    9430:	00000f13          	li	x30,0
    9434:	20000837          	lui	x16,0x20000
    9438:	00100513          	li	x10,1
    943c:	00040eb7          	lui	x29,0x40
    9440:	00400db7          	lui	x27,0x400

00009444 <.L1543>:
    9444:	0009a603          	lw	x12,0(x19)
    9448:	01e768b3          	or	x17,x14,x30
    944c:	01df0f33          	add	x30,x30,x29
    9450:	01861593          	slli	x11,x12,0x18
    9454:	0115e7b3          	or	x15,x11,x17
    9458:	0107e2b3          	or	x5,x15,x16
    945c:	00a2a023          	sw	x10,0(x5) # 20000000 <.L2120+0x1fff2624>
    9460:	ffbf12e3          	bne	x30,x27,9444 <.L1543>
    9464:	bedff06f          	j	9050 <.L1540>

00009468 <.L1813>:
    9468:	00000db7          	lui	x27,0x0
    946c:	018d8893          	addi	x17,x27,24 # 18 <.L8+0x4>
    9470:	00800513          	li	x10,8

00009474 <.L1510>:
    9474:	00000593          	li	x11,0

00009478 <.L1512>:
    9478:	00b88eb3          	add	x29,x17,x11
    947c:	000ec803          	lbu	x16,0(x29) # 40000 <.L2120+0x32624>
    9480:	00158593          	addi	x11,x11,1
    9484:	0ff87613          	andi	x12,x16,255
    9488:	fe0606e3          	beqz	x12,9474 <.L1510>
    948c:	fea596e3          	bne	x11,x10,9478 <.L1512>
    9490:	00070c23          	sb	x0,24(x14)
    9494:	00070ca3          	sb	x0,25(x14)
    9498:	00070d23          	sb	x0,26(x14)
    949c:	00070da3          	sb	x0,27(x14)
    94a0:	00070e23          	sb	x0,28(x14)
    94a4:	00070ea3          	sb	x0,29(x14)
    94a8:	00070f23          	sb	x0,30(x14)
    94ac:	00070fa3          	sb	x0,31(x14)
    94b0:	00000e37          	lui	x28,0x0
    94b4:	00072a23          	sw	x0,20(x14)
    94b8:	00000693          	li	x13,0
    94bc:	014e0913          	addi	x18,x28,20 # 14 <.L8>
    94c0:	03fc0437          	lui	x8,0x3fc0
    94c4:	20000337          	lui	x6,0x20000
    94c8:	00100293          	li	x5,1
    94cc:	010003b7          	lui	x7,0x1000
    94d0:	08000a37          	lui	x20,0x8000

000094d4 <.L1513>:
    94d4:	000fa783          	lw	x15,0(x31)
    94d8:	00d960b3          	or	x1,x18,x13
    94dc:	007686b3          	add	x13,x13,x7
    94e0:	01279c93          	slli	x25,x15,0x12
    94e4:	008cff33          	and	x30,x25,x8
    94e8:	001f6ab3          	or	x21,x30,x1
    94ec:	006aedb3          	or	x27,x21,x6
    94f0:	005da023          	sw	x5,0(x27)
    94f4:	ff4690e3          	bne	x13,x20,94d4 <.L1513>
    94f8:	000fa883          	lw	x17,0(x31)
    94fc:	00700513          	li	x10,7
    9500:	d6a88ee3          	beq	x17,x10,927c <.L1514>
    9504:	95dff06f          	j	8e60 <.L1515>

00009508 <.L1815>:
    9508:	00000bb7          	lui	x23,0x0
    950c:	018b8e13          	addi	x28,x23,24 # 18 <.L8+0x4>
    9510:	00800c13          	li	x24,8

00009514 <.L1535>:
    9514:	00000a93          	li	x21,0

00009518 <.L1537>:
    9518:	015e0433          	add	x8,x28,x21
    951c:	00044383          	lbu	x7,0(x8) # 3fc0000 <.L2120+0x3fb2624>
    9520:	001a8a93          	addi	x21,x21,1
    9524:	0ff3f813          	andi	x16,x7,255
    9528:	fe0806e3          	beqz	x16,9514 <.L1535>
    952c:	ff8a96e3          	bne	x21,x24,9518 <.L1537>
    9530:	00070c23          	sb	x0,24(x14)
    9534:	00070ca3          	sb	x0,25(x14)
    9538:	00070d23          	sb	x0,26(x14)
    953c:	00070da3          	sb	x0,27(x14)
    9540:	00070e23          	sb	x0,28(x14)
    9544:	00070ea3          	sb	x0,29(x14)
    9548:	00070f23          	sb	x0,30(x14)
    954c:	00070fa3          	sb	x0,31(x14)
    9550:	00000537          	lui	x10,0x0
    9554:	00072a23          	sw	x0,20(x14)
    9558:	00000693          	li	x13,0
    955c:	01450e93          	addi	x29,x10,20 # 14 <.L8>
    9560:	03fc0db7          	lui	x27,0x3fc0
    9564:	20000637          	lui	x12,0x20000
    9568:	00100893          	li	x17,1
    956c:	01000f37          	lui	x30,0x1000
    9570:	080005b7          	lui	x11,0x8000

00009574 <.L1538>:
    9574:	000fa783          	lw	x15,0(x31)
    9578:	00dee2b3          	or	x5,x29,x13
    957c:	01e686b3          	add	x13,x13,x30
    9580:	01279a13          	slli	x20,x15,0x12
    9584:	01ba7cb3          	and	x25,x20,x27
    9588:	005ce0b3          	or	x1,x25,x5
    958c:	00c0e933          	or	x18,x1,x12
    9590:	01192023          	sw	x17,0(x18)
    9594:	feb690e3          	bne	x13,x11,9574 <.L1538>
    9598:	000faf83          	lw	x31,0(x31)
    959c:	00700313          	li	x6,7
    95a0:	e46f88e3          	beq	x31,x6,93f0 <.L1539>
    95a4:	aadff06f          	j	9050 <.L1540>

000095a8 <.L1811>:
    95a8:	000009b7          	lui	x19,0x0
    95ac:	01898093          	addi	x1,x19,24 # 18 <.L8+0x4>
    95b0:	00800c13          	li	x24,8

000095b4 <.L1576>:
    95b4:	00000b13          	li	x22,0

000095b8 <.L1578>:
    95b8:	01608433          	add	x8,x1,x22
    95bc:	00044b83          	lbu	x23,0(x8)
    95c0:	001b0b13          	addi	x22,x22,1
    95c4:	0ffbfc93          	andi	x25,x23,255
    95c8:	fe0c86e3          	beqz	x25,95b4 <.L1576>
    95cc:	ff8b16e3          	bne	x22,x24,95b8 <.L1578>
    95d0:	00078c23          	sb	x0,24(x15)
    95d4:	00078ca3          	sb	x0,25(x15)
    95d8:	00078d23          	sb	x0,26(x15)
    95dc:	00078da3          	sb	x0,27(x15)
    95e0:	00078e23          	sb	x0,28(x15)
    95e4:	00078ea3          	sb	x0,29(x15)
    95e8:	00078f23          	sb	x0,30(x15)
    95ec:	00078fa3          	sb	x0,31(x15)
    95f0:	00000f37          	lui	x30,0x0
    95f4:	0007aa23          	sw	x0,20(x15)
    95f8:	00000593          	li	x11,0
    95fc:	014f0a93          	addi	x21,x30,20 # 14 <.L8>
    9600:	03fc0fb7          	lui	x31,0x3fc0
    9604:	200004b7          	lui	x9,0x20000
    9608:	00100d13          	li	x26,1
    960c:	01000db7          	lui	x27,0x1000
    9610:	080008b7          	lui	x17,0x8000

00009614 <.L1579>:
    9614:	0006a503          	lw	x10,0(x13)
    9618:	00baeeb3          	or	x29,x21,x11
    961c:	01b585b3          	add	x11,x11,x27
    9620:	01251713          	slli	x14,x10,0x12
    9624:	01f77e33          	and	x28,x14,x31
    9628:	01de62b3          	or	x5,x28,x29
    962c:	0092e933          	or	x18,x5,x9
    9630:	01a92023          	sw	x26,0(x18)
    9634:	ff1590e3          	bne	x11,x17,9614 <.L1579>
    9638:	0006a683          	lw	x13,0(x13)
    963c:	00700393          	li	x7,7
    9640:	e8769063          	bne	x13,x7,8cc0 <.L1581>
    9644:	b69ff06f          	j	91ac <.L1580>

00009648 <.L1778>:
    9648:	02000513          	li	x10,32
    964c:	00ab0463          	beq	x22,x10,9654 <.L1778+0xc>
    9650:	ad5fd06f          	j	7124 <.L1460>
    9654:	016b8463          	beq	x23,x22,965c <.L1778+0x14>
    9658:	acdfd06f          	j	7124 <.L1460>
    965c:	01758463          	beq	x11,x23,9664 <.L1778+0x1c>
    9660:	ac5fd06f          	j	7124 <.L1460>
    9664:	01000313          	li	x6,16
    9668:	006c0463          	beq	x24,x6,9670 <.L1778+0x28>
    966c:	ab9fd06f          	j	7124 <.L1460>
    9670:	00b60463          	beq	x12,x11,9678 <.L1778+0x30>
    9674:	ab1fd06f          	j	7124 <.L1460>
    9678:	00c88463          	beq	x17,x12,9680 <.L1778+0x38>
    967c:	aa9fd06f          	j	7124 <.L1460>
    9680:	00100e13          	li	x28,1
    9684:	01cd8463          	beq	x27,x28,968c <.L1778+0x44>
    9688:	a9dfd06f          	j	7124 <.L1460>
    968c:	01b70463          	beq	x14,x27,9694 <.L1778+0x4c>
    9690:	a95fd06f          	j	7124 <.L1460>
    9694:	00e78463          	beq	x15,x14,969c <.L1778+0x54>
    9698:	a8dfd06f          	j	7124 <.L1460>
    969c:	00fe8463          	beq	x29,x15,96a4 <.L1778+0x5c>
    96a0:	a85fd06f          	j	7124 <.L1460>
    96a4:	010ce833          	or	x16,x25,x16
    96a8:	00080463          	beqz	x16,96b0 <.L1778+0x68>
    96ac:	a79fd06f          	j	7124 <.L1460>
    96b0:	000009b7          	lui	x19,0x0
    96b4:	00000537          	lui	x10,0x0
    96b8:	00000a37          	lui	x20,0x0
    96bc:	000005b7          	lui	x11,0x0
    96c0:	0009af83          	lw	x31,0(x19) # 0 <_Z21hb_tiled_foreach_implIfZL26convolution_backward_inputP11hb_tensor_tS1_S1_P11hb_vector_tS3_EUlvE_JEEvjjT0_8HBTensorIT_Lln1EEPS7_.isra.0>
    96c4:	00052303          	lw	x6,0(x10) # 0 <_Z21hb_tiled_foreach_implIfZL26convolution_backward_inputP11hb_tensor_tS1_S1_P11hb_vector_tS3_EUlvE_JEEvjjT0_8HBTensorIT_Lln1EEPS7_.isra.0>
    96c8:	000a2703          	lw	x14,0(x20) # 0 <_Z21hb_tiled_foreach_implIfZL26convolution_backward_inputP11hb_tensor_tS1_S1_P11hb_vector_tS3_EUlvE_JEEvjjT0_8HBTensorIT_Lln1EEPS7_.isra.0>
    96cc:	0005ab03          	lw	x22,0(x11) # 0 <_Z21hb_tiled_foreach_implIfZL26convolution_backward_inputP11hb_tensor_tS1_S1_P11hb_vector_tS3_EUlvE_JEEvjjT0_8HBTensorIT_Lln1EEPS7_.isra.0>
    96d0:	00000ab7          	lui	x21,0x0
    96d4:	000aad03          	lw	x26,0(x21) # 0 <_Z21hb_tiled_foreach_implIfZL26convolution_backward_inputP11hb_tensor_tS1_S1_P11hb_vector_tS3_EUlvE_JEEvjjT0_8HBTensorIT_Lln1EEPS7_.isra.0>
    96d8:	006f8bb3          	add	x23,x31,x6
    96dc:	01670e33          	add	x28,x14,x22
    96e0:	012e1393          	slli	x7,x28,0x12
    96e4:	018b9c13          	slli	x24,x23,0x18
    96e8:	3f000eb7          	lui	x29,0x3f000
    96ec:	00fc0637          	lui	x12,0xfc0
    96f0:	000407b7          	lui	x15,0x40
    96f4:	00c3f8b3          	and	x17,x7,x12
    96f8:	ff078293          	addi	x5,x15,-16 # 3fff0 <.L2120+0x32614>
    96fc:	01dc7db3          	and	x27,x24,x29
    9700:	004d1f13          	slli	x30,x26,0x4
    9704:	0104a683          	lw	x13,16(x9) # 20000010 <.L2120+0x1fff2634>
    9708:	005f7cb3          	and	x25,x30,x5
    970c:	011de4b3          	or	x9,x27,x17
    9710:	80000fb7          	lui	x31,0x80000
    9714:	0194e0b3          	or	x1,x9,x25
    9718:	01f0e333          	or	x6,x1,x31
    971c:	01092f83          	lw	x31,16(x18)
    9720:	41001937          	lui	x18,0x41001
    9724:	01042383          	lw	x7,16(x8)
    9728:	00068293          	mv	x5,x13
    972c:	d0692623          	sw	x6,-756(x18) # 41000d0c <.L2120+0x40ff3330>
    9730:	02068413          	addi	x8,x13,32

00009734 <.L1464>:
    9734:	0006a023          	sw	x0,0(x13)
    9738:	00468693          	addi	x13,x13,4
    973c:	fe869ce3          	bne	x13,x8,9734 <.L1464>
    9740:	0005a703          	lw	x14,0(x11)
    9744:	00052b03          	lw	x22,0(x10)
    9748:	00000e37          	lui	x28,0x0
    974c:	00470d13          	addi	x26,x14,4
    9750:	000e0793          	mv	x15,x28
    9754:	01a78bb3          	add	x23,x15,x26
    9758:	018b1c13          	slli	x24,x22,0x18
    975c:	018beeb3          	or	x29,x23,x24
    9760:	201c0db7          	lui	x27,0x201c0
    9764:	01bee633          	or	x12,x29,x27
    9768:	00100893          	li	x17,1
    976c:	01160023          	sb	x17,0(x12) # fc0000 <.L2120+0xfb2624>
    9770:	0005af03          	lw	x30,0(x11)
    9774:	00700493          	li	x9,7
    9778:	289f0463          	beq	x30,x9,9a00 <.L1817>

0000977c <.L1474>:
    977c:	00100b13          	li	x22,1
    9780:	0100006f          	j	9790 <.L1479>

00009784 <.L1818>:
    9784:	000e0c13          	mv	x24,x28
    9788:	140c2eaf          	lr.w.aq	x29,(x24)
    978c:	016e8863          	beq	x29,x22,979c <.L1478>

00009790 <.L1479>:
    9790:	000e0d13          	mv	x26,x28
    9794:	100d2baf          	lr.w	x23,(x26)
    9798:	ff6b96e3          	bne	x23,x22,9784 <.L1818>

0000979c <.L1478>:
    979c:	0007a023          	sw	x0,0(x15)
    97a0:	00000893          	li	x17,0
    97a4:	000000b7          	lui	x1,0x0
    97a8:	08100b13          	li	x22,129
    97ac:	00004437          	lui	x8,0x4
    97b0:	20000913          	li	x18,512
    97b4:	000204b7          	lui	x9,0x20

000097b8 <.L1486>:
    97b8:	00189b93          	slli	x23,x17,0x1
    97bc:	00000313          	li	x6,0

000097c0 <.L1483>:
    97c0:	0000ad83          	lw	x27,0(x1) # 0 <_Z21hb_tiled_foreach_implIfZL26convolution_backward_inputP11hb_tensor_tS1_S1_P11hb_vector_tS3_EUlvE_JEEvjjT0_8HBTensorIT_Lln1EEPS7_.isra.0>
    97c4:	07fdf613          	andi	x12,x27,127
    97c8:	03660633          	mul	x12,x12,x22
    97cc:	08160c13          	addi	x24,x12,129
    97d0:	01847463          	bgeu	x8,x24,97d8 <.L1480>
    97d4:	00004c37          	lui	x24,0x4

000097d8 <.L1480>:
    97d8:	07867463          	bgeu	x12,x24,9840 <.L1484>
    97dc:	00631c93          	slli	x25,x6,0x6
    97e0:	017c8f33          	add	x30,x25,x23

000097e4 <.L1485>:
    97e4:	01f67713          	andi	x14,x12,31
    97e8:	3e067e93          	andi	x29,x12,992
    97ec:	c0067d13          	andi	x26,x12,-1024
    97f0:	011706b3          	add	x13,x14,x17
    97f4:	00dd0cb3          	add	x25,x26,x13
    97f8:	00a65d93          	srli	x27,x12,0xa
    97fc:	01d70d33          	add	x26,x14,x29
    9800:	006d8db3          	add	x27,x27,x6
    9804:	01dc8733          	add	x14,x25,x29
    9808:	01ed0eb3          	add	x29,x26,x30
    980c:	002e9693          	slli	x13,x29,0x2
    9810:	00271d13          	slli	x26,x14,0x2
    9814:	002d9c93          	slli	x25,x27,0x2
    9818:	01a28733          	add	x14,x5,x26
    981c:	00df8eb3          	add	x29,x31,x13
    9820:	01938db3          	add	x27,x7,x25
    9824:	000eae07          	flw	f28,0(x29) # 3f000000 <.L2120+0x3eff2624>
    9828:	000dae87          	flw	f29,0(x27) # 201c0000 <.L2120+0x201b2624>
    982c:	00072f07          	flw	f30,0(x14)
    9830:	00160613          	addi	x12,x12,1
    9834:	f1de7fc3          	fmadd.s	f31,f28,f29,f30
    9838:	01f72027          	fsw	f31,0(x14)
    983c:	facc14e3          	bne	x24,x12,97e4 <.L1485>

00009840 <.L1484>:
    9840:	01030313          	addi	x6,x6,16 # 20000010 <.L2120+0x1fff2634>
    9844:	f7231ee3          	bne	x6,x18,97c0 <.L1483>
    9848:	008888b3          	add	x17,x17,x8
    984c:	f69896e3          	bne	x17,x9,97b8 <.L1486>
    9850:	0009a283          	lw	x5,0(x19)
    9854:	00052383          	lw	x7,0(x10)
    9858:	000a2983          	lw	x19,0(x20)
    985c:	0005aa03          	lw	x20,0(x11)
    9860:	000aaa83          	lw	x21,0(x21)
    9864:	00728fb3          	add	x31,x5,x7
    9868:	014980b3          	add	x1,x19,x20
    986c:	018f9b13          	slli	x22,x31,0x18
    9870:	01209413          	slli	x8,x1,0x12
    9874:	3f000937          	lui	x18,0x3f000
    9878:	00fc0bb7          	lui	x23,0xfc0
    987c:	000406b7          	lui	x13,0x40
    9880:	012b74b3          	and	x9,x22,x18
    9884:	01747c33          	and	x24,x8,x23
    9888:	004a9f13          	slli	x30,x21,0x4
    988c:	ff068c93          	addi	x25,x13,-16 # 3fff0 <.L2120+0x32614>
    9890:	0184ed33          	or	x26,x9,x24
    9894:	019f7733          	and	x14,x30,x25
    9898:	00ed6eb3          	or	x29,x26,x14
    989c:	c0000db7          	lui	x27,0xc0000
    98a0:	01bee633          	or	x12,x29,x27
    98a4:	41001337          	lui	x6,0x41001
    98a8:	d0c32623          	sw	x12,-756(x6) # 41000d0c <.L2120+0x40ff3330>
    98ac:	0005a883          	lw	x17,0(x11)
    98b0:	00052283          	lw	x5,0(x10)
    98b4:	201c0fb7          	lui	x31,0x201c0
    98b8:	00488393          	addi	x7,x17,4 # 8000004 <.L2120+0x7ff2628>
    98bc:	007789b3          	add	x19,x15,x7
    98c0:	01829a13          	slli	x20,x5,0x18
    98c4:	0149eab3          	or	x21,x19,x20
    98c8:	01fae0b3          	or	x1,x21,x31
    98cc:	00100b13          	li	x22,1
    98d0:	01608023          	sb	x22,0(x1)
    98d4:	0005a403          	lw	x8,0(x11)
    98d8:	00700913          	li	x18,7
    98dc:	1f240c63          	beq	x8,x18,9ad4 <.L1819>

000098e0 <.L1496>:
    98e0:	00100513          	li	x10,1
    98e4:	0100006f          	j	98f4 <.L1501>

000098e8 <.L1820>:
    98e8:	000e0313          	mv	x6,x28
    98ec:	140328af          	lr.w.aq	x17,(x6)
    98f0:	bea88863          	beq	x17,x10,8ce0 <.L1585>

000098f4 <.L1501>:
    98f4:	000e0813          	mv	x16,x28
    98f8:	100826af          	lr.w	x13,(x16)
    98fc:	fea696e3          	bne	x13,x10,98e8 <.L1820>
    9900:	be0ff06f          	j	8ce0 <.L1585>

00009904 <.L1777>:
    9904:	000007b7          	lui	x15,0x0
    9908:	00000e37          	lui	x28,0x0
    990c:	00078593          	mv	x11,x15
    9910:	06f00613          	li	x12,111
    9914:	000e0513          	mv	x10,x28
    9918:	00000097          	auipc	x1,0x0
    991c:	000080e7          	jalr	x1 # 9918 <.L1777+0x14>
    9920:	09012583          	lw	x11,144(x2)
    9924:	000002b7          	lui	x5,0x0
    9928:	00028513          	mv	x10,x5
    992c:	00000097          	auipc	x1,0x0
    9930:	000080e7          	jalr	x1 # 992c <.L1777+0x28>
    9934:	000003b7          	lui	x7,0x0
    9938:	0003a583          	lw	x11,0(x7) # 0 <_Z21hb_tiled_foreach_implIfZL26convolution_backward_inputP11hb_tensor_tS1_S1_P11hb_vector_tS3_EUlvE_JEEvjjT0_8HBTensorIT_Lln1EEPS7_.isra.0>
    993c:	000009b7          	lui	x19,0x0
    9940:	0009aa03          	lw	x20,0(x19) # 0 <_Z21hb_tiled_foreach_implIfZL26convolution_backward_inputP11hb_tensor_tS1_S1_P11hb_vector_tS3_EUlvE_JEEvjjT0_8HBTensorIT_Lln1EEPS7_.isra.0>
    9944:	01059a93          	slli	x21,x11,0x10
    9948:	4100fb37          	lui	x22,0x4100f
    994c:	014a8fb3          	add	x31,x21,x20
    9950:	adfb2c23          	sw	x31,-1320(x22) # 4100ead8 <.L2120+0x410010fc>

00009954 <.L1459>:
    9954:	0000006f          	j	9954 <.L1459>

00009958 <.L1776>:
    9958:	000000b7          	lui	x1,0x0
    995c:	00000437          	lui	x8,0x0
    9960:	00008593          	mv	x11,x1
    9964:	06f00613          	li	x12,111
    9968:	00040513          	mv	x10,x8
    996c:	00000097          	auipc	x1,0x0
    9970:	000080e7          	jalr	x1 # 996c <.L1776+0x14>
    9974:	09012583          	lw	x11,144(x2)
    9978:	00000937          	lui	x18,0x0
    997c:	00090513          	mv	x10,x18
    9980:	000004b7          	lui	x9,0x0
    9984:	00000097          	auipc	x1,0x0
    9988:	000080e7          	jalr	x1 # 9984 <.L1776+0x2c>
    998c:	00000c37          	lui	x24,0x0
    9990:	0004ab83          	lw	x23,0(x9) # 0 <_Z21hb_tiled_foreach_implIfZL26convolution_backward_inputP11hb_tensor_tS1_S1_P11hb_vector_tS3_EUlvE_JEEvjjT0_8HBTensorIT_Lln1EEPS7_.isra.0>
    9994:	000c2d03          	lw	x26,0(x24) # 0 <_Z21hb_tiled_foreach_implIfZL26convolution_backward_inputP11hb_tensor_tS1_S1_P11hb_vector_tS3_EUlvE_JEEvjjT0_8HBTensorIT_Lln1EEPS7_.isra.0>
    9998:	4100feb7          	lui	x29,0x4100f
    999c:	010b9f13          	slli	x30,x23,0x10
    99a0:	01af0cb3          	add	x25,x30,x26
    99a4:	ad9eac23          	sw	x25,-1320(x29) # 4100ead8 <.L2120+0x410010fc>

000099a8 <.L1457>:
    99a8:	0000006f          	j	99a8 <.L1457>

000099ac <.L1775>:
    99ac:	00000737          	lui	x14,0x0
    99b0:	00000db7          	lui	x27,0x0
    99b4:	06f00613          	li	x12,111
    99b8:	000d8593          	mv	x11,x27
    99bc:	00070513          	mv	x10,x14
    99c0:	00000097          	auipc	x1,0x0
    99c4:	000080e7          	jalr	x1 # 99c0 <.L1775+0x14>
    99c8:	05c12583          	lw	x11,92(x2)
    99cc:	00000637          	lui	x12,0x0
    99d0:	00060513          	mv	x10,x12
    99d4:	00000097          	auipc	x1,0x0
    99d8:	000080e7          	jalr	x1 # 99d4 <.L1775+0x28>
    99dc:	00000537          	lui	x10,0x0
    99e0:	00052803          	lw	x16,0(x10) # 0 <_Z21hb_tiled_foreach_implIfZL26convolution_backward_inputP11hb_tensor_tS1_S1_P11hb_vector_tS3_EUlvE_JEEvjjT0_8HBTensorIT_Lln1EEPS7_.isra.0>
    99e4:	000006b7          	lui	x13,0x0
    99e8:	0006a303          	lw	x6,0(x13) # 0 <_Z21hb_tiled_foreach_implIfZL26convolution_backward_inputP11hb_tensor_tS1_S1_P11hb_vector_tS3_EUlvE_JEEvjjT0_8HBTensorIT_Lln1EEPS7_.isra.0>
    99ec:	01081893          	slli	x17,x16,0x10
    99f0:	4100fe37          	lui	x28,0x4100f
    99f4:	006887b3          	add	x15,x17,x6
    99f8:	acfe2c23          	sw	x15,-1320(x28) # 4100ead8 <.L2120+0x410010fc>

000099fc <.L1455>:
    99fc:	0000006f          	j	99fc <.L1455>

00009a00 <.L1817>:
    9a00:	00000cb7          	lui	x25,0x0
    9a04:	004c8093          	addi	x1,x25,4 # 4 <_Z21hb_tiled_foreach_implIfZL26convolution_backward_inputP11hb_tensor_tS1_S1_P11hb_vector_tS3_EUlvE_JEEvjjT0_8HBTensorIT_Lln1EEPS7_.isra.0+0x4>
    9a08:	01000313          	li	x6,16

00009a0c <.L1466>:
    9a0c:	00000693          	li	x13,0

00009a10 <.L1468>:
    9a10:	00d08933          	add	x18,x1,x13
    9a14:	00094403          	lbu	x8,0(x18) # 0 <_Z21hb_tiled_foreach_implIfZL26convolution_backward_inputP11hb_tensor_tS1_S1_P11hb_vector_tS3_EUlvE_JEEvjjT0_8HBTensorIT_Lln1EEPS7_.isra.0>
    9a18:	00168693          	addi	x13,x13,1
    9a1c:	0ff47713          	andi	x14,x8,255
    9a20:	fe0706e3          	beqz	x14,9a0c <.L1466>
    9a24:	fe6696e3          	bne	x13,x6,9a10 <.L1468>
    9a28:	00052b03          	lw	x22,0(x10)
    9a2c:	231c0c37          	lui	x24,0x231c0
    9a30:	00100d93          	li	x27,1
    9a34:	018b0d13          	addi	x26,x22,24
    9a38:	01a78bb3          	add	x23,x15,x26
    9a3c:	018beeb3          	or	x29,x23,x24
    9a40:	01be8023          	sb	x27,0(x29)
    9a44:	0005a603          	lw	x12,0(x11)
    9a48:	00700893          	li	x17,7
    9a4c:	d31618e3          	bne	x12,x17,977c <.L1474>
    9a50:	00052f03          	lw	x30,0(x10)
    9a54:	00300493          	li	x9,3
    9a58:	149f0663          	beq	x30,x9,9ba4 <.L1821>

00009a5c <.L1473>:
    9a5c:	00100713          	li	x14,1
    9a60:	0100006f          	j	9a70 <.L1470>

00009a64 <.L1822>:
    9a64:	01478b93          	addi	x23,x15,20 # 14 <.L8>
    9a68:	140bac2f          	lr.w.aq	x24,(x23)
    9a6c:	00ec0863          	beq	x24,x14,9a7c <.L1475>

00009a70 <.L1470>:
    9a70:	01478b13          	addi	x22,x15,20
    9a74:	100b2d2f          	lr.w	x26,(x22)
    9a78:	feed16e3          	bne	x26,x14,9a64 <.L1822>

00009a7c <.L1475>:
    9a7c:	0007aa23          	sw	x0,20(x15)
    9a80:	00000613          	li	x12,0
    9a84:	01000e93          	li	x29,16

00009a88 <.L1476>:
    9a88:	00c78db3          	add	x27,x15,x12
    9a8c:	000d8223          	sb	x0,4(x27) # 4 <_Z21hb_tiled_foreach_implIfZL26convolution_backward_inputP11hb_tensor_tS1_S1_P11hb_vector_tS3_EUlvE_JEEvjjT0_8HBTensorIT_Lln1EEPS7_.isra.0+0x4>
    9a90:	00160613          	addi	x12,x12,1 # 1 <_Z21hb_tiled_foreach_implIfZL26convolution_backward_inputP11hb_tensor_tS1_S1_P11hb_vector_tS3_EUlvE_JEEvjjT0_8HBTensorIT_Lln1EEPS7_.isra.0+0x1>
    9a94:	ffd61ae3          	bne	x12,x29,9a88 <.L1476>
    9a98:	0007a023          	sw	x0,0(x15)
    9a9c:	00000913          	li	x18,0
    9aa0:	200004b7          	lui	x9,0x20000
    9aa4:	00100c93          	li	x25,1
    9aa8:	000408b7          	lui	x17,0x40
    9aac:	004000b7          	lui	x1,0x400

00009ab0 <.L1477>:
    9ab0:	00052303          	lw	x6,0(x10)
    9ab4:	0127ef33          	or	x30,x15,x18
    9ab8:	01190933          	add	x18,x18,x17
    9abc:	01831413          	slli	x8,x6,0x18
    9ac0:	01e466b3          	or	x13,x8,x30
    9ac4:	0096e733          	or	x14,x13,x9
    9ac8:	01972023          	sw	x25,0(x14) # 0 <_Z21hb_tiled_foreach_implIfZL26convolution_backward_inputP11hb_tensor_tS1_S1_P11hb_vector_tS3_EUlvE_JEEvjjT0_8HBTensorIT_Lln1EEPS7_.isra.0>
    9acc:	fe1912e3          	bne	x18,x1,9ab0 <.L1477>
    9ad0:	cadff06f          	j	977c <.L1474>

00009ad4 <.L1819>:
    9ad4:	000004b7          	lui	x9,0x0
    9ad8:	00448b93          	addi	x23,x9,4 # 4 <_Z21hb_tiled_foreach_implIfZL26convolution_backward_inputP11hb_tensor_tS1_S1_P11hb_vector_tS3_EUlvE_JEEvjjT0_8HBTensorIT_Lln1EEPS7_.isra.0+0x4>
    9adc:	01000c13          	li	x24,16

00009ae0 <.L1488>:
    9ae0:	00000693          	li	x13,0

00009ae4 <.L1490>:
    9ae4:	00db8f33          	add	x30,x23,x13
    9ae8:	000f4d03          	lbu	x26,0(x30)
    9aec:	00168693          	addi	x13,x13,1
    9af0:	0ffd7c93          	andi	x25,x26,255
    9af4:	fe0c86e3          	beqz	x25,9ae0 <.L1488>
    9af8:	ff8696e3          	bne	x13,x24,9ae4 <.L1490>
    9afc:	00052703          	lw	x14,0(x10)
    9b00:	231c0637          	lui	x12,0x231c0
    9b04:	00100893          	li	x17,1
    9b08:	01870e93          	addi	x29,x14,24
    9b0c:	01d78db3          	add	x27,x15,x29
    9b10:	00cde333          	or	x6,x27,x12
    9b14:	01130023          	sb	x17,0(x6)
    9b18:	0005a283          	lw	x5,0(x11)
    9b1c:	00700393          	li	x7,7
    9b20:	dc7290e3          	bne	x5,x7,98e0 <.L1496>
    9b24:	00052983          	lw	x19,0(x10)
    9b28:	00300a13          	li	x20,3
    9b2c:	11498c63          	beq	x19,x20,9c44 <.L1823>

00009b30 <.L1495>:
    9b30:	00100a13          	li	x20,1
    9b34:	0100006f          	j	9b44 <.L1492>

00009b38 <.L1824>:
    9b38:	01478093          	addi	x1,x15,20
    9b3c:	1400ab2f          	lr.w.aq	x22,(x1)
    9b40:	014b0863          	beq	x22,x20,9b50 <.L1497>

00009b44 <.L1492>:
    9b44:	01478a93          	addi	x21,x15,20
    9b48:	100aafaf          	lr.w	x31,(x21)
    9b4c:	ff4f96e3          	bne	x31,x20,9b38 <.L1824>

00009b50 <.L1497>:
    9b50:	0007aa23          	sw	x0,20(x15)
    9b54:	00000493          	li	x9,0
    9b58:	01000413          	li	x8,16

00009b5c <.L1498>:
    9b5c:	00978933          	add	x18,x15,x9
    9b60:	00090223          	sb	x0,4(x18)
    9b64:	00148493          	addi	x9,x9,1
    9b68:	fe849ae3          	bne	x9,x8,9b5c <.L1498>
    9b6c:	0007a023          	sw	x0,0(x15)
    9b70:	20000bb7          	lui	x23,0x20000
    9b74:	00100c13          	li	x24,1
    9b78:	00040d37          	lui	x26,0x40
    9b7c:	00400f37          	lui	x30,0x400

00009b80 <.L1499>:
    9b80:	00052c83          	lw	x25,0(x10)
    9b84:	0107eeb3          	or	x29,x15,x16
    9b88:	01a80833          	add	x16,x16,x26
    9b8c:	018c9d93          	slli	x27,x25,0x18
    9b90:	01dde733          	or	x14,x27,x29
    9b94:	01776633          	or	x12,x14,x23
    9b98:	01862023          	sw	x24,0(x12) # 231c0000 <.L2120+0x231b2624>
    9b9c:	ffe812e3          	bne	x16,x30,9b80 <.L1499>
    9ba0:	d41ff06f          	j	98e0 <.L1496>

00009ba4 <.L1821>:
    9ba4:	00000cb7          	lui	x25,0x0
    9ba8:	018c8093          	addi	x1,x25,24 # 18 <.L8+0x4>
    9bac:	00800313          	li	x6,8

00009bb0 <.L1469>:
    9bb0:	00000693          	li	x13,0

00009bb4 <.L1471>:
    9bb4:	00d08933          	add	x18,x1,x13
    9bb8:	00094403          	lbu	x8,0(x18)
    9bbc:	00168693          	addi	x13,x13,1
    9bc0:	0ff47713          	andi	x14,x8,255
    9bc4:	fe0706e3          	beqz	x14,9bb0 <.L1469>
    9bc8:	fe6696e3          	bne	x13,x6,9bb4 <.L1471>
    9bcc:	00078c23          	sb	x0,24(x15)
    9bd0:	00078ca3          	sb	x0,25(x15)
    9bd4:	00078d23          	sb	x0,26(x15)
    9bd8:	00078da3          	sb	x0,27(x15)
    9bdc:	00078e23          	sb	x0,28(x15)
    9be0:	00078ea3          	sb	x0,29(x15)
    9be4:	00078f23          	sb	x0,30(x15)
    9be8:	00078fa3          	sb	x0,31(x15)
    9bec:	00000b37          	lui	x22,0x0
    9bf0:	0007aa23          	sw	x0,20(x15)
    9bf4:	00000493          	li	x9,0
    9bf8:	014b0d13          	addi	x26,x22,20 # 14 <.L8>
    9bfc:	03fc0bb7          	lui	x23,0x3fc0
    9c00:	20000c37          	lui	x24,0x20000
    9c04:	00100e93          	li	x29,1
    9c08:	01000db7          	lui	x27,0x1000
    9c0c:	08000637          	lui	x12,0x8000

00009c10 <.L1472>:
    9c10:	0005a883          	lw	x17,0(x11)
    9c14:	009d6f33          	or	x30,x26,x9
    9c18:	01b484b3          	add	x9,x9,x27
    9c1c:	01289c93          	slli	x25,x17,0x12
    9c20:	017cf0b3          	and	x1,x25,x23
    9c24:	01e0e333          	or	x6,x1,x30
    9c28:	01836933          	or	x18,x6,x24
    9c2c:	01d92023          	sw	x29,0(x18)
    9c30:	fec490e3          	bne	x9,x12,9c10 <.L1472>
    9c34:	0005a403          	lw	x8,0(x11)
    9c38:	00700693          	li	x13,7
    9c3c:	e2d400e3          	beq	x8,x13,9a5c <.L1473>
    9c40:	b3dff06f          	j	977c <.L1474>

00009c44 <.L1823>:
    9c44:	00000ab7          	lui	x21,0x0
    9c48:	018a8f93          	addi	x31,x21,24 # 18 <.L8+0x4>
    9c4c:	00800093          	li	x1,8

00009c50 <.L1491>:
    9c50:	00000913          	li	x18,0

00009c54 <.L1493>:
    9c54:	012f8b33          	add	x22,x31,x18
    9c58:	000b4403          	lbu	x8,0(x22)
    9c5c:	00190913          	addi	x18,x18,1
    9c60:	0ff47493          	andi	x9,x8,255
    9c64:	fe0486e3          	beqz	x9,9c50 <.L1491>
    9c68:	fe1916e3          	bne	x18,x1,9c54 <.L1493>
    9c6c:	00078c23          	sb	x0,24(x15)
    9c70:	00078ca3          	sb	x0,25(x15)
    9c74:	00078d23          	sb	x0,26(x15)
    9c78:	00078da3          	sb	x0,27(x15)
    9c7c:	00078e23          	sb	x0,28(x15)
    9c80:	00078ea3          	sb	x0,29(x15)
    9c84:	00078f23          	sb	x0,30(x15)
    9c88:	00078fa3          	sb	x0,31(x15)
    9c8c:	00000bb7          	lui	x23,0x0
    9c90:	0007aa23          	sw	x0,20(x15)
    9c94:	00000693          	li	x13,0
    9c98:	014b8c13          	addi	x24,x23,20 # 14 <.L8>
    9c9c:	03fc0d37          	lui	x26,0x3fc0
    9ca0:	20000f37          	lui	x30,0x20000
    9ca4:	00100c93          	li	x25,1
    9ca8:	01000eb7          	lui	x29,0x1000
    9cac:	08000db7          	lui	x27,0x8000

00009cb0 <.L1494>:
    9cb0:	0005a703          	lw	x14,0(x11)
    9cb4:	00dc6633          	or	x12,x24,x13
    9cb8:	01d686b3          	add	x13,x13,x29
    9cbc:	01271313          	slli	x6,x14,0x12
    9cc0:	01a378b3          	and	x17,x6,x26
    9cc4:	00c8e2b3          	or	x5,x17,x12
    9cc8:	01e2e3b3          	or	x7,x5,x30
    9ccc:	0193a023          	sw	x25,0(x7)
    9cd0:	ffb690e3          	bne	x13,x27,9cb0 <.L1494>
    9cd4:	0005a583          	lw	x11,0(x11)
    9cd8:	00700993          	li	x19,7
    9cdc:	e5358ae3          	beq	x11,x19,9b30 <.L1495>
    9ce0:	c01ff06f          	j	98e0 <.L1496>

00009ce4 <.L1774>:
    9ce4:	000002b7          	lui	x5,0x0
    9ce8:	000003b7          	lui	x7,0x0
    9cec:	00028593          	mv	x11,x5
    9cf0:	06f00613          	li	x12,111
    9cf4:	00038513          	mv	x10,x7
    9cf8:	00000097          	auipc	x1,0x0
    9cfc:	000080e7          	jalr	x1 # 9cf8 <.L1774+0x14>
    9d00:	05c12583          	lw	x11,92(x2)
    9d04:	000009b7          	lui	x19,0x0
    9d08:	00098513          	mv	x10,x19
    9d0c:	00000097          	auipc	x1,0x0
    9d10:	000080e7          	jalr	x1 # 9d0c <.L1774+0x28>
    9d14:	000005b7          	lui	x11,0x0
    9d18:	0005aa03          	lw	x20,0(x11) # 0 <_Z21hb_tiled_foreach_implIfZL26convolution_backward_inputP11hb_tensor_tS1_S1_P11hb_vector_tS3_EUlvE_JEEvjjT0_8HBTensorIT_Lln1EEPS7_.isra.0>
    9d1c:	00000ab7          	lui	x21,0x0
    9d20:	000aaf83          	lw	x31,0(x21) # 0 <_Z21hb_tiled_foreach_implIfZL26convolution_backward_inputP11hb_tensor_tS1_S1_P11hb_vector_tS3_EUlvE_JEEvjjT0_8HBTensorIT_Lln1EEPS7_.isra.0>
    9d24:	010a1b13          	slli	x22,x20,0x10
    9d28:	4100f937          	lui	x18,0x4100f
    9d2c:	01fb0433          	add	x8,x22,x31
    9d30:	ac892c23          	sw	x8,-1320(x18) # 4100ead8 <.L2120+0x410010fc>

00009d34 <.L1453>:
    9d34:	0000006f          	j	9d34 <.L1453>

00009d38 <.L1772>:
    9d38:	00000837          	lui	x16,0x0
    9d3c:	00000537          	lui	x10,0x0
    9d40:	00050593          	mv	x11,x10
    9d44:	06f00613          	li	x12,111
    9d48:	00080513          	mv	x10,x16
    9d4c:	00000097          	auipc	x1,0x0
    9d50:	000080e7          	jalr	x1 # 9d4c <.L1772+0x14>
    9d54:	02812583          	lw	x11,40(x2)
    9d58:	00000637          	lui	x12,0x0
    9d5c:	00060513          	mv	x10,x12
    9d60:	00000097          	auipc	x1,0x0
    9d64:	000080e7          	jalr	x1 # 9d60 <.L1772+0x28>
    9d68:	000006b7          	lui	x13,0x0
    9d6c:	0006a303          	lw	x6,0(x13) # 0 <_Z21hb_tiled_foreach_implIfZL26convolution_backward_inputP11hb_tensor_tS1_S1_P11hb_vector_tS3_EUlvE_JEEvjjT0_8HBTensorIT_Lln1EEPS7_.isra.0>
    9d70:	000008b7          	lui	x17,0x0
    9d74:	0008ae03          	lw	x28,0(x17) # 0 <_Z21hb_tiled_foreach_implIfZL26convolution_backward_inputP11hb_tensor_tS1_S1_P11hb_vector_tS3_EUlvE_JEEvjjT0_8HBTensorIT_Lln1EEPS7_.isra.0>
    9d78:	01031793          	slli	x15,x6,0x10
    9d7c:	4100f3b7          	lui	x7,0x4100f
    9d80:	01c782b3          	add	x5,x15,x28
    9d84:	ac53ac23          	sw	x5,-1320(x7) # 4100ead8 <.L2120+0x410010fc>

00009d88 <.L1449>:
    9d88:	0000006f          	j	9d88 <.L1449>

00009d8c <.L1771>:
    9d8c:	000009b7          	lui	x19,0x0
    9d90:	00000a37          	lui	x20,0x0
    9d94:	06f00613          	li	x12,111
    9d98:	00098593          	mv	x11,x19
    9d9c:	000a0513          	mv	x10,x20
    9da0:	00000097          	auipc	x1,0x0
    9da4:	000080e7          	jalr	x1 # 9da0 <.L1771+0x14>
    9da8:	02812583          	lw	x11,40(x2)
    9dac:	00000ab7          	lui	x21,0x0
    9db0:	000a8513          	mv	x10,x21
    9db4:	00000097          	auipc	x1,0x0
    9db8:	000080e7          	jalr	x1 # 9db4 <.L1771+0x28>
    9dbc:	000005b7          	lui	x11,0x0
    9dc0:	0005af83          	lw	x31,0(x11) # 0 <_Z21hb_tiled_foreach_implIfZL26convolution_backward_inputP11hb_tensor_tS1_S1_P11hb_vector_tS3_EUlvE_JEEvjjT0_8HBTensorIT_Lln1EEPS7_.isra.0>
    9dc4:	00000b37          	lui	x22,0x0
    9dc8:	000b2403          	lw	x8,0(x22) # 0 <_Z21hb_tiled_foreach_implIfZL26convolution_backward_inputP11hb_tensor_tS1_S1_P11hb_vector_tS3_EUlvE_JEEvjjT0_8HBTensorIT_Lln1EEPS7_.isra.0>
    9dcc:	010f9913          	slli	x18,x31,0x10
    9dd0:	4100fbb7          	lui	x23,0x4100f
    9dd4:	008904b3          	add	x9,x18,x8
    9dd8:	ac9bac23          	sw	x9,-1320(x23) # 4100ead8 <.L2120+0x410010fc>

00009ddc <.L1447>:
    9ddc:	0000006f          	j	9ddc <.L1447>

00009de0 <.L1773>:
    9de0:	000000b7          	lui	x1,0x0
    9de4:	000004b7          	lui	x9,0x0
    9de8:	00008593          	mv	x11,x1
    9dec:	06f00613          	li	x12,111
    9df0:	00048513          	mv	x10,x9
    9df4:	00000097          	auipc	x1,0x0
    9df8:	000080e7          	jalr	x1 # 9df4 <.L1773+0x14>
    9dfc:	05c12583          	lw	x11,92(x2)
    9e00:	00000bb7          	lui	x23,0x0
    9e04:	000b8513          	mv	x10,x23
    9e08:	00000097          	auipc	x1,0x0
    9e0c:	000080e7          	jalr	x1 # 9e08 <.L1773+0x28>
    9e10:	00000c37          	lui	x24,0x0
    9e14:	000c2d03          	lw	x26,0(x24) # 0 <_Z21hb_tiled_foreach_implIfZL26convolution_backward_inputP11hb_tensor_tS1_S1_P11hb_vector_tS3_EUlvE_JEEvjjT0_8HBTensorIT_Lln1EEPS7_.isra.0>
    9e18:	00000f37          	lui	x30,0x0
    9e1c:	000f2c83          	lw	x25,0(x30) # 0 <_Z21hb_tiled_foreach_implIfZL26convolution_backward_inputP11hb_tensor_tS1_S1_P11hb_vector_tS3_EUlvE_JEEvjjT0_8HBTensorIT_Lln1EEPS7_.isra.0>
    9e20:	010d1e93          	slli	x29,x26,0x10
    9e24:	4100f737          	lui	x14,0x4100f
    9e28:	019e8db3          	add	x27,x29,x25
    9e2c:	adb72c23          	sw	x27,-1320(x14) # 4100ead8 <.L2120+0x410010fc>

00009e30 <.L1451>:
    9e30:	0000006f          	j	9e30 <.L1451>

00009e34 <_ZL27convolution_backward_weightP11hb_tensor_tS0_S0_P11hb_vector_tS2_.isra.0>:
    9e34:	ec010113          	addi	x2,x2,-320
    9e38:	12812c23          	sw	x8,312(x2)
    9e3c:	12912a23          	sw	x9,308(x2)
    9e40:	00050413          	mv	x8,x10
    9e44:	00058493          	mv	x9,x11
    9e48:	04c10513          	addi	x10,x2,76
    9e4c:	00060593          	mv	x11,x12
    9e50:	12112e23          	sw	x1,316(x2)
    9e54:	13212823          	sw	x18,304(x2)
    9e58:	13312623          	sw	x19,300(x2)
    9e5c:	00070913          	mv	x18,x14
    9e60:	00068993          	mv	x19,x13
    9e64:	13412423          	sw	x20,296(x2)
    9e68:	13512223          	sw	x21,292(x2)
    9e6c:	13612023          	sw	x22,288(x2)
    9e70:	11712e23          	sw	x23,284(x2)
    9e74:	11812c23          	sw	x24,280(x2)
    9e78:	11912a23          	sw	x25,276(x2)
    9e7c:	11a12823          	sw	x26,272(x2)
    9e80:	11b12623          	sw	x27,268(x2)
    9e84:	00000097          	auipc	x1,0x0
    9e88:	000080e7          	jalr	x1 # 9e84 <_ZL27convolution_backward_weightP11hb_tensor_tS0_S0_P11hb_vector_tS2_.isra.0+0x50>
    9e8c:	00048593          	mv	x11,x9
    9e90:	08810513          	addi	x10,x2,136
    9e94:	00000097          	auipc	x1,0x0
    9e98:	000080e7          	jalr	x1 # 9e94 <_ZL27convolution_backward_weightP11hb_tensor_tS0_S0_P11hb_vector_tS2_.isra.0+0x60>
    9e9c:	00040593          	mv	x11,x8
    9ea0:	0c410513          	addi	x10,x2,196
    9ea4:	00000097          	auipc	x1,0x0
    9ea8:	000080e7          	jalr	x1 # 9ea4 <_ZL27convolution_backward_weightP11hb_tensor_tS0_S0_P11hb_vector_tS2_.isra.0+0x70>
    9eac:	08c12783          	lw	x15,140(x2)
    9eb0:	50078263          	beqz	x15,a3b4 <.L1920>
    9eb4:	00100713          	li	x14,1
    9eb8:	4af77463          	bgeu	x14,x15,a360 <.L1921>
    9ebc:	00200693          	li	x13,2
    9ec0:	58d78e63          	beq	x15,x13,a45c <.L1922>
    9ec4:	00300593          	li	x11,3
    9ec8:	5eb78463          	beq	x15,x11,a4b0 <.L1923>
    9ecc:	05012083          	lw	x1,80(x2)
    9ed0:	52177c63          	bgeu	x14,x1,a408 <.L1924>
    9ed4:	1ad086e3          	beq	x1,x13,a880 <.L1925>
    9ed8:	1eb08ee3          	beq	x1,x11,a8d4 <.L1926>
    9edc:	0c812603          	lw	x12,200(x2)
    9ee0:	62c6f263          	bgeu	x13,x12,a504 <.L1927>
    9ee4:	24b602e3          	beq	x12,x11,a928 <.L1928>
    9ee8:	000002b7          	lui	x5,0x0
    9eec:	000003b7          	lui	x7,0x0
    9ef0:	0002a303          	lw	x6,0(x5) # 0 <_Z21hb_tiled_foreach_implIfZL26convolution_backward_inputP11hb_tensor_tS1_S1_P11hb_vector_tS3_EUlvE_JEEvjjT0_8HBTensorIT_Lln1EEPS7_.isra.0>
    9ef4:	0003a803          	lw	x16,0(x7) # 0 <_Z21hb_tiled_foreach_implIfZL26convolution_backward_inputP11hb_tensor_tS1_S1_P11hb_vector_tS3_EUlvE_JEEvjjT0_8HBTensorIT_Lln1EEPS7_.isra.0>
    9ef8:	00000537          	lui	x10,0x0
    9efc:	00000a37          	lui	x20,0x0
    9f00:	00052883          	lw	x17,0(x10) # 0 <_Z21hb_tiled_foreach_implIfZL26convolution_backward_inputP11hb_tensor_tS1_S1_P11hb_vector_tS3_EUlvE_JEEvjjT0_8HBTensorIT_Lln1EEPS7_.isra.0>
    9f04:	000a2a83          	lw	x21,0(x20) # 0 <_Z21hb_tiled_foreach_implIfZL26convolution_backward_inputP11hb_tensor_tS1_S1_P11hb_vector_tS3_EUlvE_JEEvjjT0_8HBTensorIT_Lln1EEPS7_.isra.0>
    9f08:	00000b37          	lui	x22,0x0
    9f0c:	09412083          	lw	x1,148(x2)
    9f10:	000b2b83          	lw	x23,0(x22) # 0 <_Z21hb_tiled_foreach_implIfZL26convolution_backward_inputP11hb_tensor_tS1_S1_P11hb_vector_tS3_EUlvE_JEEvjjT0_8HBTensorIT_Lln1EEPS7_.isra.0>
    9f14:	05812283          	lw	x5,88(x2)
    9f18:	0009a583          	lw	x11,0(x19) # 0 <_Z21hb_tiled_foreach_implIfZL26convolution_backward_inputP11hb_tensor_tS1_S1_P11hb_vector_tS3_EUlvE_JEEvjjT0_8HBTensorIT_Lln1EEPS7_.isra.0>
    9f1c:	01030c33          	add	x24,x6,x16
    9f20:	00092303          	lw	x6,0(x18)
    9f24:	01588cb3          	add	x25,x17,x21
    9f28:	018c1d13          	slli	x26,x24,0x18
    9f2c:	012c9d93          	slli	x27,x25,0x12
    9f30:	3f000e37          	lui	x28,0x3f000
    9f34:	00fc0f37          	lui	x30,0xfc0
    9f38:	000409b7          	lui	x19,0x40
    9f3c:	01cd7eb3          	and	x29,x26,x28
    9f40:	0c412383          	lw	x7,196(x2)
    9f44:	0000a503          	lw	x10,0(x1)
    9f48:	0082ab03          	lw	x22,8(x5)
    9f4c:	00032c03          	lw	x24,0(x6)
    9f50:	00432c83          	lw	x25,4(x6)
    9f54:	0005ad03          	lw	x26,0(x11)
    9f58:	01edffb3          	and	x31,x27,x30
    9f5c:	004b9413          	slli	x8,x23,0x4
    9f60:	0045ad83          	lw	x27,4(x11)
    9f64:	00c2ab83          	lw	x23,12(x5)
    9f68:	ff098913          	addi	x18,x19,-16 # 3fff0 <.L2120+0x32614>
    9f6c:	0d012703          	lw	x14,208(x2)
    9f70:	012477b3          	and	x15,x8,x18
    9f74:	01fee4b3          	or	x9,x29,x31
    9f78:	00f4e833          	or	x16,x9,x15
    9f7c:	800006b7          	lui	x13,0x80000
    9f80:	00d868b3          	or	x17,x16,x13
    9f84:	02a12623          	sw	x10,44(x2)
    9f88:	01612623          	sw	x22,12(x2)
    9f8c:	01712823          	sw	x23,16(x2)
    9f90:	01812a23          	sw	x24,20(x2)
    9f94:	01912c23          	sw	x25,24(x2)
    9f98:	01a12e23          	sw	x26,28(x2)
    9f9c:	03b12023          	sw	x27,32(x2)
    9fa0:	41001eb7          	lui	x29,0x41001
    9fa4:	fff38e13          	addi	x28,x7,-1
    9fa8:	ffd00f13          	li	x30,-3
    9fac:	0040aa83          	lw	x21,4(x1)
    9fb0:	0080a483          	lw	x9,8(x1)
    9fb4:	00c0a903          	lw	x18,12(x1)
    9fb8:	0042aa03          	lw	x20,4(x5)
    9fbc:	00872983          	lw	x19,8(x14)
    9fc0:	00c72403          	lw	x8,12(x14)
    9fc4:	d11ea623          	sw	x17,-756(x29) # 41000d0c <.L2120+0x40ff3330>
    9fc8:	0cc12683          	lw	x13,204(x2)
    9fcc:	0d412783          	lw	x15,212(x2)
    9fd0:	1bcf66e3          	bltu	x30,x28,a97c <.L1895>
    9fd4:	00000fb7          	lui	x31,0x0
    9fd8:	000fa083          	lw	x1,0(x31) # 0 <_Z21hb_tiled_foreach_implIfZL26convolution_backward_inputP11hb_tensor_tS1_S1_P11hb_vector_tS3_EUlvE_JEEvjjT0_8HBTensorIT_Lln1EEPS7_.isra.0>
    9fdc:	0073d293          	srli	x5,x7,0x7
    9fe0:	00128593          	addi	x11,x5,1
    9fe4:	07f0f313          	andi	x6,x1,127
    9fe8:	02b30533          	mul	x10,x6,x11
    9fec:	00a585b3          	add	x11,x11,x10
    9ff0:	00b3f463          	bgeu	x7,x11,9ff8 <.L1845>
    9ff4:	00038593          	mv	x11,x7

00009ff8 <.L1845>:
    9ff8:	18b572e3          	bgeu	x10,x11,a97c <.L1895>

00009ffc <.L1844>:
    9ffc:	00000097          	auipc	x1,0x0
    a000:	000080e7          	jalr	x1 # 9ffc <.L1844>
    a004:	000003b7          	lui	x7,0x0
    a008:	0003a603          	lw	x12,0(x7) # 0 <_Z21hb_tiled_foreach_implIfZL26convolution_backward_inputP11hb_tensor_tS1_S1_P11hb_vector_tS3_EUlvE_JEEvjjT0_8HBTensorIT_Lln1EEPS7_.isra.0>
    a00c:	00000737          	lui	x14,0x0
    a010:	00072803          	lw	x16,0(x14) # 0 <_Z21hb_tiled_foreach_implIfZL26convolution_backward_inputP11hb_tensor_tS1_S1_P11hb_vector_tS3_EUlvE_JEEvjjT0_8HBTensorIT_Lln1EEPS7_.isra.0>
    a014:	000006b7          	lui	x13,0x0
    a018:	00460793          	addi	x15,x12,4 # 4 <_Z21hb_tiled_foreach_implIfZL26convolution_backward_inputP11hb_tensor_tS1_S1_P11hb_vector_tS3_EUlvE_JEEvjjT0_8HBTensorIT_Lln1EEPS7_.isra.0+0x4>
    a01c:	00068c13          	mv	x24,x13
    a020:	00fc08b3          	add	x17,x24,x15
    a024:	01881513          	slli	x10,x16,0x18
    a028:	00a8eb33          	or	x22,x17,x10
    a02c:	201c0bb7          	lui	x23,0x201c0
    a030:	017b6cb3          	or	x25,x22,x23
    a034:	00100d13          	li	x26,1
    a038:	01ac8023          	sb	x26,0(x25)
    a03c:	0003a703          	lw	x14,0(x7)
    a040:	00700e13          	li	x28,7
    a044:	02e12a23          	sw	x14,52(x2)
    a048:	5fc70a63          	beq	x14,x28,a63c <.L1929>

0000a04c <.L1856>:
    a04c:	00100f93          	li	x31,1
    a050:	0100006f          	j	a060 <.L1861>

0000a054 <.L1930>:
    a054:	00028393          	mv	x7,x5
    a058:	1403a62f          	lr.w.aq	x12,(x7)
    a05c:	01f60a63          	beq	x12,x31,a070 <.L1860>

0000a060 <.L1861>:
    a060:	000002b7          	lui	x5,0x0
    a064:	00028593          	mv	x11,x5
    a068:	1005a32f          	lr.w	x6,(x11)
    a06c:	fff314e3          	bne	x6,x31,a054 <.L1930>

0000a070 <.L1860>:
    a070:	02c12883          	lw	x17,44(x2)
    a074:	000c2023          	sw	x0,0(x24)
    a078:	1c088e63          	beqz	x17,a254 <.L1866>
    a07c:	034a87b3          	mul	x15,x21,x20
    a080:	00000b13          	li	x22,0
    a084:	03378533          	mul	x10,x15,x19
    a088:	033a07b3          	mul	x15,x20,x19
    a08c:	02850bb3          	mul	x23,x10,x8
    a090:	02878833          	mul	x16,x15,x8
    a094:	007bdd13          	srli	x26,x23,0x7
    a098:	fffb8d93          	addi	x27,x23,-1 # 201bffff <.L2120+0x201b2623>
    a09c:	001d0693          	addi	x13,x26,1 # 3fc0001 <.L2120+0x3fb2625>
    a0a0:	03712c23          	sw	x23,56(x2)
    a0a4:	03b12823          	sw	x27,48(x2)
    a0a8:	02d12e23          	sw	x13,60(x2)
    a0ac:	02898e33          	mul	x28,x19,x8
    a0b0:	03012223          	sw	x16,36(x2)
    a0b4:	03c12423          	sw	x28,40(x2)

0000a0b8 <.L1867>:
    a0b8:	03012083          	lw	x1,48(x2)
    a0bc:	ffd00713          	li	x14,-3
    a0c0:	18176463          	bltu	x14,x1,a248 <.L1869>
    a0c4:	00000eb7          	lui	x29,0x0
    a0c8:	000eaf03          	lw	x30,0(x29) # 0 <_Z21hb_tiled_foreach_implIfZL26convolution_backward_inputP11hb_tensor_tS1_S1_P11hb_vector_tS3_EUlvE_JEEvjjT0_8HBTensorIT_Lln1EEPS7_.isra.0>
    a0cc:	03c12283          	lw	x5,60(x2)
    a0d0:	03812583          	lw	x11,56(x2)
    a0d4:	07ff7f93          	andi	x31,x30,127
    a0d8:	025f8633          	mul	x12,x31,x5
    a0dc:	00c28cb3          	add	x25,x5,x12
    a0e0:	0195f463          	bgeu	x11,x25,a0e8 <.L1868>
    a0e4:	00058c93          	mv	x25,x11

0000a0e8 <.L1868>:
    a0e8:	17967063          	bgeu	x12,x25,a248 <.L1869>
    a0ec:	05c12303          	lw	x6,92(x2)
    a0f0:	0d412383          	lw	x7,212(x2)
    a0f4:	09012083          	lw	x1,144(x2)
    a0f8:	09812d03          	lw	x26,152(x2)
    a0fc:	05412f83          	lw	x31,84(x2)
    a100:	0cc12f03          	lw	x30,204(x2)
    a104:	00612223          	sw	x6,4(x2)
    a108:	00712423          	sw	x7,8(x2)

0000a10c <.L1871>:
    a10c:	028658b3          	divu	x17,x12,x8
    a110:	02412503          	lw	x10,36(x2)
    a114:	02812783          	lw	x15,40(x2)
    a118:	01c12683          	lw	x13,28(x2)
    a11c:	00000e13          	li	x28,0
    a120:	02a65bb3          	divu	x23,x12,x10
    a124:	02f65db3          	divu	x27,x12,x15
    a128:	0338f2b3          	remu	x5,x17,x19
    a12c:	035bf833          	remu	x16,x23,x21
    a130:	40d288b3          	sub	x17,x5,x13
    a134:	034df5b3          	remu	x11,x27,x20
    a138:	028673b3          	remu	x7,x12,x8
    a13c:	10048263          	beqz	x9,a240 <.L1873>

0000a140 <.L1874>:
    a140:	02012703          	lw	x14,32(x2)
    a144:	00000e93          	li	x29,0
    a148:	40e38333          	sub	x6,x7,x14
    a14c:	0e090263          	beqz	x18,a230 <.L1876>

0000a150 <.L1877>:
    a150:	0c08c863          	bltz	x17,a220 <.L1875>
    a154:	00c12503          	lw	x10,12(x2)
    a158:	0ca8f463          	bgeu	x17,x10,a220 <.L1875>
    a15c:	0c034263          	bltz	x6,a220 <.L1875>
    a160:	01012b83          	lw	x23,16(x2)
    a164:	0b737e63          	bgeu	x6,x23,a220 <.L1875>
    a168:	000f2783          	lw	x15,0(x30) # fc0000 <.L2120+0xfb2624>
    a16c:	004f2703          	lw	x14,4(x30)
    a170:	0000a683          	lw	x13,0(x1)
    a174:	000fa503          	lw	x10,0(x31)
    a178:	00cf2d83          	lw	x27,12(x30)
    a17c:	02f80bb3          	mul	x23,x16,x15
    a180:	02e587b3          	mul	x15,x11,x14
    a184:	0040a703          	lw	x14,4(x1)
    a188:	02db06b3          	mul	x13,x22,x13
    a18c:	00fb87b3          	add	x15,x23,x15
    a190:	004fab83          	lw	x23,4(x31)
    a194:	02e80733          	mul	x14,x16,x14
    a198:	02ab0533          	mul	x10,x22,x10
    a19c:	00e686b3          	add	x13,x13,x14
    a1a0:	03758733          	mul	x14,x11,x23
    a1a4:	0080ab83          	lw	x23,8(x1)
    a1a8:	03b38db3          	mul	x27,x7,x27
    a1ac:	00e50533          	add	x10,x10,x14
    a1b0:	037e0733          	mul	x14,x28,x23
    a1b4:	00c0ab83          	lw	x23,12(x1)
    a1b8:	01b787b3          	add	x15,x15,x27
    a1bc:	008fad83          	lw	x27,8(x31)
    a1c0:	037e8bb3          	mul	x23,x29,x23
    a1c4:	00e686b3          	add	x13,x13,x14
    a1c8:	00cfa703          	lw	x14,12(x31)
    a1cc:	03b88db3          	mul	x27,x17,x27
    a1d0:	017686b3          	add	x13,x13,x23
    a1d4:	00269b93          	slli	x23,x13,0x2
    a1d8:	008f2683          	lw	x13,8(x30)
    a1dc:	01b50533          	add	x10,x10,x27
    a1e0:	02e30db3          	mul	x27,x6,x14
    a1e4:	017d0733          	add	x14,x26,x23
    a1e8:	00412b83          	lw	x23,4(x2)
    a1ec:	00072787          	flw	f15,0(x14)
    a1f0:	02d286b3          	mul	x13,x5,x13
    a1f4:	01b50533          	add	x10,x10,x27
    a1f8:	00251d93          	slli	x27,x10,0x2
    a1fc:	00812503          	lw	x10,8(x2)
    a200:	01bb8733          	add	x14,x23,x27
    a204:	00072687          	flw	f13,0(x14)
    a208:	00d787b3          	add	x15,x15,x13
    a20c:	00279693          	slli	x13,x15,0x2
    a210:	00d50db3          	add	x27,x10,x13
    a214:	000da707          	flw	f14,0(x27) # 8000000 <.L2120+0x7ff2624>
    a218:	70d7f043          	fmadd.s	f0,f15,f13,f14
    a21c:	000da027          	fsw	f0,0(x27)

0000a220 <.L1875>:
    a220:	01812b83          	lw	x23,24(x2)
    a224:	001e8e93          	addi	x29,x29,1
    a228:	01730333          	add	x6,x6,x23
    a22c:	f3d912e3          	bne	x18,x29,a150 <.L1877>

0000a230 <.L1876>:
    a230:	01412703          	lw	x14,20(x2)
    a234:	001e0e13          	addi	x28,x28,1 # 3f000001 <.L2120+0x3eff2625>
    a238:	00e888b3          	add	x17,x17,x14
    a23c:	f1c492e3          	bne	x9,x28,a140 <.L1874>

0000a240 <.L1873>:
    a240:	00160613          	addi	x12,x12,1
    a244:	eccc94e3          	bne	x25,x12,a10c <.L1871>

0000a248 <.L1869>:
    a248:	02c12c83          	lw	x25,44(x2)
    a24c:	001b0b13          	addi	x22,x22,1
    a250:	e76c94e3          	bne	x25,x22,a0b8 <.L1867>

0000a254 <.L1866>:
    a254:	00000437          	lui	x8,0x0
    a258:	00042483          	lw	x9,0(x8) # 0 <_Z21hb_tiled_foreach_implIfZL26convolution_backward_inputP11hb_tensor_tS1_S1_P11hb_vector_tS3_EUlvE_JEEvjjT0_8HBTensorIT_Lln1EEPS7_.isra.0>
    a25c:	03412f83          	lw	x31,52(x2)
    a260:	000000b7          	lui	x1,0x0
    a264:	00000937          	lui	x18,0x0
    a268:	00000a37          	lui	x20,0x0
    a26c:	00092983          	lw	x19,0(x18) # 0 <_Z21hb_tiled_foreach_implIfZL26convolution_backward_inputP11hb_tensor_tS1_S1_P11hb_vector_tS3_EUlvE_JEEvjjT0_8HBTensorIT_Lln1EEPS7_.isra.0>
    a270:	000a2a83          	lw	x21,0(x20) # 0 <_Z21hb_tiled_foreach_implIfZL26convolution_backward_inputP11hb_tensor_tS1_S1_P11hb_vector_tS3_EUlvE_JEEvjjT0_8HBTensorIT_Lln1EEPS7_.isra.0>
    a274:	0000ad03          	lw	x26,0(x1) # 0 <_Z21hb_tiled_foreach_implIfZL26convolution_backward_inputP11hb_tensor_tS1_S1_P11hb_vector_tS3_EUlvE_JEEvjjT0_8HBTensorIT_Lln1EEPS7_.isra.0>
    a278:	009f8f33          	add	x30,x31,x9
    a27c:	000406b7          	lui	x13,0x40
    a280:	012f1293          	slli	x5,x30,0x12
    a284:	01aa85b3          	add	x11,x21,x26
    a288:	00499813          	slli	x16,x19,0x4
    a28c:	00fc03b7          	lui	x7,0xfc0
    a290:	ff068513          	addi	x10,x13,-16 # 3fff0 <.L2120+0x32614>
    a294:	0072f7b3          	and	x15,x5,x7
    a298:	00a87db3          	and	x27,x16,x10
    a29c:	01859e93          	slli	x29,x11,0x18
    a2a0:	3f000337          	lui	x6,0x3f000
    a2a4:	01b7ebb3          	or	x23,x15,x27
    a2a8:	006efe33          	and	x28,x29,x6
    a2ac:	01cbe8b3          	or	x17,x23,x28
    a2b0:	c0000737          	lui	x14,0xc0000
    a2b4:	00e8e633          	or	x12,x17,x14
    a2b8:	41001b37          	lui	x22,0x41001
    a2bc:	d0cb2623          	sw	x12,-756(x22) # 41000d0c <.L2120+0x40ff3330>
    a2c0:	00000cb7          	lui	x25,0x0
    a2c4:	000ca403          	lw	x8,0(x25) # 0 <_Z21hb_tiled_foreach_implIfZL26convolution_backward_inputP11hb_tensor_tS1_S1_P11hb_vector_tS3_EUlvE_JEEvjjT0_8HBTensorIT_Lln1EEPS7_.isra.0>
    a2c8:	0000a483          	lw	x9,0(x1)
    a2cc:	201c00b7          	lui	x1,0x201c0
    a2d0:	00440913          	addi	x18,x8,4
    a2d4:	012c09b3          	add	x19,x24,x18
    a2d8:	01849a13          	slli	x20,x9,0x18
    a2dc:	0149eab3          	or	x21,x19,x20
    a2e0:	001aed33          	or	x26,x21,x1
    a2e4:	00100f93          	li	x31,1
    a2e8:	01fd0023          	sb	x31,0(x26)
    a2ec:	000caf03          	lw	x30,0(x25)
    a2f0:	00700293          	li	x5,7
    a2f4:	265f0263          	beq	x30,x5,a558 <.L1931>

0000a2f8 <.L1886>:
    a2f8:	00100e93          	li	x29,1
    a2fc:	0100006f          	j	a30c <.L1891>

0000a300 <.L1932>:
    a300:	000b8893          	mv	x17,x23
    a304:	1408a62f          	lr.w.aq	x12,(x17)
    a308:	01d60a63          	beq	x12,x29,a31c <.L1890>

0000a30c <.L1891>:
    a30c:	00000bb7          	lui	x23,0x0
    a310:	000b8313          	mv	x6,x23
    a314:	10032e2f          	lr.w	x28,(x6)
    a318:	ffde14e3          	bne	x28,x29,a300 <.L1932>

0000a31c <.L1890>:
    a31c:	13c12083          	lw	x1,316(x2)
    a320:	13812403          	lw	x8,312(x2)
    a324:	000c2023          	sw	x0,0(x24)
    a328:	13412483          	lw	x9,308(x2)
    a32c:	13012903          	lw	x18,304(x2)
    a330:	12c12983          	lw	x19,300(x2)
    a334:	12812a03          	lw	x20,296(x2)
    a338:	12412a83          	lw	x21,292(x2)
    a33c:	12012b03          	lw	x22,288(x2)
    a340:	11c12b83          	lw	x23,284(x2)
    a344:	11812c03          	lw	x24,280(x2)
    a348:	11412c83          	lw	x25,276(x2)
    a34c:	11012d03          	lw	x26,272(x2)
    a350:	10c12d83          	lw	x27,268(x2)
    a354:	00000513          	li	x10,0
    a358:	14010113          	addi	x2,x2,320
    a35c:	00008067          	ret

0000a360 <.L1921>:
    a360:	000000b7          	lui	x1,0x0
    a364:	000002b7          	lui	x5,0x0
    a368:	00008593          	mv	x11,x1
    a36c:	06f00613          	li	x12,111
    a370:	00028513          	mv	x10,x5
    a374:	00000097          	auipc	x1,0x0
    a378:	000080e7          	jalr	x1 # a374 <.L1921+0x14>
    a37c:	08c12583          	lw	x11,140(x2)
    a380:	000003b7          	lui	x7,0x0
    a384:	00038513          	mv	x10,x7
    a388:	00000097          	auipc	x1,0x0
    a38c:	000080e7          	jalr	x1 # a388 <.L1921+0x28>
    a390:	00000db7          	lui	x27,0x0
    a394:	000da803          	lw	x16,0(x27) # 0 <_Z21hb_tiled_foreach_implIfZL26convolution_backward_inputP11hb_tensor_tS1_S1_P11hb_vector_tS3_EUlvE_JEEvjjT0_8HBTensorIT_Lln1EEPS7_.isra.0>
    a398:	00000537          	lui	x10,0x0
    a39c:	00052583          	lw	x11,0(x10) # 0 <_Z21hb_tiled_foreach_implIfZL26convolution_backward_inputP11hb_tensor_tS1_S1_P11hb_vector_tS3_EUlvE_JEEvjjT0_8HBTensorIT_Lln1EEPS7_.isra.0>
    a3a0:	01081793          	slli	x15,x16,0x10
    a3a4:	4100fbb7          	lui	x23,0x4100f
    a3a8:	00b78eb3          	add	x29,x15,x11
    a3ac:	addbac23          	sw	x29,-1320(x23) # 4100ead8 <.L2120+0x410010fc>

0000a3b0 <.L1829>:
    a3b0:	0000006f          	j	a3b0 <.L1829>

0000a3b4 <.L1920>:
    a3b4:	00000337          	lui	x6,0x0
    a3b8:	00000e37          	lui	x28,0x0
    a3bc:	06f00613          	li	x12,111
    a3c0:	00030593          	mv	x11,x6
    a3c4:	000e0513          	mv	x10,x28
    a3c8:	00000097          	auipc	x1,0x0
    a3cc:	000080e7          	jalr	x1 # a3c8 <.L1920+0x14>
    a3d0:	08c12583          	lw	x11,140(x2)
    a3d4:	000008b7          	lui	x17,0x0
    a3d8:	00088513          	mv	x10,x17
    a3dc:	00000097          	auipc	x1,0x0
    a3e0:	000080e7          	jalr	x1 # a3dc <.L1920+0x28>
    a3e4:	00000637          	lui	x12,0x0
    a3e8:	00062c03          	lw	x24,0(x12) # 0 <_Z21hb_tiled_foreach_implIfZL26convolution_backward_inputP11hb_tensor_tS1_S1_P11hb_vector_tS3_EUlvE_JEEvjjT0_8HBTensorIT_Lln1EEPS7_.isra.0>
    a3ec:	000006b7          	lui	x13,0x0
    a3f0:	0006ab03          	lw	x22,0(x13) # 0 <_Z21hb_tiled_foreach_implIfZL26convolution_backward_inputP11hb_tensor_tS1_S1_P11hb_vector_tS3_EUlvE_JEEvjjT0_8HBTensorIT_Lln1EEPS7_.isra.0>
    a3f4:	010c1713          	slli	x14,x24,0x10
    a3f8:	4100f437          	lui	x8,0x4100f
    a3fc:	01670cb3          	add	x25,x14,x22
    a400:	ad942c23          	sw	x25,-1320(x8) # 4100ead8 <.L2120+0x410010fc>

0000a404 <.L1827>:
    a404:	0000006f          	j	a404 <.L1827>

0000a408 <.L1924>:
    a408:	000000b7          	lui	x1,0x0
    a40c:	00000fb7          	lui	x31,0x0
    a410:	00008593          	mv	x11,x1
    a414:	06f00613          	li	x12,111
    a418:	000f8513          	mv	x10,x31
    a41c:	00000097          	auipc	x1,0x0
    a420:	000080e7          	jalr	x1 # a41c <.L1924+0x14>
    a424:	05012583          	lw	x11,80(x2)
    a428:	00000f37          	lui	x30,0x0
    a42c:	000f0513          	mv	x10,x30
    a430:	00000097          	auipc	x1,0x0
    a434:	000080e7          	jalr	x1 # a430 <.L1924+0x28>
    a438:	000002b7          	lui	x5,0x0
    a43c:	0002a383          	lw	x7,0(x5) # 0 <_Z21hb_tiled_foreach_implIfZL26convolution_backward_inputP11hb_tensor_tS1_S1_P11hb_vector_tS3_EUlvE_JEEvjjT0_8HBTensorIT_Lln1EEPS7_.isra.0>
    a440:	00000db7          	lui	x27,0x0
    a444:	000da803          	lw	x16,0(x27) # 0 <_Z21hb_tiled_foreach_implIfZL26convolution_backward_inputP11hb_tensor_tS1_S1_P11hb_vector_tS3_EUlvE_JEEvjjT0_8HBTensorIT_Lln1EEPS7_.isra.0>
    a448:	01039513          	slli	x10,x7,0x10
    a44c:	4100f7b7          	lui	x15,0x4100f
    a450:	010505b3          	add	x11,x10,x16
    a454:	acb7ac23          	sw	x11,-1320(x15) # 4100ead8 <.L2120+0x410010fc>

0000a458 <.L1835>:
    a458:	0000006f          	j	a458 <.L1835>

0000a45c <.L1922>:
    a45c:	00000cb7          	lui	x25,0x0
    a460:	00000437          	lui	x8,0x0
    a464:	06f00613          	li	x12,111
    a468:	000c8593          	mv	x11,x25
    a46c:	00040513          	mv	x10,x8
    a470:	00000097          	auipc	x1,0x0
    a474:	000080e7          	jalr	x1 # a470 <.L1922+0x14>
    a478:	08c12583          	lw	x11,140(x2)
    a47c:	000004b7          	lui	x9,0x0
    a480:	00048513          	mv	x10,x9
    a484:	00000937          	lui	x18,0x0
    a488:	00000097          	auipc	x1,0x0
    a48c:	000080e7          	jalr	x1 # a488 <.L1922+0x2c>
    a490:	00000a37          	lui	x20,0x0
    a494:	00092983          	lw	x19,0(x18) # 0 <_Z21hb_tiled_foreach_implIfZL26convolution_backward_inputP11hb_tensor_tS1_S1_P11hb_vector_tS3_EUlvE_JEEvjjT0_8HBTensorIT_Lln1EEPS7_.isra.0>
    a498:	000a2a83          	lw	x21,0(x20) # 0 <_Z21hb_tiled_foreach_implIfZL26convolution_backward_inputP11hb_tensor_tS1_S1_P11hb_vector_tS3_EUlvE_JEEvjjT0_8HBTensorIT_Lln1EEPS7_.isra.0>
    a49c:	4100ff37          	lui	x30,0x4100f
    a4a0:	01099d13          	slli	x26,x19,0x10
    a4a4:	015d0fb3          	add	x31,x26,x21
    a4a8:	adff2c23          	sw	x31,-1320(x30) # 4100ead8 <.L2120+0x410010fc>

0000a4ac <.L1831>:
    a4ac:	0000006f          	j	a4ac <.L1831>

0000a4b0 <.L1923>:
    a4b0:	00000eb7          	lui	x29,0x0
    a4b4:	00000bb7          	lui	x23,0x0
    a4b8:	06f00613          	li	x12,111
    a4bc:	000e8593          	mv	x11,x29
    a4c0:	000b8513          	mv	x10,x23
    a4c4:	00000097          	auipc	x1,0x0
    a4c8:	000080e7          	jalr	x1 # a4c4 <.L1923+0x14>
    a4cc:	08c12583          	lw	x11,140(x2)
    a4d0:	00000337          	lui	x6,0x0
    a4d4:	00030513          	mv	x10,x6
    a4d8:	00000097          	auipc	x1,0x0
    a4dc:	000080e7          	jalr	x1 # a4d8 <.L1923+0x28>
    a4e0:	00000e37          	lui	x28,0x0
    a4e4:	000e2883          	lw	x17,0(x28) # 0 <_Z21hb_tiled_foreach_implIfZL26convolution_backward_inputP11hb_tensor_tS1_S1_P11hb_vector_tS3_EUlvE_JEEvjjT0_8HBTensorIT_Lln1EEPS7_.isra.0>
    a4e8:	00000637          	lui	x12,0x0
    a4ec:	00062c03          	lw	x24,0(x12) # 0 <_Z21hb_tiled_foreach_implIfZL26convolution_backward_inputP11hb_tensor_tS1_S1_P11hb_vector_tS3_EUlvE_JEEvjjT0_8HBTensorIT_Lln1EEPS7_.isra.0>
    a4f0:	01089693          	slli	x13,x17,0x10
    a4f4:	4100f737          	lui	x14,0x4100f
    a4f8:	01868b33          	add	x22,x13,x24
    a4fc:	ad672c23          	sw	x22,-1320(x14) # 4100ead8 <.L2120+0x410010fc>

0000a500 <.L1833>:
    a500:	0000006f          	j	a500 <.L1833>

0000a504 <.L1927>:
    a504:	000000b7          	lui	x1,0x0
    a508:	00000ab7          	lui	x21,0x0
    a50c:	06f00613          	li	x12,111
    a510:	000a8593          	mv	x11,x21
    a514:	00008513          	mv	x10,x1
    a518:	00000097          	auipc	x1,0x0
    a51c:	000080e7          	jalr	x1 # a518 <.L1927+0x14>
    a520:	0c812583          	lw	x11,200(x2)
    a524:	00000d37          	lui	x26,0x0
    a528:	000d0513          	mv	x10,x26
    a52c:	00000097          	auipc	x1,0x0
    a530:	000080e7          	jalr	x1 # a52c <.L1927+0x28>
    a534:	00000fb7          	lui	x31,0x0
    a538:	000faf03          	lw	x30,0(x31) # 0 <_Z21hb_tiled_foreach_implIfZL26convolution_backward_inputP11hb_tensor_tS1_S1_P11hb_vector_tS3_EUlvE_JEEvjjT0_8HBTensorIT_Lln1EEPS7_.isra.0>
    a53c:	000002b7          	lui	x5,0x0
    a540:	0002a383          	lw	x7,0(x5) # 0 <_Z21hb_tiled_foreach_implIfZL26convolution_backward_inputP11hb_tensor_tS1_S1_P11hb_vector_tS3_EUlvE_JEEvjjT0_8HBTensorIT_Lln1EEPS7_.isra.0>
    a544:	010f1d93          	slli	x27,x30,0x10
    a548:	4100f537          	lui	x10,0x4100f
    a54c:	007d8833          	add	x16,x27,x7
    a550:	ad052c23          	sw	x16,-1320(x10) # 4100ead8 <.L2120+0x410010fc>

0000a554 <.L1841>:
    a554:	0000006f          	j	a554 <.L1841>

0000a558 <.L1931>:
    a558:	00000837          	lui	x16,0x0
    a55c:	000003b7          	lui	x7,0x0
    a560:	00480593          	addi	x11,x16,4 # 4 <_Z21hb_tiled_foreach_implIfZL26convolution_backward_inputP11hb_tensor_tS1_S1_P11hb_vector_tS3_EUlvE_JEEvjjT0_8HBTensorIT_Lln1EEPS7_.isra.0+0x4>
    a564:	01438693          	addi	x13,x7,20 # 14 <.L8>

0000a568 <.L1863>:
    a568:	00058793          	mv	x15,x11

0000a56c <.L1879>:
    a56c:	0007c503          	lbu	x10,0(x15)
    a570:	00178793          	addi	x15,x15,1
    a574:	0ff57d93          	andi	x27,x10,255
    a578:	fe0d88e3          	beqz	x27,a568 <.L1863>
    a57c:	fef698e3          	bne	x13,x15,a56c <.L1879>
    a580:	00000eb7          	lui	x29,0x0
    a584:	000eab83          	lw	x23,0(x29) # 0 <_Z21hb_tiled_foreach_implIfZL26convolution_backward_inputP11hb_tensor_tS1_S1_P11hb_vector_tS3_EUlvE_JEEvjjT0_8HBTensorIT_Lln1EEPS7_.isra.0>
    a588:	231c08b7          	lui	x17,0x231c0
    a58c:	00100713          	li	x14,1
    a590:	018b8313          	addi	x6,x23,24 # 18 <.L8+0x4>
    a594:	006c0e33          	add	x28,x24,x6
    a598:	011e6633          	or	x12,x28,x17
    a59c:	00e60023          	sb	x14,0(x12)
    a5a0:	00000b37          	lui	x22,0x0
    a5a4:	000b2c83          	lw	x25,0(x22) # 0 <_Z21hb_tiled_foreach_implIfZL26convolution_backward_inputP11hb_tensor_tS1_S1_P11hb_vector_tS3_EUlvE_JEEvjjT0_8HBTensorIT_Lln1EEPS7_.isra.0>
    a5a8:	00700413          	li	x8,7
    a5ac:	d48c96e3          	bne	x25,x8,a2f8 <.L1886>
    a5b0:	000004b7          	lui	x9,0x0
    a5b4:	0004a903          	lw	x18,0(x9) # 0 <_Z21hb_tiled_foreach_implIfZL26convolution_backward_inputP11hb_tensor_tS1_S1_P11hb_vector_tS3_EUlvE_JEEvjjT0_8HBTensorIT_Lln1EEPS7_.isra.0>
    a5b8:	00300993          	li	x19,3
    a5bc:	23390263          	beq	x18,x19,a7e0 <.L1933>

0000a5c0 <.L1885>:
    a5c0:	00100b13          	li	x22,1
    a5c4:	0100006f          	j	a5d4 <.L1881>

0000a5c8 <.L1934>:
    a5c8:	014c0493          	addi	x9,x24,20
    a5cc:	1404a92f          	lr.w.aq	x18,(x9)
    a5d0:	01690863          	beq	x18,x22,a5e0 <.L1887>

0000a5d4 <.L1881>:
    a5d4:	014c0c93          	addi	x25,x24,20
    a5d8:	100ca42f          	lr.w	x8,(x25)
    a5dc:	ff6416e3          	bne	x8,x22,a5c8 <.L1934>

0000a5e0 <.L1887>:
    a5e0:	000c2a23          	sw	x0,20(x24)
    a5e4:	00000a93          	li	x21,0
    a5e8:	01000993          	li	x19,16

0000a5ec <.L1888>:
    a5ec:	015c0a33          	add	x20,x24,x21
    a5f0:	000a0223          	sb	x0,4(x20)
    a5f4:	001a8a93          	addi	x21,x21,1 # 1 <_Z21hb_tiled_foreach_implIfZL26convolution_backward_inputP11hb_tensor_tS1_S1_P11hb_vector_tS3_EUlvE_JEEvjjT0_8HBTensorIT_Lln1EEPS7_.isra.0+0x1>
    a5f8:	ff3a9ae3          	bne	x21,x19,a5ec <.L1888>
    a5fc:	000c2023          	sw	x0,0(x24)
    a600:	00000813          	li	x16,0
    a604:	200000b7          	lui	x1,0x20000
    a608:	00100d13          	li	x26,1
    a60c:	00040fb7          	lui	x31,0x40
    a610:	00400f37          	lui	x30,0x400

0000a614 <.L1889>:
    a614:	000002b7          	lui	x5,0x0
    a618:	0002a383          	lw	x7,0(x5) # 0 <_Z21hb_tiled_foreach_implIfZL26convolution_backward_inputP11hb_tensor_tS1_S1_P11hb_vector_tS3_EUlvE_JEEvjjT0_8HBTensorIT_Lln1EEPS7_.isra.0>
    a61c:	010c6db3          	or	x27,x24,x16
    a620:	01f80833          	add	x16,x16,x31
    a624:	01839513          	slli	x10,x7,0x18
    a628:	01b565b3          	or	x11,x10,x27
    a62c:	0015e7b3          	or	x15,x11,x1
    a630:	01a7a023          	sw	x26,0(x15)
    a634:	ffe810e3          	bne	x16,x30,a614 <.L1889>
    a638:	cc1ff06f          	j	a2f8 <.L1886>

0000a63c <.L1929>:
    a63c:	00000eb7          	lui	x29,0x0
    a640:	00000fb7          	lui	x31,0x0
    a644:	004e8f13          	addi	x30,x29,4 # 4 <_Z21hb_tiled_foreach_implIfZL26convolution_backward_inputP11hb_tensor_tS1_S1_P11hb_vector_tS3_EUlvE_JEEvjjT0_8HBTensorIT_Lln1EEPS7_.isra.0+0x4>
    a648:	014f8093          	addi	x1,x31,20 # 14 <.L8>

0000a64c <.L1847>:
    a64c:	000f0593          	mv	x11,x30

0000a650 <.L1849>:
    a650:	0005c283          	lbu	x5,0(x11)
    a654:	00158593          	addi	x11,x11,1
    a658:	0ff2f313          	andi	x6,x5,255
    a65c:	fe0308e3          	beqz	x6,a64c <.L1847>
    a660:	feb098e3          	bne	x1,x11,a650 <.L1849>
    a664:	000003b7          	lui	x7,0x0
    a668:	0003a603          	lw	x12,0(x7) # 0 <_Z21hb_tiled_foreach_implIfZL26convolution_backward_inputP11hb_tensor_tS1_S1_P11hb_vector_tS3_EUlvE_JEEvjjT0_8HBTensorIT_Lln1EEPS7_.isra.0>
    a66c:	231c06b7          	lui	x13,0x231c0
    a670:	00100513          	li	x10,1
    a674:	01860813          	addi	x16,x12,24
    a678:	010c07b3          	add	x15,x24,x16
    a67c:	00d7e8b3          	or	x17,x15,x13
    a680:	00a88023          	sb	x10,0(x17) # 231c0000 <.L2120+0x231b2624>
    a684:	00000b37          	lui	x22,0x0
    a688:	000b2683          	lw	x13,0(x22) # 0 <_Z21hb_tiled_foreach_implIfZL26convolution_backward_inputP11hb_tensor_tS1_S1_P11hb_vector_tS3_EUlvE_JEEvjjT0_8HBTensorIT_Lln1EEPS7_.isra.0>
    a68c:	00700c93          	li	x25,7
    a690:	02d12a23          	sw	x13,52(x2)
    a694:	9b969ce3          	bne	x13,x25,a04c <.L1856>
    a698:	00000d37          	lui	x26,0x0
    a69c:	000d2d83          	lw	x27,0(x26) # 0 <_Z21hb_tiled_foreach_implIfZL26convolution_backward_inputP11hb_tensor_tS1_S1_P11hb_vector_tS3_EUlvE_JEEvjjT0_8HBTensorIT_Lln1EEPS7_.isra.0>
    a6a0:	00300713          	li	x14,3
    a6a4:	08ed8663          	beq	x27,x14,a730 <.L1935>

0000a6a8 <.L1855>:
    a6a8:	00100f93          	li	x31,1
    a6ac:	0100006f          	j	a6bc <.L1851>

0000a6b0 <.L1936>:
    a6b0:	014c0313          	addi	x6,x24,20
    a6b4:	140323af          	lr.w.aq	x7,(x6)
    a6b8:	01f38863          	beq	x7,x31,a6c8 <.L1857>

0000a6bc <.L1851>:
    a6bc:	014c0293          	addi	x5,x24,20
    a6c0:	1002a5af          	lr.w	x11,(x5)
    a6c4:	fff596e3          	bne	x11,x31,a6b0 <.L1936>

0000a6c8 <.L1857>:
    a6c8:	000c2a23          	sw	x0,20(x24)
    a6cc:	00000793          	li	x15,0
    a6d0:	01000613          	li	x12,16

0000a6d4 <.L1858>:
    a6d4:	00fc08b3          	add	x17,x24,x15
    a6d8:	00088223          	sb	x0,4(x17)
    a6dc:	00178793          	addi	x15,x15,1
    a6e0:	fec79ae3          	bne	x15,x12,a6d4 <.L1858>
    a6e4:	000c2023          	sw	x0,0(x24)
    a6e8:	00000693          	li	x13,0
    a6ec:	20000537          	lui	x10,0x20000
    a6f0:	00100b13          	li	x22,1
    a6f4:	00040bb7          	lui	x23,0x40
    a6f8:	00400cb7          	lui	x25,0x400

0000a6fc <.L1859>:
    a6fc:	00000837          	lui	x16,0x0
    a700:	00082d03          	lw	x26,0(x16) # 0 <_Z21hb_tiled_foreach_implIfZL26convolution_backward_inputP11hb_tensor_tS1_S1_P11hb_vector_tS3_EUlvE_JEEvjjT0_8HBTensorIT_Lln1EEPS7_.isra.0>
    a704:	00dc6db3          	or	x27,x24,x13
    a708:	017686b3          	add	x13,x13,x23
    a70c:	018d1e13          	slli	x28,x26,0x18
    a710:	01be60b3          	or	x1,x28,x27
    a714:	00a0e733          	or	x14,x1,x10
    a718:	01672023          	sw	x22,0(x14)
    a71c:	ff9690e3          	bne	x13,x25,a6fc <.L1859>
    a720:	00000eb7          	lui	x29,0x0
    a724:	000eaf03          	lw	x30,0(x29) # 0 <_Z21hb_tiled_foreach_implIfZL26convolution_backward_inputP11hb_tensor_tS1_S1_P11hb_vector_tS3_EUlvE_JEEvjjT0_8HBTensorIT_Lln1EEPS7_.isra.0>
    a728:	03e12a23          	sw	x30,52(x2)
    a72c:	921ff06f          	j	a04c <.L1856>

0000a730 <.L1935>:
    a730:	00000e37          	lui	x28,0x0
    a734:	00000f37          	lui	x30,0x0
    a738:	018e0e93          	addi	x29,x28,24 # 18 <.L8+0x4>
    a73c:	020f0f93          	addi	x31,x30,32 # 20 <.L8+0xc>

0000a740 <.L1850>:
    a740:	000e8593          	mv	x11,x29

0000a744 <.L1852>:
    a744:	0005c283          	lbu	x5,0(x11)
    a748:	00158593          	addi	x11,x11,1
    a74c:	0ff2f313          	andi	x6,x5,255
    a750:	fe0308e3          	beqz	x6,a740 <.L1850>
    a754:	febf98e3          	bne	x31,x11,a744 <.L1852>
    a758:	000c0c23          	sb	x0,24(x24)
    a75c:	000c0ca3          	sb	x0,25(x24)
    a760:	000c0d23          	sb	x0,26(x24)
    a764:	000c0da3          	sb	x0,27(x24)
    a768:	000c0e23          	sb	x0,28(x24)
    a76c:	000c0ea3          	sb	x0,29(x24)
    a770:	000c0f23          	sb	x0,30(x24)
    a774:	000c0fa3          	sb	x0,31(x24)
    a778:	000c2a23          	sw	x0,20(x24)
    a77c:	00000693          	li	x13,0
    a780:	03fc03b7          	lui	x7,0x3fc0
    a784:	200007b7          	lui	x15,0x20000
    a788:	00100613          	li	x12,1
    a78c:	010008b7          	lui	x17,0x1000
    a790:	08000537          	lui	x10,0x8000
    a794:	0100006f          	j	a7a4 <.L1854>

0000a798 <.L1937>:
    a798:	00000737          	lui	x14,0x0
    a79c:	00072e03          	lw	x28,0(x14) # 0 <_Z21hb_tiled_foreach_implIfZL26convolution_backward_inputP11hb_tensor_tS1_S1_P11hb_vector_tS3_EUlvE_JEEvjjT0_8HBTensorIT_Lln1EEPS7_.isra.0>
    a7a0:	03c12a23          	sw	x28,52(x2)

0000a7a4 <.L1854>:
    a7a4:	03412803          	lw	x16,52(x2)
    a7a8:	00d0ebb3          	or	x23,x1,x13
    a7ac:	011686b3          	add	x13,x13,x17
    a7b0:	01281b13          	slli	x22,x16,0x12
    a7b4:	007b7cb3          	and	x25,x22,x7
    a7b8:	017ced33          	or	x26,x25,x23
    a7bc:	00fd6db3          	or	x27,x26,x15
    a7c0:	00cda023          	sw	x12,0(x27)
    a7c4:	fca69ae3          	bne	x13,x10,a798 <.L1937>
    a7c8:	000000b7          	lui	x1,0x0
    a7cc:	0000a703          	lw	x14,0(x1) # 0 <_Z21hb_tiled_foreach_implIfZL26convolution_backward_inputP11hb_tensor_tS1_S1_P11hb_vector_tS3_EUlvE_JEEvjjT0_8HBTensorIT_Lln1EEPS7_.isra.0>
    a7d0:	00700f13          	li	x30,7
    a7d4:	02e12a23          	sw	x14,52(x2)
    a7d8:	ede708e3          	beq	x14,x30,a6a8 <.L1855>
    a7dc:	871ff06f          	j	a04c <.L1856>

0000a7e0 <.L1933>:
    a7e0:	00000a37          	lui	x20,0x0
    a7e4:	000000b7          	lui	x1,0x0
    a7e8:	018a0a93          	addi	x21,x20,24 # 18 <.L8+0x4>
    a7ec:	02008d13          	addi	x26,x1,32 # 20 <.L8+0xc>

0000a7f0 <.L1880>:
    a7f0:	000a8f13          	mv	x30,x21

0000a7f4 <.L1882>:
    a7f4:	000f4f83          	lbu	x31,0(x30)
    a7f8:	001f0f13          	addi	x30,x30,1
    a7fc:	0ffff293          	andi	x5,x31,255
    a800:	fe0288e3          	beqz	x5,a7f0 <.L1880>
    a804:	ffed18e3          	bne	x26,x30,a7f4 <.L1882>
    a808:	000c0c23          	sb	x0,24(x24)
    a80c:	000c0ca3          	sb	x0,25(x24)
    a810:	000c0d23          	sb	x0,26(x24)
    a814:	000c0da3          	sb	x0,27(x24)
    a818:	000c0e23          	sb	x0,28(x24)
    a81c:	000c0ea3          	sb	x0,29(x24)
    a820:	000c0f23          	sb	x0,30(x24)
    a824:	000c0fa3          	sb	x0,31(x24)
    a828:	000c2a23          	sw	x0,20(x24)
    a82c:	00000893          	li	x17,0
    a830:	03fc03b7          	lui	x7,0x3fc0
    a834:	20000db7          	lui	x27,0x20000
    a838:	00100813          	li	x16,1
    a83c:	01000537          	lui	x10,0x1000
    a840:	080005b7          	lui	x11,0x8000
    a844:	0080006f          	j	a84c <.L1884>

0000a848 <.L1938>:
    a848:	00062c83          	lw	x25,0(x12)

0000a84c <.L1884>:
    a84c:	012c9793          	slli	x15,x25,0x12
    a850:	0116eeb3          	or	x29,x13,x17
    a854:	0077fbb3          	and	x23,x15,x7
    a858:	01dbe333          	or	x6,x23,x29
    a85c:	01b36e33          	or	x28,x6,x27
    a860:	010e2023          	sw	x16,0(x28)
    a864:	00a888b3          	add	x17,x17,x10
    a868:	00000637          	lui	x12,0x0
    a86c:	fcb89ee3          	bne	x17,x11,a848 <.L1938>
    a870:	00062683          	lw	x13,0(x12) # 0 <_Z21hb_tiled_foreach_implIfZL26convolution_backward_inputP11hb_tensor_tS1_S1_P11hb_vector_tS3_EUlvE_JEEvjjT0_8HBTensorIT_Lln1EEPS7_.isra.0>
    a874:	00700713          	li	x14,7
    a878:	d4e684e3          	beq	x13,x14,a5c0 <.L1885>
    a87c:	a7dff06f          	j	a2f8 <.L1886>

0000a880 <.L1925>:
    a880:	00000737          	lui	x14,0x0
    a884:	00000b37          	lui	x22,0x0
    a888:	00070593          	mv	x11,x14
    a88c:	06f00613          	li	x12,111
    a890:	000b0513          	mv	x10,x22
    a894:	00000097          	auipc	x1,0x0
    a898:	000080e7          	jalr	x1 # a894 <.L1925+0x14>
    a89c:	05012583          	lw	x11,80(x2)
    a8a0:	00000cb7          	lui	x25,0x0
    a8a4:	000c8513          	mv	x10,x25
    a8a8:	00000437          	lui	x8,0x0
    a8ac:	00000097          	auipc	x1,0x0
    a8b0:	000080e7          	jalr	x1 # a8ac <.L1925+0x2c>
    a8b4:	00000937          	lui	x18,0x0
    a8b8:	00042483          	lw	x9,0(x8) # 0 <_Z21hb_tiled_foreach_implIfZL26convolution_backward_inputP11hb_tensor_tS1_S1_P11hb_vector_tS3_EUlvE_JEEvjjT0_8HBTensorIT_Lln1EEPS7_.isra.0>
    a8bc:	00092983          	lw	x19,0(x18) # 0 <_Z21hb_tiled_foreach_implIfZL26convolution_backward_inputP11hb_tensor_tS1_S1_P11hb_vector_tS3_EUlvE_JEEvjjT0_8HBTensorIT_Lln1EEPS7_.isra.0>
    a8c0:	4100fd37          	lui	x26,0x4100f
    a8c4:	01049a13          	slli	x20,x9,0x10
    a8c8:	013a0ab3          	add	x21,x20,x19
    a8cc:	ad5d2c23          	sw	x21,-1320(x26) # 4100ead8 <.L2120+0x410010fc>

0000a8d0 <.L1837>:
    a8d0:	0000006f          	j	a8d0 <.L1837>

0000a8d4 <.L1926>:
    a8d4:	000007b7          	lui	x15,0x0
    a8d8:	000005b7          	lui	x11,0x0
    a8dc:	06f00613          	li	x12,111
    a8e0:	00058593          	mv	x11,x11
    a8e4:	00078513          	mv	x10,x15
    a8e8:	00000097          	auipc	x1,0x0
    a8ec:	000080e7          	jalr	x1 # a8e8 <.L1926+0x14>
    a8f0:	05012583          	lw	x11,80(x2)
    a8f4:	00000eb7          	lui	x29,0x0
    a8f8:	000e8513          	mv	x10,x29
    a8fc:	00000097          	auipc	x1,0x0
    a900:	000080e7          	jalr	x1 # a8fc <.L1926+0x28>
    a904:	00000bb7          	lui	x23,0x0
    a908:	000ba303          	lw	x6,0(x23) # 0 <_Z21hb_tiled_foreach_implIfZL26convolution_backward_inputP11hb_tensor_tS1_S1_P11hb_vector_tS3_EUlvE_JEEvjjT0_8HBTensorIT_Lln1EEPS7_.isra.0>
    a90c:	00000e37          	lui	x28,0x0
    a910:	000e2883          	lw	x17,0(x28) # 0 <_Z21hb_tiled_foreach_implIfZL26convolution_backward_inputP11hb_tensor_tS1_S1_P11hb_vector_tS3_EUlvE_JEEvjjT0_8HBTensorIT_Lln1EEPS7_.isra.0>
    a914:	01031613          	slli	x12,x6,0x10
    a918:	4100f6b7          	lui	x13,0x4100f
    a91c:	01160c33          	add	x24,x12,x17
    a920:	ad86ac23          	sw	x24,-1320(x13) # 4100ead8 <.L2120+0x410010fc>

0000a924 <.L1839>:
    a924:	0000006f          	j	a924 <.L1839>

0000a928 <.L1928>:
    a928:	000006b7          	lui	x13,0x0
    a92c:	00000c37          	lui	x24,0x0
    a930:	06f00613          	li	x12,111
    a934:	000c0593          	mv	x11,x24
    a938:	00068513          	mv	x10,x13
    a93c:	00000097          	auipc	x1,0x0
    a940:	000080e7          	jalr	x1 # a93c <.L1928+0x14>
    a944:	0c812583          	lw	x11,200(x2)
    a948:	00000737          	lui	x14,0x0
    a94c:	00070513          	mv	x10,x14
    a950:	00000b37          	lui	x22,0x0
    a954:	00000097          	auipc	x1,0x0
    a958:	000080e7          	jalr	x1 # a954 <.L1928+0x2c>
    a95c:	00000437          	lui	x8,0x0
    a960:	000b2c83          	lw	x25,0(x22) # 0 <_Z21hb_tiled_foreach_implIfZL26convolution_backward_inputP11hb_tensor_tS1_S1_P11hb_vector_tS3_EUlvE_JEEvjjT0_8HBTensorIT_Lln1EEPS7_.isra.0>
    a964:	00042483          	lw	x9,0(x8) # 0 <_Z21hb_tiled_foreach_implIfZL26convolution_backward_inputP11hb_tensor_tS1_S1_P11hb_vector_tS3_EUlvE_JEEvjjT0_8HBTensorIT_Lln1EEPS7_.isra.0>
    a968:	4100fa37          	lui	x20,0x4100f
    a96c:	010c9913          	slli	x18,x25,0x10
    a970:	009909b3          	add	x19,x18,x9
    a974:	ad3a2c23          	sw	x19,-1320(x20) # 4100ead8 <.L2120+0x410010fc>

0000a978 <.L1843>:
    a978:	0000006f          	j	a978 <.L1843>

0000a97c <.L1895>:
    a97c:	00000593          	li	x11,0
    a980:	00000513          	li	x10,0
    a984:	e78ff06f          	j	9ffc <.L1844>

0000a988 <tensorlib_convolution_backward_weight>:
    a988:	f1010113          	addi	x2,x2,-240
    a98c:	0e912223          	sw	x9,228(x2)
    a990:	00050493          	mv	x9,x10
    a994:	01410513          	addi	x10,x2,20
    a998:	0e112623          	sw	x1,236(x2)
    a99c:	0e812423          	sw	x8,232(x2)
    a9a0:	0f212023          	sw	x18,224(x2)
    a9a4:	00060413          	mv	x8,x12
    a9a8:	0d312e23          	sw	x19,220(x2)
    a9ac:	0d412c23          	sw	x20,216(x2)
    a9b0:	00070993          	mv	x19,x14
    a9b4:	00068a13          	mv	x20,x13
    a9b8:	00058913          	mv	x18,x11
    a9bc:	0d512a23          	sw	x21,212(x2)
    a9c0:	0d612823          	sw	x22,208(x2)
    a9c4:	0d712623          	sw	x23,204(x2)
    a9c8:	0d812423          	sw	x24,200(x2)
    a9cc:	0d912223          	sw	x25,196(x2)
    a9d0:	0da12023          	sw	x26,192(x2)
    a9d4:	0bb12e23          	sw	x27,188(x2)
    a9d8:	00000097          	auipc	x1,0x0
    a9dc:	000080e7          	jalr	x1 # a9d8 <tensorlib_convolution_backward_weight+0x50>
    a9e0:	00040593          	mv	x11,x8
    a9e4:	04810513          	addi	x10,x2,72
    a9e8:	00000097          	auipc	x1,0x0
    a9ec:	000080e7          	jalr	x1 # a9e8 <tensorlib_convolution_backward_weight+0x60>
    a9f0:	00048593          	mv	x11,x9
    a9f4:	07c10513          	addi	x10,x2,124
    a9f8:	00000097          	auipc	x1,0x0
    a9fc:	000080e7          	jalr	x1 # a9f8 <tensorlib_convolution_backward_weight+0x70>
    aa00:	01812783          	lw	x15,24(x2)
    aa04:	38078e63          	beqz	x15,ada0 <.L2378>
    aa08:	00100713          	li	x14,1
    aa0c:	34f77063          	bgeu	x14,x15,ad4c <.L2379>
    aa10:	00200693          	li	x13,2
    aa14:	42d78a63          	beq	x15,x13,ae48 <.L2380>
    aa18:	00300613          	li	x12,3
    aa1c:	48c78063          	beq	x15,x12,ae9c <.L2381>
    aa20:	04c12083          	lw	x1,76(x2)
    aa24:	3c177863          	bgeu	x14,x1,adf4 <.L2382>
    aa28:	50d08e63          	beq	x1,x13,af44 <.L2383>
    aa2c:	56c08663          	beq	x1,x12,af98 <.L2384>
    aa30:	08012283          	lw	x5,128(x2)
    aa34:	4a56fe63          	bgeu	x13,x5,aef0 <.L2385>
    aa38:	5ac28a63          	beq	x5,x12,afec <.L2386>
    aa3c:	02012383          	lw	x7,32(x2)
    aa40:	05412a83          	lw	x21,84(x2)
    aa44:	004a2b03          	lw	x22,4(x20)
    aa48:	0049ab83          	lw	x23,4(x19)
    aa4c:	08812583          	lw	x11,136(x2)
    aa50:	0003a803          	lw	x16,0(x7) # 3fc0000 <.L2120+0x3fb2624>
    aa54:	00800513          	li	x10,8
    aa58:	0043a883          	lw	x17,4(x7)
    aa5c:	0083a303          	lw	x6,8(x7)
    aa60:	00c3af83          	lw	x31,12(x7)
    aa64:	004aae83          	lw	x29,4(x21)
    aa68:	008aaf03          	lw	x30,8(x21)
    aa6c:	00caac03          	lw	x24,12(x21)
    aa70:	0085ae03          	lw	x28,8(x11) # 8 <_Z21hb_tiled_foreach_implIfZL26convolution_backward_inputP11hb_tensor_tS1_S1_P11hb_vector_tS3_EUlvE_JEEvjjT0_8HBTensorIT_Lln1EEPS7_.isra.0+0x8>
    aa74:	00c5ac83          	lw	x25,12(x11)
    aa78:	000bad03          	lw	x26,0(x23)
    aa7c:	004bad83          	lw	x27,4(x23)
    aa80:	000b2783          	lw	x15,0(x22)
    aa84:	004b2683          	lw	x13,4(x22)
    aa88:	5aa80c63          	beq	x16,x10,b040 <.L2387>

0000aa8c <.L1958>:
    aa8c:	00090593          	mv	x11,x18
    aa90:	01410513          	addi	x10,x2,20
    aa94:	00000097          	auipc	x1,0x0
    aa98:	000080e7          	jalr	x1 # aa94 <.L1958+0x8>
    aa9c:	00040593          	mv	x11,x8
    aaa0:	04810513          	addi	x10,x2,72
    aaa4:	00000097          	auipc	x1,0x0
    aaa8:	000080e7          	jalr	x1 # aaa4 <.L1958+0x18>
    aaac:	00048593          	mv	x11,x9
    aab0:	07c10513          	addi	x10,x2,124
    aab4:	00000097          	auipc	x1,0x0
    aab8:	000080e7          	jalr	x1 # aab4 <.L1958+0x28>
    aabc:	01812a83          	lw	x21,24(x2)
    aac0:	400a88e3          	beqz	x21,b6d0 <.L2388>
    aac4:	00100b13          	li	x22,1
    aac8:	455b7ee3          	bgeu	x22,x21,b724 <.L2389>
    aacc:	00200b93          	li	x23,2
    aad0:	4b7a84e3          	beq	x21,x23,b778 <.L2390>
    aad4:	00300593          	li	x11,3
    aad8:	4eba8ae3          	beq	x21,x11,b7cc <.L2391>
    aadc:	04c12803          	lw	x16,76(x2)
    aae0:	550b70e3          	bgeu	x22,x16,b820 <.L2392>
    aae4:	597808e3          	beq	x16,x23,b874 <.L2393>
    aae8:	5eb800e3          	beq	x16,x11,b8c8 <.L2394>
    aaec:	08012503          	lw	x10,128(x2)
    aaf0:	62abf6e3          	bgeu	x23,x10,b91c <.L2395>
    aaf4:	66b50ee3          	beq	x10,x11,b970 <.L2396>
    aaf8:	02012e83          	lw	x29,32(x2)
    aafc:	05412c03          	lw	x24,84(x2)
    ab00:	004a2883          	lw	x17,4(x20)
    ab04:	0049a303          	lw	x6,4(x19)
    ab08:	08812e03          	lw	x28,136(x2)
    ab0c:	000eac83          	lw	x25,0(x29) # 0 <_Z21hb_tiled_foreach_implIfZL26convolution_backward_inputP11hb_tensor_tS1_S1_P11hb_vector_tS3_EUlvE_JEEvjjT0_8HBTensorIT_Lln1EEPS7_.isra.0>
    ab10:	00800f93          	li	x31,8
    ab14:	004ead03          	lw	x26,4(x29)
    ab18:	008ead83          	lw	x27,8(x29)
    ab1c:	00cea083          	lw	x1,12(x29)
    ab20:	004c2f03          	lw	x30,4(x24) # 4 <_Z21hb_tiled_foreach_implIfZL26convolution_backward_inputP11hb_tensor_tS1_S1_P11hb_vector_tS3_EUlvE_JEEvjjT0_8HBTensorIT_Lln1EEPS7_.isra.0+0x4>
    ab24:	008c2603          	lw	x12,8(x24)
    ab28:	00cc2283          	lw	x5,12(x24)
    ab2c:	008e2683          	lw	x13,8(x28)
    ab30:	00ce2383          	lw	x7,12(x28)
    ab34:	00032703          	lw	x14,0(x6) # 0 <_Z21hb_tiled_foreach_implIfZL26convolution_backward_inputP11hb_tensor_tS1_S1_P11hb_vector_tS3_EUlvE_JEEvjjT0_8HBTensorIT_Lln1EEPS7_.isra.0>
    ab38:	00432a83          	lw	x21,4(x6)
    ab3c:	0008a783          	lw	x15,0(x17) # 1000000 <.L2120+0xff2624>
    ab40:	0048ab03          	lw	x22,4(x17)
    ab44:	69fc80e3          	beq	x25,x31,b9c4 <.L2397>

0000ab48 <.L2022>:
    ab48:	00090593          	mv	x11,x18
    ab4c:	01410513          	addi	x10,x2,20
    ab50:	00000097          	auipc	x1,0x0
    ab54:	000080e7          	jalr	x1 # ab50 <.L2022+0x8>
    ab58:	00040593          	mv	x11,x8
    ab5c:	04810513          	addi	x10,x2,72
    ab60:	00000097          	auipc	x1,0x0
    ab64:	000080e7          	jalr	x1 # ab60 <.L2022+0x18>
    ab68:	00048593          	mv	x11,x9
    ab6c:	07c10513          	addi	x10,x2,124
    ab70:	00000097          	auipc	x1,0x0
    ab74:	000080e7          	jalr	x1 # ab70 <.L2022+0x28>
    ab78:	01812c03          	lw	x24,24(x2)
    ab7c:	000c1463          	bnez	x24,ab84 <.L2022+0x3c>
    ab80:	3400106f          	j	bec0 <.L2398>
    ab84:	00100893          	li	x17,1
    ab88:	0188e463          	bltu	x17,x24,ab90 <.L2022+0x48>
    ab8c:	3880106f          	j	bf14 <.L2399>
    ab90:	00200313          	li	x6,2
    ab94:	006c1463          	bne	x24,x6,ab9c <.L2022+0x54>
    ab98:	2ed0206f          	j	d684 <.L2400>
    ab9c:	00300c93          	li	x25,3
    aba0:	019c1463          	bne	x24,x25,aba8 <.L2022+0x60>
    aba4:	28d0206f          	j	d630 <.L2401>
    aba8:	04c12e03          	lw	x28,76(x2)
    abac:	01c8e463          	bltu	x17,x28,abb4 <.L2022+0x6c>
    abb0:	3290206f          	j	d6d8 <.L2402>
    abb4:	006e1463          	bne	x28,x6,abbc <.L2022+0x74>
    abb8:	1290206f          	j	d4e0 <.L2403>
    abbc:	019e1463          	bne	x28,x25,abc4 <.L2022+0x7c>
    abc0:	1c90206f          	j	d588 <.L2404>
    abc4:	08012f83          	lw	x31,128(x2)
    abc8:	01f36463          	bltu	x6,x31,abd0 <.L2022+0x88>
    abcc:	1690206f          	j	d534 <.L2405>
    abd0:	08812d03          	lw	x26,136(x2)
    abd4:	008d2d83          	lw	x27,8(x26)
    abd8:	019f9463          	bne	x31,x25,abe0 <.L2022+0x98>
    abdc:	2010206f          	j	d5dc <.L2406>
    abe0:	02012083          	lw	x1,32(x2)
    abe4:	05412283          	lw	x5,84(x2)
    abe8:	004a2683          	lw	x13,4(x20)
    abec:	0049aa83          	lw	x21,4(x19)
    abf0:	0000a383          	lw	x7,0(x1)
    abf4:	00800b13          	li	x22,8
    abf8:	0040ab83          	lw	x23,4(x1)
    abfc:	0080a803          	lw	x16,8(x1)
    ac00:	00c0a583          	lw	x11,12(x1)
    ac04:	0042af03          	lw	x30,4(x5)
    ac08:	0082a603          	lw	x12,8(x5)
    ac0c:	00c2ae83          	lw	x29,12(x5)
    ac10:	00cd2703          	lw	x14,12(x26)
    ac14:	000aa783          	lw	x15,0(x21)
    ac18:	004aac03          	lw	x24,4(x21)
    ac1c:	0006a303          	lw	x6,0(x13) # 0 <_Z21hb_tiled_foreach_implIfZL26convolution_backward_inputP11hb_tensor_tS1_S1_P11hb_vector_tS3_EUlvE_JEEvjjT0_8HBTensorIT_Lln1EEPS7_.isra.0>
    ac20:	0046a883          	lw	x17,4(x13)
    ac24:	01639463          	bne	x7,x22,ac2c <.L2085>
    ac28:	5dc0206f          	j	d204 <.L2407>

0000ac2c <.L2085>:
    ac2c:	004a0a13          	addi	x20,x20,4
    ac30:	00498993          	addi	x19,x19,4
    ac34:	00098793          	mv	x15,x19
    ac38:	000a0713          	mv	x14,x20
    ac3c:	00048693          	mv	x13,x9
    ac40:	00040613          	mv	x12,x8
    ac44:	00090593          	mv	x11,x18
    ac48:	07c10513          	addi	x10,x2,124
    ac4c:	00000097          	auipc	x1,0x0
    ac50:	000080e7          	jalr	x1 # ac4c <.L2085+0x20>
    ac54:	07c12f83          	lw	x31,124(x2)
    ac58:	00800d13          	li	x26,8
    ac5c:	01af9463          	bne	x31,x26,ac64 <.L2088>
    ac60:	43d0106f          	j	c89c <.L2408>

0000ac64 <.L2088>:
    ac64:	07c10513          	addi	x10,x2,124
    ac68:	00098793          	mv	x15,x19
    ac6c:	000a0713          	mv	x14,x20
    ac70:	00048693          	mv	x13,x9
    ac74:	00040613          	mv	x12,x8
    ac78:	00090593          	mv	x11,x18
    ac7c:	00000097          	auipc	x1,0x0
    ac80:	000080e7          	jalr	x1 # ac7c <.L2088+0x18>
    ac84:	07c12883          	lw	x17,124(x2)
    ac88:	00800513          	li	x10,8
    ac8c:	00a89463          	bne	x17,x10,ac94 <.L2130>
    ac90:	0f90106f          	j	c588 <.L2409>

0000ac94 <.L2130>:
    ac94:	00098793          	mv	x15,x19
    ac98:	000a0713          	mv	x14,x20
    ac9c:	00048693          	mv	x13,x9
    aca0:	00040613          	mv	x12,x8
    aca4:	00090593          	mv	x11,x18
    aca8:	07c10513          	addi	x10,x2,124
    acac:	00000097          	auipc	x1,0x0
    acb0:	000080e7          	jalr	x1 # acac <.L2130+0x18>
    acb4:	07c12703          	lw	x14,124(x2)
    acb8:	00800793          	li	x15,8
    acbc:	00f71463          	bne	x14,x15,acc4 <.L2175>
    acc0:	6480106f          	j	c308 <.L2410>

0000acc4 <.L2175>:
    acc4:	00090593          	mv	x11,x18
    acc8:	00098793          	mv	x15,x19
    accc:	000a0713          	mv	x14,x20
    acd0:	00048693          	mv	x13,x9
    acd4:	00040613          	mv	x12,x8
    acd8:	07c10513          	addi	x10,x2,124
    acdc:	00000097          	auipc	x1,0x0
    ace0:	000080e7          	jalr	x1 # acdc <.L2175+0x18>
    ace4:	07c12803          	lw	x16,124(x2)
    ace8:	00800593          	li	x11,8
    acec:	00b81463          	bne	x16,x11,acf4 <.L2217>
    acf0:	3a80106f          	j	c098 <.L2411>

0000acf4 <.L2217>:
    acf4:	00098713          	mv	x14,x19
    acf8:	000a0693          	mv	x13,x20
    acfc:	00040613          	mv	x12,x8
    ad00:	00090593          	mv	x11,x18
    ad04:	00048513          	mv	x10,x9
    ad08:	00000097          	auipc	x1,0x0
    ad0c:	000080e7          	jalr	x1 # ad08 <.L2217+0x14>

0000ad10 <.L1939>:
    ad10:	0ec12083          	lw	x1,236(x2)
    ad14:	0e812403          	lw	x8,232(x2)
    ad18:	0e412483          	lw	x9,228(x2)
    ad1c:	0e012903          	lw	x18,224(x2)
    ad20:	0dc12983          	lw	x19,220(x2)
    ad24:	0d812a03          	lw	x20,216(x2)
    ad28:	0d412a83          	lw	x21,212(x2)
    ad2c:	0d012b03          	lw	x22,208(x2)
    ad30:	0cc12b83          	lw	x23,204(x2)
    ad34:	0c812c03          	lw	x24,200(x2)
    ad38:	0c412c83          	lw	x25,196(x2)
    ad3c:	0c012d03          	lw	x26,192(x2)
    ad40:	0bc12d83          	lw	x27,188(x2)
    ad44:	0f010113          	addi	x2,x2,240
    ad48:	00008067          	ret

0000ad4c <.L2379>:
    ad4c:	000000b7          	lui	x1,0x0
    ad50:	000002b7          	lui	x5,0x0
    ad54:	00008593          	mv	x11,x1
    ad58:	06f00613          	li	x12,111
    ad5c:	00028513          	mv	x10,x5
    ad60:	00000097          	auipc	x1,0x0
    ad64:	000080e7          	jalr	x1 # ad60 <.L2379+0x14>
    ad68:	01812583          	lw	x11,24(x2)
    ad6c:	000006b7          	lui	x13,0x0
    ad70:	00068513          	mv	x10,x13
    ad74:	00000097          	auipc	x1,0x0
    ad78:	000080e7          	jalr	x1 # ad74 <.L2379+0x28>
    ad7c:	000008b7          	lui	x17,0x0
    ad80:	0008a383          	lw	x7,0(x17) # 0 <_Z21hb_tiled_foreach_implIfZL26convolution_backward_inputP11hb_tensor_tS1_S1_P11hb_vector_tS3_EUlvE_JEEvjjT0_8HBTensorIT_Lln1EEPS7_.isra.0>
    ad84:	00000537          	lui	x10,0x0
    ad88:	00052583          	lw	x11,0(x10) # 0 <_Z21hb_tiled_foreach_implIfZL26convolution_backward_inputP11hb_tensor_tS1_S1_P11hb_vector_tS3_EUlvE_JEEvjjT0_8HBTensorIT_Lln1EEPS7_.isra.0>
    ad8c:	01039793          	slli	x15,x7,0x10
    ad90:	4100f837          	lui	x16,0x4100f
    ad94:	00b78433          	add	x8,x15,x11
    ad98:	ac882c23          	sw	x8,-1320(x16) # 4100ead8 <.L2120+0x410010fc>

0000ad9c <.L1943>:
    ad9c:	0000006f          	j	ad9c <.L1943>

0000ada0 <.L2378>:
    ada0:	00000f37          	lui	x30,0x0
    ada4:	000004b7          	lui	x9,0x0
    ada8:	06f00613          	li	x12,111
    adac:	00048593          	mv	x11,x9
    adb0:	000f0513          	mv	x10,x30
    adb4:	00000097          	auipc	x1,0x0
    adb8:	000080e7          	jalr	x1 # adb4 <.L2378+0x14>
    adbc:	01812583          	lw	x11,24(x2)
    adc0:	00000637          	lui	x12,0x0
    adc4:	00060513          	mv	x10,x12
    adc8:	00000097          	auipc	x1,0x0
    adcc:	000080e7          	jalr	x1 # adc8 <.L2378+0x28>
    add0:	00000737          	lui	x14,0x0
    add4:	00072903          	lw	x18,0(x14) # 0 <_Z21hb_tiled_foreach_implIfZL26convolution_backward_inputP11hb_tensor_tS1_S1_P11hb_vector_tS3_EUlvE_JEEvjjT0_8HBTensorIT_Lln1EEPS7_.isra.0>
    add8:	00000a37          	lui	x20,0x0
    addc:	000a2e83          	lw	x29,0(x20) # 0 <_Z21hb_tiled_foreach_implIfZL26convolution_backward_inputP11hb_tensor_tS1_S1_P11hb_vector_tS3_EUlvE_JEEvjjT0_8HBTensorIT_Lln1EEPS7_.isra.0>
    ade0:	01091a93          	slli	x21,x18,0x10
    ade4:	4100ffb7          	lui	x31,0x4100f
    ade8:	01da8b33          	add	x22,x21,x29
    adec:	ad6fac23          	sw	x22,-1320(x31) # 4100ead8 <.L2120+0x410010fc>

0000adf0 <.L1941>:
    adf0:	0000006f          	j	adf0 <.L1941>

0000adf4 <.L2382>:
    adf4:	000000b7          	lui	x1,0x0
    adf8:	00000bb7          	lui	x23,0x0
    adfc:	00008593          	mv	x11,x1
    ae00:	06f00613          	li	x12,111
    ae04:	000b8513          	mv	x10,x23
    ae08:	00000097          	auipc	x1,0x0
    ae0c:	000080e7          	jalr	x1 # ae08 <.L2382+0x14>
    ae10:	04c12583          	lw	x11,76(x2)
    ae14:	00000e37          	lui	x28,0x0
    ae18:	000e0513          	mv	x10,x28
    ae1c:	00000097          	auipc	x1,0x0
    ae20:	000080e7          	jalr	x1 # ae1c <.L2382+0x28>
    ae24:	000002b7          	lui	x5,0x0
    ae28:	0002a683          	lw	x13,0(x5) # 0 <_Z21hb_tiled_foreach_implIfZL26convolution_backward_inputP11hb_tensor_tS1_S1_P11hb_vector_tS3_EUlvE_JEEvjjT0_8HBTensorIT_Lln1EEPS7_.isra.0>
    ae2c:	000008b7          	lui	x17,0x0
    ae30:	0008a383          	lw	x7,0(x17) # 0 <_Z21hb_tiled_foreach_implIfZL26convolution_backward_inputP11hb_tensor_tS1_S1_P11hb_vector_tS3_EUlvE_JEEvjjT0_8HBTensorIT_Lln1EEPS7_.isra.0>
    ae34:	01069513          	slli	x10,x13,0x10
    ae38:	4100f7b7          	lui	x15,0x4100f
    ae3c:	007505b3          	add	x11,x10,x7
    ae40:	acb7ac23          	sw	x11,-1320(x15) # 4100ead8 <.L2120+0x410010fc>

0000ae44 <.L1949>:
    ae44:	0000006f          	j	ae44 <.L1949>

0000ae48 <.L2380>:
    ae48:	00000fb7          	lui	x31,0x0
    ae4c:	00000b37          	lui	x22,0x0
    ae50:	06f00613          	li	x12,111
    ae54:	000b0593          	mv	x11,x22
    ae58:	000f8513          	mv	x10,x31
    ae5c:	00000097          	auipc	x1,0x0
    ae60:	000080e7          	jalr	x1 # ae5c <.L2380+0x14>
    ae64:	01812583          	lw	x11,24(x2)
    ae68:	000009b7          	lui	x19,0x0
    ae6c:	00098513          	mv	x10,x19
    ae70:	00000097          	auipc	x1,0x0
    ae74:	000080e7          	jalr	x1 # ae70 <.L2380+0x28>
    ae78:	00000db7          	lui	x27,0x0
    ae7c:	000dad03          	lw	x26,0(x27) # 0 <_Z21hb_tiled_foreach_implIfZL26convolution_backward_inputP11hb_tensor_tS1_S1_P11hb_vector_tS3_EUlvE_JEEvjjT0_8HBTensorIT_Lln1EEPS7_.isra.0>
    ae80:	00000337          	lui	x6,0x0
    ae84:	00032c03          	lw	x24,0(x6) # 0 <_Z21hb_tiled_foreach_implIfZL26convolution_backward_inputP11hb_tensor_tS1_S1_P11hb_vector_tS3_EUlvE_JEEvjjT0_8HBTensorIT_Lln1EEPS7_.isra.0>
    ae88:	010d1c93          	slli	x25,x26,0x10
    ae8c:	4100fe37          	lui	x28,0x4100f
    ae90:	018c8bb3          	add	x23,x25,x24
    ae94:	ad7e2c23          	sw	x23,-1320(x28) # 4100ead8 <.L2120+0x410010fc>

0000ae98 <.L1945>:
    ae98:	0000006f          	j	ae98 <.L1945>

0000ae9c <.L2381>:
    ae9c:	00000837          	lui	x16,0x0
    aea0:	00000437          	lui	x8,0x0
    aea4:	06f00613          	li	x12,111
    aea8:	00040593          	mv	x11,x8
    aeac:	00080513          	mv	x10,x16
    aeb0:	00000097          	auipc	x1,0x0
    aeb4:	000080e7          	jalr	x1 # aeb0 <.L2381+0x14>
    aeb8:	01812583          	lw	x11,24(x2)
    aebc:	00000637          	lui	x12,0x0
    aec0:	00060513          	mv	x10,x12
    aec4:	00000097          	auipc	x1,0x0
    aec8:	000080e7          	jalr	x1 # aec4 <.L2381+0x28>
    aecc:	000004b7          	lui	x9,0x0
    aed0:	0004af03          	lw	x30,0(x9) # 0 <_Z21hb_tiled_foreach_implIfZL26convolution_backward_inputP11hb_tensor_tS1_S1_P11hb_vector_tS3_EUlvE_JEEvjjT0_8HBTensorIT_Lln1EEPS7_.isra.0>
    aed4:	00000737          	lui	x14,0x0
    aed8:	00072903          	lw	x18,0(x14) # 0 <_Z21hb_tiled_foreach_implIfZL26convolution_backward_inputP11hb_tensor_tS1_S1_P11hb_vector_tS3_EUlvE_JEEvjjT0_8HBTensorIT_Lln1EEPS7_.isra.0>
    aedc:	010f1a13          	slli	x20,x30,0x10
    aee0:	4100fab7          	lui	x21,0x4100f
    aee4:	012a0eb3          	add	x29,x20,x18
    aee8:	addaac23          	sw	x29,-1320(x21) # 4100ead8 <.L2120+0x410010fc>

0000aeec <.L1947>:
    aeec:	0000006f          	j	aeec <.L1947>

0000aef0 <.L2385>:
    aef0:	000000b7          	lui	x1,0x0
    aef4:	00000c37          	lui	x24,0x0
    aef8:	00008593          	mv	x11,x1
    aefc:	06f00613          	li	x12,111
    af00:	000c0513          	mv	x10,x24
    af04:	00000097          	auipc	x1,0x0
    af08:	000080e7          	jalr	x1 # af04 <.L2385+0x14>
    af0c:	08012583          	lw	x11,128(x2)
    af10:	00000cb7          	lui	x25,0x0
    af14:	000c8513          	mv	x10,x25
    af18:	00000097          	auipc	x1,0x0
    af1c:	000080e7          	jalr	x1 # af18 <.L2385+0x28>
    af20:	00000bb7          	lui	x23,0x0
    af24:	000bae03          	lw	x28,0(x23) # 0 <_Z21hb_tiled_foreach_implIfZL26convolution_backward_inputP11hb_tensor_tS1_S1_P11hb_vector_tS3_EUlvE_JEEvjjT0_8HBTensorIT_Lln1EEPS7_.isra.0>
    af28:	000002b7          	lui	x5,0x0
    af2c:	0002a683          	lw	x13,0(x5) # 0 <_Z21hb_tiled_foreach_implIfZL26convolution_backward_inputP11hb_tensor_tS1_S1_P11hb_vector_tS3_EUlvE_JEEvjjT0_8HBTensorIT_Lln1EEPS7_.isra.0>
    af30:	010e1893          	slli	x17,x28,0x10
    af34:	4100f537          	lui	x10,0x4100f
    af38:	00d883b3          	add	x7,x17,x13
    af3c:	ac752c23          	sw	x7,-1320(x10) # 4100ead8 <.L2120+0x410010fc>

0000af40 <.L1955>:
    af40:	0000006f          	j	af40 <.L1955>

0000af44 <.L2383>:
    af44:	00000eb7          	lui	x29,0x0
    af48:	00000ab7          	lui	x21,0x0
    af4c:	000e8593          	mv	x11,x29
    af50:	06f00613          	li	x12,111
    af54:	000a8513          	mv	x10,x21
    af58:	00000097          	auipc	x1,0x0
    af5c:	000080e7          	jalr	x1 # af58 <.L2383+0x14>
    af60:	04c12583          	lw	x11,76(x2)
    af64:	00000b37          	lui	x22,0x0
    af68:	000b0513          	mv	x10,x22
    af6c:	00000097          	auipc	x1,0x0
    af70:	000080e7          	jalr	x1 # af6c <.L2383+0x28>
    af74:	00000fb7          	lui	x31,0x0
    af78:	000fa983          	lw	x19,0(x31) # 0 <_Z21hb_tiled_foreach_implIfZL26convolution_backward_inputP11hb_tensor_tS1_S1_P11hb_vector_tS3_EUlvE_JEEvjjT0_8HBTensorIT_Lln1EEPS7_.isra.0>
    af7c:	00000db7          	lui	x27,0x0
    af80:	000dad03          	lw	x26,0(x27) # 0 <_Z21hb_tiled_foreach_implIfZL26convolution_backward_inputP11hb_tensor_tS1_S1_P11hb_vector_tS3_EUlvE_JEEvjjT0_8HBTensorIT_Lln1EEPS7_.isra.0>
    af84:	01099313          	slli	x6,x19,0x10
    af88:	4100fcb7          	lui	x25,0x4100f
    af8c:	01a30c33          	add	x24,x6,x26
    af90:	ad8cac23          	sw	x24,-1320(x25) # 4100ead8 <.L2120+0x410010fc>

0000af94 <.L1951>:
    af94:	0000006f          	j	af94 <.L1951>

0000af98 <.L2384>:
    af98:	000007b7          	lui	x15,0x0
    af9c:	000005b7          	lui	x11,0x0
    afa0:	06f00613          	li	x12,111
    afa4:	00058593          	mv	x11,x11
    afa8:	00078513          	mv	x10,x15
    afac:	00000097          	auipc	x1,0x0
    afb0:	000080e7          	jalr	x1 # afac <.L2384+0x14>
    afb4:	04c12583          	lw	x11,76(x2)
    afb8:	00000637          	lui	x12,0x0
    afbc:	00060513          	mv	x10,x12
    afc0:	00000097          	auipc	x1,0x0
    afc4:	000080e7          	jalr	x1 # afc0 <.L2384+0x28>
    afc8:	00000437          	lui	x8,0x0
    afcc:	00042803          	lw	x16,0(x8) # 0 <_Z21hb_tiled_foreach_implIfZL26convolution_backward_inputP11hb_tensor_tS1_S1_P11hb_vector_tS3_EUlvE_JEEvjjT0_8HBTensorIT_Lln1EEPS7_.isra.0>
    afd0:	000004b7          	lui	x9,0x0
    afd4:	0004a703          	lw	x14,0(x9) # 0 <_Z21hb_tiled_foreach_implIfZL26convolution_backward_inputP11hb_tensor_tS1_S1_P11hb_vector_tS3_EUlvE_JEEvjjT0_8HBTensorIT_Lln1EEPS7_.isra.0>
    afd8:	01081f13          	slli	x30,x16,0x10
    afdc:	4100fa37          	lui	x20,0x4100f
    afe0:	00ef0933          	add	x18,x30,x14
    afe4:	ad2a2c23          	sw	x18,-1320(x20) # 4100ead8 <.L2120+0x410010fc>

0000afe8 <.L1953>:
    afe8:	0000006f          	j	afe8 <.L1953>

0000afec <.L2386>:
    afec:	00000937          	lui	x18,0x0
    aff0:	00000a37          	lui	x20,0x0
    aff4:	06f00613          	li	x12,111
    aff8:	00090593          	mv	x11,x18
    affc:	000a0513          	mv	x10,x20
    b000:	00000097          	auipc	x1,0x0
    b004:	000080e7          	jalr	x1 # b000 <.L2386+0x14>
    b008:	08012583          	lw	x11,128(x2)
    b00c:	00000eb7          	lui	x29,0x0
    b010:	000e8513          	mv	x10,x29
    b014:	00000097          	auipc	x1,0x0
    b018:	000080e7          	jalr	x1 # b014 <.L2386+0x28>
    b01c:	00000ab7          	lui	x21,0x0
    b020:	000aab03          	lw	x22,0(x21) # 0 <_Z21hb_tiled_foreach_implIfZL26convolution_backward_inputP11hb_tensor_tS1_S1_P11hb_vector_tS3_EUlvE_JEEvjjT0_8HBTensorIT_Lln1EEPS7_.isra.0>
    b024:	00000fb7          	lui	x31,0x0
    b028:	000fa983          	lw	x19,0(x31) # 0 <_Z21hb_tiled_foreach_implIfZL26convolution_backward_inputP11hb_tensor_tS1_S1_P11hb_vector_tS3_EUlvE_JEEvjjT0_8HBTensorIT_Lln1EEPS7_.isra.0>
    b02c:	010b1d93          	slli	x27,x22,0x10
    b030:	4100f337          	lui	x6,0x4100f
    b034:	013d8d33          	add	x26,x27,x19
    b038:	ada32c23          	sw	x26,-1320(x6) # 4100ead8 <.L2120+0x410010fc>

0000b03c <.L1957>:
    b03c:	0000006f          	j	b03c <.L1957>

0000b040 <.L2387>:
    b040:	01000713          	li	x14,16
    b044:	a4e894e3          	bne	x17,x14,aa8c <.L1958>
    b048:	02000613          	li	x12,32
    b04c:	a4c310e3          	bne	x6,x12,aa8c <.L1958>
    b050:	a26f9ee3          	bne	x31,x6,aa8c <.L1958>
    b054:	00300093          	li	x1,3
    b058:	a21e9ae3          	bne	x29,x1,aa8c <.L1958>
    b05c:	a3ff18e3          	bne	x30,x31,aa8c <.L1958>
    b060:	a3ec16e3          	bne	x24,x30,aa8c <.L1958>
    b064:	a3de14e3          	bne	x28,x29,aa8c <.L1958>
    b068:	a3cc92e3          	bne	x25,x28,aa8c <.L1958>
    b06c:	00100293          	li	x5,1
    b070:	a05d1ee3          	bne	x26,x5,aa8c <.L1958>
    b074:	a1ad9ce3          	bne	x27,x26,aa8c <.L1958>
    b078:	00100393          	li	x7,1
    b07c:	a07798e3          	bne	x15,x7,aa8c <.L1958>
    b080:	a0f696e3          	bne	x13,x15,aa8c <.L1958>
    b084:	00000ab7          	lui	x21,0x0
    b088:	00000fb7          	lui	x31,0x0
    b08c:	000009b7          	lui	x19,0x0
    b090:	00000eb7          	lui	x29,0x0
    b094:	000aab03          	lw	x22,0(x21) # 0 <_Z21hb_tiled_foreach_implIfZL26convolution_backward_inputP11hb_tensor_tS1_S1_P11hb_vector_tS3_EUlvE_JEEvjjT0_8HBTensorIT_Lln1EEPS7_.isra.0>
    b098:	000fac03          	lw	x24,0(x31) # 0 <_Z21hb_tiled_foreach_implIfZL26convolution_backward_inputP11hb_tensor_tS1_S1_P11hb_vector_tS3_EUlvE_JEEvjjT0_8HBTensorIT_Lln1EEPS7_.isra.0>
    b09c:	0009af03          	lw	x30,0(x19) # 0 <_Z21hb_tiled_foreach_implIfZL26convolution_backward_inputP11hb_tensor_tS1_S1_P11hb_vector_tS3_EUlvE_JEEvjjT0_8HBTensorIT_Lln1EEPS7_.isra.0>
    b0a0:	000ea083          	lw	x1,0(x29) # 0 <_Z21hb_tiled_foreach_implIfZL26convolution_backward_inputP11hb_tensor_tS1_S1_P11hb_vector_tS3_EUlvE_JEEvjjT0_8HBTensorIT_Lln1EEPS7_.isra.0>
    b0a4:	00000e37          	lui	x28,0x0
    b0a8:	000e2883          	lw	x17,0(x28) # 0 <_Z21hb_tiled_foreach_implIfZL26convolution_backward_inputP11hb_tensor_tS1_S1_P11hb_vector_tS3_EUlvE_JEEvjjT0_8HBTensorIT_Lln1EEPS7_.isra.0>
    b0ac:	018b0db3          	add	x27,x22,x24
    b0b0:	001f0833          	add	x16,x30,x1
    b0b4:	018d9593          	slli	x11,x27,0x18
    b0b8:	01281d13          	slli	x26,x16,0x12
    b0bc:	3f0007b7          	lui	x15,0x3f000
    b0c0:	00fc0537          	lui	x10,0xfc0
    b0c4:	000406b7          	lui	x13,0x40
    b0c8:	0104ac03          	lw	x24,16(x9)
    b0cc:	00f5f333          	and	x6,x11,x15
    b0d0:	00ad7733          	and	x14,x26,x10
    b0d4:	00489613          	slli	x12,x17,0x4
    b0d8:	ff068493          	addi	x9,x13,-16 # 3fff0 <.L2120+0x32614>
    b0dc:	00e363b3          	or	x7,x6,x14
    b0e0:	00967a33          	and	x20,x12,x9
    b0e4:	0143ecb3          	or	x25,x7,x20
    b0e8:	80000bb7          	lui	x23,0x80000
    b0ec:	01042a83          	lw	x21,16(x8)
    b0f0:	017ce2b3          	or	x5,x25,x23
    b0f4:	41001437          	lui	x8,0x41001
    b0f8:	01092f83          	lw	x31,16(x18) # 10 <_Z21hb_tiled_foreach_implIfZL26convolution_backward_inputP11hb_tensor_tS1_S1_P11hb_vector_tS3_EUlvE_JEEvjjT0_8HBTensorIT_Lln1EEPS7_.isra.0+0x10>
    b0fc:	000c0b13          	mv	x22,x24
    b100:	d0542623          	sw	x5,-756(x8) # 41000d0c <.L2120+0x40ff3330>
    b104:	040c0913          	addi	x18,x24,64 # 40 <.L7+0x18>

0000b108 <.L1959>:
    b108:	000c2023          	sw	x0,0(x24)
    b10c:	004c0c13          	addi	x24,x24,4
    b110:	ff2c1ce3          	bne	x24,x18,b108 <.L1959>
    b114:	000009b7          	lui	x19,0x0
    b118:	0009af03          	lw	x30,0(x19) # 0 <_Z21hb_tiled_foreach_implIfZL26convolution_backward_inputP11hb_tensor_tS1_S1_P11hb_vector_tS3_EUlvE_JEEvjjT0_8HBTensorIT_Lln1EEPS7_.isra.0>
    b11c:	00000eb7          	lui	x29,0x0
    b120:	000ea083          	lw	x1,0(x29) # 0 <_Z21hb_tiled_foreach_implIfZL26convolution_backward_inputP11hb_tensor_tS1_S1_P11hb_vector_tS3_EUlvE_JEEvjjT0_8HBTensorIT_Lln1EEPS7_.isra.0>
    b124:	00000a37          	lui	x20,0x0
    b128:	004f0e13          	addi	x28,x30,4 # 4 <_Z21hb_tiled_foreach_implIfZL26convolution_backward_inputP11hb_tensor_tS1_S1_P11hb_vector_tS3_EUlvE_JEEvjjT0_8HBTensorIT_Lln1EEPS7_.isra.0+0x4>
    b12c:	000a0913          	mv	x18,x20
    b130:	01c908b3          	add	x17,x18,x28
    b134:	01809d93          	slli	x27,x1,0x18
    b138:	01b8e833          	or	x16,x17,x27
    b13c:	201c05b7          	lui	x11,0x201c0
    b140:	00b86d33          	or	x26,x16,x11
    b144:	00100793          	li	x15,1
    b148:	00fd0023          	sb	x15,0(x26)
    b14c:	0009a703          	lw	x14,0(x19)
    b150:	00700513          	li	x10,7
    b154:	00e12423          	sw	x14,8(x2)
    b158:	32a70863          	beq	x14,x10,b488 <.L2412>

0000b15c <.L1972>:
    b15c:	00100493          	li	x9,1
    b160:	0100006f          	j	b170 <.L1977>

0000b164 <.L2413>:
    b164:	000a0513          	mv	x10,x20
    b168:	1405262f          	lr.w.aq	x12,(x10)
    b16c:	00960863          	beq	x12,x9,b17c <.L1976>

0000b170 <.L1977>:
    b170:	000a0793          	mv	x15,x20
    b174:	1007a32f          	lr.w	x6,(x15)
    b178:	fe9316e3          	bne	x6,x9,b164 <.L2413>

0000b17c <.L1976>:
    b17c:	000003b7          	lui	x7,0x0
    b180:	0003a683          	lw	x13,0(x7) # 0 <_Z21hb_tiled_foreach_implIfZL26convolution_backward_inputP11hb_tensor_tS1_S1_P11hb_vector_tS3_EUlvE_JEEvjjT0_8HBTensorIT_Lln1EEPS7_.isra.0>
    b184:	00092023          	sw	x0,0(x18)
    b188:	1b000c93          	li	x25,432
    b18c:	07f6fb93          	andi	x23,x13,127
    b190:	002b9293          	slli	x5,x23,0x2
    b194:	00512023          	sw	x5,0(x2)
    b198:	00428993          	addi	x19,x5,4
    b19c:	013cf463          	bgeu	x25,x19,b1a4 <.L1978>
    b1a0:	1b000993          	li	x19,432

0000b1a4 <.L1978>:
    b1a4:	00001f37          	lui	x30,0x1
    b1a8:	c00f0e93          	addi	x29,x30,-1024 # c00 <.L302+0x4c>
    b1ac:	00000493          	li	x9,0
    b1b0:	00000413          	li	x8,0
    b1b4:	01b00093          	li	x1,27
    b1b8:	00900d93          	li	x27,9
    b1bc:	00300d13          	li	x26,3
    b1c0:	01f00313          	li	x6,31
    b1c4:	fff00c13          	li	x24,-1
    b1c8:	02000c93          	li	x25,32
    b1cc:	01d12223          	sw	x29,4(x2)

0000b1d0 <.L1981>:
    b1d0:	00012e03          	lw	x28,0(x2)
    b1d4:	000e0513          	mv	x10,x28
    b1d8:	0f3e7263          	bgeu	x28,x19,b2bc <.L1987>

0000b1dc <.L1979>:
    b1dc:	03a558b3          	divu	x17,x10,x26
    b1e0:	02155733          	divu	x14,x10,x1
    b1e4:	03a8f633          	remu	x12,x17,x26
    b1e8:	00371593          	slli	x11,x14,0x3
    b1ec:	40e587b3          	sub	x15,x11,x14
    b1f0:	00279693          	slli	x13,x15,0x2
    b1f4:	40e68bb3          	sub	x23,x13,x14
    b1f8:	00a71393          	slli	x7,x14,0xa
    b1fc:	008385b3          	add	x11,x7,x8
    b200:	00259893          	slli	x17,x11,0x2
    b204:	411a82b3          	sub	x5,x21,x17
    b208:	40058393          	addi	x7,x11,1024 # 201c0400 <.L2120+0x201b2a24>
    b20c:	03b55833          	divu	x16,x10,x27
    b210:	00161e93          	slli	x29,x12,0x1
    b214:	00ce8e33          	add	x28,x29,x12
    b218:	00561f13          	slli	x30,x12,0x5
    b21c:	fff60693          	addi	x13,x12,-1
    b220:	03a87833          	remu	x16,x16,x26
    b224:	03a57633          	remu	x12,x10,x26
    b228:	00a81713          	slli	x14,x16,0xa
    b22c:	00381793          	slli	x15,x16,0x3
    b230:	00970eb3          	add	x29,x14,x9
    b234:	01078833          	add	x16,x15,x16
    b238:	00cf0f33          	add	x30,x30,x12
    b23c:	00cb8bb3          	add	x23,x23,x12
    b240:	01ee8733          	add	x14,x29,x30
    b244:	010b87b3          	add	x15,x23,x16
    b248:	00271e93          	slli	x29,x14,0x2
    b24c:	01c78e33          	add	x28,x15,x28
    b250:	005e82b3          	add	x5,x29,x5
    b254:	002e1813          	slli	x16,x28,0x2
    b258:	f8028f13          	addi	x30,x5,-128
    b25c:	fff60e13          	addi	x28,x12,-1
    b260:	010b0bb3          	add	x23,x22,x16
    b264:	01f60613          	addi	x12,x12,31
    b268:	41ff02b3          	sub	x5,x30,x31

0000b26c <.L1986>:
    b26c:	011f8733          	add	x14,x31,x17
    b270:	000e0793          	mv	x15,x28

0000b274 <.L1985>:
    b274:	02d36263          	bltu	x6,x13,b298 <.L1982>
    b278:	45878663          	beq	x15,x24,b6c4 <.L1983>
    b27c:	00570eb3          	add	x29,x14,x5
    b280:	01978c63          	beq	x15,x25,b298 <.L1982>
    b284:	00072787          	flw	f15,0(x14)
    b288:	ffcea007          	flw	f0,-4(x29)
    b28c:	000ba707          	flw	f14,0(x23) # 80000000 <.L2120+0x7fff2624>
    b290:	7007f0c3          	fmadd.s	f1,f15,f0,f14
    b294:	001ba027          	fsw	f1,0(x23)

0000b298 <.L1982>:
    b298:	00178793          	addi	x15,x15,1 # 3f000001 <.L2120+0x3eff2625>
    b29c:	00470713          	addi	x14,x14,4
    b2a0:	fcf61ae3          	bne	x12,x15,b274 <.L1985>
    b2a4:	02058593          	addi	x11,x11,32
    b2a8:	08088893          	addi	x17,x17,128
    b2ac:	00168693          	addi	x13,x13,1
    b2b0:	fa759ee3          	bne	x11,x7,b26c <.L1986>
    b2b4:	00150513          	addi	x10,x10,1 # fc0001 <.L2120+0xfb2625>
    b2b8:	f33512e3          	bne	x10,x19,b1dc <.L1979>

0000b2bc <.L1987>:
    b2bc:	00412803          	lw	x16,4(x2)
    b2c0:	000043b7          	lui	x7,0x4
    b2c4:	00740433          	add	x8,x8,x7
    b2c8:	00020f37          	lui	x30,0x20
    b2cc:	010484b3          	add	x9,x9,x16
    b2d0:	f1e410e3          	bne	x8,x30,b1d0 <.L1981>
    b2d4:	00000ab7          	lui	x21,0x0
    b2d8:	000aab03          	lw	x22,0(x21) # 0 <_Z21hb_tiled_foreach_implIfZL26convolution_backward_inputP11hb_tensor_tS1_S1_P11hb_vector_tS3_EUlvE_JEEvjjT0_8HBTensorIT_Lln1EEPS7_.isra.0>
    b2dc:	00812c03          	lw	x24,8(x2)
    b2e0:	00000d37          	lui	x26,0x0
    b2e4:	00000fb7          	lui	x31,0x0
    b2e8:	000000b7          	lui	x1,0x0
    b2ec:	000fa983          	lw	x19,0(x31) # 0 <_Z21hb_tiled_foreach_implIfZL26convolution_backward_inputP11hb_tensor_tS1_S1_P11hb_vector_tS3_EUlvE_JEEvjjT0_8HBTensorIT_Lln1EEPS7_.isra.0>
    b2f0:	0000ad83          	lw	x27,0(x1) # 0 <_Z21hb_tiled_foreach_implIfZL26convolution_backward_inputP11hb_tensor_tS1_S1_P11hb_vector_tS3_EUlvE_JEEvjjT0_8HBTensorIT_Lln1EEPS7_.isra.0>
    b2f4:	000d2303          	lw	x6,0(x26) # 0 <_Z21hb_tiled_foreach_implIfZL26convolution_backward_inputP11hb_tensor_tS1_S1_P11hb_vector_tS3_EUlvE_JEEvjjT0_8HBTensorIT_Lln1EEPS7_.isra.0>
    b2f8:	016c0cb3          	add	x25,x24,x22
    b2fc:	00040737          	lui	x14,0x40
    b300:	012c9b93          	slli	x23,x25,0x12
    b304:	00499e13          	slli	x28,x19,0x4
    b308:	006d82b3          	add	x5,x27,x6
    b30c:	00fc0637          	lui	x12,0xfc0
    b310:	ff070e93          	addi	x29,x14,-16 # 3fff0 <.L2120+0x32614>
    b314:	00cbf7b3          	and	x15,x23,x12
    b318:	01de75b3          	and	x11,x28,x29
    b31c:	01829893          	slli	x17,x5,0x18
    b320:	3f0006b7          	lui	x13,0x3f000
    b324:	00b7e533          	or	x10,x15,x11
    b328:	00d8f3b3          	and	x7,x17,x13
    b32c:	00756433          	or	x8,x10,x7
    b330:	c0000837          	lui	x16,0xc0000
    b334:	010464b3          	or	x9,x8,x16
    b338:	41001f37          	lui	x30,0x41001
    b33c:	d09f2623          	sw	x9,-756(x30) # 41000d0c <.L2120+0x40ff3330>
    b340:	00000ab7          	lui	x21,0x0
    b344:	000aab03          	lw	x22,0(x21) # 0 <_Z21hb_tiled_foreach_implIfZL26convolution_backward_inputP11hb_tensor_tS1_S1_P11hb_vector_tS3_EUlvE_JEEvjjT0_8HBTensorIT_Lln1EEPS7_.isra.0>
    b348:	000d2f83          	lw	x31,0(x26)
    b34c:	201c0337          	lui	x6,0x201c0
    b350:	004b0993          	addi	x19,x22,4 # 4 <_Z21hb_tiled_foreach_implIfZL26convolution_backward_inputP11hb_tensor_tS1_S1_P11hb_vector_tS3_EUlvE_JEEvjjT0_8HBTensorIT_Lln1EEPS7_.isra.0+0x4>
    b354:	013900b3          	add	x1,x18,x19
    b358:	018f9d93          	slli	x27,x31,0x18
    b35c:	01b0ed33          	or	x26,x1,x27
    b360:	006d6c33          	or	x24,x26,x6
    b364:	00100c93          	li	x25,1
    b368:	019c0023          	sb	x25,0(x24)
    b36c:	000aab83          	lw	x23,0(x21)
    b370:	00700e13          	li	x28,7
    b374:	03cb8863          	beq	x23,x28,b3a4 <.L2414>

0000b378 <.L1998>:
    b378:	00100413          	li	x8,1
    b37c:	0100006f          	j	b38c <.L2003>

0000b380 <.L2415>:
    b380:	000a0713          	mv	x14,x20
    b384:	14072f2f          	lr.w.aq	x30,(x14)
    b388:	008f0863          	beq	x30,x8,b398 <.L2002>

0000b38c <.L2003>:
    b38c:	000a0813          	mv	x16,x20
    b390:	100824af          	lr.w	x9,(x16)
    b394:	fe8496e3          	bne	x9,x8,b380 <.L2415>

0000b398 <.L2002>:
    b398:	00092023          	sw	x0,0(x18)
    b39c:	00000513          	li	x10,0
    b3a0:	971ff06f          	j	ad10 <.L1939>

0000b3a4 <.L2414>:
    b3a4:	000002b7          	lui	x5,0x0
    b3a8:	000007b7          	lui	x15,0x0
    b3ac:	00428613          	addi	x12,x5,4 # 4 <_Z21hb_tiled_foreach_implIfZL26convolution_backward_inputP11hb_tensor_tS1_S1_P11hb_vector_tS3_EUlvE_JEEvjjT0_8HBTensorIT_Lln1EEPS7_.isra.0+0x4>
    b3b0:	01478e93          	addi	x29,x15,20 # 14 <.L8>

0000b3b4 <.L1989>:
    b3b4:	00060593          	mv	x11,x12

0000b3b8 <.L1991>:
    b3b8:	0005c703          	lbu	x14,0(x11)
    b3bc:	00158593          	addi	x11,x11,1
    b3c0:	0ff77893          	andi	x17,x14,255
    b3c4:	fe0888e3          	beqz	x17,b3b4 <.L1989>
    b3c8:	febe98e3          	bne	x29,x11,b3b8 <.L1991>
    b3cc:	00000537          	lui	x10,0x0
    b3d0:	00052683          	lw	x13,0(x10) # 0 <_Z21hb_tiled_foreach_implIfZL26convolution_backward_inputP11hb_tensor_tS1_S1_P11hb_vector_tS3_EUlvE_JEEvjjT0_8HBTensorIT_Lln1EEPS7_.isra.0>
    b3d4:	231c0837          	lui	x16,0x231c0
    b3d8:	00100f13          	li	x30,1
    b3dc:	01868393          	addi	x7,x13,24 # 3f000018 <.L2120+0x3eff263c>
    b3e0:	00790433          	add	x8,x18,x7
    b3e4:	010464b3          	or	x9,x8,x16
    b3e8:	01e48023          	sb	x30,0(x9)
    b3ec:	00000ab7          	lui	x21,0x0
    b3f0:	000aab03          	lw	x22,0(x21) # 0 <_Z21hb_tiled_foreach_implIfZL26convolution_backward_inputP11hb_tensor_tS1_S1_P11hb_vector_tS3_EUlvE_JEEvjjT0_8HBTensorIT_Lln1EEPS7_.isra.0>
    b3f4:	00700f93          	li	x31,7
    b3f8:	f9fb10e3          	bne	x22,x31,b378 <.L1998>
    b3fc:	000009b7          	lui	x19,0x0
    b400:	0009a083          	lw	x1,0(x19) # 0 <_Z21hb_tiled_foreach_implIfZL26convolution_backward_inputP11hb_tensor_tS1_S1_P11hb_vector_tS3_EUlvE_JEEvjjT0_8HBTensorIT_Lln1EEPS7_.isra.0>
    b404:	00300d93          	li	x27,3
    b408:	17b08a63          	beq	x1,x27,b57c <.L2416>

0000b40c <.L1997>:
    b40c:	00100b13          	li	x22,1
    b410:	0100006f          	j	b420 <.L1993>

0000b414 <.L2417>:
    b414:	01490093          	addi	x1,x18,20
    b418:	1400adaf          	lr.w.aq	x27,(x1)
    b41c:	016d8863          	beq	x27,x22,b42c <.L1999>

0000b420 <.L1993>:
    b420:	01490f93          	addi	x31,x18,20
    b424:	100fa9af          	lr.w	x19,(x31)
    b428:	ff6996e3          	bne	x19,x22,b414 <.L2417>

0000b42c <.L1999>:
    b42c:	00092a23          	sw	x0,20(x18)
    b430:	00000c13          	li	x24,0
    b434:	01000d13          	li	x26,16

0000b438 <.L2000>:
    b438:	01890333          	add	x6,x18,x24
    b43c:	00030223          	sb	x0,4(x6) # 201c0004 <.L2120+0x201b2628>
    b440:	001c0c13          	addi	x24,x24,1
    b444:	ffac1ae3          	bne	x24,x26,b438 <.L2000>
    b448:	00092023          	sw	x0,0(x18)
    b44c:	00000513          	li	x10,0
    b450:	20000cb7          	lui	x25,0x20000
    b454:	00100b93          	li	x23,1
    b458:	00040e37          	lui	x28,0x40
    b45c:	004002b7          	lui	x5,0x400

0000b460 <.L2001>:
    b460:	000006b7          	lui	x13,0x0
    b464:	0006a883          	lw	x17,0(x13) # 0 <_Z21hb_tiled_foreach_implIfZL26convolution_backward_inputP11hb_tensor_tS1_S1_P11hb_vector_tS3_EUlvE_JEEvjjT0_8HBTensorIT_Lln1EEPS7_.isra.0>
    b468:	00a963b3          	or	x7,x18,x10
    b46c:	01c50533          	add	x10,x10,x28
    b470:	01889593          	slli	x11,x17,0x18
    b474:	0075e7b3          	or	x15,x11,x7
    b478:	0197e633          	or	x12,x15,x25
    b47c:	01762023          	sw	x23,0(x12) # fc0000 <.L2120+0xfb2624>
    b480:	fe5510e3          	bne	x10,x5,b460 <.L2001>
    b484:	ef5ff06f          	j	b378 <.L1998>

0000b488 <.L2412>:
    b488:	00000637          	lui	x12,0x0
    b48c:	000006b7          	lui	x13,0x0
    b490:	00460393          	addi	x7,x12,4 # 4 <_Z21hb_tiled_foreach_implIfZL26convolution_backward_inputP11hb_tensor_tS1_S1_P11hb_vector_tS3_EUlvE_JEEvjjT0_8HBTensorIT_Lln1EEPS7_.isra.0+0x4>
    b494:	01468493          	addi	x9,x13,20 # 14 <.L8>

0000b498 <.L1963>:
    b498:	00038b93          	mv	x23,x7

0000b49c <.L1965>:
    b49c:	000bcc83          	lbu	x25,0(x23)
    b4a0:	001b8b93          	addi	x23,x23,1
    b4a4:	0ffcf293          	andi	x5,x25,255
    b4a8:	fe0288e3          	beqz	x5,b498 <.L1963>
    b4ac:	ff7498e3          	bne	x9,x23,b49c <.L1965>
    b4b0:	00000437          	lui	x8,0x0
    b4b4:	00042c03          	lw	x24,0(x8) # 0 <_Z21hb_tiled_foreach_implIfZL26convolution_backward_inputP11hb_tensor_tS1_S1_P11hb_vector_tS3_EUlvE_JEEvjjT0_8HBTensorIT_Lln1EEPS7_.isra.0>
    b4b8:	231c0eb7          	lui	x29,0x231c0
    b4bc:	00100e13          	li	x28,1
    b4c0:	018c0993          	addi	x19,x24,24
    b4c4:	01390f33          	add	x30,x18,x19
    b4c8:	01df60b3          	or	x1,x30,x29
    b4cc:	01c08023          	sb	x28,0(x1)
    b4d0:	000008b7          	lui	x17,0x0
    b4d4:	0008a703          	lw	x14,0(x17) # 0 <_Z21hb_tiled_foreach_implIfZL26convolution_backward_inputP11hb_tensor_tS1_S1_P11hb_vector_tS3_EUlvE_JEEvjjT0_8HBTensorIT_Lln1EEPS7_.isra.0>
    b4d8:	00700813          	li	x16,7
    b4dc:	00e12423          	sw	x14,8(x2)
    b4e0:	c7071ee3          	bne	x14,x16,b15c <.L1972>
    b4e4:	000005b7          	lui	x11,0x0
    b4e8:	0005ad03          	lw	x26,0(x11) # 0 <_Z21hb_tiled_foreach_implIfZL26convolution_backward_inputP11hb_tensor_tS1_S1_P11hb_vector_tS3_EUlvE_JEEvjjT0_8HBTensorIT_Lln1EEPS7_.isra.0>
    b4ec:	00300793          	li	x15,3
    b4f0:	12fd0663          	beq	x26,x15,b61c <.L2418>

0000b4f4 <.L1971>:
    b4f4:	00100313          	li	x6,1
    b4f8:	0100006f          	j	b508 <.L1967>

0000b4fc <.L2419>:
    b4fc:	01490393          	addi	x7,x18,20
    b500:	1403a6af          	lr.w.aq	x13,(x7)
    b504:	00668863          	beq	x13,x6,b514 <.L1973>

0000b508 <.L1967>:
    b508:	01490513          	addi	x10,x18,20
    b50c:	1005262f          	lr.w	x12,(x10)
    b510:	fe6616e3          	bne	x12,x6,b4fc <.L2419>

0000b514 <.L1973>:
    b514:	00092a23          	sw	x0,20(x18)
    b518:	00000293          	li	x5,0
    b51c:	01000c93          	li	x25,16

0000b520 <.L1974>:
    b520:	00590bb3          	add	x23,x18,x5
    b524:	000b8223          	sb	x0,4(x23)
    b528:	00128293          	addi	x5,x5,1 # 400001 <.L2120+0x3f2625>
    b52c:	ff929ae3          	bne	x5,x25,b520 <.L1974>
    b530:	00092023          	sw	x0,0(x18)
    b534:	00000893          	li	x17,0
    b538:	20000437          	lui	x8,0x20000
    b53c:	00100c13          	li	x24,1
    b540:	000409b7          	lui	x19,0x40
    b544:	00400f37          	lui	x30,0x400

0000b548 <.L1975>:
    b548:	00000eb7          	lui	x29,0x0
    b54c:	000ea083          	lw	x1,0(x29) # 0 <_Z21hb_tiled_foreach_implIfZL26convolution_backward_inputP11hb_tensor_tS1_S1_P11hb_vector_tS3_EUlvE_JEEvjjT0_8HBTensorIT_Lln1EEPS7_.isra.0>
    b550:	01196e33          	or	x28,x18,x17
    b554:	013888b3          	add	x17,x17,x19
    b558:	01809d93          	slli	x27,x1,0x18
    b55c:	01cde833          	or	x16,x27,x28
    b560:	00886733          	or	x14,x16,x8
    b564:	01872023          	sw	x24,0(x14)
    b568:	ffe890e3          	bne	x17,x30,b548 <.L1975>
    b56c:	000005b7          	lui	x11,0x0
    b570:	0005ad03          	lw	x26,0(x11) # 0 <_Z21hb_tiled_foreach_implIfZL26convolution_backward_inputP11hb_tensor_tS1_S1_P11hb_vector_tS3_EUlvE_JEEvjjT0_8HBTensorIT_Lln1EEPS7_.isra.0>
    b574:	01a12423          	sw	x26,8(x2)
    b578:	be5ff06f          	j	b15c <.L1972>

0000b57c <.L2416>:
    b57c:	00000d37          	lui	x26,0x0
    b580:	00000c37          	lui	x24,0x0
    b584:	018d0313          	addi	x6,x26,24 # 18 <.L8+0x4>
    b588:	020c0c93          	addi	x25,x24,32 # 20 <.L8+0xc>

0000b58c <.L1992>:
    b58c:	00030e13          	mv	x28,x6

0000b590 <.L1994>:
    b590:	000e4b83          	lbu	x23,0(x28) # 40000 <.L2120+0x32624>
    b594:	001e0e13          	addi	x28,x28,1
    b598:	0ffbf293          	andi	x5,x23,255
    b59c:	fe0288e3          	beqz	x5,b58c <.L1992>
    b5a0:	ffcc98e3          	bne	x25,x28,b590 <.L1994>
    b5a4:	00090c23          	sb	x0,24(x18)
    b5a8:	00090ca3          	sb	x0,25(x18)
    b5ac:	00090d23          	sb	x0,26(x18)
    b5b0:	00090da3          	sb	x0,27(x18)
    b5b4:	00090e23          	sb	x0,28(x18)
    b5b8:	00090ea3          	sb	x0,29(x18)
    b5bc:	00090f23          	sb	x0,30(x18)
    b5c0:	00090fa3          	sb	x0,31(x18)
    b5c4:	00092a23          	sw	x0,20(x18)
    b5c8:	00000713          	li	x14,0
    b5cc:	03fc06b7          	lui	x13,0x3fc0
    b5d0:	200008b7          	lui	x17,0x20000
    b5d4:	00100393          	li	x7,1
    b5d8:	01000537          	lui	x10,0x1000
    b5dc:	080005b7          	lui	x11,0x8000
    b5e0:	0080006f          	j	b5e8 <.L1996>

0000b5e4 <.L2420>:
    b5e4:	000f2b03          	lw	x22,0(x30) # 400000 <.L2120+0x3f2624>

0000b5e8 <.L1996>:
    b5e8:	012b1793          	slli	x15,x22,0x12
    b5ec:	00eee633          	or	x12,x29,x14
    b5f0:	00d7f433          	and	x8,x15,x13
    b5f4:	00c46833          	or	x16,x8,x12
    b5f8:	011864b3          	or	x9,x16,x17
    b5fc:	0074a023          	sw	x7,0(x9)
    b600:	00a70733          	add	x14,x14,x10
    b604:	00000f37          	lui	x30,0x0
    b608:	fcb71ee3          	bne	x14,x11,b5e4 <.L2420>
    b60c:	000f2e83          	lw	x29,0(x30) # 0 <_Z21hb_tiled_foreach_implIfZL26convolution_backward_inputP11hb_tensor_tS1_S1_P11hb_vector_tS3_EUlvE_JEEvjjT0_8HBTensorIT_Lln1EEPS7_.isra.0>
    b610:	00700a93          	li	x21,7
    b614:	df5e8ce3          	beq	x29,x21,b40c <.L1997>
    b618:	d61ff06f          	j	b378 <.L1998>

0000b61c <.L2418>:
    b61c:	00000337          	lui	x6,0x0
    b620:	00000637          	lui	x12,0x0
    b624:	01830513          	addi	x10,x6,24 # 18 <.L8+0x4>
    b628:	02060393          	addi	x7,x12,32 # 20 <.L8+0xc>

0000b62c <.L1966>:
    b62c:	00050c93          	mv	x25,x10

0000b630 <.L1968>:
    b630:	000cc683          	lbu	x13,0(x25) # 20000000 <.L2120+0x1fff2624>
    b634:	001c8c93          	addi	x25,x25,1
    b638:	0ff6fb93          	andi	x23,x13,255
    b63c:	fe0b88e3          	beqz	x23,b62c <.L1966>
    b640:	ff9398e3          	bne	x7,x25,b630 <.L1968>
    b644:	00090c23          	sb	x0,24(x18)
    b648:	00090ca3          	sb	x0,25(x18)
    b64c:	00090d23          	sb	x0,26(x18)
    b650:	00090da3          	sb	x0,27(x18)
    b654:	00090e23          	sb	x0,28(x18)
    b658:	00090ea3          	sb	x0,29(x18)
    b65c:	00090f23          	sb	x0,30(x18)
    b660:	00090fa3          	sb	x0,31(x18)
    b664:	00092a23          	sw	x0,20(x18)
    b668:	00000713          	li	x14,0
    b66c:	03fc02b7          	lui	x5,0x3fc0
    b670:	20000437          	lui	x8,0x20000
    b674:	00100c13          	li	x24,1
    b678:	010009b7          	lui	x19,0x1000
    b67c:	08000f37          	lui	x30,0x8000
    b680:	0080006f          	j	b688 <.L1970>

0000b684 <.L2421>:
    b684:	01a12423          	sw	x26,8(x2)

0000b688 <.L1970>:
    b688:	00812e83          	lw	x29,8(x2)
    b68c:	00e4ee33          	or	x28,x9,x14
    b690:	000005b7          	lui	x11,0x0
    b694:	012e9093          	slli	x1,x29,0x12
    b698:	0050f8b3          	and	x17,x1,x5
    b69c:	01c8edb3          	or	x27,x17,x28
    b6a0:	008de833          	or	x16,x27,x8
    b6a4:	01882023          	sw	x24,0(x16) # 231c0000 <.L2120+0x231b2624>
    b6a8:	01370733          	add	x14,x14,x19
    b6ac:	0005ad03          	lw	x26,0(x11) # 0 <_Z21hb_tiled_foreach_implIfZL26convolution_backward_inputP11hb_tensor_tS1_S1_P11hb_vector_tS3_EUlvE_JEEvjjT0_8HBTensorIT_Lln1EEPS7_.isra.0>
    b6b0:	fde71ae3          	bne	x14,x30,b684 <.L2421>
    b6b4:	01a12423          	sw	x26,8(x2)
    b6b8:	00700793          	li	x15,7
    b6bc:	e2fd0ce3          	beq	x26,x15,b4f4 <.L1971>
    b6c0:	a9dff06f          	j	b15c <.L1972>

0000b6c4 <.L1983>:
    b6c4:	00470713          	addi	x14,x14,4
    b6c8:	00000793          	li	x15,0
    b6cc:	ba9ff06f          	j	b274 <.L1985>

0000b6d0 <.L2388>:
    b6d0:	00000737          	lui	x14,0x0
    b6d4:	000006b7          	lui	x13,0x0
    b6d8:	00070593          	mv	x11,x14
    b6dc:	06f00613          	li	x12,111
    b6e0:	00068513          	mv	x10,x13
    b6e4:	00000097          	auipc	x1,0x0
    b6e8:	000080e7          	jalr	x1 # b6e4 <.L2388+0x14>
    b6ec:	01812583          	lw	x11,24(x2)
    b6f0:	00000637          	lui	x12,0x0
    b6f4:	00060513          	mv	x10,x12
    b6f8:	00000097          	auipc	x1,0x0
    b6fc:	000080e7          	jalr	x1 # b6f8 <.L2388+0x28>
    b700:	000003b7          	lui	x7,0x0
    b704:	0003a483          	lw	x9,0(x7) # 0 <_Z21hb_tiled_foreach_implIfZL26convolution_backward_inputP11hb_tensor_tS1_S1_P11hb_vector_tS3_EUlvE_JEEvjjT0_8HBTensorIT_Lln1EEPS7_.isra.0>
    b708:	00000a37          	lui	x20,0x0
    b70c:	000a2c83          	lw	x25,0(x20) # 0 <_Z21hb_tiled_foreach_implIfZL26convolution_backward_inputP11hb_tensor_tS1_S1_P11hb_vector_tS3_EUlvE_JEEvjjT0_8HBTensorIT_Lln1EEPS7_.isra.0>
    b710:	01049b93          	slli	x23,x9,0x10
    b714:	4100f2b7          	lui	x5,0x4100f
    b718:	019b8933          	add	x18,x23,x25
    b71c:	ad22ac23          	sw	x18,-1320(x5) # 4100ead8 <.L2120+0x410010fc>

0000b720 <.L2005>:
    b720:	0000006f          	j	b720 <.L2005>

0000b724 <.L2389>:
    b724:	000000b7          	lui	x1,0x0
    b728:	00000e37          	lui	x28,0x0
    b72c:	00008593          	mv	x11,x1
    b730:	06f00613          	li	x12,111
    b734:	000e0513          	mv	x10,x28
    b738:	00000097          	auipc	x1,0x0
    b73c:	000080e7          	jalr	x1 # b738 <.L2389+0x14>
    b740:	01812583          	lw	x11,24(x2)
    b744:	000008b7          	lui	x17,0x0
    b748:	00088513          	mv	x10,x17
    b74c:	00000097          	auipc	x1,0x0
    b750:	000080e7          	jalr	x1 # b74c <.L2389+0x28>
    b754:	00000db7          	lui	x27,0x0
    b758:	000da803          	lw	x16,0(x27) # 0 <_Z21hb_tiled_foreach_implIfZL26convolution_backward_inputP11hb_tensor_tS1_S1_P11hb_vector_tS3_EUlvE_JEEvjjT0_8HBTensorIT_Lln1EEPS7_.isra.0>
    b75c:	000005b7          	lui	x11,0x0
    b760:	0005ad03          	lw	x26,0(x11) # 0 <_Z21hb_tiled_foreach_implIfZL26convolution_backward_inputP11hb_tensor_tS1_S1_P11hb_vector_tS3_EUlvE_JEEvjjT0_8HBTensorIT_Lln1EEPS7_.isra.0>
    b764:	01081793          	slli	x15,x16,0x10
    b768:	4100f537          	lui	x10,0x4100f
    b76c:	01a78333          	add	x6,x15,x26
    b770:	ac652c23          	sw	x6,-1320(x10) # 4100ead8 <.L2120+0x410010fc>

0000b774 <.L2007>:
    b774:	0000006f          	j	b774 <.L2007>

0000b778 <.L2390>:
    b778:	000002b7          	lui	x5,0x0
    b77c:	00000937          	lui	x18,0x0
    b780:	06f00613          	li	x12,111
    b784:	00090593          	mv	x11,x18
    b788:	00028513          	mv	x10,x5
    b78c:	00000097          	auipc	x1,0x0
    b790:	000080e7          	jalr	x1 # b78c <.L2390+0x14>
    b794:	01812583          	lw	x11,24(x2)
    b798:	00000ab7          	lui	x21,0x0
    b79c:	000a8513          	mv	x10,x21
    b7a0:	00000097          	auipc	x1,0x0
    b7a4:	000080e7          	jalr	x1 # b7a0 <.L2390+0x28>
    b7a8:	00000b37          	lui	x22,0x0
    b7ac:	000b2f83          	lw	x31,0(x22) # 0 <_Z21hb_tiled_foreach_implIfZL26convolution_backward_inputP11hb_tensor_tS1_S1_P11hb_vector_tS3_EUlvE_JEEvjjT0_8HBTensorIT_Lln1EEPS7_.isra.0>
    b7b0:	00000c37          	lui	x24,0x0
    b7b4:	000c2983          	lw	x19,0(x24) # 0 <_Z21hb_tiled_foreach_implIfZL26convolution_backward_inputP11hb_tensor_tS1_S1_P11hb_vector_tS3_EUlvE_JEEvjjT0_8HBTensorIT_Lln1EEPS7_.isra.0>
    b7b8:	010f9413          	slli	x8,x31,0x10
    b7bc:	4100feb7          	lui	x29,0x4100f
    b7c0:	01340f33          	add	x30,x8,x19
    b7c4:	adeeac23          	sw	x30,-1320(x29) # 4100ead8 <.L2120+0x410010fc>

0000b7c8 <.L2009>:
    b7c8:	0000006f          	j	b7c8 <.L2009>

0000b7cc <.L2391>:
    b7cc:	00000337          	lui	x6,0x0
    b7d0:	00000537          	lui	x10,0x0
    b7d4:	00030593          	mv	x11,x6
    b7d8:	06f00613          	li	x12,111
    b7dc:	00050513          	mv	x10,x10
    b7e0:	00000097          	auipc	x1,0x0
    b7e4:	000080e7          	jalr	x1 # b7e0 <.L2391+0x14>
    b7e8:	01812583          	lw	x11,24(x2)
    b7ec:	00000637          	lui	x12,0x0
    b7f0:	00060513          	mv	x10,x12
    b7f4:	00000097          	auipc	x1,0x0
    b7f8:	000080e7          	jalr	x1 # b7f4 <.L2391+0x28>
    b7fc:	00000737          	lui	x14,0x0
    b800:	00072683          	lw	x13,0(x14) # 0 <_Z21hb_tiled_foreach_implIfZL26convolution_backward_inputP11hb_tensor_tS1_S1_P11hb_vector_tS3_EUlvE_JEEvjjT0_8HBTensorIT_Lln1EEPS7_.isra.0>
    b804:	000003b7          	lui	x7,0x0
    b808:	0003a483          	lw	x9,0(x7) # 0 <_Z21hb_tiled_foreach_implIfZL26convolution_backward_inputP11hb_tensor_tS1_S1_P11hb_vector_tS3_EUlvE_JEEvjjT0_8HBTensorIT_Lln1EEPS7_.isra.0>
    b80c:	01069a13          	slli	x20,x13,0x10
    b810:	4100fbb7          	lui	x23,0x4100f
    b814:	009a0cb3          	add	x25,x20,x9
    b818:	ad9bac23          	sw	x25,-1320(x23) # 4100ead8 <.L2120+0x410010fc>

0000b81c <.L2011>:
    b81c:	0000006f          	j	b81c <.L2011>

0000b820 <.L2392>:
    b820:	000000b7          	lui	x1,0x0
    b824:	00000f37          	lui	x30,0x0
    b828:	00008593          	mv	x11,x1
    b82c:	06f00613          	li	x12,111
    b830:	000f0513          	mv	x10,x30
    b834:	00000097          	auipc	x1,0x0
    b838:	000080e7          	jalr	x1 # b834 <.L2392+0x14>
    b83c:	04c12583          	lw	x11,76(x2)
    b840:	00000eb7          	lui	x29,0x0
    b844:	000e8513          	mv	x10,x29
    b848:	00000097          	auipc	x1,0x0
    b84c:	000080e7          	jalr	x1 # b848 <.L2392+0x28>
    b850:	00000e37          	lui	x28,0x0
    b854:	000e2883          	lw	x17,0(x28) # 0 <_Z21hb_tiled_foreach_implIfZL26convolution_backward_inputP11hb_tensor_tS1_S1_P11hb_vector_tS3_EUlvE_JEEvjjT0_8HBTensorIT_Lln1EEPS7_.isra.0>
    b858:	00000db7          	lui	x27,0x0
    b85c:	000da803          	lw	x16,0(x27) # 0 <_Z21hb_tiled_foreach_implIfZL26convolution_backward_inputP11hb_tensor_tS1_S1_P11hb_vector_tS3_EUlvE_JEEvjjT0_8HBTensorIT_Lln1EEPS7_.isra.0>
    b860:	01089593          	slli	x11,x17,0x10
    b864:	4100fd37          	lui	x26,0x4100f
    b868:	010587b3          	add	x15,x11,x16
    b86c:	acfd2c23          	sw	x15,-1320(x26) # 4100ead8 <.L2120+0x410010fc>

0000b870 <.L2013>:
    b870:	0000006f          	j	b870 <.L2013>

0000b874 <.L2393>:
    b874:	00000cb7          	lui	x25,0x0
    b878:	00000bb7          	lui	x23,0x0
    b87c:	06f00613          	li	x12,111
    b880:	000c8593          	mv	x11,x25
    b884:	000b8513          	mv	x10,x23
    b888:	00000097          	auipc	x1,0x0
    b88c:	000080e7          	jalr	x1 # b888 <.L2393+0x14>
    b890:	04c12583          	lw	x11,76(x2)
    b894:	00000937          	lui	x18,0x0
    b898:	00090513          	mv	x10,x18
    b89c:	00000097          	auipc	x1,0x0
    b8a0:	000080e7          	jalr	x1 # b89c <.L2393+0x28>
    b8a4:	000002b7          	lui	x5,0x0
    b8a8:	0002aa83          	lw	x21,0(x5) # 0 <_Z21hb_tiled_foreach_implIfZL26convolution_backward_inputP11hb_tensor_tS1_S1_P11hb_vector_tS3_EUlvE_JEEvjjT0_8HBTensorIT_Lln1EEPS7_.isra.0>
    b8ac:	00000b37          	lui	x22,0x0
    b8b0:	000b2f83          	lw	x31,0(x22) # 0 <_Z21hb_tiled_foreach_implIfZL26convolution_backward_inputP11hb_tensor_tS1_S1_P11hb_vector_tS3_EUlvE_JEEvjjT0_8HBTensorIT_Lln1EEPS7_.isra.0>
    b8b4:	010a9c13          	slli	x24,x21,0x10
    b8b8:	4100f437          	lui	x8,0x4100f
    b8bc:	01fc09b3          	add	x19,x24,x31
    b8c0:	ad342c23          	sw	x19,-1320(x8) # 4100ead8 <.L2120+0x410010fc>

0000b8c4 <.L2015>:
    b8c4:	0000006f          	j	b8c4 <.L2015>

0000b8c8 <.L2394>:
    b8c8:	000007b7          	lui	x15,0x0
    b8cc:	00000d37          	lui	x26,0x0
    b8d0:	00078593          	mv	x11,x15
    b8d4:	06f00613          	li	x12,111
    b8d8:	000d0513          	mv	x10,x26
    b8dc:	00000097          	auipc	x1,0x0
    b8e0:	000080e7          	jalr	x1 # b8dc <.L2394+0x14>
    b8e4:	04c12583          	lw	x11,76(x2)
    b8e8:	00000637          	lui	x12,0x0
    b8ec:	00060513          	mv	x10,x12
    b8f0:	00000097          	auipc	x1,0x0
    b8f4:	000080e7          	jalr	x1 # b8f0 <.L2394+0x28>
    b8f8:	00000337          	lui	x6,0x0
    b8fc:	00032503          	lw	x10,0(x6) # 0 <_Z21hb_tiled_foreach_implIfZL26convolution_backward_inputP11hb_tensor_tS1_S1_P11hb_vector_tS3_EUlvE_JEEvjjT0_8HBTensorIT_Lln1EEPS7_.isra.0>
    b900:	00000737          	lui	x14,0x0
    b904:	00072683          	lw	x13,0(x14) # 0 <_Z21hb_tiled_foreach_implIfZL26convolution_backward_inputP11hb_tensor_tS1_S1_P11hb_vector_tS3_EUlvE_JEEvjjT0_8HBTensorIT_Lln1EEPS7_.isra.0>
    b908:	01051393          	slli	x7,x10,0x10
    b90c:	4100fa37          	lui	x20,0x4100f
    b910:	00d384b3          	add	x9,x7,x13
    b914:	ac9a2c23          	sw	x9,-1320(x20) # 4100ead8 <.L2120+0x410010fc>

0000b918 <.L2017>:
    b918:	0000006f          	j	b918 <.L2017>

0000b91c <.L2395>:
    b91c:	000000b7          	lui	x1,0x0
    b920:	000009b7          	lui	x19,0x0
    b924:	00008593          	mv	x11,x1
    b928:	06f00613          	li	x12,111
    b92c:	00098513          	mv	x10,x19
    b930:	00000097          	auipc	x1,0x0
    b934:	000080e7          	jalr	x1 # b930 <.L2395+0x14>
    b938:	08012583          	lw	x11,128(x2)
    b93c:	00000437          	lui	x8,0x0
    b940:	00040513          	mv	x10,x8
    b944:	00000097          	auipc	x1,0x0
    b948:	000080e7          	jalr	x1 # b944 <.L2395+0x28>
    b94c:	00000f37          	lui	x30,0x0
    b950:	000f2e83          	lw	x29,0(x30) # 0 <_Z21hb_tiled_foreach_implIfZL26convolution_backward_inputP11hb_tensor_tS1_S1_P11hb_vector_tS3_EUlvE_JEEvjjT0_8HBTensorIT_Lln1EEPS7_.isra.0>
    b954:	00000e37          	lui	x28,0x0
    b958:	000e2883          	lw	x17,0(x28) # 0 <_Z21hb_tiled_foreach_implIfZL26convolution_backward_inputP11hb_tensor_tS1_S1_P11hb_vector_tS3_EUlvE_JEEvjjT0_8HBTensorIT_Lln1EEPS7_.isra.0>
    b95c:	010e9d93          	slli	x27,x29,0x10
    b960:	4100f5b7          	lui	x11,0x4100f
    b964:	011d8833          	add	x16,x27,x17
    b968:	ad05ac23          	sw	x16,-1320(x11) # 4100ead8 <.L2120+0x410010fc>

0000b96c <.L2019>:
    b96c:	0000006f          	j	b96c <.L2019>

0000b970 <.L2396>:
    b970:	000004b7          	lui	x9,0x0
    b974:	00000a37          	lui	x20,0x0
    b978:	06f00613          	li	x12,111
    b97c:	00048593          	mv	x11,x9
    b980:	000a0513          	mv	x10,x20
    b984:	00000097          	auipc	x1,0x0
    b988:	000080e7          	jalr	x1 # b984 <.L2396+0x14>
    b98c:	08012583          	lw	x11,128(x2)
    b990:	00000cb7          	lui	x25,0x0
    b994:	000c8513          	mv	x10,x25
    b998:	00000097          	auipc	x1,0x0
    b99c:	000080e7          	jalr	x1 # b998 <.L2396+0x28>
    b9a0:	00000bb7          	lui	x23,0x0
    b9a4:	000ba903          	lw	x18,0(x23) # 0 <_Z21hb_tiled_foreach_implIfZL26convolution_backward_inputP11hb_tensor_tS1_S1_P11hb_vector_tS3_EUlvE_JEEvjjT0_8HBTensorIT_Lln1EEPS7_.isra.0>
    b9a8:	000002b7          	lui	x5,0x0
    b9ac:	0002aa83          	lw	x21,0(x5) # 0 <_Z21hb_tiled_foreach_implIfZL26convolution_backward_inputP11hb_tensor_tS1_S1_P11hb_vector_tS3_EUlvE_JEEvjjT0_8HBTensorIT_Lln1EEPS7_.isra.0>
    b9b0:	01091b13          	slli	x22,x18,0x10
    b9b4:	4100fc37          	lui	x24,0x4100f
    b9b8:	015b0fb3          	add	x31,x22,x21
    b9bc:	adfc2c23          	sw	x31,-1320(x24) # 4100ead8 <.L2120+0x410010fc>

0000b9c0 <.L2021>:
    b9c0:	0000006f          	j	b9c0 <.L2021>

0000b9c4 <.L2397>:
    b9c4:	02000b93          	li	x23,32
    b9c8:	997d1063          	bne	x26,x23,ab48 <.L2022>
    b9cc:	97ad9e63          	bne	x27,x26,ab48 <.L2022>
    b9d0:	97b09c63          	bne	x1,x27,ab48 <.L2022>
    b9d4:	01000593          	li	x11,16
    b9d8:	96bf1863          	bne	x30,x11,ab48 <.L2022>
    b9dc:	96161663          	bne	x12,x1,ab48 <.L2022>
    b9e0:	96c29463          	bne	x5,x12,ab48 <.L2022>
    b9e4:	00300813          	li	x16,3
    b9e8:	97069063          	bne	x13,x16,ab48 <.L2022>
    b9ec:	94d39e63          	bne	x7,x13,ab48 <.L2022>
    b9f0:	00100513          	li	x10,1
    b9f4:	94a71a63          	bne	x14,x10,ab48 <.L2022>
    b9f8:	94ea9863          	bne	x21,x14,ab48 <.L2022>
    b9fc:	00100e93          	li	x29,1
    ba00:	95d79463          	bne	x15,x29,ab48 <.L2022>
    ba04:	94fb1263          	bne	x22,x15,ab48 <.L2022>
    ba08:	00000ab7          	lui	x21,0x0
    ba0c:	00000d37          	lui	x26,0x0
    ba10:	00000cb7          	lui	x25,0x0
    ba14:	00000db7          	lui	x27,0x0
    ba18:	000aab03          	lw	x22,0(x21) # 0 <_Z21hb_tiled_foreach_implIfZL26convolution_backward_inputP11hb_tensor_tS1_S1_P11hb_vector_tS3_EUlvE_JEEvjjT0_8HBTensorIT_Lln1EEPS7_.isra.0>
    ba1c:	000d2c03          	lw	x24,0(x26) # 0 <_Z21hb_tiled_foreach_implIfZL26convolution_backward_inputP11hb_tensor_tS1_S1_P11hb_vector_tS3_EUlvE_JEEvjjT0_8HBTensorIT_Lln1EEPS7_.isra.0>
    ba20:	000daf03          	lw	x30,0(x27) # 0 <_Z21hb_tiled_foreach_implIfZL26convolution_backward_inputP11hb_tensor_tS1_S1_P11hb_vector_tS3_EUlvE_JEEvjjT0_8HBTensorIT_Lln1EEPS7_.isra.0>
    ba24:	000ca083          	lw	x1,0(x25) # 0 <_Z21hb_tiled_foreach_implIfZL26convolution_backward_inputP11hb_tensor_tS1_S1_P11hb_vector_tS3_EUlvE_JEEvjjT0_8HBTensorIT_Lln1EEPS7_.isra.0>
    ba28:	000006b7          	lui	x13,0x0
    ba2c:	0006a803          	lw	x16,0(x13) # 0 <_Z21hb_tiled_foreach_implIfZL26convolution_backward_inputP11hb_tensor_tS1_S1_P11hb_vector_tS3_EUlvE_JEEvjjT0_8HBTensorIT_Lln1EEPS7_.isra.0>
    ba30:	018b05b3          	add	x11,x22,x24
    ba34:	001f0533          	add	x10,x30,x1
    ba38:	01859e13          	slli	x28,x11,0x18
    ba3c:	01251293          	slli	x5,x10,0x12
    ba40:	3f0007b7          	lui	x15,0x3f000
    ba44:	00fc0737          	lui	x14,0xfc0
    ba48:	000403b7          	lui	x7,0x40
    ba4c:	00fe7fb3          	and	x31,x28,x15
    ba50:	00e2fbb3          	and	x23,x5,x14
    ba54:	00481613          	slli	x12,x16,0x4
    ba58:	ff038893          	addi	x17,x7,-16 # 3fff0 <.L2120+0x32614>
    ba5c:	0104ac03          	lw	x24,16(x9) # 10 <_Z21hb_tiled_foreach_implIfZL26convolution_backward_inputP11hb_tensor_tS1_S1_P11hb_vector_tS3_EUlvE_JEEvjjT0_8HBTensorIT_Lln1EEPS7_.isra.0+0x10>
    ba60:	01167333          	and	x6,x12,x17
    ba64:	017fe4b3          	or	x9,x31,x23
    ba68:	0064e9b3          	or	x19,x9,x6
    ba6c:	80000eb7          	lui	x29,0x80000
    ba70:	01092f83          	lw	x31,16(x18) # 10 <_Z21hb_tiled_foreach_implIfZL26convolution_backward_inputP11hb_tensor_tS1_S1_P11hb_vector_tS3_EUlvE_JEEvjjT0_8HBTensorIT_Lln1EEPS7_.isra.0+0x10>
    ba74:	01d9ea33          	or	x20,x19,x29
    ba78:	41001937          	lui	x18,0x41001
    ba7c:	01042a83          	lw	x21,16(x8) # 10 <_Z21hb_tiled_foreach_implIfZL26convolution_backward_inputP11hb_tensor_tS1_S1_P11hb_vector_tS3_EUlvE_JEEvjjT0_8HBTensorIT_Lln1EEPS7_.isra.0+0x10>
    ba80:	000c0b13          	mv	x22,x24
    ba84:	d1492623          	sw	x20,-756(x18) # 41000d0c <.L2120+0x40ff3330>
    ba88:	080c0413          	addi	x8,x24,128

0000ba8c <.L2026>:
    ba8c:	000c2023          	sw	x0,0(x24)
    ba90:	004c0c13          	addi	x24,x24,4
    ba94:	fe8c1ce3          	bne	x24,x8,ba8c <.L2026>
    ba98:	000cad83          	lw	x27,0(x25)
    ba9c:	000d2f03          	lw	x30,0(x26)
    baa0:	000006b7          	lui	x13,0x0
    baa4:	004d8093          	addi	x1,x27,4
    baa8:	00068493          	mv	x9,x13
    baac:	00148833          	add	x16,x9,x1
    bab0:	018f1593          	slli	x11,x30,0x18
    bab4:	00b86533          	or	x10,x16,x11
    bab8:	201c0e37          	lui	x28,0x201c0
    babc:	01c562b3          	or	x5,x10,x28
    bac0:	00100793          	li	x15,1
    bac4:	00f28023          	sb	x15,0(x5)
    bac8:	000ca703          	lw	x14,0(x25)
    bacc:	00700b93          	li	x23,7
    bad0:	31770863          	beq	x14,x23,bde0 <.L2422>

0000bad4 <.L2036>:
    bad4:	00100813          	li	x16,1
    bad8:	0100006f          	j	bae8 <.L2041>

0000badc <.L2423>:
    badc:	00068513          	mv	x10,x13
    bae0:	14052e2f          	lr.w.aq	x28,(x10)
    bae4:	010e0a63          	beq	x28,x16,baf8 <.L2040>

0000bae8 <.L2041>:
    bae8:	000006b7          	lui	x13,0x0
    baec:	00068993          	mv	x19,x13
    baf0:	1009a5af          	lr.w	x11,(x19)
    baf4:	ff0594e3          	bne	x11,x16,badc <.L2423>

0000baf8 <.L2040>:
    baf8:	000002b7          	lui	x5,0x0
    bafc:	0002a783          	lw	x15,0(x5) # 0 <_Z21hb_tiled_foreach_implIfZL26convolution_backward_inputP11hb_tensor_tS1_S1_P11hb_vector_tS3_EUlvE_JEEvjjT0_8HBTensorIT_Lln1EEPS7_.isra.0>
    bb00:	02500713          	li	x14,37
    bb04:	000013b7          	lui	x7,0x1
    bb08:	07f7fb93          	andi	x23,x15,127
    bb0c:	02eb8633          	mul	x12,x23,x14
    bb10:	0004a023          	sw	x0,0(x9)
    bb14:	20038893          	addi	x17,x7,512 # 1200 <.L225+0x24>
    bb18:	00c12023          	sw	x12,0(x2)
    bb1c:	02560093          	addi	x1,x12,37 # 25 <.L8+0x11>
    bb20:	0018f463          	bgeu	x17,x1,bb28 <.L2042>
    bb24:	00088093          	mv	x1,x17

0000bb28 <.L2042>:
    bb28:	00000913          	li	x18,0
    bb2c:	09000c13          	li	x24,144
    bb30:	00900993          	li	x19,9
    bb34:	00300413          	li	x8,3
    bb38:	01f00f13          	li	x30,31
    bb3c:	fff00e93          	li	x29,-1
    bb40:	02000e13          	li	x28,32

0000bb44 <.L2045>:
    bb44:	00012303          	lw	x6,0(x2)
    bb48:	00191a13          	slli	x20,x18,0x1
    bb4c:	00030393          	mv	x7,x6
    bb50:	0e137063          	bgeu	x6,x1,bc30 <.L2051>

0000bb54 <.L2052>:
    bb54:	0283d6b3          	divu	x13,x7,x8
    bb58:	0333d833          	divu	x16,x7,x19
    bb5c:	0383ddb3          	divu	x27,x7,x24
    bb60:	00f87613          	andi	x12,x16,15
    bb64:	00361893          	slli	x17,x12,0x3
    bb68:	00c88833          	add	x16,x17,x12
    bb6c:	00a61793          	slli	x15,x12,0xa
    bb70:	012787b3          	add	x15,x15,x18
    bb74:	0286f733          	remu	x14,x13,x8
    bb78:	003d9513          	slli	x10,x27,0x3
    bb7c:	01b502b3          	add	x5,x10,x27
    bb80:	00ad9593          	slli	x11,x27,0xa
    bb84:	014585b3          	add	x11,x11,x20
    bb88:	00429b93          	slli	x23,x5,0x4
    bb8c:	00259513          	slli	x10,x11,0x2
    bb90:	40aa8db3          	sub	x27,x21,x10
    bb94:	40058293          	addi	x5,x11,1024
    bb98:	0283f333          	remu	x6,x7,x8
    bb9c:	00571893          	slli	x17,x14,0x5
    bba0:	00171693          	slli	x13,x14,0x1
    bba4:	00e68633          	add	x12,x13,x14
    bba8:	fff70693          	addi	x13,x14,-1 # fbffff <.L2120+0xfb2623>
    bbac:	006888b3          	add	x17,x17,x6
    bbb0:	006b8bb3          	add	x23,x23,x6
    bbb4:	011787b3          	add	x15,x15,x17
    bbb8:	010b8733          	add	x14,x23,x16
    bbbc:	00279813          	slli	x16,x15,0x2
    bbc0:	00c70633          	add	x12,x14,x12
    bbc4:	01b80db3          	add	x27,x16,x27
    bbc8:	00261b93          	slli	x23,x12,0x2
    bbcc:	f80d8893          	addi	x17,x27,-128
    bbd0:	017b0633          	add	x12,x22,x23
    bbd4:	fff30d93          	addi	x27,x6,-1
    bbd8:	41f88bb3          	sub	x23,x17,x31
    bbdc:	01f30313          	addi	x6,x6,31

0000bbe0 <.L2050>:
    bbe0:	00af8733          	add	x14,x31,x10
    bbe4:	000d8793          	mv	x15,x27

0000bbe8 <.L2049>:
    bbe8:	02df6263          	bltu	x30,x13,bc0c <.L2046>
    bbec:	2dd78463          	beq	x15,x29,beb4 <.L2047>
    bbf0:	01770833          	add	x16,x14,x23
    bbf4:	01c78c63          	beq	x15,x28,bc0c <.L2046>
    bbf8:	00072e87          	flw	f29,0(x14)
    bbfc:	ffc82f07          	flw	f30,-4(x16)
    bc00:	00062f87          	flw	f31,0(x12)
    bc04:	f9eef6c3          	fmadd.s	f13,f29,f30,f31
    bc08:	00d62027          	fsw	f13,0(x12)

0000bc0c <.L2046>:
    bc0c:	00178793          	addi	x15,x15,1 # 3f000001 <.L2120+0x3eff2625>
    bc10:	00470713          	addi	x14,x14,4
    bc14:	fc679ae3          	bne	x15,x6,bbe8 <.L2049>
    bc18:	02058593          	addi	x11,x11,32
    bc1c:	08050513          	addi	x10,x10,128 # 80 <.L75+0x14>
    bc20:	00168693          	addi	x13,x13,1 # 1 <_Z21hb_tiled_foreach_implIfZL26convolution_backward_inputP11hb_tensor_tS1_S1_P11hb_vector_tS3_EUlvE_JEEvjjT0_8HBTensorIT_Lln1EEPS7_.isra.0+0x1>
    bc24:	fa559ee3          	bne	x11,x5,bbe0 <.L2050>
    bc28:	00138393          	addi	x7,x7,1
    bc2c:	f21394e3          	bne	x7,x1,bb54 <.L2052>

0000bc30 <.L2051>:
    bc30:	00004a37          	lui	x20,0x4
    bc34:	01490933          	add	x18,x18,x20
    bc38:	000202b7          	lui	x5,0x20
    bc3c:	f05914e3          	bne	x18,x5,bb44 <.L2045>
    bc40:	00000ab7          	lui	x21,0x0
    bc44:	000000b7          	lui	x1,0x0
    bc48:	000aab03          	lw	x22,0(x21) # 0 <_Z21hb_tiled_foreach_implIfZL26convolution_backward_inputP11hb_tensor_tS1_S1_P11hb_vector_tS3_EUlvE_JEEvjjT0_8HBTensorIT_Lln1EEPS7_.isra.0>
    bc4c:	0000ac03          	lw	x24,0(x1) # 0 <_Z21hb_tiled_foreach_implIfZL26convolution_backward_inputP11hb_tensor_tS1_S1_P11hb_vector_tS3_EUlvE_JEEvjjT0_8HBTensorIT_Lln1EEPS7_.isra.0>
    bc50:	000d2f83          	lw	x31,0(x26)
    bc54:	000ca983          	lw	x19,0(x25)
    bc58:	00000437          	lui	x8,0x0
    bc5c:	00042f03          	lw	x30,0(x8) # 0 <_Z21hb_tiled_foreach_implIfZL26convolution_backward_inputP11hb_tensor_tS1_S1_P11hb_vector_tS3_EUlvE_JEEvjjT0_8HBTensorIT_Lln1EEPS7_.isra.0>
    bc60:	01fb0eb3          	add	x29,x22,x31
    bc64:	013c0e33          	add	x28,x24,x19
    bc68:	018e9893          	slli	x17,x29,0x18
    bc6c:	012e1d93          	slli	x27,x28,0x12
    bc70:	3f000637          	lui	x12,0x3f000
    bc74:	00fc0bb7          	lui	x23,0xfc0
    bc78:	000405b7          	lui	x11,0x40
    bc7c:	00c8f333          	and	x6,x17,x12
    bc80:	004f1813          	slli	x16,x30,0x4
    bc84:	017df733          	and	x14,x27,x23
    bc88:	ff058513          	addi	x10,x11,-16 # 3fff0 <.L2120+0x32614>
    bc8c:	00e367b3          	or	x15,x6,x14
    bc90:	00a876b3          	and	x13,x16,x10
    bc94:	00d7e3b3          	or	x7,x15,x13
    bc98:	c0000a37          	lui	x20,0xc0000
    bc9c:	0143e933          	or	x18,x7,x20
    bca0:	410012b7          	lui	x5,0x41001
    bca4:	d122a623          	sw	x18,-756(x5) # 41000d0c <.L2120+0x40ff3330>
    bca8:	000caa83          	lw	x21,0(x25)
    bcac:	000d2b03          	lw	x22,0(x26)
    bcb0:	201c0437          	lui	x8,0x201c0
    bcb4:	004a8f93          	addi	x31,x21,4
    bcb8:	01f480b3          	add	x1,x9,x31
    bcbc:	018b1c13          	slli	x24,x22,0x18
    bcc0:	0180e9b3          	or	x19,x1,x24
    bcc4:	0089ef33          	or	x30,x19,x8
    bcc8:	00100e93          	li	x29,1
    bccc:	01df0023          	sb	x29,0(x30)
    bcd0:	000cae03          	lw	x28,0(x25)
    bcd4:	00700893          	li	x17,7
    bcd8:	031e0a63          	beq	x28,x17,bd0c <.L2424>

0000bcdc <.L2062>:
    bcdc:	00100d13          	li	x26,1
    bce0:	0100006f          	j	bcf0 <.L2067>

0000bce4 <.L2425>:
    bce4:	00030693          	mv	x13,x6
    bce8:	1406a3af          	lr.w.aq	x7,(x13)
    bcec:	01a38a63          	beq	x7,x26,bd00 <.L2066>

0000bcf0 <.L2067>:
    bcf0:	00000337          	lui	x6,0x0
    bcf4:	00030713          	mv	x14,x6
    bcf8:	1007252f          	lr.w	x10,(x14)
    bcfc:	ffa514e3          	bne	x10,x26,bce4 <.L2425>

0000bd00 <.L2066>:
    bd00:	0004a023          	sw	x0,0(x9)
    bd04:	00000513          	li	x10,0
    bd08:	808ff06f          	j	ad10 <.L1939>

0000bd0c <.L2424>:
    bd0c:	00000db7          	lui	x27,0x0
    bd10:	00000337          	lui	x6,0x0
    bd14:	004d8613          	addi	x12,x27,4 # 4 <_Z21hb_tiled_foreach_implIfZL26convolution_backward_inputP11hb_tensor_tS1_S1_P11hb_vector_tS3_EUlvE_JEEvjjT0_8HBTensorIT_Lln1EEPS7_.isra.0+0x4>
    bd18:	01430b93          	addi	x23,x6,20 # 14 <.L8>

0000bd1c <.L2054>:
    bd1c:	00060813          	mv	x16,x12

0000bd20 <.L2056>:
    bd20:	00084703          	lbu	x14,0(x16)
    bd24:	00180813          	addi	x16,x16,1
    bd28:	0ff77793          	andi	x15,x14,255
    bd2c:	fe0788e3          	beqz	x15,bd1c <.L2054>
    bd30:	ff0b98e3          	bne	x23,x16,bd20 <.L2056>
    bd34:	000d2583          	lw	x11,0(x26)
    bd38:	231c03b7          	lui	x7,0x231c0
    bd3c:	00100913          	li	x18,1
    bd40:	01858513          	addi	x10,x11,24
    bd44:	00a486b3          	add	x13,x9,x10
    bd48:	0076ea33          	or	x20,x13,x7
    bd4c:	012a0023          	sb	x18,0(x20) # c0000000 <.L2120+0xbfff2624>
    bd50:	000ca283          	lw	x5,0(x25)
    bd54:	00700a93          	li	x21,7
    bd58:	f95292e3          	bne	x5,x21,bcdc <.L2062>
    bd5c:	000d2b03          	lw	x22,0(x26)
    bd60:	00300f93          	li	x31,3
    bd64:	29fb0e63          	beq	x22,x31,c000 <.L2426>

0000bd68 <.L2061>:
    bd68:	00100913          	li	x18,1
    bd6c:	0100006f          	j	bd7c <.L2058>

0000bd70 <.L2427>:
    bd70:	01448b13          	addi	x22,x9,20
    bd74:	140b2faf          	lr.w.aq	x31,(x22)
    bd78:	012f8863          	beq	x31,x18,bd88 <.L2063>

0000bd7c <.L2058>:
    bd7c:	01448293          	addi	x5,x9,20
    bd80:	1002aaaf          	lr.w	x21,(x5)
    bd84:	ff2a96e3          	bne	x21,x18,bd70 <.L2427>

0000bd88 <.L2063>:
    bd88:	0004aa23          	sw	x0,20(x9)
    bd8c:	00000993          	li	x19,0
    bd90:	01000093          	li	x1,16

0000bd94 <.L2064>:
    bd94:	01348c33          	add	x24,x9,x19
    bd98:	000c0223          	sb	x0,4(x24)
    bd9c:	00198993          	addi	x19,x19,1 # 1 <_Z21hb_tiled_foreach_implIfZL26convolution_backward_inputP11hb_tensor_tS1_S1_P11hb_vector_tS3_EUlvE_JEEvjjT0_8HBTensorIT_Lln1EEPS7_.isra.0+0x1>
    bda0:	fe199ae3          	bne	x19,x1,bd94 <.L2064>
    bda4:	0004a023          	sw	x0,0(x9)
    bda8:	00000813          	li	x16,0
    bdac:	20000437          	lui	x8,0x20000
    bdb0:	00100f13          	li	x30,1
    bdb4:	00040eb7          	lui	x29,0x40
    bdb8:	00400e37          	lui	x28,0x400

0000bdbc <.L2065>:
    bdbc:	000d2883          	lw	x17,0(x26)
    bdc0:	0104edb3          	or	x27,x9,x16
    bdc4:	01d80833          	add	x16,x16,x29
    bdc8:	01889593          	slli	x11,x17,0x18
    bdcc:	01b5e633          	or	x12,x11,x27
    bdd0:	008667b3          	or	x15,x12,x8
    bdd4:	01e7a023          	sw	x30,0(x15)
    bdd8:	ffc812e3          	bne	x16,x28,bdbc <.L2065>
    bddc:	f01ff06f          	j	bcdc <.L2062>

0000bde0 <.L2422>:
    bde0:	00000637          	lui	x12,0x0
    bde4:	000008b7          	lui	x17,0x0
    bde8:	00460393          	addi	x7,x12,4 # 4 <_Z21hb_tiled_foreach_implIfZL26convolution_backward_inputP11hb_tensor_tS1_S1_P11hb_vector_tS3_EUlvE_JEEvjjT0_8HBTensorIT_Lln1EEPS7_.isra.0+0x4>
    bdec:	01488993          	addi	x19,x17,20 # 14 <.L8>

0000bdf0 <.L2028>:
    bdf0:	00038e93          	mv	x29,x7

0000bdf4 <.L2030>:
    bdf4:	000ec303          	lbu	x6,0(x29) # 40000 <.L2120+0x32624>
    bdf8:	001e8e93          	addi	x29,x29,1
    bdfc:	0ff37a13          	andi	x20,x6,255
    be00:	fe0a08e3          	beqz	x20,bdf0 <.L2028>
    be04:	ffd998e3          	bne	x19,x29,bdf4 <.L2030>
    be08:	000d2903          	lw	x18,0(x26)
    be0c:	231c0db7          	lui	x27,0x231c0
    be10:	00100093          	li	x1,1
    be14:	01890413          	addi	x8,x18,24
    be18:	00848c33          	add	x24,x9,x8
    be1c:	01bc6f33          	or	x30,x24,x27
    be20:	001f0023          	sb	x1,0(x30)
    be24:	000ca683          	lw	x13,0(x25)
    be28:	00700813          	li	x16,7
    be2c:	cb0694e3          	bne	x13,x16,bad4 <.L2036>
    be30:	000d2583          	lw	x11,0(x26)
    be34:	00300513          	li	x10,3
    be38:	12a58863          	beq	x11,x10,bf68 <.L2428>

0000be3c <.L2035>:
    be3c:	00100513          	li	x10,1
    be40:	0100006f          	j	be50 <.L2032>

0000be44 <.L2429>:
    be44:	01448793          	addi	x15,x9,20
    be48:	1407abaf          	lr.w.aq	x23,(x15)
    be4c:	00ab8863          	beq	x23,x10,be5c <.L2037>

0000be50 <.L2032>:
    be50:	01448e13          	addi	x28,x9,20
    be54:	100e22af          	lr.w	x5,(x28)
    be58:	fea296e3          	bne	x5,x10,be44 <.L2429>

0000be5c <.L2037>:
    be5c:	0004aa23          	sw	x0,20(x9)
    be60:	00000393          	li	x7,0
    be64:	01000713          	li	x14,16

0000be68 <.L2038>:
    be68:	00748633          	add	x12,x9,x7
    be6c:	00060223          	sb	x0,4(x12)
    be70:	00138393          	addi	x7,x7,1 # 231c0001 <.L2120+0x231b2625>
    be74:	fee39ae3          	bne	x7,x14,be68 <.L2038>
    be78:	0004a023          	sw	x0,0(x9)
    be7c:	00000313          	li	x6,0
    be80:	200008b7          	lui	x17,0x20000
    be84:	00100e93          	li	x29,1
    be88:	00040a37          	lui	x20,0x40
    be8c:	00400937          	lui	x18,0x400

0000be90 <.L2039>:
    be90:	000d2403          	lw	x8,0(x26)
    be94:	0064ec33          	or	x24,x9,x6
    be98:	01430333          	add	x6,x6,x20
    be9c:	01841d93          	slli	x27,x8,0x18
    bea0:	018def33          	or	x30,x27,x24
    bea4:	011f60b3          	or	x1,x30,x17
    bea8:	01d0a023          	sw	x29,0(x1)
    beac:	ff2312e3          	bne	x6,x18,be90 <.L2039>
    beb0:	c25ff06f          	j	bad4 <.L2036>

0000beb4 <.L2047>:
    beb4:	00470713          	addi	x14,x14,4
    beb8:	00000793          	li	x15,0
    bebc:	d2dff06f          	j	bbe8 <.L2049>

0000bec0 <.L2398>:
    bec0:	00000737          	lui	x14,0x0
    bec4:	00000437          	lui	x8,0x0
    bec8:	00070593          	mv	x11,x14
    becc:	06f00613          	li	x12,111
    bed0:	00040513          	mv	x10,x8
    bed4:	00000097          	auipc	x1,0x0
    bed8:	000080e7          	jalr	x1 # bed4 <.L2398+0x14>
    bedc:	01812583          	lw	x11,24(x2)
    bee0:	00000637          	lui	x12,0x0
    bee4:	00060513          	mv	x10,x12
    bee8:	00000097          	auipc	x1,0x0
    beec:	000080e7          	jalr	x1 # bee8 <.L2398+0x28>
    bef0:	00000bb7          	lui	x23,0x0
    bef4:	000ba383          	lw	x7,0(x23) # 0 <_Z21hb_tiled_foreach_implIfZL26convolution_backward_inputP11hb_tensor_tS1_S1_P11hb_vector_tS3_EUlvE_JEEvjjT0_8HBTensorIT_Lln1EEPS7_.isra.0>
    bef8:	000008b7          	lui	x17,0x0
    befc:	0008a303          	lw	x6,0(x17) # 0 <_Z21hb_tiled_foreach_implIfZL26convolution_backward_inputP11hb_tensor_tS1_S1_P11hb_vector_tS3_EUlvE_JEEvjjT0_8HBTensorIT_Lln1EEPS7_.isra.0>
    bf00:	01039993          	slli	x19,x7,0x10
    bf04:	4100fa37          	lui	x20,0x4100f
    bf08:	00698eb3          	add	x29,x19,x6
    bf0c:	adda2c23          	sw	x29,-1320(x20) # 4100ead8 <.L2120+0x410010fc>

0000bf10 <.L2068>:
    bf10:	0000006f          	j	bf10 <.L2068>

0000bf14 <.L2399>:
    bf14:	000000b7          	lui	x1,0x0
    bf18:	000006b7          	lui	x13,0x0
    bf1c:	00008593          	mv	x11,x1
    bf20:	06f00613          	li	x12,111
    bf24:	00068513          	mv	x10,x13
    bf28:	00000097          	auipc	x1,0x0
    bf2c:	000080e7          	jalr	x1 # bf28 <.L2399+0x14>
    bf30:	01812583          	lw	x11,24(x2)
    bf34:	00000837          	lui	x16,0x0
    bf38:	00080513          	mv	x10,x16
    bf3c:	00000097          	auipc	x1,0x0
    bf40:	000080e7          	jalr	x1 # bf3c <.L2399+0x28>
    bf44:	000005b7          	lui	x11,0x0
    bf48:	0005a483          	lw	x9,0(x11) # 0 <_Z21hb_tiled_foreach_implIfZL26convolution_backward_inputP11hb_tensor_tS1_S1_P11hb_vector_tS3_EUlvE_JEEvjjT0_8HBTensorIT_Lln1EEPS7_.isra.0>
    bf4c:	00000537          	lui	x10,0x0
    bf50:	00052e03          	lw	x28,0(x10) # 0 <_Z21hb_tiled_foreach_implIfZL26convolution_backward_inputP11hb_tensor_tS1_S1_P11hb_vector_tS3_EUlvE_JEEvjjT0_8HBTensorIT_Lln1EEPS7_.isra.0>
    bf54:	01049793          	slli	x15,x9,0x10
    bf58:	4100ffb7          	lui	x31,0x4100f
    bf5c:	01c782b3          	add	x5,x15,x28
    bf60:	ac5fac23          	sw	x5,-1320(x31) # 4100ead8 <.L2120+0x410010fc>

0000bf64 <.L2070>:
    bf64:	0000006f          	j	bf64 <.L2070>

0000bf68 <.L2428>:
    bf68:	00000e37          	lui	x28,0x0
    bf6c:	000007b7          	lui	x15,0x0
    bf70:	018e0293          	addi	x5,x28,24 # 18 <.L8+0x4>
    bf74:	02078b93          	addi	x23,x15,32 # 20 <.L8+0xc>

0000bf78 <.L2031>:
    bf78:	00028613          	mv	x12,x5

0000bf7c <.L2033>:
    bf7c:	00064703          	lbu	x14,0(x12) # 0 <_Z21hb_tiled_foreach_implIfZL26convolution_backward_inputP11hb_tensor_tS1_S1_P11hb_vector_tS3_EUlvE_JEEvjjT0_8HBTensorIT_Lln1EEPS7_.isra.0>
    bf80:	00160613          	addi	x12,x12,1
    bf84:	0ff77393          	andi	x7,x14,255
    bf88:	fe0388e3          	beqz	x7,bf78 <.L2031>
    bf8c:	fecb98e3          	bne	x23,x12,bf7c <.L2033>
    bf90:	00048c23          	sb	x0,24(x9)
    bf94:	00048ca3          	sb	x0,25(x9)
    bf98:	00048d23          	sb	x0,26(x9)
    bf9c:	00048da3          	sb	x0,27(x9)
    bfa0:	00048e23          	sb	x0,28(x9)
    bfa4:	00048ea3          	sb	x0,29(x9)
    bfa8:	00048f23          	sb	x0,30(x9)
    bfac:	00048fa3          	sb	x0,31(x9)
    bfb0:	0004aa23          	sw	x0,20(x9)
    bfb4:	00000d93          	li	x27,0
    bfb8:	03fc08b7          	lui	x17,0x3fc0
    bfbc:	20000eb7          	lui	x29,0x20000
    bfc0:	00100a13          	li	x20,1
    bfc4:	01000937          	lui	x18,0x1000
    bfc8:	08000437          	lui	x8,0x8000

0000bfcc <.L2034>:
    bfcc:	000cac03          	lw	x24,0(x25)
    bfd0:	01b9e333          	or	x6,x19,x27
    bfd4:	012d8db3          	add	x27,x27,x18
    bfd8:	012c1f13          	slli	x30,x24,0x12
    bfdc:	011f70b3          	and	x1,x30,x17
    bfe0:	0060e6b3          	or	x13,x1,x6
    bfe4:	01d6e833          	or	x16,x13,x29
    bfe8:	01482023          	sw	x20,0(x16) # 0 <_Z21hb_tiled_foreach_implIfZL26convolution_backward_inputP11hb_tensor_tS1_S1_P11hb_vector_tS3_EUlvE_JEEvjjT0_8HBTensorIT_Lln1EEPS7_.isra.0>
    bfec:	fe8d90e3          	bne	x27,x8,bfcc <.L2034>
    bff0:	000ca983          	lw	x19,0(x25)
    bff4:	00700593          	li	x11,7
    bff8:	e4b982e3          	beq	x19,x11,be3c <.L2035>
    bffc:	ad9ff06f          	j	bad4 <.L2036>

0000c000 <.L2426>:
    c000:	000000b7          	lui	x1,0x0
    c004:	000009b7          	lui	x19,0x0
    c008:	01808c13          	addi	x24,x1,24 # 18 <.L8+0x4>
    c00c:	02098413          	addi	x8,x19,32 # 20 <.L8+0xc>

0000c010 <.L2057>:
    c010:	000c0e93          	mv	x29,x24

0000c014 <.L2059>:
    c014:	000ecf03          	lbu	x30,0(x29) # 20000000 <.L2120+0x1fff2624>
    c018:	001e8e93          	addi	x29,x29,1
    c01c:	0fff7e13          	andi	x28,x30,255
    c020:	fe0e08e3          	beqz	x28,c010 <.L2057>
    c024:	ffd418e3          	bne	x8,x29,c014 <.L2059>
    c028:	00048c23          	sb	x0,24(x9)
    c02c:	00048ca3          	sb	x0,25(x9)
    c030:	00048d23          	sb	x0,26(x9)
    c034:	00048da3          	sb	x0,27(x9)
    c038:	00048e23          	sb	x0,28(x9)
    c03c:	00048ea3          	sb	x0,29(x9)
    c040:	00048f23          	sb	x0,30(x9)
    c044:	00048fa3          	sb	x0,31(x9)
    c048:	0004aa23          	sw	x0,20(x9)
    c04c:	00000713          	li	x14,0
    c050:	03fc08b7          	lui	x17,0x3fc0
    c054:	20000db7          	lui	x27,0x20000
    c058:	00100813          	li	x16,1
    c05c:	010005b7          	lui	x11,0x1000
    c060:	08000637          	lui	x12,0x8000

0000c064 <.L2060>:
    c064:	000ca783          	lw	x15,0(x25)
    c068:	00ebe333          	or	x6,x23,x14
    c06c:	00b70733          	add	x14,x14,x11
    c070:	01279513          	slli	x10,x15,0x12
    c074:	011576b3          	and	x13,x10,x17
    c078:	0066e3b3          	or	x7,x13,x6
    c07c:	01b3ea33          	or	x20,x7,x27
    c080:	010a2023          	sw	x16,0(x20)
    c084:	fec710e3          	bne	x14,x12,c064 <.L2060>
    c088:	000cac83          	lw	x25,0(x25)
    c08c:	00700b93          	li	x23,7
    c090:	cd7c8ce3          	beq	x25,x23,bd68 <.L2061>
    c094:	c49ff06f          	j	bcdc <.L2062>

0000c098 <.L2411>:
    c098:	08012f03          	lw	x30,128(x2)
    c09c:	08000613          	li	x12,128
    c0a0:	00cf0463          	beq	x30,x12,c0a8 <.L2411+0x10>
    c0a4:	c51fe06f          	j	acf4 <.L2217>
    c0a8:	08412e83          	lw	x29,132(x2)
    c0ac:	010e8463          	beq	x29,x16,c0b4 <.L2411+0x1c>
    c0b0:	c45fe06f          	j	acf4 <.L2217>
    c0b4:	08812703          	lw	x14,136(x2)
    c0b8:	01d70463          	beq	x14,x29,c0c0 <.L2411+0x28>
    c0bc:	c39fe06f          	j	acf4 <.L2217>
    c0c0:	08c12c03          	lw	x24,140(x2)
    c0c4:	04000793          	li	x15,64
    c0c8:	00fc0463          	beq	x24,x15,c0d0 <.L2411+0x38>
    c0cc:	c29fe06f          	j	acf4 <.L2217>
    c0d0:	09012303          	lw	x6,144(x2)
    c0d4:	00e30463          	beq	x6,x14,c0dc <.L2411+0x44>
    c0d8:	c1dfe06f          	j	acf4 <.L2217>
    c0dc:	09412883          	lw	x17,148(x2)
    c0e0:	00688463          	beq	x17,x6,c0e8 <.L2411+0x50>
    c0e4:	c11fe06f          	j	acf4 <.L2217>
    c0e8:	09812503          	lw	x10,152(x2)
    c0ec:	00100c93          	li	x25,1
    c0f0:	01950463          	beq	x10,x25,c0f8 <.L2411+0x60>
    c0f4:	c01fe06f          	j	acf4 <.L2217>
    c0f8:	09c12e03          	lw	x28,156(x2)
    c0fc:	00ae0463          	beq	x28,x10,c104 <.L2411+0x6c>
    c100:	bf5fe06f          	j	acf4 <.L2217>
    c104:	0a012f83          	lw	x31,160(x2)
    c108:	01cf8463          	beq	x31,x28,c110 <.L2411+0x78>
    c10c:	be9fe06f          	j	acf4 <.L2217>
    c110:	0a412d03          	lw	x26,164(x2)
    c114:	00100d93          	li	x27,1
    c118:	01bd0463          	beq	x26,x27,c120 <.L2411+0x88>
    c11c:	bd9fe06f          	j	acf4 <.L2217>
    c120:	0a812083          	lw	x1,168(x2)
    c124:	0ac12283          	lw	x5,172(x2)
    c128:	0050e6b3          	or	x13,x1,x5
    c12c:	00068463          	beqz	x13,c134 <.L2411+0x9c>
    c130:	bc5fe06f          	j	acf4 <.L2217>
    c134:	00000bb7          	lui	x23,0x0
    c138:	00000b37          	lui	x22,0x0
    c13c:	00000ab7          	lui	x21,0x0
    c140:	00000a37          	lui	x20,0x0
    c144:	000ba383          	lw	x7,0(x23) # 0 <_Z21hb_tiled_foreach_implIfZL26convolution_backward_inputP11hb_tensor_tS1_S1_P11hb_vector_tS3_EUlvE_JEEvjjT0_8HBTensorIT_Lln1EEPS7_.isra.0>
    c148:	000b2803          	lw	x16,0(x22) # 0 <_Z21hb_tiled_foreach_implIfZL26convolution_backward_inputP11hb_tensor_tS1_S1_P11hb_vector_tS3_EUlvE_JEEvjjT0_8HBTensorIT_Lln1EEPS7_.isra.0>
    c14c:	000aa583          	lw	x11,0(x21) # 0 <_Z21hb_tiled_foreach_implIfZL26convolution_backward_inputP11hb_tensor_tS1_S1_P11hb_vector_tS3_EUlvE_JEEvjjT0_8HBTensorIT_Lln1EEPS7_.isra.0>
    c150:	000a2f03          	lw	x30,0(x20) # 0 <_Z21hb_tiled_foreach_implIfZL26convolution_backward_inputP11hb_tensor_tS1_S1_P11hb_vector_tS3_EUlvE_JEEvjjT0_8HBTensorIT_Lln1EEPS7_.isra.0>
    c154:	000009b7          	lui	x19,0x0
    c158:	0009a603          	lw	x12,0(x19) # 0 <_Z21hb_tiled_foreach_implIfZL26convolution_backward_inputP11hb_tensor_tS1_S1_P11hb_vector_tS3_EUlvE_JEEvjjT0_8HBTensorIT_Lln1EEPS7_.isra.0>
    c15c:	01038eb3          	add	x29,x7,x16
    c160:	01e58733          	add	x14,x11,x30
    c164:	018e9c13          	slli	x24,x29,0x18
    c168:	01271313          	slli	x6,x14,0x12
    c16c:	3f0007b7          	lui	x15,0x3f000
    c170:	00fc0537          	lui	x10,0xfc0
    c174:	00040fb7          	lui	x31,0x40
    c178:	00fc78b3          	and	x17,x24,x15
    c17c:	00a37cb3          	and	x25,x6,x10
    c180:	00461e13          	slli	x28,x12,0x4
    c184:	ff0f8d13          	addi	x26,x31,-16 # 3fff0 <.L2120+0x32614>
    c188:	0104a683          	lw	x13,16(x9)
    c18c:	01ae7db3          	and	x27,x28,x26
    c190:	0198e4b3          	or	x9,x17,x25
    c194:	01b4e0b3          	or	x1,x9,x27
    c198:	800002b7          	lui	x5,0x80000
    c19c:	01092483          	lw	x9,16(x18) # 1000010 <.L2120+0xff2634>
    c1a0:	0050e3b3          	or	x7,x1,x5
    c1a4:	01042903          	lw	x18,16(x8) # 8000010 <.L2120+0x7ff2634>
    c1a8:	41001437          	lui	x8,0x41001
    c1ac:	00068c13          	mv	x24,x13
    c1b0:	d0742623          	sw	x7,-756(x8) # 41000d0c <.L2120+0x40ff3330>
    c1b4:	20068813          	addi	x16,x13,512 # 200 <.L4+0x50>

0000c1b8 <.L2231>:
    c1b8:	0006a023          	sw	x0,0(x13)
    c1bc:	00468693          	addi	x13,x13,4
    c1c0:	fed81ce3          	bne	x16,x13,c1b8 <.L2231>
    c1c4:	00000437          	lui	x8,0x0
    c1c8:	00040513          	mv	x10,x8
    c1cc:	00000097          	auipc	x1,0x0
    c1d0:	000080e7          	jalr	x1 # c1cc <.L2231+0x14>
    c1d4:	00000593          	li	x11,0
    c1d8:	00000fb7          	lui	x31,0x0
    c1dc:	04100f13          	li	x30,65
    c1e0:	00002eb7          	lui	x29,0x2
    c1e4:	02048e13          	addi	x28,x9,32
    c1e8:	04000313          	li	x6,64
    c1ec:	000018b7          	lui	x17,0x1
    c1f0:	00008837          	lui	x16,0x8

0000c1f4 <.L2235>:
    c1f4:	000fa603          	lw	x12,0(x31) # 0 <_Z21hb_tiled_foreach_implIfZL26convolution_backward_inputP11hb_tensor_tS1_S1_P11hb_vector_tS3_EUlvE_JEEvjjT0_8HBTensorIT_Lln1EEPS7_.isra.0>
    c1f8:	07f67713          	andi	x14,x12,127
    c1fc:	03e70733          	mul	x14,x14,x30
    c200:	04170513          	addi	x10,x14,65 # 41 <.L7+0x19>
    c204:	00aef463          	bgeu	x29,x10,c20c <.L2232>
    c208:	00002537          	lui	x10,0x2

0000c20c <.L2232>:
    c20c:	00159293          	slli	x5,x11,0x1
    c210:	08a77063          	bgeu	x14,x10,c290 <.L2238>

0000c214 <.L2239>:
    c214:	03f77793          	andi	x15,x14,63
    c218:	fc077c93          	andi	x25,x14,-64
    c21c:	01978d33          	add	x26,x15,x25
    c220:	002d1d93          	slli	x27,x26,0x2
    c224:	00679093          	slli	x1,x15,0x6
    c228:	01bc0633          	add	x12,x24,x27
    c22c:	019286b3          	add	x13,x5,x25
    c230:	00b083b3          	add	x7,x1,x11
    c234:	00062787          	flw	f15,0(x12) # 8000000 <.L2120+0x7ff2624>
    c238:	00239793          	slli	x15,x7,0x2
    c23c:	00269693          	slli	x13,x13,0x2
    c240:	012787b3          	add	x15,x15,x18
    c244:	00de0d33          	add	x26,x28,x13
    c248:	00000c93          	li	x25,0

0000c24c <.L2237>:
    c24c:	40978db3          	sub	x27,x15,x9
    c250:	009680b3          	add	x1,x13,x9
    c254:	40dd83b3          	sub	x7,x27,x13

0000c258 <.L2236>:
    c258:	00138db3          	add	x27,x7,x1
    c25c:	0000a687          	flw	f13,0(x1)
    c260:	000da707          	flw	f14,0(x27) # 20000000 <.L2120+0x1fff2624>
    c264:	00408093          	addi	x1,x1,4
    c268:	78e6f7c3          	fmadd.s	f15,f13,f14,f15
    c26c:	00f62027          	fsw	f15,0(x12)
    c270:	fe1d14e3          	bne	x26,x1,c258 <.L2236>
    c274:	008c8c93          	addi	x25,x25,8
    c278:	02078793          	addi	x15,x15,32 # 3f000020 <.L2120+0x3eff2644>
    c27c:	02068693          	addi	x13,x13,32
    c280:	020d0d13          	addi	x26,x26,32
    c284:	fc6c94e3          	bne	x25,x6,c24c <.L2237>
    c288:	00170713          	addi	x14,x14,1
    c28c:	f8e514e3          	bne	x10,x14,c214 <.L2239>

0000c290 <.L2238>:
    c290:	011585b3          	add	x11,x11,x17
    c294:	f70590e3          	bne	x11,x16,c1f4 <.L2235>

0000c298 <.L2234>:
    c298:	000bab83          	lw	x23,0(x23)
    c29c:	000b2b03          	lw	x22,0(x22)
    c2a0:	000aaa83          	lw	x21,0(x21)
    c2a4:	000a2a03          	lw	x20,0(x20)
    c2a8:	0009a983          	lw	x19,0(x19)
    c2ac:	016b84b3          	add	x9,x23,x22
    c2b0:	014a83b3          	add	x7,x21,x20
    c2b4:	01849e93          	slli	x29,x9,0x18
    c2b8:	01239293          	slli	x5,x7,0x12
    c2bc:	3f000637          	lui	x12,0x3f000
    c2c0:	00040e37          	lui	x28,0x40
    c2c4:	00fc0d37          	lui	x26,0xfc0
    c2c8:	00cefdb3          	and	x27,x29,x12
    c2cc:	01a2fcb3          	and	x25,x5,x26
    c2d0:	00499693          	slli	x13,x19,0x4
    c2d4:	ff0e0313          	addi	x6,x28,-16 # 3fff0 <.L2120+0x32614>
    c2d8:	019de7b3          	or	x15,x27,x25
    c2dc:	0066f5b3          	and	x11,x13,x6
    c2e0:	00b7e0b3          	or	x1,x15,x11
    c2e4:	c0000fb7          	lui	x31,0xc0000
    c2e8:	01f0e933          	or	x18,x1,x31
    c2ec:	41001537          	lui	x10,0x41001
    c2f0:	d1252623          	sw	x18,-756(x10) # 41000d0c <.L2120+0x40ff3330>
    c2f4:	00040513          	mv	x10,x8
    c2f8:	00000097          	auipc	x1,0x0
    c2fc:	000080e7          	jalr	x1 # c2f8 <.L2234+0x60>
    c300:	00000513          	li	x10,0
    c304:	a0dfe06f          	j	ad10 <.L1939>

0000c308 <.L2410>:
    c308:	08012c03          	lw	x24,128(x2)
    c30c:	08000313          	li	x6,128
    c310:	006c0463          	beq	x24,x6,c318 <.L2410+0x10>
    c314:	9b1fe06f          	j	acc4 <.L2175>
    c318:	08412883          	lw	x17,132(x2)
    c31c:	00e88463          	beq	x17,x14,c324 <.L2410+0x1c>
    c320:	9a5fe06f          	j	acc4 <.L2175>
    c324:	08812503          	lw	x10,136(x2)
    c328:	01150463          	beq	x10,x17,c330 <.L2410+0x28>
    c32c:	999fe06f          	j	acc4 <.L2175>
    c330:	08c12c83          	lw	x25,140(x2)
    c334:	04000e13          	li	x28,64
    c338:	01cc8463          	beq	x25,x28,c340 <.L2410+0x38>
    c33c:	989fe06f          	j	acc4 <.L2175>
    c340:	09012f83          	lw	x31,144(x2)
    c344:	00af8463          	beq	x31,x10,c34c <.L2410+0x44>
    c348:	97dfe06f          	j	acc4 <.L2175>
    c34c:	09412d03          	lw	x26,148(x2)
    c350:	01fd0463          	beq	x26,x31,c358 <.L2410+0x50>
    c354:	971fe06f          	j	acc4 <.L2175>
    c358:	09812d83          	lw	x27,152(x2)
    c35c:	00300093          	li	x1,3
    c360:	001d8463          	beq	x27,x1,c368 <.L2410+0x60>
    c364:	961fe06f          	j	acc4 <.L2175>
    c368:	09c12283          	lw	x5,156(x2)
    c36c:	01b28463          	beq	x5,x27,c374 <.L2410+0x6c>
    c370:	955fe06f          	j	acc4 <.L2175>
    c374:	0a012683          	lw	x13,160(x2)
    c378:	00100a93          	li	x21,1
    c37c:	01568463          	beq	x13,x21,c384 <.L2410+0x7c>
    c380:	945fe06f          	j	acc4 <.L2175>
    c384:	0a412383          	lw	x7,164(x2)
    c388:	01538463          	beq	x7,x21,c390 <.L2410+0x88>
    c38c:	939fe06f          	j	acc4 <.L2175>
    c390:	0a812b03          	lw	x22,168(x2)
    c394:	007b0463          	beq	x22,x7,c39c <.L2410+0x94>
    c398:	92dfe06f          	j	acc4 <.L2175>
    c39c:	0ac12b83          	lw	x23,172(x2)
    c3a0:	016b8463          	beq	x23,x22,c3a8 <.L2410+0xa0>
    c3a4:	921fe06f          	j	acc4 <.L2175>
    c3a8:	00000bb7          	lui	x23,0x0
    c3ac:	00000b37          	lui	x22,0x0
    c3b0:	00000ab7          	lui	x21,0x0
    c3b4:	00000a37          	lui	x20,0x0
    c3b8:	000bac03          	lw	x24,0(x23) # 0 <_Z21hb_tiled_foreach_implIfZL26convolution_backward_inputP11hb_tensor_tS1_S1_P11hb_vector_tS3_EUlvE_JEEvjjT0_8HBTensorIT_Lln1EEPS7_.isra.0>
    c3bc:	000b2f83          	lw	x31,0(x22) # 0 <_Z21hb_tiled_foreach_implIfZL26convolution_backward_inputP11hb_tensor_tS1_S1_P11hb_vector_tS3_EUlvE_JEEvjjT0_8HBTensorIT_Lln1EEPS7_.isra.0>
    c3c0:	000aaf03          	lw	x30,0(x21) # 0 <_Z21hb_tiled_foreach_implIfZL26convolution_backward_inputP11hb_tensor_tS1_S1_P11hb_vector_tS3_EUlvE_JEEvjjT0_8HBTensorIT_Lln1EEPS7_.isra.0>
    c3c4:	000a2e83          	lw	x29,0(x20) # 0 <_Z21hb_tiled_foreach_implIfZL26convolution_backward_inputP11hb_tensor_tS1_S1_P11hb_vector_tS3_EUlvE_JEEvjjT0_8HBTensorIT_Lln1EEPS7_.isra.0>
    c3c8:	000009b7          	lui	x19,0x0
    c3cc:	0009ae03          	lw	x28,0(x19) # 0 <_Z21hb_tiled_foreach_implIfZL26convolution_backward_inputP11hb_tensor_tS1_S1_P11hb_vector_tS3_EUlvE_JEEvjjT0_8HBTensorIT_Lln1EEPS7_.isra.0>
    c3d0:	01fc0333          	add	x6,x24,x31
    c3d4:	01df08b3          	add	x17,x30,x29
    c3d8:	01831813          	slli	x16,x6,0x18
    c3dc:	01289513          	slli	x10,x17,0x12
    c3e0:	3f0002b7          	lui	x5,0x3f000
    c3e4:	00fc0637          	lui	x12,0xfc0
    c3e8:	00040cb7          	lui	x25,0x40
    c3ec:	0104a683          	lw	x13,16(x9)
    c3f0:	01092903          	lw	x18,16(x18)
    c3f4:	01042403          	lw	x8,16(x8) # 10 <_Z21hb_tiled_foreach_implIfZL26convolution_backward_inputP11hb_tensor_tS1_S1_P11hb_vector_tS3_EUlvE_JEEvjjT0_8HBTensorIT_Lln1EEPS7_.isra.0+0x10>
    c3f8:	005873b3          	and	x7,x16,x5
    c3fc:	00c57db3          	and	x27,x10,x12
    c400:	004e1093          	slli	x1,x28,0x4
    c404:	ff0c8793          	addi	x15,x25,-16 # 3fff0 <.L2120+0x32614>
    c408:	01b3e4b3          	or	x9,x7,x27
    c40c:	00f0fd33          	and	x26,x1,x15
    c410:	01a4e5b3          	or	x11,x9,x26
    c414:	80000737          	lui	x14,0x80000
    c418:	00e5ec33          	or	x24,x11,x14
    c41c:	01212023          	sw	x18,0(x2)
    c420:	00812223          	sw	x8,4(x2)
    c424:	00d12423          	sw	x13,8(x2)
    c428:	41001fb7          	lui	x31,0x41001
    c42c:	d18fa623          	sw	x24,-756(x31) # 41000d0c <.L2120+0x40ff3330>
    c430:	20068f13          	addi	x30,x13,512

0000c434 <.L2218>:
    c434:	0006a023          	sw	x0,0(x13)
    c438:	00468693          	addi	x13,x13,4
    c43c:	fedf1ce3          	bne	x30,x13,c434 <.L2218>
    c440:	00000437          	lui	x8,0x0
    c444:	00040513          	mv	x10,x8
    c448:	00000097          	auipc	x1,0x0
    c44c:	000080e7          	jalr	x1 # c448 <.L2218+0x14>
    c450:	00000813          	li	x16,0
    c454:	24000493          	li	x9,576
    c458:	00900393          	li	x7,9
    c45c:	00300e93          	li	x29,3
    c460:	00700293          	li	x5,7

0000c464 <.L2222>:
    c464:	00000e37          	lui	x28,0x0
    c468:	000e2303          	lw	x6,0(x28) # 0 <_Z21hb_tiled_foreach_implIfZL26convolution_backward_inputP11hb_tensor_tS1_S1_P11hb_vector_tS3_EUlvE_JEEvjjT0_8HBTensorIT_Lln1EEPS7_.isra.0>
    c46c:	24100513          	li	x10,577
    c470:	00012637          	lui	x12,0x12
    c474:	07f37893          	andi	x17,x6,127
    c478:	02a88733          	mul	x14,x17,x10
    c47c:	24170f13          	addi	x30,x14,577 # 80000241 <.L2120+0x7fff2865>
    c480:	01e67463          	bgeu	x12,x30,c488 <.L2219>
    c484:	00012f37          	lui	x30,0x12

0000c488 <.L2219>:
    c488:	00181c13          	slli	x24,x16,0x1
    c48c:	0fe77063          	bgeu	x14,x30,c56c <.L2228>

0000c490 <.L2229>:
    c490:	03d75db3          	divu	x27,x14,x29
    c494:	00412683          	lw	x13,4(x2)
    c498:	02775cb3          	divu	x25,x14,x7
    c49c:	029750b3          	divu	x1,x14,x9
    c4a0:	03fcf913          	andi	x18,x25,63
    c4a4:	00691d13          	slli	x26,x18,0x6
    c4a8:	010d0fb3          	add	x31,x26,x16
    c4ac:	002f9e13          	slli	x28,x31,0x2
    c4b0:	00de0633          	add	x12,x28,x13
    c4b4:	ffc00e13          	li	x28,-4
    c4b8:	03ddf5b3          	remu	x11,x27,x29
    c4bc:	00609793          	slli	x15,x1,0x6
    c4c0:	018788b3          	add	x17,x15,x24
    c4c4:	03d77fb3          	remu	x31,x14,x29
    c4c8:	fff58513          	addi	x10,x11,-1 # ffffff <.L2120+0xff2623>
    c4cc:	00758d93          	addi	x27,x11,7
    c4d0:	029080b3          	mul	x1,x1,x9
    c4d4:	ffff8d13          	addi	x26,x31,-1
    c4d8:	007f8c93          	addi	x25,x31,7
    c4dc:	02790333          	mul	x6,x18,x7
    c4e0:	01f087b3          	add	x15,x1,x31
    c4e4:	03d585b3          	mul	x11,x11,x29
    c4e8:	00678933          	add	x18,x15,x6
    c4ec:	00812303          	lw	x6,8(x2)
    c4f0:	03cf86b3          	mul	x13,x31,x28
    c4f4:	00b90fb3          	add	x31,x18,x11
    c4f8:	00012583          	lw	x11,0(x2)
    c4fc:	002f9093          	slli	x1,x31,0x2
    c500:	001307b3          	add	x15,x6,x1
    c504:	00b686b3          	add	x13,x13,x11

0000c508 <.L2227>:
    c508:	00289913          	slli	x18,x17,0x2
    c50c:	00551f93          	slli	x31,x10,0x5
    c510:	000d0593          	mv	x11,x26
    c514:	00d90e33          	add	x28,x18,x13
    c518:	00cf8333          	add	x6,x31,x12

0000c51c <.L2226>:
    c51c:	02a2ea63          	bltu	x5,x10,c550 <.L2223>
    c520:	fff00093          	li	x1,-1
    c524:	04158e63          	beq	x11,x1,c580 <.L2254>
    c528:	00259913          	slli	x18,x11,0x2
    c52c:	01c900b3          	add	x1,x18,x28
    c530:	01230fb3          	add	x31,x6,x18
    c534:	00800913          	li	x18,8
    c538:	01258c63          	beq	x11,x18,c550 <.L2223>
    c53c:	0040a007          	flw	f0,4(x1)
    c540:	000fa087          	flw	f1,0(x31)
    c544:	0007a107          	flw	f2,0(x15)
    c548:	101071c3          	fmadd.s	f3,f0,f1,f2
    c54c:	0037a027          	fsw	f3,0(x15)

0000c550 <.L2223>:
    c550:	00158593          	addi	x11,x11,1
    c554:	fcbc94e3          	bne	x25,x11,c51c <.L2226>
    c558:	00150513          	addi	x10,x10,1
    c55c:	00888893          	addi	x17,x17,8 # 1008 <.L314+0xc>
    c560:	faad94e3          	bne	x27,x10,c508 <.L2227>
    c564:	00170713          	addi	x14,x14,1
    c568:	f2ef14e3          	bne	x30,x14,c490 <.L2229>

0000c56c <.L2228>:
    c56c:	00001f37          	lui	x30,0x1
    c570:	01e80833          	add	x16,x16,x30
    c574:	00008c37          	lui	x24,0x8
    c578:	ef8816e3          	bne	x16,x24,c464 <.L2222>
    c57c:	d1dff06f          	j	c298 <.L2234>

0000c580 <.L2254>:
    c580:	00000593          	li	x11,0
    c584:	f99ff06f          	j	c51c <.L2226>

0000c588 <.L2409>:
    c588:	08012c83          	lw	x25,128(x2)
    c58c:	04000e13          	li	x28,64
    c590:	01cc8463          	beq	x25,x28,c598 <.L2409+0x10>
    c594:	f00fe06f          	j	ac94 <.L2130>
    c598:	08412f83          	lw	x31,132(x2)
    c59c:	01000d13          	li	x26,16
    c5a0:	01af8463          	beq	x31,x26,c5a8 <.L2409+0x20>
    c5a4:	ef0fe06f          	j	ac94 <.L2130>
    c5a8:	08812d83          	lw	x27,136(x2)
    c5ac:	01fd8463          	beq	x27,x31,c5b4 <.L2409+0x2c>
    c5b0:	ee4fe06f          	j	ac94 <.L2130>
    c5b4:	08c12083          	lw	x1,140(x2)
    c5b8:	02000293          	li	x5,32
    c5bc:	00508463          	beq	x1,x5,c5c4 <.L2409+0x3c>
    c5c0:	ed4fe06f          	j	ac94 <.L2130>
    c5c4:	09012683          	lw	x13,144(x2)
    c5c8:	01b68463          	beq	x13,x27,c5d0 <.L2409+0x48>
    c5cc:	ec8fe06f          	j	ac94 <.L2130>
    c5d0:	09412a83          	lw	x21,148(x2)
    c5d4:	00da8463          	beq	x21,x13,c5dc <.L2409+0x54>
    c5d8:	ebcfe06f          	j	ac94 <.L2130>
    c5dc:	09812383          	lw	x7,152(x2)
    c5e0:	00100b13          	li	x22,1
    c5e4:	01638463          	beq	x7,x22,c5ec <.L2409+0x64>
    c5e8:	eacfe06f          	j	ac94 <.L2130>
    c5ec:	09c12b83          	lw	x23,156(x2)
    c5f0:	007b8463          	beq	x23,x7,c5f8 <.L2409+0x70>
    c5f4:	ea0fe06f          	j	ac94 <.L2130>
    c5f8:	0a012803          	lw	x16,160(x2)
    c5fc:	01780463          	beq	x16,x23,c604 <.L2409+0x7c>
    c600:	e94fe06f          	j	ac94 <.L2130>
    c604:	0a412583          	lw	x11,164(x2)
    c608:	00100f13          	li	x30,1
    c60c:	01e58463          	beq	x11,x30,c614 <.L2409+0x8c>
    c610:	e84fe06f          	j	ac94 <.L2130>
    c614:	0a812603          	lw	x12,168(x2)
    c618:	0ac12e83          	lw	x29,172(x2)
    c61c:	01d66f33          	or	x30,x12,x29
    c620:	000f0463          	beqz	x30,c628 <.L2409+0xa0>
    c624:	e70fe06f          	j	ac94 <.L2130>
    c628:	00000a37          	lui	x20,0x0
    c62c:	00000eb7          	lui	x29,0x0
    c630:	00000ab7          	lui	x21,0x0
    c634:	000008b7          	lui	x17,0x0
    c638:	000a2803          	lw	x16,0(x20) # 0 <_Z21hb_tiled_foreach_implIfZL26convolution_backward_inputP11hb_tensor_tS1_S1_P11hb_vector_tS3_EUlvE_JEEvjjT0_8HBTensorIT_Lln1EEPS7_.isra.0>
    c63c:	000eac03          	lw	x24,0(x29) # 0 <_Z21hb_tiled_foreach_implIfZL26convolution_backward_inputP11hb_tensor_tS1_S1_P11hb_vector_tS3_EUlvE_JEEvjjT0_8HBTensorIT_Lln1EEPS7_.isra.0>
    c640:	000aa703          	lw	x14,0(x21) # 0 <_Z21hb_tiled_foreach_implIfZL26convolution_backward_inputP11hb_tensor_tS1_S1_P11hb_vector_tS3_EUlvE_JEEvjjT0_8HBTensorIT_Lln1EEPS7_.isra.0>
    c644:	0008ab83          	lw	x23,0(x17) # 0 <_Z21hb_tiled_foreach_implIfZL26convolution_backward_inputP11hb_tensor_tS1_S1_P11hb_vector_tS3_EUlvE_JEEvjjT0_8HBTensorIT_Lln1EEPS7_.isra.0>
    c648:	00000b37          	lui	x22,0x0
    c64c:	000b2983          	lw	x19,0(x22) # 0 <_Z21hb_tiled_foreach_implIfZL26convolution_backward_inputP11hb_tensor_tS1_S1_P11hb_vector_tS3_EUlvE_JEEvjjT0_8HBTensorIT_Lln1EEPS7_.isra.0>
    c650:	018803b3          	add	x7,x16,x24
    c654:	017702b3          	add	x5,x14,x23
    c658:	01839613          	slli	x12,x7,0x18
    c65c:	01229d93          	slli	x27,x5,0x12
    c660:	3f000d37          	lui	x26,0x3f000
    c664:	00fc06b7          	lui	x13,0xfc0
    c668:	00040337          	lui	x6,0x40
    c66c:	0104a703          	lw	x14,16(x9)
    c670:	00499e13          	slli	x28,x19,0x4
    c674:	01a67cb3          	and	x25,x12,x26
    c678:	00ddf7b3          	and	x15,x27,x13
    c67c:	ff030593          	addi	x11,x6,-16 # 3fff0 <.L2120+0x32614>
    c680:	00fce4b3          	or	x9,x25,x15
    c684:	00be70b3          	and	x1,x28,x11
    c688:	0014efb3          	or	x31,x9,x1
    c68c:	80000537          	lui	x10,0x80000
    c690:	01042983          	lw	x19,16(x8) # 10 <_Z21hb_tiled_foreach_implIfZL26convolution_backward_inputP11hb_tensor_tS1_S1_P11hb_vector_tS3_EUlvE_JEEvjjT0_8HBTensorIT_Lln1EEPS7_.isra.0+0x10>
    c694:	00afe833          	or	x16,x31,x10
    c698:	00e12023          	sw	x14,0(x2)
    c69c:	41001437          	lui	x8,0x41001
    c6a0:	01092903          	lw	x18,16(x18)
    c6a4:	10070c13          	addi	x24,x14,256
    c6a8:	d1042623          	sw	x16,-756(x8) # 41000d0c <.L2120+0x40ff3330>

0000c6ac <.L2176>:
    c6ac:	00072023          	sw	x0,0(x14)
    c6b0:	00470713          	addi	x14,x14,4
    c6b4:	feec1ce3          	bne	x24,x14,c6ac <.L2176>
    c6b8:	0008ab83          	lw	x23,0(x17)
    c6bc:	000ea383          	lw	x7,0(x29)
    c6c0:	00000fb7          	lui	x31,0x0
    c6c4:	004b8293          	addi	x5,x23,4
    c6c8:	000f8693          	mv	x13,x31
    c6cc:	00568633          	add	x12,x13,x5
    c6d0:	01839d93          	slli	x27,x7,0x18
    c6d4:	01b66d33          	or	x26,x12,x27
    c6d8:	201c0cb7          	lui	x25,0x201c0
    c6dc:	019d67b3          	or	x15,x26,x25
    c6e0:	00100e13          	li	x28,1
    c6e4:	01c78023          	sb	x28,0(x15)
    c6e8:	0008a483          	lw	x9,0(x17)
    c6ec:	00700313          	li	x6,7
    c6f0:	54648063          	beq	x9,x6,cc30 <.L2430>

0000c6f4 <.L2186>:
    c6f4:	00100413          	li	x8,1
    c6f8:	0100006f          	j	c708 <.L2191>

0000c6fc <.L2431>:
    c6fc:	000f8393          	mv	x7,x31
    c700:	1403a62f          	lr.w.aq	x12,(x7)
    c704:	00860863          	beq	x12,x8,c714 <.L2190>

0000c708 <.L2191>:
    c708:	000f8c13          	mv	x24,x31
    c70c:	100c2baf          	lr.w	x23,(x24)
    c710:	fe8b96e3          	bne	x23,x8,c6fc <.L2431>

0000c714 <.L2190>:
    c714:	00001db7          	lui	x27,0x1
    c718:	0006a023          	sw	x0,0(x13) # fc0000 <.L2120+0xfb2624>
    c71c:	00000293          	li	x5,0
    c720:	00000d37          	lui	x26,0x0
    c724:	01100c93          	li	x25,17
    c728:	800d8093          	addi	x1,x27,-2048 # 800 <.L149+0x18>
    c72c:	04090c13          	addi	x24,x18,64
    c730:	40098b93          	addi	x23,x19,1024

0000c734 <.L2195>:
    c734:	000d2e03          	lw	x28,0(x26) # 0 <_Z21hb_tiled_foreach_implIfZL26convolution_backward_inputP11hb_tensor_tS1_S1_P11hb_vector_tS3_EUlvE_JEEvjjT0_8HBTensorIT_Lln1EEPS7_.isra.0>
    c738:	07fe7493          	andi	x9,x28,127
    c73c:	03948333          	mul	x6,x9,x25
    c740:	01130413          	addi	x8,x6,17
    c744:	0080f463          	bgeu	x1,x8,c74c <.L2192>
    c748:	00008413          	mv	x8,x1

0000c74c <.L2192>:
    c74c:	00129393          	slli	x7,x5,0x1
    c750:	08837063          	bgeu	x6,x8,c7d0 <.L2198>

0000c754 <.L2199>:
    c754:	00012783          	lw	x15,0(x2)
    c758:	00535713          	srli	x14,x6,0x5
    c75c:	01f37513          	andi	x10,x6,31
    c760:	00231593          	slli	x11,x6,0x2
    c764:	00871813          	slli	x16,x14,0x8
    c768:	00b78db3          	add	x27,x15,x11
    c76c:	00851613          	slli	x12,x10,0x8
    c770:	007804b3          	add	x9,x16,x7
    c774:	00560e33          	add	x28,x12,x5
    c778:	000da307          	flw	f6,0(x27)
    c77c:	002e1713          	slli	x14,x28,0x2
    c780:	00249813          	slli	x16,x9,0x2
    c784:	010c0533          	add	x10,x24,x16
    c788:	00e984b3          	add	x9,x19,x14
    c78c:	00eb85b3          	add	x11,x23,x14

0000c790 <.L2197>:
    c790:	41248633          	sub	x12,x9,x18
    c794:	010907b3          	add	x15,x18,x16
    c798:	41060e33          	sub	x28,x12,x16

0000c79c <.L2196>:
    c79c:	00fe0733          	add	x14,x28,x15
    c7a0:	0007a207          	flw	f4,0(x15)
    c7a4:	00072287          	flw	f5,0(x14)
    c7a8:	00478793          	addi	x15,x15,4
    c7ac:	30527343          	fmadd.s	f6,f4,f5,f6
    c7b0:	006da027          	fsw	f6,0(x27)
    c7b4:	fef514e3          	bne	x10,x15,c79c <.L2196>
    c7b8:	04048493          	addi	x9,x9,64
    c7bc:	04080813          	addi	x16,x16,64 # 8040 <.L1423>
    c7c0:	04050513          	addi	x10,x10,64 # 80000040 <.L2120+0x7fff2664>
    c7c4:	fc9596e3          	bne	x11,x9,c790 <.L2197>
    c7c8:	00130313          	addi	x6,x6,1
    c7cc:	f86414e3          	bne	x8,x6,c754 <.L2199>

0000c7d0 <.L2198>:
    c7d0:	00002437          	lui	x8,0x2
    c7d4:	008282b3          	add	x5,x5,x8
    c7d8:	000103b7          	lui	x7,0x10
    c7dc:	f4729ce3          	bne	x5,x7,c734 <.L2195>
    c7e0:	000a2903          	lw	x18,0(x20)
    c7e4:	000ea983          	lw	x19,0(x29)
    c7e8:	000aaa03          	lw	x20,0(x21)
    c7ec:	0008aa83          	lw	x21,0(x17)
    c7f0:	000b2b03          	lw	x22,0(x22)
    c7f4:	01390d33          	add	x26,x18,x19
    c7f8:	015a0cb3          	add	x25,x20,x21
    c7fc:	018d1093          	slli	x1,x26,0x18
    c800:	012c9c13          	slli	x24,x25,0x12
    c804:	3f000bb7          	lui	x23,0x3f000
    c808:	00fc05b7          	lui	x11,0xfc0
    c80c:	00040737          	lui	x14,0x40
    c810:	0170fdb3          	and	x27,x1,x23
    c814:	00bc7e33          	and	x28,x24,x11
    c818:	004b1613          	slli	x12,x22,0x4
    c81c:	ff070493          	addi	x9,x14,-16 # 3fff0 <.L2120+0x32614>
    c820:	01cde7b3          	or	x15,x27,x28
    c824:	00967833          	and	x16,x12,x9
    c828:	0107e533          	or	x10,x15,x16
    c82c:	c0000337          	lui	x6,0xc0000
    c830:	00656433          	or	x8,x10,x6
    c834:	410012b7          	lui	x5,0x41001
    c838:	d082a623          	sw	x8,-756(x5) # 41000d0c <.L2120+0x40ff3330>
    c83c:	0008a383          	lw	x7,0(x17)
    c840:	000ea903          	lw	x18,0(x29)
    c844:	201c0d37          	lui	x26,0x201c0
    c848:	00438993          	addi	x19,x7,4 # 10004 <.L2120+0x2628>
    c84c:	01368a33          	add	x20,x13,x19
    c850:	01891a93          	slli	x21,x18,0x18
    c854:	015a6b33          	or	x22,x20,x21
    c858:	01ab6cb3          	or	x25,x22,x26
    c85c:	00100093          	li	x1,1
    c860:	001c8023          	sb	x1,0(x25) # 201c0000 <.L2120+0x201b2624>
    c864:	0008ac03          	lw	x24,0(x17)
    c868:	00700b93          	li	x23,7
    c86c:	497c0c63          	beq	x24,x23,cd04 <.L2432>

0000c870 <.L2209>:
    c870:	00100e93          	li	x29,1
    c874:	0100006f          	j	c884 <.L2214>

0000c878 <.L2433>:
    c878:	000f8293          	mv	x5,x31
    c87c:	1402a3af          	lr.w.aq	x7,(x5)
    c880:	01d38863          	beq	x7,x29,c890 <.L2213>

0000c884 <.L2214>:
    c884:	000f8f13          	mv	x30,x31
    c888:	100f272f          	lr.w	x14,(x30)
    c88c:	ffd716e3          	bne	x14,x29,c878 <.L2433>

0000c890 <.L2213>:
    c890:	0006a023          	sw	x0,0(x13)
    c894:	00000513          	li	x10,0
    c898:	c78fe06f          	j	ad10 <.L1939>

0000c89c <.L2408>:
    c89c:	08012d83          	lw	x27,128(x2)
    c8a0:	04000093          	li	x1,64
    c8a4:	001d8463          	beq	x27,x1,c8ac <.L2408+0x10>
    c8a8:	bbcfe06f          	j	ac64 <.L2088>
    c8ac:	08412283          	lw	x5,132(x2)
    c8b0:	01000693          	li	x13,16
    c8b4:	00d28463          	beq	x5,x13,c8bc <.L2408+0x20>
    c8b8:	bacfe06f          	j	ac64 <.L2088>
    c8bc:	08812a83          	lw	x21,136(x2)
    c8c0:	005a8463          	beq	x21,x5,c8c8 <.L2408+0x2c>
    c8c4:	ba0fe06f          	j	ac64 <.L2088>
    c8c8:	08c12383          	lw	x7,140(x2)
    c8cc:	02000b13          	li	x22,32
    c8d0:	01638463          	beq	x7,x22,c8d8 <.L2408+0x3c>
    c8d4:	b90fe06f          	j	ac64 <.L2088>
    c8d8:	09012b83          	lw	x23,144(x2)
    c8dc:	015b8463          	beq	x23,x21,c8e4 <.L2408+0x48>
    c8e0:	b84fe06f          	j	ac64 <.L2088>
    c8e4:	09412803          	lw	x16,148(x2)
    c8e8:	01780463          	beq	x16,x23,c8f0 <.L2408+0x54>
    c8ec:	b78fe06f          	j	ac64 <.L2088>
    c8f0:	09812583          	lw	x11,152(x2)
    c8f4:	00300f13          	li	x30,3
    c8f8:	01e58463          	beq	x11,x30,c900 <.L2408+0x64>
    c8fc:	b68fe06f          	j	ac64 <.L2088>
    c900:	09c12603          	lw	x12,156(x2)
    c904:	00b60463          	beq	x12,x11,c90c <.L2408+0x70>
    c908:	b5cfe06f          	j	ac64 <.L2088>
    c90c:	0a012e83          	lw	x29,160(x2)
    c910:	00100793          	li	x15,1
    c914:	00fe8463          	beq	x29,x15,c91c <.L2408+0x80>
    c918:	b4cfe06f          	j	ac64 <.L2088>
    c91c:	0a412703          	lw	x14,164(x2)
    c920:	00f70463          	beq	x14,x15,c928 <.L2408+0x8c>
    c924:	b40fe06f          	j	ac64 <.L2088>
    c928:	0a812c03          	lw	x24,168(x2)
    c92c:	00ec0463          	beq	x24,x14,c934 <.L2408+0x98>
    c930:	b34fe06f          	j	ac64 <.L2088>
    c934:	0ac12303          	lw	x6,172(x2)
    c938:	01830463          	beq	x6,x24,c940 <.L2408+0xa4>
    c93c:	b28fe06f          	j	ac64 <.L2088>
    c940:	00000ab7          	lui	x21,0x0
    c944:	000003b7          	lui	x7,0x0
    c948:	00000b37          	lui	x22,0x0
    c94c:	00000fb7          	lui	x31,0x0
    c950:	000aa983          	lw	x19,0(x21) # 0 <_Z21hb_tiled_foreach_implIfZL26convolution_backward_inputP11hb_tensor_tS1_S1_P11hb_vector_tS3_EUlvE_JEEvjjT0_8HBTensorIT_Lln1EEPS7_.isra.0>
    c954:	0003a883          	lw	x17,0(x7) # 0 <_Z21hb_tiled_foreach_implIfZL26convolution_backward_inputP11hb_tensor_tS1_S1_P11hb_vector_tS3_EUlvE_JEEvjjT0_8HBTensorIT_Lln1EEPS7_.isra.0>
    c958:	000b2a03          	lw	x20,0(x22) # 0 <_Z21hb_tiled_foreach_implIfZL26convolution_backward_inputP11hb_tensor_tS1_S1_P11hb_vector_tS3_EUlvE_JEEvjjT0_8HBTensorIT_Lln1EEPS7_.isra.0>
    c95c:	000fa683          	lw	x13,0(x31) # 0 <_Z21hb_tiled_foreach_implIfZL26convolution_backward_inputP11hb_tensor_tS1_S1_P11hb_vector_tS3_EUlvE_JEEvjjT0_8HBTensorIT_Lln1EEPS7_.isra.0>
    c960:	00000bb7          	lui	x23,0x0
    c964:	000bad03          	lw	x26,0(x23) # 0 <_Z21hb_tiled_foreach_implIfZL26convolution_backward_inputP11hb_tensor_tS1_S1_P11hb_vector_tS3_EUlvE_JEEvjjT0_8HBTensorIT_Lln1EEPS7_.isra.0>
    c968:	01198cb3          	add	x25,x19,x17
    c96c:	00da00b3          	add	x1,x20,x13
    c970:	018c9c13          	slli	x24,x25,0x18
    c974:	01209d93          	slli	x27,x1,0x12
    c978:	3f000e37          	lui	x28,0x3f000
    c97c:	00fc0637          	lui	x12,0xfc0
    c980:	000405b7          	lui	x11,0x40
    c984:	0104aa03          	lw	x20,16(x9)
    c988:	01092903          	lw	x18,16(x18)
    c98c:	01042403          	lw	x8,16(x8) # 2010 <.L410+0x38>
    c990:	01cc7333          	and	x6,x24,x28
    c994:	00cdf533          	and	x10,x27,x12
    c998:	004d1813          	slli	x16,x26,0x4
    c99c:	ff058793          	addi	x15,x11,-16 # 3fff0 <.L2120+0x32614>
    c9a0:	00a364b3          	or	x9,x6,x10
    c9a4:	00f87eb3          	and	x29,x16,x15
    c9a8:	01d4ef33          	or	x30,x9,x29
    c9ac:	80000737          	lui	x14,0x80000
    c9b0:	00ef62b3          	or	x5,x30,x14
    c9b4:	01212023          	sw	x18,0(x2)
    c9b8:	00812223          	sw	x8,4(x2)
    c9bc:	01412423          	sw	x20,8(x2)
    c9c0:	410019b7          	lui	x19,0x41001
    c9c4:	d059a623          	sw	x5,-756(x19) # 41000d0c <.L2120+0x40ff3330>
    c9c8:	100a0893          	addi	x17,x20,256

0000c9cc <.L2131>:
    c9cc:	000a2023          	sw	x0,0(x20)
    c9d0:	004a0a13          	addi	x20,x20,4
    c9d4:	ff489ce3          	bne	x17,x20,c9cc <.L2131>
    c9d8:	000fa683          	lw	x13,0(x31)
    c9dc:	0003ad03          	lw	x26,0(x7)
    c9e0:	00000437          	lui	x8,0x0
    c9e4:	00468c93          	addi	x25,x13,4
    c9e8:	00040593          	mv	x11,x8
    c9ec:	019580b3          	add	x1,x11,x25
    c9f0:	018d1c13          	slli	x24,x26,0x18
    c9f4:	0180edb3          	or	x27,x1,x24
    c9f8:	201c0e37          	lui	x28,0x201c0
    c9fc:	01cde333          	or	x6,x27,x28
    ca00:	00100613          	li	x12,1
    ca04:	00c30023          	sb	x12,0(x6) # c0000000 <.L2120+0xbfff2624>
    ca08:	000fa503          	lw	x10,0(x31)
    ca0c:	00700813          	li	x16,7
    ca10:	3d050263          	beq	x10,x16,cdd4 <.L2434>

0000ca14 <.L2141>:
    ca14:	00100e13          	li	x28,1
    ca18:	0100006f          	j	ca28 <.L2146>

0000ca1c <.L2435>:
    ca1c:	00040613          	mv	x12,x8
    ca20:	1406282f          	lr.w.aq	x16,(x12)
    ca24:	01c80863          	beq	x16,x28,ca34 <.L2145>

0000ca28 <.L2146>:
    ca28:	00040313          	mv	x6,x8
    ca2c:	1003252f          	lr.w	x10,(x6)
    ca30:	ffc516e3          	bne	x10,x28,ca1c <.L2435>

0000ca34 <.L2145>:
    ca34:	00005eb7          	lui	x29,0x5
    ca38:	0005a023          	sw	x0,0(x11)
    ca3c:	00000493          	li	x9,0
    ca40:	800e8993          	addi	x19,x29,-2048 # 4800 <.L928+0x8>
    ca44:	12000093          	li	x1,288
    ca48:	00300913          	li	x18,3
    ca4c:	00f00c13          	li	x24,15
    ca50:	fff00e13          	li	x28,-1
    ca54:	01000293          	li	x5,16

0000ca58 <.L2150>:
    ca58:	00000f37          	lui	x30,0x0
    ca5c:	000f2a03          	lw	x20,0(x30) # 0 <_Z21hb_tiled_foreach_implIfZL26convolution_backward_inputP11hb_tensor_tS1_S1_P11hb_vector_tS3_EUlvE_JEEvjjT0_8HBTensorIT_Lln1EEPS7_.isra.0>
    ca60:	09100c93          	li	x25,145
    ca64:	07fa7d13          	andi	x26,x20,127
    ca68:	039d0f33          	mul	x30,x26,x25
    ca6c:	091f0613          	addi	x12,x30,145
    ca70:	00c9f463          	bgeu	x19,x12,ca78 <.L2147>
    ca74:	00098613          	mv	x12,x19

0000ca78 <.L2147>:
    ca78:	00149693          	slli	x13,x9,0x1
    ca7c:	00d12623          	sw	x13,12(x2)
    ca80:	0ecf7263          	bgeu	x30,x12,cb64 <.L2156>

0000ca84 <.L2157>:
    ca84:	021f5eb3          	divu	x29,x30,x1
    ca88:	00c12303          	lw	x6,12(x2)
    ca8c:	00900793          	li	x15,9
    ca90:	00078d93          	mv	x27,x15
    ca94:	032f58b3          	divu	x17,x30,x18
    ca98:	008e9713          	slli	x14,x29,0x8
    ca9c:	00670833          	add	x16,x14,x6
    caa0:	00281a13          	slli	x20,x16,0x2
    caa4:	02ff5533          	divu	x10,x30,x15
    caa8:	0328f733          	remu	x14,x17,x18
    caac:	01f57813          	andi	x16,x10,31
    cab0:	00881d13          	slli	x26,x16,0x8
    cab4:	009d0cb3          	add	x25,x26,x9
    cab8:	00412d03          	lw	x26,4(x2)
    cabc:	032f77b3          	remu	x15,x30,x18
    cac0:	fff70693          	addi	x13,x14,-1 # 7fffffff <.L2120+0x7fff2623>
    cac4:	00469893          	slli	x17,x13,0x4
    cac8:	011c8533          	add	x10,x25,x17
    cacc:	00251313          	slli	x6,x10,0x2
    cad0:	01a308b3          	add	x17,x6,x26
    cad4:	00f70d13          	addi	x26,x14,15
    cad8:	00012c83          	lw	x25,0(x2)
    cadc:	021e8eb3          	mul	x29,x29,x1
    cae0:	00279513          	slli	x10,x15,0x2
    cae4:	40ac8333          	sub	x6,x25,x10
    cae8:	006a0333          	add	x6,x20,x6
    caec:	fff78c93          	addi	x25,x15,-1
    caf0:	00f78a13          	addi	x20,x15,15
    caf4:	03b80db3          	mul	x27,x16,x27
    caf8:	00fe8833          	add	x16,x29,x15
    cafc:	03270733          	mul	x14,x14,x18
    cb00:	01b807b3          	add	x15,x16,x27
    cb04:	00812d83          	lw	x27,8(x2)
    cb08:	00e78eb3          	add	x29,x15,x14
    cb0c:	002e9513          	slli	x10,x29,0x2
    cb10:	00ad8833          	add	x16,x27,x10

0000cb14 <.L2155>:
    cb14:	000c8793          	mv	x15,x25

0000cb18 <.L2154>:
    cb18:	02dc6663          	bltu	x24,x13,cb44 <.L2151>
    cb1c:	39c78663          	beq	x15,x28,cea8 <.L2253>
    cb20:	00279713          	slli	x14,x15,0x2
    cb24:	00e30eb3          	add	x29,x6,x14
    cb28:	00e88533          	add	x10,x17,x14
    cb2c:	00578c63          	beq	x15,x5,cb44 <.L2151>
    cb30:	004ea387          	flw	f7,4(x29)
    cb34:	00052507          	flw	f10,0(x10)
    cb38:	00082587          	flw	f11,0(x16)
    cb3c:	58a3f643          	fmadd.s	f12,f7,f10,f11
    cb40:	00c82027          	fsw	f12,0(x16)

0000cb44 <.L2151>:
    cb44:	00178793          	addi	x15,x15,1
    cb48:	fcfa18e3          	bne	x20,x15,cb18 <.L2154>
    cb4c:	00168693          	addi	x13,x13,1
    cb50:	04030313          	addi	x6,x6,64
    cb54:	04088893          	addi	x17,x17,64
    cb58:	fadd1ee3          	bne	x26,x13,cb14 <.L2155>
    cb5c:	001f0f13          	addi	x30,x30,1
    cb60:	f3e612e3          	bne	x12,x30,ca84 <.L2157>

0000cb64 <.L2156>:
    cb64:	00002637          	lui	x12,0x2
    cb68:	00c484b3          	add	x9,x9,x12
    cb6c:	00010d37          	lui	x26,0x10
    cb70:	efa494e3          	bne	x9,x26,ca58 <.L2150>
    cb74:	000aaa83          	lw	x21,0(x21)
    cb78:	0003a983          	lw	x19,0(x7)
    cb7c:	000b2b03          	lw	x22,0(x22)
    cb80:	000fa083          	lw	x1,0(x31)
    cb84:	000bab83          	lw	x23,0(x23)
    cb88:	013a8933          	add	x18,x21,x19
    cb8c:	001b0c33          	add	x24,x22,x1
    cb90:	01891e13          	slli	x28,x18,0x18
    cb94:	012c1293          	slli	x5,x24,0x12
    cb98:	3f000cb7          	lui	x25,0x3f000
    cb9c:	00fc0db7          	lui	x27,0xfc0
    cba0:	00040737          	lui	x14,0x40
    cba4:	019e7a33          	and	x20,x28,x25
    cba8:	01b2f833          	and	x16,x5,x27
    cbac:	004b9e93          	slli	x29,x23,0x4
    cbb0:	ff070513          	addi	x10,x14,-16 # 3fff0 <.L2120+0x32614>
    cbb4:	010a67b3          	or	x15,x20,x16
    cbb8:	00aef6b3          	and	x13,x29,x10
    cbbc:	00d7e333          	or	x6,x15,x13
    cbc0:	c00008b7          	lui	x17,0xc0000
    cbc4:	01136f33          	or	x30,x6,x17
    cbc8:	41001637          	lui	x12,0x41001
    cbcc:	d1e62623          	sw	x30,-756(x12) # 41000d0c <.L2120+0x40ff3330>
    cbd0:	000fa483          	lw	x9,0(x31)
    cbd4:	0003ad03          	lw	x26,0(x7)
    cbd8:	201c0bb7          	lui	x23,0x201c0
    cbdc:	00448a93          	addi	x21,x9,4
    cbe0:	015589b3          	add	x19,x11,x21
    cbe4:	018d1b13          	slli	x22,x26,0x18
    cbe8:	0169e0b3          	or	x1,x19,x22
    cbec:	0170e933          	or	x18,x1,x23
    cbf0:	00100c13          	li	x24,1
    cbf4:	01890023          	sb	x24,0(x18)
    cbf8:	000fae03          	lw	x28,0(x31)
    cbfc:	00700293          	li	x5,7
    cc00:	2a5e0863          	beq	x28,x5,ceb0 <.L2436>

0000cc04 <.L2167>:
    cc04:	00100393          	li	x7,1
    cc08:	0100006f          	j	cc18 <.L2172>

0000cc0c <.L2437>:
    cc0c:	00040f13          	mv	x30,x8
    cc10:	140f262f          	lr.w.aq	x12,(x30)
    cc14:	00760863          	beq	x12,x7,cc24 <.L2171>

0000cc18 <.L2172>:
    cc18:	00040713          	mv	x14,x8
    cc1c:	100728af          	lr.w	x17,(x14)
    cc20:	fe7896e3          	bne	x17,x7,cc0c <.L2437>

0000cc24 <.L2171>:
    cc24:	0005a023          	sw	x0,0(x11)
    cc28:	00000513          	li	x10,0
    cc2c:	8e4fe06f          	j	ad10 <.L1939>

0000cc30 <.L2430>:
    cc30:	000005b7          	lui	x11,0x0
    cc34:	00458093          	addi	x1,x11,4 # 4 <_Z21hb_tiled_foreach_implIfZL26convolution_backward_inputP11hb_tensor_tS1_S1_P11hb_vector_tS3_EUlvE_JEEvjjT0_8HBTensorIT_Lln1EEPS7_.isra.0+0x4>
    cc38:	01000513          	li	x10,16

0000cc3c <.L2178>:
    cc3c:	00000c13          	li	x24,0

0000cc40 <.L2180>:
    cc40:	01808833          	add	x16,x1,x24
    cc44:	00084403          	lbu	x8,0(x16)
    cc48:	001c0c13          	addi	x24,x24,1 # 8001 <.L1420+0x41>
    cc4c:	0ff47713          	andi	x14,x8,255
    cc50:	fe0706e3          	beqz	x14,cc3c <.L2178>
    cc54:	feac16e3          	bne	x24,x10,cc40 <.L2180>
    cc58:	000eab83          	lw	x23,0(x29)
    cc5c:	231c0637          	lui	x12,0x231c0
    cc60:	00100d13          	li	x26,1
    cc64:	018b8393          	addi	x7,x23,24 # 201c0018 <.L2120+0x201b263c>
    cc68:	007682b3          	add	x5,x13,x7
    cc6c:	00c2edb3          	or	x27,x5,x12
    cc70:	01ad8023          	sb	x26,0(x27) # fc0000 <.L2120+0xfb2624>
    cc74:	0008ac83          	lw	x25,0(x17) # c0000000 <.L2120+0xbfff2624>
    cc78:	00700793          	li	x15,7
    cc7c:	a6fc9ce3          	bne	x25,x15,c6f4 <.L2186>
    cc80:	000eae03          	lw	x28,0(x29)
    cc84:	00300493          	li	x9,3
    cc88:	2e9e0e63          	beq	x28,x9,cf84 <.L2438>

0000cc8c <.L2185>:
    cc8c:	00100413          	li	x8,1
    cc90:	0100006f          	j	cca0 <.L2182>

0000cc94 <.L2439>:
    cc94:	01468393          	addi	x7,x13,20
    cc98:	1403a62f          	lr.w.aq	x12,(x7)
    cc9c:	00860863          	beq	x12,x8,ccac <.L2187>

0000cca0 <.L2182>:
    cca0:	01468c13          	addi	x24,x13,20
    cca4:	100c2baf          	lr.w	x23,(x24)
    cca8:	fe8b96e3          	bne	x23,x8,cc94 <.L2439>

0000ccac <.L2187>:
    ccac:	0006aa23          	sw	x0,20(x13)
    ccb0:	00000c93          	li	x25,0
    ccb4:	01000d93          	li	x27,16

0000ccb8 <.L2188>:
    ccb8:	01968d33          	add	x26,x13,x25
    ccbc:	000d0223          	sb	x0,4(x26) # 10004 <.L2120+0x2628>
    ccc0:	001c8c93          	addi	x25,x25,1 # 3f000001 <.L2120+0x3eff2625>
    ccc4:	ffbc9ae3          	bne	x25,x27,ccb8 <.L2188>
    ccc8:	0006a023          	sw	x0,0(x13)
    cccc:	00000713          	li	x14,0
    ccd0:	20000e37          	lui	x28,0x20000
    ccd4:	00100293          	li	x5,1
    ccd8:	000404b7          	lui	x9,0x40
    ccdc:	004000b7          	lui	x1,0x400

0000cce0 <.L2189>:
    cce0:	000ea783          	lw	x15,0(x29)
    cce4:	00e6e333          	or	x6,x13,x14
    cce8:	00970733          	add	x14,x14,x9
    ccec:	01879593          	slli	x11,x15,0x18
    ccf0:	0065e533          	or	x10,x11,x6
    ccf4:	01c56833          	or	x16,x10,x28
    ccf8:	00582023          	sw	x5,0(x16)
    ccfc:	fe1712e3          	bne	x14,x1,cce0 <.L2189>
    cd00:	9f5ff06f          	j	c6f4 <.L2186>

0000cd04 <.L2432>:
    cd04:	00000db7          	lui	x27,0x0
    cd08:	004d8e13          	addi	x28,x27,4 # 4 <_Z21hb_tiled_foreach_implIfZL26convolution_backward_inputP11hb_tensor_tS1_S1_P11hb_vector_tS3_EUlvE_JEEvjjT0_8HBTensorIT_Lln1EEPS7_.isra.0+0x4>
    cd0c:	01000593          	li	x11,16

0000cd10 <.L2201>:
    cd10:	00000793          	li	x15,0

0000cd14 <.L2203>:
    cd14:	00fe0633          	add	x12,x28,x15
    cd18:	00064703          	lbu	x14,0(x12) # 231c0000 <.L2120+0x231b2624>
    cd1c:	00178793          	addi	x15,x15,1
    cd20:	0ff77493          	andi	x9,x14,255
    cd24:	fe0486e3          	beqz	x9,cd10 <.L2201>
    cd28:	feb796e3          	bne	x15,x11,cd14 <.L2203>
    cd2c:	000ea803          	lw	x16,0(x29)
    cd30:	231c0437          	lui	x8,0x231c0
    cd34:	00100393          	li	x7,1
    cd38:	01880513          	addi	x10,x16,24
    cd3c:	00a68333          	add	x6,x13,x10
    cd40:	008362b3          	or	x5,x6,x8
    cd44:	00728023          	sb	x7,0(x5)
    cd48:	0008a903          	lw	x18,0(x17)
    cd4c:	00700993          	li	x19,7
    cd50:	b33910e3          	bne	x18,x19,c870 <.L2209>
    cd54:	000eaa03          	lw	x20,0(x29)
    cd58:	00300a93          	li	x21,3
    cd5c:	415a0463          	beq	x20,x21,d164 <.L2440>

0000cd60 <.L2208>:
    cd60:	00100a93          	li	x21,1
    cd64:	0100006f          	j	cd74 <.L2205>

0000cd68 <.L2441>:
    cd68:	01468c93          	addi	x25,x13,20
    cd6c:	140ca0af          	lr.w.aq	x1,(x25)
    cd70:	01508863          	beq	x1,x21,cd80 <.L2210>

0000cd74 <.L2205>:
    cd74:	01468b13          	addi	x22,x13,20
    cd78:	100b2d2f          	lr.w	x26,(x22)
    cd7c:	ff5d16e3          	bne	x26,x21,cd68 <.L2441>

0000cd80 <.L2210>:
    cd80:	0006aa23          	sw	x0,20(x13)
    cd84:	00000d93          	li	x27,0
    cd88:	01000c13          	li	x24,16

0000cd8c <.L2211>:
    cd8c:	01b68bb3          	add	x23,x13,x27
    cd90:	000b8223          	sb	x0,4(x23)
    cd94:	001d8d93          	addi	x27,x27,1
    cd98:	ff8d9ae3          	bne	x27,x24,cd8c <.L2211>
    cd9c:	0006a023          	sw	x0,0(x13)
    cda0:	20000e37          	lui	x28,0x20000
    cda4:	00100493          	li	x9,1
    cda8:	00040637          	lui	x12,0x40
    cdac:	00400337          	lui	x6,0x400

0000cdb0 <.L2212>:
    cdb0:	000ea503          	lw	x10,0(x29)
    cdb4:	01e6e833          	or	x16,x13,x30
    cdb8:	00cf0f33          	add	x30,x30,x12
    cdbc:	01851593          	slli	x11,x10,0x18
    cdc0:	0105e7b3          	or	x15,x11,x16
    cdc4:	01c7e433          	or	x8,x15,x28
    cdc8:	00942023          	sw	x9,0(x8) # 231c0000 <.L2120+0x231b2624>
    cdcc:	fe6f12e3          	bne	x30,x6,cdb0 <.L2212>
    cdd0:	aa1ff06f          	j	c870 <.L2209>

0000cdd4 <.L2434>:
    cdd4:	000004b7          	lui	x9,0x0
    cdd8:	00448e93          	addi	x29,x9,4 # 4 <_Z21hb_tiled_foreach_implIfZL26convolution_backward_inputP11hb_tensor_tS1_S1_P11hb_vector_tS3_EUlvE_JEEvjjT0_8HBTensorIT_Lln1EEPS7_.isra.0+0x4>
    cddc:	01000f13          	li	x30,16

0000cde0 <.L2133>:
    cde0:	00000793          	li	x15,0

0000cde4 <.L2135>:
    cde4:	00fe8733          	add	x14,x29,x15
    cde8:	00074283          	lbu	x5,0(x14)
    cdec:	00178793          	addi	x15,x15,1
    cdf0:	0ff2f913          	andi	x18,x5,255
    cdf4:	fe0906e3          	beqz	x18,cde0 <.L2133>
    cdf8:	ffe796e3          	bne	x15,x30,cde4 <.L2135>
    cdfc:	0003a983          	lw	x19,0(x7)
    ce00:	231c06b7          	lui	x13,0x231c0
    ce04:	00100c93          	li	x25,1
    ce08:	01898893          	addi	x17,x19,24
    ce0c:	01158a33          	add	x20,x11,x17
    ce10:	00da6d33          	or	x26,x20,x13
    ce14:	019d0023          	sb	x25,0(x26)
    ce18:	000fa083          	lw	x1,0(x31)
    ce1c:	00700c13          	li	x24,7
    ce20:	bf809ae3          	bne	x1,x24,ca14 <.L2141>
    ce24:	0003ad83          	lw	x27,0(x7)
    ce28:	00300e13          	li	x28,3
    ce2c:	29cd8c63          	beq	x27,x28,d0c4 <.L2442>

0000ce30 <.L2140>:
    ce30:	00100613          	li	x12,1
    ce34:	0100006f          	j	ce44 <.L2137>

0000ce38 <.L2443>:
    ce38:	01458e93          	addi	x29,x11,20
    ce3c:	140eaf2f          	lr.w.aq	x30,(x29)
    ce40:	00cf0863          	beq	x30,x12,ce50 <.L2142>

0000ce44 <.L2137>:
    ce44:	01458813          	addi	x16,x11,20
    ce48:	100824af          	lr.w	x9,(x16)
    ce4c:	fec496e3          	bne	x9,x12,ce38 <.L2443>

0000ce50 <.L2142>:
    ce50:	0005aa23          	sw	x0,20(x11)
    ce54:	00000993          	li	x19,0
    ce58:	01000293          	li	x5,16

0000ce5c <.L2143>:
    ce5c:	01358933          	add	x18,x11,x19
    ce60:	00090223          	sb	x0,4(x18)
    ce64:	00198993          	addi	x19,x19,1
    ce68:	fe599ae3          	bne	x19,x5,ce5c <.L2143>
    ce6c:	0005a023          	sw	x0,0(x11)
    ce70:	00000713          	li	x14,0
    ce74:	20000a37          	lui	x20,0x20000
    ce78:	00100d13          	li	x26,1
    ce7c:	00040cb7          	lui	x25,0x40
    ce80:	004006b7          	lui	x13,0x400

0000ce84 <.L2144>:
    ce84:	0003a783          	lw	x15,0(x7)
    ce88:	00e5e8b3          	or	x17,x11,x14
    ce8c:	01970733          	add	x14,x14,x25
    ce90:	01879093          	slli	x1,x15,0x18
    ce94:	0110ec33          	or	x24,x1,x17
    ce98:	014c6db3          	or	x27,x24,x20
    ce9c:	01ada023          	sw	x26,0(x27)
    cea0:	fed712e3          	bne	x14,x13,ce84 <.L2144>
    cea4:	b71ff06f          	j	ca14 <.L2141>

0000cea8 <.L2253>:
    cea8:	00000793          	li	x15,0
    ceac:	c6dff06f          	j	cb18 <.L2154>

0000ceb0 <.L2436>:
    ceb0:	00000cb7          	lui	x25,0x0
    ceb4:	004c8a13          	addi	x20,x25,4 # 4 <_Z21hb_tiled_foreach_implIfZL26convolution_backward_inputP11hb_tensor_tS1_S1_P11hb_vector_tS3_EUlvE_JEEvjjT0_8HBTensorIT_Lln1EEPS7_.isra.0+0x4>
    ceb8:	01000d93          	li	x27,16

0000cebc <.L2159>:
    cebc:	00000793          	li	x15,0

0000cec0 <.L2161>:
    cec0:	00fa0833          	add	x16,x20,x15
    cec4:	00084e83          	lbu	x29,0(x16)
    cec8:	00178793          	addi	x15,x15,1
    cecc:	0ffef713          	andi	x14,x29,255
    ced0:	fe0706e3          	beqz	x14,cebc <.L2159>
    ced4:	ffb796e3          	bne	x15,x27,cec0 <.L2161>
    ced8:	0003a503          	lw	x10,0(x7)
    cedc:	231c08b7          	lui	x17,0x231c0
    cee0:	00100613          	li	x12,1
    cee4:	01850693          	addi	x13,x10,24
    cee8:	00d58333          	add	x6,x11,x13
    ceec:	01136f33          	or	x30,x6,x17
    cef0:	00cf0023          	sb	x12,0(x30)
    cef4:	000fa483          	lw	x9,0(x31)
    cef8:	00700d13          	li	x26,7
    cefc:	d1a494e3          	bne	x9,x26,cc04 <.L2167>
    cf00:	0003aa83          	lw	x21,0(x7)
    cf04:	00300993          	li	x19,3
    cf08:	113a8e63          	beq	x21,x19,d024 <.L2444>

0000cf0c <.L2166>:
    cf0c:	00100a93          	li	x21,1
    cf10:	0100006f          	j	cf20 <.L2163>

0000cf14 <.L2445>:
    cf14:	01458093          	addi	x1,x11,20
    cf18:	1400abaf          	lr.w.aq	x23,(x1)
    cf1c:	015b8863          	beq	x23,x21,cf2c <.L2168>

0000cf20 <.L2163>:
    cf20:	01458993          	addi	x19,x11,20
    cf24:	1009ab2f          	lr.w	x22,(x19)
    cf28:	ff5b16e3          	bne	x22,x21,cf14 <.L2445>

0000cf2c <.L2168>:
    cf2c:	0005aa23          	sw	x0,20(x11)
    cf30:	00000e13          	li	x28,0
    cf34:	01000913          	li	x18,16

0000cf38 <.L2169>:
    cf38:	01c58c33          	add	x24,x11,x28
    cf3c:	000c0223          	sb	x0,4(x24)
    cf40:	001e0e13          	addi	x28,x28,1 # 20000001 <.L2120+0x1fff2625>
    cf44:	ff2e1ae3          	bne	x28,x18,cf38 <.L2169>
    cf48:	0005a023          	sw	x0,0(x11)
    cf4c:	00000513          	li	x10,0
    cf50:	200002b7          	lui	x5,0x20000
    cf54:	00100c93          	li	x25,1
    cf58:	00040a37          	lui	x20,0x40
    cf5c:	00400db7          	lui	x27,0x400

0000cf60 <.L2170>:
    cf60:	0003ae83          	lw	x29,0(x7)
    cf64:	00a5e833          	or	x16,x11,x10
    cf68:	01450533          	add	x10,x10,x20
    cf6c:	018e9693          	slli	x13,x29,0x18
    cf70:	0106e7b3          	or	x15,x13,x16
    cf74:	0057e333          	or	x6,x15,x5
    cf78:	01932023          	sw	x25,0(x6) # 400000 <.L2120+0x3f2624>
    cf7c:	ffb512e3          	bne	x10,x27,cf60 <.L2170>
    cf80:	c85ff06f          	j	cc04 <.L2167>

0000cf84 <.L2438>:
    cf84:	00000337          	lui	x6,0x0
    cf88:	01830093          	addi	x1,x6,24 # 18 <.L8+0x4>
    cf8c:	00800593          	li	x11,8

0000cf90 <.L2181>:
    cf90:	00000413          	li	x8,0

0000cf94 <.L2183>:
    cf94:	00808533          	add	x10,x1,x8
    cf98:	00054803          	lbu	x16,0(x10)
    cf9c:	00140413          	addi	x8,x8,1
    cfa0:	0ff87c13          	andi	x24,x16,255
    cfa4:	fe0c06e3          	beqz	x24,cf90 <.L2181>
    cfa8:	feb416e3          	bne	x8,x11,cf94 <.L2183>
    cfac:	00068c23          	sb	x0,24(x13) # 400018 <.L2120+0x3f263c>
    cfb0:	00068ca3          	sb	x0,25(x13)
    cfb4:	00068d23          	sb	x0,26(x13)
    cfb8:	00068da3          	sb	x0,27(x13)
    cfbc:	00068e23          	sb	x0,28(x13)
    cfc0:	00068ea3          	sb	x0,29(x13)
    cfc4:	00068f23          	sb	x0,30(x13)
    cfc8:	00068fa3          	sb	x0,31(x13)
    cfcc:	00000bb7          	lui	x23,0x0
    cfd0:	0006aa23          	sw	x0,20(x13)
    cfd4:	00000713          	li	x14,0
    cfd8:	014b8393          	addi	x7,x23,20 # 14 <.L8>
    cfdc:	03fc0637          	lui	x12,0x3fc0
    cfe0:	20000db7          	lui	x27,0x20000
    cfe4:	00100d13          	li	x26,1
    cfe8:	01000cb7          	lui	x25,0x1000
    cfec:	08000e37          	lui	x28,0x8000

0000cff0 <.L2184>:
    cff0:	0008a783          	lw	x15,0(x17) # 231c0000 <.L2120+0x231b2624>
    cff4:	00e3e2b3          	or	x5,x7,x14
    cff8:	01970733          	add	x14,x14,x25
    cffc:	01279493          	slli	x9,x15,0x12
    d000:	00c4f333          	and	x6,x9,x12
    d004:	005360b3          	or	x1,x6,x5
    d008:	01b0e5b3          	or	x11,x1,x27
    d00c:	01a5a023          	sw	x26,0(x11)
    d010:	ffc710e3          	bne	x14,x28,cff0 <.L2184>
    d014:	0008a503          	lw	x10,0(x17)
    d018:	00700813          	li	x16,7
    d01c:	ed051c63          	bne	x10,x16,c6f4 <.L2186>
    d020:	c6dff06f          	j	cc8c <.L2185>

0000d024 <.L2444>:
    d024:	00000b37          	lui	x22,0x0
    d028:	018b0093          	addi	x1,x22,24 # 18 <.L8+0x4>
    d02c:	00800b93          	li	x23,8

0000d030 <.L2162>:
    d030:	00000e13          	li	x28,0

0000d034 <.L2164>:
    d034:	01c08933          	add	x18,x1,x28
    d038:	00094c03          	lbu	x24,0(x18)
    d03c:	001e0e13          	addi	x28,x28,1 # 8000001 <.L2120+0x7ff2625>
    d040:	0ffc7293          	andi	x5,x24,255
    d044:	fe0286e3          	beqz	x5,d030 <.L2162>
    d048:	ff7e16e3          	bne	x28,x23,d034 <.L2164>
    d04c:	00058c23          	sb	x0,24(x11)
    d050:	00058ca3          	sb	x0,25(x11)
    d054:	00058d23          	sb	x0,26(x11)
    d058:	00058da3          	sb	x0,27(x11)
    d05c:	00058e23          	sb	x0,28(x11)
    d060:	00058ea3          	sb	x0,29(x11)
    d064:	00058f23          	sb	x0,30(x11)
    d068:	00058fa3          	sb	x0,31(x11)
    d06c:	00000cb7          	lui	x25,0x0
    d070:	0005aa23          	sw	x0,20(x11)
    d074:	00000713          	li	x14,0
    d078:	014c8a13          	addi	x20,x25,20 # 14 <.L8>
    d07c:	03fc0db7          	lui	x27,0x3fc0
    d080:	20000eb7          	lui	x29,0x20000
    d084:	00100813          	li	x16,1
    d088:	01000537          	lui	x10,0x1000
    d08c:	080006b7          	lui	x13,0x8000

0000d090 <.L2165>:
    d090:	000fa783          	lw	x15,0(x31)
    d094:	00ea6333          	or	x6,x20,x14
    d098:	00a70733          	add	x14,x14,x10
    d09c:	01279893          	slli	x17,x15,0x12
    d0a0:	01b8ff33          	and	x30,x17,x27
    d0a4:	006f6633          	or	x12,x30,x6
    d0a8:	01d664b3          	or	x9,x12,x29
    d0ac:	0104a023          	sw	x16,0(x9)
    d0b0:	fed710e3          	bne	x14,x13,d090 <.L2165>
    d0b4:	000faf83          	lw	x31,0(x31)
    d0b8:	00700d13          	li	x26,7
    d0bc:	e5af88e3          	beq	x31,x26,cf0c <.L2166>
    d0c0:	b45ff06f          	j	cc04 <.L2167>

0000d0c4 <.L2442>:
    d0c4:	00000337          	lui	x6,0x0
    d0c8:	01830513          	addi	x10,x6,24 # 18 <.L8+0x4>
    d0cc:	00800613          	li	x12,8

0000d0d0 <.L2136>:
    d0d0:	00000e93          	li	x29,0

0000d0d4 <.L2138>:
    d0d4:	01d50833          	add	x16,x10,x29
    d0d8:	00084483          	lbu	x9,0(x16)
    d0dc:	001e8e93          	addi	x29,x29,1 # 20000001 <.L2120+0x1fff2625>
    d0e0:	0ff4ff13          	andi	x30,x9,255
    d0e4:	fe0f06e3          	beqz	x30,d0d0 <.L2136>
    d0e8:	fece96e3          	bne	x29,x12,d0d4 <.L2138>
    d0ec:	00058c23          	sb	x0,24(x11)
    d0f0:	00058ca3          	sb	x0,25(x11)
    d0f4:	00058d23          	sb	x0,26(x11)
    d0f8:	00058da3          	sb	x0,27(x11)
    d0fc:	00058e23          	sb	x0,28(x11)
    d100:	00058ea3          	sb	x0,29(x11)
    d104:	00058f23          	sb	x0,30(x11)
    d108:	00058fa3          	sb	x0,31(x11)
    d10c:	000002b7          	lui	x5,0x0
    d110:	0005aa23          	sw	x0,20(x11)
    d114:	00000713          	li	x14,0
    d118:	01428913          	addi	x18,x5,20 # 14 <.L8>
    d11c:	03fc09b7          	lui	x19,0x3fc0
    d120:	200008b7          	lui	x17,0x20000
    d124:	00100a13          	li	x20,1
    d128:	010006b7          	lui	x13,0x1000
    d12c:	08000d37          	lui	x26,0x8000

0000d130 <.L2139>:
    d130:	000fa783          	lw	x15,0(x31)
    d134:	00e96cb3          	or	x25,x18,x14
    d138:	00d70733          	add	x14,x14,x13
    d13c:	01279093          	slli	x1,x15,0x12
    d140:	0130fc33          	and	x24,x1,x19
    d144:	019c6db3          	or	x27,x24,x25
    d148:	011dee33          	or	x28,x27,x17
    d14c:	014e2023          	sw	x20,0(x28)
    d150:	ffa710e3          	bne	x14,x26,d130 <.L2139>
    d154:	000fa303          	lw	x6,0(x31)
    d158:	00700513          	li	x10,7
    d15c:	cca30ae3          	beq	x6,x10,ce30 <.L2140>
    d160:	8b5ff06f          	j	ca14 <.L2141>

0000d164 <.L2440>:
    d164:	00000b37          	lui	x22,0x0
    d168:	018b0d13          	addi	x26,x22,24 # 18 <.L8+0x4>
    d16c:	00800c93          	li	x25,8

0000d170 <.L2204>:
    d170:	00000b93          	li	x23,0

0000d174 <.L2206>:
    d174:	017d00b3          	add	x1,x26,x23
    d178:	0000cc03          	lbu	x24,0(x1) # 400000 <.L2120+0x3f2624>
    d17c:	001b8b93          	addi	x23,x23,1
    d180:	0ffc7d93          	andi	x27,x24,255
    d184:	fe0d86e3          	beqz	x27,d170 <.L2204>
    d188:	ff9b96e3          	bne	x23,x25,d174 <.L2206>
    d18c:	00068c23          	sb	x0,24(x13) # 1000018 <.L2120+0xff263c>
    d190:	00068ca3          	sb	x0,25(x13)
    d194:	00068d23          	sb	x0,26(x13)
    d198:	00068da3          	sb	x0,27(x13)
    d19c:	00068e23          	sb	x0,28(x13)
    d1a0:	00068ea3          	sb	x0,29(x13)
    d1a4:	00068f23          	sb	x0,30(x13)
    d1a8:	00068fa3          	sb	x0,31(x13)
    d1ac:	00000e37          	lui	x28,0x0
    d1b0:	0006aa23          	sw	x0,20(x13)
    d1b4:	00000713          	li	x14,0
    d1b8:	014e0613          	addi	x12,x28,20 # 14 <.L8>
    d1bc:	03fc04b7          	lui	x9,0x3fc0
    d1c0:	20000337          	lui	x6,0x20000
    d1c4:	00100813          	li	x16,1
    d1c8:	01000537          	lui	x10,0x1000
    d1cc:	080005b7          	lui	x11,0x8000

0000d1d0 <.L2207>:
    d1d0:	0008a783          	lw	x15,0(x17) # 20000000 <.L2120+0x1fff2624>
    d1d4:	00e66433          	or	x8,x12,x14
    d1d8:	00a70733          	add	x14,x14,x10
    d1dc:	01279293          	slli	x5,x15,0x12
    d1e0:	0092f3b3          	and	x7,x5,x9
    d1e4:	0083e933          	or	x18,x7,x8
    d1e8:	006969b3          	or	x19,x18,x6
    d1ec:	0109a023          	sw	x16,0(x19) # 3fc0000 <.L2120+0x3fb2624>
    d1f0:	feb710e3          	bne	x14,x11,d1d0 <.L2207>
    d1f4:	0008a883          	lw	x17,0(x17)
    d1f8:	00700a13          	li	x20,7
    d1fc:	e7489a63          	bne	x17,x20,c870 <.L2209>
    d200:	b61ff06f          	j	cd60 <.L2208>

0000d204 <.L2407>:
    d204:	02000513          	li	x10,32
    d208:	00ab8463          	beq	x23,x10,d210 <.L2407+0xc>
    d20c:	a21fd06f          	j	ac2c <.L2085>
    d210:	01780463          	beq	x16,x23,d218 <.L2407+0x14>
    d214:	a19fd06f          	j	ac2c <.L2085>
    d218:	01058463          	beq	x11,x16,d220 <.L2407+0x1c>
    d21c:	a11fd06f          	j	ac2c <.L2085>
    d220:	01000c93          	li	x25,16
    d224:	019f0463          	beq	x30,x25,d22c <.L2407+0x28>
    d228:	a05fd06f          	j	ac2c <.L2085>
    d22c:	00b60463          	beq	x12,x11,d234 <.L2407+0x30>
    d230:	9fdfd06f          	j	ac2c <.L2085>
    d234:	00ce8463          	beq	x29,x12,d23c <.L2407+0x38>
    d238:	9f5fd06f          	j	ac2c <.L2085>
    d23c:	00100e13          	li	x28,1
    d240:	01cd8463          	beq	x27,x28,d248 <.L2407+0x44>
    d244:	9e9fd06f          	j	ac2c <.L2085>
    d248:	01b70463          	beq	x14,x27,d250 <.L2407+0x4c>
    d24c:	9e1fd06f          	j	ac2c <.L2085>
    d250:	00e78463          	beq	x15,x14,d258 <.L2407+0x54>
    d254:	9d9fd06f          	j	ac2c <.L2085>
    d258:	00fc0463          	beq	x24,x15,d260 <.L2407+0x5c>
    d25c:	9d1fd06f          	j	ac2c <.L2085>
    d260:	011362b3          	or	x5,x6,x17
    d264:	00028463          	beqz	x5,d26c <.L2407+0x68>
    d268:	9c5fd06f          	j	ac2c <.L2085>
    d26c:	00000a37          	lui	x20,0x0
    d270:	00000fb7          	lui	x31,0x0
    d274:	00000ab7          	lui	x21,0x0
    d278:	00000eb7          	lui	x29,0x0
    d27c:	000a2d03          	lw	x26,0(x20) # 0 <_Z21hb_tiled_foreach_implIfZL26convolution_backward_inputP11hb_tensor_tS1_S1_P11hb_vector_tS3_EUlvE_JEEvjjT0_8HBTensorIT_Lln1EEPS7_.isra.0>
    d280:	000fa583          	lw	x11,0(x31) # 0 <_Z21hb_tiled_foreach_implIfZL26convolution_backward_inputP11hb_tensor_tS1_S1_P11hb_vector_tS3_EUlvE_JEEvjjT0_8HBTensorIT_Lln1EEPS7_.isra.0>
    d284:	000aa983          	lw	x19,0(x21) # 0 <_Z21hb_tiled_foreach_implIfZL26convolution_backward_inputP11hb_tensor_tS1_S1_P11hb_vector_tS3_EUlvE_JEEvjjT0_8HBTensorIT_Lln1EEPS7_.isra.0>
    d288:	000ea083          	lw	x1,0(x29) # 0 <_Z21hb_tiled_foreach_implIfZL26convolution_backward_inputP11hb_tensor_tS1_S1_P11hb_vector_tS3_EUlvE_JEEvjjT0_8HBTensorIT_Lln1EEPS7_.isra.0>
    d28c:	00000b37          	lui	x22,0x0
    d290:	000b2b83          	lw	x23,0(x22) # 0 <_Z21hb_tiled_foreach_implIfZL26convolution_backward_inputP11hb_tensor_tS1_S1_P11hb_vector_tS3_EUlvE_JEEvjjT0_8HBTensorIT_Lln1EEPS7_.isra.0>
    d294:	00bd0c33          	add	x24,x26,x11
    d298:	00198e33          	add	x28,x19,x1
    d29c:	018c1c93          	slli	x25,x24,0x18
    d2a0:	012e1d93          	slli	x27,x28,0x12
    d2a4:	3f000837          	lui	x16,0x3f000
    d2a8:	00fc06b7          	lui	x13,0xfc0
    d2ac:	000403b7          	lui	x7,0x40
    d2b0:	0104a583          	lw	x11,16(x9) # 3fc0010 <.L2120+0x3fb2634>
    d2b4:	004b9313          	slli	x6,x23,0x4
    d2b8:	010cf533          	and	x10,x25,x16
    d2bc:	00ddf7b3          	and	x15,x27,x13
    d2c0:	ff038713          	addi	x14,x7,-16 # 3fff0 <.L2120+0x32614>
    d2c4:	00e378b3          	and	x17,x6,x14
    d2c8:	00f564b3          	or	x9,x10,x15
    d2cc:	0114ef33          	or	x30,x9,x17
    d2d0:	80000637          	lui	x12,0x80000
    d2d4:	01042983          	lw	x19,16(x8)
    d2d8:	00cf6d33          	or	x26,x30,x12
    d2dc:	00b12023          	sw	x11,0(x2)
    d2e0:	41001437          	lui	x8,0x41001
    d2e4:	01092303          	lw	x6,16(x18)
    d2e8:	d1a42623          	sw	x26,-756(x8) # 41000d0c <.L2120+0x40ff3330>
    d2ec:	08058913          	addi	x18,x11,128 # 8000080 <.L2120+0x7ff26a4>

0000d2f0 <.L2089>:
    d2f0:	0005a023          	sw	x0,0(x11)
    d2f4:	00458593          	addi	x11,x11,4
    d2f8:	feb91ce3          	bne	x18,x11,d2f0 <.L2089>
    d2fc:	000ea083          	lw	x1,0(x29)
    d300:	000fab83          	lw	x23,0(x31)
    d304:	000003b7          	lui	x7,0x0
    d308:	00408c13          	addi	x24,x1,4
    d30c:	00038893          	mv	x17,x7
    d310:	01888e33          	add	x28,x17,x24
    d314:	018b9c93          	slli	x25,x23,0x18
    d318:	019e6db3          	or	x27,x28,x25
    d31c:	201c0837          	lui	x16,0x201c0
    d320:	010de533          	or	x10,x27,x16
    d324:	00100693          	li	x13,1
    d328:	00d50023          	sb	x13,0(x10) # 1000000 <.L2120+0xff2624>
    d32c:	000ea483          	lw	x9,0(x29)
    d330:	00700793          	li	x15,7
    d334:	3ef48c63          	beq	x9,x15,d72c <.L2446>

0000d338 <.L2099>:
    d338:	00100413          	li	x8,1
    d33c:	0100006f          	j	d34c <.L2104>

0000d340 <.L2447>:
    d340:	00038093          	mv	x1,x7
    d344:	1400abaf          	lr.w.aq	x23,(x1)
    d348:	008b8863          	beq	x23,x8,d358 <.L2103>

0000d34c <.L2104>:
    d34c:	00038913          	mv	x18,x7
    d350:	100925af          	lr.w	x11,(x18)
    d354:	fe8596e3          	bne	x11,x8,d340 <.L2447>

0000d358 <.L2103>:
    d358:	00001e37          	lui	x28,0x1
    d35c:	0008a023          	sw	x0,0(x17)
    d360:	00000413          	li	x8,0
    d364:	00000d37          	lui	x26,0x0
    d368:	00500c93          	li	x25,5
    d36c:	20000c13          	li	x24,512
    d370:	08030093          	addi	x1,x6,128 # 20000080 <.L2120+0x1fff26a4>
    d374:	01c98933          	add	x18,x19,x28

0000d378 <.L2108>:
    d378:	000d2d83          	lw	x27,0(x26) # 0 <_Z21hb_tiled_foreach_implIfZL26convolution_backward_inputP11hb_tensor_tS1_S1_P11hb_vector_tS3_EUlvE_JEEvjjT0_8HBTensorIT_Lln1EEPS7_.isra.0>
    d37c:	07fdf513          	andi	x10,x27,127
    d380:	03950f33          	mul	x30,x10,x25
    d384:	005f0493          	addi	x9,x30,5
    d388:	009c7463          	bgeu	x24,x9,d390 <.L2105>
    d38c:	20000493          	li	x9,512

0000d390 <.L2105>:
    d390:	00141b93          	slli	x23,x8,0x1
    d394:	089f7063          	bgeu	x30,x9,d414 <.L2111>

0000d398 <.L2112>:
    d398:	00012783          	lw	x15,0(x2)
    d39c:	004f5693          	srli	x13,x30,0x4
    d3a0:	00ff7813          	andi	x16,x30,15
    d3a4:	002f1713          	slli	x14,x30,0x2
    d3a8:	00a81613          	slli	x12,x16,0xa
    d3ac:	00a69d93          	slli	x27,x13,0xa
    d3b0:	00e785b3          	add	x11,x15,x14
    d3b4:	00860e33          	add	x28,x12,x8
    d3b8:	017d8533          	add	x10,x27,x23
    d3bc:	0005ae07          	flw	f28,0(x11)
    d3c0:	002e1693          	slli	x13,x28,0x2
    d3c4:	00251513          	slli	x10,x10,0x2
    d3c8:	00d98833          	add	x16,x19,x13
    d3cc:	00a08633          	add	x12,x1,x10
    d3d0:	00d90db3          	add	x27,x18,x13

0000d3d4 <.L2110>:
    d3d4:	40680733          	sub	x14,x16,x6
    d3d8:	00a307b3          	add	x15,x6,x10
    d3dc:	40a70e33          	sub	x28,x14,x10

0000d3e0 <.L2109>:
    d3e0:	00fe06b3          	add	x13,x28,x15
    d3e4:	0007a807          	flw	f16,0(x15)
    d3e8:	0006a887          	flw	f17,0(x13) # fc0000 <.L2120+0xfb2624>
    d3ec:	00478793          	addi	x15,x15,4
    d3f0:	e1187e43          	fmadd.s	f28,f16,f17,f28
    d3f4:	01c5a027          	fsw	f28,0(x11)
    d3f8:	fec794e3          	bne	x15,x12,d3e0 <.L2109>
    d3fc:	08080813          	addi	x16,x16,128 # 201c0080 <.L2120+0x201b26a4>
    d400:	08050513          	addi	x10,x10,128
    d404:	08078613          	addi	x12,x15,128
    d408:	fdb816e3          	bne	x16,x27,d3d4 <.L2110>
    d40c:	001f0f13          	addi	x30,x30,1
    d410:	f9e494e3          	bne	x9,x30,d398 <.L2112>

0000d414 <.L2111>:
    d414:	000044b7          	lui	x9,0x4
    d418:	00940433          	add	x8,x8,x9
    d41c:	00020bb7          	lui	x23,0x20
    d420:	f5741ce3          	bne	x8,x23,d378 <.L2108>
    d424:	000a2303          	lw	x6,0(x20)
    d428:	000fa983          	lw	x19,0(x31)
    d42c:	000aaa03          	lw	x20,0(x21)
    d430:	000eaa83          	lw	x21,0(x29)
    d434:	000b2b03          	lw	x22,0(x22)
    d438:	01330d33          	add	x26,x6,x19
    d43c:	015a0cb3          	add	x25,x20,x21
    d440:	018d1c13          	slli	x24,x26,0x18
    d444:	012c9093          	slli	x1,x25,0x12
    d448:	3f000937          	lui	x18,0x3f000
    d44c:	00fc0db7          	lui	x27,0xfc0
    d450:	000407b7          	lui	x15,0x40
    d454:	012c75b3          	and	x11,x24,x18
    d458:	01b0f733          	and	x14,x1,x27
    d45c:	004b1e13          	slli	x28,x22,0x4
    d460:	ff078813          	addi	x16,x15,-16 # 3fff0 <.L2120+0x32614>
    d464:	00e5e6b3          	or	x13,x11,x14
    d468:	010e7533          	and	x10,x28,x16
    d46c:	00a6e633          	or	x12,x13,x10
    d470:	c0000f37          	lui	x30,0xc0000
    d474:	01e664b3          	or	x9,x12,x30
    d478:	41001437          	lui	x8,0x41001
    d47c:	d0942623          	sw	x9,-756(x8) # 41000d0c <.L2120+0x40ff3330>
    d480:	000eab83          	lw	x23,0(x29)
    d484:	000fa303          	lw	x6,0(x31)
    d488:	201c0d37          	lui	x26,0x201c0
    d48c:	004b8993          	addi	x19,x23,4 # 20004 <.L2120+0x12628>
    d490:	01388a33          	add	x20,x17,x19
    d494:	01831a93          	slli	x21,x6,0x18
    d498:	015a6b33          	or	x22,x20,x21
    d49c:	01ab6cb3          	or	x25,x22,x26
    d4a0:	00100c13          	li	x24,1
    d4a4:	018c8023          	sb	x24,0(x25)
    d4a8:	000ea083          	lw	x1,0(x29)
    d4ac:	00700913          	li	x18,7
    d4b0:	35208863          	beq	x1,x18,d800 <.L2448>

0000d4b4 <.L2122>:
    d4b4:	00100293          	li	x5,1
    d4b8:	0100006f          	j	d4c8 <.L2127>

0000d4bc <.L2449>:
    d4bc:	00038413          	mv	x8,x7
    d4c0:	14042baf          	lr.w.aq	x23,(x8)
    d4c4:	005b8863          	beq	x23,x5,d4d4 <.L2126>

0000d4c8 <.L2127>:
    d4c8:	00038f93          	mv	x31,x7
    d4cc:	100fa72f          	lr.w	x14,(x31)
    d4d0:	fe5716e3          	bne	x14,x5,d4bc <.L2449>

0000d4d4 <.L2126>:
    d4d4:	0008a023          	sw	x0,0(x17)
    d4d8:	00000513          	li	x10,0
    d4dc:	835fd06f          	j	ad10 <.L1939>

0000d4e0 <.L2403>:
    d4e0:	00000337          	lui	x6,0x0
    d4e4:	000009b7          	lui	x19,0x0
    d4e8:	00030593          	mv	x11,x6
    d4ec:	06f00613          	li	x12,111
    d4f0:	00098513          	mv	x10,x19
    d4f4:	00000097          	auipc	x1,0x0
    d4f8:	000080e7          	jalr	x1 # d4f4 <.L2403+0x14>
    d4fc:	04c12583          	lw	x11,76(x2)
    d500:	00000eb7          	lui	x29,0x0
    d504:	000e8513          	mv	x10,x29
    d508:	00000a37          	lui	x20,0x0
    d50c:	00000097          	auipc	x1,0x0
    d510:	000080e7          	jalr	x1 # d50c <.L2403+0x2c>
    d514:	00000b37          	lui	x22,0x0
    d518:	000a2a83          	lw	x21,0(x20) # 0 <_Z21hb_tiled_foreach_implIfZL26convolution_backward_inputP11hb_tensor_tS1_S1_P11hb_vector_tS3_EUlvE_JEEvjjT0_8HBTensorIT_Lln1EEPS7_.isra.0>
    d51c:	000b2d03          	lw	x26,0(x22) # 0 <_Z21hb_tiled_foreach_implIfZL26convolution_backward_inputP11hb_tensor_tS1_S1_P11hb_vector_tS3_EUlvE_JEEvjjT0_8HBTensorIT_Lln1EEPS7_.isra.0>
    d520:	4100f937          	lui	x18,0x4100f
    d524:	010a9c93          	slli	x25,x21,0x10
    d528:	01ac8c33          	add	x24,x25,x26
    d52c:	ad892c23          	sw	x24,-1320(x18) # 4100ead8 <.L2120+0x410010fc>

0000d530 <.L2078>:
    d530:	0000006f          	j	d530 <.L2078>

0000d534 <.L2405>:
    d534:	000000b7          	lui	x1,0x0
    d538:	00000c37          	lui	x24,0x0
    d53c:	06f00613          	li	x12,111
    d540:	000c0593          	mv	x11,x24
    d544:	00008513          	mv	x10,x1
    d548:	00000097          	auipc	x1,0x0
    d54c:	000080e7          	jalr	x1 # d548 <.L2405+0x14>
    d550:	08012583          	lw	x11,128(x2)
    d554:	00000937          	lui	x18,0x0
    d558:	00090513          	mv	x10,x18
    d55c:	00000097          	auipc	x1,0x0
    d560:	000080e7          	jalr	x1 # d55c <.L2405+0x28>
    d564:	000005b7          	lui	x11,0x0
    d568:	0005ad83          	lw	x27,0(x11) # 0 <_Z21hb_tiled_foreach_implIfZL26convolution_backward_inputP11hb_tensor_tS1_S1_P11hb_vector_tS3_EUlvE_JEEvjjT0_8HBTensorIT_Lln1EEPS7_.isra.0>
    d56c:	00000f37          	lui	x30,0x0
    d570:	000f2683          	lw	x13,0(x30) # 0 <_Z21hb_tiled_foreach_implIfZL26convolution_backward_inputP11hb_tensor_tS1_S1_P11hb_vector_tS3_EUlvE_JEEvjjT0_8HBTensorIT_Lln1EEPS7_.isra.0>
    d574:	010d9813          	slli	x16,x27,0x10
    d578:	4100f537          	lui	x10,0x4100f
    d57c:	00d804b3          	add	x9,x16,x13
    d580:	ac952c23          	sw	x9,-1320(x10) # 4100ead8 <.L2120+0x410010fc>

0000d584 <.L2082>:
    d584:	0000006f          	j	d584 <.L2082>

0000d588 <.L2404>:
    d588:	000007b7          	lui	x15,0x0
    d58c:	00000e37          	lui	x28,0x0
    d590:	00078593          	mv	x11,x15
    d594:	06f00613          	li	x12,111
    d598:	000e0513          	mv	x10,x28
    d59c:	00000097          	auipc	x1,0x0
    d5a0:	000080e7          	jalr	x1 # d59c <.L2404+0x14>
    d5a4:	04c12583          	lw	x11,76(x2)
    d5a8:	00000637          	lui	x12,0x0
    d5ac:	00060513          	mv	x10,x12
    d5b0:	00000097          	auipc	x1,0x0
    d5b4:	000080e7          	jalr	x1 # d5b0 <.L2404+0x28>
    d5b8:	000002b7          	lui	x5,0x0
    d5bc:	0002af83          	lw	x31,0(x5) # 0 <_Z21hb_tiled_foreach_implIfZL26convolution_backward_inputP11hb_tensor_tS1_S1_P11hb_vector_tS3_EUlvE_JEEvjjT0_8HBTensorIT_Lln1EEPS7_.isra.0>
    d5c0:	00000737          	lui	x14,0x0
    d5c4:	00072403          	lw	x8,0(x14) # 0 <_Z21hb_tiled_foreach_implIfZL26convolution_backward_inputP11hb_tensor_tS1_S1_P11hb_vector_tS3_EUlvE_JEEvjjT0_8HBTensorIT_Lln1EEPS7_.isra.0>
    d5c8:	010f9b93          	slli	x23,x31,0x10
    d5cc:	4100f8b7          	lui	x17,0x4100f
    d5d0:	008b83b3          	add	x7,x23,x8
    d5d4:	ac78ac23          	sw	x7,-1320(x17) # 4100ead8 <.L2120+0x410010fc>

0000d5d8 <.L2080>:
    d5d8:	0000006f          	j	d5d8 <.L2080>

0000d5dc <.L2406>:
    d5dc:	000003b7          	lui	x7,0x0
    d5e0:	000008b7          	lui	x17,0x0
    d5e4:	00038593          	mv	x11,x7
    d5e8:	06f00613          	li	x12,111
    d5ec:	00088513          	mv	x10,x17
    d5f0:	00000097          	auipc	x1,0x0
    d5f4:	000080e7          	jalr	x1 # d5f0 <.L2406+0x14>
    d5f8:	08012583          	lw	x11,128(x2)
    d5fc:	00000337          	lui	x6,0x0
    d600:	00030513          	mv	x10,x6
    d604:	00000097          	auipc	x1,0x0
    d608:	000080e7          	jalr	x1 # d604 <.L2406+0x28>
    d60c:	000009b7          	lui	x19,0x0
    d610:	0009ae83          	lw	x29,0(x19) # 0 <_Z21hb_tiled_foreach_implIfZL26convolution_backward_inputP11hb_tensor_tS1_S1_P11hb_vector_tS3_EUlvE_JEEvjjT0_8HBTensorIT_Lln1EEPS7_.isra.0>
    d614:	00000a37          	lui	x20,0x0
    d618:	000a2a83          	lw	x21,0(x20) # 0 <_Z21hb_tiled_foreach_implIfZL26convolution_backward_inputP11hb_tensor_tS1_S1_P11hb_vector_tS3_EUlvE_JEEvjjT0_8HBTensorIT_Lln1EEPS7_.isra.0>
    d61c:	010e9b13          	slli	x22,x29,0x10
    d620:	4100fcb7          	lui	x25,0x4100f
    d624:	015b0d33          	add	x26,x22,x21
    d628:	adacac23          	sw	x26,-1320(x25) # 4100ead8 <.L2120+0x410010fc>

0000d62c <.L2084>:
    d62c:	0000006f          	j	d62c <.L2084>

0000d630 <.L2401>:
    d630:	000002b7          	lui	x5,0x0
    d634:	00000fb7          	lui	x31,0x0
    d638:	00028593          	mv	x11,x5
    d63c:	06f00613          	li	x12,111
    d640:	000f8513          	mv	x10,x31
    d644:	00000097          	auipc	x1,0x0
    d648:	000080e7          	jalr	x1 # d644 <.L2401+0x14>
    d64c:	01812583          	lw	x11,24(x2)
    d650:	00000637          	lui	x12,0x0
    d654:	00060513          	mv	x10,x12
    d658:	00000097          	auipc	x1,0x0
    d65c:	000080e7          	jalr	x1 # d658 <.L2401+0x28>
    d660:	00000737          	lui	x14,0x0
    d664:	00072403          	lw	x8,0(x14) # 0 <_Z21hb_tiled_foreach_implIfZL26convolution_backward_inputP11hb_tensor_tS1_S1_P11hb_vector_tS3_EUlvE_JEEvjjT0_8HBTensorIT_Lln1EEPS7_.isra.0>
    d668:	00000bb7          	lui	x23,0x0
    d66c:	000ba383          	lw	x7,0(x23) # 0 <_Z21hb_tiled_foreach_implIfZL26convolution_backward_inputP11hb_tensor_tS1_S1_P11hb_vector_tS3_EUlvE_JEEvjjT0_8HBTensorIT_Lln1EEPS7_.isra.0>
    d670:	01041893          	slli	x17,x8,0x10
    d674:	4100f9b7          	lui	x19,0x4100f
    d678:	00788333          	add	x6,x17,x7
    d67c:	ac69ac23          	sw	x6,-1320(x19) # 4100ead8 <.L2120+0x410010fc>

0000d680 <.L2074>:
    d680:	0000006f          	j	d680 <.L2074>

0000d684 <.L2400>:
    d684:	00000eb7          	lui	x29,0x0
    d688:	00000a37          	lui	x20,0x0
    d68c:	000e8593          	mv	x11,x29
    d690:	06f00613          	li	x12,111
    d694:	000a0513          	mv	x10,x20
    d698:	00000097          	auipc	x1,0x0
    d69c:	000080e7          	jalr	x1 # d698 <.L2400+0x14>
    d6a0:	01812583          	lw	x11,24(x2)
    d6a4:	00000ab7          	lui	x21,0x0
    d6a8:	000a8513          	mv	x10,x21
    d6ac:	00000b37          	lui	x22,0x0
    d6b0:	00000097          	auipc	x1,0x0
    d6b4:	000080e7          	jalr	x1 # d6b0 <.L2400+0x2c>
    d6b8:	00000cb7          	lui	x25,0x0
    d6bc:	000b2d03          	lw	x26,0(x22) # 0 <_Z21hb_tiled_foreach_implIfZL26convolution_backward_inputP11hb_tensor_tS1_S1_P11hb_vector_tS3_EUlvE_JEEvjjT0_8HBTensorIT_Lln1EEPS7_.isra.0>
    d6c0:	000cac03          	lw	x24,0(x25) # 0 <_Z21hb_tiled_foreach_implIfZL26convolution_backward_inputP11hb_tensor_tS1_S1_P11hb_vector_tS3_EUlvE_JEEvjjT0_8HBTensorIT_Lln1EEPS7_.isra.0>
    d6c4:	4100ff37          	lui	x30,0x4100f
    d6c8:	010d1913          	slli	x18,x26,0x10
    d6cc:	01890db3          	add	x27,x18,x24
    d6d0:	adbf2c23          	sw	x27,-1320(x30) # 4100ead8 <.L2120+0x410010fc>

0000d6d4 <.L2072>:
    d6d4:	0000006f          	j	d6d4 <.L2072>

0000d6d8 <.L2402>:
    d6d8:	000000b7          	lui	x1,0x0
    d6dc:	00000db7          	lui	x27,0x0
    d6e0:	00008593          	mv	x11,x1
    d6e4:	06f00613          	li	x12,111
    d6e8:	000d8513          	mv	x10,x27
    d6ec:	00000097          	auipc	x1,0x0
    d6f0:	000080e7          	jalr	x1 # d6ec <.L2402+0x14>
    d6f4:	04c12583          	lw	x11,76(x2)
    d6f8:	00000f37          	lui	x30,0x0
    d6fc:	000f0513          	mv	x10,x30
    d700:	00000097          	auipc	x1,0x0
    d704:	000080e7          	jalr	x1 # d700 <.L2402+0x28>
    d708:	000005b7          	lui	x11,0x0
    d70c:	0005a683          	lw	x13,0(x11) # 0 <_Z21hb_tiled_foreach_implIfZL26convolution_backward_inputP11hb_tensor_tS1_S1_P11hb_vector_tS3_EUlvE_JEEvjjT0_8HBTensorIT_Lln1EEPS7_.isra.0>
    d710:	00000837          	lui	x16,0x0
    d714:	00082483          	lw	x9,0(x16) # 0 <_Z21hb_tiled_foreach_implIfZL26convolution_backward_inputP11hb_tensor_tS1_S1_P11hb_vector_tS3_EUlvE_JEEvjjT0_8HBTensorIT_Lln1EEPS7_.isra.0>
    d718:	01069513          	slli	x10,x13,0x10
    d71c:	4100fe37          	lui	x28,0x4100f
    d720:	009507b3          	add	x15,x10,x9
    d724:	acfe2c23          	sw	x15,-1320(x28) # 4100ead8 <.L2120+0x410010fc>

0000d728 <.L2076>:
    d728:	0000006f          	j	d728 <.L2076>

0000d72c <.L2446>:
    d72c:	00000737          	lui	x14,0x0
    d730:	00470f13          	addi	x30,x14,4 # 4 <_Z21hb_tiled_foreach_implIfZL26convolution_backward_inputP11hb_tensor_tS1_S1_P11hb_vector_tS3_EUlvE_JEEvjjT0_8HBTensorIT_Lln1EEPS7_.isra.0+0x4>
    d734:	01000613          	li	x12,16

0000d738 <.L2091>:
    d738:	00000913          	li	x18,0

0000d73c <.L2093>:
    d73c:	012f0d33          	add	x26,x30,x18
    d740:	000d4403          	lbu	x8,0(x26) # 201c0000 <.L2120+0x201b2624>
    d744:	00190913          	addi	x18,x18,1 # 1 <_Z21hb_tiled_foreach_implIfZL26convolution_backward_inputP11hb_tensor_tS1_S1_P11hb_vector_tS3_EUlvE_JEEvjjT0_8HBTensorIT_Lln1EEPS7_.isra.0+0x1>
    d748:	0ff47593          	andi	x11,x8,255
    d74c:	fe0586e3          	beqz	x11,d738 <.L2091>
    d750:	fec916e3          	bne	x18,x12,d73c <.L2093>
    d754:	000fa083          	lw	x1,0(x31) # 0 <_Z21hb_tiled_foreach_implIfZL26convolution_backward_inputP11hb_tensor_tS1_S1_P11hb_vector_tS3_EUlvE_JEEvjjT0_8HBTensorIT_Lln1EEPS7_.isra.0>
    d758:	231c0e37          	lui	x28,0x231c0
    d75c:	00100d93          	li	x27,1
    d760:	01808b93          	addi	x23,x1,24
    d764:	01788c33          	add	x24,x17,x23
    d768:	01cc6cb3          	or	x25,x24,x28
    d76c:	01bc8023          	sb	x27,0(x25)
    d770:	000ea803          	lw	x16,0(x29) # 0 <_Z21hb_tiled_foreach_implIfZL26convolution_backward_inputP11hb_tensor_tS1_S1_P11hb_vector_tS3_EUlvE_JEEvjjT0_8HBTensorIT_Lln1EEPS7_.isra.0>
    d774:	00700513          	li	x10,7
    d778:	bca810e3          	bne	x16,x10,d338 <.L2099>
    d77c:	000fa683          	lw	x13,0(x31)
    d780:	00300493          	li	x9,3
    d784:	14968663          	beq	x13,x9,d8d0 <.L2450>

0000d788 <.L2098>:
    d788:	00100413          	li	x8,1
    d78c:	0100006f          	j	d79c <.L2095>

0000d790 <.L2451>:
    d790:	01488093          	addi	x1,x17,20 # 14 <.L8>
    d794:	1400abaf          	lr.w.aq	x23,(x1)
    d798:	008b8863          	beq	x23,x8,d7a8 <.L2100>

0000d79c <.L2095>:
    d79c:	01488913          	addi	x18,x17,20
    d7a0:	100925af          	lr.w	x11,(x18)
    d7a4:	fe8596e3          	bne	x11,x8,d790 <.L2451>

0000d7a8 <.L2100>:
    d7a8:	0008aa23          	sw	x0,20(x17)
    d7ac:	00000c93          	li	x25,0
    d7b0:	01000c13          	li	x24,16

0000d7b4 <.L2101>:
    d7b4:	01988e33          	add	x28,x17,x25
    d7b8:	000e0223          	sb	x0,4(x28) # 231c0004 <.L2120+0x231b2628>
    d7bc:	001c8c93          	addi	x25,x25,1
    d7c0:	ff8c9ae3          	bne	x25,x24,d7b4 <.L2101>
    d7c4:	0008a023          	sw	x0,0(x17)
    d7c8:	00000713          	li	x14,0
    d7cc:	20000db7          	lui	x27,0x20000
    d7d0:	00100513          	li	x10,1
    d7d4:	000404b7          	lui	x9,0x40
    d7d8:	004006b7          	lui	x13,0x400

0000d7dc <.L2102>:
    d7dc:	000fa783          	lw	x15,0(x31)
    d7e0:	00e8e833          	or	x16,x17,x14
    d7e4:	00970733          	add	x14,x14,x9
    d7e8:	01879f13          	slli	x30,x15,0x18
    d7ec:	010f6633          	or	x12,x30,x16
    d7f0:	01b66d33          	or	x26,x12,x27
    d7f4:	00ad2023          	sw	x10,0(x26)
    d7f8:	fed712e3          	bne	x14,x13,d7dc <.L2102>
    d7fc:	b3dff06f          	j	d338 <.L2099>

0000d800 <.L2448>:
    d800:	000005b7          	lui	x11,0x0
    d804:	00458d93          	addi	x27,x11,4 # 4 <_Z21hb_tiled_foreach_implIfZL26convolution_backward_inputP11hb_tensor_tS1_S1_P11hb_vector_tS3_EUlvE_JEEvjjT0_8HBTensorIT_Lln1EEPS7_.isra.0+0x4>
    d808:	01000713          	li	x14,16

0000d80c <.L2114>:
    d80c:	00000793          	li	x15,0

0000d810 <.L2116>:
    d810:	00fd8e33          	add	x28,x27,x15
    d814:	000e4683          	lbu	x13,0(x28)
    d818:	00178793          	addi	x15,x15,1 # 1 <_Z21hb_tiled_foreach_implIfZL26convolution_backward_inputP11hb_tensor_tS1_S1_P11hb_vector_tS3_EUlvE_JEEvjjT0_8HBTensorIT_Lln1EEPS7_.isra.0+0x1>
    d81c:	0ff6f813          	andi	x16,x13,255
    d820:	fe0806e3          	beqz	x16,d80c <.L2114>
    d824:	fee796e3          	bne	x15,x14,d810 <.L2116>
    d828:	000fa503          	lw	x10,0(x31)
    d82c:	231c04b7          	lui	x9,0x231c0
    d830:	00100b93          	li	x23,1
    d834:	01850613          	addi	x12,x10,24
    d838:	00c88f33          	add	x30,x17,x12
    d83c:	009f6433          	or	x8,x30,x9
    d840:	01740023          	sb	x23,0(x8)
    d844:	000ea303          	lw	x6,0(x29)
    d848:	00700993          	li	x19,7
    d84c:	c73314e3          	bne	x6,x19,d4b4 <.L2122>
    d850:	000faa03          	lw	x20,0(x31)
    d854:	00300a93          	li	x21,3
    d858:	115a0c63          	beq	x20,x21,d970 <.L2452>

0000d85c <.L2121>:
    d85c:	00100a93          	li	x21,1
    d860:	0100006f          	j	d870 <.L2118>

0000d864 <.L2453>:
    d864:	01488c93          	addi	x25,x17,20
    d868:	140cac2f          	lr.w.aq	x24,(x25)
    d86c:	015c0863          	beq	x24,x21,d87c <.L2123>

0000d870 <.L2118>:
    d870:	01488b13          	addi	x22,x17,20
    d874:	100b2d2f          	lr.w	x26,(x22)
    d878:	ff5d16e3          	bne	x26,x21,d864 <.L2453>

0000d87c <.L2123>:
    d87c:	0008aa23          	sw	x0,20(x17)
    d880:	00000593          	li	x11,0
    d884:	01000093          	li	x1,16

0000d888 <.L2124>:
    d888:	00b88933          	add	x18,x17,x11
    d88c:	00090223          	sb	x0,4(x18)
    d890:	00158593          	addi	x11,x11,1
    d894:	fe159ae3          	bne	x11,x1,d888 <.L2124>
    d898:	0008a023          	sw	x0,0(x17)
    d89c:	20000db7          	lui	x27,0x20000
    d8a0:	00100f13          	li	x30,1
    d8a4:	000406b7          	lui	x13,0x40
    d8a8:	00400837          	lui	x16,0x400

0000d8ac <.L2125>:
    d8ac:	000fa483          	lw	x9,0(x31)
    d8b0:	0058e533          	or	x10,x17,x5
    d8b4:	00d282b3          	add	x5,x5,x13
    d8b8:	01849613          	slli	x12,x9,0x18
    d8bc:	00a667b3          	or	x15,x12,x10
    d8c0:	01b7ee33          	or	x28,x15,x27
    d8c4:	01ee2023          	sw	x30,0(x28)
    d8c8:	ff0292e3          	bne	x5,x16,d8ac <.L2125>
    d8cc:	be9ff06f          	j	d4b4 <.L2122>

0000d8d0 <.L2450>:
    d8d0:	000007b7          	lui	x15,0x0
    d8d4:	01878713          	addi	x14,x15,24 # 18 <.L8+0x4>
    d8d8:	00800f13          	li	x30,8

0000d8dc <.L2094>:
    d8dc:	00000413          	li	x8,0

0000d8e0 <.L2096>:
    d8e0:	00870633          	add	x12,x14,x8
    d8e4:	00064d03          	lbu	x26,0(x12) # 0 <_Z21hb_tiled_foreach_implIfZL26convolution_backward_inputP11hb_tensor_tS1_S1_P11hb_vector_tS3_EUlvE_JEEvjjT0_8HBTensorIT_Lln1EEPS7_.isra.0>
    d8e8:	00140413          	addi	x8,x8,1
    d8ec:	0ffd7913          	andi	x18,x26,255
    d8f0:	fe0906e3          	beqz	x18,d8dc <.L2094>
    d8f4:	ffe416e3          	bne	x8,x30,d8e0 <.L2096>
    d8f8:	00088c23          	sb	x0,24(x17)
    d8fc:	00088ca3          	sb	x0,25(x17)
    d900:	00088d23          	sb	x0,26(x17)
    d904:	00088da3          	sb	x0,27(x17)
    d908:	00088e23          	sb	x0,28(x17)
    d90c:	00088ea3          	sb	x0,29(x17)
    d910:	00088f23          	sb	x0,30(x17)
    d914:	00088fa3          	sb	x0,31(x17)
    d918:	000005b7          	lui	x11,0x0
    d91c:	0008aa23          	sw	x0,20(x17)
    d920:	00000693          	li	x13,0
    d924:	01458093          	addi	x1,x11,20 # 14 <.L8>
    d928:	03fc0bb7          	lui	x23,0x3fc0
    d92c:	20000c37          	lui	x24,0x20000
    d930:	00100e13          	li	x28,1
    d934:	01000cb7          	lui	x25,0x1000
    d938:	08000db7          	lui	x27,0x8000

0000d93c <.L2097>:
    d93c:	000ea803          	lw	x16,0(x29)
    d940:	00d0e533          	or	x10,x1,x13
    d944:	019686b3          	add	x13,x13,x25
    d948:	01281493          	slli	x9,x16,0x12
    d94c:	0174f7b3          	and	x15,x9,x23
    d950:	00a7e733          	or	x14,x15,x10
    d954:	01876f33          	or	x30,x14,x24
    d958:	01cf2023          	sw	x28,0(x30) # 0 <_Z21hb_tiled_foreach_implIfZL26convolution_backward_inputP11hb_tensor_tS1_S1_P11hb_vector_tS3_EUlvE_JEEvjjT0_8HBTensorIT_Lln1EEPS7_.isra.0>
    d95c:	ffb690e3          	bne	x13,x27,d93c <.L2097>
    d960:	000ea603          	lw	x12,0(x29)
    d964:	00700d13          	li	x26,7
    d968:	e3a600e3          	beq	x12,x26,d788 <.L2098>
    d96c:	9cdff06f          	j	d338 <.L2099>

0000d970 <.L2452>:
    d970:	00000b37          	lui	x22,0x0
    d974:	018b0d13          	addi	x26,x22,24 # 18 <.L8+0x4>
    d978:	00800c93          	li	x25,8

0000d97c <.L2117>:
    d97c:	00000913          	li	x18,0

0000d980 <.L2119>:
    d980:	012d0c33          	add	x24,x26,x18
    d984:	000c4083          	lbu	x1,0(x24) # 20000000 <.L2120+0x1fff2624>
    d988:	00190913          	addi	x18,x18,1
    d98c:	0ff0f593          	andi	x11,x1,255
    d990:	fe0586e3          	beqz	x11,d97c <.L2117>
    d994:	ff9916e3          	bne	x18,x25,d980 <.L2119>
    d998:	00088c23          	sb	x0,24(x17)
    d99c:	00088ca3          	sb	x0,25(x17)
    d9a0:	00088d23          	sb	x0,26(x17)
    d9a4:	00088da3          	sb	x0,27(x17)
    d9a8:	00088e23          	sb	x0,28(x17)
    d9ac:	00088ea3          	sb	x0,29(x17)
    d9b0:	00088f23          	sb	x0,30(x17)
    d9b4:	00088fa3          	sb	x0,31(x17)
    d9b8:	00000db7          	lui	x27,0x0
    d9bc:	0008aa23          	sw	x0,20(x17)
    d9c0:	00000713          	li	x14,0
    d9c4:	014d8693          	addi	x13,x27,20 # 14 <.L8>
    d9c8:	03fc0f37          	lui	x30,0x3fc0
    d9cc:	20000837          	lui	x16,0x20000
    d9d0:	00100513          	li	x10,1
    d9d4:	010004b7          	lui	x9,0x1000
    d9d8:	08000637          	lui	x12,0x8000

0000d9dc <.L2120>:
    d9dc:	000ea783          	lw	x15,0(x29)
    d9e0:	00e6ee33          	or	x28,x13,x14
    d9e4:	00970733          	add	x14,x14,x9
    d9e8:	01279413          	slli	x8,x15,0x12
    d9ec:	01e47bb3          	and	x23,x8,x30
    d9f0:	01cbe333          	or	x6,x23,x28
    d9f4:	010369b3          	or	x19,x6,x16
    d9f8:	00a9a023          	sw	x10,0(x19)
    d9fc:	fec710e3          	bne	x14,x12,d9dc <.L2120>
    da00:	000eae83          	lw	x29,0(x29)
    da04:	00700a13          	li	x20,7
    da08:	e54e8ae3          	beq	x29,x20,d85c <.L2121>
    da0c:	aa9ff06f          	j	d4b4 <.L2122>

Disassembly of section .rodata._ZN8HBTensorIfLl4EEC2EP11hb_tensor_t.str1.4:

00000000 <.LC0>:
   0:	6d6f682f          	0x6d6f682f
   4:	2f65                	jal	7bc <.L148+0x28>
   6:	6d61                	lui	x26,0x18
   8:	3370                	fld	f12,224(x14)
   a:	3234                	fld	f13,96(x12)
   c:	736f432f          	0x736f432f
  10:	6d69                	lui	x26,0x1a
  12:	6773622f          	0x6773622f
  16:	625f 616c 6564      	0x6564616c625f
  1c:	7572                	flw	f10,60(x2)
  1e:	6e6e                	flw	f28,216(x2)
  20:	7265                	lui	x4,0xffff9
  22:	2d62682f          	0x2d62682f
  26:	7970                	flw	f12,116(x10)
  28:	6f74                	flw	f13,92(x14)
  2a:	6372                	flw	f6,28(x2)
  2c:	2f68                	fld	f10,216(x14)
  2e:	6168                	flw	f10,68(x10)
  30:	6d6d                	lui	x26,0x1b
  32:	7265                	lui	x4,0xffff9
  34:	6c62                	flw	f24,24(x2)
  36:	6461                	lui	x8,0x18
  38:	2f65                	jal	7f0 <.L149+0x8>
  3a:	6f74                	flw	f13,92(x14)
  3c:	6372                	flw	f6,28(x2)
  3e:	2f68                	fld	f10,216(x14)
  40:	6e72656b          	0x6e72656b
  44:	6c65                	lui	x24,0x19
  46:	5f62682f          	0x5f62682f
  4a:	6574                	flw	f13,76(x10)
  4c:	736e                	flw	f6,248(x2)
  4e:	682e726f          	jal	x4,e76d0 <.L2120+0xd9cf4>
  52:	7070                	flw	f12,100(x8)
  54:	0000                	unimp
	...

00000058 <.LC1>:
  58:	7361                	lui	x6,0xffff8
  5a:	74726573          	csrrsi	x10,0x747,4
  5e:	6620                	flw	f8,72(x12)
  60:	6961                	lui	x18,0x18
  62:	656c                	flw	f11,76(x10)
  64:	2064                	fld	f9,192(x8)
  66:	7461                	lui	x8,0xffff8
  68:	2520                	fld	f8,72(x10)
  6a:	64253a73          	csrrc	x20,0x642,x10
  6e:	0020                	addi	x8,x2,8

00000070 <.LC2>:
  70:	7265                	lui	x4,0xffff9
  72:	6f72                	flw	f30,28(x2)
  74:	3a72                	fld	f20,312(x2)
  76:	4820                	lw	x8,80(x8)
  78:	5442                	lw	x8,48(x2)
  7a:	6e65                	lui	x28,0x19
  7c:	20726f73          	csrrsi	x30,0x207,4
  80:	6964                	flw	f9,84(x10)
  82:	736d                	lui	x6,0xffffb
  84:	6420                	flw	f8,72(x8)
  86:	74276e6f          	jal	x28,767c8 <.L2120+0x68dec>
  8a:	6d20                	flw	f8,88(x10)
  8c:	7461                	lui	x8,0xffff8
  8e:	6f206863          	bltu	x0,x18,77e <.L150+0x3e>
  92:	6666                	flw	f12,88(x2)
  94:	6f6c                	flw	f11,92(x14)
  96:	6561                	lui	x10,0x18
  98:	2064                	fld	f9,192(x8)
  9a:	6574                	flw	f13,76(x10)
  9c:	736e                	flw	f6,248(x2)
  9e:	6420726f          	jal	x4,76e0 <.L1357+0x1c>
  a2:	6d69                	lui	x26,0x1a
  a4:	          	ecall

Disassembly of section .text._ZN8HBTensorIfLl4EEC2EP11hb_tensor_t:

00000000 <_ZN8HBTensorIfLl4EEC1EP11hb_tensor_t>:
   0:	00058713          	mv	x14,x11
   4:	00072803          	lw	x16,0(x14)
   8:	0105a583          	lw	x11,16(x11)
   c:	00050793          	mv	x15,x10
  10:	02450693          	addi	x13,x10,36 # 18024 <.L2120+0xa648>
  14:	00400613          	li	x12,4
  18:	01450513          	addi	x10,x10,20
  1c:	0107a023          	sw	x16,0(x15)
  20:	00c7a223          	sw	x12,4(x15)
  24:	00a7a423          	sw	x10,8(x15)
  28:	00d7a623          	sw	x13,12(x15)
  2c:	00b7a823          	sw	x11,16(x15)
  30:	00068693          	mv	x13,x13
  34:	00472283          	lw	x5,4(x14)
  38:	04c29063          	bne	x5,x12,78 <.L125>
  3c:	00872303          	lw	x6,8(x14)
  40:	00c72383          	lw	x7,12(x14)
  44:	01078893          	addi	x17,x15,16
  48:	00078713          	mv	x14,x15
  4c:	40f30e33          	sub	x28,x6,x15
  50:	40f38eb3          	sub	x29,x7,x15

00000054 <.L120>:
  54:	00ee0f33          	add	x30,x28,x14
  58:	000f2f83          	lw	x31,0(x30) # 3fc0000 <.L2120+0x3fb2624>
  5c:	00ee85b3          	add	x11,x29,x14
  60:	00470713          	addi	x14,x14,4
  64:	01f72823          	sw	x31,16(x14)
  68:	0005a803          	lw	x16,0(x11)
  6c:	03072023          	sw	x16,32(x14)
  70:	ff1712e3          	bne	x14,x17,54 <.L120>
  74:	00008067          	ret

00000078 <.L125>:
  78:	ff010113          	addi	x2,x2,-16
  7c:	000007b7          	lui	x15,0x0
  80:	00112623          	sw	x1,12(x2)
  84:	000000b7          	lui	x1,0x0
  88:	0ba00613          	li	x12,186
  8c:	00008593          	mv	x11,x1
  90:	00078513          	mv	x10,x15
  94:	00000097          	auipc	x1,0x0
  98:	000080e7          	jalr	x1 # 94 <.L125+0x1c>
  9c:	000006b7          	lui	x13,0x0
  a0:	00068513          	mv	x10,x13
  a4:	00000097          	auipc	x1,0x0
  a8:	000080e7          	jalr	x1 # a4 <.L125+0x2c>
  ac:	00000637          	lui	x12,0x0
  b0:	00062503          	lw	x10,0(x12) # 0 <_ZN8HBTensorIfLl4EEC1EP11hb_tensor_t>
  b4:	000002b7          	lui	x5,0x0
  b8:	0002a303          	lw	x6,0(x5) # 0 <_ZN8HBTensorIfLl4EEC1EP11hb_tensor_t>
  bc:	01051393          	slli	x7,x10,0x10
  c0:	4100fe37          	lui	x28,0x4100f
  c4:	006388b3          	add	x17,x7,x6
  c8:	ad1e2c23          	sw	x17,-1320(x28) # 4100ead8 <.L2120+0x410010fc>

000000cc <.L119>:
  cc:	0000006f          	j	cc <.L119>

Disassembly of section .rodata.str1.4:

00000000 <.LC3>:
   0:	7265                	lui	x4,0xffff9
   2:	6f72                	flw	f30,28(x2)
   4:	3a72                	fld	f20,312(x2)
   6:	6420                	flw	f8,72(x8)
   8:	6d69                	lui	x26,0x1a
   a:	7365                	lui	x6,0xffff9
   c:	696e                	flw	f18,216(x2)
   e:	6d206e6f          	jal	x28,66e0 <.L1239+0x20>
  12:	7375                	lui	x6,0xffffd
  14:	2074                	fld	f13,192(x8)
  16:	6562                	flw	f10,24(x2)
  18:	6c20                	flw	f8,88(x8)
  1a:	7365                	lui	x6,0xffff9
  1c:	68742073          	csrs	0x687,x8
  20:	6e61                	lui	x28,0x18
  22:	2520                	fld	f8,72(x10)
  24:	0a64                	addi	x9,x2,284
	...

00000028 <.LC4>:
  28:	6e72656b          	0x6e72656b
  2c:	6c65                	lui	x24,0x19
  2e:	635f 6e6f 2e76      	0x2e766e6f635f
  34:	00707063          	bgeu	x0,x7,34 <.LC4+0xc>

00000038 <.LC5>:
  38:	766e6f43          	fmadd.q	f30,f28,f6,f14,unknown
  3c:	6432                	flw	f8,12(x2)
  3e:	6620                	flw	f8,72(x12)
  40:	6c69                	lui	x24,0x1a
  42:	6574                	flw	f13,76(x10)
  44:	2072                	fld	f0,280(x2)
  46:	6f64                	flw	f9,92(x14)
  48:	7365                	lui	x6,0xffff9
  4a:	276e                	fld	f14,216(x2)
  4c:	2074                	fld	f13,192(x8)
  4e:	6966                	flw	f18,88(x2)
  50:	2074                	fld	f13,192(x8)
  52:	6e69                	lui	x28,0x1a
  54:	4420                	lw	x8,72(x8)
  56:	454d                	li	x10,19
  58:	204d                	jal	fa <.L1086+0x1e>
  5a:	6c61                	lui	x24,0x18
  5c:	6f6c                	flw	f11,92(x14)
  5e:	65746163          	bltu	x8,x23,6a0 <.L147+0x8>
  62:	2064                	fld	f9,192(x8)
  64:	7261                	lui	x4,0xffff8
  66:	6172                	flw	f2,28(x2)
  68:	0079                	c.nop	30
	...

0000006c <.LC7>:
  6c:	7265                	lui	x4,0xffff9
  6e:	6f72                	flw	f30,28(x2)
  70:	3a72                	fld	f20,312(x2)
  72:	4e20                	lw	x8,88(x12)
  74:	253d                	jal	6a2 <.L147+0xa>
  76:	2064                	fld	f9,192(x8)
  78:	7562                	flw	f10,56(x2)
  7a:	2074                	fld	f13,192(x8)
  7c:	6361                	lui	x6,0x18
  7e:	73736563          	bltu	x6,x23,7a8 <.L148+0x14>
  82:	6465                	lui	x8,0x19
  84:	2520                	fld	f8,72(x10)
  86:	0a64                	addi	x9,x2,284
	...

Disassembly of section .text._ZN11bsg_barrierILi16ELi8EE4syncEv:

00000000 <_ZN11bsg_barrierILi16ELi8EE4syncEv>:
   0:	000008b7          	lui	x17,0x0
   4:	0008a783          	lw	x15,0(x17) # 0 <_ZN11bsg_barrierILi16ELi8EE4syncEv>
   8:	000005b7          	lui	x11,0x0
   c:	0005a703          	lw	x14,0(x11) # 0 <_ZN11bsg_barrierILi16ELi8EE4syncEv>
  10:	00478293          	addi	x5,x15,4 # 4 <_ZN11bsg_barrierILi16ELi8EE4syncEv+0x4>
  14:	00550333          	add	x6,x10,x5
  18:	01871393          	slli	x7,x14,0x18
  1c:	00736633          	or	x12,x6,x7
  20:	201c06b7          	lui	x13,0x201c0
  24:	00d66833          	or	x16,x12,x13
  28:	00100e13          	li	x28,1
  2c:	01c80023          	sb	x28,0(x16) # 20000000 <.L2120+0x1fff2624>
  30:	0008ae83          	lw	x29,0(x17)
  34:	00700f13          	li	x30,7
  38:	03ee8263          	beq	x29,x30,5c <.L1103>

0000003c <.L1076>:
  3c:	00100593          	li	x11,1
  40:	00c0006f          	j	4c <.L1089>

00000044 <.L1104>:
  44:	140523af          	lr.w.aq	x7,(x10)
  48:	00b38663          	beq	x7,x11,54 <.L1088>

0000004c <.L1089>:
  4c:	100522af          	lr.w	x5,(x10)
  50:	feb29ae3          	bne	x5,x11,44 <.L1104>

00000054 <.L1088>:
  54:	00052023          	sw	x0,0(x10)
  58:	00008067          	ret

0000005c <.L1103>:
  5c:	00450f93          	addi	x31,x10,4
  60:	01450293          	addi	x5,x10,20

00000064 <.L1075>:
  64:	000f8793          	mv	x15,x31

00000068 <.L1078>:
  68:	0007c703          	lbu	x14,0(x15)
  6c:	00178793          	addi	x15,x15,1
  70:	0ff77313          	andi	x6,x14,255
  74:	fe0308e3          	beqz	x6,64 <.L1075>
  78:	fef298e3          	bne	x5,x15,68 <.L1078>
  7c:	0005a383          	lw	x7,0(x11)
  80:	231c0837          	lui	x16,0x231c0
  84:	00100e93          	li	x29,1
  88:	00438613          	addi	x12,x7,4 # 4 <_ZN11bsg_barrierILi16ELi8EE4syncEv+0x4>
  8c:	00c286b3          	add	x13,x5,x12
  90:	0106ee33          	or	x28,x13,x16
  94:	01de0023          	sb	x29,0(x28) # 1a000 <.L2120+0xc624>
  98:	0008af83          	lw	x31,0(x17)
  9c:	00700f13          	li	x30,7
  a0:	f9ef9ee3          	bne	x31,x30,3c <.L1076>
  a4:	0005a703          	lw	x14,0(x11)
  a8:	00300793          	li	x15,3
  ac:	01850313          	addi	x6,x10,24
  b0:	02050393          	addi	x7,x10,32
  b4:	06f70a63          	beq	x14,x15,128 <.L1079>

000000b8 <.L1084>:
  b8:	00100e93          	li	x29,1
  bc:	00c0006f          	j	c8 <.L1080>

000000c0 <.L1105>:
  c0:	1402a32f          	lr.w.aq	x6,(x5)
  c4:	01d30663          	beq	x6,x29,d0 <.L1085>

000000c8 <.L1080>:
  c8:	1002ae2f          	lr.w	x28,(x5)
  cc:	ffde1ae3          	bne	x28,x29,c0 <.L1105>

000000d0 <.L1085>:
  d0:	00052a23          	sw	x0,20(x10)
  d4:	00000f93          	li	x31,0
  d8:	01000293          	li	x5,16

000000dc <.L1086>:
  dc:	01f503b3          	add	x7,x10,x31
  e0:	00038223          	sb	x0,4(x7)
  e4:	001f8f93          	addi	x31,x31,1
  e8:	fe5f9ae3          	bne	x31,x5,dc <.L1086>
  ec:	00052023          	sw	x0,0(x10)
  f0:	00000713          	li	x14,0
  f4:	200008b7          	lui	x17,0x20000
  f8:	00100813          	li	x16,1
  fc:	00040637          	lui	x12,0x40
 100:	004006b7          	lui	x13,0x400

00000104 <.L1087>:
 104:	0005a783          	lw	x15,0(x11)
 108:	01879f13          	slli	x30,x15,0x18
 10c:	00ef6eb3          	or	x29,x30,x14
 110:	01d56e33          	or	x28,x10,x29
 114:	011e6333          	or	x6,x28,x17
 118:	01032023          	sw	x16,0(x6) # 18000 <.L2120+0xa624>
 11c:	00c70733          	add	x14,x14,x12
 120:	fed712e3          	bne	x14,x13,104 <.L1087>
 124:	f19ff06f          	j	3c <.L1076>

00000128 <.L1079>:
 128:	00030693          	mv	x13,x6

0000012c <.L1081>:
 12c:	0006c603          	lbu	x12,0(x13) # 400000 <.L2120+0x3f2624>
 130:	00168693          	addi	x13,x13,1
 134:	0ff67813          	andi	x16,x12,255
 138:	fe0808e3          	beqz	x16,128 <.L1079>
 13c:	fed398e3          	bne	x7,x13,12c <.L1081>
 140:	00050c23          	sb	x0,24(x10)
 144:	00050ca3          	sb	x0,25(x10)
 148:	00050d23          	sb	x0,26(x10)
 14c:	00050da3          	sb	x0,27(x10)
 150:	00050e23          	sb	x0,28(x10)
 154:	00050ea3          	sb	x0,29(x10)
 158:	00050f23          	sb	x0,30(x10)
 15c:	00050fa3          	sb	x0,31(x10)
 160:	00052a23          	sw	x0,20(x10)
 164:	00000713          	li	x14,0
 168:	03fc0f37          	lui	x30,0x3fc0
 16c:	20000eb7          	lui	x29,0x20000
 170:	00100e13          	li	x28,1
 174:	01000337          	lui	x6,0x1000
 178:	080003b7          	lui	x7,0x8000
 17c:	0080006f          	j	184 <.L1083>

00000180 <.L1106>:
 180:	0008af83          	lw	x31,0(x17) # 20000000 <.L2120+0x1fff2624>

00000184 <.L1083>:
 184:	012f9f93          	slli	x31,x31,0x12
 188:	01eff7b3          	and	x15,x31,x30
 18c:	00e7e633          	or	x12,x15,x14
 190:	00c2e6b3          	or	x13,x5,x12
 194:	01d6e833          	or	x16,x13,x29
 198:	01c82023          	sw	x28,0(x16) # 231c0000 <.L2120+0x231b2624>
 19c:	00670733          	add	x14,x14,x6
 1a0:	fe7710e3          	bne	x14,x7,180 <.L1106>
 1a4:	0008a883          	lw	x17,0(x17)
 1a8:	00700f13          	li	x30,7
 1ac:	f1e886e3          	beq	x17,x30,b8 <.L1084>
 1b0:	e8dff06f          	j	3c <.L1076>

Disassembly of section .rodata._ZN8HBTensorIfLln1EEC2EP11hb_tensor_t.str1.4:

00000000 <.LC6>:
   0:	7265                	lui	x4,0xffff9
   2:	6f72                	flw	f30,28(x2)
   4:	3a72                	fld	f20,312(x2)
   6:	7420                	flw	f8,104(x8)
   8:	6e65                	lui	x28,0x19
   a:	20726f73          	csrrsi	x30,0x207,4
   e:	6964                	flw	f9,84(x10)
  10:	736d                	lui	x6,0xffffb
  12:	6920                	flw	f8,80(x10)
  14:	6f742073          	csrs	0x6f7,x8
  18:	616c206f          	j	c262e <.L2120+0xb4c52>
  1c:	6772                	flw	f14,28(x2)
  1e:	0065                	c.nop	25

Disassembly of section .text._ZN8HBTensorIfLln1EEC2EP11hb_tensor_t:

00000000 <_ZN8HBTensorIfLln1EEC1EP11hb_tensor_t>:
   0:	00058713          	mv	x14,x11
   4:	0045a683          	lw	x13,4(x11)
   8:	00072803          	lw	x16,0(x14)
   c:	0105a583          	lw	x11,16(x11)
  10:	00050793          	mv	x15,x10
  14:	02850613          	addi	x12,x10,40
  18:	01450513          	addi	x10,x10,20
  1c:	0107a023          	sw	x16,0(x15)
  20:	00d7a223          	sw	x13,4(x15)
  24:	00a7a423          	sw	x10,8(x15)
  28:	00c7a623          	sw	x12,12(x15)
  2c:	00b7a823          	sw	x11,16(x15)
  30:	00060613          	mv	x12,x12
  34:	00500293          	li	x5,5
  38:	04d2e463          	bltu	x5,x13,80 <.L1119>
  3c:	00872303          	lw	x6,8(x14)
  40:	00c72383          	lw	x7,12(x14)
  44:	02068c63          	beqz	x13,7c <.L1107>
  48:	00269893          	slli	x17,x13,0x2
  4c:	00078713          	mv	x14,x15
  50:	01178e33          	add	x28,x15,x17
  54:	40f30eb3          	sub	x29,x6,x15
  58:	40f38f33          	sub	x30,x7,x15

0000005c <.L1111>:
  5c:	00ee8fb3          	add	x31,x29,x14
  60:	000fa683          	lw	x13,0(x31)
  64:	00ef05b3          	add	x11,x30,x14
  68:	00470713          	addi	x14,x14,4
  6c:	00d72823          	sw	x13,16(x14)
  70:	0005a803          	lw	x16,0(x11)
  74:	03072223          	sw	x16,36(x14)
  78:	ffc712e3          	bne	x14,x28,5c <.L1111>

0000007c <.L1107>:
  7c:	00008067          	ret

00000080 <.L1119>:
  80:	ff010113          	addi	x2,x2,-16
  84:	000007b7          	lui	x15,0x0
  88:	00112623          	sw	x1,12(x2)
  8c:	000000b7          	lui	x1,0x0
  90:	0d800613          	li	x12,216
  94:	00008593          	mv	x11,x1
  98:	00078513          	mv	x10,x15
  9c:	00000097          	auipc	x1,0x0
  a0:	000080e7          	jalr	x1 # 9c <.L1119+0x1c>
  a4:	00000637          	lui	x12,0x0
  a8:	00060513          	mv	x10,x12
  ac:	00000097          	auipc	x1,0x0
  b0:	000080e7          	jalr	x1 # ac <.L1119+0x2c>
  b4:	00000537          	lui	x10,0x0
  b8:	00052283          	lw	x5,0(x10) # 0 <_ZN8HBTensorIfLln1EEC1EP11hb_tensor_t>
  bc:	00000337          	lui	x6,0x0
  c0:	00032383          	lw	x7,0(x6) # 0 <_ZN8HBTensorIfLln1EEC1EP11hb_tensor_t>
  c4:	01029893          	slli	x17,x5,0x10
  c8:	4100feb7          	lui	x29,0x4100f
  cc:	00788e33          	add	x28,x17,x7
  d0:	adceac23          	sw	x28,-1320(x29) # 4100ead8 <.L2120+0x410010fc>

000000d4 <.L1109>:
  d4:	0000006f          	j	d4 <.L1109>

Disassembly of section .comment:

00000000 <.comment>:
   0:	4700                	lw	x8,8(x14)
   2:	203a4343          	fmadd.s	f6,f20,f3,f4,rmm
   6:	4728                	lw	x10,72(x14)
   8:	554e                	lw	x10,240(x2)
   a:	2029                	jal	14 <.L8>
   c:	2e39                	jal	32a <.L82+0x2>
   e:	2e32                	fld	f28,264(x2)
  10:	0030                	addi	x12,x2,8

Disassembly of section .eh_frame:

00000000 <.eh_frame>:
   0:	0010                	0x10
   2:	0000                	unimp
   4:	0000                	unimp
   6:	0000                	unimp
   8:	7a01                	lui	x20,0xfffe0
   a:	0052                	c.slli	x0,0x14
   c:	7c01                	lui	x24,0xfffe0
   e:	0101                	addi	x2,x2,0
  10:	00020d1b          	0x20d1b
  14:	0010                	0x10
  16:	0000                	unimp
  18:	0018                	0x18
	...
  26:	0000                	unimp
  28:	0020                	addi	x8,x2,8
  2a:	0000                	unimp
  2c:	002c                	addi	x11,x2,8
	...
  36:	0000                	unimp
  38:	5400                	lw	x8,40(x8)
  3a:	100e                	c.slli	x0,0x23
  3c:	8844                	0x8844
  3e:	0301                	addi	x6,x6,0
  40:	018c                	addi	x11,x2,192
  42:	c80a                	sw	x2,16(x2)
  44:	0e4c                	addi	x11,x2,788
  46:	4400                	lw	x8,8(x8)
  48:	0000000b          	0xb
  4c:	0014                	0x14
  4e:	0000                	unimp
  50:	0050                	addi	x12,x2,4
	...
  5a:	0000                	unimp
  5c:	0200                	addi	x8,x2,256
  5e:	0e7c                	addi	x15,x2,796
  60:	4810                	lw	x12,16(x8)
  62:	0181                	addi	x3,x3,0
  64:	0034                	addi	x13,x2,8
  66:	0000                	unimp
  68:	0068                	addi	x10,x2,12
	...
  72:	0000                	unimp
  74:	4400                	lw	x8,8(x8)
  76:	c00e                	sw	x3,0(x2)
  78:	4401                	li	x8,0
  7a:	0288                	addi	x10,x2,320
  7c:	8154                	0x8154
  7e:	8901                	andi	x10,x10,0
  80:	50049203          	lh	x4,1280(x9) # 1000500 <.L2120+0xff2b24>
  84:	06940593          	addi	x11,x8,105 # 19069 <.L2120+0xb68d>
  88:	dc02                	sw	x0,56(x2)
  8a:	c10a                	sw	x2,128(x2)
  8c:	c854                	sw	x13,20(x8)
  8e:	c944                	sw	x9,20(x10)
  90:	d244                	sw	x9,36(x12)
  92:	d344                	sw	x9,36(x14)
  94:	d444                	sw	x9,44(x8)
  96:	0e44                	addi	x9,x2,788
  98:	4400                	lw	x8,8(x8)
  9a:	0054000b          	0x54000b
  9e:	0000                	unimp
  a0:	00a0                	addi	x8,x2,72
	...
  aa:	0000                	unimp
  ac:	4400                	lw	x8,8(x8)
  ae:	c00e                	sw	x3,0(x2)
  b0:	4c04                	lw	x9,24(x8)
  b2:	0389                	addi	x7,x7,2
  b4:	8154                	0x8154
  b6:	8801                	andi	x8,x8,0
  b8:	9202                	jalr	x4
  ba:	5004                	lw	x9,32(x8)
  bc:	06940593          	addi	x11,x8,105
  c0:	9560                	0x9560
  c2:	97089607          	0x97089607
  c6:	9809                	andi	x8,x8,-30
  c8:	990a                	add	x18,x18,x2
  ca:	9b0c9a0b          	0x9b0c9a0b
  ce:	030d                	addi	x6,x6,3
  d0:	0a4c                	addi	x11,x2,276
  d2:	c10a                	sw	x2,128(x2)
  d4:	c844                	sw	x9,20(x8)
  d6:	c948                	sw	x10,20(x10)
  d8:	d244                	sw	x9,36(x12)
  da:	d344                	sw	x9,36(x14)
  dc:	d444                	sw	x9,44(x8)
  de:	d544                	sw	x9,44(x10)
  e0:	d644                	sw	x9,44(x12)
  e2:	d744                	sw	x9,44(x14)
  e4:	d844                	sw	x9,52(x8)
  e6:	d944                	sw	x9,52(x10)
  e8:	da44                	sw	x9,52(x12)
  ea:	db44                	sw	x9,52(x14)
  ec:	0e48                	addi	x10,x2,788
  ee:	4400                	lw	x8,8(x8)
  f0:	0000000b          	0xb
  f4:	0054                	addi	x13,x2,4
  f6:	0000                	unimp
  f8:	00f8                	addi	x14,x2,76
	...
 102:	0000                	unimp
 104:	4400                	lw	x8,8(x8)
 106:	e00e                	fsw	f3,0(x2)
 108:	4401                	li	x8,0
 10a:	0492                	slli	x9,x9,0x4
 10c:	894c                	0x894c
 10e:	01815403          	lhu	x8,24(x2)
 112:	0288                	addi	x10,x2,320
 114:	94500593          	li	x11,-1723
 118:	9506                	add	x10,x10,x1
 11a:	08965c07          	0x8965c07
 11e:	0a980997          	auipc	x19,0xa980
 122:	0b99                	addi	x23,x23,6
 124:	0c9a                	slli	x25,x25,0x6
 126:	bc020d9b          	0xbc020d9b
 12a:	c10a                	sw	x2,128(x2)
 12c:	c844                	sw	x9,20(x8)
 12e:	c944                	sw	x9,20(x10)
 130:	d244                	sw	x9,36(x12)
 132:	d344                	sw	x9,36(x14)
 134:	d444                	sw	x9,44(x8)
 136:	d544                	sw	x9,44(x10)
 138:	d644                	sw	x9,44(x12)
 13a:	d744                	sw	x9,44(x14)
 13c:	d844                	sw	x9,52(x8)
 13e:	d944                	sw	x9,52(x10)
 140:	da44                	sw	x9,52(x12)
 142:	db44                	sw	x9,52(x14)
 144:	0e44                	addi	x9,x2,788
 146:	4400                	lw	x8,8(x8)
 148:	0000000b          	0xb
 14c:	0054                	addi	x13,x2,4
 14e:	0000                	unimp
 150:	0150                	addi	x12,x2,132
	...
 15a:	0000                	unimp
 15c:	4400                	lw	x8,8(x8)
 15e:	e00e                	fsw	f3,0(x2)
 160:	4401                	li	x8,0
 162:	894c0593          	addi	x11,x24,-1900 # fffdf894 <.L2120+0xfffd1eb8>
 166:	01815403          	lhu	x8,24(x2)
 16a:	0288                	addi	x10,x2,320
 16c:	0492                	slli	x9,x9,0x4
 16e:	9450                	0x9450
 170:	9506                	add	x10,x10,x1
 172:	08965c07          	0x8965c07
 176:	0a980997          	auipc	x19,0xa980
 17a:	0b99                	addi	x23,x23,6
 17c:	0c9a                	slli	x25,x25,0x6
 17e:	bc020d9b          	0xbc020d9b
 182:	c10a                	sw	x2,128(x2)
 184:	c844                	sw	x9,20(x8)
 186:	c944                	sw	x9,20(x10)
 188:	d244                	sw	x9,36(x12)
 18a:	d344                	sw	x9,36(x14)
 18c:	d444                	sw	x9,44(x8)
 18e:	d544                	sw	x9,44(x10)
 190:	d644                	sw	x9,44(x12)
 192:	d744                	sw	x9,44(x14)
 194:	d844                	sw	x9,52(x8)
 196:	d944                	sw	x9,52(x10)
 198:	da44                	sw	x9,52(x12)
 19a:	db44                	sw	x9,52(x14)
 19c:	0e44                	addi	x9,x2,788
 19e:	4400                	lw	x8,8(x8)
 1a0:	0000000b          	0xb
 1a4:	0054                	addi	x13,x2,4
 1a6:	0000                	unimp
 1a8:	01a8                	addi	x10,x2,200
	...
 1b2:	0000                	unimp
 1b4:	4400                	lw	x8,8(x8)
 1b6:	e00e                	fsw	f3,0(x2)
 1b8:	4401                	li	x8,0
 1ba:	894c0593          	addi	x11,x24,-1900
 1be:	01815403          	lhu	x8,24(x2)
 1c2:	0288                	addi	x10,x2,320
 1c4:	0492                	slli	x9,x9,0x4
 1c6:	9450                	0x9450
 1c8:	9506                	add	x10,x10,x1
 1ca:	08965c07          	0x8965c07
 1ce:	0a980997          	auipc	x19,0xa980
 1d2:	0b99                	addi	x23,x23,6
 1d4:	0c9a                	slli	x25,x25,0x6
 1d6:	bc020d9b          	0xbc020d9b
 1da:	c10a                	sw	x2,128(x2)
 1dc:	c844                	sw	x9,20(x8)
 1de:	c944                	sw	x9,20(x10)
 1e0:	d244                	sw	x9,36(x12)
 1e2:	d344                	sw	x9,36(x14)
 1e4:	d444                	sw	x9,44(x8)
 1e6:	d544                	sw	x9,44(x10)
 1e8:	d644                	sw	x9,44(x12)
 1ea:	d744                	sw	x9,44(x14)
 1ec:	d844                	sw	x9,52(x8)
 1ee:	d944                	sw	x9,52(x10)
 1f0:	da44                	sw	x9,52(x12)
 1f2:	db44                	sw	x9,52(x14)
 1f4:	0e44                	addi	x9,x2,788
 1f6:	4400                	lw	x8,8(x8)
 1f8:	0000000b          	0xb
 1fc:	0054                	addi	x13,x2,4
 1fe:	0000                	unimp
 200:	0200                	addi	x8,x2,256
	...
 20a:	0000                	unimp
 20c:	4400                	lw	x8,8(x8)
 20e:	800e                	c.mv	x0,x3
 210:	04924403          	lbu	x8,73(x4) # ffff9049 <.L2120+0xfffeb66d>
 214:	894c                	0x894c
 216:	01815403          	lhu	x8,24(x2)
 21a:	0288                	addi	x10,x2,320
 21c:	94500593          	li	x11,-1723
 220:	9506                	add	x10,x10,x1
 222:	08965c07          	0x8965c07
 226:	0a980997          	auipc	x19,0xa980
 22a:	0b99                	addi	x23,x23,6
 22c:	0c9a                	slli	x25,x25,0x6
 22e:	bc020d9b          	0xbc020d9b
 232:	c10a                	sw	x2,128(x2)
 234:	c844                	sw	x9,20(x8)
 236:	c944                	sw	x9,20(x10)
 238:	d244                	sw	x9,36(x12)
 23a:	d344                	sw	x9,36(x14)
 23c:	d444                	sw	x9,44(x8)
 23e:	d544                	sw	x9,44(x10)
 240:	d644                	sw	x9,44(x12)
 242:	d744                	sw	x9,44(x14)
 244:	d844                	sw	x9,52(x8)
 246:	d944                	sw	x9,52(x10)
 248:	da44                	sw	x9,52(x12)
 24a:	db44                	sw	x9,52(x14)
 24c:	0e44                	addi	x9,x2,788
 24e:	4400                	lw	x8,8(x8)
 250:	0000000b          	0xb
 254:	0054                	addi	x13,x2,4
 256:	0000                	unimp
 258:	0258                	addi	x14,x2,260
	...
 262:	0000                	unimp
 264:	4400                	lw	x8,8(x8)
 266:	900e                	c.add	x0,x3
 268:	04924403          	lbu	x8,73(x4) # 49 <.eh_frame+0x49>
 26c:	894c                	0x894c
 26e:	01815403          	lhu	x8,24(x2)
 272:	0288                	addi	x10,x2,320
 274:	94500593          	li	x11,-1723
 278:	9706                	add	x14,x14,x1
 27a:	5c09                	li	x24,-30
 27c:	0795                	addi	x15,x15,5
 27e:	0896                	slli	x17,x17,0x5
 280:	0a98                	addi	x14,x2,336
 282:	0b99                	addi	x23,x23,6
 284:	0c9a                	slli	x25,x25,0x6
 286:	c0020d9b          	0xc0020d9b
 28a:	c10a                	sw	x2,128(x2)
 28c:	c844                	sw	x9,20(x8)
 28e:	c944                	sw	x9,20(x10)
 290:	d244                	sw	x9,36(x12)
 292:	d344                	sw	x9,36(x14)
 294:	d444                	sw	x9,44(x8)
 296:	d544                	sw	x9,44(x10)
 298:	d644                	sw	x9,44(x12)
 29a:	d744                	sw	x9,44(x14)
 29c:	d844                	sw	x9,52(x8)
 29e:	d944                	sw	x9,52(x10)
 2a0:	da44                	sw	x9,52(x12)
 2a2:	db44                	sw	x9,52(x14)
 2a4:	0e44                	addi	x9,x2,788
 2a6:	4400                	lw	x8,8(x8)
 2a8:	0000000b          	0xb
 2ac:	0054                	addi	x13,x2,4
 2ae:	0000                	unimp
 2b0:	02b0                	addi	x12,x2,328
	...
 2ba:	0000                	unimp
 2bc:	4400                	lw	x8,8(x8)
 2be:	800e                	c.mv	x0,x3
 2c0:	04924403          	lbu	x8,73(x4) # 49 <.eh_frame+0x49>
 2c4:	894c                	0x894c
 2c6:	01815403          	lhu	x8,24(x2)
 2ca:	0288                	addi	x10,x2,320
 2cc:	94500593          	li	x11,-1723
 2d0:	9506                	add	x10,x10,x1
 2d2:	08965c07          	0x8965c07
 2d6:	0a980997          	auipc	x19,0xa980
 2da:	0b99                	addi	x23,x23,6
 2dc:	0c9a                	slli	x25,x25,0x6
 2de:	bc020d9b          	0xbc020d9b
 2e2:	c10a                	sw	x2,128(x2)
 2e4:	c844                	sw	x9,20(x8)
 2e6:	c944                	sw	x9,20(x10)
 2e8:	d244                	sw	x9,36(x12)
 2ea:	d344                	sw	x9,36(x14)
 2ec:	d444                	sw	x9,44(x8)
 2ee:	d544                	sw	x9,44(x10)
 2f0:	d644                	sw	x9,44(x12)
 2f2:	d744                	sw	x9,44(x14)
 2f4:	d844                	sw	x9,52(x8)
 2f6:	d944                	sw	x9,52(x10)
 2f8:	da44                	sw	x9,52(x12)
 2fa:	db44                	sw	x9,52(x14)
 2fc:	0e44                	addi	x9,x2,788
 2fe:	4400                	lw	x8,8(x8)
 300:	0000000b          	0xb
 304:	0054                	addi	x13,x2,4
 306:	0000                	unimp
 308:	0308                	addi	x10,x2,384
	...
 312:	0000                	unimp
 314:	4400                	lw	x8,8(x8)
 316:	800e                	c.mv	x0,x3
 318:	04924403          	lbu	x8,73(x4) # 49 <.eh_frame+0x49>
 31c:	894c                	0x894c
 31e:	01815403          	lhu	x8,24(x2)
 322:	0288                	addi	x10,x2,320
 324:	94500593          	li	x11,-1723
 328:	9506                	add	x10,x10,x1
 32a:	08965c07          	0x8965c07
 32e:	0a980997          	auipc	x19,0xa980
 332:	0b99                	addi	x23,x23,6
 334:	0c9a                	slli	x25,x25,0x6
 336:	bc020d9b          	0xbc020d9b
 33a:	c10a                	sw	x2,128(x2)
 33c:	c844                	sw	x9,20(x8)
 33e:	c944                	sw	x9,20(x10)
 340:	d244                	sw	x9,36(x12)
 342:	d344                	sw	x9,36(x14)
 344:	d444                	sw	x9,44(x8)
 346:	d544                	sw	x9,44(x10)
 348:	d644                	sw	x9,44(x12)
 34a:	d744                	sw	x9,44(x14)
 34c:	d844                	sw	x9,52(x8)
 34e:	d944                	sw	x9,52(x10)
 350:	da44                	sw	x9,52(x12)
 352:	db44                	sw	x9,52(x14)
 354:	0e44                	addi	x9,x2,788
 356:	4400                	lw	x8,8(x8)
 358:	0000000b          	0xb
 35c:	0040                	addi	x8,x2,4
 35e:	0000                	unimp
 360:	0360                	addi	x8,x2,396
	...
 36a:	0000                	unimp
 36c:	4400                	lw	x8,8(x8)
 36e:	200e                	fld	f0,192(x2)
 370:	8858                	0x8858
 372:	8902                	jr	x18
 374:	93049203          	lh	x4,-1744(x9)
 378:	9405                	srai	x8,x8,0x21
 37a:	8106                	mv	x2,x1
 37c:	6401                	0x6401
 37e:	c10a                	sw	x2,128(x2)
 380:	c844                	sw	x9,20(x8)
 382:	c944                	sw	x9,20(x10)
 384:	d244                	sw	x9,36(x12)
 386:	d344                	sw	x9,36(x14)
 388:	d444                	sw	x9,44(x8)
 38a:	0e48                	addi	x10,x2,788
 38c:	4400                	lw	x8,8(x8)
 38e:	c8c8020b          	0xc8c8020b
 392:	c144                	sw	x9,4(x10)
 394:	c94c                	sw	x11,20(x10)
 396:	d244                	sw	x9,36(x12)
 398:	d34c                	sw	x11,36(x14)
 39a:	d444                	sw	x9,44(x8)
 39c:	0e44                	addi	x9,x2,788
 39e:	0000                	unimp
 3a0:	0010                	0x10
 3a2:	0000                	unimp
 3a4:	03a4                	addi	x9,x2,456
	...
 3b2:	0000                	unimp
 3b4:	0014                	0x14
 3b6:	0000                	unimp
 3b8:	03b8                	addi	x14,x2,456
	...
 3c2:	0000                	unimp
 3c4:	0200                	addi	x8,x2,256
 3c6:	0e84                	addi	x9,x2,848
 3c8:	4810                	lw	x12,16(x8)
 3ca:	0181                	addi	x3,x3,0
 3cc:	004c                	addi	x11,x2,4
 3ce:	0000                	unimp
 3d0:	03d0                	addi	x12,x2,452
	...
 3da:	0000                	unimp
 3dc:	4400                	lw	x8,8(x8)
 3de:	b00e                	fsd	f3,32(x2)
 3e0:	4c01                	li	x24,0
 3e2:	0288                	addi	x10,x2,320
 3e4:	8174                	0x8174
 3e6:	8901                	andi	x10,x10,0
 3e8:	93049203          	lh	x4,-1744(x9)
 3ec:	9405                	srai	x8,x8,0x21
 3ee:	9506                	add	x10,x10,x1
 3f0:	97089607          	0x97089607
 3f4:	9809                	andi	x8,x8,-30
 3f6:	990a                	add	x18,x18,x2
 3f8:	030c9a0b          	0x30c9a0b
 3fc:	0270                	addi	x12,x2,268
 3fe:	c10a                	sw	x2,128(x2)
 400:	c844                	sw	x9,20(x8)
 402:	c948                	sw	x10,20(x10)
 404:	d244                	sw	x9,36(x12)
 406:	d344                	sw	x9,36(x14)
 408:	d444                	sw	x9,44(x8)
 40a:	d544                	sw	x9,44(x10)
 40c:	d644                	sw	x9,44(x12)
 40e:	d744                	sw	x9,44(x14)
 410:	d844                	sw	x9,52(x8)
 412:	d944                	sw	x9,52(x10)
 414:	da44                	sw	x9,52(x12)
 416:	0e48                	addi	x10,x2,788
 418:	4400                	lw	x8,8(x8)
 41a:	0054000b          	0x54000b
 41e:	0000                	unimp
 420:	0420                	addi	x8,x2,520
	...
 42a:	0000                	unimp
 42c:	4400                	lw	x8,8(x8)
 42e:	d00e                	sw	x3,32(x2)
 430:	4c02                	lw	x24,0(x2)
 432:	0389                	addi	x7,x7,2
 434:	8154                	0x8154
 436:	8801                	andi	x8,x8,0
 438:	9202                	jalr	x4
 43a:	5004                	lw	x9,32(x8)
 43c:	06940593          	addi	x11,x8,105
 440:	9560                	0x9560
 442:	97089607          	0x97089607
 446:	9809                	andi	x8,x8,-30
 448:	990a                	add	x18,x18,x2
 44a:	9b0c9a0b          	0x9b0c9a0b
 44e:	030d                	addi	x6,x6,3
 450:	04e4                	addi	x9,x2,588
 452:	c10a                	sw	x2,128(x2)
 454:	c844                	sw	x9,20(x8)
 456:	c950                	sw	x12,20(x10)
 458:	d244                	sw	x9,36(x12)
 45a:	d344                	sw	x9,36(x14)
 45c:	d444                	sw	x9,44(x8)
 45e:	d544                	sw	x9,44(x10)
 460:	d644                	sw	x9,44(x12)
 462:	d744                	sw	x9,44(x14)
 464:	d844                	sw	x9,52(x8)
 466:	d944                	sw	x9,52(x10)
 468:	da44                	sw	x9,52(x12)
 46a:	db44                	sw	x9,52(x14)
 46c:	0e48                	addi	x10,x2,788
 46e:	4400                	lw	x8,8(x8)
 470:	0000000b          	0xb
 474:	0054                	addi	x13,x2,4
 476:	0000                	unimp
 478:	0478                	addi	x14,x2,524
	...
 482:	0000                	unimp
 484:	4400                	lw	x8,8(x8)
 486:	800e                	c.mv	x0,x3
 488:	4402                	lw	x8,0(x2)
 48a:	0389                	addi	x7,x7,2
 48c:	8154                	0x8154
 48e:	8801                	andi	x8,x8,0
 490:	9202                	jalr	x4
 492:	4c04                	lw	x9,24(x8)
 494:	06940593          	addi	x11,x8,105
 498:	9568                	0x9568
 49a:	97089607          	0x97089607
 49e:	9809                	andi	x8,x8,-30
 4a0:	990a                	add	x18,x18,x2
 4a2:	9b0c9a0b          	0x9b0c9a0b
 4a6:	030d                	addi	x6,x6,3
 4a8:	033c                	addi	x15,x2,392
 4aa:	c10a                	sw	x2,128(x2)
 4ac:	c844                	sw	x9,20(x8)
 4ae:	c944                	sw	x9,20(x10)
 4b0:	d244                	sw	x9,36(x12)
 4b2:	d344                	sw	x9,36(x14)
 4b4:	d444                	sw	x9,44(x8)
 4b6:	d544                	sw	x9,44(x10)
 4b8:	d644                	sw	x9,44(x12)
 4ba:	d744                	sw	x9,44(x14)
 4bc:	d844                	sw	x9,52(x8)
 4be:	d944                	sw	x9,52(x10)
 4c0:	da44                	sw	x9,52(x12)
 4c2:	db44                	sw	x9,52(x14)
 4c4:	0e44                	addi	x9,x2,788
 4c6:	4400                	lw	x8,8(x8)
 4c8:	0000000b          	0xb
 4cc:	0050                	addi	x12,x2,4
 4ce:	0000                	unimp
 4d0:	04d0                	addi	x12,x2,580
	...
 4da:	0000                	unimp
 4dc:	4400                	lw	x8,8(x8)
 4de:	c00e                	sw	x3,0(x2)
 4e0:	4802                	lw	x16,0(x2)
 4e2:	0288                	addi	x10,x2,320
 4e4:	0389                	addi	x7,x7,2
 4e6:	815c                	0x815c
 4e8:	9201                	srli	x12,x12,0x20
 4ea:	9304                	0x9304
 4ec:	6805                	lui	x16,0x1
 4ee:	0694                	addi	x13,x2,832
 4f0:	0795                	addi	x15,x15,5
 4f2:	0896                	slli	x17,x17,0x5
 4f4:	0a980997          	auipc	x19,0xa980
 4f8:	0b99                	addi	x23,x23,6
 4fa:	0c9a                	slli	x25,x25,0x6
 4fc:	9c030d9b          	0x9c030d9b
 500:	0a04                	addi	x9,x2,272
 502:	44c1                	li	x9,16
 504:	48c8                	lw	x10,20(x9)
 506:	44c9                	li	x9,18
 508:	44d2                	lw	x9,20(x2)
 50a:	44d444d3          	0x44d444d3
 50e:	44d5                	li	x9,21
 510:	44d6                	lw	x9,84(x2)
 512:	44d844d7          	0x44d844d7
 516:	44d9                	li	x9,22
 518:	44da                	lw	x9,148(x2)
 51a:	000e48db          	0xe48db
 51e:	0b44                	addi	x9,x2,404
 520:	0054                	addi	x13,x2,4
 522:	0000                	unimp
 524:	0524                	addi	x9,x2,648
	...
 52e:	0000                	unimp
 530:	4400                	lw	x8,8(x8)
 532:	f00e                	fsw	f3,32(x2)
 534:	4401                	li	x8,0
 536:	0389                	addi	x7,x7,2
 538:	8154                	0x8154
 53a:	8801                	andi	x8,x8,0
 53c:	9202                	jalr	x4
 53e:	4c04                	lw	x9,24(x8)
 540:	06940593          	addi	x11,x8,105
 544:	9568                	0x9568
 546:	97089607          	0x97089607
 54a:	9809                	andi	x8,x8,-30
 54c:	990a                	add	x18,x18,x2
 54e:	9b0c9a0b          	0x9b0c9a0b
 552:	030d                	addi	x6,x6,3
 554:	033c                	addi	x15,x2,392
 556:	c10a                	sw	x2,128(x2)
 558:	c844                	sw	x9,20(x8)
 55a:	c944                	sw	x9,20(x10)
 55c:	d244                	sw	x9,36(x12)
 55e:	d344                	sw	x9,36(x14)
 560:	d444                	sw	x9,44(x8)
 562:	d544                	sw	x9,44(x10)
 564:	d644                	sw	x9,44(x12)
 566:	d744                	sw	x9,44(x14)
 568:	d844                	sw	x9,52(x8)
 56a:	d944                	sw	x9,52(x10)
 56c:	da44                	sw	x9,52(x12)
 56e:	db44                	sw	x9,52(x14)
 570:	0e44                	addi	x9,x2,788
 572:	4400                	lw	x8,8(x8)
 574:	0000000b          	0xb

Disassembly of section .riscv.attributes:

00000000 <.riscv.attributes>:
   0:	2a41                	jal	190 <.L60+0x8>
   2:	0000                	unimp
   4:	7200                	flw	f8,32(x12)
   6:	7369                	lui	x6,0xffffa
   8:	01007663          	bgeu	x0,x16,14 <.riscv.attributes+0x14>
   c:	0020                	addi	x8,x2,8
   e:	0000                	unimp
  10:	1004                	addi	x9,x2,32
  12:	7205                	lui	x4,0xfffe1
  14:	3376                	fld	f6,376(x2)
  16:	6932                	flw	f18,12(x2)
  18:	7032                	flw	f0,44(x2)
  1a:	5f30                	lw	x12,120(x14)
  1c:	326d                	jal	fffff9c6 <.L2120+0xffff1fea>
  1e:	3070                	fld	f12,224(x8)
  20:	615f 7032 5f30      	0x5f307032615f
  26:	3266                	fld	f4,120(x2)
  28:	3070                	fld	f12,224(x8)
	...
