
kernel_LossNLL_backward.o:     file format elf32-littleriscv


Disassembly of section .group:

00000000 <_ZN8HBTensorIfLln1EEC5EP11hb_tensor_t>:
   0:	0001                	nop
   2:	0000                	unimp
   4:	0008                	0x8
   6:	0000                	unimp
   8:	0009                	c.nop	2
	...

Disassembly of section .group:

00000000 <_ZN8HBTensorIiLln1EEC5EP11hb_tensor_t>:
   0:	0001                	nop
   2:	0000                	unimp
   4:	000a                	c.slli	x0,0x2
   6:	0000                	unimp
   8:	0000000b          	0xb

Disassembly of section .text:

00000000 <tensorlib_lossnll_backward_weight>:
       0:	e7010113          	addi	x2,x2,-400
       4:	17312e23          	sw	x19,380(x2)
       8:	17412c23          	sw	x20,376(x2)
       c:	00058993          	mv	x19,x11
      10:	00050a13          	mv	x20,x10
      14:	00070593          	mv	x11,x14
      18:	00810513          	addi	x10,x2,8
      1c:	18112623          	sw	x1,396(x2)
      20:	18812423          	sw	x8,392(x2)
      24:	18912223          	sw	x9,388(x2)
      28:	00078413          	mv	x8,x15
      2c:	00068493          	mv	x9,x13
      30:	19212023          	sw	x18,384(x2)
      34:	17512a23          	sw	x21,372(x2)
      38:	00060913          	mv	x18,x12
      3c:	00088a93          	mv	x21,x17
      40:	17612823          	sw	x22,368(x2)
      44:	00080b13          	mv	x22,x16
      48:	00000097          	auipc	x1,0x0
      4c:	000080e7          	jalr	x1 # 48 <tensorlib_lossnll_backward_weight+0x48>
      50:	000a0593          	mv	x11,x20
      54:	04410513          	addi	x10,x2,68
      58:	00000097          	auipc	x1,0x0
      5c:	000080e7          	jalr	x1 # 58 <tensorlib_lossnll_backward_weight+0x58>
      60:	00098593          	mv	x11,x19
      64:	08010513          	addi	x10,x2,128
      68:	00000097          	auipc	x1,0x0
      6c:	000080e7          	jalr	x1 # 68 <tensorlib_lossnll_backward_weight+0x68>
      70:	00090593          	mv	x11,x18
      74:	0bc10513          	addi	x10,x2,188
      78:	00000097          	auipc	x1,0x0
      7c:	000080e7          	jalr	x1 # 78 <tensorlib_lossnll_backward_weight+0x78>
      80:	00048593          	mv	x11,x9
      84:	0f810513          	addi	x10,x2,248
      88:	00000097          	auipc	x1,0x0
      8c:	000080e7          	jalr	x1 # 88 <tensorlib_lossnll_backward_weight+0x88>
      90:	00040593          	mv	x11,x8
      94:	13410513          	addi	x10,x2,308
      98:	00000097          	auipc	x1,0x0
      9c:	000080e7          	jalr	x1 # 98 <tensorlib_lossnll_backward_weight+0x98>
      a0:	0c012783          	lw	x15,192(x2)
      a4:	00100713          	li	x14,1
      a8:	08f77863          	bgeu	x14,x15,138 <.L119>
      ac:	0c812683          	lw	x13,200(x2)
      b0:	000b2603          	lw	x12,0(x22)
      b4:	000aa803          	lw	x16,0(x21)
      b8:	0006a503          	lw	x10,0(x13)
      bc:	00061663          	bnez	x12,c8 <.L31>
      c0:	00200593          	li	x11,2
      c4:	12b78063          	beq	x15,x11,1e4 <.L120>

000000c8 <.L31>:
      c8:	13412083          	lw	x1,308(x2)
      cc:	0c008063          	beqz	x1,18c <.L121>
      d0:	14412283          	lw	x5,324(x2)
      d4:	f00007d3          	fmv.w.x	f15,x0
      d8:	0002a707          	flw	f14,0(x5)
      dc:	a0f70353          	fle.s	x6,f14,f15
      e0:	22031a63          	bnez	x6,314 <.L36>
      e4:	08412383          	lw	x7,132(x2)
      e8:	00100893          	li	x17,1
      ec:	0078e663          	bltu	x17,x7,f8 <.L53>
      f0:	08012e03          	lw	x28,128(x2)
      f4:	411e0863          	beq	x28,x17,504 <.L122>

000000f8 <.L53>:
      f8:	000007b7          	lui	x15,0x0
      fc:	00000b37          	lui	x22,0x0
     100:	000b0593          	mv	x11,x22
     104:	03300613          	li	x12,51
     108:	00078513          	mv	x10,x15
     10c:	00000097          	auipc	x1,0x0
     110:	000080e7          	jalr	x1 # 10c <.L53+0x14>
     114:	000005b7          	lui	x11,0x0
     118:	0005ae03          	lw	x28,0(x11) # 0 <tensorlib_lossnll_backward_weight>
     11c:	000003b7          	lui	x7,0x0
     120:	0003a283          	lw	x5,0(x7) # 0 <tensorlib_lossnll_backward_weight>
     124:	010e1f93          	slli	x31,x28,0x10
     128:	4100ff37          	lui	x30,0x4100f
     12c:	005f8333          	add	x6,x31,x5
     130:	ac6f2c23          	sw	x6,-1320(x30) # 4100ead8 <.L196+0x4100da5c>

00000134 <.L55>:
     134:	0000006f          	j	134 <.L55>

00000138 <.L119>:
     138:	000000b7          	lui	x1,0x0
     13c:	00000fb7          	lui	x31,0x0
     140:	06b00613          	li	x12,107
     144:	00008593          	mv	x11,x1
     148:	000f8513          	mv	x10,x31
     14c:	00000097          	auipc	x1,0x0
     150:	000080e7          	jalr	x1 # 14c <.L119+0x14>
     154:	0c012583          	lw	x11,192(x2)
     158:	00000f37          	lui	x30,0x0
     15c:	000f0513          	mv	x10,x30
     160:	00000097          	auipc	x1,0x0
     164:	000080e7          	jalr	x1 # 160 <.L119+0x28>
     168:	00000337          	lui	x6,0x0
     16c:	00032503          	lw	x10,0(x6) # 0 <tensorlib_lossnll_backward_weight>
     170:	00000eb7          	lui	x29,0x0
     174:	000eae03          	lw	x28,0(x29) # 0 <tensorlib_lossnll_backward_weight>
     178:	01051613          	slli	x12,x10,0x10
     17c:	4100f5b7          	lui	x11,0x4100f
     180:	01c60ab3          	add	x21,x12,x28
     184:	ad55ac23          	sw	x21,-1320(x11) # 4100ead8 <.L196+0x4100da5c>

00000188 <.L30>:
     188:	0000006f          	j	188 <.L30>

0000018c <.L121>:
     18c:	000008b7          	lui	x17,0x0
     190:	00000eb7          	lui	x29,0x0
     194:	00088593          	mv	x11,x17
     198:	07b00613          	li	x12,123
     19c:	000e8513          	mv	x10,x29
     1a0:	00000097          	auipc	x1,0x0
     1a4:	000080e7          	jalr	x1 # 1a0 <.L121+0x14>
     1a8:	13412583          	lw	x11,308(x2)
     1ac:	00000537          	lui	x10,0x0
     1b0:	00000613          	li	x12,0
     1b4:	00050513          	mv	x10,x10
     1b8:	00000097          	auipc	x1,0x0
     1bc:	000080e7          	jalr	x1 # 1b8 <.L121+0x2c>
     1c0:	00000ab7          	lui	x21,0x0
     1c4:	000aa683          	lw	x13,0(x21) # 0 <tensorlib_lossnll_backward_weight>
     1c8:	000009b7          	lui	x19,0x0
     1cc:	0009a703          	lw	x14,0(x19) # 0 <tensorlib_lossnll_backward_weight>
     1d0:	01069a13          	slli	x20,x13,0x10
     1d4:	4100f4b7          	lui	x9,0x4100f
     1d8:	00ea0933          	add	x18,x20,x14
     1dc:	ad24ac23          	sw	x18,-1320(x9) # 4100ead8 <.L196+0x4100da5c>

000001e0 <.L52>:
     1e0:	0000006f          	j	1e0 <.L52>

000001e4 <.L120>:
     1e4:	08412083          	lw	x1,132(x2)
     1e8:	00e09863          	bne	x1,x14,1f8 <.L32>
     1ec:	08c12403          	lw	x8,140(x2)
     1f0:	00042603          	lw	x12,0(x8)
     1f4:	04c50263          	beq	x10,x12,238 <.L33>

000001f8 <.L32>:
     1f8:	00000937          	lui	x18,0x0
     1fc:	000009b7          	lui	x19,0x0
     200:	02200613          	li	x12,34
     204:	00090593          	mv	x11,x18
     208:	00098513          	mv	x10,x19
     20c:	00000097          	auipc	x1,0x0
     210:	000080e7          	jalr	x1 # 20c <.L32+0x14>
     214:	00000a37          	lui	x20,0x0
     218:	000a2283          	lw	x5,0(x20) # 0 <tensorlib_lossnll_backward_weight>
     21c:	00000437          	lui	x8,0x0
     220:	00042803          	lw	x16,0(x8) # 0 <tensorlib_lossnll_backward_weight>
     224:	01029693          	slli	x13,x5,0x10
     228:	4100f737          	lui	x14,0x4100f
     22c:	010687b3          	add	x15,x13,x16
     230:	acf72c23          	sw	x15,-1320(x14) # 4100ead8 <.L196+0x4100da5c>

00000234 <.L34>:
     234:	0000006f          	j	234 <.L34>

00000238 <.L33>:
     238:	fff50b13          	addi	x22,x10,-1
     23c:	ffd00793          	li	x15,-3
     240:	0d67ea63          	bltu	x15,x22,314 <.L36>
     244:	000005b7          	lui	x11,0x0
     248:	0005ae03          	lw	x28,0(x11) # 0 <tensorlib_lossnll_backward_weight>
     24c:	00455393          	srli	x7,x10,0x4
     250:	00138293          	addi	x5,x7,1
     254:	03c28433          	mul	x8,x5,x28
     258:	00828733          	add	x14,x5,x8
     25c:	00e57463          	bgeu	x10,x14,264 <.L37>
     260:	00050713          	mv	x14,x10

00000264 <.L37>:
     264:	0ae47863          	bgeu	x8,x14,314 <.L36>
     268:	0f812683          	lw	x13,248(x2)
     26c:	0fc12503          	lw	x10,252(x2)
     270:	10812083          	lw	x1,264(x2)
     274:	10012f83          	lw	x31,256(x2)
     278:	00812303          	lw	x6,8(x2)
     27c:	00c12f03          	lw	x30,12(x2)
     280:	01812e83          	lw	x29,24(x2)
     284:	01012983          	lw	x19,16(x2)
     288:	08012583          	lw	x11,128(x2)
     28c:	09012903          	lw	x18,144(x2)
     290:	08812e03          	lw	x28,136(x2)
     294:	04c12883          	lw	x17,76(x2)
     298:	05412383          	lw	x7,84(x2)
     29c:	00100613          	li	x12,1

000002a0 <.L50>:
     2a0:	2cd47063          	bgeu	x8,x13,560 <.L123>
     2a4:	30c50a63          	beq	x10,x12,5b8 <.L41>
     2a8:	00241793          	slli	x15,x8,0x2
     2ac:	00f08b33          	add	x22,x1,x15

000002b0 <.L42>:
     2b0:	000b2483          	lw	x9,0(x22) # 0 <tensorlib_lossnll_backward_weight>
     2b4:	04980c63          	beq	x16,x9,30c <.L43>
     2b8:	3664f463          	bgeu	x9,x6,620 <.L124>
     2bc:	3acf0e63          	beq	x30,x12,678 <.L46>
     2c0:	00249b13          	slli	x22,x9,0x2
     2c4:	016e82b3          	add	x5,x29,x22

000002c8 <.L47>:
     2c8:	3cb47263          	bgeu	x8,x11,68c <.L125>
     2cc:	000e2a83          	lw	x21,0(x28)
     2d0:	0008a783          	lw	x15,0(x17) # 0 <tensorlib_lossnll_backward_weight>
     2d4:	0048ab03          	lw	x22,4(x17)
     2d8:	03540a33          	mul	x20,x8,x21
     2dc:	0002a287          	flw	f5,0(x5)
     2e0:	002a1a93          	slli	x21,x20,0x2
     2e4:	02f402b3          	mul	x5,x8,x15
     2e8:	015907b3          	add	x15,x18,x21
     2ec:	0007a307          	flw	f6,0(x15) # 0 <tensorlib_lossnll_backward_weight>
     2f0:	105373d3          	fmul.s	f7,f6,f5
     2f4:	036484b3          	mul	x9,x9,x22
     2f8:	20739553          	fneg.s	f10,f7
     2fc:	00928b33          	add	x22,x5,x9
     300:	002b1a13          	slli	x20,x22,0x2
     304:	014382b3          	add	x5,x7,x20
     308:	00a2a027          	fsw	f10,0(x5)

0000030c <.L43>:
     30c:	00140413          	addi	x8,x8,1
     310:	f88718e3          	bne	x14,x8,2a0 <.L50>

00000314 <.L36>:
     314:	000009b7          	lui	x19,0x0
     318:	0009ae83          	lw	x29,0(x19) # 0 <tensorlib_lossnll_backward_weight>
     31c:	000005b7          	lui	x11,0x0
     320:	0005a083          	lw	x1,0(x11) # 0 <tensorlib_lossnll_backward_weight>
     324:	00000937          	lui	x18,0x0
     328:	004e8e13          	addi	x28,x29,4 # 4 <tensorlib_lossnll_backward_weight+0x4>
     32c:	00090793          	mv	x15,x18
     330:	01c788b3          	add	x17,x15,x28
     334:	01809393          	slli	x7,x1,0x18
     338:	0078eab3          	or	x21,x17,x7
     33c:	20040637          	lui	x12,0x20040
     340:	00cae4b3          	or	x9,x21,x12
     344:	00100b13          	li	x22,1
     348:	01648023          	sb	x22,0(x9)
     34c:	0009aa03          	lw	x20,0(x19)
     350:	056a0a63          	beq	x20,x22,3a4 <.L80>

00000354 <.L92>:
     354:	00100593          	li	x11,1
     358:	0100006f          	j	368 <.L96>

0000035c <.L126>:
     35c:	00090893          	mv	x17,x18
     360:	1408a3af          	lr.w.aq	x7,(x17)
     364:	00b38863          	beq	x7,x11,374 <.L95>

00000368 <.L96>:
     368:	00090493          	mv	x9,x18
     36c:	1004ab2f          	lr.w	x22,(x9)
     370:	febb16e3          	bne	x22,x11,35c <.L126>

00000374 <.L95>:
     374:	18c12083          	lw	x1,396(x2)
     378:	18812403          	lw	x8,392(x2)
     37c:	0007a023          	sw	x0,0(x15)
     380:	18412483          	lw	x9,388(x2)
     384:	18012903          	lw	x18,384(x2)
     388:	17c12983          	lw	x19,380(x2)
     38c:	17812a03          	lw	x20,376(x2)
     390:	17412a83          	lw	x21,372(x2)
     394:	17012b03          	lw	x22,368(x2)
     398:	00000513          	li	x10,0
     39c:	19010113          	addi	x2,x2,400
     3a0:	00008067          	ret

000003a4 <.L80>:
     3a4:	0047c283          	lbu	x5,4(x15)
     3a8:	0ff2f413          	andi	x8,x5,255
     3ac:	fe040ce3          	beqz	x8,3a4 <.L80>
     3b0:	0057c803          	lbu	x16,5(x15)
     3b4:	0ff87693          	andi	x13,x16,255
     3b8:	fe0686e3          	beqz	x13,3a4 <.L80>
     3bc:	0067c703          	lbu	x14,6(x15)
     3c0:	0ff77513          	andi	x10,x14,255
     3c4:	fe0500e3          	beqz	x10,3a4 <.L80>
     3c8:	0077cf83          	lbu	x31,7(x15)
     3cc:	0ffff313          	andi	x6,x31,255
     3d0:	fc030ae3          	beqz	x6,3a4 <.L80>
     3d4:	0005af03          	lw	x30,0(x11)
     3d8:	210408b7          	lui	x17,0x21040
     3dc:	00100e93          	li	x29,1
     3e0:	00cf0093          	addi	x1,x30,12 # c <tensorlib_lossnll_backward_weight+0xc>
     3e4:	00178e33          	add	x28,x15,x1
     3e8:	011e63b3          	or	x7,x28,x17
     3ec:	01d38023          	sb	x29,0(x7)
     3f0:	0009aa83          	lw	x21,0(x19)
     3f4:	f7da90e3          	bne	x21,x29,354 <.L92>
     3f8:	0005a383          	lw	x7,0(x11)
     3fc:	07538c63          	beq	x7,x21,474 <.L86>

00000400 <.L91>:
     400:	00100a13          	li	x20,1
     404:	0100006f          	j	414 <.L85>

00000408 <.L127>:
     408:	00878813          	addi	x16,x15,8
     40c:	140826af          	lr.w.aq	x13,(x16)
     410:	01468863          	beq	x13,x20,420 <.L93>

00000414 <.L85>:
     414:	00878293          	addi	x5,x15,8
     418:	1002a42f          	lr.w	x8,(x5)
     41c:	ff4416e3          	bne	x8,x20,408 <.L127>

00000420 <.L93>:
     420:	0007a423          	sw	x0,8(x15)
     424:	00078223          	sb	x0,4(x15)
     428:	000782a3          	sb	x0,5(x15)
     42c:	00078323          	sb	x0,6(x15)
     430:	000783a3          	sb	x0,7(x15)
     434:	0007a023          	sw	x0,0(x15)
     438:	00000e93          	li	x29,0
     43c:	00090793          	mv	x15,x18
     440:	20000737          	lui	x14,0x20000
     444:	00100093          	li	x1,1
     448:	00040fb7          	lui	x31,0x40
     44c:	00100f37          	lui	x30,0x100

00000450 <.L94>:
     450:	0005a303          	lw	x6,0(x11)
     454:	01d7e533          	or	x10,x15,x29
     458:	01fe8eb3          	add	x29,x29,x31
     45c:	01831e13          	slli	x28,x6,0x18
     460:	00ae6633          	or	x12,x28,x10
     464:	00e66ab3          	or	x21,x12,x14
     468:	001aa023          	sw	x1,0(x21)
     46c:	ffee92e3          	bne	x29,x30,450 <.L94>
     470:	ee5ff06f          	j	354 <.L92>

00000474 <.L86>:
     474:	00c7c483          	lbu	x9,12(x15)
     478:	0ff4fb13          	andi	x22,x9,255
     47c:	fe0b0ce3          	beqz	x22,474 <.L86>
     480:	00d7ca03          	lbu	x20,13(x15)
     484:	0ffa7293          	andi	x5,x20,255
     488:	fe0286e3          	beqz	x5,474 <.L86>
     48c:	00e7c403          	lbu	x8,14(x15)
     490:	0ff47813          	andi	x16,x8,255
     494:	fe0800e3          	beqz	x16,474 <.L86>
     498:	00f7c683          	lbu	x13,15(x15)
     49c:	0ff6f713          	andi	x14,x13,255
     4a0:	fc070ae3          	beqz	x14,474 <.L86>
     4a4:	00078623          	sb	x0,12(x15)
     4a8:	000786a3          	sb	x0,13(x15)
     4ac:	00078723          	sb	x0,14(x15)
     4b0:	000787a3          	sb	x0,15(x15)
     4b4:	00000537          	lui	x10,0x0
     4b8:	0007a423          	sw	x0,8(x15)
     4bc:	00000893          	li	x17,0
     4c0:	00850093          	addi	x1,x10,8 # 8 <tensorlib_lossnll_backward_weight+0x8>
     4c4:	03fc0fb7          	lui	x31,0x3fc0
     4c8:	20000f37          	lui	x30,0x20000
     4cc:	00100313          	li	x6,1
     4d0:	01000eb7          	lui	x29,0x1000
     4d4:	04000e37          	lui	x28,0x4000

000004d8 <.L90>:
     4d8:	01239393          	slli	x7,x7,0x12
     4dc:	0110e633          	or	x12,x1,x17
     4e0:	01f3fab3          	and	x21,x7,x31
     4e4:	00cae4b3          	or	x9,x21,x12
     4e8:	01e4eb33          	or	x22,x9,x30
     4ec:	006b2023          	sw	x6,0(x22)
     4f0:	01d888b3          	add	x17,x17,x29
     4f4:	3dc89a63          	bne	x17,x28,8c8 <.L128>
     4f8:	0009a983          	lw	x19,0(x19)
     4fc:	f06982e3          	beq	x19,x6,400 <.L91>
     500:	e55ff06f          	j	354 <.L92>

00000504 <.L122>:
     504:	00200e93          	li	x29,2
     508:	e1d796e3          	bne	x15,x29,314 <.L36>
     50c:	0fc12b03          	lw	x22,252(x2)
     510:	0a0b0e63          	beqz	x22,5cc <.L129>
     514:	10412f03          	lw	x30,260(x2)
     518:	000f2f83          	lw	x31,0(x30) # 20000000 <.L196+0x1fffef84>
     51c:	1df50463          	beq	x10,x31,6e4 <.L58>
     520:	000003b7          	lui	x7,0x0
     524:	000002b7          	lui	x5,0x0
     528:	03e00613          	li	x12,62
     52c:	00038593          	mv	x11,x7
     530:	00028513          	mv	x10,x5
     534:	00000097          	auipc	x1,0x0
     538:	000080e7          	jalr	x1 # 534 <.L122+0x30>
     53c:	00000fb7          	lui	x31,0x0
     540:	000fa303          	lw	x6,0(x31) # 0 <tensorlib_lossnll_backward_weight>
     544:	00000f37          	lui	x30,0x0
     548:	000f2883          	lw	x17,0(x30) # 0 <tensorlib_lossnll_backward_weight>
     54c:	01031e93          	slli	x29,x6,0x10
     550:	4100fab7          	lui	x21,0x4100f
     554:	011e8533          	add	x10,x29,x17
     558:	acaaac23          	sw	x10,-1320(x21) # 4100ead8 <.L196+0x4100da5c>

0000055c <.L59>:
     55c:	0000006f          	j	55c <.L59>

00000560 <.L123>:
     560:	000002b7          	lui	x5,0x0
     564:	00000a37          	lui	x20,0x0
     568:	000a0593          	mv	x11,x20
     56c:	07b00613          	li	x12,123
     570:	00028513          	mv	x10,x5
     574:	00000097          	auipc	x1,0x0
     578:	000080e7          	jalr	x1 # 574 <.L123+0x14>
     57c:	0f812583          	lw	x11,248(x2)
     580:	00040613          	mv	x12,x8
     584:	00000437          	lui	x8,0x0
     588:	00040513          	mv	x10,x8
     58c:	00000097          	auipc	x1,0x0
     590:	000080e7          	jalr	x1 # 58c <.L123+0x2c>
     594:	00000837          	lui	x16,0x0
     598:	00082683          	lw	x13,0(x16) # 0 <tensorlib_lossnll_backward_weight>
     59c:	00000737          	lui	x14,0x0
     5a0:	00072503          	lw	x10,0(x14) # 0 <tensorlib_lossnll_backward_weight>
     5a4:	01069f93          	slli	x31,x13,0x10
     5a8:	4100ff37          	lui	x30,0x4100f
     5ac:	00af8333          	add	x6,x31,x10
     5b0:	ac6f2c23          	sw	x6,-1320(x30) # 4100ead8 <.L196+0x4100da5c>

000005b4 <.L40>:
     5b4:	0000006f          	j	5b4 <.L40>

000005b8 <.L41>:
     5b8:	000faa83          	lw	x21,0(x31)
     5bc:	03540a33          	mul	x20,x8,x21
     5c0:	002a1493          	slli	x9,x20,0x2
     5c4:	00908b33          	add	x22,x1,x9
     5c8:	ce9ff06f          	j	2b0 <.L42>

000005cc <.L129>:
     5cc:	000000b7          	lui	x1,0x0
     5d0:	000006b7          	lui	x13,0x0
     5d4:	06b00613          	li	x12,107
     5d8:	00008593          	mv	x11,x1
     5dc:	00068513          	mv	x10,x13
     5e0:	00000097          	auipc	x1,0x0
     5e4:	000080e7          	jalr	x1 # 5e0 <.L129+0x14>
     5e8:	0fc12583          	lw	x11,252(x2)
     5ec:	000009b7          	lui	x19,0x0
     5f0:	00098513          	mv	x10,x19
     5f4:	00000097          	auipc	x1,0x0
     5f8:	000080e7          	jalr	x1 # 5f4 <.L129+0x28>
     5fc:	00000737          	lui	x14,0x0
     600:	00072a03          	lw	x20,0(x14) # 0 <tensorlib_lossnll_backward_weight>
     604:	00000937          	lui	x18,0x0
     608:	00092483          	lw	x9,0(x18) # 0 <tensorlib_lossnll_backward_weight>
     60c:	010a1413          	slli	x8,x20,0x10
     610:	4100f837          	lui	x16,0x4100f
     614:	00940633          	add	x12,x8,x9
     618:	acc82c23          	sw	x12,-1320(x16) # 4100ead8 <.L196+0x4100da5c>

0000061c <.L57>:
     61c:	0000006f          	j	61c <.L57>

00000620 <.L124>:
     620:	000000b7          	lui	x1,0x0
     624:	00000937          	lui	x18,0x0
     628:	00008593          	mv	x11,x1
     62c:	07b00613          	li	x12,123
     630:	00090513          	mv	x10,x18
     634:	00000097          	auipc	x1,0x0
     638:	000080e7          	jalr	x1 # 634 <.L124+0x14>
     63c:	00812583          	lw	x11,8(x2)
     640:	00000e37          	lui	x28,0x0
     644:	00048613          	mv	x12,x9
     648:	000e0513          	mv	x10,x28
     64c:	00000097          	auipc	x1,0x0
     650:	000080e7          	jalr	x1 # 64c <.L124+0x2c>
     654:	000008b7          	lui	x17,0x0
     658:	0008a383          	lw	x7,0(x17) # 0 <tensorlib_lossnll_backward_weight>
     65c:	00000637          	lui	x12,0x0
     660:	00062a83          	lw	x21,0(x12) # 0 <tensorlib_lossnll_backward_weight>
     664:	01039793          	slli	x15,x7,0x10
     668:	4100fb37          	lui	x22,0x4100f
     66c:	015784b3          	add	x9,x15,x21
     670:	ac9b2c23          	sw	x9,-1320(x22) # 4100ead8 <.L196+0x4100da5c>

00000674 <.L45>:
     674:	0000006f          	j	674 <.L45>

00000678 <.L46>:
     678:	0009a283          	lw	x5,0(x19) # 0 <tensorlib_lossnll_backward_weight>
     67c:	02548ab3          	mul	x21,x9,x5
     680:	002a9a13          	slli	x20,x21,0x2
     684:	014e82b3          	add	x5,x29,x20
     688:	c41ff06f          	j	2c8 <.L47>

0000068c <.L125>:
     68c:	00000837          	lui	x16,0x0
     690:	00000737          	lui	x14,0x0
     694:	00080593          	mv	x11,x16
     698:	07b00613          	li	x12,123
     69c:	00070513          	mv	x10,x14
     6a0:	00000097          	auipc	x1,0x0
     6a4:	000080e7          	jalr	x1 # 6a0 <.L125+0x14>
     6a8:	08012583          	lw	x11,128(x2)
     6ac:	000006b7          	lui	x13,0x0
     6b0:	00040613          	mv	x12,x8
     6b4:	00068513          	mv	x10,x13
     6b8:	00000097          	auipc	x1,0x0
     6bc:	000080e7          	jalr	x1 # 6b8 <.L125+0x2c>
     6c0:	00000537          	lui	x10,0x0
     6c4:	00052f83          	lw	x31,0(x10) # 0 <tensorlib_lossnll_backward_weight>
     6c8:	00000337          	lui	x6,0x0
     6cc:	00032f03          	lw	x30,0(x6) # 0 <tensorlib_lossnll_backward_weight>
     6d0:	010f9e93          	slli	x29,x31,0x10
     6d4:	4100f5b7          	lui	x11,0x4100f
     6d8:	01ee89b3          	add	x19,x29,x30
     6dc:	ad35ac23          	sw	x19,-1320(x11) # 4100ead8 <.L196+0x4100da5c>

000006e0 <.L49>:
     6e0:	0000006f          	j	6e0 <.L49>

000006e4 <.L58>:
     6e4:	fff50a13          	addi	x20,x10,-1
     6e8:	ffd00993          	li	x19,-3
     6ec:	c349e4e3          	bltu	x19,x20,314 <.L36>
     6f0:	00000937          	lui	x18,0x0
     6f4:	00092483          	lw	x9,0(x18) # 0 <tensorlib_lossnll_backward_weight>
     6f8:	00455413          	srli	x8,x10,0x4
     6fc:	00140a93          	addi	x21,x8,1 # 1 <tensorlib_lossnll_backward_weight+0x1>
     700:	029a8433          	mul	x8,x21,x9
     704:	008a87b3          	add	x15,x21,x8
     708:	00f57463          	bgeu	x10,x15,710 <.L61>
     70c:	00050793          	mv	x15,x10

00000710 <.L61>:
     710:	c0f472e3          	bgeu	x8,x15,314 <.L36>
     714:	00000737          	lui	x14,0x0
     718:	00072007          	flw	f0,0(x14) # 0 <tensorlib_lossnll_backward_weight>
     71c:	0046a583          	lw	x11,4(x13) # 4 <tensorlib_lossnll_backward_weight+0x4>
     720:	09012683          	lw	x13,144(x2)
     724:	18e070d3          	fdiv.s	f1,f0,f14
     728:	0f812083          	lw	x1,248(x2)
     72c:	0006a687          	flw	f13,0(x13)
     730:	10812e03          	lw	x28,264(x2)
     734:	10012383          	lw	x7,256(x2)
     738:	00812283          	lw	x5,8(x2)
     73c:	00c12f83          	lw	x31,12(x2)
     740:	01812303          	lw	x6,24(x2)
     744:	01012f03          	lw	x30,16(x2)
     748:	04c12883          	lw	x17,76(x2)
     74c:	05412e83          	lw	x29,84(x2)
     750:	00100513          	li	x10,1

00000754 <.L78>:
     754:	0a147863          	bgeu	x8,x1,804 <.L130>
     758:	10ab0263          	beq	x22,x10,85c <.L65>
     75c:	00241a93          	slli	x21,x8,0x2
     760:	015e04b3          	add	x9,x28,x21

00000764 <.L66>:
     764:	0004a983          	lw	x19,0(x9)
     768:	09380863          	beq	x16,x19,7f8 <.L68>
     76c:	0009c463          	bltz	x19,774 <.L69>
     770:	04b9e263          	bltu	x19,x11,7b4 <.L70>

00000774 <.L69>:
     774:	000000b7          	lui	x1,0x0
     778:	00000f37          	lui	x30,0x0
     77c:	04400613          	li	x12,68
     780:	00008593          	mv	x11,x1
     784:	000f0513          	mv	x10,x30
     788:	00000097          	auipc	x1,0x0
     78c:	000080e7          	jalr	x1 # 788 <.L69+0x14>
     790:	000008b7          	lui	x17,0x0
     794:	0008ae83          	lw	x29,0(x17) # 0 <tensorlib_lossnll_backward_weight>
     798:	00000537          	lui	x10,0x0
     79c:	00052a83          	lw	x21,0(x10) # 0 <tensorlib_lossnll_backward_weight>
     7a0:	010e9693          	slli	x13,x29,0x10
     7a4:	4100f737          	lui	x14,0x4100f
     7a8:	015689b3          	add	x19,x13,x21
     7ac:	ad372c23          	sw	x19,-1320(x14) # 4100ead8 <.L196+0x4100da5c>

000007b0 <.L71>:
     7b0:	0000006f          	j	7b0 <.L71>

000007b4 <.L70>:
     7b4:	0a59fe63          	bgeu	x19,x5,870 <.L131>
     7b8:	10af8c63          	beq	x31,x10,8d0 <.L74>
     7bc:	00299493          	slli	x9,x19,0x2
     7c0:	00930933          	add	x18,x6,x9

000007c4 <.L75>:
     7c4:	0008aa83          	lw	x21,0(x17)
     7c8:	0048a683          	lw	x13,4(x17)
     7cc:	00092107          	flw	f2,0(x18)
     7d0:	03540733          	mul	x14,x8,x21
     7d4:	1026f1d3          	fmul.s	f3,f13,f2
     7d8:	20319253          	fneg.s	f4,f3
     7dc:	02d989b3          	mul	x19,x19,x13
     7e0:	01370a33          	add	x20,x14,x19
     7e4:	002a1913          	slli	x18,x20,0x2
     7e8:	012e84b3          	add	x9,x29,x18
     7ec:	00a61463          	bne	x12,x10,7f4 <.L118>
     7f0:	1040f253          	fmul.s	f4,f1,f4

000007f4 <.L118>:
     7f4:	0044a027          	fsw	f4,0(x9)

000007f8 <.L68>:
     7f8:	00140413          	addi	x8,x8,1
     7fc:	f4879ce3          	bne	x15,x8,754 <.L78>
     800:	b15ff06f          	j	314 <.L36>

00000804 <.L130>:
     804:	00000a37          	lui	x20,0x0
     808:	00000937          	lui	x18,0x0
     80c:	000a0593          	mv	x11,x20
     810:	07b00613          	li	x12,123
     814:	00090513          	mv	x10,x18
     818:	00000097          	auipc	x1,0x0
     81c:	000080e7          	jalr	x1 # 818 <.L130+0x14>
     820:	0f812583          	lw	x11,248(x2)
     824:	000004b7          	lui	x9,0x0
     828:	00040613          	mv	x12,x8
     82c:	00048513          	mv	x10,x9
     830:	00000097          	auipc	x1,0x0
     834:	000080e7          	jalr	x1 # 830 <.L130+0x2c>
     838:	00000437          	lui	x8,0x0
     83c:	00042603          	lw	x12,0(x8) # 0 <tensorlib_lossnll_backward_weight>
     840:	00000837          	lui	x16,0x0
     844:	00082b03          	lw	x22,0(x16) # 0 <tensorlib_lossnll_backward_weight>
     848:	01061793          	slli	x15,x12,0x10
     84c:	4100fe37          	lui	x28,0x4100f
     850:	016785b3          	add	x11,x15,x22
     854:	acbe2c23          	sw	x11,-1320(x28) # 4100ead8 <.L196+0x4100da5c>

00000858 <.L64>:
     858:	0000006f          	j	858 <.L64>

0000085c <.L65>:
     85c:	0003aa03          	lw	x20,0(x7) # 0 <tensorlib_lossnll_backward_weight>
     860:	034409b3          	mul	x19,x8,x20
     864:	00299913          	slli	x18,x19,0x2
     868:	012e04b3          	add	x9,x28,x18
     86c:	ef9ff06f          	j	764 <.L66>

00000870 <.L131>:
     870:	00000837          	lui	x16,0x0
     874:	00000637          	lui	x12,0x0
     878:	00060593          	mv	x11,x12
     87c:	00080513          	mv	x10,x16
     880:	07b00613          	li	x12,123
     884:	00000097          	auipc	x1,0x0
     888:	000080e7          	jalr	x1 # 884 <.L131+0x14>
     88c:	00812583          	lw	x11,8(x2)
     890:	00000b37          	lui	x22,0x0
     894:	00098613          	mv	x12,x19
     898:	000b0513          	mv	x10,x22
     89c:	00000097          	auipc	x1,0x0
     8a0:	000080e7          	jalr	x1 # 89c <.L131+0x2c>
     8a4:	000007b7          	lui	x15,0x0
     8a8:	0007a583          	lw	x11,0(x15) # 0 <tensorlib_lossnll_backward_weight>
     8ac:	00000e37          	lui	x28,0x0
     8b0:	000e2383          	lw	x7,0(x28) # 0 <tensorlib_lossnll_backward_weight>
     8b4:	01059293          	slli	x5,x11,0x10
     8b8:	4100f337          	lui	x6,0x4100f
     8bc:	00728fb3          	add	x31,x5,x7
     8c0:	adf32c23          	sw	x31,-1320(x6) # 4100ead8 <.L196+0x4100da5c>

000008c4 <.L73>:
     8c4:	0000006f          	j	8c4 <.L73>

000008c8 <.L128>:
     8c8:	0009a383          	lw	x7,0(x19)
     8cc:	c0dff06f          	j	4d8 <.L90>

000008d0 <.L74>:
     8d0:	000f2703          	lw	x14,0(x30) # 0 <tensorlib_lossnll_backward_weight>
     8d4:	02e986b3          	mul	x13,x19,x14
     8d8:	00269a13          	slli	x20,x13,0x2
     8dc:	01430933          	add	x18,x6,x20
     8e0:	ee5ff06f          	j	7c4 <.L75>

000008e4 <_Z31tensorlib_lossnll_backward_implIZ26tensorlib_lossnll_backwardEUliE_EiP11hb_tensor_tS2_S2_S2_S2_PmPlT_>:
     8e4:	eb010113          	addi	x2,x2,-336
     8e8:	00050893          	mv	x17,x10
     8ec:	15212023          	sw	x18,320(x2)
     8f0:	00410513          	addi	x10,x2,4
     8f4:	00058913          	mv	x18,x11
     8f8:	00088593          	mv	x11,x17
     8fc:	14112623          	sw	x1,332(x2)
     900:	14812423          	sw	x8,328(x2)
     904:	14912223          	sw	x9,324(x2)
     908:	00080413          	mv	x8,x16
     90c:	00078493          	mv	x9,x15
     910:	13312e23          	sw	x19,316(x2)
     914:	13412c23          	sw	x20,312(x2)
     918:	00070993          	mv	x19,x14
     91c:	00068a13          	mv	x20,x13
     920:	13512a23          	sw	x21,308(x2)
     924:	00060a93          	mv	x21,x12
     928:	00000097          	auipc	x1,0x0
     92c:	000080e7          	jalr	x1 # 928 <_Z31tensorlib_lossnll_backward_implIZ26tensorlib_lossnll_backwardEUliE_EiP11hb_tensor_tS2_S2_S2_S2_PmPlT_+0x44>
     930:	00090593          	mv	x11,x18
     934:	04010513          	addi	x10,x2,64
     938:	00000097          	auipc	x1,0x0
     93c:	000080e7          	jalr	x1 # 938 <_Z31tensorlib_lossnll_backward_implIZ26tensorlib_lossnll_backwardEUliE_EiP11hb_tensor_tS2_S2_S2_S2_PmPlT_+0x54>
     940:	000a8593          	mv	x11,x21
     944:	07c10513          	addi	x10,x2,124
     948:	00000097          	auipc	x1,0x0
     94c:	000080e7          	jalr	x1 # 948 <_Z31tensorlib_lossnll_backward_implIZ26tensorlib_lossnll_backwardEUliE_EiP11hb_tensor_tS2_S2_S2_S2_PmPlT_+0x64>
     950:	000a0593          	mv	x11,x20
     954:	0b810513          	addi	x10,x2,184
     958:	00000097          	auipc	x1,0x0
     95c:	000080e7          	jalr	x1 # 958 <_Z31tensorlib_lossnll_backward_implIZ26tensorlib_lossnll_backwardEUliE_EiP11hb_tensor_tS2_S2_S2_S2_PmPlT_+0x74>
     960:	00098593          	mv	x11,x19
     964:	0f410513          	addi	x10,x2,244
     968:	00000097          	auipc	x1,0x0
     96c:	000080e7          	jalr	x1 # 968 <_Z31tensorlib_lossnll_backward_implIZ26tensorlib_lossnll_backwardEUliE_EiP11hb_tensor_tS2_S2_S2_S2_PmPlT_+0x84>
     970:	08012703          	lw	x14,128(x2)
     974:	00100613          	li	x12,1
     978:	08e67863          	bgeu	x12,x14,a08 <.L176>
     97c:	08812583          	lw	x11,136(x2)
     980:	0004a503          	lw	x10,0(x9) # 0 <tensorlib_lossnll_backward_weight>
     984:	00042683          	lw	x13,0(x8)
     988:	0005a783          	lw	x15,0(x11)
     98c:	00051663          	bnez	x10,998 <.L135>
     990:	00200813          	li	x16,2
     994:	21070463          	beq	x14,x16,b9c <.L177>

00000998 <.L135>:
     998:	0f412083          	lw	x1,244(x2)
     99c:	0c008063          	beqz	x1,a5c <.L178>
     9a0:	10412283          	lw	x5,260(x2)
     9a4:	f0000753          	fmv.w.x	f14,x0
     9a8:	0002a787          	flw	f15,0(x5) # 0 <tensorlib_lossnll_backward_weight>
     9ac:	a0e78353          	fle.s	x6,f15,f14
     9b0:	1c031263          	bnez	x6,b74 <.L140>
     9b4:	04412383          	lw	x7,68(x2)
     9b8:	00100e13          	li	x28,1
     9bc:	007e6663          	bltu	x28,x7,9c8 <.L153>
     9c0:	04012e83          	lw	x29,64(x2)
     9c4:	23ce8663          	beq	x29,x28,bf0 <.L179>

000009c8 <.L153>:
     9c8:	000000b7          	lui	x1,0x0
     9cc:	000007b7          	lui	x15,0x0
     9d0:	00008593          	mv	x11,x1
     9d4:	03300613          	li	x12,51
     9d8:	00078513          	mv	x10,x15
     9dc:	00000097          	auipc	x1,0x0
     9e0:	000080e7          	jalr	x1 # 9dc <.L153+0x14>
     9e4:	000003b7          	lui	x7,0x0
     9e8:	0003a883          	lw	x17,0(x7) # 0 <tensorlib_lossnll_backward_weight>
     9ec:	00000437          	lui	x8,0x0
     9f0:	00042583          	lw	x11,0(x8) # 0 <tensorlib_lossnll_backward_weight>
     9f4:	01089513          	slli	x10,x17,0x10
     9f8:	4100f937          	lui	x18,0x4100f
     9fc:	00b506b3          	add	x13,x10,x11
     a00:	acd92c23          	sw	x13,-1320(x18) # 4100ead8 <.L196+0x4100da5c>

00000a04 <.L155>:
     a04:	0000006f          	j	a04 <.L155>

00000a08 <.L176>:
     a08:	00000eb7          	lui	x29,0x0
     a0c:	00000e37          	lui	x28,0x0
     a10:	06b00613          	li	x12,107
     a14:	000e8593          	mv	x11,x29
     a18:	000e0513          	mv	x10,x28
     a1c:	00000097          	auipc	x1,0x0
     a20:	000080e7          	jalr	x1 # a1c <.L176+0x14>
     a24:	08012583          	lw	x11,128(x2)
     a28:	00000837          	lui	x16,0x0
     a2c:	00080513          	mv	x10,x16
     a30:	00000097          	auipc	x1,0x0
     a34:	000080e7          	jalr	x1 # a30 <.L176+0x28>
     a38:	00000337          	lui	x6,0x0
     a3c:	00032883          	lw	x17,0(x6) # 0 <tensorlib_lossnll_backward_weight>
     a40:	000004b7          	lui	x9,0x0
     a44:	0004a603          	lw	x12,0(x9) # 0 <tensorlib_lossnll_backward_weight>
     a48:	01089793          	slli	x15,x17,0x10
     a4c:	4100f737          	lui	x14,0x4100f
     a50:	00c783b3          	add	x7,x15,x12
     a54:	ac772c23          	sw	x7,-1320(x14) # 4100ead8 <.L196+0x4100da5c>

00000a58 <.L134>:
     a58:	0000006f          	j	a58 <.L134>

00000a5c <.L178>:
     a5c:	00000837          	lui	x16,0x0
     a60:	00000f37          	lui	x30,0x0
     a64:	00080593          	mv	x11,x16
     a68:	07b00613          	li	x12,123
     a6c:	000f0513          	mv	x10,x30
     a70:	00000097          	auipc	x1,0x0
     a74:	000080e7          	jalr	x1 # a70 <.L178+0x14>
     a78:	0f412583          	lw	x11,244(x2)
     a7c:	00000eb7          	lui	x29,0x0
     a80:	00000613          	li	x12,0
     a84:	000e8513          	mv	x10,x29
     a88:	00000097          	auipc	x1,0x0
     a8c:	000080e7          	jalr	x1 # a88 <.L178+0x2c>
     a90:	00000e37          	lui	x28,0x0
     a94:	000e2303          	lw	x6,0(x28) # 0 <tensorlib_lossnll_backward_weight>
     a98:	00000fb7          	lui	x31,0x0
     a9c:	000fa283          	lw	x5,0(x31) # 0 <tensorlib_lossnll_backward_weight>
     aa0:	01031a93          	slli	x21,x6,0x10
     aa4:	4100f9b7          	lui	x19,0x4100f
     aa8:	005a8a33          	add	x20,x21,x5
     aac:	ad49ac23          	sw	x20,-1320(x19) # 4100ead8 <.L196+0x4100da5c>

00000ab0 <.L152>:
     ab0:	0000006f          	j	ab0 <.L152>

00000ab4 <.L158>:
     ab4:	fff78a93          	addi	x21,x15,-1
     ab8:	ffd00a13          	li	x20,-3
     abc:	0b5a6c63          	bltu	x20,x21,b74 <.L140>
     ac0:	000009b7          	lui	x19,0x0
     ac4:	0009a483          	lw	x9,0(x19) # 0 <tensorlib_lossnll_backward_weight>
     ac8:	0047d413          	srli	x8,x15,0x4
     acc:	00140713          	addi	x14,x8,1
     ad0:	02970433          	mul	x8,x14,x9
     ad4:	00870833          	add	x16,x14,x8
     ad8:	0107f463          	bgeu	x15,x16,ae0 <.L161>
     adc:	00078813          	mv	x16,x15

00000ae0 <.L161>:
     ae0:	09047a63          	bgeu	x8,x16,b74 <.L140>
     ae4:	05012603          	lw	x12,80(x2)
     ae8:	0c812083          	lw	x1,200(x2)
     aec:	0b812e83          	lw	x29,184(x2)
     af0:	00062007          	flw	f0,0(x12) # 0 <tensorlib_lossnll_backward_weight>
     af4:	0c012e03          	lw	x28,192(x2)
     af8:	00c12303          	lw	x6,12(x2)
     afc:	200010d3          	fneg.s	f1,f0
     b00:	01412f83          	lw	x31,20(x2)
     b04:	0045af03          	lw	x30,4(x11)
     b08:	18f0f153          	fdiv.s	f2,f1,f15
     b0c:	00241593          	slli	x11,x8,0x2
     b10:	00b085b3          	add	x11,x1,x11
     b14:	00100293          	li	x5,1

00000b18 <.L174>:
     b18:	25d47c63          	bgeu	x8,x29,d70 <.L180>
     b1c:	00058a93          	mv	x21,x11
     b20:	00591a63          	bne	x18,x5,b34 <.L166>
     b24:	000e2783          	lw	x15,0(x28)
     b28:	02f403b3          	mul	x7,x8,x15
     b2c:	00239893          	slli	x17,x7,0x2
     b30:	01108ab3          	add	x21,x1,x17

00000b34 <.L166>:
     b34:	000aaa03          	lw	x20,0(x21)
     b38:	03468863          	beq	x13,x20,b68 <.L168>
     b3c:	280a4a63          	bltz	x20,dd0 <.L169>
     b40:	29ea7863          	bgeu	x20,x30,dd0 <.L169>
     b44:	00032983          	lw	x19,0(x6)
     b48:	00432483          	lw	x9,4(x6)
     b4c:	03340733          	mul	x14,x8,x19
     b50:	029a0633          	mul	x12,x20,x9
     b54:	00c707b3          	add	x15,x14,x12
     b58:	00279393          	slli	x7,x15,0x2
     b5c:	007f88b3          	add	x17,x31,x7
     b60:	26550463          	beq	x10,x5,dc8 <.L172>
     b64:	0018a027          	fsw	f1,0(x17)

00000b68 <.L168>:
     b68:	00140413          	addi	x8,x8,1
     b6c:	00458593          	addi	x11,x11,4
     b70:	fa8814e3          	bne	x16,x8,b18 <.L174>

00000b74 <.L140>:
     b74:	14c12083          	lw	x1,332(x2)
     b78:	14812403          	lw	x8,328(x2)
     b7c:	14412483          	lw	x9,324(x2)
     b80:	14012903          	lw	x18,320(x2)
     b84:	13c12983          	lw	x19,316(x2)
     b88:	13812a03          	lw	x20,312(x2)
     b8c:	13412a83          	lw	x21,308(x2)
     b90:	00000513          	li	x10,0
     b94:	15010113          	addi	x2,x2,336
     b98:	00008067          	ret

00000b9c <.L177>:
     b9c:	04412483          	lw	x9,68(x2)
     ba0:	00c49863          	bne	x9,x12,bb0 <.L136>
     ba4:	04c12603          	lw	x12,76(x2)
     ba8:	00062703          	lw	x14,0(x12)
     bac:	0ee78a63          	beq	x15,x14,ca0 <.L137>

00000bb0 <.L136>:
     bb0:	000000b7          	lui	x1,0x0
     bb4:	00000437          	lui	x8,0x0
     bb8:	02200613          	li	x12,34
     bbc:	00008593          	mv	x11,x1
     bc0:	00040513          	mv	x10,x8
     bc4:	00000097          	auipc	x1,0x0
     bc8:	000080e7          	jalr	x1 # bc4 <.L136+0x14>
     bcc:	000006b7          	lui	x13,0x0
     bd0:	0006aa83          	lw	x21,0(x13) # 0 <tensorlib_lossnll_backward_weight>
     bd4:	00000a37          	lui	x20,0x0
     bd8:	000a2983          	lw	x19,0(x20) # 0 <tensorlib_lossnll_backward_weight>
     bdc:	010a9293          	slli	x5,x21,0x10
     be0:	4100ff37          	lui	x30,0x4100f
     be4:	01328fb3          	add	x31,x5,x19
     be8:	adff2c23          	sw	x31,-1320(x30) # 4100ead8 <.L196+0x4100da5c>

00000bec <.L138>:
     bec:	0000006f          	j	bec <.L138>

00000bf0 <.L179>:
     bf0:	00200f13          	li	x30,2
     bf4:	f9e710e3          	bne	x14,x30,b74 <.L140>
     bf8:	0bc12903          	lw	x18,188(x2)
     bfc:	04090863          	beqz	x18,c4c <.L181>
     c00:	0c412f83          	lw	x31,196(x2)
     c04:	000fa883          	lw	x17,0(x31)
     c08:	eb1786e3          	beq	x15,x17,ab4 <.L158>
     c0c:	000008b7          	lui	x17,0x0
     c10:	00000437          	lui	x8,0x0
     c14:	00088593          	mv	x11,x17
     c18:	03e00613          	li	x12,62
     c1c:	00040513          	mv	x10,x8
     c20:	00000097          	auipc	x1,0x0
     c24:	000080e7          	jalr	x1 # c20 <.L179+0x30>
     c28:	000005b7          	lui	x11,0x0
     c2c:	0005a503          	lw	x10,0(x11) # 0 <tensorlib_lossnll_backward_weight>
     c30:	000006b7          	lui	x13,0x0
     c34:	0006a903          	lw	x18,0(x13) # 0 <tensorlib_lossnll_backward_weight>
     c38:	01051813          	slli	x16,x10,0x10
     c3c:	4100feb7          	lui	x29,0x4100f
     c40:	01280f33          	add	x30,x16,x18
     c44:	adeeac23          	sw	x30,-1320(x29) # 4100ead8 <.L196+0x4100da5c>

00000c48 <.L159>:
     c48:	0000006f          	j	c48 <.L159>

00000c4c <.L181>:
     c4c:	00000e37          	lui	x28,0x0
     c50:	00000337          	lui	x6,0x0
     c54:	06b00613          	li	x12,107
     c58:	000e0593          	mv	x11,x28
     c5c:	00030513          	mv	x10,x6
     c60:	00000097          	auipc	x1,0x0
     c64:	000080e7          	jalr	x1 # c60 <.L181+0x14>
     c68:	0bc12583          	lw	x11,188(x2)
     c6c:	00000fb7          	lui	x31,0x0
     c70:	000f8513          	mv	x10,x31
     c74:	00000097          	auipc	x1,0x0
     c78:	000080e7          	jalr	x1 # c74 <.L181+0x28>
     c7c:	000002b7          	lui	x5,0x0
     c80:	0002aa83          	lw	x21,0(x5) # 0 <tensorlib_lossnll_backward_weight>
     c84:	00000a37          	lui	x20,0x0
     c88:	000a2983          	lw	x19,0(x20) # 0 <tensorlib_lossnll_backward_weight>
     c8c:	010a9493          	slli	x9,x21,0x10
     c90:	4100f737          	lui	x14,0x4100f
     c94:	01348633          	add	x12,x9,x19
     c98:	acc72c23          	sw	x12,-1320(x14) # 4100ead8 <.L196+0x4100da5c>

00000c9c <.L157>:
     c9c:	0000006f          	j	c9c <.L157>

00000ca0 <.L137>:
     ca0:	fff78093          	addi	x1,x15,-1
     ca4:	ffd00393          	li	x7,-3
     ca8:	ec13e6e3          	bltu	x7,x1,b74 <.L140>
     cac:	000008b7          	lui	x17,0x0
     cb0:	0008a403          	lw	x8,0(x17) # 0 <tensorlib_lossnll_backward_weight>
     cb4:	0047d593          	srli	x11,x15,0x4
     cb8:	00158513          	addi	x10,x11,1
     cbc:	02850433          	mul	x8,x10,x8
     cc0:	00850ab3          	add	x21,x10,x8
     cc4:	0157f463          	bgeu	x15,x21,ccc <.L141>
     cc8:	00078a93          	mv	x21,x15

00000ccc <.L141>:
     ccc:	eb5474e3          	bgeu	x8,x21,b74 <.L140>
     cd0:	0c812a03          	lw	x20,200(x2)
     cd4:	0b812983          	lw	x19,184(x2)
     cd8:	0bc12283          	lw	x5,188(x2)
     cdc:	0c012f83          	lw	x31,192(x2)
     ce0:	04012f03          	lw	x30,64(x2)
     ce4:	05012e83          	lw	x29,80(x2)
     ce8:	04812e03          	lw	x28,72(x2)
     cec:	00c12803          	lw	x16,12(x2)
     cf0:	01412303          	lw	x6,20(x2)
     cf4:	00241793          	slli	x15,x8,0x2
     cf8:	00fa08b3          	add	x17,x20,x15
     cfc:	00100613          	li	x12,1

00000d00 <.L150>:
     d00:	11347863          	bgeu	x8,x19,e10 <.L182>
     d04:	00088093          	mv	x1,x17
     d08:	00c29a63          	bne	x5,x12,d1c <.L146>
     d0c:	000fa903          	lw	x18,0(x31) # 0 <tensorlib_lossnll_backward_weight>
     d10:	032404b3          	mul	x9,x8,x18
     d14:	00249713          	slli	x14,x9,0x2
     d18:	00ea00b3          	add	x1,x20,x14

00000d1c <.L146>:
     d1c:	0000a383          	lw	x7,0(x1)
     d20:	00488893          	addi	x17,x17,4
     d24:	04768063          	beq	x13,x7,d64 <.L147>
     d28:	15e47063          	bgeu	x8,x30,e68 <.L183>
     d2c:	000e2583          	lw	x11,0(x28) # 0 <tensorlib_lossnll_backward_weight>
     d30:	00082503          	lw	x10,0(x16) # 0 <tensorlib_lossnll_backward_weight>
     d34:	00482903          	lw	x18,4(x16)
     d38:	02b404b3          	mul	x9,x8,x11
     d3c:	02a407b3          	mul	x15,x8,x10
     d40:	00249713          	slli	x14,x9,0x2
     d44:	00ee80b3          	add	x1,x29,x14
     d48:	0000a187          	flw	f3,0(x1)
     d4c:	20319253          	fneg.s	f4,f3
     d50:	032383b3          	mul	x7,x7,x18
     d54:	007785b3          	add	x11,x15,x7
     d58:	00259513          	slli	x10,x11,0x2
     d5c:	00a30933          	add	x18,x6,x10
     d60:	00492027          	fsw	f4,0(x18)

00000d64 <.L147>:
     d64:	00140413          	addi	x8,x8,1 # 1 <tensorlib_lossnll_backward_weight+0x1>
     d68:	f88a9ce3          	bne	x21,x8,d00 <.L150>
     d6c:	e09ff06f          	j	b74 <.L140>

00000d70 <.L180>:
     d70:	000000b7          	lui	x1,0x0
     d74:	000002b7          	lui	x5,0x0
     d78:	00008593          	mv	x11,x1
     d7c:	07b00613          	li	x12,123
     d80:	00028513          	mv	x10,x5
     d84:	00000097          	auipc	x1,0x0
     d88:	000080e7          	jalr	x1 # d84 <.L180+0x14>
     d8c:	0b812583          	lw	x11,184(x2)
     d90:	00000ab7          	lui	x21,0x0
     d94:	00040613          	mv	x12,x8
     d98:	000a8513          	mv	x10,x21
     d9c:	00000a37          	lui	x20,0x0
     da0:	00000097          	auipc	x1,0x0
     da4:	000080e7          	jalr	x1 # da0 <.L180+0x30>
     da8:	000004b7          	lui	x9,0x0
     dac:	000a2983          	lw	x19,0(x20) # 0 <tensorlib_lossnll_backward_weight>
     db0:	0004a703          	lw	x14,0(x9) # 0 <tensorlib_lossnll_backward_weight>
     db4:	4100f3b7          	lui	x7,0x4100f
     db8:	01099613          	slli	x12,x19,0x10
     dbc:	00e607b3          	add	x15,x12,x14
     dc0:	acf3ac23          	sw	x15,-1320(x7) # 4100ead8 <.L196+0x4100da5c>

00000dc4 <.L164>:
     dc4:	0000006f          	j	dc4 <.L164>

00000dc8 <.L172>:
     dc8:	0028a027          	fsw	f2,0(x17)
     dcc:	d9dff06f          	j	b68 <.L168>

00000dd0 <.L169>:
     dd0:	00000537          	lui	x10,0x0
     dd4:	000006b7          	lui	x13,0x0
     dd8:	00050593          	mv	x11,x10
     ddc:	04400613          	li	x12,68
     de0:	00068513          	mv	x10,x13
     de4:	00000097          	auipc	x1,0x0
     de8:	000080e7          	jalr	x1 # de4 <.L169+0x14>
     dec:	00000937          	lui	x18,0x0
     df0:	00092803          	lw	x16,0(x18) # 0 <tensorlib_lossnll_backward_weight>
     df4:	00000f37          	lui	x30,0x0
     df8:	000f2e83          	lw	x29,0(x30) # 0 <tensorlib_lossnll_backward_weight>
     dfc:	01081e13          	slli	x28,x16,0x10
     e00:	4100ffb7          	lui	x31,0x4100f
     e04:	01de0333          	add	x6,x28,x29
     e08:	ac6fac23          	sw	x6,-1320(x31) # 4100ead8 <.L196+0x4100da5c>

00000e0c <.L171>:
     e0c:	0000006f          	j	e0c <.L171>

00000e10 <.L182>:
     e10:	00000337          	lui	x6,0x0
     e14:	000008b7          	lui	x17,0x0
     e18:	00030593          	mv	x11,x6
     e1c:	07b00613          	li	x12,123
     e20:	00088513          	mv	x10,x17
     e24:	00000097          	auipc	x1,0x0
     e28:	000080e7          	jalr	x1 # e24 <.L182+0x14>
     e2c:	0b812583          	lw	x11,184(x2)
     e30:	000004b7          	lui	x9,0x0
     e34:	00040613          	mv	x12,x8
     e38:	00048513          	mv	x10,x9
     e3c:	00000097          	auipc	x1,0x0
     e40:	000080e7          	jalr	x1 # e3c <.L182+0x2c>
     e44:	00000637          	lui	x12,0x0
     e48:	00062783          	lw	x15,0(x12) # 0 <tensorlib_lossnll_backward_weight>
     e4c:	00000737          	lui	x14,0x0
     e50:	00072383          	lw	x7,0(x14) # 0 <tensorlib_lossnll_backward_weight>
     e54:	01079593          	slli	x11,x15,0x10
     e58:	4100f937          	lui	x18,0x4100f
     e5c:	00758533          	add	x10,x11,x7
     e60:	aca92c23          	sw	x10,-1320(x18) # 4100ead8 <.L196+0x4100da5c>

00000e64 <.L144>:
     e64:	0000006f          	j	e64 <.L144>

00000e68 <.L183>:
     e68:	000006b7          	lui	x13,0x0
     e6c:	00000ab7          	lui	x21,0x0
     e70:	00068593          	mv	x11,x13
     e74:	07b00613          	li	x12,123
     e78:	000a8513          	mv	x10,x21
     e7c:	00000097          	auipc	x1,0x0
     e80:	000080e7          	jalr	x1 # e7c <.L183+0x14>
     e84:	04012583          	lw	x11,64(x2)
     e88:	00000a37          	lui	x20,0x0
     e8c:	00040613          	mv	x12,x8
     e90:	000a0513          	mv	x10,x20
     e94:	00000097          	auipc	x1,0x0
     e98:	000080e7          	jalr	x1 # e94 <.L183+0x2c>
     e9c:	000009b7          	lui	x19,0x0
     ea0:	0009a283          	lw	x5,0(x19) # 0 <tensorlib_lossnll_backward_weight>
     ea4:	00000fb7          	lui	x31,0x0
     ea8:	000faf03          	lw	x30,0(x31) # 0 <tensorlib_lossnll_backward_weight>
     eac:	01029e93          	slli	x29,x5,0x10
     eb0:	4100f837          	lui	x16,0x4100f
     eb4:	01ee8e33          	add	x28,x29,x30
     eb8:	adc82c23          	sw	x28,-1320(x16) # 4100ead8 <.L196+0x4100da5c>

00000ebc <.L149>:
     ebc:	0000006f          	j	ebc <.L149>

00000ec0 <tensorlib_lossnll_backward>:
     ec0:	ff010113          	addi	x2,x2,-16
     ec4:	00000893          	li	x17,0
     ec8:	00112623          	sw	x1,12(x2)
     ecc:	00000097          	auipc	x1,0x0
     ed0:	000080e7          	jalr	x1 # ecc <tensorlib_lossnll_backward+0xc>
     ed4:	00000637          	lui	x12,0x0
     ed8:	00062703          	lw	x14,0(x12) # 0 <tensorlib_lossnll_backward_weight>
     edc:	000005b7          	lui	x11,0x0
     ee0:	0005a503          	lw	x10,0(x11) # 0 <tensorlib_lossnll_backward_weight>
     ee4:	000006b7          	lui	x13,0x0
     ee8:	00470293          	addi	x5,x14,4
     eec:	00068793          	mv	x15,x13
     ef0:	00578333          	add	x6,x15,x5
     ef4:	01851393          	slli	x7,x10,0x18
     ef8:	00736833          	or	x16,x6,x7
     efc:	200408b7          	lui	x17,0x20040
     f00:	01186e33          	or	x28,x16,x17
     f04:	00100e93          	li	x29,1
     f08:	01de0023          	sb	x29,0(x28)
     f0c:	00062f03          	lw	x30,0(x12)
     f10:	03df0c63          	beq	x30,x29,f48 <.L186>

00000f14 <.L198>:
     f14:	00100593          	li	x11,1
     f18:	0100006f          	j	f28 <.L202>

00000f1c <.L224>:
     f1c:	00068893          	mv	x17,x13
     f20:	1408ae2f          	lr.w.aq	x28,(x17)
     f24:	00be0863          	beq	x28,x11,f34 <.L201>

00000f28 <.L202>:
     f28:	00068293          	mv	x5,x13
     f2c:	1002a3af          	lr.w	x7,(x5)
     f30:	feb396e3          	bne	x7,x11,f1c <.L224>

00000f34 <.L201>:
     f34:	00c12083          	lw	x1,12(x2)
     f38:	0007a023          	sw	x0,0(x15)
     f3c:	00000513          	li	x10,0
     f40:	01010113          	addi	x2,x2,16
     f44:	00008067          	ret

00000f48 <.L186>:
     f48:	0047c083          	lbu	x1,4(x15)
     f4c:	0ff0ff93          	andi	x31,x1,255
     f50:	fe0f8ce3          	beqz	x31,f48 <.L186>
     f54:	0057c703          	lbu	x14,5(x15)
     f58:	0ff77513          	andi	x10,x14,255
     f5c:	fe0506e3          	beqz	x10,f48 <.L186>
     f60:	0067c283          	lbu	x5,6(x15)
     f64:	0ff2f313          	andi	x6,x5,255
     f68:	fe0300e3          	beqz	x6,f48 <.L186>
     f6c:	0077c383          	lbu	x7,7(x15)
     f70:	0ff3f813          	andi	x16,x7,255
     f74:	fc080ae3          	beqz	x16,f48 <.L186>
     f78:	0005a883          	lw	x17,0(x11)
     f7c:	210400b7          	lui	x1,0x21040
     f80:	00100e13          	li	x28,1
     f84:	00c88e93          	addi	x29,x17,12 # 2004000c <.L196+0x2003ef90>
     f88:	01d78f33          	add	x30,x15,x29
     f8c:	001f6fb3          	or	x31,x30,x1
     f90:	01cf8023          	sb	x28,0(x31)
     f94:	00062503          	lw	x10,0(x12)
     f98:	f7c51ee3          	bne	x10,x28,f14 <.L198>
     f9c:	0005a703          	lw	x14,0(x11)
     fa0:	06a70c63          	beq	x14,x10,1018 <.L192>

00000fa4 <.L197>:
     fa4:	00100513          	li	x10,1
     fa8:	0100006f          	j	fb8 <.L191>

00000fac <.L225>:
     fac:	00878393          	addi	x7,x15,8
     fb0:	1403a8af          	lr.w.aq	x17,(x7)
     fb4:	00a88863          	beq	x17,x10,fc4 <.L199>

00000fb8 <.L191>:
     fb8:	00878613          	addi	x12,x15,8
     fbc:	100622af          	lr.w	x5,(x12)
     fc0:	fea296e3          	bne	x5,x10,fac <.L225>

00000fc4 <.L199>:
     fc4:	0007a423          	sw	x0,8(x15)
     fc8:	00078223          	sb	x0,4(x15)
     fcc:	000782a3          	sb	x0,5(x15)
     fd0:	00078323          	sb	x0,6(x15)
     fd4:	000783a3          	sb	x0,7(x15)
     fd8:	0007a023          	sw	x0,0(x15)
     fdc:	00000813          	li	x16,0
     fe0:	00068793          	mv	x15,x13
     fe4:	20000e37          	lui	x28,0x20000
     fe8:	00100313          	li	x6,1
     fec:	00040fb7          	lui	x31,0x40
     ff0:	00100eb7          	lui	x29,0x100

00000ff4 <.L200>:
     ff4:	0005af03          	lw	x30,0(x11)
     ff8:	0107e0b3          	or	x1,x15,x16
     ffc:	01f80833          	add	x16,x16,x31
    1000:	018f1713          	slli	x14,x30,0x18
    1004:	00176533          	or	x10,x14,x1
    1008:	01c56633          	or	x12,x10,x28
    100c:	00662023          	sw	x6,0(x12)
    1010:	ffd812e3          	bne	x16,x29,ff4 <.L200>
    1014:	f01ff06f          	j	f14 <.L198>

00001018 <.L192>:
    1018:	00c7c283          	lbu	x5,12(x15)
    101c:	0ff2f313          	andi	x6,x5,255
    1020:	fe030ce3          	beqz	x6,1018 <.L192>
    1024:	00d7c383          	lbu	x7,13(x15)
    1028:	0ff3f813          	andi	x16,x7,255
    102c:	fe0806e3          	beqz	x16,1018 <.L192>
    1030:	00e7c883          	lbu	x17,14(x15)
    1034:	0ff8fe13          	andi	x28,x17,255
    1038:	fe0e00e3          	beqz	x28,1018 <.L192>
    103c:	00f7ce83          	lbu	x29,15(x15)
    1040:	0ffeff13          	andi	x30,x29,255
    1044:	fc0f0ae3          	beqz	x30,1018 <.L192>
    1048:	00078623          	sb	x0,12(x15)
    104c:	000786a3          	sb	x0,13(x15)
    1050:	00078723          	sb	x0,14(x15)
    1054:	000787a3          	sb	x0,15(x15)
    1058:	000000b7          	lui	x1,0x0
    105c:	0007a423          	sw	x0,8(x15)
    1060:	00000813          	li	x16,0
    1064:	00808513          	addi	x10,x1,8 # 8 <tensorlib_lossnll_backward_weight+0x8>
    1068:	03fc02b7          	lui	x5,0x3fc0
    106c:	200003b7          	lui	x7,0x20000
    1070:	00100893          	li	x17,1
    1074:	01000e37          	lui	x28,0x1000
    1078:	04000337          	lui	x6,0x4000

0000107c <.L196>:
    107c:	01271713          	slli	x14,x14,0x12
    1080:	01056fb3          	or	x31,x10,x16
    1084:	00577eb3          	and	x29,x14,x5
    1088:	01feef33          	or	x30,x29,x31
    108c:	007f60b3          	or	x1,x30,x7
    1090:	0110a023          	sw	x17,0(x1)
    1094:	01c80833          	add	x16,x16,x28
    1098:	00062703          	lw	x14,0(x12)
    109c:	fe6810e3          	bne	x16,x6,107c <.L196>
    10a0:	f11702e3          	beq	x14,x17,fa4 <.L197>
    10a4:	e71ff06f          	j	f14 <.L198>

Disassembly of section .rodata._ZN8HBTensorIfLln1EEC2EP11hb_tensor_t.str1.4:

00000000 <.LC0>:
   0:	726f772f          	0x726f772f
   4:	6c672f6b          	0x6c672f6b
   8:	6c61626f          	jal	x4,166ce <.L196+0x15652>
   c:	33726b2f          	0x33726b2f
  10:	3739                	jal	ffffff1e <.L196+0xffffeea2>
  12:	2d62682f          	0x2d62682f
  16:	7970                	flw	f12,116(x10)
  18:	6f74                	flw	f13,92(x14)
  1a:	6372                	flw	f6,28(x2)
  1c:	2f68                	fld	f10,216(x14)
  1e:	6168                	flw	f10,68(x10)
  20:	6d6d                	lui	x26,0x1b
  22:	7265                	lui	x4,0xffff9
  24:	6c62                	flw	f24,24(x2)
  26:	6461                	lui	x8,0x18
  28:	2f65                	jal	7e0 <.L75+0x1c>
  2a:	6f74                	flw	f13,92(x14)
  2c:	6372                	flw	f6,28(x2)
  2e:	2f68                	fld	f10,216(x14)
  30:	6e72656b          	0x6e72656b
  34:	6c65                	lui	x24,0x19
  36:	5f62682f          	0x5f62682f
  3a:	6574                	flw	f13,76(x10)
  3c:	736e                	flw	f6,248(x2)
  3e:	682e726f          	jal	x4,e76c0 <.L196+0xe6644>
  42:	7070                	flw	f12,100(x8)
  44:	0000                	unimp
	...

00000048 <.LC1>:
  48:	7361                	lui	x6,0xffff8
  4a:	74726573          	csrrsi	x10,0x747,4
  4e:	6620                	flw	f8,72(x12)
  50:	6961                	lui	x18,0x18
  52:	656c                	flw	f11,76(x10)
  54:	2064                	fld	f9,192(x8)
  56:	7461                	lui	x8,0xffff8
  58:	2520                	fld	f8,72(x10)
  5a:	64253a73          	csrrc	x20,0x642,x10
  5e:	0020                	addi	x8,x2,8

00000060 <.LC2>:
  60:	7265                	lui	x4,0xffff9
  62:	6f72                	flw	f30,28(x2)
  64:	3a72                	fld	f20,312(x2)
  66:	7420                	flw	f8,104(x8)
  68:	6e65                	lui	x28,0x19
  6a:	20726f73          	csrrsi	x30,0x207,4
  6e:	6964                	flw	f9,84(x10)
  70:	736d                	lui	x6,0xffffb
  72:	6920                	flw	f8,80(x10)
  74:	6f742073          	csrs	0x6f7,x8
  78:	616c206f          	j	c268e <.L196+0xc1612>
  7c:	6772                	flw	f14,28(x2)
  7e:	0065                	c.nop	25

Disassembly of section .text._ZN8HBTensorIfLln1EEC2EP11hb_tensor_t:

00000000 <_ZN8HBTensorIfLln1EEC1EP11hb_tensor_t>:
   0:	00058713          	mv	x14,x11
   4:	0045a683          	lw	x13,4(x11)
   8:	00072803          	lw	x16,0(x14)
   c:	0105a583          	lw	x11,16(x11)
  10:	00050793          	mv	x15,x10
  14:	02850613          	addi	x12,x10,40 # 28 <_ZN8HBTensorIfLln1EEC1EP11hb_tensor_t+0x28>
  18:	01450513          	addi	x10,x10,20
  1c:	0107a023          	sw	x16,0(x15)
  20:	00d7a223          	sw	x13,4(x15)
  24:	00a7a423          	sw	x10,8(x15)
  28:	00c7a623          	sw	x12,12(x15)
  2c:	00b7a823          	sw	x11,16(x15)
  30:	00060613          	mv	x12,x12
  34:	00500293          	li	x5,5
  38:	04d2e463          	bltu	x5,x13,80 <.L14>
  3c:	00872303          	lw	x6,8(x14)
  40:	00c72383          	lw	x7,12(x14)
  44:	02068c63          	beqz	x13,7c <.L1>
  48:	00269893          	slli	x17,x13,0x2
  4c:	00078713          	mv	x14,x15
  50:	01178e33          	add	x28,x15,x17
  54:	40f30eb3          	sub	x29,x6,x15
  58:	40f38f33          	sub	x30,x7,x15

0000005c <.L5>:
  5c:	00ee8fb3          	add	x31,x29,x14
  60:	000fa683          	lw	x13,0(x31) # 40000 <.L196+0x3ef84>
  64:	00ef05b3          	add	x11,x30,x14
  68:	00470713          	addi	x14,x14,4
  6c:	00d72823          	sw	x13,16(x14)
  70:	0005a803          	lw	x16,0(x11)
  74:	03072223          	sw	x16,36(x14)
  78:	ffc712e3          	bne	x14,x28,5c <.L5>

0000007c <.L1>:
  7c:	00008067          	ret

00000080 <.L14>:
  80:	ff010113          	addi	x2,x2,-16
  84:	000007b7          	lui	x15,0x0
  88:	00112623          	sw	x1,12(x2)
  8c:	000000b7          	lui	x1,0x0
  90:	0c700613          	li	x12,199
  94:	00008593          	mv	x11,x1
  98:	00078513          	mv	x10,x15
  9c:	00000097          	auipc	x1,0x0
  a0:	000080e7          	jalr	x1 # 9c <.L14+0x1c>
  a4:	00000637          	lui	x12,0x0
  a8:	00060513          	mv	x10,x12
  ac:	00000097          	auipc	x1,0x0
  b0:	000080e7          	jalr	x1 # ac <.L14+0x2c>
  b4:	00000537          	lui	x10,0x0
  b8:	00052283          	lw	x5,0(x10) # 0 <_ZN8HBTensorIfLln1EEC1EP11hb_tensor_t>
  bc:	00000337          	lui	x6,0x0
  c0:	00032383          	lw	x7,0(x6) # 0 <_ZN8HBTensorIfLln1EEC1EP11hb_tensor_t>
  c4:	01029893          	slli	x17,x5,0x10
  c8:	4100feb7          	lui	x29,0x4100f
  cc:	00788e33          	add	x28,x17,x7
  d0:	adceac23          	sw	x28,-1320(x29) # 4100ead8 <.L196+0x4100da5c>

000000d4 <.L3>:
  d4:	0000006f          	j	d4 <.L3>

Disassembly of section .text._ZN8HBTensorIiLln1EEC2EP11hb_tensor_t:

00000000 <_ZN8HBTensorIiLln1EEC1EP11hb_tensor_t>:
   0:	00058713          	mv	x14,x11
   4:	0045a683          	lw	x13,4(x11)
   8:	00072803          	lw	x16,0(x14)
   c:	0105a583          	lw	x11,16(x11)
  10:	00050793          	mv	x15,x10
  14:	02850613          	addi	x12,x10,40
  18:	01450513          	addi	x10,x10,20
  1c:	0107a023          	sw	x16,0(x15) # 0 <_ZN8HBTensorIiLln1EEC1EP11hb_tensor_t>
  20:	00d7a223          	sw	x13,4(x15)
  24:	00a7a423          	sw	x10,8(x15)
  28:	00c7a623          	sw	x12,12(x15)
  2c:	00b7a823          	sw	x11,16(x15)
  30:	00060613          	mv	x12,x12
  34:	00500293          	li	x5,5
  38:	04d2e463          	bltu	x5,x13,80 <.L27>
  3c:	00872303          	lw	x6,8(x14)
  40:	00c72383          	lw	x7,12(x14)
  44:	02068c63          	beqz	x13,7c <.L15>
  48:	00269893          	slli	x17,x13,0x2
  4c:	00078713          	mv	x14,x15
  50:	01178e33          	add	x28,x15,x17
  54:	40f30eb3          	sub	x29,x6,x15
  58:	40f38f33          	sub	x30,x7,x15

0000005c <.L19>:
  5c:	00ee8fb3          	add	x31,x29,x14
  60:	000fa683          	lw	x13,0(x31)
  64:	00ef05b3          	add	x11,x30,x14
  68:	00470713          	addi	x14,x14,4
  6c:	00d72823          	sw	x13,16(x14)
  70:	0005a803          	lw	x16,0(x11)
  74:	03072223          	sw	x16,36(x14)
  78:	ffc712e3          	bne	x14,x28,5c <.L19>

0000007c <.L15>:
  7c:	00008067          	ret

00000080 <.L27>:
  80:	ff010113          	addi	x2,x2,-16
  84:	000007b7          	lui	x15,0x0
  88:	00112623          	sw	x1,12(x2)
  8c:	000000b7          	lui	x1,0x0
  90:	0c700613          	li	x12,199
  94:	00008593          	mv	x11,x1
  98:	00078513          	mv	x10,x15
  9c:	00000097          	auipc	x1,0x0
  a0:	000080e7          	jalr	x1 # 9c <.L27+0x1c>
  a4:	00000637          	lui	x12,0x0
  a8:	00060513          	mv	x10,x12
  ac:	00000097          	auipc	x1,0x0
  b0:	000080e7          	jalr	x1 # ac <.L27+0x2c>
  b4:	00000537          	lui	x10,0x0
  b8:	00052283          	lw	x5,0(x10) # 0 <_ZN8HBTensorIiLln1EEC1EP11hb_tensor_t>
  bc:	00000337          	lui	x6,0x0
  c0:	00032383          	lw	x7,0(x6) # 0 <_ZN8HBTensorIiLln1EEC1EP11hb_tensor_t>
  c4:	01029893          	slli	x17,x5,0x10
  c8:	4100feb7          	lui	x29,0x4100f
  cc:	00788e33          	add	x28,x17,x7
  d0:	adceac23          	sw	x28,-1320(x29) # 4100ead8 <.L196+0x4100da5c>

000000d4 <.L17>:
  d4:	0000006f          	j	d4 <.L17>

Disassembly of section .rodata.str1.4:

00000000 <.LC3>:
   0:	7265                	lui	x4,0xffff9
   2:	6f72                	flw	f30,28(x2)
   4:	3a72                	fld	f20,312(x2)
   6:	6420                	flw	f8,72(x8)
   8:	6d69                	lui	x26,0x1a
   a:	7365                	lui	x6,0xffff9
   c:	696e                	flw	f18,216(x2)
   e:	6d206e6f          	jal	x28,66e0 <.L196+0x5664>
  12:	7375                	lui	x6,0xffffd
  14:	2074                	fld	f13,192(x8)
  16:	6562                	flw	f10,24(x2)
  18:	6c20                	flw	f8,88(x8)
  1a:	7365                	lui	x6,0xffff9
  1c:	68742073          	csrs	0x687,x8
  20:	6e61                	lui	x28,0x18
  22:	2520                	fld	f8,72(x10)
  24:	0a64                	addi	x9,x2,284
	...

00000028 <.LC4>:
  28:	6e72656b          	0x6e72656b
  2c:	6c65                	lui	x24,0x19
  2e:	4c5f 736f 4e73      	0x4e73736f4c5f
  34:	4c4c                	lw	x11,28(x8)
  36:	625f 6361 776b      	0x776b6361625f
  3c:	7261                	lui	x4,0xffff8
  3e:	2e64                	fld	f9,216(x12)
  40:	00707063          	bgeu	x0,x7,40 <.LC4+0x18>

00000044 <.LC5>:
  44:	7361                	lui	x6,0xffff8
  46:	74726573          	csrrsi	x10,0x747,4
  4a:	6620                	flw	f8,72(x12)
  4c:	6961                	lui	x18,0x18
  4e:	656c                	flw	f11,76(x10)
  50:	2064                	fld	f9,192(x8)
  52:	7461                	lui	x8,0xffff8
  54:	2520                	fld	f8,72(x10)
  56:	64253a73          	csrrc	x20,0x642,x10
	...

0000005c <.LC6>:
  5c:	7265                	lui	x4,0xffff9
  5e:	6f72                	flw	f30,28(x2)
  60:	3a72                	fld	f20,312(x2)
  62:	4e20                	lw	x8,88(x12)
  64:	253d                	jal	692 <.L125+0x6>
  66:	2064                	fld	f9,192(x8)
  68:	7562                	flw	f10,56(x2)
  6a:	2074                	fld	f13,192(x8)
  6c:	6361                	lui	x6,0x18
  6e:	73736563          	bltu	x6,x23,798 <.L69+0x24>
  72:	6465                	lui	x8,0x19
  74:	2520                	fld	f8,72(x10)
  76:	0a64                	addi	x9,x2,284
	...

Disassembly of section .srodata.cst4:

00000000 <.LC7>:
   0:	0000                	unimp
   2:	3f80                	fld	f8,56(x15)

Disassembly of section .comment:

00000000 <.comment>:
   0:	4700                	lw	x8,8(x14)
   2:	203a4343          	fmadd.s	f6,f20,f3,f4,rmm
   6:	4728                	lw	x10,72(x14)
   8:	554e                	lw	x10,240(x2)
   a:	2029                	jal	14 <_ZN8HBTensorIfLln1EEC5EP11hb_tensor_t+0x14>
   c:	2e39                	jal	32a <.L36+0x16>
   e:	2e32                	fld	f28,264(x2)
  10:	0030                	addi	x12,x2,8

Disassembly of section .eh_frame:

00000000 <.eh_frame>:
   0:	0010                	0x10
   2:	0000                	unimp
   4:	0000                	unimp
   6:	0000                	unimp
   8:	7a01                	lui	x20,0xfffe0
   a:	0052                	c.slli	x0,0x14
   c:	7c01                	lui	x24,0xfffe0
   e:	0101                	addi	x2,x2,0
  10:	00020d1b          	0x20d1b
  14:	0014                	0x14
  16:	0000                	unimp
  18:	0018                	0x18
	...
  22:	0000                	unimp
  24:	0200                	addi	x8,x2,256
  26:	0e84                	addi	x9,x2,848
  28:	4810                	lw	x12,16(x8)
  2a:	0181                	addi	x3,x3,0
  2c:	0014                	0x14
  2e:	0000                	unimp
  30:	0030                	addi	x12,x2,8
	...
  3a:	0000                	unimp
  3c:	0200                	addi	x8,x2,256
  3e:	0e84                	addi	x9,x2,848
  40:	4810                	lw	x12,16(x8)
  42:	0181                	addi	x3,x3,0
  44:	0040                	addi	x8,x2,4
  46:	0000                	unimp
  48:	0048                	addi	x10,x2,4
	...
  52:	0000                	unimp
  54:	4400                	lw	x8,8(x8)
  56:	900e                	c.add	x0,x3
  58:	05934803          	lbu	x16,89(x6) # 18059 <.L196+0x16fdd>
  5c:	0694                	addi	x13,x2,832
  5e:	815c                	0x815c
  60:	8801                	andi	x8,x8,0
  62:	8902                	jr	x18
  64:	04925003          	lhu	x0,73(x4) # ffff9049 <.L196+0xffff7fcd>
  68:	0795                	addi	x15,x15,5
  6a:	964c                	0x964c
  6c:	0308                	addi	x10,x2,384
  6e:	0334                	addi	x13,x2,392
  70:	c10a                	sw	x2,128(x2)
  72:	c844                	sw	x9,20(x8)
  74:	c948                	sw	x10,20(x10)
  76:	d244                	sw	x9,36(x12)
  78:	d344                	sw	x9,36(x14)
  7a:	d444                	sw	x9,44(x8)
  7c:	d544                	sw	x9,44(x10)
  7e:	d644                	sw	x9,44(x12)
  80:	0e48                	addi	x10,x2,788
  82:	4400                	lw	x8,8(x8)
  84:	0000000b          	0xb
  88:	003c                	addi	x15,x2,8
  8a:	0000                	unimp
  8c:	008c                	addi	x11,x2,64
	...
  96:	0000                	unimp
  98:	4400                	lw	x8,8(x8)
  9a:	d00e                	sw	x3,32(x2)
  9c:	4c02                	lw	x24,0(x2)
  9e:	0492                	slli	x9,x9,0x4
  a0:	8154                	0x8154
  a2:	8801                	andi	x8,x8,0
  a4:	8902                	jr	x18
  a6:	05935003          	lhu	x0,89(x6)
  aa:	0694                	addi	x13,x2,832
  ac:	954c                	0x954c
  ae:	02540307          	0x2540307
  b2:	c10a                	sw	x2,128(x2)
  b4:	c844                	sw	x9,20(x8)
  b6:	c944                	sw	x9,20(x10)
  b8:	d244                	sw	x9,36(x12)
  ba:	d344                	sw	x9,36(x14)
  bc:	d444                	sw	x9,44(x8)
  be:	d544                	sw	x9,44(x10)
  c0:	0e48                	addi	x10,x2,788
  c2:	4400                	lw	x8,8(x8)
  c4:	0000000b          	0xb
  c8:	001c                	0x1c
  ca:	0000                	unimp
  cc:	00cc                	addi	x11,x2,68
	...
  d6:	0000                	unimp
  d8:	4400                	lw	x8,8(x8)
  da:	100e                	c.slli	x0,0x23
  dc:	8148                	0x8148
  de:	0201                	addi	x4,x4,0
  e0:	0a6c                	addi	x11,x2,284
  e2:	4cc1                	li	x25,16
  e4:	000e                	c.slli	x0,0x3
  e6:	0b44                	addi	x9,x2,404

Disassembly of section .riscv.attributes:

00000000 <.riscv.attributes>:
   0:	2a41                	jal	190 <.L121+0x4>
   2:	0000                	unimp
   4:	7200                	flw	f8,32(x12)
   6:	7369                	lui	x6,0xffffa
   8:	01007663          	bgeu	x0,x16,14 <.riscv.attributes+0x14>
   c:	0020                	addi	x8,x2,8
   e:	0000                	unimp
  10:	1004                	addi	x9,x2,32
  12:	7205                	lui	x4,0xfffe1
  14:	3376                	fld	f6,376(x2)
  16:	6932                	flw	f18,12(x2)
  18:	7032                	flw	f0,44(x2)
  1a:	5f30                	lw	x12,120(x14)
  1c:	326d                	jal	fffff9c6 <.L196+0xffffe94a>
  1e:	3070                	fld	f12,224(x8)
  20:	615f 7032 5f30      	0x5f307032615f
  26:	3266                	fld	f4,120(x2)
  28:	3070                	fld	f12,224(x8)
	...
