
kernel_ceil.o:     file format elf32-littleriscv


Disassembly of section .group:

00000000 <_ZN8HBTensorIfLln1EEC5EP11hb_tensor_t>:
   0:	0001                	nop
   2:	0000                	unimp
   4:	00000007          	0x7
   8:	0008                	0x8
	...

Disassembly of section .text:

00000000 <tensorlib_ceil>:
   0:	f0010113          	addi	x2,x2,-256
   4:	00050793          	mv	x15,x10
   8:	0e812c23          	sw	x8,248(x2)
   c:	02810513          	addi	x10,x2,40
  10:	00058413          	mv	x8,x11
  14:	00078593          	mv	x11,x15
  18:	0e112e23          	sw	x1,252(x2)
  1c:	0e912a23          	sw	x9,244(x2)
  20:	0f212823          	sw	x18,240(x2)
  24:	0f312623          	sw	x19,236(x2)
  28:	0f412423          	sw	x20,232(x2)
  2c:	0f512223          	sw	x21,228(x2)
  30:	0f612023          	sw	x22,224(x2)
  34:	0d712e23          	sw	x23,220(x2)
  38:	0d812c23          	sw	x24,216(x2)
  3c:	0d912a23          	sw	x25,212(x2)
  40:	0da12823          	sw	x26,208(x2)
  44:	0db12623          	sw	x27,204(x2)
  48:	0a812e27          	fsw	f8,188(x2)
  4c:	0a912c27          	fsw	f9,184(x2)
  50:	0b212a27          	fsw	f18,180(x2)
  54:	0b312827          	fsw	f19,176(x2)
  58:	0b412627          	fsw	f20,172(x2)
  5c:	0b512427          	fsw	f21,168(x2)
  60:	00000097          	auipc	x1,0x0
  64:	000080e7          	jalr	x1 # 60 <tensorlib_ceil+0x60>
  68:	00040593          	mv	x11,x8
  6c:	06410513          	addi	x10,x2,100
  70:	00000097          	auipc	x1,0x0
  74:	000080e7          	jalr	x1 # 70 <tensorlib_ceil+0x70>
  78:	000009b7          	lui	x19,0x0
  7c:	00000a37          	lui	x20,0x0
  80:	00000937          	lui	x18,0x0
  84:	00000ab7          	lui	x21,0x0
  88:	0009a283          	lw	x5,0(x19) # 0 <tensorlib_ceil>
  8c:	000a2583          	lw	x11,0(x20) # 0 <tensorlib_ceil>
  90:	000aa603          	lw	x12,0(x21) # 0 <tensorlib_ceil>
  94:	00092703          	lw	x14,0(x18) # 0 <tensorlib_ceil>
  98:	000004b7          	lui	x9,0x0
  9c:	0004a683          	lw	x13,0(x9) # 0 <tensorlib_ceil>
  a0:	00b28333          	add	x6,x5,x11
  a4:	00c703b3          	add	x7,x14,x12
  a8:	00040db7          	lui	x27,0x40
  ac:	01831513          	slli	x10,x6,0x18
  b0:	01239813          	slli	x16,x7,0x12
  b4:	3f0008b7          	lui	x17,0x3f000
  b8:	00fc0bb7          	lui	x23,0xfc0
  bc:	01787c33          	and	x24,x16,x23
  c0:	00469c93          	slli	x25,x13,0x4
  c4:	ff0d8e13          	addi	x28,x27,-16 # 3fff0 <.L90+0x3f97c>
  c8:	01157b33          	and	x22,x10,x17
  cc:	018b6d33          	or	x26,x22,x24
  d0:	01ccfeb3          	and	x29,x25,x28
  d4:	01dd6f33          	or	x30,x26,x29
  d8:	02812f83          	lw	x31,40(x2)
  dc:	800007b7          	lui	x15,0x80000
  e0:	00ff6433          	or	x8,x30,x15
  e4:	410012b7          	lui	x5,0x41001
  e8:	d082a623          	sw	x8,-756(x5) # 41000d0c <.L90+0x41000698>
  ec:	fff00593          	li	x11,-1
  f0:	02c12c03          	lw	x24,44(x2)
  f4:	03012d83          	lw	x27,48(x2)
  f8:	03812c83          	lw	x25,56(x2)
  fc:	06c12603          	lw	x12,108(x2)
 100:	07412d03          	lw	x26,116(x2)
 104:	10bf8263          	beq	x31,x11,208 <.L21>
 108:	100f8063          	beqz	x31,208 <.L21>
 10c:	000000b7          	lui	x1,0x0
 110:	0000a703          	lw	x14,0(x1) # 0 <tensorlib_ceil>
 114:	004fd693          	srli	x13,x31,0x4
 118:	00168313          	addi	x6,x13,1
 11c:	02e30433          	mul	x8,x6,x14
 120:	00830b33          	add	x22,x6,x8
 124:	376fe263          	bltu	x31,x22,488 <.L86>

00000128 <.L17>:
 128:	0f647063          	bgeu	x8,x22,208 <.L21>
 12c:	00100393          	li	x7,1
 130:	367c0063          	beq	x24,x7,490 <.L87>
 134:	06812503          	lw	x10,104(x2)
 138:	07012803          	lw	x16,112(x2)
 13c:	03412883          	lw	x17,52(x2)
 140:	00251e13          	slli	x28,x10,0x2
 144:	002c1b93          	slli	x23,x24,0x2
 148:	010e0eb3          	add	x29,x28,x16
 14c:	00a12623          	sw	x10,12(x2)
 150:	01012a23          	sw	x16,20(x2)
 154:	01112c23          	sw	x17,24(x2)
 158:	01d12823          	sw	x29,16(x2)
 15c:	011b8bb3          	add	x23,x23,x17

00000160 <.L32>:
 160:	00c12f03          	lw	x30,12(x2)
 164:	300f0e63          	beqz	x30,480 <.L54>
 168:	01412083          	lw	x1,20(x2)
 16c:	00060313          	mv	x6,x12
 170:	00040393          	mv	x7,x8
 174:	00000793          	li	x15,0

00000178 <.L29>:
 178:	0000a283          	lw	x5,0(x1)
 17c:	00032583          	lw	x11,0(x6)
 180:	01012503          	lw	x10,16(x2)
 184:	0253f733          	remu	x14,x7,x5
 188:	00408093          	addi	x1,x1,4
 18c:	00430313          	addi	x6,x6,4
 190:	02b706b3          	mul	x13,x14,x11
 194:	0253d3b3          	divu	x7,x7,x5
 198:	00d787b3          	add	x15,x15,x13
 19c:	fc151ee3          	bne	x10,x1,178 <.L29>
 1a0:	00279813          	slli	x16,x15,0x2
 1a4:	010d0fb3          	add	x31,x26,x16

000001a8 <.L28>:
 1a8:	000fa507          	flw	f10,0(x31)
 1ac:	00c12423          	sw	x12,8(x2)
 1b0:	00000097          	auipc	x1,0x0
 1b4:	000080e7          	jalr	x1 # 1b0 <.L28+0x8>
 1b8:	00812603          	lw	x12,8(x2)
 1bc:	2a0c0e63          	beqz	x24,478 <.L55>
 1c0:	01812f83          	lw	x31,24(x2)
 1c4:	000d8293          	mv	x5,x27
 1c8:	00040093          	mv	x1,x8
 1cc:	00000713          	li	x14,0

000001d0 <.L31>:
 1d0:	000fae83          	lw	x29,0(x31)
 1d4:	0002af03          	lw	x30,0(x5)
 1d8:	004f8f93          	addi	x31,x31,4
 1dc:	00428293          	addi	x5,x5,4
 1e0:	03d0fe33          	remu	x28,x1,x29
 1e4:	03ee05b3          	mul	x11,x28,x30
 1e8:	03d0d0b3          	divu	x1,x1,x29
 1ec:	00b70733          	add	x14,x14,x11
 1f0:	fffb90e3          	bne	x23,x31,1d0 <.L31>
 1f4:	00271313          	slli	x6,x14,0x2
 1f8:	006c88b3          	add	x17,x25,x6

000001fc <.L30>:
 1fc:	00a8a027          	fsw	f10,0(x17) # 3f000000 <.L90+0x3efff98c>
 200:	00140413          	addi	x8,x8,1
 204:	f48b1ee3          	bne	x22,x8,160 <.L32>

00000208 <.L21>:
 208:	0009ab03          	lw	x22,0(x19)
 20c:	00092903          	lw	x18,0(x18)
 210:	000a2983          	lw	x19,0(x20)
 214:	000aac03          	lw	x24,0(x21)
 218:	0004a483          	lw	x9,0(x9)
 21c:	013b08b3          	add	x17,x22,x19
 220:	01890833          	add	x16,x18,x24
 224:	01889513          	slli	x10,x17,0x18
 228:	01281f13          	slli	x30,x16,0x12
 22c:	3f000fb7          	lui	x31,0x3f000
 230:	00fc02b7          	lui	x5,0xfc0
 234:	00040737          	lui	x14,0x40
 238:	00449093          	slli	x1,x9,0x4
 23c:	01f57e33          	and	x28,x10,x31
 240:	005f75b3          	and	x11,x30,x5
 244:	ff070693          	addi	x13,x14,-16 # 3fff0 <.L90+0x3f97c>
 248:	00be6633          	or	x12,x28,x11
 24c:	00d0f333          	and	x6,x1,x13
 250:	006663b3          	or	x7,x12,x6
 254:	c0000db7          	lui	x27,0xc0000
 258:	01b3e7b3          	or	x15,x7,x27
 25c:	41001d37          	lui	x26,0x41001
 260:	d0fd2623          	sw	x15,-756(x26) # 41000d0c <.L90+0x41000698>
 264:	000aac83          	lw	x25,0(x21)
 268:	000a2403          	lw	x8,0(x20)
 26c:	00000bb7          	lui	x23,0x0
 270:	004c8e93          	addi	x29,x25,4
 274:	000b8793          	mv	x15,x23
 278:	01d78b33          	add	x22,x15,x29
 27c:	01841993          	slli	x19,x8,0x18
 280:	013b6933          	or	x18,x22,x19
 284:	20040c37          	lui	x24,0x20040
 288:	018964b3          	or	x9,x18,x24
 28c:	00100893          	li	x17,1
 290:	01148023          	sb	x17,0(x9)
 294:	000aa803          	lw	x16,0(x21)
 298:	09180063          	beq	x16,x17,318 <.L34>

0000029c <.L46>:
 29c:	00100a13          	li	x20,1
 2a0:	0100006f          	j	2b0 <.L50>

000002a4 <.L88>:
 2a4:	000b8093          	mv	x1,x23
 2a8:	1400a62f          	lr.w.aq	x12,(x1)
 2ac:	01460863          	beq	x12,x20,2bc <.L49>

000002b0 <.L50>:
 2b0:	000b8513          	mv	x10,x23
 2b4:	100522af          	lr.w	x5,(x10)
 2b8:	ff4296e3          	bne	x5,x20,2a4 <.L88>

000002bc <.L49>:
 2bc:	0fc12083          	lw	x1,252(x2)
 2c0:	0f812403          	lw	x8,248(x2)
 2c4:	0007a023          	sw	x0,0(x15) # 80000000 <.L90+0x7ffff98c>
 2c8:	0f412483          	lw	x9,244(x2)
 2cc:	0f012903          	lw	x18,240(x2)
 2d0:	0ec12983          	lw	x19,236(x2)
 2d4:	0e812a03          	lw	x20,232(x2)
 2d8:	0e412a83          	lw	x21,228(x2)
 2dc:	0e012b03          	lw	x22,224(x2)
 2e0:	0dc12b83          	lw	x23,220(x2)
 2e4:	0d812c03          	lw	x24,216(x2)
 2e8:	0d412c83          	lw	x25,212(x2)
 2ec:	0d012d03          	lw	x26,208(x2)
 2f0:	0cc12d83          	lw	x27,204(x2)
 2f4:	0bc12407          	flw	f8,188(x2)
 2f8:	0b812487          	flw	f9,184(x2)
 2fc:	0b412907          	flw	f18,180(x2)
 300:	0b012987          	flw	f19,176(x2)
 304:	0ac12a07          	flw	f20,172(x2)
 308:	0a812a87          	flw	f21,168(x2)
 30c:	00000513          	li	x10,0
 310:	10010113          	addi	x2,x2,256
 314:	00008067          	ret

00000318 <.L34>:
 318:	0047c503          	lbu	x10,4(x15)
 31c:	0ff57f13          	andi	x30,x10,255
 320:	fe0f0ce3          	beqz	x30,318 <.L34>
 324:	0057cf83          	lbu	x31,5(x15)
 328:	0ffffe13          	andi	x28,x31,255
 32c:	fe0e06e3          	beqz	x28,318 <.L34>
 330:	0067c283          	lbu	x5,6(x15)
 334:	0ff2f593          	andi	x11,x5,255
 338:	fe0580e3          	beqz	x11,318 <.L34>
 33c:	0077c083          	lbu	x1,7(x15)
 340:	0ff0f613          	andi	x12,x1,255
 344:	fc060ae3          	beqz	x12,318 <.L34>
 348:	000a2703          	lw	x14,0(x20)
 34c:	21040db7          	lui	x27,0x21040
 350:	00100693          	li	x13,1
 354:	00c70313          	addi	x6,x14,12
 358:	006783b3          	add	x7,x15,x6
 35c:	01b3ed33          	or	x26,x7,x27
 360:	00dd0023          	sb	x13,0(x26)
 364:	000aac83          	lw	x25,0(x21)
 368:	f2dc9ae3          	bne	x25,x13,29c <.L46>
 36c:	000a2d83          	lw	x27,0(x20)
 370:	079d8c63          	beq	x27,x25,3e8 <.L40>

00000374 <.L45>:
 374:	00100a93          	li	x21,1
 378:	0100006f          	j	388 <.L39>

0000037c <.L89>:
 37c:	00878413          	addi	x8,x15,8
 380:	14042eaf          	lr.w.aq	x29,(x8)
 384:	015e8863          	beq	x29,x21,394 <.L47>

00000388 <.L39>:
 388:	00878d13          	addi	x26,x15,8
 38c:	100d2caf          	lr.w	x25,(x26)
 390:	ff5c96e3          	bne	x25,x21,37c <.L89>

00000394 <.L47>:
 394:	0007a423          	sw	x0,8(x15)
 398:	00078223          	sb	x0,4(x15)
 39c:	000782a3          	sb	x0,5(x15)
 3a0:	00078323          	sb	x0,6(x15)
 3a4:	000783a3          	sb	x0,7(x15)
 3a8:	0007a023          	sw	x0,0(x15)
 3ac:	00000813          	li	x16,0
 3b0:	000b8793          	mv	x15,x23
 3b4:	20000b37          	lui	x22,0x20000
 3b8:	00100993          	li	x19,1
 3bc:	00040937          	lui	x18,0x40
 3c0:	00100c37          	lui	x24,0x100

000003c4 <.L48>:
 3c4:	000a2483          	lw	x9,0(x20)
 3c8:	0107e8b3          	or	x17,x15,x16
 3cc:	01280833          	add	x16,x16,x18
 3d0:	01849f13          	slli	x30,x9,0x18
 3d4:	011f6fb3          	or	x31,x30,x17
 3d8:	016fee33          	or	x28,x31,x22
 3dc:	013e2023          	sw	x19,0(x28)
 3e0:	ff8812e3          	bne	x16,x24,3c4 <.L48>
 3e4:	eb9ff06f          	j	29c <.L46>

000003e8 <.L40>:
 3e8:	00c7c403          	lbu	x8,12(x15)
 3ec:	0ff47e93          	andi	x29,x8,255
 3f0:	fe0e8ce3          	beqz	x29,3e8 <.L40>
 3f4:	00d7cb03          	lbu	x22,13(x15)
 3f8:	0ffb7993          	andi	x19,x22,255
 3fc:	fe0986e3          	beqz	x19,3e8 <.L40>
 400:	00e7c903          	lbu	x18,14(x15)
 404:	0ff97c13          	andi	x24,x18,255
 408:	fe0c00e3          	beqz	x24,3e8 <.L40>
 40c:	00f7c483          	lbu	x9,15(x15)
 410:	0ff4f893          	andi	x17,x9,255
 414:	fc088ae3          	beqz	x17,3e8 <.L40>
 418:	00078623          	sb	x0,12(x15)
 41c:	000786a3          	sb	x0,13(x15)
 420:	00078723          	sb	x0,14(x15)
 424:	000787a3          	sb	x0,15(x15)
 428:	00000837          	lui	x16,0x0
 42c:	0007a423          	sw	x0,8(x15)
 430:	00000593          	li	x11,0
 434:	00880f13          	addi	x30,x16,8 # 8 <tensorlib_ceil+0x8>
 438:	03fc0fb7          	lui	x31,0x3fc0
 43c:	20000e37          	lui	x28,0x20000
 440:	00100513          	li	x10,1
 444:	010002b7          	lui	x5,0x1000
 448:	040000b7          	lui	x1,0x4000

0000044c <.L44>:
 44c:	012d9613          	slli	x12,x27,0x12
 450:	00bf66b3          	or	x13,x30,x11
 454:	01f67733          	and	x14,x12,x31
 458:	00d76333          	or	x6,x14,x13
 45c:	01c363b3          	or	x7,x6,x28
 460:	00a3a023          	sw	x10,0(x7)
 464:	005585b3          	add	x11,x11,x5
 468:	000aad83          	lw	x27,0(x21)
 46c:	fe1590e3          	bne	x11,x1,44c <.L44>
 470:	f0ad82e3          	beq	x27,x10,374 <.L45>
 474:	e29ff06f          	j	29c <.L46>

00000478 <.L55>:
 478:	000c8893          	mv	x17,x25
 47c:	d81ff06f          	j	1fc <.L30>

00000480 <.L54>:
 480:	000d0f93          	mv	x31,x26
 484:	d25ff06f          	j	1a8 <.L28>

00000488 <.L86>:
 488:	000f8b13          	mv	x22,x31
 48c:	c9dff06f          	j	128 <.L17>

00000490 <.L87>:
 490:	00640c13          	addi	x24,x8,6
 494:	000dad83          	lw	x27,0(x27) # 21040000 <.L90+0x2103f98c>
 498:	00062b83          	lw	x23,0(x12)
 49c:	1d6c7c63          	bgeu	x24,x22,674 <.L90>
 4a0:	002b9613          	slli	x12,x23,0x2
 4a4:	002d9693          	slli	x13,x27,0x2
 4a8:	017603b3          	add	x7,x12,x23
 4ac:	01b687b3          	add	x15,x13,x27
 4b0:	00239893          	slli	x17,x7,0x2
 4b4:	41700833          	neg	x16,x23
 4b8:	41b00533          	neg	x10,x27
 4bc:	00279e93          	slli	x29,x15,0x2
 4c0:	01112c23          	sw	x17,24(x2)
 4c4:	00c12a23          	sw	x12,20(x2)
 4c8:	00d12823          	sw	x13,16(x2)
 4cc:	01d12e23          	sw	x29,28(x2)
 4d0:	00100893          	li	x17,1
 4d4:	00281813          	slli	x16,x16,0x2
 4d8:	00251513          	slli	x10,x10,0x2
 4dc:	0bc0006f          	j	598 <.L19>

000004e0 <.L92>:
 4e0:	014fa507          	flw	f10,20(x31) # 3fc0014 <.L90+0x3fbf9a0>
 4e4:	010fa987          	flw	f19,16(x31)
 4e8:	00cfa907          	flw	f18,12(x31)
 4ec:	008fa487          	flw	f9,8(x31)
 4f0:	004fa407          	flw	f8,4(x31)
 4f4:	000faa87          	flw	f21,0(x31)

000004f8 <.L23>:
 4f8:	00a12623          	sw	x10,12(x2)
 4fc:	01012423          	sw	x16,8(x2)
 500:	00000097          	auipc	x1,0x0
 504:	000080e7          	jalr	x1 # 500 <.L23+0x8>
 508:	20a50a53          	fmv.s	f20,f10
 50c:	21398553          	fmv.s	f10,f19
 510:	00000097          	auipc	x1,0x0
 514:	000080e7          	jalr	x1 # 510 <.L23+0x18>
 518:	20a509d3          	fmv.s	f19,f10
 51c:	21290553          	fmv.s	f10,f18
 520:	00000097          	auipc	x1,0x0
 524:	000080e7          	jalr	x1 # 520 <.L23+0x28>
 528:	20a50953          	fmv.s	f18,f10
 52c:	20948553          	fmv.s	f10,f9
 530:	00000097          	auipc	x1,0x0
 534:	000080e7          	jalr	x1 # 530 <.L23+0x38>
 538:	20a504d3          	fmv.s	f9,f10
 53c:	20840553          	fmv.s	f10,f8
 540:	00000097          	auipc	x1,0x0
 544:	000080e7          	jalr	x1 # 540 <.L23+0x48>
 548:	20a50453          	fmv.s	f8,f10
 54c:	215a8553          	fmv.s	f10,f21
 550:	00000097          	auipc	x1,0x0
 554:	000080e7          	jalr	x1 # 550 <.L23+0x58>
 558:	00241793          	slli	x15,x8,0x2
 55c:	00100893          	li	x17,1
 560:	00812803          	lw	x16,8(x2)
 564:	00c12503          	lw	x10,12(x2)
 568:	00fc8eb3          	add	x29,x25,x15
 56c:	071d9c63          	bne	x27,x17,5e4 <.L24>
 570:	014eaa27          	fsw	f20,20(x29)
 574:	013ea827          	fsw	f19,16(x29)
 578:	012ea627          	fsw	f18,12(x29)
 57c:	009ea427          	fsw	f9,8(x29)
 580:	008ea227          	fsw	f8,4(x29)
 584:	00aea027          	fsw	f10,0(x29)
 588:	006c0693          	addi	x13,x24,6 # 100006 <.L90+0xff992>
 58c:	000c0413          	mv	x8,x24
 590:	0966fe63          	bgeu	x13,x22,62c <.L91>

00000594 <.L53>:
 594:	00068c13          	mv	x24,x13

00000598 <.L19>:
 598:	00241f13          	slli	x30,x8,0x2
 59c:	01ed0fb3          	add	x31,x26,x30
 5a0:	f51b80e3          	beq	x23,x17,4e0 <.L92>
 5a4:	028b8e33          	mul	x28,x23,x8
 5a8:	01812083          	lw	x1,24(x2)
 5ac:	002e1293          	slli	x5,x28,0x2
 5b0:	005d05b3          	add	x11,x26,x5
 5b4:	00158733          	add	x14,x11,x1
 5b8:	01070633          	add	x12,x14,x16
 5bc:	010606b3          	add	x13,x12,x16
 5c0:	01068333          	add	x6,x13,x16
 5c4:	010303b3          	add	x7,x6,x16
 5c8:	00072507          	flw	f10,0(x14)
 5cc:	00062987          	flw	f19,0(x12)
 5d0:	0006a907          	flw	f18,0(x13)
 5d4:	00032487          	flw	f9,0(x6)
 5d8:	0003a407          	flw	f8,0(x7)
 5dc:	0005aa87          	flw	f21,0(x11)
 5e0:	f19ff06f          	j	4f8 <.L23>

000005e4 <.L24>:
 5e4:	028d8433          	mul	x8,x27,x8
 5e8:	01c12e03          	lw	x28,28(x2)
 5ec:	006c0693          	addi	x13,x24,6
 5f0:	00241f13          	slli	x30,x8,0x2
 5f4:	01ec8fb3          	add	x31,x25,x30
 5f8:	01cf82b3          	add	x5,x31,x28
 5fc:	0142a027          	fsw	f20,0(x5) # 1000000 <.L90+0xfff98c>
 600:	00a285b3          	add	x11,x5,x10
 604:	0135a027          	fsw	f19,0(x11)
 608:	00a580b3          	add	x1,x11,x10
 60c:	0120a027          	fsw	f18,0(x1)
 610:	00a08733          	add	x14,x1,x10
 614:	00972027          	fsw	f9,0(x14)
 618:	00a70633          	add	x12,x14,x10
 61c:	00862027          	fsw	f8,0(x12)
 620:	00afa027          	fsw	f10,0(x31)
 624:	000c0413          	mv	x8,x24
 628:	f766e6e3          	bltu	x13,x22,594 <.L53>

0000062c <.L91>:
 62c:	bd6c7ee3          	bgeu	x24,x22,208 <.L21>

00000630 <.L20>:
 630:	038b8bb3          	mul	x23,x23,x24
 634:	038d8db3          	mul	x27,x27,x24
 638:	002b9793          	slli	x15,x23,0x2
 63c:	00fd0433          	add	x8,x26,x15
 640:	002d9d13          	slli	x26,x27,0x2
 644:	01ac8bb3          	add	x23,x25,x26

00000648 <.L27>:
 648:	00042507          	flw	f10,0(x8)
 64c:	01412c83          	lw	x25,20(x2)
 650:	001c0c13          	addi	x24,x24,1
 654:	00000097          	auipc	x1,0x0
 658:	000080e7          	jalr	x1 # 654 <.L27+0xc>
 65c:	01012e83          	lw	x29,16(x2)
 660:	00aba027          	fsw	f10,0(x23) # 0 <tensorlib_ceil>
 664:	01940433          	add	x8,x8,x25
 668:	01db8bb3          	add	x23,x23,x29
 66c:	fd8b1ee3          	bne	x22,x24,648 <.L27>
 670:	b99ff06f          	j	208 <.L21>

00000674 <.L90>:
 674:	002b9313          	slli	x6,x23,0x2
 678:	002d9393          	slli	x7,x27,0x2
 67c:	00040c13          	mv	x24,x8
 680:	00612a23          	sw	x6,20(x2)
 684:	00712823          	sw	x7,16(x2)
 688:	fa9ff06f          	j	630 <.L20>

Disassembly of section .text._ZN8HBTensorIfLln1EEC2EP11hb_tensor_t:

00000000 <_ZN8HBTensorIfLln1EEC1EP11hb_tensor_t>:
   0:	00058713          	mv	x14,x11
   4:	0045a683          	lw	x13,4(x11)
   8:	00072803          	lw	x16,0(x14)
   c:	0105a583          	lw	x11,16(x11)
  10:	00050793          	mv	x15,x10
  14:	02850613          	addi	x12,x10,40
  18:	01450513          	addi	x10,x10,20
  1c:	0107a023          	sw	x16,0(x15)
  20:	00d7a223          	sw	x13,4(x15)
  24:	00a7a423          	sw	x10,8(x15)
  28:	00c7a623          	sw	x12,12(x15)
  2c:	00b7a823          	sw	x11,16(x15)
  30:	00060613          	mv	x12,x12
  34:	00500293          	li	x5,5
  38:	04d2e463          	bltu	x5,x13,80 <.L14>
  3c:	00872303          	lw	x6,8(x14)
  40:	00c72383          	lw	x7,12(x14)
  44:	02068c63          	beqz	x13,7c <.L1>
  48:	00269893          	slli	x17,x13,0x2
  4c:	00078713          	mv	x14,x15
  50:	01178e33          	add	x28,x15,x17
  54:	40f30eb3          	sub	x29,x6,x15
  58:	40f38f33          	sub	x30,x7,x15

0000005c <.L5>:
  5c:	00ee8fb3          	add	x31,x29,x14
  60:	000fa683          	lw	x13,0(x31)
  64:	00ef05b3          	add	x11,x30,x14
  68:	00470713          	addi	x14,x14,4
  6c:	00d72823          	sw	x13,16(x14)
  70:	0005a803          	lw	x16,0(x11)
  74:	03072223          	sw	x16,36(x14)
  78:	ffc712e3          	bne	x14,x28,5c <.L5>

0000007c <.L1>:
  7c:	00008067          	ret

00000080 <.L14>:
  80:	ff010113          	addi	x2,x2,-16
  84:	000007b7          	lui	x15,0x0
  88:	00112623          	sw	x1,12(x2)
  8c:	000000b7          	lui	x1,0x0
  90:	0c700613          	li	x12,199
  94:	00008593          	mv	x11,x1
  98:	00078513          	mv	x10,x15
  9c:	00000097          	auipc	x1,0x0
  a0:	000080e7          	jalr	x1 # 9c <.L14+0x1c>
  a4:	00000637          	lui	x12,0x0
  a8:	00060513          	mv	x10,x12
  ac:	00000097          	auipc	x1,0x0
  b0:	000080e7          	jalr	x1 # ac <.L14+0x2c>
  b4:	00000537          	lui	x10,0x0
  b8:	00052283          	lw	x5,0(x10) # 0 <_ZN8HBTensorIfLln1EEC1EP11hb_tensor_t>
  bc:	00000337          	lui	x6,0x0
  c0:	00032383          	lw	x7,0(x6) # 0 <_ZN8HBTensorIfLln1EEC1EP11hb_tensor_t>
  c4:	01029893          	slli	x17,x5,0x10
  c8:	4100feb7          	lui	x29,0x4100f
  cc:	00788e33          	add	x28,x17,x7
  d0:	adceac23          	sw	x28,-1320(x29) # 4100ead8 <.L90+0x4100e464>

000000d4 <.L3>:
  d4:	0000006f          	j	d4 <.L3>
