
kernel_sum.o:     file format elf32-littleriscv


Disassembly of section .group:

00000000 <_ZN8HBTensorIfLln1EEC5EP11hb_tensor_t>:
   0:	0001                	nop
   2:	0000                	unimp
   4:	00000007          	0x7
   8:	0008                	0x8
	...

Disassembly of section .text:

00000000 <tensorlib_sum>:
       0:	ee010113          	addi	x2,x2,-288
       4:	00050793          	mv	x15,x10
       8:	10912a23          	sw	x9,276(x2)
       c:	00010513          	mv	x10,x2
      10:	00058493          	mv	x9,x11
      14:	00078593          	mv	x11,x15
      18:	10112e23          	sw	x1,284(x2)
      1c:	10812c23          	sw	x8,280(x2)
      20:	11212823          	sw	x18,272(x2)
      24:	11312623          	sw	x19,268(x2)
      28:	11412423          	sw	x20,264(x2)
      2c:	11512223          	sw	x21,260(x2)
      30:	00060a13          	mv	x20,x12
      34:	11612023          	sw	x22,256(x2)
      38:	0f712e23          	sw	x23,252(x2)
      3c:	0f812c23          	sw	x24,248(x2)
      40:	0f912a23          	sw	x25,244(x2)
      44:	0fa12823          	sw	x26,240(x2)
      48:	03c10413          	addi	x8,x2,60
      4c:	00000097          	auipc	x1,0x0
      50:	000080e7          	jalr	x1 # 4c <tensorlib_sum+0x4c>
      54:	00048593          	mv	x11,x9
      58:	00040513          	mv	x10,x8
      5c:	00000097          	auipc	x1,0x0
      60:	000080e7          	jalr	x1 # 5c <tensorlib_sum+0x5c>
      64:	000004b7          	lui	x9,0x0
      68:	00000537          	lui	x10,0x0
      6c:	000005b7          	lui	x11,0x0
      70:	00000937          	lui	x18,0x0
      74:	00052283          	lw	x5,0(x10) # 0 <tensorlib_sum>
      78:	0004a883          	lw	x17,0(x9) # 0 <tensorlib_sum>
      7c:	0005a703          	lw	x14,0(x11) # 0 <tensorlib_sum>
      80:	00092603          	lw	x12,0(x18) # 0 <tensorlib_sum>
      84:	000006b7          	lui	x13,0x0
      88:	0006a803          	lw	x16,0(x13) # 0 <tensorlib_sum>
      8c:	01128333          	add	x6,x5,x17
      90:	00c703b3          	add	x7,x14,x12
      94:	01831993          	slli	x19,x6,0x18
      98:	01239a93          	slli	x21,x7,0x12
      9c:	3f000b37          	lui	x22,0x3f000
      a0:	00fc0c37          	lui	x24,0xfc0
      a4:	00040eb7          	lui	x29,0x40
      a8:	0169fbb3          	and	x23,x19,x22
      ac:	018afcb3          	and	x25,x21,x24
      b0:	00481d13          	slli	x26,x16,0x4
      b4:	ff0e8f13          	addi	x30,x29,-16 # 3fff0 <.L272+0x3eeac>
      b8:	019bee33          	or	x28,x23,x25
      bc:	01ed7fb3          	and	x31,x26,x30
      c0:	04012983          	lw	x19,64(x2)
      c4:	01fe67b3          	or	x15,x28,x31
      c8:	800002b7          	lui	x5,0x80000
      cc:	0057e8b3          	or	x17,x15,x5
      d0:	41001637          	lui	x12,0x41001
      d4:	000a2a03          	lw	x20,0(x20)
      d8:	00100713          	li	x14,1
      dc:	d1162623          	sw	x17,-756(x12) # 41000d0c <.L272+0x40fffbc8>
      e0:	04812303          	lw	x6,72(x2)
      e4:	0ce98463          	beq	x19,x14,1ac <.L261>
      e8:	06098c63          	beqz	x19,160 <.L262>
      ec:	00032803          	lw	x16,0(x6)
      f0:	2d477ee3          	bgeu	x14,x20,bcc <.L21>
      f4:	00430a93          	addi	x21,x6,4
      f8:	00100393          	li	x7,1

000000fc <.L23>:
      fc:	000aa083          	lw	x1,0(x21)
     100:	00138393          	addi	x7,x7,1
     104:	004a8a93          	addi	x21,x21,4
     108:	02180833          	mul	x16,x16,x1
     10c:	2d4380e3          	beq	x7,x20,bcc <.L21>
     110:	ff3396e3          	bne	x7,x19,fc <.L23>

00000114 <.L147>:
     114:	000007b7          	lui	x15,0x0
     118:	00000a37          	lui	x20,0x0
     11c:	06b00613          	li	x12,107
     120:	000a0593          	mv	x11,x20
     124:	00078513          	mv	x10,x15
     128:	00000097          	auipc	x1,0x0
     12c:	000080e7          	jalr	x1 # 128 <.L147+0x14>
     130:	00000437          	lui	x8,0x0
     134:	00098593          	mv	x11,x19
     138:	00040513          	mv	x10,x8
     13c:	00000097          	auipc	x1,0x0
     140:	000080e7          	jalr	x1 # 13c <.L147+0x28>
     144:	0004aa83          	lw	x21,0(x9)
     148:	00092703          	lw	x14,0(x18)
     14c:	4100fb37          	lui	x22,0x4100f
     150:	010a9993          	slli	x19,x21,0x10
     154:	00e988b3          	add	x17,x19,x14
     158:	ad1b2c23          	sw	x17,-1320(x22) # 4100ead8 <.L272+0x4100d994>

0000015c <.L24>:
     15c:	0000006f          	j	15c <.L24>

00000160 <.L262>:
     160:	000002b7          	lui	x5,0x0
     164:	000003b7          	lui	x7,0x0
     168:	00028593          	mv	x11,x5
     16c:	06b00613          	li	x12,107
     170:	00038513          	mv	x10,x7
     174:	00000097          	auipc	x1,0x0
     178:	000080e7          	jalr	x1 # 174 <.L262+0x14>
     17c:	00000f37          	lui	x30,0x0
     180:	00000593          	li	x11,0
     184:	000f0513          	mv	x10,x30
     188:	00000097          	auipc	x1,0x0
     18c:	000080e7          	jalr	x1 # 188 <.L262+0x28>
     190:	0004a483          	lw	x9,0(x9)
     194:	00092503          	lw	x10,0(x18)
     198:	4100f937          	lui	x18,0x4100f
     19c:	01049593          	slli	x11,x9,0x10
     1a0:	00a586b3          	add	x13,x11,x10
     1a4:	acd92c23          	sw	x13,-1320(x18) # 4100ead8 <.L272+0x4100d994>

000001a8 <.L20>:
     1a8:	0000006f          	j	1a8 <.L20>

000001ac <.L261>:
     1ac:	03c12c03          	lw	x24,60(x2)
     1b0:	00012c83          	lw	x25,0(x2)
     1b4:	0f9c0a63          	beq	x24,x25,2a8 <.L263>
     1b8:	00032803          	lw	x16,0(x6)
     1bc:	f549ece3          	bltu	x19,x20,114 <.L147>
     1c0:	07810093          	addi	x1,x2,120
     1c4:	00010c93          	mv	x25,x2
     1c8:	00008b93          	mv	x23,x1

000001cc <.L154>:
     1cc:	000ca603          	lw	x12,0(x25)
     1d0:	004cae83          	lw	x29,4(x25)
     1d4:	008cae03          	lw	x28,8(x25)
     1d8:	00cca303          	lw	x6,12(x25)
     1dc:	010cad03          	lw	x26,16(x25)
     1e0:	00cba023          	sw	x12,0(x23)
     1e4:	01dba223          	sw	x29,4(x23)
     1e8:	01cba423          	sw	x28,8(x23)
     1ec:	006ba623          	sw	x6,12(x23)
     1f0:	01aba823          	sw	x26,16(x23)
     1f4:	014c8c93          	addi	x25,x25,20
     1f8:	014b8b93          	addi	x23,x23,20
     1fc:	fc8c98e3          	bne	x25,x8,1cc <.L154>
     200:	0b410793          	addi	x15,x2,180

00000204 <.L155>:
     204:	000caf83          	lw	x31,0(x25)
     208:	004ca283          	lw	x5,4(x25)
     20c:	008ca383          	lw	x7,8(x25)
     210:	00ccaf03          	lw	x30,12(x25)
     214:	010cac03          	lw	x24,16(x25)
     218:	01f7a023          	sw	x31,0(x15) # 0 <tensorlib_sum>
     21c:	0057a223          	sw	x5,4(x15)
     220:	0077a423          	sw	x7,8(x15)
     224:	01e7a623          	sw	x30,12(x15)
     228:	0187a823          	sw	x24,16(x15)
     22c:	014c8c93          	addi	x25,x25,20
     230:	01478793          	addi	x15,x15,20
     234:	fc1c98e3          	bne	x25,x1,204 <.L155>
     238:	07812403          	lw	x8,120(x2)
     23c:	00100a93          	li	x21,1
     240:	13540e63          	beq	x8,x21,37c <.L156>

00000244 <.L157>:
     244:	00300713          	li	x14,3
     248:	13376ee3          	bltu	x14,x19,b84 <.L75>
     24c:	00100893          	li	x17,1
     250:	0d198e63          	beq	x19,x17,32c <.L76>
     254:	00200b13          	li	x22,2
     258:	136996e3          	bne	x19,x22,b84 <.L75>
     25c:	371a0063          	beq	x20,x17,5bc <.L264>
     260:	000006b7          	lui	x13,0x0
     264:	00000537          	lui	x10,0x0
     268:	00050593          	mv	x11,x10
     26c:	0b600613          	li	x12,182
     270:	00068513          	mv	x10,x13
     274:	00000097          	auipc	x1,0x0
     278:	000080e7          	jalr	x1 # 274 <.L157+0x30>
     27c:	000005b7          	lui	x11,0x0
     280:	00058513          	mv	x10,x11
     284:	00000097          	auipc	x1,0x0
     288:	000080e7          	jalr	x1 # 284 <.L157+0x40>
     28c:	0004a483          	lw	x9,0(x9)
     290:	00092903          	lw	x18,0(x18)
     294:	4100f9b7          	lui	x19,0x4100f
     298:	01049813          	slli	x16,x9,0x10
     29c:	01280a33          	add	x20,x16,x18
     2a0:	ad49ac23          	sw	x20,-1320(x19) # 4100ead8 <.L272+0x4100d994>

000002a4 <.L102>:
     2a4:	0000006f          	j	2a4 <.L102>

000002a8 <.L263>:
     2a8:	07810c93          	addi	x25,x2,120
     2ac:	00010a13          	mv	x20,x2
     2b0:	000c8713          	mv	x14,x25

000002b4 <.L143>:
     2b4:	000a2f03          	lw	x30,0(x20) # 0 <tensorlib_sum>
     2b8:	004a2b03          	lw	x22,4(x20)
     2bc:	008a2e03          	lw	x28,8(x20)
     2c0:	00ca2d03          	lw	x26,12(x20)
     2c4:	010a2603          	lw	x12,16(x20)
     2c8:	01e72023          	sw	x30,0(x14)
     2cc:	01672223          	sw	x22,4(x14)
     2d0:	01c72423          	sw	x28,8(x14)
     2d4:	01a72623          	sw	x26,12(x14)
     2d8:	00c72823          	sw	x12,16(x14)
     2dc:	014a0a13          	addi	x20,x20,20
     2e0:	01470713          	addi	x14,x14,20
     2e4:	fc8a18e3          	bne	x20,x8,2b4 <.L143>
     2e8:	0b410793          	addi	x15,x2,180

000002ec <.L144>:
     2ec:	000a2403          	lw	x8,0(x20)
     2f0:	004a2083          	lw	x1,4(x20)
     2f4:	008a2303          	lw	x6,8(x20)
     2f8:	00ca2e83          	lw	x29,12(x20)
     2fc:	010a2383          	lw	x7,16(x20)
     300:	0087a023          	sw	x8,0(x15)
     304:	0017a223          	sw	x1,4(x15)
     308:	0067a423          	sw	x6,8(x15)
     30c:	01d7a623          	sw	x29,12(x15)
     310:	0077a823          	sw	x7,16(x15)
     314:	014a0a13          	addi	x20,x20,20
     318:	01478793          	addi	x15,x15,20
     31c:	fd9a18e3          	bne	x20,x25,2ec <.L144>
     320:	07812403          	lw	x8,120(x2)
     324:	00100293          	li	x5,1
     328:	04540a63          	beq	x8,x5,37c <.L156>

0000032c <.L76>:
     32c:	0b412883          	lw	x17,180(x2)
     330:	308888e3          	beq	x17,x8,e40 <.L78>
     334:	00000cb7          	lui	x25,0x0
     338:	00000b37          	lui	x22,0x0
     33c:	08d00613          	li	x12,141
     340:	000c8593          	mv	x11,x25
     344:	000b0513          	mv	x10,x22
     348:	00000097          	auipc	x1,0x0
     34c:	000080e7          	jalr	x1 # 348 <.L76+0x1c>
     350:	00000d37          	lui	x26,0x0
     354:	000d0513          	mv	x10,x26
     358:	00000097          	auipc	x1,0x0
     35c:	000080e7          	jalr	x1 # 358 <.L76+0x2c>
     360:	0004af03          	lw	x30,0(x9)
     364:	00092603          	lw	x12,0(x18)
     368:	4100f737          	lui	x14,0x4100f
     36c:	010f1e13          	slli	x28,x30,0x10
     370:	00ce0eb3          	add	x29,x28,x12
     374:	add72c23          	sw	x29,-1320(x14) # 4100ead8 <.L272+0x4100d994>

00000378 <.L79>:
     378:	0000006f          	j	378 <.L79>

0000037c <.L156>:
     37c:	0b412083          	lw	x1,180(x2)
     380:	0bc12303          	lw	x6,188(x2)
     384:	00000a37          	lui	x20,0x0
     388:	000003b7          	lui	x7,0x0
     38c:	fff08893          	addi	x17,x1,-1
     390:	ffd00a93          	li	x21,-3
     394:	000a2f03          	lw	x30,0(x20) # 0 <tensorlib_sum>
     398:	08812283          	lw	x5,136(x2)
     39c:	0c412783          	lw	x15,196(x2)
     3a0:	0003aa03          	lw	x20,0(x7) # 0 <tensorlib_sum>
     3a4:	00032f83          	lw	x31,0(x6)
     3a8:	f0000fd3          	fmv.w.x	f31,x0
     3ac:	051ae263          	bltu	x21,x17,3f0 <.L30>
     3b0:	0040d993          	srli	x19,x1,0x4
     3b4:	00198b93          	addi	x23,x19,1
     3b8:	034b8433          	mul	x8,x23,x20
     3bc:	008b8833          	add	x16,x23,x8
     3c0:	0100f463          	bgeu	x1,x16,3c8 <.L27>
     3c4:	00008813          	mv	x16,x1

000003c8 <.L27>:
     3c8:	f0000fd3          	fmv.w.x	f31,x0
     3cc:	03047263          	bgeu	x8,x16,3f0 <.L30>
     3d0:	002f9c13          	slli	x24,x31,0x2
     3d4:	03840cb3          	mul	x25,x8,x24
     3d8:	01978b33          	add	x22,x15,x25

000003dc <.L29>:
     3dc:	000b2707          	flw	f14,0(x22) # 0 <tensorlib_sum>
     3e0:	00140413          	addi	x8,x8,1 # 1 <tensorlib_sum+0x1>
     3e4:	018b0b33          	add	x22,x22,x24
     3e8:	00efffd3          	fadd.s	f31,f31,f14
     3ec:	fe8818e3          	bne	x16,x8,3dc <.L29>

000003f0 <.L30>:
     3f0:	00092d03          	lw	x26,0(x18)
     3f4:	0004ae03          	lw	x28,0(x9)
     3f8:	00000737          	lui	x14,0x0
     3fc:	004d0613          	addi	x12,x26,4 # 4 <tensorlib_sum+0x4>
     400:	00070793          	mv	x15,x14
     404:	002a1e93          	slli	x29,x20,0x2
     408:	00c780b3          	add	x1,x15,x12
     40c:	018e1313          	slli	x6,x28,0x18
     410:	0060e8b3          	or	x17,x1,x6
     414:	01df0a33          	add	x20,x30,x29
     418:	20040ab7          	lui	x21,0x20040
     41c:	0158efb3          	or	x31,x17,x21
     420:	01fa2027          	fsw	f31,0(x20)
     424:	00100993          	li	x19,1
     428:	013f8023          	sb	x19,0(x31)
     42c:	00092883          	lw	x17,0(x18)
     430:	3f388463          	beq	x17,x19,818 <.L36>

00000434 <.L48>:
     434:	00100613          	li	x12,1
     438:	0100006f          	j	448 <.L52>

0000043c <.L265>:
     43c:	00070c13          	mv	x24,x14
     440:	140c2caf          	lr.w.aq	x25,(x24)
     444:	00cc8863          	beq	x25,x12,454 <.L51>

00000448 <.L52>:
     448:	00070413          	mv	x8,x14
     44c:	1004282f          	lr.w	x16,(x8)
     450:	fec816e3          	bne	x16,x12,43c <.L265>

00000454 <.L51>:
     454:	0003a383          	lw	x7,0(x7)
     458:	0007a023          	sw	x0,0(x15)
     45c:	02039263          	bnez	x7,480 <.L53>
     460:	f00007d3          	fmv.w.x	f15,x0
     464:	000f0b13          	mv	x22,x30
     468:	040f0f13          	addi	x30,x30,64 # 40 <tensorlib_sum+0x40>

0000046c <.L54>:
     46c:	000b2f87          	flw	f31,0(x22)
     470:	004b0b13          	addi	x22,x22,4
     474:	01f7f7d3          	fadd.s	f15,f15,f31
     478:	ff6f1ae3          	bne	x30,x22,46c <.L54>
     47c:	00f2a027          	fsw	f15,0(x5) # 0 <tensorlib_sum>

00000480 <.L53>:
     480:	0004a283          	lw	x5,0(x9)
     484:	00488d13          	addi	x26,x17,4
     488:	01a780b3          	add	x1,x15,x26
     48c:	01829a13          	slli	x20,x5,0x18
     490:	001a6333          	or	x6,x20,x1
     494:	20040eb7          	lui	x29,0x20040
     498:	01d36e33          	or	x28,x6,x29
     49c:	00100a93          	li	x21,1
     4a0:	015e0023          	sb	x21,0(x28)
     4a4:	00092f83          	lw	x31,0(x18)
     4a8:	2b5f8063          	beq	x31,x21,748 <.L56>

000004ac <.L68>:
     4ac:	00100093          	li	x1,1
     4b0:	0100006f          	j	4c0 <.L72>

000004b4 <.L266>:
     4b4:	00070293          	mv	x5,x14
     4b8:	1402aeaf          	lr.w.aq	x29,(x5)
     4bc:	001e8863          	beq	x29,x1,4cc <.L71>

000004c0 <.L72>:
     4c0:	00070a13          	mv	x20,x14
     4c4:	100a232f          	lr.w	x6,(x20)
     4c8:	fe1316e3          	bne	x6,x1,4b4 <.L266>

000004cc <.L71>:
     4cc:	0007a023          	sw	x0,0(x15)

000004d0 <.L73>:
     4d0:	00052e03          	lw	x28,0(x10) # 0 <tensorlib_sum>
     4d4:	0004aa83          	lw	x21,0(x9)
     4d8:	0005a583          	lw	x11,0(x11) # 0 <tensorlib_sum>
     4dc:	00092f83          	lw	x31,0(x18)
     4e0:	0006a503          	lw	x10,0(x13) # 0 <tensorlib_sum>
     4e4:	015e06b3          	add	x13,x28,x21
     4e8:	01f589b3          	add	x19,x11,x31
     4ec:	01869b93          	slli	x23,x13,0x18
     4f0:	01299413          	slli	x8,x19,0x12
     4f4:	3f000c37          	lui	x24,0x3f000
     4f8:	00fc03b7          	lui	x7,0xfc0
     4fc:	00040b37          	lui	x22,0x40
     500:	018bfcb3          	and	x25,x23,x24
     504:	00747633          	and	x12,x8,x7
     508:	00451893          	slli	x17,x10,0x4
     50c:	ff0b0813          	addi	x16,x22,-16 # 3fff0 <.L272+0x3eeac>
     510:	00ccef33          	or	x30,x25,x12
     514:	0108fd33          	and	x26,x17,x16
     518:	01af60b3          	or	x1,x30,x26
     51c:	c0000a37          	lui	x20,0xc0000
     520:	0140e333          	or	x6,x1,x20
     524:	410012b7          	lui	x5,0x41001
     528:	d062a623          	sw	x6,-756(x5) # 41000d0c <.L272+0x40fffbc8>
     52c:	00092e83          	lw	x29,0(x18)
     530:	0004ae03          	lw	x28,0(x9)
     534:	200406b7          	lui	x13,0x20040
     538:	004e8a93          	addi	x21,x29,4 # 20040004 <.L272+0x2003eec0>
     53c:	015785b3          	add	x11,x15,x21
     540:	018e1f93          	slli	x31,x28,0x18
     544:	01f5e533          	or	x10,x11,x31
     548:	00d569b3          	or	x19,x10,x13
     54c:	00100b93          	li	x23,1
     550:	01798023          	sb	x23,0(x19)
     554:	00092403          	lw	x8,0(x18)
     558:	13740063          	beq	x8,x23,678 <.L126>

0000055c <.L138>:
     55c:	00100493          	li	x9,1
     560:	0100006f          	j	570 <.L142>

00000564 <.L267>:
     564:	00070613          	mv	x12,x14
     568:	140620af          	lr.w.aq	x1,(x12)
     56c:	00908863          	beq	x1,x9,57c <.L141>

00000570 <.L142>:
     570:	00070893          	mv	x17,x14
     574:	1008ad2f          	lr.w	x26,(x17)
     578:	fe9d16e3          	bne	x26,x9,564 <.L267>

0000057c <.L141>:
     57c:	11c12083          	lw	x1,284(x2)
     580:	11812403          	lw	x8,280(x2)
     584:	0007a023          	sw	x0,0(x15)
     588:	11412483          	lw	x9,276(x2)
     58c:	11012903          	lw	x18,272(x2)
     590:	10c12983          	lw	x19,268(x2)
     594:	10812a03          	lw	x20,264(x2)
     598:	10412a83          	lw	x21,260(x2)
     59c:	10012b03          	lw	x22,256(x2)
     5a0:	0fc12b83          	lw	x23,252(x2)
     5a4:	0f812c03          	lw	x24,248(x2)
     5a8:	0f412c83          	lw	x25,244(x2)
     5ac:	0f012d03          	lw	x26,240(x2)
     5b0:	00000513          	li	x10,0
     5b4:	12010113          	addi	x2,x2,288
     5b8:	00008067          	ret

000005bc <.L264>:
     5bc:	fff40093          	addi	x1,x8,-1
     5c0:	ffd00613          	li	x12,-3
     5c4:	0a166463          	bltu	x12,x1,66c <.L260>
     5c8:	00000eb7          	lui	x29,0x0
     5cc:	000ea303          	lw	x6,0(x29) # 0 <tensorlib_sum>
     5d0:	00445e13          	srli	x28,x8,0x4
     5d4:	001e0d13          	addi	x26,x28,1
     5d8:	026d08b3          	mul	x17,x26,x6
     5dc:	011d0bb3          	add	x23,x26,x17
     5e0:	01747463          	bgeu	x8,x23,5e8 <.L93>
     5e4:	00040b93          	mv	x23,x8

000005e8 <.L93>:
     5e8:	0978f263          	bgeu	x17,x23,66c <.L260>
     5ec:	ff780f93          	addi	x31,x16,-9
     5f0:	01000c13          	li	x24,16
     5f4:	ff880c93          	addi	x25,x16,-8
     5f8:	ff8fff13          	andi	x30,x31,-8

000005fc <.L101>:
     5fc:	f00006d3          	fmv.w.x	f13,x0
     600:	490c6e63          	bltu	x24,x16,a9c <.L95>
     604:	00000e93          	li	x29,0

00000608 <.L99>:
     608:	050ef063          	bgeu	x29,x16,648 <.L96>
     60c:	0bc12983          	lw	x19,188(x2)
     610:	0c412303          	lw	x6,196(x2)
     614:	0009a403          	lw	x8,0(x19)
     618:	0049ab03          	lw	x22,4(x19)
     61c:	03d40e33          	mul	x28,x8,x29
     620:	00241d13          	slli	x26,x8,0x2
     624:	03688733          	mul	x14,x17,x22
     628:	01c70633          	add	x12,x14,x28
     62c:	00261093          	slli	x1,x12,0x2
     630:	001303b3          	add	x7,x6,x1

00000634 <.L100>:
     634:	0003ae87          	flw	f29,0(x7) # fc0000 <.L272+0xfbeebc>
     638:	001e8e93          	addi	x29,x29,1
     63c:	01a383b3          	add	x7,x7,x26
     640:	01d6f6d3          	fadd.s	f13,f13,f29
     644:	ff0e98e3          	bne	x29,x16,634 <.L100>

00000648 <.L96>:
     648:	08012a03          	lw	x20,128(x2)
     64c:	08812f83          	lw	x31,136(x2)
     650:	004a2783          	lw	x15,4(x20) # c0000004 <.L272+0xbfffeec0>
     654:	02f882b3          	mul	x5,x17,x15
     658:	00188893          	addi	x17,x17,1
     65c:	00229a93          	slli	x21,x5,0x2
     660:	015f89b3          	add	x19,x31,x21
     664:	00d9a027          	fsw	f13,0(x19)
     668:	f91b9ae3          	bne	x23,x17,5fc <.L101>

0000066c <.L260>:
     66c:	00000737          	lui	x14,0x0
     670:	00070793          	mv	x15,x14
     674:	e5dff06f          	j	4d0 <.L73>

00000678 <.L126>:
     678:	0047cc03          	lbu	x24,4(x15)
     67c:	0ffc7c93          	andi	x25,x24,255
     680:	fe0c8ce3          	beqz	x25,678 <.L126>
     684:	0057c383          	lbu	x7,5(x15)
     688:	0ff3f613          	andi	x12,x7,255
     68c:	fe0606e3          	beqz	x12,678 <.L126>
     690:	0067c883          	lbu	x17,6(x15)
     694:	0ff8ff13          	andi	x30,x17,255
     698:	fe0f00e3          	beqz	x30,678 <.L126>
     69c:	0077cb03          	lbu	x22,7(x15)
     6a0:	0ffb7813          	andi	x16,x22,255
     6a4:	fc080ae3          	beqz	x16,678 <.L126>
     6a8:	0004ad03          	lw	x26,0(x9)
     6ac:	210402b7          	lui	x5,0x21040
     6b0:	00100093          	li	x1,1
     6b4:	00cd0a13          	addi	x20,x26,12
     6b8:	01478333          	add	x6,x15,x20
     6bc:	00536eb3          	or	x29,x6,x5
     6c0:	001e8023          	sb	x1,0(x29)
     6c4:	00092e03          	lw	x28,0(x18)
     6c8:	e81e1ae3          	bne	x28,x1,55c <.L138>
     6cc:	0004ae83          	lw	x29,0(x9)
     6d0:	21ce8e63          	beq	x29,x28,8ec <.L132>

000006d4 <.L137>:
     6d4:	00100e13          	li	x28,1
     6d8:	0100006f          	j	6e8 <.L131>

000006dc <.L268>:
     6dc:	00878f93          	addi	x31,x15,8
     6e0:	140fa52f          	lr.w.aq	x10,(x31)
     6e4:	01c50863          	beq	x10,x28,6f4 <.L139>

000006e8 <.L131>:
     6e8:	00878a93          	addi	x21,x15,8
     6ec:	100aa5af          	lr.w	x11,(x21)
     6f0:	ffc596e3          	bne	x11,x28,6dc <.L268>

000006f4 <.L139>:
     6f4:	0007a423          	sw	x0,8(x15)
     6f8:	00078223          	sb	x0,4(x15)
     6fc:	000782a3          	sb	x0,5(x15)
     700:	00078323          	sb	x0,6(x15)
     704:	000783a3          	sb	x0,7(x15)
     708:	0007a023          	sw	x0,0(x15)
     70c:	00000393          	li	x7,0
     710:	00070793          	mv	x15,x14
     714:	200009b7          	lui	x19,0x20000
     718:	00100b93          	li	x23,1
     71c:	00040437          	lui	x8,0x40
     720:	00100c37          	lui	x24,0x100

00000724 <.L140>:
     724:	0004a683          	lw	x13,0(x9)
     728:	0077ecb3          	or	x25,x15,x7
     72c:	008383b3          	add	x7,x7,x8
     730:	01869f13          	slli	x30,x13,0x18
     734:	019f6b33          	or	x22,x30,x25
     738:	013b6833          	or	x16,x22,x19
     73c:	01782023          	sw	x23,0(x16)
     740:	ff8392e3          	bne	x7,x24,724 <.L140>
     744:	e19ff06f          	j	55c <.L138>

00000748 <.L56>:
     748:	0047c983          	lbu	x19,4(x15)
     74c:	0ff9fb93          	andi	x23,x19,255
     750:	fe0b8ce3          	beqz	x23,748 <.L56>
     754:	0057c883          	lbu	x17,5(x15)
     758:	0ff8f613          	andi	x12,x17,255
     75c:	fe0606e3          	beqz	x12,748 <.L56>
     760:	0067c403          	lbu	x8,6(x15)
     764:	0ff47813          	andi	x16,x8,255
     768:	fe0800e3          	beqz	x16,748 <.L56>
     76c:	0077cc03          	lbu	x24,7(x15)
     770:	0ffc7c93          	andi	x25,x24,255
     774:	fc0c8ae3          	beqz	x25,748 <.L56>
     778:	0004a383          	lw	x7,0(x9)
     77c:	21040d37          	lui	x26,0x21040
     780:	00100f13          	li	x30,1
     784:	00c38b13          	addi	x22,x7,12
     788:	016782b3          	add	x5,x15,x22
     78c:	01a2e0b3          	or	x1,x5,x26
     790:	01e08023          	sb	x30,0(x1)
     794:	00092a03          	lw	x20,0(x18)
     798:	d1ea1ae3          	bne	x20,x30,4ac <.L68>
     79c:	0004a283          	lw	x5,0(x9)
     7a0:	27428663          	beq	x5,x20,a0c <.L62>

000007a4 <.L67>:
     7a4:	00100e13          	li	x28,1
     7a8:	0100006f          	j	7b8 <.L61>

000007ac <.L269>:
     7ac:	00878993          	addi	x19,x15,8
     7b0:	1409abaf          	lr.w.aq	x23,(x19)
     7b4:	01cb8863          	beq	x23,x28,7c4 <.L69>

000007b8 <.L61>:
     7b8:	00878a93          	addi	x21,x15,8
     7bc:	100aafaf          	lr.w	x31,(x21)
     7c0:	ffcf96e3          	bne	x31,x28,7ac <.L269>

000007c4 <.L69>:
     7c4:	0007a423          	sw	x0,8(x15)
     7c8:	00078223          	sb	x0,4(x15)
     7cc:	000782a3          	sb	x0,5(x15)
     7d0:	00078323          	sb	x0,6(x15)
     7d4:	000783a3          	sb	x0,7(x15)
     7d8:	0007a023          	sw	x0,0(x15)
     7dc:	00000f13          	li	x30,0
     7e0:	00070793          	mv	x15,x14
     7e4:	20000437          	lui	x8,0x20000
     7e8:	00100c13          	li	x24,1
     7ec:	00040cb7          	lui	x25,0x40
     7f0:	001003b7          	lui	x7,0x100

000007f4 <.L70>:
     7f4:	0004a603          	lw	x12,0(x9)
     7f8:	01e7e8b3          	or	x17,x15,x30
     7fc:	019f0f33          	add	x30,x30,x25
     800:	01861b13          	slli	x22,x12,0x18
     804:	011b6833          	or	x16,x22,x17
     808:	00886d33          	or	x26,x16,x8
     80c:	018d2023          	sw	x24,0(x26) # 21040000 <.L272+0x2103eebc>
     810:	fe7f12e3          	bne	x30,x7,7f4 <.L70>
     814:	c99ff06f          	j	4ac <.L68>

00000818 <.L36>:
     818:	0047cb83          	lbu	x23,4(x15)
     81c:	0ffbf413          	andi	x8,x23,255
     820:	fe040ce3          	beqz	x8,818 <.L36>
     824:	0057c803          	lbu	x16,5(x15)
     828:	0ff87c13          	andi	x24,x16,255
     82c:	fe0c06e3          	beqz	x24,818 <.L36>
     830:	0067cc83          	lbu	x25,6(x15)
     834:	0ffcfb13          	andi	x22,x25,255
     838:	fe0b00e3          	beqz	x22,818 <.L36>
     83c:	0077cd03          	lbu	x26,7(x15)
     840:	0ffd7e13          	andi	x28,x26,255
     844:	fc0e0ae3          	beqz	x28,818 <.L36>
     848:	0004a603          	lw	x12,0(x9)
     84c:	21040a37          	lui	x20,0x21040
     850:	00100e93          	li	x29,1
     854:	00c60093          	addi	x1,x12,12
     858:	00178333          	add	x6,x15,x1
     85c:	014368b3          	or	x17,x6,x20
     860:	01d88023          	sb	x29,0(x17)
     864:	00092883          	lw	x17,0(x18)
     868:	bdd896e3          	bne	x17,x29,434 <.L48>
     86c:	0004a603          	lw	x12,0(x9)
     870:	11160663          	beq	x12,x17,97c <.L42>

00000874 <.L47>:
     874:	00100413          	li	x8,1
     878:	0100006f          	j	888 <.L41>

0000087c <.L270>:
     87c:	00878c93          	addi	x25,x15,8
     880:	140cab2f          	lr.w.aq	x22,(x25)
     884:	008b0863          	beq	x22,x8,894 <.L49>

00000888 <.L41>:
     888:	00878813          	addi	x16,x15,8
     88c:	10082c2f          	lr.w	x24,(x16)
     890:	fe8c16e3          	bne	x24,x8,87c <.L270>

00000894 <.L49>:
     894:	0007a423          	sw	x0,8(x15)
     898:	00078223          	sb	x0,4(x15)
     89c:	000782a3          	sb	x0,5(x15)
     8a0:	00078323          	sb	x0,6(x15)
     8a4:	000783a3          	sb	x0,7(x15)
     8a8:	0007a023          	sw	x0,0(x15)
     8ac:	00000a93          	li	x21,0
     8b0:	00070793          	mv	x15,x14
     8b4:	20000d37          	lui	x26,0x20000
     8b8:	00100093          	li	x1,1
     8bc:	00040a37          	lui	x20,0x40
     8c0:	00100337          	lui	x6,0x100

000008c4 <.L50>:
     8c4:	0004ae83          	lw	x29,0(x9)
     8c8:	0157ee33          	or	x28,x15,x21
     8cc:	014a8ab3          	add	x21,x21,x20
     8d0:	018e9f93          	slli	x31,x29,0x18
     8d4:	01cfe9b3          	or	x19,x31,x28
     8d8:	01a9ebb3          	or	x23,x19,x26
     8dc:	001ba023          	sw	x1,0(x23)
     8e0:	fe6a92e3          	bne	x21,x6,8c4 <.L50>
     8e4:	00092883          	lw	x17,0(x18)
     8e8:	b4dff06f          	j	434 <.L48>

000008ec <.L132>:
     8ec:	00c7ca83          	lbu	x21,12(x15)
     8f0:	0ffaf593          	andi	x11,x21,255
     8f4:	fe058ce3          	beqz	x11,8ec <.L132>
     8f8:	00d7cf83          	lbu	x31,13(x15)
     8fc:	0ffff513          	andi	x10,x31,255
     900:	fe0506e3          	beqz	x10,8ec <.L132>
     904:	00e7c683          	lbu	x13,14(x15)
     908:	0ff6f993          	andi	x19,x13,255
     90c:	fe0980e3          	beqz	x19,8ec <.L132>
     910:	00f7cb83          	lbu	x23,15(x15)
     914:	0ffbf413          	andi	x8,x23,255
     918:	fc040ae3          	beqz	x8,8ec <.L132>
     91c:	00078623          	sb	x0,12(x15)
     920:	000786a3          	sb	x0,13(x15)
     924:	00078723          	sb	x0,14(x15)
     928:	000787a3          	sb	x0,15(x15)
     92c:	00000c37          	lui	x24,0x0
     930:	0007a423          	sw	x0,8(x15)
     934:	00000293          	li	x5,0
     938:	008c0c93          	addi	x25,x24,8 # 8 <tensorlib_sum+0x8>
     93c:	03fc03b7          	lui	x7,0x3fc0
     940:	20000f37          	lui	x30,0x20000
     944:	00100b13          	li	x22,1
     948:	01000837          	lui	x16,0x1000
     94c:	040008b7          	lui	x17,0x4000

00000950 <.L136>:
     950:	012e9d13          	slli	x26,x29,0x12
     954:	005ce633          	or	x12,x25,x5
     958:	007d70b3          	and	x1,x26,x7
     95c:	00c0ea33          	or	x20,x1,x12
     960:	01ea6333          	or	x6,x20,x30
     964:	01632023          	sw	x22,0(x6) # 100000 <.L272+0xfeebc>
     968:	010282b3          	add	x5,x5,x16
     96c:	7d129863          	bne	x5,x17,113c <.L271>
     970:	00092903          	lw	x18,0(x18)
     974:	d76900e3          	beq	x18,x22,6d4 <.L137>
     978:	be5ff06f          	j	55c <.L138>

0000097c <.L42>:
     97c:	00c7ca83          	lbu	x21,12(x15)
     980:	0ffaff93          	andi	x31,x21,255
     984:	fe0f8ce3          	beqz	x31,97c <.L42>
     988:	00d7c983          	lbu	x19,13(x15)
     98c:	0ff9fb93          	andi	x23,x19,255
     990:	fe0b86e3          	beqz	x23,97c <.L42>
     994:	00e7c403          	lbu	x8,14(x15)
     998:	0ff47813          	andi	x16,x8,255
     99c:	fe0800e3          	beqz	x16,97c <.L42>
     9a0:	00f7cc03          	lbu	x24,15(x15)
     9a4:	0ffc7c93          	andi	x25,x24,255
     9a8:	fc0c8ae3          	beqz	x25,97c <.L42>
     9ac:	00078623          	sb	x0,12(x15)
     9b0:	000786a3          	sb	x0,13(x15)
     9b4:	00078723          	sb	x0,14(x15)
     9b8:	000787a3          	sb	x0,15(x15)
     9bc:	00000b37          	lui	x22,0x0
     9c0:	0007a423          	sw	x0,8(x15)
     9c4:	00000893          	li	x17,0
     9c8:	008b0d13          	addi	x26,x22,8 # 8 <tensorlib_sum+0x8>
     9cc:	03fc00b7          	lui	x1,0x3fc0
     9d0:	20000a37          	lui	x20,0x20000
     9d4:	00100313          	li	x6,1
     9d8:	01000eb7          	lui	x29,0x1000
     9dc:	04000e37          	lui	x28,0x4000

000009e0 <.L46>:
     9e0:	01261613          	slli	x12,x12,0x12
     9e4:	011d6ab3          	or	x21,x26,x17
     9e8:	00167fb3          	and	x31,x12,x1
     9ec:	015fe9b3          	or	x19,x31,x21
     9f0:	0149ebb3          	or	x23,x19,x20
     9f4:	006ba023          	sw	x6,0(x23)
     9f8:	01d888b3          	add	x17,x17,x29
     9fc:	75c89463          	bne	x17,x28,1144 <.L272>
     a00:	00092883          	lw	x17,0(x18)
     a04:	e66888e3          	beq	x17,x6,874 <.L47>
     a08:	a2dff06f          	j	434 <.L48>

00000a0c <.L62>:
     a0c:	00c7c303          	lbu	x6,12(x15)
     a10:	0ff37e93          	andi	x29,x6,255
     a14:	fe0e8ce3          	beqz	x29,a0c <.L62>
     a18:	00d7ce03          	lbu	x28,13(x15)
     a1c:	0ffe7a93          	andi	x21,x28,255
     a20:	fe0a86e3          	beqz	x21,a0c <.L62>
     a24:	00e7cf83          	lbu	x31,14(x15)
     a28:	0ffff993          	andi	x19,x31,255
     a2c:	fe0980e3          	beqz	x19,a0c <.L62>
     a30:	00f7cb83          	lbu	x23,15(x15)
     a34:	0ffbf893          	andi	x17,x23,255
     a38:	fc088ae3          	beqz	x17,a0c <.L62>
     a3c:	00078623          	sb	x0,12(x15)
     a40:	000786a3          	sb	x0,13(x15)
     a44:	00078723          	sb	x0,14(x15)
     a48:	000787a3          	sb	x0,15(x15)
     a4c:	00000637          	lui	x12,0x0
     a50:	0007a423          	sw	x0,8(x15)
     a54:	00000313          	li	x6,0
     a58:	00860413          	addi	x8,x12,8 # 8 <tensorlib_sum+0x8>
     a5c:	03fc0c37          	lui	x24,0x3fc0
     a60:	20000cb7          	lui	x25,0x20000
     a64:	00100393          	li	x7,1
     a68:	01000f37          	lui	x30,0x1000
     a6c:	04000b37          	lui	x22,0x4000

00000a70 <.L66>:
     a70:	01229293          	slli	x5,x5,0x12
     a74:	00646833          	or	x16,x8,x6
     a78:	0182fd33          	and	x26,x5,x24
     a7c:	010d60b3          	or	x1,x26,x16
     a80:	0190ea33          	or	x20,x1,x25
     a84:	007a2023          	sw	x7,0(x20) # 20000000 <.L272+0x1fffeebc>
     a88:	01e30333          	add	x6,x6,x30
     a8c:	6b631463          	bne	x6,x22,1134 <.L273>
     a90:	00092e83          	lw	x29,0(x18)
     a94:	d07e88e3          	beq	x29,x7,7a4 <.L67>
     a98:	a15ff06f          	j	4ac <.L68>

00000a9c <.L95>:
     a9c:	00000f93          	li	x31,0

00000aa0 <.L98>:
     aa0:	0bc12283          	lw	x5,188(x2)
     aa4:	0c412a83          	lw	x21,196(x2)
     aa8:	0002a083          	lw	x1,0(x5) # 21040000 <.L272+0x2103eebc>
     aac:	0042a383          	lw	x7,4(x5)
     ab0:	03f08a33          	mul	x20,x1,x31
     ab4:	02788eb3          	mul	x29,x17,x7
     ab8:	014089b3          	add	x19,x1,x20
     abc:	01308433          	add	x8,x1,x19
     ac0:	00808333          	add	x6,x1,x8
     ac4:	00608733          	add	x14,x1,x6
     ac8:	00e087b3          	add	x15,x1,x14
     acc:	00f08b33          	add	x22,x1,x15
     ad0:	01d08633          	add	x12,x1,x29
     ad4:	006e83b3          	add	x7,x29,x6
     ad8:	016e82b3          	add	x5,x29,x22
     adc:	01da0e33          	add	x28,x20,x29
     ae0:	013e8d33          	add	x26,x29,x19
     ae4:	008e80b3          	add	x1,x29,x8
     ae8:	00ee8333          	add	x6,x29,x14
     aec:	00fe87b3          	add	x15,x29,x15
     af0:	01660eb3          	add	x29,x12,x22
     af4:	002e1a13          	slli	x20,x28,0x2
     af8:	002d1993          	slli	x19,x26,0x2
     afc:	00209413          	slli	x8,x1,0x2
     b00:	00231713          	slli	x14,x6,0x2
     b04:	002e9613          	slli	x12,x29,0x2
     b08:	00239b13          	slli	x22,x7,0x2
     b0c:	00279e13          	slli	x28,x15,0x2
     b10:	00229d13          	slli	x26,x5,0x2
     b14:	014a80b3          	add	x1,x21,x20
     b18:	013a8333          	add	x6,x21,x19
     b1c:	008a8eb3          	add	x29,x21,x8
     b20:	016a83b3          	add	x7,x21,x22
     b24:	00ea8a33          	add	x20,x21,x14
     b28:	01ca87b3          	add	x15,x21,x28
     b2c:	01aa82b3          	add	x5,x21,x26
     b30:	00ca8ab3          	add	x21,x21,x12
     b34:	0000a787          	flw	f15,0(x1) # 3fc0000 <.L272+0x3fbeebc>
     b38:	00032187          	flw	f3,0(x6)
     b3c:	000ea107          	flw	f2,0(x29) # 1000000 <.L272+0xffeebc>
     b40:	0003a087          	flw	f1,0(x7) # 3fc0000 <.L272+0x3fbeebc>
     b44:	000a2007          	flw	f0,0(x20)
     b48:	0007a507          	flw	f10,0(x15)
     b4c:	0002a587          	flw	f11,0(x5)
     b50:	000aa607          	flw	f12,0(x21) # 20040000 <.L272+0x2003eebc>
     b54:	0021f253          	fadd.s	f4,f3,f2
     b58:	008f8f93          	addi	x31,x31,8
     b5c:	00f272d3          	fadd.s	f5,f4,f15
     b60:	0012f353          	fadd.s	f6,f5,f1
     b64:	000373d3          	fadd.s	f7,f6,f0
     b68:	00a3f853          	fadd.s	f16,f7,f10
     b6c:	00b878d3          	fadd.s	f17,f16,f11
     b70:	00c8fe53          	fadd.s	f28,f17,f12
     b74:	01c6f6d3          	fadd.s	f13,f13,f28
     b78:	f39fe4e3          	bltu	x31,x25,aa0 <.L98>
     b7c:	008f0e93          	addi	x29,x30,8 # 1000008 <.L272+0xffeec4>
     b80:	a89ff06f          	j	608 <.L99>

00000b84 <.L75>:
     b84:	000006b7          	lui	x13,0x0
     b88:	00000537          	lui	x10,0x0
     b8c:	00050593          	mv	x11,x10
     b90:	0ef00613          	li	x12,239
     b94:	00068513          	mv	x10,x13
     b98:	00000097          	auipc	x1,0x0
     b9c:	000080e7          	jalr	x1 # b98 <.L75+0x14>
     ba0:	000005b7          	lui	x11,0x0
     ba4:	00058513          	mv	x10,x11
     ba8:	00000097          	auipc	x1,0x0
     bac:	000080e7          	jalr	x1 # ba8 <.L75+0x24>
     bb0:	0004a483          	lw	x9,0(x9)
     bb4:	00092903          	lw	x18,0(x18)
     bb8:	4100fc37          	lui	x24,0x4100f
     bbc:	01049813          	slli	x16,x9,0x10
     bc0:	01280bb3          	add	x23,x16,x18
     bc4:	ad7c2c23          	sw	x23,-1320(x24) # 4100ead8 <.L272+0x4100d994>

00000bc8 <.L124>:
     bc8:	0000006f          	j	bc8 <.L124>

00000bcc <.L21>:
     bcc:	07810b13          	addi	x22,x2,120
     bd0:	00010793          	mv	x15,x2
     bd4:	000b0e93          	mv	x29,x22

00000bd8 <.L150>:
     bd8:	0007ab83          	lw	x23,0(x15)
     bdc:	0047ac03          	lw	x24,4(x15)
     be0:	0087ac83          	lw	x25,8(x15)
     be4:	00c7ad03          	lw	x26,12(x15)
     be8:	0107ae03          	lw	x28,16(x15)
     bec:	017ea023          	sw	x23,0(x29)
     bf0:	018ea223          	sw	x24,4(x29)
     bf4:	019ea423          	sw	x25,8(x29)
     bf8:	01aea623          	sw	x26,12(x29)
     bfc:	01cea823          	sw	x28,16(x29)
     c00:	01478793          	addi	x15,x15,20
     c04:	014e8e93          	addi	x29,x29,20
     c08:	fc8798e3          	bne	x15,x8,bd8 <.L150>
     c0c:	0b410713          	addi	x14,x2,180

00000c10 <.L151>:
     c10:	0007a403          	lw	x8,0(x15)
     c14:	0047af03          	lw	x30,4(x15)
     c18:	0087af83          	lw	x31,8(x15)
     c1c:	00c7a283          	lw	x5,12(x15)
     c20:	0107a883          	lw	x17,16(x15)
     c24:	00872023          	sw	x8,0(x14) # 0 <tensorlib_sum>
     c28:	01e72223          	sw	x30,4(x14)
     c2c:	01f72423          	sw	x31,8(x14)
     c30:	00572623          	sw	x5,12(x14)
     c34:	01172823          	sw	x17,16(x14)
     c38:	01478793          	addi	x15,x15,20
     c3c:	01470713          	addi	x14,x14,20
     c40:	fd6798e3          	bne	x15,x22,c10 <.L151>
     c44:	07812403          	lw	x8,120(x2)
     c48:	00100613          	li	x12,1
     c4c:	14c40463          	beq	x8,x12,d94 <.L274>
     c50:	00300313          	li	x6,3
     c54:	de699863          	bne	x19,x6,244 <.L157>
     c58:	04ca0a63          	beq	x20,x12,cac <.L275>
     c5c:	00200993          	li	x19,2
     c60:	413a0a63          	beq	x20,x19,1074 <.L276>
     c64:	000005b7          	lui	x11,0x0
     c68:	00000537          	lui	x10,0x0
     c6c:	0eb00613          	li	x12,235
     c70:	00058593          	mv	x11,x11
     c74:	00050513          	mv	x10,x10
     c78:	00000097          	auipc	x1,0x0
     c7c:	000080e7          	jalr	x1 # c78 <.L151+0x68>
     c80:	000006b7          	lui	x13,0x0
     c84:	00068513          	mv	x10,x13
     c88:	00000097          	auipc	x1,0x0
     c8c:	000080e7          	jalr	x1 # c88 <.L151+0x78>
     c90:	0004a483          	lw	x9,0(x9)
     c94:	00092903          	lw	x18,0(x18)
     c98:	4100f3b7          	lui	x7,0x4100f
     c9c:	01049813          	slli	x16,x9,0x10
     ca0:	01280a33          	add	x20,x16,x18
     ca4:	ad43ac23          	sw	x20,-1320(x7) # 4100ead8 <.L272+0x4100d994>

00000ca8 <.L123>:
     ca8:	0000006f          	j	ca8 <.L123>

00000cac <.L275>:
     cac:	fff40d13          	addi	x26,x8,-1 # 1fffffff <.L272+0x1fffeebb>
     cb0:	ffd00e93          	li	x29,-3
     cb4:	9baeece3          	bltu	x29,x26,66c <.L260>
     cb8:	00000fb7          	lui	x31,0x0
     cbc:	000fa983          	lw	x19,0(x31) # 0 <tensorlib_sum>
     cc0:	00445713          	srli	x14,x8,0x4
     cc4:	00170a13          	addi	x20,x14,1
     cc8:	033a0333          	mul	x6,x20,x19
     ccc:	006a00b3          	add	x1,x20,x6
     cd0:	00147463          	bgeu	x8,x1,cd8 <.L105>
     cd4:	00040093          	mv	x1,x8

00000cd8 <.L105>:
     cd8:	98137ae3          	bgeu	x6,x1,66c <.L260>
     cdc:	ff780413          	addi	x8,x16,-9 # fffff7 <.L272+0xffeeb3>
     ce0:	00100f13          	li	x30,1
     ce4:	01000e93          	li	x29,16
     ce8:	ff880e13          	addi	x28,x16,-8
     cec:	ff847293          	andi	x5,x8,-8

00000cf0 <.L115>:
     cf0:	0b812a83          	lw	x21,184(x2)
     cf4:	335f7a63          	bgeu	x30,x21,1028 <.L277>
     cf8:	0c012383          	lw	x7,192(x2)
     cfc:	f0000f53          	fmv.w.x	f30,x0
     d00:	0043ab03          	lw	x22,4(x7)
     d04:	03637633          	remu	x12,x6,x22
     d08:	036358b3          	divu	x17,x6,x22
     d0c:	230ee463          	bltu	x29,x16,f34 <.L109>
     d10:	00000793          	li	x15,0

00000d14 <.L113>:
     d14:	0507f663          	bgeu	x15,x16,d60 <.L110>
     d18:	0bc12403          	lw	x8,188(x2)
     d1c:	0c412383          	lw	x7,196(x2)
     d20:	00442703          	lw	x14,4(x8)
     d24:	00842983          	lw	x19,8(x8)
     d28:	00042c03          	lw	x24,0(x8)
     d2c:	002c1a93          	slli	x21,x24,0x2
     d30:	02e60cb3          	mul	x25,x12,x14
     d34:	03388fb3          	mul	x31,x17,x19
     d38:	02fc0b33          	mul	x22,x24,x15
     d3c:	01fc8d33          	add	x26,x25,x31
     d40:	016d0a33          	add	x20,x26,x22
     d44:	002a1b93          	slli	x23,x20,0x2
     d48:	01738433          	add	x8,x7,x23

00000d4c <.L114>:
     d4c:	00042e87          	flw	f29,0(x8)
     d50:	00178793          	addi	x15,x15,1
     d54:	01540433          	add	x8,x8,x21
     d58:	01df7f53          	fadd.s	f30,f30,f29
     d5c:	fef818e3          	bne	x16,x15,d4c <.L114>

00000d60 <.L110>:
     d60:	08012703          	lw	x14,128(x2)
     d64:	08812f83          	lw	x31,136(x2)
     d68:	00130313          	addi	x6,x6,1
     d6c:	00472983          	lw	x19,4(x14)
     d70:	00872c03          	lw	x24,8(x14)
     d74:	03360633          	mul	x12,x12,x19
     d78:	038888b3          	mul	x17,x17,x24
     d7c:	01160cb3          	add	x25,x12,x17
     d80:	002c9a93          	slli	x21,x25,0x2
     d84:	015f8b33          	add	x22,x31,x21
     d88:	01eb2027          	fsw	f30,0(x22) # 4000000 <.L272+0x3ffeebc>
     d8c:	f66092e3          	bne	x1,x6,cf0 <.L115>
     d90:	8ddff06f          	j	66c <.L260>

00000d94 <.L274>:
     d94:	0b412083          	lw	x1,180(x2)
     d98:	00000a37          	lui	x20,0x0
     d9c:	000003b7          	lui	x7,0x0
     da0:	fff08e13          	addi	x28,x1,-1
     da4:	ffd00d13          	li	x26,-3
     da8:	000a2f03          	lw	x30,0(x20) # 0 <tensorlib_sum>
     dac:	08812283          	lw	x5,136(x2)
     db0:	0bc12c03          	lw	x24,188(x2)
     db4:	0c412c83          	lw	x25,196(x2)
     db8:	0003aa03          	lw	x20,0(x7) # 0 <tensorlib_sum>
     dbc:	f0000fd3          	fmv.w.x	f31,x0
     dc0:	e3cd6863          	bltu	x26,x28,3f0 <.L30>
     dc4:	0040db93          	srli	x23,x1,0x4
     dc8:	001b8793          	addi	x15,x23,1
     dcc:	03478fb3          	mul	x31,x15,x20
     dd0:	01f78433          	add	x8,x15,x31
     dd4:	0080f463          	bgeu	x1,x8,ddc <.L31>
     dd8:	00008413          	mv	x8,x1

00000ddc <.L31>:
     ddc:	f0000fd3          	fmv.w.x	f31,x0
     de0:	e08ff863          	bgeu	x31,x8,3f0 <.L30>
     de4:	0c012a83          	lw	x21,192(x2)
     de8:	00299713          	slli	x14,x19,0x2
     dec:	015709b3          	add	x19,x14,x21

00000df0 <.L34>:
     df0:	000c0813          	mv	x16,x24
     df4:	000a8e93          	mv	x29,x21
     df8:	000f8613          	mv	x12,x31
     dfc:	00000313          	li	x6,0

00000e00 <.L33>:
     e00:	000ea883          	lw	x17,0(x29)
     e04:	00082b03          	lw	x22,0(x16)
     e08:	004e8e93          	addi	x29,x29,4
     e0c:	031670b3          	remu	x1,x12,x17
     e10:	00480813          	addi	x16,x16,4
     e14:	03608e33          	mul	x28,x1,x22
     e18:	03165633          	divu	x12,x12,x17
     e1c:	01c30333          	add	x6,x6,x28
     e20:	ffd990e3          	bne	x19,x29,e00 <.L33>
     e24:	00231d13          	slli	x26,x6,0x2
     e28:	01ac8bb3          	add	x23,x25,x26
     e2c:	000ba707          	flw	f14,0(x23)
     e30:	001f8f93          	addi	x31,x31,1
     e34:	00efffd3          	fadd.s	f31,f31,f14
     e38:	fbf41ce3          	bne	x8,x31,df0 <.L34>
     e3c:	db4ff06f          	j	3f0 <.L30>

00000e40 <.L78>:
     e40:	fff40a93          	addi	x21,x8,-1
     e44:	ffd00f93          	li	x31,-3
     e48:	835fe2e3          	bltu	x31,x21,66c <.L260>
     e4c:	000009b7          	lui	x19,0x0
     e50:	0009a803          	lw	x16,0(x19) # 0 <tensorlib_sum>
     e54:	00445b93          	srli	x23,x8,0x4
     e58:	001b8c13          	addi	x24,x23,1
     e5c:	030c0bb3          	mul	x23,x24,x16
     e60:	017c0cb3          	add	x25,x24,x23
     e64:	01947463          	bgeu	x8,x25,e6c <.L81>
     e68:	00040c93          	mv	x25,x8

00000e6c <.L81>:
     e6c:	819bf0e3          	bgeu	x23,x25,66c <.L260>
     e70:	068bfa63          	bgeu	x23,x8,ee4 <.L83>
     e74:	0bc12f03          	lw	x30,188(x2)
     e78:	001b8b13          	addi	x22,x23,1
     e7c:	0c412d03          	lw	x26,196(x2)
     e80:	000f2603          	lw	x12,0(x30)
     e84:	07c12e03          	lw	x28,124(x2)
     e88:	08812703          	lw	x14,136(x2)
     e8c:	00261093          	slli	x1,x12,0x2
     e90:	021b8eb3          	mul	x29,x23,x1
     e94:	08012383          	lw	x7,128(x2)
     e98:	00100313          	li	x6,1
     e9c:	021b0a33          	mul	x20,x22,x1
     ea0:	01dd07b3          	add	x15,x26,x29
     ea4:	0007af07          	flw	f30,0(x15)
     ea8:	014d02b3          	add	x5,x26,x20
     eac:	0100006f          	j	ebc <.L87>

00000eb0 <.L85>:
     eb0:	0002af07          	flw	f30,0(x5)
     eb4:	001b0b13          	addi	x22,x22,1
     eb8:	001282b3          	add	x5,x5,x1

00000ebc <.L87>:
     ebc:	002b9f93          	slli	x31,x23,0x2
     ec0:	006e1863          	bne	x28,x6,ed0 <.L259>
     ec4:	0003a883          	lw	x17,0(x7)
     ec8:	031b8ab3          	mul	x21,x23,x17
     ecc:	002a9f93          	slli	x31,x21,0x2

00000ed0 <.L259>:
     ed0:	01f709b3          	add	x19,x14,x31
     ed4:	01e9a027          	fsw	f30,0(x19)
     ed8:	000b0b93          	mv	x23,x22
     edc:	f96c8863          	beq	x25,x22,66c <.L260>
     ee0:	fc8b18e3          	bne	x22,x8,eb0 <.L85>

00000ee4 <.L83>:
     ee4:	000006b7          	lui	x13,0x0
     ee8:	00000537          	lui	x10,0x0
     eec:	00050593          	mv	x11,x10
     ef0:	07b00613          	li	x12,123
     ef4:	00068513          	mv	x10,x13
     ef8:	00000097          	auipc	x1,0x0
     efc:	000080e7          	jalr	x1 # ef8 <.L83+0x14>
     f00:	00040593          	mv	x11,x8
     f04:	00000437          	lui	x8,0x0
     f08:	000b8613          	mv	x12,x23
     f0c:	00040513          	mv	x10,x8
     f10:	00000097          	auipc	x1,0x0
     f14:	000080e7          	jalr	x1 # f10 <.L83+0x2c>
     f18:	0004a583          	lw	x11,0(x9)
     f1c:	00092483          	lw	x9,0(x18)
     f20:	4100fc37          	lui	x24,0x4100f
     f24:	01059913          	slli	x18,x11,0x10
     f28:	00990833          	add	x16,x18,x9
     f2c:	ad0c2c23          	sw	x16,-1320(x24) # 4100ead8 <.L272+0x4100d994>

00000f30 <.L86>:
     f30:	0000006f          	j	f30 <.L86>

00000f34 <.L109>:
     f34:	00000393          	li	x7,0

00000f38 <.L112>:
     f38:	0bc12c03          	lw	x24,188(x2)
     f3c:	0c412b83          	lw	x23,196(x2)
     f40:	000c2f83          	lw	x31,0(x24)
     f44:	004c2c83          	lw	x25,4(x24)
     f48:	008c2783          	lw	x15,8(x24)
     f4c:	03f38c33          	mul	x24,x7,x31
     f50:	03960d33          	mul	x26,x12,x25
     f54:	018f8b33          	add	x22,x31,x24
     f58:	016f8ab3          	add	x21,x31,x22
     f5c:	015f8a33          	add	x20,x31,x21
     f60:	014f89b3          	add	x19,x31,x20
     f64:	013f8433          	add	x8,x31,x19
     f68:	008f8cb3          	add	x25,x31,x8
     f6c:	02f88733          	mul	x14,x17,x15
     f70:	00ed07b3          	add	x15,x26,x14
     f74:	01f78fb3          	add	x31,x15,x31
     f78:	01878c33          	add	x24,x15,x24
     f7c:	01678d33          	add	x26,x15,x22
     f80:	01578ab3          	add	x21,x15,x21
     f84:	01478a33          	add	x20,x15,x20
     f88:	013789b3          	add	x19,x15,x19
     f8c:	00878433          	add	x8,x15,x8
     f90:	019787b3          	add	x15,x15,x25
     f94:	019f8cb3          	add	x25,x31,x25
     f98:	002d1b13          	slli	x22,x26,0x2
     f9c:	002c9713          	slli	x14,x25,0x2
     fa0:	002c1f93          	slli	x31,x24,0x2
     fa4:	002a9d13          	slli	x26,x21,0x2
     fa8:	002a1a13          	slli	x20,x20,0x2
     fac:	00299993          	slli	x19,x19,0x2
     fb0:	00241413          	slli	x8,x8,0x2
     fb4:	00279793          	slli	x15,x15,0x2
     fb8:	01fb8c33          	add	x24,x23,x31
     fbc:	016b8cb3          	add	x25,x23,x22
     fc0:	01ab8ab3          	add	x21,x23,x26
     fc4:	014b8fb3          	add	x31,x23,x20
     fc8:	013b8b33          	add	x22,x23,x19
     fcc:	008b8d33          	add	x26,x23,x8
     fd0:	00fb8a33          	add	x20,x23,x15
     fd4:	00eb8bb3          	add	x23,x23,x14
     fd8:	000c2087          	flw	f1,0(x24)
     fdc:	000ca187          	flw	f3,0(x25) # 20000000 <.L272+0x1fffeebc>
     fe0:	000aa107          	flw	f2,0(x21)
     fe4:	000fa007          	flw	f0,0(x31)
     fe8:	000b2507          	flw	f10,0(x22)
     fec:	000d2587          	flw	f11,0(x26) # 20000000 <.L272+0x1fffeebc>
     ff0:	000a2607          	flw	f12,0(x20)
     ff4:	000ba687          	flw	f13,0(x23)
     ff8:	0021f253          	fadd.s	f4,f3,f2
     ffc:	00838393          	addi	x7,x7,8
    1000:	001272d3          	fadd.s	f5,f4,f1
    1004:	0002f353          	fadd.s	f6,f5,f0
    1008:	00a373d3          	fadd.s	f7,f6,f10
    100c:	00b3f853          	fadd.s	f16,f7,f11
    1010:	00c878d3          	fadd.s	f17,f16,f12
    1014:	00d8fe53          	fadd.s	f28,f17,f13
    1018:	01cf7f53          	fadd.s	f30,f30,f28
    101c:	f1c3eee3          	bltu	x7,x28,f38 <.L112>
    1020:	00828793          	addi	x15,x5,8
    1024:	cf1ff06f          	j	d14 <.L113>

00001028 <.L277>:
    1028:	000005b7          	lui	x11,0x0
    102c:	00000537          	lui	x10,0x0
    1030:	06b00613          	li	x12,107
    1034:	00058593          	mv	x11,x11
    1038:	00050513          	mv	x10,x10
    103c:	00000097          	auipc	x1,0x0
    1040:	000080e7          	jalr	x1 # 103c <.L277+0x14>
    1044:	000006b7          	lui	x13,0x0
    1048:	000a8593          	mv	x11,x21
    104c:	00068513          	mv	x10,x13
    1050:	00000097          	auipc	x1,0x0
    1054:	000080e7          	jalr	x1 # 1050 <.L277+0x28>
    1058:	0004a483          	lw	x9,0(x9)
    105c:	00092903          	lw	x18,0(x18)
    1060:	4100feb7          	lui	x29,0x4100f
    1064:	01049813          	slli	x16,x9,0x10
    1068:	01280f33          	add	x30,x16,x18
    106c:	adeeac23          	sw	x30,-1320(x29) # 4100ead8 <.L272+0x4100d994>

00001070 <.L108>:
    1070:	0000006f          	j	1070 <.L108>

00001074 <.L276>:
    1074:	fff40093          	addi	x1,x8,-1
    1078:	ffd00a93          	li	x21,-3
    107c:	de1ae863          	bltu	x21,x1,66c <.L260>
    1080:	00000b37          	lui	x22,0x0
    1084:	000b2b83          	lw	x23,0(x22) # 0 <tensorlib_sum>
    1088:	00445c13          	srli	x24,x8,0x4
    108c:	001c0c93          	addi	x25,x24,1
    1090:	037c88b3          	mul	x17,x25,x23
    1094:	011c8d33          	add	x26,x25,x17
    1098:	01a47463          	bgeu	x8,x26,10a0 <.L118>
    109c:	00040d13          	mv	x26,x8

000010a0 <.L118>:
    10a0:	dda8f663          	bgeu	x17,x26,66c <.L260>
    10a4:	08012e03          	lw	x28,128(x2)
    10a8:	08812783          	lw	x15,136(x2)
    10ac:	0c012e83          	lw	x29,192(x2)
    10b0:	008e2f03          	lw	x30,8(x28) # 4000008 <.L272+0x3ffeec4>
    10b4:	0bc12f83          	lw	x31,188(x2)
    10b8:	0c412403          	lw	x8,196(x2)
    10bc:	002f1993          	slli	x19,x30,0x2
    10c0:	033882b3          	mul	x5,x17,x19
    10c4:	00578f33          	add	x30,x15,x5

000010c8 <.L122>:
    10c8:	06080263          	beqz	x16,112c <.L161>
    10cc:	008fa703          	lw	x14,8(x31)
    10d0:	000eaa03          	lw	x20,0(x29)
    10d4:	000fa383          	lw	x7,0(x31)
    10d8:	02e88333          	mul	x6,x17,x14
    10dc:	004fa083          	lw	x1,4(x31)
    10e0:	f00007d3          	fmv.w.x	f15,x0
    10e4:	00000b13          	li	x22,0

000010e8 <.L121>:
    10e8:	034b7ab3          	remu	x21,x22,x20
    10ec:	034b5633          	divu	x12,x22,x20
    10f0:	001b0b13          	addi	x22,x22,1
    10f4:	027a8bb3          	mul	x23,x21,x7
    10f8:	02160c33          	mul	x24,x12,x1
    10fc:	01730cb3          	add	x25,x6,x23
    1100:	018c8e33          	add	x28,x25,x24
    1104:	002e1293          	slli	x5,x28,0x2
    1108:	005407b3          	add	x15,x8,x5
    110c:	0007a707          	flw	f14,0(x15)
    1110:	00e7f7d3          	fadd.s	f15,f15,f14
    1114:	fd681ae3          	bne	x16,x22,10e8 <.L121>

00001118 <.L120>:
    1118:	00ff2027          	fsw	f15,0(x30)
    111c:	00188893          	addi	x17,x17,1 # 4000001 <.L272+0x3ffeebd>
    1120:	013f0f33          	add	x30,x30,x19
    1124:	fb1d12e3          	bne	x26,x17,10c8 <.L122>
    1128:	d44ff06f          	j	66c <.L260>

0000112c <.L161>:
    112c:	f00007d3          	fmv.w.x	f15,x0
    1130:	fe9ff06f          	j	1118 <.L120>

00001134 <.L273>:
    1134:	00092283          	lw	x5,0(x18)
    1138:	939ff06f          	j	a70 <.L66>

0000113c <.L271>:
    113c:	00092e83          	lw	x29,0(x18)
    1140:	811ff06f          	j	950 <.L136>

00001144 <.L272>:
    1144:	00092603          	lw	x12,0(x18)
    1148:	899ff06f          	j	9e0 <.L46>

Disassembly of section .rodata._ZN8HBTensorIfLln1EEC2EP11hb_tensor_t.str1.4:

00000000 <.LC0>:
   0:	726f772f          	0x726f772f
   4:	6c672f6b          	0x6c672f6b
   8:	6c61626f          	jal	x4,166ce <.L272+0x1558a>
   c:	33726b2f          	0x33726b2f
  10:	3739                	jal	ffffff1e <.L272+0xffffedda>
  12:	2d62682f          	0x2d62682f
  16:	7970                	flw	f12,116(x10)
  18:	6f74                	flw	f13,92(x14)
  1a:	6372                	flw	f6,28(x2)
  1c:	2f68                	fld	f10,216(x14)
  1e:	6168                	flw	f10,68(x10)
  20:	6d6d                	lui	x26,0x1b
  22:	7265                	lui	x4,0xffff9
  24:	6c62                	flw	f24,24(x2)
  26:	6461                	lui	x8,0x18
  28:	2f65                	jal	7e0 <.L69+0x1c>
  2a:	6f74                	flw	f13,92(x14)
  2c:	6372                	flw	f6,28(x2)
  2e:	2f68                	fld	f10,216(x14)
  30:	6e72656b          	0x6e72656b
  34:	6c65                	lui	x24,0x19
  36:	5f62682f          	0x5f62682f
  3a:	6574                	flw	f13,76(x10)
  3c:	736e                	flw	f6,248(x2)
  3e:	682e726f          	jal	x4,e76c0 <.L272+0xe657c>
  42:	7070                	flw	f12,100(x8)
  44:	0000                	unimp
	...

00000048 <.LC1>:
  48:	7361                	lui	x6,0xffff8
  4a:	74726573          	csrrsi	x10,0x747,4
  4e:	6620                	flw	f8,72(x12)
  50:	6961                	lui	x18,0x18
  52:	656c                	flw	f11,76(x10)
  54:	2064                	fld	f9,192(x8)
  56:	7461                	lui	x8,0xffff8
  58:	2520                	fld	f8,72(x10)
  5a:	64253a73          	csrrc	x20,0x642,x10
  5e:	0020                	addi	x8,x2,8

00000060 <.LC2>:
  60:	7265                	lui	x4,0xffff9
  62:	6f72                	flw	f30,28(x2)
  64:	3a72                	fld	f20,312(x2)
  66:	7420                	flw	f8,104(x8)
  68:	6e65                	lui	x28,0x19
  6a:	20726f73          	csrrsi	x30,0x207,4
  6e:	6964                	flw	f9,84(x10)
  70:	736d                	lui	x6,0xffffb
  72:	6920                	flw	f8,80(x10)
  74:	6f742073          	csrs	0x6f7,x8
  78:	616c206f          	j	c268e <.L272+0xc154a>
  7c:	6772                	flw	f14,28(x2)
  7e:	0065                	c.nop	25

Disassembly of section .text._ZN8HBTensorIfLln1EEC2EP11hb_tensor_t:

00000000 <_ZN8HBTensorIfLln1EEC1EP11hb_tensor_t>:
   0:	00058713          	mv	x14,x11
   4:	0045a683          	lw	x13,4(x11) # 4 <_ZN8HBTensorIfLln1EEC1EP11hb_tensor_t+0x4>
   8:	00072803          	lw	x16,0(x14)
   c:	0105a583          	lw	x11,16(x11)
  10:	00050793          	mv	x15,x10
  14:	02850613          	addi	x12,x10,40 # 28 <_ZN8HBTensorIfLln1EEC1EP11hb_tensor_t+0x28>
  18:	01450513          	addi	x10,x10,20
  1c:	0107a023          	sw	x16,0(x15)
  20:	00d7a223          	sw	x13,4(x15)
  24:	00a7a423          	sw	x10,8(x15)
  28:	00c7a623          	sw	x12,12(x15)
  2c:	00b7a823          	sw	x11,16(x15)
  30:	00060613          	mv	x12,x12
  34:	00500293          	li	x5,5
  38:	04d2e463          	bltu	x5,x13,80 <.L14>
  3c:	00872303          	lw	x6,8(x14)
  40:	00c72383          	lw	x7,12(x14)
  44:	02068c63          	beqz	x13,7c <.L1>
  48:	00269893          	slli	x17,x13,0x2
  4c:	00078713          	mv	x14,x15
  50:	01178e33          	add	x28,x15,x17
  54:	40f30eb3          	sub	x29,x6,x15
  58:	40f38f33          	sub	x30,x7,x15

0000005c <.L5>:
  5c:	00ee8fb3          	add	x31,x29,x14
  60:	000fa683          	lw	x13,0(x31)
  64:	00ef05b3          	add	x11,x30,x14
  68:	00470713          	addi	x14,x14,4
  6c:	00d72823          	sw	x13,16(x14)
  70:	0005a803          	lw	x16,0(x11)
  74:	03072223          	sw	x16,36(x14)
  78:	ffc712e3          	bne	x14,x28,5c <.L5>

0000007c <.L1>:
  7c:	00008067          	ret

00000080 <.L14>:
  80:	ff010113          	addi	x2,x2,-16
  84:	000007b7          	lui	x15,0x0
  88:	00112623          	sw	x1,12(x2)
  8c:	000000b7          	lui	x1,0x0
  90:	0c700613          	li	x12,199
  94:	00008593          	mv	x11,x1
  98:	00078513          	mv	x10,x15
  9c:	00000097          	auipc	x1,0x0
  a0:	000080e7          	jalr	x1 # 9c <.L14+0x1c>
  a4:	00000637          	lui	x12,0x0
  a8:	00060513          	mv	x10,x12
  ac:	00000097          	auipc	x1,0x0
  b0:	000080e7          	jalr	x1 # ac <.L14+0x2c>
  b4:	00000537          	lui	x10,0x0
  b8:	00052283          	lw	x5,0(x10) # 0 <_ZN8HBTensorIfLln1EEC1EP11hb_tensor_t>
  bc:	00000337          	lui	x6,0x0
  c0:	00032383          	lw	x7,0(x6) # 0 <_ZN8HBTensorIfLln1EEC1EP11hb_tensor_t>
  c4:	01029893          	slli	x17,x5,0x10
  c8:	4100feb7          	lui	x29,0x4100f
  cc:	00788e33          	add	x28,x17,x7
  d0:	adceac23          	sw	x28,-1320(x29) # 4100ead8 <.L272+0x4100d994>

000000d4 <.L3>:
  d4:	0000006f          	j	d4 <.L3>

Disassembly of section .rodata.str1.4:

00000000 <.LC3>:
   0:	7265                	lui	x4,0xffff9
   2:	6f72                	flw	f30,28(x2)
   4:	3a72                	fld	f20,312(x2)
   6:	6420                	flw	f8,72(x8)
   8:	6d69                	lui	x26,0x1a
   a:	7365                	lui	x6,0xffff9
   c:	696e                	flw	f18,216(x2)
   e:	6d206e6f          	jal	x28,66e0 <.L272+0x559c>
  12:	7375                	lui	x6,0xffffd
  14:	2074                	fld	f13,192(x8)
  16:	6562                	flw	f10,24(x2)
  18:	6c20                	flw	f8,88(x8)
  1a:	7365                	lui	x6,0xffff9
  1c:	68742073          	csrs	0x687,x8
  20:	6e61                	lui	x28,0x18
  22:	2520                	fld	f8,72(x10)
  24:	0a64                	addi	x9,x2,284
	...

00000028 <.LC4>:
  28:	726f772f          	0x726f772f
  2c:	6c672f6b          	0x6c672f6b
  30:	6c61626f          	jal	x4,166f6 <.L272+0x155b2>
  34:	33726b2f          	0x33726b2f
  38:	3739                	jal	ffffff46 <.L272+0xffffee02>
  3a:	2d62682f          	0x2d62682f
  3e:	7970                	flw	f12,116(x10)
  40:	6f74                	flw	f13,92(x14)
  42:	6372                	flw	f6,28(x2)
  44:	2f68                	fld	f10,216(x14)
  46:	6168                	flw	f10,68(x10)
  48:	6d6d                	lui	x26,0x1b
  4a:	7265                	lui	x4,0xffff9
  4c:	6c62                	flw	f24,24(x2)
  4e:	6461                	lui	x8,0x18
  50:	2f65                	jal	808 <.L70+0x14>
  52:	6f74                	flw	f13,92(x14)
  54:	6372                	flw	f6,28(x2)
  56:	2f68                	fld	f10,216(x14)
  58:	6e72656b          	0x6e72656b
  5c:	6c65                	lui	x24,0x19
  5e:	5f62682f          	0x5f62682f
  62:	6572                	flw	f10,28(x2)
  64:	7564                	flw	f9,108(x10)
  66:	6f697463          	bgeu	x18,x22,74e <.L56+0x6>
  6a:	2e6e                	fld	f28,216(x2)
  6c:	7068                	flw	f10,100(x8)
  6e:	0070                	addi	x12,x2,12

00000070 <.LC5>:
  70:	6854                	flw	f13,20(x8)
  72:	7369                	lui	x6,0xffffa
  74:	6320                	flw	f8,64(x14)
  76:	7361                	lui	x6,0xffff8
  78:	2065                	jal	120 <.L147+0xc>
  7a:	756f6873          	csrrsi	x16,0x756,30
  7e:	646c                	flw	f11,76(x8)
  80:	6220                	flw	f8,64(x12)
  82:	2065                	jal	12a <.L147+0x16>
  84:	6168                	flw	f10,68(x10)
  86:	646e                	flw	f8,216(x2)
  88:	656c                	flw	f11,76(x10)
  8a:	2064                	fld	f9,192(x8)
  8c:	7962                	flw	f18,56(x2)
  8e:	7220                	flw	f8,96(x12)
  90:	6465                	lui	x8,0x19
  92:	6375                	lui	x6,0x1d
  94:	6974                	flw	f13,84(x10)
  96:	735f6e6f          	jal	x28,f6fca <.L272+0xf5e86>
  9a:	6d69                	lui	x26,0x1a
  9c:	6c70                	flw	f12,92(x8)
  9e:	3f65                	jal	56 <.LC4+0x2e>
  a0:	0000                	unimp
	...

000000a4 <.LC6>:
  a4:	7265                	lui	x4,0xffff9
  a6:	6f72                	flw	f30,28(x2)
  a8:	3a72                	fld	f20,312(x2)
  aa:	4e20                	lw	x8,88(x12)
  ac:	253d                	jal	6da <.L137+0x6>
  ae:	2064                	fld	f9,192(x8)
  b0:	7562                	flw	f10,56(x2)
  b2:	2074                	fld	f13,192(x8)
  b4:	6361                	lui	x6,0x18
  b6:	73736563          	bltu	x6,x23,7e0 <.L69+0x1c>
  ba:	6465                	lui	x8,0x19
  bc:	2520                	fld	f8,72(x10)
  be:	0a64                	addi	x9,x2,284
  c0:	0000                	unimp
	...

000000c4 <.LC7>:
  c4:	6e49                	lui	x28,0x12
  c6:	6176                	flw	f2,92(x2)
  c8:	696c                	flw	f11,84(x10)
  ca:	2064                	fld	f9,192(x8)
  cc:	756e                	flw	f10,248(x2)
  ce:	626d                	lui	x4,0x1b
  d0:	7265                	lui	x4,0xffff9
  d2:	6f20                	flw	f8,88(x14)
  d4:	2066                	fld	f0,88(x2)
  d6:	6572                	flw	f10,28(x2)
  d8:	7564                	flw	f9,108(x10)
  da:	6f697463          	bgeu	x18,x22,7c2 <.L61+0xa>
  de:	206e                	fld	f0,216(x2)
  e0:	6964                	flw	f9,84(x10)
  e2:	736d                	lui	x6,0xffffb
  e4:	0000                	unimp
	...

000000e8 <.LC8>:
  e8:	6e49                	lui	x28,0x12
  ea:	6176                	flw	f2,92(x2)
  ec:	696c                	flw	f11,84(x10)
  ee:	2064                	fld	f9,192(x8)
  f0:	756e                	flw	f10,248(x2)
  f2:	626d                	lui	x4,0x1b
  f4:	7265                	lui	x4,0xffff9
  f6:	6f20                	flw	f8,88(x14)
  f8:	2066                	fld	f0,88(x2)
  fa:	6964                	flw	f9,84(x10)
  fc:	736d                	lui	x6,0xffffb
  fe:	6620                	flw	f8,72(x12)
 100:	7220726f          	jal	x4,7822 <.L272+0x66de>
 104:	6465                	lui	x8,0x19
 106:	6375                	lui	x6,0x1d
 108:	6974                	flw	f13,84(x10)
 10a:	6b206e6f          	jal	x28,67bc <.L272+0x5678>
 10e:	7265                	lui	x4,0xffff9
 110:	656e                	flw	f10,216(x2)
 112:	006c                	addi	x11,x2,12

Disassembly of section .comment:

00000000 <.comment>:
   0:	4700                	lw	x8,8(x14)
   2:	203a4343          	fmadd.s	f6,f20,f3,f4,rmm
   6:	4728                	lw	x10,72(x14)
   8:	554e                	lw	x10,240(x2)
   a:	2029                	jal	14 <_ZN8HBTensorIfLln1EEC5EP11hb_tensor_t+0x14>
   c:	2e39                	jal	32a <.L144+0x3e>
   e:	2e32                	fld	f28,264(x2)
  10:	0030                	addi	x12,x2,8

Disassembly of section .eh_frame:

00000000 <.eh_frame>:
   0:	0010                	0x10
   2:	0000                	unimp
   4:	0000                	unimp
   6:	0000                	unimp
   8:	7a01                	lui	x20,0xfffe0
   a:	0052                	c.slli	x0,0x14
   c:	7c01                	lui	x24,0xfffe0
   e:	0101                	addi	x2,x2,0
  10:	00020d1b          	0x20d1b
  14:	0014                	0x14
  16:	0000                	unimp
  18:	0018                	0x18
	...
  22:	0000                	unimp
  24:	0200                	addi	x8,x2,256
  26:	0e84                	addi	x9,x2,848
  28:	4810                	lw	x12,16(x8)
  2a:	0181                	addi	x3,x3,0
  2c:	004c                	addi	x11,x2,4
  2e:	0000                	unimp
  30:	0030                	addi	x12,x2,8
	...
  3a:	0000                	unimp
  3c:	4400                	lw	x8,8(x8)
  3e:	a00e                	fsd	f3,0(x2)
  40:	4c02                	lw	x24,0(x2)
  42:	0389                	addi	x7,x7,2
  44:	8160                	0x8160
  46:	8801                	andi	x8,x8,0
  48:	9202                	jalr	x4
  4a:	9304                	0x9304
  4c:	9405                	srai	x8,x8,0x21
  4e:	9506                	add	x10,x10,x1
  50:	08965807          	0x8965807
  54:	0a980997          	auipc	x19,0xa980
  58:	0b99                	addi	x23,x23,6
  5a:	0c9a                	slli	x25,x25,0x6
  5c:	0a053803          	0xa053803
  60:	44c1                	li	x9,16
  62:	48c8                	lw	x10,20(x9)
  64:	44c9                	li	x9,18
  66:	44d2                	lw	x9,20(x2)
  68:	44d444d3          	0x44d444d3
  6c:	44d5                	li	x9,21
  6e:	44d6                	lw	x9,84(x2)
  70:	44d844d7          	0x44d844d7
  74:	44d9                	li	x9,22
  76:	48da                	lw	x17,148(x2)
  78:	000e                	c.slli	x0,0x3
  7a:	0b44                	addi	x9,x2,404

Disassembly of section .riscv.attributes:

00000000 <.riscv.attributes>:
   0:	2a41                	jal	190 <.L262+0x30>
   2:	0000                	unimp
   4:	7200                	flw	f8,32(x12)
   6:	7369                	lui	x6,0xffffa
   8:	01007663          	bgeu	x0,x16,14 <.riscv.attributes+0x14>
   c:	0020                	addi	x8,x2,8
   e:	0000                	unimp
  10:	1004                	addi	x9,x2,32
  12:	7205                	lui	x4,0xfffe1
  14:	3376                	fld	f6,376(x2)
  16:	6932                	flw	f18,12(x2)
  18:	7032                	flw	f0,44(x2)
  1a:	5f30                	lw	x12,120(x14)
  1c:	326d                	jal	fffff9c6 <.L272+0xffffe882>
  1e:	3070                	fld	f12,224(x8)
  20:	615f 7032 5f30      	0x5f307032615f
  26:	3266                	fld	f4,120(x2)
  28:	3070                	fld	f12,224(x8)
	...
