
kernel.riscv:     file format elf32-littleriscv


Disassembly of section .text.dram:

00000000 <_start>:
       0:	00000093          	li	x1,0
       4:	00000193          	li	x3,0
       8:	00000213          	li	x4,0
       c:	00000293          	li	x5,0
      10:	00000313          	li	x6,0
      14:	00000393          	li	x7,0
      18:	00000413          	li	x8,0
      1c:	00000493          	li	x9,0
      20:	00000513          	li	x10,0
      24:	00000593          	li	x11,0
      28:	00000613          	li	x12,0
      2c:	00000693          	li	x13,0
      30:	00000713          	li	x14,0
      34:	00000793          	li	x15,0
      38:	00000813          	li	x16,0
      3c:	00000893          	li	x17,0
      40:	00000913          	li	x18,0
      44:	00000993          	li	x19,0
      48:	00000a13          	li	x20,0
      4c:	00000a93          	li	x21,0
      50:	00000b13          	li	x22,0
      54:	00000b93          	li	x23,0
      58:	00000c13          	li	x24,0
      5c:	00000c93          	li	x25,0
      60:	00000d13          	li	x26,0
      64:	00000d93          	li	x27,0
      68:	00000e13          	li	x28,0
      6c:	00000e93          	li	x29,0
      70:	00000f13          	li	x30,0
      74:	00000f93          	li	x31,0
      78:	000032b7          	lui	x5,0x3
      7c:	3002a073          	csrs	mstatus,x5
      80:	00301073          	fscsr	x0
      84:	00000293          	li	x5,0
      88:	d0007053          	fcvt.s.w	f0,x0
      8c:	d00070d3          	fcvt.s.w	f1,x0
      90:	d0007153          	fcvt.s.w	f2,x0
      94:	d00071d3          	fcvt.s.w	f3,x0
      98:	d0007253          	fcvt.s.w	f4,x0
      9c:	d00072d3          	fcvt.s.w	f5,x0
      a0:	d0007353          	fcvt.s.w	f6,x0
      a4:	d00073d3          	fcvt.s.w	f7,x0
      a8:	d0007453          	fcvt.s.w	f8,x0
      ac:	d00074d3          	fcvt.s.w	f9,x0
      b0:	d0007553          	fcvt.s.w	f10,x0
      b4:	d00075d3          	fcvt.s.w	f11,x0
      b8:	d0007653          	fcvt.s.w	f12,x0
      bc:	d00076d3          	fcvt.s.w	f13,x0
      c0:	d0007753          	fcvt.s.w	f14,x0
      c4:	d00077d3          	fcvt.s.w	f15,x0
      c8:	d0007853          	fcvt.s.w	f16,x0
      cc:	d00078d3          	fcvt.s.w	f17,x0
      d0:	d0007953          	fcvt.s.w	f18,x0
      d4:	d00079d3          	fcvt.s.w	f19,x0
      d8:	d0007a53          	fcvt.s.w	f20,x0
      dc:	d0007ad3          	fcvt.s.w	f21,x0
      e0:	d0007b53          	fcvt.s.w	f22,x0
      e4:	d0007bd3          	fcvt.s.w	f23,x0
      e8:	d0007c53          	fcvt.s.w	f24,x0
      ec:	d0007cd3          	fcvt.s.w	f25,x0
      f0:	d0007d53          	fcvt.s.w	f26,x0
      f4:	d0007dd3          	fcvt.s.w	f27,x0
      f8:	d0007e53          	fcvt.s.w	f28,x0
      fc:	d0007ed3          	fcvt.s.w	f29,x0
     100:	d0007f53          	fcvt.s.w	f30,x0
     104:	d0007fd3          	fcvt.s.w	f31,x0
     108:	00002197          	auipc	x3,0x2
     10c:	b2018193          	addi	x3,x3,-1248 # 1c28 <_gp>
     110:	00001217          	auipc	x4,0x1
     114:	52f20213          	addi	x4,x4,1327 # 163f <_bsg_data_end_addr+0x3f>
     118:	fc027213          	andi	x4,x4,-64
     11c:	00002117          	auipc	x2,0x2
     120:	ee010113          	addi	x2,x2,-288 # 1ffc <_bsg_elf_stack_ptr>
     124:	43c2d06f          	j	2d560 <main>
     128:	0000006f          	j	128 <bsg_group_size+0xa8>

0000012c <write_finish_signal>:
     12c:	000017b7          	lui	x15,0x1
     130:	5407a283          	lw	x5,1344(x15) # 1540 <__bsg_id>
     134:	00029c63          	bnez	x5,14c <write_finish_signal+0x20>
     138:	00001337          	lui	x6,0x1
     13c:	00001737          	lui	x14,0x1
     140:	56032383          	lw	x7,1376(x6) # 1560 <cuda_finish_signal_addr>
     144:	55c72503          	lw	x10,1372(x14) # 155c <cuda_finish_signal_val>
     148:	00a3a023          	sw	x10,0(x7)
     14c:	00008067          	ret

00000150 <tensorlib_copy_Int_to_Int>:
     150:	5e82d06f          	j	2d738 <_Z19tensorlib_copy_implIiiEiP11hb_tensor_tS1_>

00000154 <tensorlib_copy_Int_to_Long>:
     154:	5712d06f          	j	2dec4 <_Z19tensorlib_copy_implIixEiP11hb_tensor_tS1_>

00000158 <tensorlib_copy_Long_to_Int>:
     158:	4682e06f          	j	2e5c0 <_Z19tensorlib_copy_implIxiEiP11hb_tensor_tS1_>

0000015c <tensorlib_copy_Int_to_Float>:
     15c:	3f12e06f          	j	2ed4c <_Z19tensorlib_copy_implIifEiP11hb_tensor_tS1_>

00000160 <tensorlib_copy_Float_to_Int>:
     160:	2c82f06f          	j	2f428 <_Z19tensorlib_copy_implIfiEiP11hb_tensor_tS1_>

00000164 <tensorlib_copy_Float_to_Float>:
     164:	1a12f06f          	j	2fb04 <_Z19tensorlib_copy_implIffEiP11hb_tensor_tS1_>

00000168 <tensorlib_copy_Float_to_Double>:
     168:	1283006f          	j	30290 <_Z19tensorlib_copy_implIfdEiP11hb_tensor_tS1_>

0000016c <tensorlib_copy_Double_to_Float>:
     16c:	10d3006f          	j	30a78 <_Z19tensorlib_copy_implIdfEiP11hb_tensor_tS1_>

00000170 <tensorlib_copy_Int_to_Double>:
     170:	5b83106f          	j	31728 <_Z19tensorlib_copy_implIidEiP11hb_tensor_tS1_>

00000174 <tensorlib_copy_Long_to_Long>:
     174:	5813106f          	j	31ef4 <_Z19tensorlib_copy_implIxxEiP11hb_tensor_tS1_>

00000178 <tensorlib_copy_Long_to_Float>:
     178:	5e03206f          	j	32758 <_Z19tensorlib_copy_implIxfEiP11hb_tensor_tS1_>

0000017c <tensorlib_copy_Long_to_Double>:
     17c:	6693206f          	j	32fe4 <_Z19tensorlib_copy_implIxdEiP11hb_tensor_tS1_>

00000180 <tensorlib_copy_Float_to_Long>:
     180:	6b43306f          	j	33834 <_Z19tensorlib_copy_implIfxEiP11hb_tensor_tS1_>

00000184 <tensorlib_copy_Double_to_Int>:
     184:	7213306f          	j	340a4 <_Z19tensorlib_copy_implIdiEiP11hb_tensor_tS1_>

00000188 <tensorlib_copy_Double_to_Long>:
     188:	7a83406f          	j	34930 <_Z19tensorlib_copy_implIdxEiP11hb_tensor_tS1_>

0000018c <tensorlib_copy_Double_to_Double>:
     18c:	7713406f          	j	350fc <_Z19tensorlib_copy_implIddEiP11hb_tensor_tS1_>

00000190 <tensorlib_lossnll_weight>:
     190:	ea010113          	addi	x2,x2,-352
     194:	15212823          	sw	x18,336(x2)
     198:	15312623          	sw	x19,332(x2)
     19c:	00058913          	mv	x18,x11
     1a0:	00050993          	mv	x19,x10
     1a4:	00070593          	mv	x11,x14
     1a8:	00410513          	addi	x10,x2,4
     1ac:	14112e23          	sw	x1,348(x2)
     1b0:	14812c23          	sw	x8,344(x2)
     1b4:	14912a23          	sw	x9,340(x2)
     1b8:	00068413          	mv	x8,x13
     1bc:	00060493          	mv	x9,x12
     1c0:	15412423          	sw	x20,328(x2)
     1c4:	15512223          	sw	x21,324(x2)
     1c8:	00080a13          	mv	x20,x16
     1cc:	00078a93          	mv	x21,x15
     1d0:	15612023          	sw	x22,320(x2)
     1d4:	13712e23          	sw	x23,316(x2)
     1d8:	2a52e0ef          	jal	x1,2ec7c <_ZN8HBTensorIfLln1EEC1EP11hb_tensor_t>
     1dc:	00098593          	mv	x11,x19
     1e0:	04010513          	addi	x10,x2,64
     1e4:	2992e0ef          	jal	x1,2ec7c <_ZN8HBTensorIfLln1EEC1EP11hb_tensor_t>
     1e8:	00090593          	mv	x11,x18
     1ec:	07c10513          	addi	x10,x2,124
     1f0:	28d2e0ef          	jal	x1,2ec7c <_ZN8HBTensorIfLln1EEC1EP11hb_tensor_t>
     1f4:	00048593          	mv	x11,x9
     1f8:	0b810513          	addi	x10,x2,184
     1fc:	2812e0ef          	jal	x1,2ec7c <_ZN8HBTensorIfLln1EEC1EP11hb_tensor_t>
     200:	00040593          	mv	x11,x8
     204:	0f410513          	addi	x10,x2,244
     208:	4602d0ef          	jal	x1,2d668 <_ZN8HBTensorIiLln1EEC1EP11hb_tensor_t>
     20c:	0bc12783          	lw	x15,188(x2)
     210:	00100713          	li	x14,1
     214:	1cf77863          	bgeu	x14,x15,3e4 <tensorlib_lossnll_weight+0x254>
     218:	0c412683          	lw	x13,196(x2)
     21c:	000aa603          	lw	x12,0(x21)
     220:	000a2583          	lw	x11,0(x20)
     224:	0046a503          	lw	x10,4(x13)
     228:	0006a083          	lw	x1,0(x13)
     22c:	0c061c63          	bnez	x12,304 <tensorlib_lossnll_weight+0x174>
     230:	00200b13          	li	x22,2
     234:	51678c63          	beq	x15,x22,74c <tensorlib_lossnll_weight+0x5bc>
     238:	00001bb7          	lui	x23,0x1
     23c:	540baa83          	lw	x21,1344(x23) # 1540 <__bsg_id>
     240:	020a9663          	bnez	x21,26c <tensorlib_lossnll_weight+0xdc>
     244:	f0000753          	fmv.w.x	f14,x0
     248:	20e707d3          	fmv.s	f15,f14
     24c:	04012783          	lw	x15,64(x2)
     250:	2c078a63          	beqz	x15,524 <tensorlib_lossnll_weight+0x394>
     254:	05012e83          	lw	x29,80(x2)
     258:	07c12083          	lw	x1,124(x2)
     25c:	00fea027          	fsw	f15,0(x29)
     260:	30008a63          	beqz	x1,574 <tensorlib_lossnll_weight+0x3e4>
     264:	08c12683          	lw	x13,140(x2)
     268:	00e6a027          	fsw	f14,0(x13)
     26c:	00001b37          	lui	x22,0x1
     270:	548b2f03          	lw	x30,1352(x22) # 1548 <__bsg_x>
     274:	00001437          	lui	x8,0x1
     278:	54442803          	lw	x16,1348(x8) # 1544 <__bsg_y>
     27c:	000015b7          	lui	x11,0x1
     280:	004f0793          	addi	x15,x30,4
     284:	57458713          	addi	x14,x11,1396 # 1574 <g_barrier>
     288:	00f70333          	add	x6,x14,x15
     28c:	01881693          	slli	x13,x16,0x18
     290:	00d36fb3          	or	x31,x6,x13
     294:	201c03b7          	lui	x7,0x201c0
     298:	007feab3          	or	x21,x31,x7
     29c:	00100293          	li	x5,1
     2a0:	005a8023          	sb	x5,0(x21)
     2a4:	548b2a03          	lw	x20,1352(x22)
     2a8:	00700913          	li	x18,7
     2ac:	192a0263          	beq	x20,x18,430 <tensorlib_lossnll_weight+0x2a0>
     2b0:	00100413          	li	x8,1
     2b4:	0100006f          	j	2c4 <tensorlib_lossnll_weight+0x134>
     2b8:	57458993          	addi	x19,x11,1396
     2bc:	1409aaaf          	lr.w.aq	x21,(x19)
     2c0:	008a8863          	beq	x21,x8,2d0 <tensorlib_lossnll_weight+0x140>
     2c4:	57458793          	addi	x15,x11,1396
     2c8:	1007ab2f          	lr.w	x22,(x15)
     2cc:	fe8b16e3          	bne	x22,x8,2b8 <tensorlib_lossnll_weight+0x128>
     2d0:	15c12083          	lw	x1,348(x2)
     2d4:	15812403          	lw	x8,344(x2)
     2d8:	00072023          	sw	x0,0(x14)
     2dc:	15412483          	lw	x9,340(x2)
     2e0:	15012903          	lw	x18,336(x2)
     2e4:	14c12983          	lw	x19,332(x2)
     2e8:	14812a03          	lw	x20,328(x2)
     2ec:	14412a83          	lw	x21,324(x2)
     2f0:	14012b03          	lw	x22,320(x2)
     2f4:	13c12b83          	lw	x23,316(x2)
     2f8:	00000513          	li	x10,0
     2fc:	16010113          	addi	x2,x2,352
     300:	00008067          	ret
     304:	00001837          	lui	x16,0x1
     308:	54082283          	lw	x5,1344(x16) # 1540 <__bsg_id>
     30c:	f60290e3          	bnez	x5,26c <tensorlib_lossnll_weight+0xdc>
     310:	00200313          	li	x6,2
     314:	1e679863          	bne	x15,x6,504 <tensorlib_lossnll_weight+0x374>
     318:	0f812b03          	lw	x22,248(x2)
     31c:	380b0063          	beqz	x22,69c <tensorlib_lossnll_weight+0x50c>
     320:	10012383          	lw	x7,256(x2)
     324:	0003a883          	lw	x17,0(x7) # 201c0000 <_bsg_elf_dram_size+0x1c0000>
     328:	29109e63          	bne	x1,x17,5c4 <tensorlib_lossnll_weight+0x434>
     32c:	6a008a63          	beqz	x1,9e0 <tensorlib_lossnll_weight+0x850>
     330:	f00007d3          	fmv.w.x	f15,x0
     334:	0f412b83          	lw	x23,244(x2)
     338:	10412a83          	lw	x21,260(x2)
     33c:	0fc12783          	lw	x15,252(x2)
     340:	00412e83          	lw	x29,4(x2)
     344:	00812683          	lw	x13,8(x2)
     348:	01412f83          	lw	x31,20(x2)
     34c:	00c12903          	lw	x18,12(x2)
     350:	0c012e03          	lw	x28,192(x2)
     354:	0c812f03          	lw	x30,200(x2)
     358:	20f78753          	fmv.s	f14,f15
     35c:	00000413          	li	x8,0
     360:	00100813          	li	x16,1
     364:	39740263          	beq	x8,x23,6e8 <tensorlib_lossnll_weight+0x558>
     368:	3d0b0863          	beq	x22,x16,738 <tensorlib_lossnll_weight+0x5a8>
     36c:	00241293          	slli	x5,x8,0x2
     370:	005a8733          	add	x14,x21,x5
     374:	00072483          	lw	x9,0(x14)
     378:	04958463          	beq	x11,x9,3c0 <tensorlib_lossnll_weight+0x230>
     37c:	5c04cc63          	bltz	x9,954 <tensorlib_lossnll_weight+0x7c4>
     380:	5ca4fa63          	bgeu	x9,x10,954 <tensorlib_lossnll_weight+0x7c4>
     384:	4fd4f263          	bgeu	x9,x29,868 <tensorlib_lossnll_weight+0x6d8>
     388:	55068263          	beq	x13,x16,8cc <tensorlib_lossnll_weight+0x73c>
     38c:	00249a13          	slli	x20,x9,0x2
     390:	014f89b3          	add	x19,x31,x20
     394:	000e2703          	lw	x14,0(x28)
     398:	004e2283          	lw	x5,4(x28)
     39c:	0009a687          	flw	f13,0(x19)
     3a0:	02e40333          	mul	x6,x8,x14
     3a4:	00d77753          	fadd.s	f14,f14,f13
     3a8:	025484b3          	mul	x9,x9,x5
     3ac:	009303b3          	add	x7,x6,x9
     3b0:	00239893          	slli	x17,x7,0x2
     3b4:	011f09b3          	add	x19,x30,x17
     3b8:	0009a607          	flw	f12,0(x19)
     3bc:	78c6f7cb          	fnmsub.s	f15,f13,f12,f15
     3c0:	00140413          	addi	x8,x8,1
     3c4:	fa8090e3          	bne	x1,x8,364 <tensorlib_lossnll_weight+0x1d4>
     3c8:	00100593          	li	x11,1
     3cc:	e8b610e3          	bne	x12,x11,24c <tensorlib_lossnll_weight+0xbc>
     3d0:	f0000053          	fmv.w.x	f0,x0
     3d4:	a0072653          	feq.s	x12,f14,f0
     3d8:	12061c63          	bnez	x12,510 <tensorlib_lossnll_weight+0x380>
     3dc:	18e7f7d3          	fdiv.s	f15,f15,f14
     3e0:	e6dff06f          	j	24c <tensorlib_lossnll_weight+0xbc>
     3e4:	81000737          	lui	x14,0x81000
     3e8:	810005b7          	lui	x11,0x81000
     3ec:	06f00613          	li	x12,111
     3f0:	00058593          	mv	x11,x11
     3f4:	05870513          	addi	x10,x14,88 # 81000058 <_end+0xffffcd84>
     3f8:	2f12a0ef          	jal	x1,2aee8 <bsg_printf>
     3fc:	0bc12583          	lw	x11,188(x2)
     400:	810002b7          	lui	x5,0x81000
     404:	09028513          	addi	x10,x5,144 # 81000090 <_end+0xffffcdbc>
     408:	2e12a0ef          	jal	x1,2aee8 <bsg_printf>
     40c:	00001a37          	lui	x20,0x1
     410:	544a2903          	lw	x18,1348(x20) # 1544 <__bsg_y>
     414:	00001e37          	lui	x28,0x1
     418:	548e2e83          	lw	x29,1352(x28) # 1548 <__bsg_x>
     41c:	01091613          	slli	x12,x18,0x10
     420:	4100fbb7          	lui	x23,0x4100f
     424:	01d60533          	add	x10,x12,x29
     428:	acabac23          	sw	x10,-1320(x23) # 4100ead8 <_bsg_elf_dram_size+0x2100ead8>
     42c:	0000006f          	j	42c <tensorlib_lossnll_weight+0x29c>
     430:	00001e37          	lui	x28,0x1
     434:	00001eb7          	lui	x29,0x1
     438:	578e0093          	addi	x1,x28,1400 # 1578 <g_barrier+0x4>
     43c:	588e8993          	addi	x19,x29,1416 # 1588 <g_barrier+0x14>
     440:	00008513          	mv	x10,x1
     444:	00054603          	lbu	x12,0(x10)
     448:	00150513          	addi	x10,x10,1
     44c:	0ff67893          	andi	x17,x12,255
     450:	fe0888e3          	beqz	x17,440 <tensorlib_lossnll_weight+0x2b0>
     454:	fea998e3          	bne	x19,x10,444 <tensorlib_lossnll_weight+0x2b4>
     458:	54442b83          	lw	x23,1348(x8)
     45c:	231c0837          	lui	x16,0x231c0
     460:	00100313          	li	x6,1
     464:	018b8493          	addi	x9,x23,24
     468:	00970f33          	add	x30,x14,x9
     46c:	010f67b3          	or	x15,x30,x16
     470:	00678023          	sb	x6,0(x15)
     474:	548b2383          	lw	x7,1352(x22)
     478:	00700693          	li	x13,7
     47c:	e2d39ae3          	bne	x7,x13,2b0 <tensorlib_lossnll_weight+0x120>
     480:	54442f83          	lw	x31,1348(x8)
     484:	00300a93          	li	x21,3
     488:	175f8c63          	beq	x31,x21,600 <tensorlib_lossnll_weight+0x470>
     48c:	00100a93          	li	x21,1
     490:	0100006f          	j	4a0 <tensorlib_lossnll_weight+0x310>
     494:	01470913          	addi	x18,x14,20
     498:	14092e2f          	lr.w.aq	x28,(x18)
     49c:	015e0863          	beq	x28,x21,4ac <tensorlib_lossnll_weight+0x31c>
     4a0:	01470293          	addi	x5,x14,20
     4a4:	1002aa2f          	lr.w	x20,(x5)
     4a8:	ff5a16e3          	bne	x20,x21,494 <tensorlib_lossnll_weight+0x304>
     4ac:	00072a23          	sw	x0,20(x14)
     4b0:	00000613          	li	x12,0
     4b4:	01000093          	li	x1,16
     4b8:	00c70eb3          	add	x29,x14,x12
     4bc:	000e8223          	sb	x0,4(x29)
     4c0:	00160613          	addi	x12,x12,1
     4c4:	fe161ae3          	bne	x12,x1,4b8 <tensorlib_lossnll_weight+0x328>
     4c8:	00072023          	sw	x0,0(x14)
     4cc:	00000313          	li	x6,0
     4d0:	20000537          	lui	x10,0x20000
     4d4:	00100b93          	li	x23,1
     4d8:	000408b7          	lui	x17,0x40
     4dc:	004004b7          	lui	x9,0x400
     4e0:	54442f03          	lw	x30,1348(x8)
     4e4:	00676833          	or	x16,x14,x6
     4e8:	01130333          	add	x6,x6,x17
     4ec:	018f1393          	slli	x7,x30,0x18
     4f0:	0103e6b3          	or	x13,x7,x16
     4f4:	00a6efb3          	or	x31,x13,x10
     4f8:	017fa023          	sw	x23,0(x31)
     4fc:	fe9312e3          	bne	x6,x9,4e0 <tensorlib_lossnll_weight+0x350>
     500:	db1ff06f          	j	2b0 <tensorlib_lossnll_weight+0x120>
     504:	f00007d3          	fmv.w.x	f15,x0
     508:	20f78753          	fmv.s	f14,f15
     50c:	d4e610e3          	bne	x12,x14,24c <tensorlib_lossnll_weight+0xbc>
     510:	0b812083          	lw	x1,184(x2)
     514:	f0000753          	fmv.w.x	f14,x0
     518:	d2009ae3          	bnez	x1,24c <tensorlib_lossnll_weight+0xbc>
     51c:	18e7f7d3          	fdiv.s	f15,f15,f14
     520:	d2dff06f          	j	24c <tensorlib_lossnll_weight+0xbc>
     524:	810003b7          	lui	x7,0x81000
     528:	810008b7          	lui	x17,0x81000
     52c:	00038593          	mv	x11,x7
     530:	08c00613          	li	x12,140
     534:	05888513          	addi	x10,x17,88 # 81000058 <_end+0xffffcd84>
     538:	1b12a0ef          	jal	x1,2aee8 <bsg_printf>
     53c:	04012583          	lw	x11,64(x2)
     540:	810009b7          	lui	x19,0x81000
     544:	00000613          	li	x12,0
     548:	0b898513          	addi	x10,x19,184 # 810000b8 <_end+0xffffcde4>
     54c:	19d2a0ef          	jal	x1,2aee8 <bsg_printf>
     550:	00001437          	lui	x8,0x1
     554:	54442583          	lw	x11,1348(x8) # 1544 <__bsg_y>
     558:	00001637          	lui	x12,0x1
     55c:	54862503          	lw	x10,1352(x12) # 1548 <__bsg_x>
     560:	01059b13          	slli	x22,x11,0x10
     564:	4100fab7          	lui	x21,0x4100f
     568:	00ab0bb3          	add	x23,x22,x10
     56c:	ad7aac23          	sw	x23,-1320(x21) # 4100ead8 <_bsg_elf_dram_size+0x2100ead8>
     570:	0000006f          	j	570 <tensorlib_lossnll_weight+0x3e0>
     574:	81000fb7          	lui	x31,0x81000
     578:	81000937          	lui	x18,0x81000
     57c:	000f8593          	mv	x11,x31
     580:	08c00613          	li	x12,140
     584:	05890513          	addi	x10,x18,88 # 81000058 <_end+0xffffcd84>
     588:	1612a0ef          	jal	x1,2aee8 <bsg_printf>
     58c:	07c12583          	lw	x11,124(x2)
     590:	81000e37          	lui	x28,0x81000
     594:	00000613          	li	x12,0
     598:	0b8e0513          	addi	x10,x28,184 # 810000b8 <_end+0xffffcde4>
     59c:	14d2a0ef          	jal	x1,2aee8 <bsg_printf>
     5a0:	00001f37          	lui	x30,0x1
     5a4:	544f2803          	lw	x16,1348(x30) # 1544 <__bsg_y>
     5a8:	00001a37          	lui	x20,0x1
     5ac:	548a2703          	lw	x14,1352(x20) # 1548 <__bsg_x>
     5b0:	01081293          	slli	x5,x16,0x10
     5b4:	4100f4b7          	lui	x9,0x4100f
     5b8:	00e28333          	add	x6,x5,x14
     5bc:	ac64ac23          	sw	x6,-1320(x9) # 4100ead8 <_bsg_elf_dram_size+0x2100ead8>
     5c0:	0000006f          	j	5c0 <tensorlib_lossnll_weight+0x430>
     5c4:	81000eb7          	lui	x29,0x81000
     5c8:	810006b7          	lui	x13,0x81000
     5cc:	03d00613          	li	x12,61
     5d0:	0d8e8593          	addi	x11,x29,216 # 810000d8 <_end+0xffffce04>
     5d4:	0ec68513          	addi	x10,x13,236 # 810000ec <_end+0xffffce18>
     5d8:	1112a0ef          	jal	x1,2aee8 <bsg_printf>
     5dc:	00001fb7          	lui	x31,0x1
     5e0:	544fa903          	lw	x18,1348(x31) # 1544 <__bsg_y>
     5e4:	00001e37          	lui	x28,0x1
     5e8:	548e2f03          	lw	x30,1352(x28) # 1548 <__bsg_x>
     5ec:	01091813          	slli	x16,x18,0x10
     5f0:	4100f737          	lui	x14,0x4100f
     5f4:	01e80a33          	add	x20,x16,x30
     5f8:	ad472c23          	sw	x20,-1320(x14) # 4100ead8 <_bsg_elf_dram_size+0x2100ead8>
     5fc:	0000006f          	j	5fc <tensorlib_lossnll_weight+0x46c>
     600:	000012b7          	lui	x5,0x1
     604:	00001937          	lui	x18,0x1
     608:	58c28a13          	addi	x20,x5,1420 # 158c <g_barrier+0x18>
     60c:	59490e13          	addi	x28,x18,1428 # 1594 <_tls_data>
     610:	000a0e93          	mv	x29,x20
     614:	000ec083          	lbu	x1,0(x29)
     618:	001e8e93          	addi	x29,x29,1
     61c:	0ff0f613          	andi	x12,x1,255
     620:	fe0608e3          	beqz	x12,610 <tensorlib_lossnll_weight+0x480>
     624:	ffde18e3          	bne	x28,x29,614 <tensorlib_lossnll_weight+0x484>
     628:	00070c23          	sb	x0,24(x14)
     62c:	00070ca3          	sb	x0,25(x14)
     630:	00070d23          	sb	x0,26(x14)
     634:	00070da3          	sb	x0,27(x14)
     638:	00070e23          	sb	x0,28(x14)
     63c:	00070ea3          	sb	x0,29(x14)
     640:	00070f23          	sb	x0,30(x14)
     644:	00070fa3          	sb	x0,31(x14)
     648:	00072a23          	sw	x0,20(x14)
     64c:	00000793          	li	x15,0
     650:	03fc0537          	lui	x10,0x3fc0
     654:	200008b7          	lui	x17,0x20000
     658:	00100b93          	li	x23,1
     65c:	010004b7          	lui	x9,0x1000
     660:	08000f37          	lui	x30,0x8000
     664:	0080006f          	j	66c <tensorlib_lossnll_weight+0x4dc>
     668:	548b2383          	lw	x7,1352(x22)
     66c:	01239813          	slli	x16,x7,0x12
     670:	00f9e333          	or	x6,x19,x15
     674:	00a873b3          	and	x7,x16,x10
     678:	0063e6b3          	or	x13,x7,x6
     67c:	0116efb3          	or	x31,x13,x17
     680:	017fa023          	sw	x23,0(x31)
     684:	009787b3          	add	x15,x15,x9
     688:	ffe790e3          	bne	x15,x30,668 <tensorlib_lossnll_weight+0x4d8>
     68c:	548b2b03          	lw	x22,1352(x22)
     690:	00700993          	li	x19,7
     694:	df3b0ce3          	beq	x22,x19,48c <tensorlib_lossnll_weight+0x2fc>
     698:	c19ff06f          	j	2b0 <tensorlib_lossnll_weight+0x120>
     69c:	810002b7          	lui	x5,0x81000
     6a0:	81000337          	lui	x6,0x81000
     6a4:	06f00613          	li	x12,111
     6a8:	00028593          	mv	x11,x5
     6ac:	05830513          	addi	x10,x6,88 # 81000058 <_end+0xffffcd84>
     6b0:	0392a0ef          	jal	x1,2aee8 <bsg_printf>
     6b4:	0f812583          	lw	x11,248(x2)
     6b8:	810004b7          	lui	x9,0x81000
     6bc:	09048513          	addi	x10,x9,144 # 81000090 <_end+0xffffcdbc>
     6c0:	0292a0ef          	jal	x1,2aee8 <bsg_printf>
     6c4:	000013b7          	lui	x7,0x1
     6c8:	5443a883          	lw	x17,1348(x7) # 1544 <__bsg_y>
     6cc:	000019b7          	lui	x19,0x1
     6d0:	5489a403          	lw	x8,1352(x19) # 1548 <__bsg_x>
     6d4:	01089593          	slli	x11,x17,0x10
     6d8:	4100f537          	lui	x10,0x4100f
     6dc:	00858633          	add	x12,x11,x8
     6e0:	acc52c23          	sw	x12,-1320(x10) # 4100ead8 <_bsg_elf_dram_size+0x2100ead8>
     6e4:	0000006f          	j	6e4 <tensorlib_lossnll_weight+0x554>
     6e8:	810008b7          	lui	x17,0x81000
     6ec:	810009b7          	lui	x19,0x81000
     6f0:	00088593          	mv	x11,x17
     6f4:	08c00613          	li	x12,140
     6f8:	05898513          	addi	x10,x19,88 # 81000058 <_end+0xffffcd84>
     6fc:	7ec2a0ef          	jal	x1,2aee8 <bsg_printf>
     700:	0f412583          	lw	x11,244(x2)
     704:	00040613          	mv	x12,x8
     708:	81000437          	lui	x8,0x81000
     70c:	0b840513          	addi	x10,x8,184 # 810000b8 <_end+0xffffcde4>
     710:	7d82a0ef          	jal	x1,2aee8 <bsg_printf>
     714:	000015b7          	lui	x11,0x1
     718:	5445a603          	lw	x12,1348(x11) # 1544 <__bsg_y>
     71c:	00001537          	lui	x10,0x1
     720:	54852b03          	lw	x22,1352(x10) # 1548 <__bsg_x>
     724:	01061b93          	slli	x23,x12,0x10
     728:	4100f7b7          	lui	x15,0x4100f
     72c:	016b8ab3          	add	x21,x23,x22
     730:	ad57ac23          	sw	x21,-1320(x15) # 4100ead8 <_bsg_elf_dram_size+0x2100ead8>
     734:	0000006f          	j	734 <tensorlib_lossnll_weight+0x5a4>
     738:	0007a983          	lw	x19,0(x15)
     73c:	033404b3          	mul	x9,x8,x19
     740:	00249a13          	slli	x20,x9,0x2
     744:	014a8733          	add	x14,x21,x20
     748:	c2dff06f          	j	374 <tensorlib_lossnll_weight+0x1e4>
     74c:	fff08793          	addi	x15,x1,-1 # ffff2fff <_end+0x7efefd2b>
     750:	ffd00e93          	li	x29,-3
     754:	b0feece3          	bltu	x29,x15,26c <tensorlib_lossnll_weight+0xdc>
     758:	000016b7          	lui	x13,0x1
     75c:	5406af83          	lw	x31,1344(x13) # 1540 <__bsg_id>
     760:	0070d913          	srli	x18,x1,0x7
     764:	00190e13          	addi	x28,x18,1
     768:	07ffff13          	andi	x30,x31,127
     76c:	03cf0433          	mul	x8,x30,x28
     770:	008e0733          	add	x14,x28,x8
     774:	00e0f463          	bgeu	x1,x14,77c <tensorlib_lossnll_weight+0x5ec>
     778:	00008713          	mv	x14,x1
     77c:	aee478e3          	bgeu	x8,x14,26c <tensorlib_lossnll_weight+0xdc>
     780:	0f412083          	lw	x1,244(x2)
     784:	0f812883          	lw	x17,248(x2)
     788:	10412803          	lw	x16,260(x2)
     78c:	0fc12303          	lw	x6,252(x2)
     790:	00412683          	lw	x13,4(x2)
     794:	00812f83          	lw	x31,8(x2)
     798:	01412383          	lw	x7,20(x2)
     79c:	00c12a83          	lw	x21,12(x2)
     7a0:	0c012283          	lw	x5,192(x2)
     7a4:	0c812a03          	lw	x20,200(x2)
     7a8:	04012903          	lw	x18,64(x2)
     7ac:	04412e03          	lw	x28,68(x2)
     7b0:	05012e83          	lw	x29,80(x2)
     7b4:	04812983          	lw	x19,72(x2)
     7b8:	00100613          	li	x12,1
     7bc:	04147e63          	bgeu	x8,x1,818 <tensorlib_lossnll_weight+0x688>
     7c0:	0ec88c63          	beq	x17,x12,8b8 <tensorlib_lossnll_weight+0x728>
     7c4:	00241f13          	slli	x30,x8,0x2
     7c8:	01e807b3          	add	x15,x16,x30
     7cc:	0007a483          	lw	x9,0(x15)
     7d0:	10958863          	beq	x11,x9,8e0 <tensorlib_lossnll_weight+0x750>
     7d4:	0004c463          	bltz	x9,7dc <tensorlib_lossnll_weight+0x64c>
     7d8:	12a4e463          	bltu	x9,x10,900 <tensorlib_lossnll_weight+0x770>
     7dc:	810004b7          	lui	x9,0x81000
     7e0:	81000b37          	lui	x22,0x81000
     7e4:	0d848593          	addi	x11,x9,216 # 810000d8 <_end+0xffffce04>
     7e8:	02500613          	li	x12,37
     7ec:	0ecb0513          	addi	x10,x22,236 # 810000ec <_end+0xffffce18>
     7f0:	6f82a0ef          	jal	x1,2aee8 <bsg_printf>
     7f4:	00001f37          	lui	x30,0x1
     7f8:	544f2783          	lw	x15,1348(x30) # 1544 <__bsg_y>
     7fc:	000015b7          	lui	x11,0x1
     800:	5485a503          	lw	x10,1352(x11) # 1548 <__bsg_x>
     804:	01079413          	slli	x8,x15,0x10
     808:	4100f737          	lui	x14,0x4100f
     80c:	00a408b3          	add	x17,x8,x10
     810:	ad172c23          	sw	x17,-1320(x14) # 4100ead8 <_bsg_elf_dram_size+0x2100ead8>
     814:	0000006f          	j	814 <tensorlib_lossnll_weight+0x684>
     818:	810000b7          	lui	x1,0x81000
     81c:	81000eb7          	lui	x29,0x81000
     820:	00008593          	mv	x11,x1
     824:	08c00613          	li	x12,140
     828:	058e8513          	addi	x10,x29,88 # 81000058 <_end+0xffffcd84>
     82c:	6bc2a0ef          	jal	x1,2aee8 <bsg_printf>
     830:	0f412583          	lw	x11,244(x2)
     834:	810009b7          	lui	x19,0x81000
     838:	00040613          	mv	x12,x8
     83c:	0b898513          	addi	x10,x19,184 # 810000b8 <_end+0xffffcde4>
     840:	6a82a0ef          	jal	x1,2aee8 <bsg_printf>
     844:	00001637          	lui	x12,0x1
     848:	54462583          	lw	x11,1348(x12) # 1544 <__bsg_y>
     84c:	00001537          	lui	x10,0x1
     850:	54852883          	lw	x17,1352(x10) # 1548 <__bsg_x>
     854:	01059713          	slli	x14,x11,0x10
     858:	4100f4b7          	lui	x9,0x4100f
     85c:	01170bb3          	add	x23,x14,x17
     860:	ad74ac23          	sw	x23,-1320(x9) # 4100ead8 <_bsg_elf_dram_size+0x2100ead8>
     864:	0000006f          	j	864 <tensorlib_lossnll_weight+0x6d4>
     868:	810000b7          	lui	x1,0x81000
     86c:	81000537          	lui	x10,0x81000
     870:	00050593          	mv	x11,x10
     874:	08c00613          	li	x12,140
     878:	05808513          	addi	x10,x1,88 # 81000058 <_end+0xffffcd84>
     87c:	66c2a0ef          	jal	x1,2aee8 <bsg_printf>
     880:	00412583          	lw	x11,4(x2)
     884:	81000b37          	lui	x22,0x81000
     888:	00048613          	mv	x12,x9
     88c:	0b8b0513          	addi	x10,x22,184 # 810000b8 <_end+0xffffcde4>
     890:	6582a0ef          	jal	x1,2aee8 <bsg_printf>
     894:	00001bb7          	lui	x23,0x1
     898:	544baa83          	lw	x21,1348(x23) # 1544 <__bsg_y>
     89c:	000017b7          	lui	x15,0x1
     8a0:	5487ae83          	lw	x29,1352(x15) # 1548 <__bsg_x>
     8a4:	010a9693          	slli	x13,x21,0x10
     8a8:	4100f937          	lui	x18,0x4100f
     8ac:	01d68fb3          	add	x31,x13,x29
     8b0:	adf92c23          	sw	x31,-1320(x18) # 4100ead8 <_bsg_elf_dram_size+0x2100ead8>
     8b4:	0000006f          	j	8b4 <tensorlib_lossnll_weight+0x724>
     8b8:	00032483          	lw	x9,0(x6)
     8bc:	02940b33          	mul	x22,x8,x9
     8c0:	002b1b93          	slli	x23,x22,0x2
     8c4:	017807b3          	add	x15,x16,x23
     8c8:	f05ff06f          	j	7cc <tensorlib_lossnll_weight+0x63c>
     8cc:	00092303          	lw	x6,0(x18)
     8d0:	026483b3          	mul	x7,x9,x6
     8d4:	00239893          	slli	x17,x7,0x2
     8d8:	011f89b3          	add	x19,x31,x17
     8dc:	ab9ff06f          	j	394 <tensorlib_lossnll_weight+0x204>
     8e0:	0b247863          	bgeu	x8,x18,990 <tensorlib_lossnll_weight+0x800>
     8e4:	14ce0c63          	beq	x28,x12,a3c <tensorlib_lossnll_weight+0x8ac>
     8e8:	00241793          	slli	x15,x8,0x2
     8ec:	00fe8f33          	add	x30,x29,x15
     8f0:	000f2023          	sw	x0,0(x30)
     8f4:	00140413          	addi	x8,x8,1
     8f8:	ec8712e3          	bne	x14,x8,7bc <tensorlib_lossnll_weight+0x62c>
     8fc:	971ff06f          	j	26c <tensorlib_lossnll_weight+0xdc>
     900:	0ed4f663          	bgeu	x9,x13,9ec <tensorlib_lossnll_weight+0x85c>
     904:	18cf8e63          	beq	x31,x12,aa0 <tensorlib_lossnll_weight+0x910>
     908:	00249b13          	slli	x22,x9,0x2
     90c:	01638f33          	add	x30,x7,x22
     910:	15247063          	bgeu	x8,x18,a50 <tensorlib_lossnll_weight+0x8c0>
     914:	1ace0063          	beq	x28,x12,ab4 <tensorlib_lossnll_weight+0x924>
     918:	00241793          	slli	x15,x8,0x2
     91c:	00fe8bb3          	add	x23,x29,x15
     920:	0002ab03          	lw	x22,0(x5) # 81000000 <_end+0xffffcd2c>
     924:	0042a783          	lw	x15,4(x5)
     928:	000f2087          	flw	f1,0(x30)
     92c:	03640f33          	mul	x30,x8,x22
     930:	02f484b3          	mul	x9,x9,x15
     934:	009f0b33          	add	x22,x30,x9
     938:	002b1f13          	slli	x30,x22,0x2
     93c:	01ea07b3          	add	x15,x20,x30
     940:	0007a107          	flw	f2,0(x15)
     944:	101171d3          	fmul.s	f3,f2,f1
     948:	20319253          	fneg.s	f4,f3
     94c:	004ba027          	fsw	f4,0(x23)
     950:	fa5ff06f          	j	8f4 <tensorlib_lossnll_weight+0x764>
     954:	81000e37          	lui	x28,0x81000
     958:	81000f37          	lui	x30,0x81000
     95c:	04200613          	li	x12,66
     960:	0d8e0593          	addi	x11,x28,216 # 810000d8 <_end+0xffffce04>
     964:	0ecf0513          	addi	x10,x30,236 # 810000ec <_end+0xffffce18>
     968:	5802a0ef          	jal	x1,2aee8 <bsg_printf>
     96c:	00001837          	lui	x16,0x1
     970:	54482a03          	lw	x20,1348(x16) # 1544 <__bsg_y>
     974:	00001737          	lui	x14,0x1
     978:	54872283          	lw	x5,1352(x14) # 1548 <__bsg_x>
     97c:	010a1313          	slli	x6,x20,0x10
     980:	4100f3b7          	lui	x7,0x4100f
     984:	005304b3          	add	x9,x6,x5
     988:	ac93ac23          	sw	x9,-1320(x7) # 4100ead8 <_bsg_elf_dram_size+0x2100ead8>
     98c:	0000006f          	j	98c <tensorlib_lossnll_weight+0x7fc>
     990:	81000837          	lui	x16,0x81000
     994:	81000337          	lui	x6,0x81000
     998:	00080593          	mv	x11,x16
     99c:	08c00613          	li	x12,140
     9a0:	05830513          	addi	x10,x6,88 # 81000058 <_end+0xffffcd84>
     9a4:	5442a0ef          	jal	x1,2aee8 <bsg_printf>
     9a8:	04012583          	lw	x11,64(x2)
     9ac:	810006b7          	lui	x13,0x81000
     9b0:	00040613          	mv	x12,x8
     9b4:	0b868513          	addi	x10,x13,184 # 810000b8 <_end+0xffffcde4>
     9b8:	5302a0ef          	jal	x1,2aee8 <bsg_printf>
     9bc:	00001fb7          	lui	x31,0x1
     9c0:	544fa383          	lw	x7,1348(x31) # 1544 <__bsg_y>
     9c4:	00001ab7          	lui	x21,0x1
     9c8:	548aa283          	lw	x5,1352(x21) # 1548 <__bsg_x>
     9cc:	01039a13          	slli	x20,x7,0x10
     9d0:	4100fe37          	lui	x28,0x4100f
     9d4:	005a0933          	add	x18,x20,x5
     9d8:	ad2e2c23          	sw	x18,-1320(x28) # 4100ead8 <_bsg_elf_dram_size+0x2100ead8>
     9dc:	0000006f          	j	9dc <tensorlib_lossnll_weight+0x84c>
     9e0:	86e612e3          	bne	x12,x14,244 <tensorlib_lossnll_weight+0xb4>
     9e4:	f00007d3          	fmv.w.x	f15,x0
     9e8:	b29ff06f          	j	510 <tensorlib_lossnll_weight+0x380>
     9ec:	810000b7          	lui	x1,0x81000
     9f0:	81000ab7          	lui	x21,0x81000
     9f4:	00008593          	mv	x11,x1
     9f8:	08c00613          	li	x12,140
     9fc:	058a8513          	addi	x10,x21,88 # 81000058 <_end+0xffffcd84>
     a00:	4e82a0ef          	jal	x1,2aee8 <bsg_printf>
     a04:	00412583          	lw	x11,4(x2)
     a08:	810002b7          	lui	x5,0x81000
     a0c:	00048613          	mv	x12,x9
     a10:	0b828513          	addi	x10,x5,184 # 810000b8 <_end+0xffffcde4>
     a14:	4d42a0ef          	jal	x1,2aee8 <bsg_printf>
     a18:	00001a37          	lui	x20,0x1
     a1c:	544a2903          	lw	x18,1348(x20) # 1544 <__bsg_y>
     a20:	00001e37          	lui	x28,0x1
     a24:	548e2e83          	lw	x29,1352(x28) # 1548 <__bsg_x>
     a28:	01091993          	slli	x19,x18,0x10
     a2c:	4100fbb7          	lui	x23,0x4100f
     a30:	01d98633          	add	x12,x19,x29
     a34:	accbac23          	sw	x12,-1320(x23) # 4100ead8 <_bsg_elf_dram_size+0x2100ead8>
     a38:	0000006f          	j	a38 <tensorlib_lossnll_weight+0x8a8>
     a3c:	0009ab83          	lw	x23,0(x19)
     a40:	037404b3          	mul	x9,x8,x23
     a44:	00249b13          	slli	x22,x9,0x2
     a48:	016e8f33          	add	x30,x29,x22
     a4c:	ea5ff06f          	j	8f0 <tensorlib_lossnll_weight+0x760>
     a50:	810005b7          	lui	x11,0x81000
     a54:	81000537          	lui	x10,0x81000
     a58:	00058593          	mv	x11,x11
     a5c:	08c00613          	li	x12,140
     a60:	05850513          	addi	x10,x10,88 # 81000058 <_end+0xffffcd84>
     a64:	4842a0ef          	jal	x1,2aee8 <bsg_printf>
     a68:	04012583          	lw	x11,64(x2)
     a6c:	00040613          	mv	x12,x8
     a70:	81000437          	lui	x8,0x81000
     a74:	0b840513          	addi	x10,x8,184 # 810000b8 <_end+0xffffcde4>
     a78:	4702a0ef          	jal	x1,2aee8 <bsg_printf>
     a7c:	00001737          	lui	x14,0x1
     a80:	54472883          	lw	x17,1348(x14) # 1544 <__bsg_y>
     a84:	00001837          	lui	x16,0x1
     a88:	54882303          	lw	x6,1352(x16) # 1548 <__bsg_x>
     a8c:	01089693          	slli	x13,x17,0x10
     a90:	4100f3b7          	lui	x7,0x4100f
     a94:	00668fb3          	add	x31,x13,x6
     a98:	adf3ac23          	sw	x31,-1320(x7) # 4100ead8 <_bsg_elf_dram_size+0x2100ead8>
     a9c:	0000006f          	j	a9c <tensorlib_lossnll_weight+0x90c>
     aa0:	000aab03          	lw	x22,0(x21)
     aa4:	03648bb3          	mul	x23,x9,x22
     aa8:	002b9793          	slli	x15,x23,0x2
     aac:	00f38f33          	add	x30,x7,x15
     ab0:	e61ff06f          	j	910 <tensorlib_lossnll_weight+0x780>
     ab4:	0009ab83          	lw	x23,0(x19)
     ab8:	037407b3          	mul	x15,x8,x23
     abc:	00279b13          	slli	x22,x15,0x2
     ac0:	016e8bb3          	add	x23,x29,x22
     ac4:	e5dff06f          	j	920 <tensorlib_lossnll_weight+0x790>

00000ac8 <_Z22tensorlib_lossnll_implIZ17tensorlib_lossnllEUliE_EiP11hb_tensor_tS2_S2_S2_PmPlT_>:
     ac8:	ef010113          	addi	x2,x2,-272
     acc:	00050813          	mv	x16,x10
     ad0:	11212023          	sw	x18,256(x2)
     ad4:	00010513          	mv	x10,x2
     ad8:	00058913          	mv	x18,x11
     adc:	00080593          	mv	x11,x16
     ae0:	10112623          	sw	x1,268(x2)
     ae4:	10812423          	sw	x8,264(x2)
     ae8:	10912223          	sw	x9,260(x2)
     aec:	00068413          	mv	x8,x13
     af0:	00060493          	mv	x9,x12
     af4:	0f312e23          	sw	x19,252(x2)
     af8:	0f412c23          	sw	x20,248(x2)
     afc:	00078993          	mv	x19,x15
     b00:	00070a13          	mv	x20,x14
     b04:	1782e0ef          	jal	x1,2ec7c <_ZN8HBTensorIfLln1EEC1EP11hb_tensor_t>
     b08:	00090593          	mv	x11,x18
     b0c:	03c10513          	addi	x10,x2,60
     b10:	16c2e0ef          	jal	x1,2ec7c <_ZN8HBTensorIfLln1EEC1EP11hb_tensor_t>
     b14:	00048593          	mv	x11,x9
     b18:	07810513          	addi	x10,x2,120
     b1c:	1602e0ef          	jal	x1,2ec7c <_ZN8HBTensorIfLln1EEC1EP11hb_tensor_t>
     b20:	00040593          	mv	x11,x8
     b24:	0b410513          	addi	x10,x2,180
     b28:	3412c0ef          	jal	x1,2d668 <_ZN8HBTensorIiLln1EEC1EP11hb_tensor_t>
     b2c:	07c12703          	lw	x14,124(x2)
     b30:	00100793          	li	x15,1
     b34:	14e7f663          	bgeu	x15,x14,c80 <_Z22tensorlib_lossnll_implIZ17tensorlib_lossnllEUliE_EiP11hb_tensor_tS2_S2_S2_PmPlT_+0x1b8>
     b38:	08412683          	lw	x13,132(x2)
     b3c:	000a2603          	lw	x12,0(x20)
     b40:	0009a583          	lw	x11,0(x19)
     b44:	0046a503          	lw	x10,4(x13)
     b48:	0006a083          	lw	x1,0(x13)
     b4c:	06061263          	bnez	x12,bb0 <_Z22tensorlib_lossnll_implIZ17tensorlib_lossnllEUliE_EiP11hb_tensor_tS2_S2_S2_PmPlT_+0xe8>
     b50:	00200413          	li	x8,2
     b54:	34870663          	beq	x14,x8,ea0 <_Z22tensorlib_lossnll_implIZ17tensorlib_lossnllEUliE_EiP11hb_tensor_tS2_S2_S2_PmPlT_+0x3d8>
     b58:	000015b7          	lui	x11,0x1
     b5c:	5405a503          	lw	x10,1344(x11) # 1540 <__bsg_id>
     b60:	02051663          	bnez	x10,b8c <_Z22tensorlib_lossnll_implIZ17tensorlib_lossnllEUliE_EiP11hb_tensor_tS2_S2_S2_PmPlT_+0xc4>
     b64:	f0000753          	fmv.w.x	f14,x0
     b68:	20e707d3          	fmv.s	f15,f14
     b6c:	00012083          	lw	x1,0(x2)
     b70:	16008e63          	beqz	x1,cec <_Z22tensorlib_lossnll_implIZ17tensorlib_lossnllEUliE_EiP11hb_tensor_tS2_S2_S2_PmPlT_+0x224>
     b74:	01012903          	lw	x18,16(x2)
     b78:	03c12603          	lw	x12,60(x2)
     b7c:	00f92027          	fsw	f15,0(x18)
     b80:	1a060e63          	beqz	x12,d3c <_Z22tensorlib_lossnll_implIZ17tensorlib_lossnllEUliE_EiP11hb_tensor_tS2_S2_S2_PmPlT_+0x274>
     b84:	04c12f83          	lw	x31,76(x2)
     b88:	00efa027          	fsw	f14,0(x31)
     b8c:	10c12083          	lw	x1,268(x2)
     b90:	10812403          	lw	x8,264(x2)
     b94:	10412483          	lw	x9,260(x2)
     b98:	10012903          	lw	x18,256(x2)
     b9c:	0fc12983          	lw	x19,252(x2)
     ba0:	0f812a03          	lw	x20,248(x2)
     ba4:	00000513          	li	x10,0
     ba8:	11010113          	addi	x2,x2,272
     bac:	00008067          	ret
     bb0:	000012b7          	lui	x5,0x1
     bb4:	5402a303          	lw	x6,1344(x5) # 1540 <__bsg_id>
     bb8:	fc031ae3          	bnez	x6,b8c <_Z22tensorlib_lossnll_implIZ17tensorlib_lossnllEUliE_EiP11hb_tensor_tS2_S2_S2_PmPlT_+0xc4>
     bbc:	00200393          	li	x7,2
     bc0:	10771663          	bne	x14,x7,ccc <_Z22tensorlib_lossnll_implIZ17tensorlib_lossnllEUliE_EiP11hb_tensor_tS2_S2_S2_PmPlT_+0x204>
     bc4:	0b812903          	lw	x18,184(x2)
     bc8:	24090863          	beqz	x18,e18 <_Z22tensorlib_lossnll_implIZ17tensorlib_lossnllEUliE_EiP11hb_tensor_tS2_S2_S2_PmPlT_+0x350>
     bcc:	0c012883          	lw	x17,192(x2)
     bd0:	0008ae03          	lw	x28,0(x17) # 81000000 <_end+0xffffcd2c>
     bd4:	1bc09c63          	bne	x1,x28,d8c <_Z22tensorlib_lossnll_implIZ17tensorlib_lossnllEUliE_EiP11hb_tensor_tS2_S2_S2_PmPlT_+0x2c4>
     bd8:	38008263          	beqz	x1,f5c <_Z22tensorlib_lossnll_implIZ17tensorlib_lossnllEUliE_EiP11hb_tensor_tS2_S2_S2_PmPlT_+0x494>
     bdc:	f0000753          	fmv.w.x	f14,x0
     be0:	0b412f83          	lw	x31,180(x2)
     be4:	0c412483          	lw	x9,196(x2)
     be8:	0bc12f03          	lw	x30,188(x2)
     bec:	08012803          	lw	x16,128(x2)
     bf0:	08812e83          	lw	x29,136(x2)
     bf4:	20e707d3          	fmv.s	f15,f14
     bf8:	00001437          	lui	x8,0x1
     bfc:	45042687          	flw	f13,1104(x8) # 1450 <_Z21hb_tiled_foreach_implIfZ14tensorlib_tanhEUlfE_JEEvjjT0_8HBTensorIT_Lln1EES4_PS3_S5_.isra.0+0x164>
     c00:	00100a13          	li	x20,1
     c04:	00000413          	li	x8,0
     c08:	00241793          	slli	x15,x8,0x2
     c0c:	1bf40e63          	beq	x8,x31,dc8 <_Z22tensorlib_lossnll_implIZ17tensorlib_lossnllEUliE_EiP11hb_tensor_tS2_S2_S2_PmPlT_+0x300>
     c10:	01491863          	bne	x18,x20,c20 <_Z22tensorlib_lossnll_implIZ17tensorlib_lossnllEUliE_EiP11hb_tensor_tS2_S2_S2_PmPlT_+0x158>
     c14:	000f2983          	lw	x19,0(x30)
     c18:	03340733          	mul	x14,x8,x19
     c1c:	00271793          	slli	x15,x14,0x2
     c20:	00f486b3          	add	x13,x9,x15
     c24:	0006a303          	lw	x6,0(x13)
     c28:	02658a63          	beq	x11,x6,c5c <_Z22tensorlib_lossnll_implIZ17tensorlib_lossnllEUliE_EiP11hb_tensor_tS2_S2_S2_PmPlT_+0x194>
     c2c:	00d77753          	fadd.s	f14,f14,f13
     c30:	22034a63          	bltz	x6,e64 <_Z22tensorlib_lossnll_implIZ17tensorlib_lossnllEUliE_EiP11hb_tensor_tS2_S2_S2_PmPlT_+0x39c>
     c34:	22a37863          	bgeu	x6,x10,e64 <_Z22tensorlib_lossnll_implIZ17tensorlib_lossnllEUliE_EiP11hb_tensor_tS2_S2_S2_PmPlT_+0x39c>
     c38:	00082383          	lw	x7,0(x16)
     c3c:	00482283          	lw	x5,4(x16)
     c40:	027408b3          	mul	x17,x8,x7
     c44:	02530e33          	mul	x28,x6,x5
     c48:	01c889b3          	add	x19,x17,x28
     c4c:	00299713          	slli	x14,x19,0x2
     c50:	00ee87b3          	add	x15,x29,x14
     c54:	0007a607          	flw	f12,0(x15)
     c58:	08c7f7d3          	fsub.s	f15,f15,f12
     c5c:	00140413          	addi	x8,x8,1
     c60:	fa1414e3          	bne	x8,x1,c08 <_Z22tensorlib_lossnll_implIZ17tensorlib_lossnllEUliE_EiP11hb_tensor_tS2_S2_S2_PmPlT_+0x140>
     c64:	00100593          	li	x11,1
     c68:	f0b612e3          	bne	x12,x11,b6c <_Z22tensorlib_lossnll_implIZ17tensorlib_lossnllEUliE_EiP11hb_tensor_tS2_S2_S2_PmPlT_+0xa4>
     c6c:	f0000053          	fmv.w.x	f0,x0
     c70:	a0072653          	feq.s	x12,f14,f0
     c74:	06061263          	bnez	x12,cd8 <_Z22tensorlib_lossnll_implIZ17tensorlib_lossnllEUliE_EiP11hb_tensor_tS2_S2_S2_PmPlT_+0x210>
     c78:	18e7f7d3          	fdiv.s	f15,f15,f14
     c7c:	ef1ff06f          	j	b6c <_Z22tensorlib_lossnll_implIZ17tensorlib_lossnllEUliE_EiP11hb_tensor_tS2_S2_S2_PmPlT_+0xa4>
     c80:	81000437          	lui	x8,0x81000
     c84:	81000537          	lui	x10,0x81000
     c88:	06f00613          	li	x12,111
     c8c:	00040593          	mv	x11,x8
     c90:	05850513          	addi	x10,x10,88 # 81000058 <_end+0xffffcd84>
     c94:	2542a0ef          	jal	x1,2aee8 <bsg_printf>
     c98:	07c12583          	lw	x11,124(x2)
     c9c:	81000737          	lui	x14,0x81000
     ca0:	09070513          	addi	x10,x14,144 # 81000090 <_end+0xffffcdbc>
     ca4:	2442a0ef          	jal	x1,2aee8 <bsg_printf>
     ca8:	000015b7          	lui	x11,0x1
     cac:	5445a383          	lw	x7,1348(x11) # 1544 <__bsg_y>
     cb0:	000012b7          	lui	x5,0x1
     cb4:	5482af83          	lw	x31,1352(x5) # 1548 <__bsg_x>
     cb8:	01039e13          	slli	x28,x7,0x10
     cbc:	4100feb7          	lui	x29,0x4100f
     cc0:	01fe0f33          	add	x30,x28,x31
     cc4:	adeeac23          	sw	x30,-1320(x29) # 4100ead8 <_bsg_elf_dram_size+0x2100ead8>
     cc8:	0000006f          	j	cc8 <_Z22tensorlib_lossnll_implIZ17tensorlib_lossnllEUliE_EiP11hb_tensor_tS2_S2_S2_PmPlT_+0x200>
     ccc:	f00007d3          	fmv.w.x	f15,x0
     cd0:	20f78753          	fmv.s	f14,f15
     cd4:	e8f61ce3          	bne	x12,x15,b6c <_Z22tensorlib_lossnll_implIZ17tensorlib_lossnllEUliE_EiP11hb_tensor_tS2_S2_S2_PmPlT_+0xa4>
     cd8:	07812583          	lw	x11,120(x2)
     cdc:	f0000753          	fmv.w.x	f14,x0
     ce0:	e80596e3          	bnez	x11,b6c <_Z22tensorlib_lossnll_implIZ17tensorlib_lossnllEUliE_EiP11hb_tensor_tS2_S2_S2_PmPlT_+0xa4>
     ce4:	18e7f7d3          	fdiv.s	f15,f15,f14
     ce8:	e85ff06f          	j	b6c <_Z22tensorlib_lossnll_implIZ17tensorlib_lossnllEUliE_EiP11hb_tensor_tS2_S2_S2_PmPlT_+0xa4>
     cec:	81000e37          	lui	x28,0x81000
     cf0:	810009b7          	lui	x19,0x81000
     cf4:	000e0593          	mv	x11,x28
     cf8:	08c00613          	li	x12,140
     cfc:	05898513          	addi	x10,x19,88 # 81000058 <_end+0xffffcd84>
     d00:	1e82a0ef          	jal	x1,2aee8 <bsg_printf>
     d04:	00012583          	lw	x11,0(x2)
     d08:	810007b7          	lui	x15,0x81000
     d0c:	00000613          	li	x12,0
     d10:	0b878513          	addi	x10,x15,184 # 810000b8 <_end+0xffffcde4>
     d14:	1d42a0ef          	jal	x1,2aee8 <bsg_printf>
     d18:	00001737          	lui	x14,0x1
     d1c:	54472403          	lw	x8,1348(x14) # 1544 <__bsg_y>
     d20:	000015b7          	lui	x11,0x1
     d24:	5485a503          	lw	x10,1352(x11) # 1548 <__bsg_x>
     d28:	01041613          	slli	x12,x8,0x10
     d2c:	4100ffb7          	lui	x31,0x4100f
     d30:	00a60933          	add	x18,x12,x10
     d34:	ad2fac23          	sw	x18,-1320(x31) # 4100ead8 <_bsg_elf_dram_size+0x2100ead8>
     d38:	0000006f          	j	d38 <_Z22tensorlib_lossnll_implIZ17tensorlib_lossnllEUliE_EiP11hb_tensor_tS2_S2_S2_PmPlT_+0x270>
     d3c:	81000f37          	lui	x30,0x81000
     d40:	810004b7          	lui	x9,0x81000
     d44:	08c00613          	li	x12,140
     d48:	00048593          	mv	x11,x9
     d4c:	058f0513          	addi	x10,x30,88 # 81000058 <_end+0xffffcd84>
     d50:	1982a0ef          	jal	x1,2aee8 <bsg_printf>
     d54:	03c12583          	lw	x11,60(x2)
     d58:	81000837          	lui	x16,0x81000
     d5c:	00000613          	li	x12,0
     d60:	0b880513          	addi	x10,x16,184 # 810000b8 <_end+0xffffcde4>
     d64:	1842a0ef          	jal	x1,2aee8 <bsg_printf>
     d68:	00001eb7          	lui	x29,0x1
     d6c:	544eaa03          	lw	x20,1348(x29) # 1544 <__bsg_y>
     d70:	000016b7          	lui	x13,0x1
     d74:	5486a303          	lw	x6,1352(x13) # 1548 <__bsg_x>
     d78:	010a1393          	slli	x7,x20,0x10
     d7c:	4100f8b7          	lui	x17,0x4100f
     d80:	006382b3          	add	x5,x7,x6
     d84:	ac58ac23          	sw	x5,-1320(x17) # 4100ead8 <_bsg_elf_dram_size+0x2100ead8>
     d88:	0000006f          	j	d88 <_Z22tensorlib_lossnll_implIZ17tensorlib_lossnllEUliE_EiP11hb_tensor_tS2_S2_S2_PmPlT_+0x2c0>
     d8c:	81000537          	lui	x10,0x81000
     d90:	810000b7          	lui	x1,0x81000
     d94:	03d00613          	li	x12,61
     d98:	0d850593          	addi	x11,x10,216 # 810000d8 <_end+0xffffce04>
     d9c:	0ec08513          	addi	x10,x1,236 # 810000ec <_end+0xffffce18>
     da0:	1482a0ef          	jal	x1,2aee8 <bsg_printf>
     da4:	00001637          	lui	x12,0x1
     da8:	54462903          	lw	x18,1348(x12) # 1544 <__bsg_y>
     dac:	00001fb7          	lui	x31,0x1
     db0:	548fa483          	lw	x9,1352(x31) # 1548 <__bsg_x>
     db4:	01091f13          	slli	x30,x18,0x10
     db8:	4100feb7          	lui	x29,0x4100f
     dbc:	009f0833          	add	x16,x30,x9
     dc0:	ad0eac23          	sw	x16,-1320(x29) # 4100ead8 <_bsg_elf_dram_size+0x2100ead8>
     dc4:	0000006f          	j	dc4 <_Z22tensorlib_lossnll_implIZ17tensorlib_lossnllEUliE_EiP11hb_tensor_tS2_S2_S2_PmPlT_+0x2fc>
     dc8:	810006b7          	lui	x13,0x81000
     dcc:	81000337          	lui	x6,0x81000
     dd0:	00068593          	mv	x11,x13
     dd4:	08c00613          	li	x12,140
     dd8:	05830513          	addi	x10,x6,88 # 81000058 <_end+0xffffcd84>
     ddc:	10c2a0ef          	jal	x1,2aee8 <bsg_printf>
     de0:	0b412583          	lw	x11,180(x2)
     de4:	810003b7          	lui	x7,0x81000
     de8:	00040613          	mv	x12,x8
     dec:	0b838513          	addi	x10,x7,184 # 810000b8 <_end+0xffffcde4>
     df0:	0f82a0ef          	jal	x1,2aee8 <bsg_printf>
     df4:	000012b7          	lui	x5,0x1
     df8:	5442a883          	lw	x17,1348(x5) # 1544 <__bsg_y>
     dfc:	00001e37          	lui	x28,0x1
     e00:	548e2983          	lw	x19,1352(x28) # 1548 <__bsg_x>
     e04:	01089713          	slli	x14,x17,0x10
     e08:	4100f437          	lui	x8,0x4100f
     e0c:	013707b3          	add	x15,x14,x19
     e10:	acf42c23          	sw	x15,-1320(x8) # 4100ead8 <_bsg_elf_dram_size+0x2100ead8>
     e14:	0000006f          	j	e14 <_Z22tensorlib_lossnll_implIZ17tensorlib_lossnllEUliE_EiP11hb_tensor_tS2_S2_S2_PmPlT_+0x34c>
     e18:	810006b7          	lui	x13,0x81000
     e1c:	81000a37          	lui	x20,0x81000
     e20:	06f00613          	li	x12,111
     e24:	000a0593          	mv	x11,x20
     e28:	05868513          	addi	x10,x13,88 # 81000058 <_end+0xffffcd84>
     e2c:	0bc2a0ef          	jal	x1,2aee8 <bsg_printf>
     e30:	0b812583          	lw	x11,184(x2)
     e34:	81000337          	lui	x6,0x81000
     e38:	09030513          	addi	x10,x6,144 # 81000090 <_end+0xffffcdbc>
     e3c:	0ac2a0ef          	jal	x1,2aee8 <bsg_printf>
     e40:	000013b7          	lui	x7,0x1
     e44:	5443a283          	lw	x5,1348(x7) # 1544 <__bsg_y>
     e48:	000018b7          	lui	x17,0x1
     e4c:	5488ae03          	lw	x28,1352(x17) # 1548 <__bsg_x>
     e50:	01029993          	slli	x19,x5,0x10
     e54:	4100f737          	lui	x14,0x4100f
     e58:	01c987b3          	add	x15,x19,x28
     e5c:	acf72c23          	sw	x15,-1320(x14) # 4100ead8 <_bsg_elf_dram_size+0x2100ead8>
     e60:	0000006f          	j	e60 <_Z22tensorlib_lossnll_implIZ17tensorlib_lossnllEUliE_EiP11hb_tensor_tS2_S2_S2_PmPlT_+0x398>
     e64:	81000537          	lui	x10,0x81000
     e68:	810000b7          	lui	x1,0x81000
     e6c:	0d850593          	addi	x11,x10,216 # 810000d8 <_end+0xffffce04>
     e70:	04200613          	li	x12,66
     e74:	0ec08513          	addi	x10,x1,236 # 810000ec <_end+0xffffce18>
     e78:	0702a0ef          	jal	x1,2aee8 <bsg_printf>
     e7c:	00001937          	lui	x18,0x1
     e80:	54492f83          	lw	x31,1348(x18) # 1544 <__bsg_y>
     e84:	000014b7          	lui	x9,0x1
     e88:	5484af03          	lw	x30,1352(x9) # 1548 <__bsg_x>
     e8c:	010f9813          	slli	x16,x31,0x10
     e90:	4100fa37          	lui	x20,0x4100f
     e94:	01e80eb3          	add	x29,x16,x30
     e98:	adda2c23          	sw	x29,-1320(x20) # 4100ead8 <_bsg_elf_dram_size+0x2100ead8>
     e9c:	0000006f          	j	e9c <_Z22tensorlib_lossnll_implIZ17tensorlib_lossnllEUliE_EiP11hb_tensor_tS2_S2_S2_PmPlT_+0x3d4>
     ea0:	fff08493          	addi	x9,x1,-1
     ea4:	ffd00f13          	li	x30,-3
     ea8:	ce9f62e3          	bltu	x30,x9,b8c <_Z22tensorlib_lossnll_implIZ17tensorlib_lossnllEUliE_EiP11hb_tensor_tS2_S2_S2_PmPlT_+0xc4>
     eac:	00001837          	lui	x16,0x1
     eb0:	54082e83          	lw	x29,1344(x16) # 1540 <__bsg_id>
     eb4:	0070da13          	srli	x20,x1,0x7
     eb8:	001a0693          	addi	x13,x20,1
     ebc:	07fef313          	andi	x6,x29,127
     ec0:	02d30433          	mul	x8,x6,x13
     ec4:	00868733          	add	x14,x13,x8
     ec8:	00e0f463          	bgeu	x1,x14,ed0 <_Z22tensorlib_lossnll_implIZ17tensorlib_lossnllEUliE_EiP11hb_tensor_tS2_S2_S2_PmPlT_+0x408>
     ecc:	00008713          	mv	x14,x1
     ed0:	cae47ee3          	bgeu	x8,x14,b8c <_Z22tensorlib_lossnll_implIZ17tensorlib_lossnllEUliE_EiP11hb_tensor_tS2_S2_S2_PmPlT_+0xc4>
     ed4:	0b412083          	lw	x1,180(x2)
     ed8:	0b812383          	lw	x7,184(x2)
     edc:	0c412283          	lw	x5,196(x2)
     ee0:	0bc12f83          	lw	x31,188(x2)
     ee4:	08012e03          	lw	x28,128(x2)
     ee8:	08812f03          	lw	x30,136(x2)
     eec:	00012e83          	lw	x29,0(x2)
     ef0:	00412883          	lw	x17,4(x2)
     ef4:	01012a03          	lw	x20,16(x2)
     ef8:	00812803          	lw	x16,8(x2)
     efc:	00100613          	li	x12,1
     f00:	0c147c63          	bgeu	x8,x1,fd8 <_Z22tensorlib_lossnll_implIZ17tensorlib_lossnllEUliE_EiP11hb_tensor_tS2_S2_S2_PmPlT_+0x510>
     f04:	06c38e63          	beq	x7,x12,f80 <_Z22tensorlib_lossnll_implIZ17tensorlib_lossnllEUliE_EiP11hb_tensor_tS2_S2_S2_PmPlT_+0x4b8>
     f08:	00241693          	slli	x13,x8,0x2
     f0c:	00d284b3          	add	x9,x5,x13
     f10:	0004a303          	lw	x6,0(x9)
     f14:	04658a63          	beq	x11,x6,f68 <_Z22tensorlib_lossnll_implIZ17tensorlib_lossnllEUliE_EiP11hb_tensor_tS2_S2_S2_PmPlT_+0x4a0>
     f18:	00034463          	bltz	x6,f20 <_Z22tensorlib_lossnll_implIZ17tensorlib_lossnllEUliE_EiP11hb_tensor_tS2_S2_S2_PmPlT_+0x458>
     f1c:	06a36c63          	bltu	x6,x10,f94 <_Z22tensorlib_lossnll_implIZ17tensorlib_lossnllEUliE_EiP11hb_tensor_tS2_S2_S2_PmPlT_+0x4cc>
     f20:	810000b7          	lui	x1,0x81000
     f24:	810008b7          	lui	x17,0x81000
     f28:	02500613          	li	x12,37
     f2c:	0d808593          	addi	x11,x1,216 # 810000d8 <_end+0xffffce04>
     f30:	0ec88513          	addi	x10,x17,236 # 810000ec <_end+0xffffce18>
     f34:	7b5290ef          	jal	x1,2aee8 <bsg_printf>
     f38:	00001a37          	lui	x20,0x1
     f3c:	544a2803          	lw	x16,1348(x20) # 1544 <__bsg_y>
     f40:	00001637          	lui	x12,0x1
     f44:	54862683          	lw	x13,1352(x12) # 1548 <__bsg_x>
     f48:	01081493          	slli	x9,x16,0x10
     f4c:	4100f937          	lui	x18,0x4100f
     f50:	00d48333          	add	x6,x9,x13
     f54:	ac692c23          	sw	x6,-1320(x18) # 4100ead8 <_bsg_elf_dram_size+0x2100ead8>
     f58:	0000006f          	j	f58 <_Z22tensorlib_lossnll_implIZ17tensorlib_lossnllEUliE_EiP11hb_tensor_tS2_S2_S2_PmPlT_+0x490>
     f5c:	c0f614e3          	bne	x12,x15,b64 <_Z22tensorlib_lossnll_implIZ17tensorlib_lossnllEUliE_EiP11hb_tensor_tS2_S2_S2_PmPlT_+0x9c>
     f60:	f00007d3          	fmv.w.x	f15,x0
     f64:	d75ff06f          	j	cd8 <_Z22tensorlib_lossnll_implIZ17tensorlib_lossnllEUliE_EiP11hb_tensor_tS2_S2_S2_PmPlT_+0x210>
     f68:	0dd47c63          	bgeu	x8,x29,1040 <_bsg_data_start_addr+0x40>
     f6c:	0ac88e63          	beq	x17,x12,1028 <_bsg_data_start_addr+0x28>
     f70:	00241313          	slli	x6,x8,0x2
     f74:	006a04b3          	add	x9,x20,x6
     f78:	0004a023          	sw	x0,0(x9)
     f7c:	0500006f          	j	fcc <_Z22tensorlib_lossnll_implIZ17tensorlib_lossnllEUliE_EiP11hb_tensor_tS2_S2_S2_PmPlT_+0x504>
     f80:	000fa983          	lw	x19,0(x31)
     f84:	033407b3          	mul	x15,x8,x19
     f88:	00279913          	slli	x18,x15,0x2
     f8c:	012284b3          	add	x9,x5,x18
     f90:	f81ff06f          	j	f10 <_Z22tensorlib_lossnll_implIZ17tensorlib_lossnllEUliE_EiP11hb_tensor_tS2_S2_S2_PmPlT_+0x448>
     f94:	11d47863          	bgeu	x8,x29,10a4 <_bsg_data_start_addr+0xa4>
     f98:	0ec88c63          	beq	x17,x12,1090 <_bsg_data_start_addr+0x90>
     f9c:	00241493          	slli	x9,x8,0x2
     fa0:	009a06b3          	add	x13,x20,x9
     fa4:	000e2783          	lw	x15,0(x28)
     fa8:	004e2983          	lw	x19,4(x28)
     fac:	02f404b3          	mul	x9,x8,x15
     fb0:	03330333          	mul	x6,x6,x19
     fb4:	00648933          	add	x18,x9,x6
     fb8:	00291793          	slli	x15,x18,0x2
     fbc:	00ff09b3          	add	x19,x30,x15
     fc0:	0009a087          	flw	f1,0(x19)
     fc4:	20109153          	fneg.s	f2,f1
     fc8:	0026a027          	fsw	f2,0(x13)
     fcc:	00140413          	addi	x8,x8,1
     fd0:	f28718e3          	bne	x14,x8,f00 <_Z22tensorlib_lossnll_implIZ17tensorlib_lossnllEUliE_EiP11hb_tensor_tS2_S2_S2_PmPlT_+0x438>
     fd4:	bb9ff06f          	j	b8c <_Z22tensorlib_lossnll_implIZ17tensorlib_lossnllEUliE_EiP11hb_tensor_tS2_S2_S2_PmPlT_+0xc4>
     fd8:	810000b7          	lui	x1,0x81000
     fdc:	81000a37          	lui	x20,0x81000
     fe0:	00008593          	mv	x11,x1
     fe4:	08c00613          	li	x12,140
     fe8:	058a0513          	addi	x10,x20,88 # 81000058 <_end+0xffffcd84>
     fec:	6fd290ef          	jal	x1,2aee8 <bsg_printf>
     ff0:	0b412583          	lw	x11,180(x2)
     ff4:	81000837          	lui	x16,0x81000
     ff8:	00040613          	mv	x12,x8
     ffc:	0b880513          	addi	x10,x16,184 # 810000b8 <_end+0xffffcde4>
    1000:	6e9290ef          	jal	x1,2aee8 <bsg_printf>
    1004:	00001637          	lui	x12,0x1
    1008:	54462903          	lw	x18,1348(x12) # 1544 <__bsg_y>
    100c:	000017b7          	lui	x15,0x1
    1010:	5487a983          	lw	x19,1352(x15) # 1548 <__bsg_x>
    1014:	01091693          	slli	x13,x18,0x10
    1018:	4100f337          	lui	x6,0x4100f
    101c:	013684b3          	add	x9,x13,x19
    1020:	ac932c23          	sw	x9,-1320(x6) # 4100ead8 <_bsg_elf_dram_size+0x2100ead8>
    1024:	0000006f          	j	1024 <_bsg_data_start_addr+0x24>
    1028:	00082783          	lw	x15,0(x16)
    102c:	02f409b3          	mul	x19,x8,x15
    1030:	00299693          	slli	x13,x19,0x2
    1034:	00da04b3          	add	x9,x20,x13
    1038:	0004a023          	sw	x0,0(x9)
    103c:	f91ff06f          	j	fcc <_Z22tensorlib_lossnll_implIZ17tensorlib_lossnllEUliE_EiP11hb_tensor_tS2_S2_S2_PmPlT_+0x504>
    1040:	810005b7          	lui	x11,0x81000
    1044:	81000537          	lui	x10,0x81000
    1048:	00058593          	mv	x11,x11
    104c:	08c00613          	li	x12,140
    1050:	05850513          	addi	x10,x10,88 # 81000058 <_end+0xffffcd84>
    1054:	695290ef          	jal	x1,2aee8 <bsg_printf>
    1058:	00012583          	lw	x11,0(x2)
    105c:	81000737          	lui	x14,0x81000
    1060:	00040613          	mv	x12,x8
    1064:	0b870513          	addi	x10,x14,184 # 810000b8 <_end+0xffffcde4>
    1068:	681290ef          	jal	x1,2aee8 <bsg_printf>
    106c:	000013b7          	lui	x7,0x1
    1070:	5443a283          	lw	x5,1348(x7) # 1544 <__bsg_y>
    1074:	00001fb7          	lui	x31,0x1
    1078:	548fae03          	lw	x28,1352(x31) # 1548 <__bsg_x>
    107c:	01029f13          	slli	x30,x5,0x10
    1080:	4100f8b7          	lui	x17,0x4100f
    1084:	01cf0eb3          	add	x29,x30,x28
    1088:	add8ac23          	sw	x29,-1320(x17) # 4100ead8 <_bsg_elf_dram_size+0x2100ead8>
    108c:	0000006f          	j	108c <_bsg_data_start_addr+0x8c>
    1090:	00082983          	lw	x19,0(x16)
    1094:	033407b3          	mul	x15,x8,x19
    1098:	00279913          	slli	x18,x15,0x2
    109c:	012a06b3          	add	x13,x20,x18
    10a0:	f05ff06f          	j	fa4 <_Z22tensorlib_lossnll_implIZ17tensorlib_lossnllEUliE_EiP11hb_tensor_tS2_S2_S2_PmPlT_+0x4dc>
    10a4:	810005b7          	lui	x11,0x81000
    10a8:	81000537          	lui	x10,0x81000
    10ac:	00058593          	mv	x11,x11
    10b0:	08c00613          	li	x12,140
    10b4:	05850513          	addi	x10,x10,88 # 81000058 <_end+0xffffcd84>
    10b8:	631290ef          	jal	x1,2aee8 <bsg_printf>
    10bc:	00012583          	lw	x11,0(x2)
    10c0:	00040613          	mv	x12,x8
    10c4:	81000437          	lui	x8,0x81000
    10c8:	0b840513          	addi	x10,x8,184 # 810000b8 <_end+0xffffcde4>
    10cc:	61d290ef          	jal	x1,2aee8 <bsg_printf>
    10d0:	00001737          	lui	x14,0x1
    10d4:	54472383          	lw	x7,1348(x14) # 1544 <__bsg_y>
    10d8:	000012b7          	lui	x5,0x1
    10dc:	5482af83          	lw	x31,1352(x5) # 1548 <__bsg_x>
    10e0:	01039e13          	slli	x28,x7,0x10
    10e4:	4100feb7          	lui	x29,0x4100f
    10e8:	01fe0f33          	add	x30,x28,x31
    10ec:	adeeac23          	sw	x30,-1320(x29) # 4100ead8 <_bsg_elf_dram_size+0x2100ead8>
    10f0:	0000006f          	j	10f0 <_bsg_data_start_addr+0xf0>

000010f4 <tensorlib_lossnll>:
    10f4:	ff010113          	addi	x2,x2,-16
    10f8:	00000813          	li	x16,0
    10fc:	00112623          	sw	x1,12(x2)
    1100:	9c9ff0ef          	jal	x1,ac8 <_Z22tensorlib_lossnll_implIZ17tensorlib_lossnllEUliE_EiP11hb_tensor_tS2_S2_S2_PmPlT_>
    1104:	00001637          	lui	x12,0x1
    1108:	54862703          	lw	x14,1352(x12) # 1548 <__bsg_x>
    110c:	00001837          	lui	x16,0x1
    1110:	54482683          	lw	x13,1348(x16) # 1544 <__bsg_y>
    1114:	000015b7          	lui	x11,0x1
    1118:	00470293          	addi	x5,x14,4
    111c:	57458793          	addi	x15,x11,1396 # 1574 <g_barrier>
    1120:	00578333          	add	x6,x15,x5
    1124:	01869393          	slli	x7,x13,0x18
    1128:	00736533          	or	x10,x6,x7
    112c:	201c08b7          	lui	x17,0x201c0
    1130:	01156e33          	or	x28,x10,x17
    1134:	00100e93          	li	x29,1
    1138:	01de0023          	sb	x29,0(x28)
    113c:	54862f03          	lw	x30,1352(x12)
    1140:	00700f93          	li	x31,7
    1144:	03ff0c63          	beq	x30,x31,117c <tensorlib_lossnll+0x88>
    1148:	00100813          	li	x16,1
    114c:	0100006f          	j	115c <tensorlib_lossnll+0x68>
    1150:	57458713          	addi	x14,x11,1396
    1154:	14072faf          	lr.w.aq	x31,(x14)
    1158:	010f8863          	beq	x31,x16,1168 <tensorlib_lossnll+0x74>
    115c:	57458293          	addi	x5,x11,1396
    1160:	1002a52f          	lr.w	x10,(x5)
    1164:	ff0516e3          	bne	x10,x16,1150 <tensorlib_lossnll+0x5c>
    1168:	00c12083          	lw	x1,12(x2)
    116c:	0007a023          	sw	x0,0(x15)
    1170:	00000513          	li	x10,0
    1174:	01010113          	addi	x2,x2,16
    1178:	00008067          	ret
    117c:	000010b7          	lui	x1,0x1
    1180:	00001737          	lui	x14,0x1
    1184:	57808293          	addi	x5,x1,1400 # 1578 <g_barrier+0x4>
    1188:	58870393          	addi	x7,x14,1416 # 1588 <g_barrier+0x14>
    118c:	00028313          	mv	x6,x5
    1190:	00034683          	lbu	x13,0(x6)
    1194:	00130313          	addi	x6,x6,1
    1198:	0ff6f513          	andi	x10,x13,255
    119c:	fe0508e3          	beqz	x10,118c <tensorlib_lossnll+0x98>
    11a0:	fe6398e3          	bne	x7,x6,1190 <tensorlib_lossnll+0x9c>
    11a4:	54482883          	lw	x17,1348(x16)
    11a8:	231c0f37          	lui	x30,0x231c0
    11ac:	00100093          	li	x1,1
    11b0:	01888e13          	addi	x28,x17,24 # 201c0018 <_bsg_elf_dram_size+0x1c0018>
    11b4:	01c78eb3          	add	x29,x15,x28
    11b8:	01eeefb3          	or	x31,x29,x30
    11bc:	001f8023          	sb	x1,0(x31)
    11c0:	54862283          	lw	x5,1352(x12)
    11c4:	00700713          	li	x14,7
    11c8:	f8e290e3          	bne	x5,x14,1148 <tensorlib_lossnll+0x54>
    11cc:	54482303          	lw	x6,1348(x16)
    11d0:	00300693          	li	x13,3
    11d4:	06d30e63          	beq	x6,x13,1250 <tensorlib_lossnll+0x15c>
    11d8:	00100893          	li	x17,1
    11dc:	0100006f          	j	11ec <tensorlib_lossnll+0xf8>
    11e0:	01478e13          	addi	x28,x15,20
    11e4:	140e232f          	lr.w.aq	x6,(x28)
    11e8:	01130863          	beq	x6,x17,11f8 <tensorlib_lossnll+0x104>
    11ec:	01478f13          	addi	x30,x15,20
    11f0:	100f2eaf          	lr.w	x29,(x30)
    11f4:	ff1e96e3          	bne	x29,x17,11e0 <tensorlib_lossnll+0xec>
    11f8:	0007aa23          	sw	x0,20(x15)
    11fc:	00000713          	li	x14,0
    1200:	01000293          	li	x5,16
    1204:	00e78533          	add	x10,x15,x14
    1208:	00050223          	sb	x0,4(x10)
    120c:	00170713          	addi	x14,x14,1
    1210:	fe571ae3          	bne	x14,x5,1204 <tensorlib_lossnll+0x110>
    1214:	0007a023          	sw	x0,0(x15)
    1218:	00000693          	li	x13,0
    121c:	20000fb7          	lui	x31,0x20000
    1220:	00100093          	li	x1,1
    1224:	000403b7          	lui	x7,0x40
    1228:	004008b7          	lui	x17,0x400
    122c:	54482f03          	lw	x30,1348(x16)
    1230:	00d7e633          	or	x12,x15,x13
    1234:	007686b3          	add	x13,x13,x7
    1238:	018f1e93          	slli	x29,x30,0x18
    123c:	00ceee33          	or	x28,x29,x12
    1240:	01fe6333          	or	x6,x28,x31
    1244:	00132023          	sw	x1,0(x6)
    1248:	ff1692e3          	bne	x13,x17,122c <tensorlib_lossnll+0x138>
    124c:	efdff06f          	j	1148 <tensorlib_lossnll+0x54>
    1250:	00001537          	lui	x10,0x1
    1254:	00001e37          	lui	x28,0x1
    1258:	58c50893          	addi	x17,x10,1420 # 158c <g_barrier+0x18>
    125c:	594e0e93          	addi	x29,x28,1428 # 1594 <_tls_data>
    1260:	00088f93          	mv	x31,x17
    1264:	000fcf03          	lbu	x30,0(x31) # 20000000 <_bsg_elf_dram_size>
    1268:	001f8f93          	addi	x31,x31,1
    126c:	0fff7093          	andi	x1,x30,255
    1270:	fe0088e3          	beqz	x1,1260 <tensorlib_lossnll+0x16c>
    1274:	fffe98e3          	bne	x29,x31,1264 <tensorlib_lossnll+0x170>
    1278:	00078c23          	sb	x0,24(x15)
    127c:	00078ca3          	sb	x0,25(x15)
    1280:	00078d23          	sb	x0,26(x15)
    1284:	00078da3          	sb	x0,27(x15)
    1288:	00078e23          	sb	x0,28(x15)
    128c:	00078ea3          	sb	x0,29(x15)
    1290:	00078f23          	sb	x0,30(x15)
    1294:	00078fa3          	sb	x0,31(x15)
    1298:	0007aa23          	sw	x0,20(x15)
    129c:	00000693          	li	x13,0
    12a0:	03fc08b7          	lui	x17,0x3fc0
    12a4:	20000f37          	lui	x30,0x20000
    12a8:	00100e93          	li	x29,1
    12ac:	01000e37          	lui	x28,0x1000
    12b0:	08000337          	lui	x6,0x8000
    12b4:	0080006f          	j	12bc <tensorlib_lossnll+0x1c8>
    12b8:	54862283          	lw	x5,1352(x12)
    12bc:	01229293          	slli	x5,x5,0x12
    12c0:	00d3e533          	or	x10,x7,x13
    12c4:	0112f733          	and	x14,x5,x17
    12c8:	00a76fb3          	or	x31,x14,x10
    12cc:	01efe0b3          	or	x1,x31,x30
    12d0:	01d0a023          	sw	x29,0(x1)
    12d4:	01c686b3          	add	x13,x13,x28
    12d8:	fe6690e3          	bne	x13,x6,12b8 <tensorlib_lossnll+0x1c4>
    12dc:	54862603          	lw	x12,1352(x12)
    12e0:	00700393          	li	x7,7
    12e4:	ee760ae3          	beq	x12,x7,11d8 <tensorlib_lossnll+0xe4>
    12e8:	e61ff06f          	j	1148 <tensorlib_lossnll+0x54>

000012ec <_Z21hb_tiled_foreach_implIfZ14tensorlib_tanhEUlfE_JEEvjjT0_8HBTensorIT_Lln1EES4_PS3_S5_.isra.0>:
    12ec:	fc010113          	addi	x2,x2,-64
    12f0:	02812c23          	sw	x8,56(x2)
    12f4:	02912a23          	sw	x9,52(x2)
    12f8:	03512223          	sw	x21,36(x2)
    12fc:	03612023          	sw	x22,32(x2)
    1300:	01712e23          	sw	x23,28(x2)
    1304:	01812c23          	sw	x24,24(x2)
    1308:	00060413          	mv	x8,x12
    130c:	02112e23          	sw	x1,60(x2)
    1310:	03212823          	sw	x18,48(x2)
    1314:	03312623          	sw	x19,44(x2)
    1318:	03412423          	sw	x20,40(x2)
    131c:	01912a23          	sw	x25,20(x2)
    1320:	01a12823          	sw	x26,16(x2)
    1324:	01b12623          	sw	x27,12(x2)
    1328:	00100613          	li	x12,1
    132c:	04412c03          	lw	x24,68(x2)
    1330:	00050a93          	mv	x21,x10
    1334:	00058493          	mv	x9,x11
    1338:	00068b93          	mv	x23,x13
    133c:	00080b13          	mv	x22,x16
    1340:	10c40463          	beq	x8,x12,1448 <_Z21hb_tiled_foreach_implIfZ14tensorlib_tanhEUlfE_JEEvjjT0_8HBTensorIT_Lln1EES4_PS3_S5_.isra.0+0x15c>
    1344:	0ab57c63          	bgeu	x10,x11,13fc <_Z21hb_tiled_foreach_implIfZ14tensorlib_tanhEUlfE_JEEvjjT0_8HBTensorIT_Lln1EES4_PS3_S5_.isra.0+0x110>
    1348:	00279d93          	slli	x27,x15,0x2
    134c:	00241d13          	slli	x26,x8,0x2
    1350:	00070993          	mv	x19,x14
    1354:	00078913          	mv	x18,x15
    1358:	00088a13          	mv	x20,x17
    135c:	01b88db3          	add	x27,x17,x27
    1360:	01a70d33          	add	x26,x14,x26
    1364:	0c090e63          	beqz	x18,1440 <_Z21hb_tiled_foreach_implIfZ14tensorlib_tanhEUlfE_JEEvjjT0_8HBTensorIT_Lln1EES4_PS3_S5_.isra.0+0x154>
    1368:	000b0693          	mv	x13,x22
    136c:	000a0313          	mv	x6,x20
    1370:	000a8713          	mv	x14,x21
    1374:	00000393          	li	x7,0
    1378:	00032083          	lw	x1,0(x6) # 8000000 <_bsg_elf_vcache_size+0x7f80000>
    137c:	0006a803          	lw	x16,0(x13)
    1380:	00430313          	addi	x6,x6,4
    1384:	021777b3          	remu	x15,x14,x1
    1388:	00468693          	addi	x13,x13,4
    138c:	030782b3          	mul	x5,x15,x16
    1390:	02175733          	divu	x14,x14,x1
    1394:	005383b3          	add	x7,x7,x5
    1398:	fe6d90e3          	bne	x27,x6,1378 <_Z21hb_tiled_foreach_implIfZ14tensorlib_tanhEUlfE_JEEvjjT0_8HBTensorIT_Lln1EES4_PS3_S5_.isra.0+0x8c>
    139c:	00239513          	slli	x10,x7,0x2
    13a0:	00ac05b3          	add	x11,x24,x10
    13a4:	0005a507          	flw	f10,0(x11)
    13a8:	08040863          	beqz	x8,1438 <_Z21hb_tiled_foreach_implIfZ14tensorlib_tanhEUlfE_JEEvjjT0_8HBTensorIT_Lln1EES4_PS3_S5_.isra.0+0x14c>
    13ac:	000b8f93          	mv	x31,x23
    13b0:	00098f13          	mv	x30,x19
    13b4:	000a8593          	mv	x11,x21
    13b8:	00000093          	li	x1,0
    13bc:	000f2883          	lw	x17,0(x30) # 20000000 <_bsg_elf_dram_size>
    13c0:	000fae83          	lw	x29,0(x31)
    13c4:	004f0f13          	addi	x30,x30,4
    13c8:	004f8f93          	addi	x31,x31,4
    13cc:	0315fe33          	remu	x28,x11,x17
    13d0:	03de0633          	mul	x12,x28,x29
    13d4:	0315d5b3          	divu	x11,x11,x17
    13d8:	00c080b3          	add	x1,x1,x12
    13dc:	ffed10e3          	bne	x26,x30,13bc <_Z21hb_tiled_foreach_implIfZ14tensorlib_tanhEUlfE_JEEvjjT0_8HBTensorIT_Lln1EES4_PS3_S5_.isra.0+0xd0>
    13e0:	04012303          	lw	x6,64(x2)
    13e4:	00209813          	slli	x16,x1,0x2
    13e8:	01030cb3          	add	x25,x6,x16
    13ec:	0392a0ef          	jal	x1,2bc24 <tanhf>
    13f0:	001a8a93          	addi	x21,x21,1
    13f4:	00aca027          	fsw	f10,0(x25)
    13f8:	f75496e3          	bne	x9,x21,1364 <_Z21hb_tiled_foreach_implIfZ14tensorlib_tanhEUlfE_JEEvjjT0_8HBTensorIT_Lln1EES4_PS3_S5_.isra.0+0x78>
    13fc:	03c12083          	lw	x1,60(x2)
    1400:	03812403          	lw	x8,56(x2)
    1404:	03412483          	lw	x9,52(x2)
    1408:	03012903          	lw	x18,48(x2)
    140c:	02c12983          	lw	x19,44(x2)
    1410:	02812a03          	lw	x20,40(x2)
    1414:	02412a83          	lw	x21,36(x2)
    1418:	02012b03          	lw	x22,32(x2)
    141c:	01c12b83          	lw	x23,28(x2)
    1420:	01812c03          	lw	x24,24(x2)
    1424:	01412c83          	lw	x25,20(x2)
    1428:	01012d03          	lw	x26,16(x2)
    142c:	00c12d83          	lw	x27,12(x2)
    1430:	04010113          	addi	x2,x2,64
    1434:	00008067          	ret
    1438:	04012c83          	lw	x25,64(x2)
    143c:	fb1ff06f          	j	13ec <_Z21hb_tiled_foreach_implIfZ14tensorlib_tanhEUlfE_JEEvjjT0_8HBTensorIT_Lln1EES4_PS3_S5_.isra.0+0x100>
    1440:	000c0593          	mv	x11,x24
    1444:	f61ff06f          	j	13a4 <_Z21hb_tiled_foreach_implIfZ14tensorlib_tanhEUlfE_JEEvjjT0_8HBTensorIT_Lln1EES4_PS3_S5_.isra.0+0xb8>
    1448:	fab57ae3          	bgeu	x10,x11,13fc <_Z21hb_tiled_foreach_implIfZ14tensorlib_tanhEUlfE_JEEvjjT0_8HBTensorIT_Lln1EES4_PS3_S5_.isra.0+0x110>
    144c:	00082b03          	lw	x22,0(x16)
    1450:	0006ab83          	lw	x23,0(x13)
    1454:	04012683          	lw	x13,64(x2)
    1458:	002b1993          	slli	x19,x22,0x2
    145c:	002b9913          	slli	x18,x23,0x2
    1460:	03350db3          	mul	x27,x10,x19
    1464:	40a58a33          	sub	x20,x11,x10
    1468:	00fa7d13          	andi	x26,x20,15
    146c:	032507b3          	mul	x15,x10,x18
    1470:	01bc0c33          	add	x24,x24,x27
    1474:	00f68b33          	add	x22,x13,x15
    1478:	1c0d0e63          	beqz	x26,1654 <_bsg_data_end_addr+0x54>
    147c:	1a8d0e63          	beq	x26,x8,1638 <_bsg_data_end_addr+0x38>
    1480:	00200413          	li	x8,2
    1484:	188d0e63          	beq	x26,x8,1620 <_bsg_data_end_addr+0x20>
    1488:	00300293          	li	x5,3
    148c:	165d0e63          	beq	x26,x5,1608 <_bsg_data_end_addr+0x8>
    1490:	00400713          	li	x14,4
    1494:	14ed0e63          	beq	x26,x14,15f0 <_tls_data+0x5c>
    1498:	00500393          	li	x7,5
    149c:	127d0e63          	beq	x26,x7,15d8 <_tls_data+0x44>
    14a0:	00600513          	li	x10,6
    14a4:	10ad0e63          	beq	x26,x10,15c0 <_tls_data+0x2c>
    14a8:	00700c93          	li	x25,7
    14ac:	0f9d0e63          	beq	x26,x25,15a8 <_tls_data+0x14>
    14b0:	00800893          	li	x17,8
    14b4:	0d1d0e63          	beq	x26,x17,1590 <g_barrier+0x1c>
    14b8:	00900e93          	li	x29,9
    14bc:	0bdd0e63          	beq	x26,x29,1578 <g_barrier+0x4>
    14c0:	00a00f13          	li	x30,10
    14c4:	09ed0e63          	beq	x26,x30,1560 <cuda_finish_signal_addr>
    14c8:	00b00e13          	li	x28,11
    14cc:	07cd0e63          	beq	x26,x28,1548 <__bsg_x>
    14d0:	00c00f93          	li	x31,12
    14d4:	05fd0e63          	beq	x26,x31,1530 <__bsg_grid_dim_y>
    14d8:	00d00613          	li	x12,13
    14dc:	02cd0e63          	beq	x26,x12,1518 <halF>
    14e0:	00e00593          	li	x11,14
    14e4:	00bd0e63          	beq	x26,x11,1500 <TWO23>
    14e8:	000c2507          	flw	f10,0(x24)
    14ec:	001a8a93          	addi	x21,x21,1
    14f0:	013c0c33          	add	x24,x24,x19
    14f4:	7302a0ef          	jal	x1,2bc24 <tanhf>
    14f8:	00ab2027          	fsw	f10,0(x22)
    14fc:	012b0b33          	add	x22,x22,x18
    1500:	000c2507          	flw	f10,0(x24)
    1504:	001a8a93          	addi	x21,x21,1
    1508:	013c0c33          	add	x24,x24,x19
    150c:	7182a0ef          	jal	x1,2bc24 <tanhf>
    1510:	00ab2027          	fsw	f10,0(x22)
    1514:	012b0b33          	add	x22,x22,x18
    1518:	000c2507          	flw	f10,0(x24)
    151c:	001a8a93          	addi	x21,x21,1
    1520:	013c0c33          	add	x24,x24,x19
    1524:	7002a0ef          	jal	x1,2bc24 <tanhf>
    1528:	00ab2027          	fsw	f10,0(x22)
    152c:	012b0b33          	add	x22,x22,x18
    1530:	000c2507          	flw	f10,0(x24)
    1534:	001a8a93          	addi	x21,x21,1
    1538:	013c0c33          	add	x24,x24,x19
    153c:	6e82a0ef          	jal	x1,2bc24 <tanhf>
    1540:	00ab2027          	fsw	f10,0(x22)
    1544:	012b0b33          	add	x22,x22,x18
    1548:	000c2507          	flw	f10,0(x24)
    154c:	001a8a93          	addi	x21,x21,1
    1550:	013c0c33          	add	x24,x24,x19
    1554:	6d02a0ef          	jal	x1,2bc24 <tanhf>
    1558:	00ab2027          	fsw	f10,0(x22)
    155c:	012b0b33          	add	x22,x22,x18
    1560:	000c2507          	flw	f10,0(x24)
    1564:	001a8a93          	addi	x21,x21,1
    1568:	013c0c33          	add	x24,x24,x19
    156c:	6b82a0ef          	jal	x1,2bc24 <tanhf>
    1570:	00ab2027          	fsw	f10,0(x22)
    1574:	012b0b33          	add	x22,x22,x18
    1578:	000c2507          	flw	f10,0(x24)
    157c:	001a8a93          	addi	x21,x21,1
    1580:	013c0c33          	add	x24,x24,x19
    1584:	6a02a0ef          	jal	x1,2bc24 <tanhf>
    1588:	00ab2027          	fsw	f10,0(x22)
    158c:	012b0b33          	add	x22,x22,x18
    1590:	000c2507          	flw	f10,0(x24)
    1594:	001a8a93          	addi	x21,x21,1
    1598:	013c0c33          	add	x24,x24,x19
    159c:	6882a0ef          	jal	x1,2bc24 <tanhf>
    15a0:	00ab2027          	fsw	f10,0(x22)
    15a4:	012b0b33          	add	x22,x22,x18
    15a8:	000c2507          	flw	f10,0(x24)
    15ac:	001a8a93          	addi	x21,x21,1
    15b0:	013c0c33          	add	x24,x24,x19
    15b4:	6702a0ef          	jal	x1,2bc24 <tanhf>
    15b8:	00ab2027          	fsw	f10,0(x22)
    15bc:	012b0b33          	add	x22,x22,x18
    15c0:	000c2507          	flw	f10,0(x24)
    15c4:	001a8a93          	addi	x21,x21,1
    15c8:	013c0c33          	add	x24,x24,x19
    15cc:	6582a0ef          	jal	x1,2bc24 <tanhf>
    15d0:	00ab2027          	fsw	f10,0(x22)
    15d4:	012b0b33          	add	x22,x22,x18
    15d8:	000c2507          	flw	f10,0(x24)
    15dc:	001a8a93          	addi	x21,x21,1
    15e0:	013c0c33          	add	x24,x24,x19
    15e4:	6402a0ef          	jal	x1,2bc24 <tanhf>
    15e8:	00ab2027          	fsw	f10,0(x22)
    15ec:	012b0b33          	add	x22,x22,x18
    15f0:	000c2507          	flw	f10,0(x24)
    15f4:	001a8a93          	addi	x21,x21,1
    15f8:	013c0c33          	add	x24,x24,x19
    15fc:	6282a0ef          	jal	x1,2bc24 <tanhf>
    1600:	00ab2027          	fsw	f10,0(x22)
    1604:	012b0b33          	add	x22,x22,x18
    1608:	000c2507          	flw	f10,0(x24)
    160c:	001a8a93          	addi	x21,x21,1
    1610:	013c0c33          	add	x24,x24,x19
    1614:	6102a0ef          	jal	x1,2bc24 <tanhf>
    1618:	00ab2027          	fsw	f10,0(x22)
    161c:	012b0b33          	add	x22,x22,x18
    1620:	000c2507          	flw	f10,0(x24)
    1624:	001a8a93          	addi	x21,x21,1
    1628:	013c0c33          	add	x24,x24,x19
    162c:	5f82a0ef          	jal	x1,2bc24 <tanhf>
    1630:	00ab2027          	fsw	f10,0(x22)
    1634:	012b0b33          	add	x22,x22,x18
    1638:	000c2507          	flw	f10,0(x24)
    163c:	001a8a93          	addi	x21,x21,1
    1640:	013c0c33          	add	x24,x24,x19
    1644:	5e02a0ef          	jal	x1,2bc24 <tanhf>
    1648:	00ab2027          	fsw	f10,0(x22)
    164c:	012b0b33          	add	x22,x22,x18
    1650:	db5486e3          	beq	x9,x21,13fc <_Z21hb_tiled_foreach_implIfZ14tensorlib_tanhEUlfE_JEEvjjT0_8HBTensorIT_Lln1EES4_PS3_S5_.isra.0+0x110>
    1654:	000c2507          	flw	f10,0(x24)
    1658:	013c0bb3          	add	x23,x24,x19
    165c:	013b8a33          	add	x20,x23,x19
    1660:	5c42a0ef          	jal	x1,2bc24 <tanhf>
    1664:	20a507d3          	fmv.s	f15,f10
    1668:	000ba507          	flw	f10,0(x23)
    166c:	012b0db3          	add	x27,x22,x18
    1670:	00fb2027          	fsw	f15,0(x22)
    1674:	5b02a0ef          	jal	x1,2bc24 <tanhf>
    1678:	20a50053          	fmv.s	f0,f10
    167c:	000a2507          	flw	f10,0(x20)
    1680:	013a0d33          	add	x26,x20,x19
    1684:	000da027          	fsw	f0,0(x27)
    1688:	59c2a0ef          	jal	x1,2bc24 <tanhf>
    168c:	20a500d3          	fmv.s	f1,f10
    1690:	000d2507          	flw	f10,0(x26)
    1694:	012d8433          	add	x8,x27,x18
    1698:	00142027          	fsw	f1,0(x8)
    169c:	5882a0ef          	jal	x1,2bc24 <tanhf>
    16a0:	20a50153          	fmv.s	f2,f10
    16a4:	013d0cb3          	add	x25,x26,x19
    16a8:	000ca507          	flw	f10,0(x25)
    16ac:	01240b33          	add	x22,x8,x18
    16b0:	002b2027          	fsw	f2,0(x22)
    16b4:	5702a0ef          	jal	x1,2bc24 <tanhf>
    16b8:	20a501d3          	fmv.s	f3,f10
    16bc:	013c8c33          	add	x24,x25,x19
    16c0:	000c2507          	flw	f10,0(x24)
    16c4:	012b0bb3          	add	x23,x22,x18
    16c8:	003ba027          	fsw	f3,0(x23)
    16cc:	5582a0ef          	jal	x1,2bc24 <tanhf>
    16d0:	20a50253          	fmv.s	f4,f10
    16d4:	013c0a33          	add	x20,x24,x19
    16d8:	000a2507          	flw	f10,0(x20)
    16dc:	012b8db3          	add	x27,x23,x18
    16e0:	004da027          	fsw	f4,0(x27)
    16e4:	5402a0ef          	jal	x1,2bc24 <tanhf>
    16e8:	20a502d3          	fmv.s	f5,f10
    16ec:	013a0d33          	add	x26,x20,x19
    16f0:	000d2507          	flw	f10,0(x26)
    16f4:	012d8433          	add	x8,x27,x18
    16f8:	00542027          	fsw	f5,0(x8)
    16fc:	5282a0ef          	jal	x1,2bc24 <tanhf>
    1700:	20a50353          	fmv.s	f6,f10
    1704:	013d0cb3          	add	x25,x26,x19
    1708:	000ca507          	flw	f10,0(x25)
    170c:	01240b33          	add	x22,x8,x18
    1710:	006b2027          	fsw	f6,0(x22)
    1714:	5102a0ef          	jal	x1,2bc24 <tanhf>
    1718:	20a503d3          	fmv.s	f7,f10
    171c:	013c8c33          	add	x24,x25,x19
    1720:	000c2507          	flw	f10,0(x24)
    1724:	012b0bb3          	add	x23,x22,x18
    1728:	007ba027          	fsw	f7,0(x23)
    172c:	4f82a0ef          	jal	x1,2bc24 <tanhf>
    1730:	20a505d3          	fmv.s	f11,f10
    1734:	013c0a33          	add	x20,x24,x19
    1738:	000a2507          	flw	f10,0(x20)
    173c:	012b8db3          	add	x27,x23,x18
    1740:	00bda027          	fsw	f11,0(x27)
    1744:	4e02a0ef          	jal	x1,2bc24 <tanhf>
    1748:	20a50653          	fmv.s	f12,f10
    174c:	013a0d33          	add	x26,x20,x19
    1750:	000d2507          	flw	f10,0(x26)
    1754:	012d8433          	add	x8,x27,x18
    1758:	00c42027          	fsw	f12,0(x8)
    175c:	4c82a0ef          	jal	x1,2bc24 <tanhf>
    1760:	20a506d3          	fmv.s	f13,f10
    1764:	013d0cb3          	add	x25,x26,x19
    1768:	000ca507          	flw	f10,0(x25)
    176c:	01240b33          	add	x22,x8,x18
    1770:	00db2027          	fsw	f13,0(x22)
    1774:	4b02a0ef          	jal	x1,2bc24 <tanhf>
    1778:	20a50753          	fmv.s	f14,f10
    177c:	013c8c33          	add	x24,x25,x19
    1780:	000c2507          	flw	f10,0(x24)
    1784:	012b0bb3          	add	x23,x22,x18
    1788:	00eba027          	fsw	f14,0(x23)
    178c:	4982a0ef          	jal	x1,2bc24 <tanhf>
    1790:	20a50853          	fmv.s	f16,f10
    1794:	013c0a33          	add	x20,x24,x19
    1798:	000a2507          	flw	f10,0(x20)
    179c:	012b8db3          	add	x27,x23,x18
    17a0:	010da027          	fsw	f16,0(x27)
    17a4:	4802a0ef          	jal	x1,2bc24 <tanhf>
    17a8:	20a508d3          	fmv.s	f17,f10
    17ac:	013a0d33          	add	x26,x20,x19
    17b0:	000d2507          	flw	f10,0(x26)
    17b4:	012d8433          	add	x8,x27,x18
    17b8:	01142027          	fsw	f17,0(x8)
    17bc:	4682a0ef          	jal	x1,2bc24 <tanhf>
    17c0:	01240833          	add	x16,x8,x18
    17c4:	010a8a93          	addi	x21,x21,16
    17c8:	00a82027          	fsw	f10,0(x16)
    17cc:	013d0c33          	add	x24,x26,x19
    17d0:	01280b33          	add	x22,x16,x18
    17d4:	e95490e3          	bne	x9,x21,1654 <_bsg_data_end_addr+0x54>
    17d8:	c25ff06f          	j	13fc <_Z21hb_tiled_foreach_implIfZ14tensorlib_tanhEUlfE_JEEvjjT0_8HBTensorIT_Lln1EES4_PS3_S5_.isra.0+0x110>

000017dc <tensorlib_tanh>:
    17dc:	f5010113          	addi	x2,x2,-176
    17e0:	00050793          	mv	x15,x10
    17e4:	0a812423          	sw	x8,168(x2)
    17e8:	01810513          	addi	x10,x2,24
    17ec:	00058413          	mv	x8,x11
    17f0:	00078593          	mv	x11,x15
    17f4:	0a112623          	sw	x1,172(x2)
    17f8:	0a912223          	sw	x9,164(x2)
    17fc:	0b212023          	sw	x18,160(x2)
    1800:	09312e23          	sw	x19,156(x2)
    1804:	09412c23          	sw	x20,152(x2)
    1808:	4742d0ef          	jal	x1,2ec7c <_ZN8HBTensorIfLln1EEC1EP11hb_tensor_t>
    180c:	00040593          	mv	x11,x8
    1810:	05410513          	addi	x10,x2,84
    1814:	4682d0ef          	jal	x1,2ec7c <_ZN8HBTensorIfLln1EEC1EP11hb_tensor_t>
    1818:	00001a37          	lui	x20,0x1
    181c:	000019b7          	lui	x19,0x1
    1820:	00001937          	lui	x18,0x1
    1824:	000014b7          	lui	x9,0x1
    1828:	538a2283          	lw	x5,1336(x20) # 1538 <__bsg_grp_org_y>
    182c:	5449a583          	lw	x11,1348(x19) # 1544 <__bsg_y>
    1830:	53c92703          	lw	x14,1340(x18) # 153c <__bsg_grp_org_x>
    1834:	5484a603          	lw	x12,1352(x9) # 1548 <__bsg_x>
    1838:	00001437          	lui	x8,0x1
    183c:	52442683          	lw	x13,1316(x8) # 1524 <__bsg_tile_group_id>
    1840:	00b28333          	add	x6,x5,x11
    1844:	00c703b3          	add	x7,x14,x12
    1848:	01831513          	slli	x10,x6,0x18
    184c:	01239813          	slli	x16,x7,0x12
    1850:	3f0008b7          	lui	x17,0x3f000
    1854:	00fc0eb7          	lui	x29,0xfc0
    1858:	000405b7          	lui	x11,0x40
    185c:	01157e33          	and	x28,x10,x17
    1860:	01d87f33          	and	x30,x16,x29
    1864:	00469f93          	slli	x31,x13,0x4
    1868:	ff058713          	addi	x14,x11,-16 # 3fff0 <_ZN8HBTensorIfLl1EEC1EP11hb_tensor_t+0xa6bc>
    186c:	01ee67b3          	or	x15,x28,x30
    1870:	00eff633          	and	x12,x31,x14
    1874:	01812283          	lw	x5,24(x2)
    1878:	00c7e6b3          	or	x13,x15,x12
    187c:	80000337          	lui	x6,0x80000
    1880:	0066e3b3          	or	x7,x13,x6
    1884:	41001537          	lui	x10,0x41001
    1888:	d0752623          	sw	x7,-756(x10) # 41000d0c <_bsg_elf_dram_size+0x21000d0c>
    188c:	fff28f13          	addi	x30,x5,-1
    1890:	ffd00f93          	li	x31,-3
    1894:	01c12603          	lw	x12,28(x2)
    1898:	02012683          	lw	x13,32(x2)
    189c:	02412703          	lw	x14,36(x2)
    18a0:	02812e03          	lw	x28,40(x2)
    18a4:	05812783          	lw	x15,88(x2)
    18a8:	05c12803          	lw	x16,92(x2)
    18ac:	06012883          	lw	x17,96(x2)
    18b0:	06412e83          	lw	x29,100(x2)
    18b4:	0befea63          	bltu	x31,x30,1968 <tensorlib_tanh+0x18c>
    18b8:	000010b7          	lui	x1,0x1
    18bc:	5400a303          	lw	x6,1344(x1) # 1540 <__bsg_id>
    18c0:	0072d593          	srli	x11,x5,0x7
    18c4:	00158393          	addi	x7,x11,1
    18c8:	07f37513          	andi	x10,x6,127
    18cc:	02750533          	mul	x10,x10,x7
    18d0:	00a385b3          	add	x11,x7,x10
    18d4:	0ab2e063          	bltu	x5,x11,1974 <tensorlib_tanh+0x198>
    18d8:	08b57863          	bgeu	x10,x11,1968 <tensorlib_tanh+0x18c>
    18dc:	01d12223          	sw	x29,4(x2)
    18e0:	01c12023          	sw	x28,0(x2)
    18e4:	a09ff0ef          	jal	x1,12ec <_Z21hb_tiled_foreach_implIfZ14tensorlib_tanhEUlfE_JEEvjjT0_8HBTensorIT_Lln1EES4_PS3_S5_.isra.0>
    18e8:	538a2a03          	lw	x20,1336(x20)
    18ec:	5449a983          	lw	x19,1348(x19)
    18f0:	53c92903          	lw	x18,1340(x18)
    18f4:	5484a483          	lw	x9,1352(x9)
    18f8:	52442403          	lw	x8,1316(x8)
    18fc:	013a0833          	add	x16,x20,x19
    1900:	009908b3          	add	x17,x18,x9
    1904:	01881293          	slli	x5,x16,0x18
    1908:	01289713          	slli	x14,x17,0x12
    190c:	3f0007b7          	lui	x15,0x3f000
    1910:	00fc0637          	lui	x12,0xfc0
    1914:	00040eb7          	lui	x29,0x40
    1918:	00441693          	slli	x13,x8,0x4
    191c:	00f2ff33          	and	x30,x5,x15
    1920:	00c77fb3          	and	x31,x14,x12
    1924:	ff0e8313          	addi	x6,x29,-16 # 3fff0 <_ZN8HBTensorIfLl1EEC1EP11hb_tensor_t+0xa6bc>
    1928:	01ff6e33          	or	x28,x30,x31
    192c:	0066f5b3          	and	x11,x13,x6
    1930:	0ac12083          	lw	x1,172(x2)
    1934:	0a812403          	lw	x8,168(x2)
    1938:	c0000537          	lui	x10,0xc0000
    193c:	00be63b3          	or	x7,x28,x11
    1940:	00a3ea33          	or	x20,x7,x10
    1944:	410019b7          	lui	x19,0x41001
    1948:	d149a623          	sw	x20,-756(x19) # 41000d0c <_bsg_elf_dram_size+0x21000d0c>
    194c:	0a412483          	lw	x9,164(x2)
    1950:	0a012903          	lw	x18,160(x2)
    1954:	09c12983          	lw	x19,156(x2)
    1958:	09812a03          	lw	x20,152(x2)
    195c:	00000513          	li	x10,0
    1960:	0b010113          	addi	x2,x2,176
    1964:	00008067          	ret
    1968:	00000593          	li	x11,0
    196c:	00000513          	li	x10,0
    1970:	f6dff06f          	j	18dc <tensorlib_tanh+0x100>
    1974:	00028593          	mv	x11,x5
    1978:	f61ff06f          	j	18d8 <tensorlib_tanh+0xfc>

0000197c <_Z21hb_tiled_foreach_implIfZ13tensorlib_addEUlffE_JEEvjjT0_8HBTensorIT_Lln1EES4_S4_PS3_S5_S5_.isra.0>:
    197c:	fd010113          	addi	x2,x2,-48
    1980:	02812623          	sw	x8,44(x2)
    1984:	02912423          	sw	x9,40(x2)
    1988:	03212223          	sw	x18,36(x2)
    198c:	03312023          	sw	x19,32(x2)
    1990:	01412e23          	sw	x20,28(x2)
    1994:	01512c23          	sw	x21,24(x2)
    1998:	01612a23          	sw	x22,20(x2)
    199c:	01712823          	sw	x23,16(x2)
    19a0:	01812623          	sw	x24,12(x2)
    19a4:	00100313          	li	x6,1
    19a8:	03012383          	lw	x7,48(x2)
    19ac:	03412a03          	lw	x20,52(x2)
    19b0:	03812983          	lw	x19,56(x2)
    19b4:	03c12403          	lw	x8,60(x2)
    19b8:	04012483          	lw	x9,64(x2)
    19bc:	04412903          	lw	x18,68(x2)
    19c0:	14660263          	beq	x12,x6,1b04 <_Z21hb_tiled_foreach_implIfZ13tensorlib_addEUlffE_JEEvjjT0_8HBTensorIT_Lln1EES4_S4_PS3_S5_S5_.isra.0+0x188>
    19c4:	0eb57a63          	bgeu	x10,x11,1ab8 <_Z21hb_tiled_foreach_implIfZ13tensorlib_addEUlffE_JEEvjjT0_8HBTensorIT_Lln1EES4_S4_PS3_S5_S5_.isra.0+0x13c>
    19c8:	00279f93          	slli	x31,x15,0x2
    19cc:	00239293          	slli	x5,x7,0x2
    19d0:	00261f13          	slli	x30,x12,0x2
    19d4:	01f88fb3          	add	x31,x17,x31
    19d8:	005982b3          	add	x5,x19,x5
    19dc:	01e70f33          	add	x30,x14,x30
    19e0:	10078263          	beqz	x15,1ae4 <_Z21hb_tiled_foreach_implIfZ13tensorlib_addEUlffE_JEEvjjT0_8HBTensorIT_Lln1EES4_S4_PS3_S5_S5_.isra.0+0x168>
    19e4:	00080a93          	mv	x21,x16
    19e8:	00088313          	mv	x6,x17
    19ec:	00050e93          	mv	x29,x10
    19f0:	00000b93          	li	x23,0
    19f4:	00032b03          	lw	x22,0(x6) # 80000000 <_end+0xfeffcd2c>
    19f8:	000aac03          	lw	x24,0(x21)
    19fc:	00430313          	addi	x6,x6,4
    1a00:	036efe33          	remu	x28,x29,x22
    1a04:	004a8a93          	addi	x21,x21,4
    1a08:	038e0c33          	mul	x24,x28,x24
    1a0c:	036edeb3          	divu	x29,x29,x22
    1a10:	018b8bb3          	add	x23,x23,x24
    1a14:	fe6f90e3          	bne	x31,x6,19f4 <_Z21hb_tiled_foreach_implIfZ13tensorlib_addEUlffE_JEEvjjT0_8HBTensorIT_Lln1EES4_S4_PS3_S5_S5_.isra.0+0x78>
    1a18:	002b9b13          	slli	x22,x23,0x2
    1a1c:	01648bb3          	add	x23,x9,x22
    1a20:	000ba707          	flw	f14,0(x23)
    1a24:	0c038663          	beqz	x7,1af0 <_Z21hb_tiled_foreach_implIfZ13tensorlib_addEUlffE_JEEvjjT0_8HBTensorIT_Lln1EES4_S4_PS3_S5_S5_.isra.0+0x174>
    1a28:	000a0a93          	mv	x21,x20
    1a2c:	00098313          	mv	x6,x19
    1a30:	00050e93          	mv	x29,x10
    1a34:	00000b93          	li	x23,0
    1a38:	00032b03          	lw	x22,0(x6)
    1a3c:	000aac03          	lw	x24,0(x21)
    1a40:	00430313          	addi	x6,x6,4
    1a44:	004a8a93          	addi	x21,x21,4
    1a48:	036efe33          	remu	x28,x29,x22
    1a4c:	038e0c33          	mul	x24,x28,x24
    1a50:	036edeb3          	divu	x29,x29,x22
    1a54:	018b8bb3          	add	x23,x23,x24
    1a58:	fe6290e3          	bne	x5,x6,1a38 <_Z21hb_tiled_foreach_implIfZ13tensorlib_addEUlffE_JEEvjjT0_8HBTensorIT_Lln1EES4_S4_PS3_S5_S5_.isra.0+0xbc>
    1a5c:	002b9b13          	slli	x22,x23,0x2
    1a60:	01690333          	add	x6,x18,x22
    1a64:	00032787          	flw	f15,0(x6)
    1a68:	08060a63          	beqz	x12,1afc <_Z21hb_tiled_foreach_implIfZ13tensorlib_addEUlffE_JEEvjjT0_8HBTensorIT_Lln1EES4_S4_PS3_S5_S5_.isra.0+0x180>
    1a6c:	00068a93          	mv	x21,x13
    1a70:	00070313          	mv	x6,x14
    1a74:	00050e93          	mv	x29,x10
    1a78:	00000b93          	li	x23,0
    1a7c:	00032b03          	lw	x22,0(x6)
    1a80:	000aac03          	lw	x24,0(x21)
    1a84:	00430313          	addi	x6,x6,4
    1a88:	004a8a93          	addi	x21,x21,4
    1a8c:	036efe33          	remu	x28,x29,x22
    1a90:	038e0c33          	mul	x24,x28,x24
    1a94:	036edeb3          	divu	x29,x29,x22
    1a98:	018b8bb3          	add	x23,x23,x24
    1a9c:	fe6f10e3          	bne	x30,x6,1a7c <_Z21hb_tiled_foreach_implIfZ13tensorlib_addEUlffE_JEEvjjT0_8HBTensorIT_Lln1EES4_S4_PS3_S5_S5_.isra.0+0x100>
    1aa0:	002b9b13          	slli	x22,x23,0x2
    1aa4:	01640333          	add	x6,x8,x22
    1aa8:	70f57043          	fmadd.s	f0,f10,f15,f14
    1aac:	00150513          	addi	x10,x10,1 # c0000001 <_end+0x3effcd2d>
    1ab0:	00032027          	fsw	f0,0(x6)
    1ab4:	f2a596e3          	bne	x11,x10,19e0 <_Z21hb_tiled_foreach_implIfZ13tensorlib_addEUlffE_JEEvjjT0_8HBTensorIT_Lln1EES4_S4_PS3_S5_S5_.isra.0+0x64>
    1ab8:	02c12403          	lw	x8,44(x2)
    1abc:	02812483          	lw	x9,40(x2)
    1ac0:	02412903          	lw	x18,36(x2)
    1ac4:	02012983          	lw	x19,32(x2)
    1ac8:	01c12a03          	lw	x20,28(x2)
    1acc:	01812a83          	lw	x21,24(x2)
    1ad0:	01412b03          	lw	x22,20(x2)
    1ad4:	01012b83          	lw	x23,16(x2)
    1ad8:	00c12c03          	lw	x24,12(x2)
    1adc:	03010113          	addi	x2,x2,48
    1ae0:	00008067          	ret
    1ae4:	00048b93          	mv	x23,x9
    1ae8:	000ba707          	flw	f14,0(x23)
    1aec:	f2039ee3          	bnez	x7,1a28 <_Z21hb_tiled_foreach_implIfZ13tensorlib_addEUlffE_JEEvjjT0_8HBTensorIT_Lln1EES4_S4_PS3_S5_S5_.isra.0+0xac>
    1af0:	00090313          	mv	x6,x18
    1af4:	00032787          	flw	f15,0(x6)
    1af8:	f6061ae3          	bnez	x12,1a6c <_Z21hb_tiled_foreach_implIfZ13tensorlib_addEUlffE_JEEvjjT0_8HBTensorIT_Lln1EES4_S4_PS3_S5_S5_.isra.0+0xf0>
    1afc:	00040313          	mv	x6,x8
    1b00:	fa9ff06f          	j	1aa8 <_Z21hb_tiled_foreach_implIfZ13tensorlib_addEUlffE_JEEvjjT0_8HBTensorIT_Lln1EES4_S4_PS3_S5_S5_.isra.0+0x12c>
    1b04:	fab57ae3          	bgeu	x10,x11,1ab8 <_Z21hb_tiled_foreach_implIfZ13tensorlib_addEUlffE_JEEvjjT0_8HBTensorIT_Lln1EES4_S4_PS3_S5_S5_.isra.0+0x13c>
    1b08:	00082883          	lw	x17,0(x16)
    1b0c:	0006a683          	lw	x13,0(x13)
    1b10:	000a2803          	lw	x16,0(x20)
    1b14:	00289393          	slli	x7,x17,0x2
    1b18:	00269993          	slli	x19,x13,0x2
    1b1c:	00281a13          	slli	x20,x16,0x2
    1b20:	02a387b3          	mul	x15,x7,x10
    1b24:	40a58733          	sub	x14,x11,x10
    1b28:	00f77f93          	andi	x31,x14,15
    1b2c:	034502b3          	mul	x5,x10,x20
    1b30:	00f484b3          	add	x9,x9,x15
    1b34:	03350f33          	mul	x30,x10,x19
    1b38:	00590933          	add	x18,x18,x5
    1b3c:	01e407b3          	add	x15,x8,x30
    1b40:	240f8a63          	beqz	x31,1d94 <_gp+0x16c>
    1b44:	22cf8663          	beq	x31,x12,1d70 <_gp+0x148>
    1b48:	00200613          	li	x12,2
    1b4c:	20cf8263          	beq	x31,x12,1d50 <_gp+0x128>
    1b50:	00300413          	li	x8,3
    1b54:	1c8f8e63          	beq	x31,x8,1d30 <_gp+0x108>
    1b58:	00400313          	li	x6,4
    1b5c:	1a6f8a63          	beq	x31,x6,1d10 <_gp+0xe8>
    1b60:	00500e13          	li	x28,5
    1b64:	19cf8663          	beq	x31,x28,1cf0 <_gp+0xc8>
    1b68:	00600a93          	li	x21,6
    1b6c:	175f8263          	beq	x31,x21,1cd0 <_gp+0xa8>
    1b70:	00700c13          	li	x24,7
    1b74:	138f8e63          	beq	x31,x24,1cb0 <_gp+0x88>
    1b78:	00800e93          	li	x29,8
    1b7c:	11df8a63          	beq	x31,x29,1c90 <_gp+0x68>
    1b80:	00900b93          	li	x23,9
    1b84:	0f7f8663          	beq	x31,x23,1c70 <_gp+0x48>
    1b88:	00a00b13          	li	x22,10
    1b8c:	0d6f8263          	beq	x31,x22,1c50 <_gp+0x28>
    1b90:	00b00893          	li	x17,11
    1b94:	091f8e63          	beq	x31,x17,1c30 <_gp+0x8>
    1b98:	00c00813          	li	x16,12
    1b9c:	070f8a63          	beq	x31,x16,1c10 <_Z21hb_tiled_foreach_implIfZ13tensorlib_addEUlffE_JEEvjjT0_8HBTensorIT_Lln1EES4_S4_PS3_S5_S5_.isra.0+0x294>
    1ba0:	00d00693          	li	x13,13
    1ba4:	04df8663          	beq	x31,x13,1bf0 <_Z21hb_tiled_foreach_implIfZ13tensorlib_addEUlffE_JEEvjjT0_8HBTensorIT_Lln1EES4_S4_PS3_S5_S5_.isra.0+0x274>
    1ba8:	00e00713          	li	x14,14
    1bac:	02ef8263          	beq	x31,x14,1bd0 <_Z21hb_tiled_foreach_implIfZ13tensorlib_addEUlffE_JEEvjjT0_8HBTensorIT_Lln1EES4_S4_PS3_S5_S5_.isra.0+0x254>
    1bb0:	00092087          	flw	f1,0(x18)
    1bb4:	0004a107          	flw	f2,0(x9)
    1bb8:	00150513          	addi	x10,x10,1
    1bbc:	007484b3          	add	x9,x9,x7
    1bc0:	101571c3          	fmadd.s	f3,f10,f1,f2
    1bc4:	01490933          	add	x18,x18,x20
    1bc8:	0037a027          	fsw	f3,0(x15) # 3f000000 <_bsg_elf_dram_size+0x1f000000>
    1bcc:	013787b3          	add	x15,x15,x19
    1bd0:	00092207          	flw	f4,0(x18)
    1bd4:	0004a287          	flw	f5,0(x9)
    1bd8:	00150513          	addi	x10,x10,1
    1bdc:	007484b3          	add	x9,x9,x7
    1be0:	28457343          	fmadd.s	f6,f10,f4,f5
    1be4:	01490933          	add	x18,x18,x20
    1be8:	0067a027          	fsw	f6,0(x15)
    1bec:	013787b3          	add	x15,x15,x19
    1bf0:	00092387          	flw	f7,0(x18)
    1bf4:	0004a587          	flw	f11,0(x9)
    1bf8:	00150513          	addi	x10,x10,1
    1bfc:	007484b3          	add	x9,x9,x7
    1c00:	58757643          	fmadd.s	f12,f10,f7,f11
    1c04:	01490933          	add	x18,x18,x20
    1c08:	00c7a027          	fsw	f12,0(x15)
    1c0c:	013787b3          	add	x15,x15,x19
    1c10:	00092687          	flw	f13,0(x18)
    1c14:	0004a807          	flw	f16,0(x9)
    1c18:	00150513          	addi	x10,x10,1
    1c1c:	007484b3          	add	x9,x9,x7
    1c20:	80d578c3          	fmadd.s	f17,f10,f13,f16
    1c24:	01490933          	add	x18,x18,x20
    1c28:	0117a027          	fsw	f17,0(x15)
    1c2c:	013787b3          	add	x15,x15,x19
    1c30:	00092e07          	flw	f28,0(x18)
    1c34:	0004ae87          	flw	f29,0(x9)
    1c38:	00150513          	addi	x10,x10,1
    1c3c:	007484b3          	add	x9,x9,x7
    1c40:	e9c57f43          	fmadd.s	f30,f10,f28,f29
    1c44:	01490933          	add	x18,x18,x20
    1c48:	01e7a027          	fsw	f30,0(x15)
    1c4c:	013787b3          	add	x15,x15,x19
    1c50:	00092f87          	flw	f31,0(x18)
    1c54:	0004a707          	flw	f14,0(x9)
    1c58:	00150513          	addi	x10,x10,1
    1c5c:	007484b3          	add	x9,x9,x7
    1c60:	71f577c3          	fmadd.s	f15,f10,f31,f14
    1c64:	01490933          	add	x18,x18,x20
    1c68:	00f7a027          	fsw	f15,0(x15)
    1c6c:	013787b3          	add	x15,x15,x19
    1c70:	00092007          	flw	f0,0(x18)
    1c74:	0004a087          	flw	f1,0(x9)
    1c78:	00150513          	addi	x10,x10,1
    1c7c:	007484b3          	add	x9,x9,x7
    1c80:	08057143          	fmadd.s	f2,f10,f0,f1
    1c84:	01490933          	add	x18,x18,x20
    1c88:	0027a027          	fsw	f2,0(x15)
    1c8c:	013787b3          	add	x15,x15,x19
    1c90:	00092187          	flw	f3,0(x18)
    1c94:	0004a207          	flw	f4,0(x9)
    1c98:	00150513          	addi	x10,x10,1
    1c9c:	007484b3          	add	x9,x9,x7
    1ca0:	203572c3          	fmadd.s	f5,f10,f3,f4
    1ca4:	01490933          	add	x18,x18,x20
    1ca8:	0057a027          	fsw	f5,0(x15)
    1cac:	013787b3          	add	x15,x15,x19
    1cb0:	00092307          	flw	f6,0(x18)
    1cb4:	0004a387          	flw	f7,0(x9)
    1cb8:	00150513          	addi	x10,x10,1
    1cbc:	007484b3          	add	x9,x9,x7
    1cc0:	386575c3          	fmadd.s	f11,f10,f6,f7
    1cc4:	01490933          	add	x18,x18,x20
    1cc8:	00b7a027          	fsw	f11,0(x15)
    1ccc:	013787b3          	add	x15,x15,x19
    1cd0:	00092607          	flw	f12,0(x18)
    1cd4:	0004a687          	flw	f13,0(x9)
    1cd8:	00150513          	addi	x10,x10,1
    1cdc:	007484b3          	add	x9,x9,x7
    1ce0:	68c57843          	fmadd.s	f16,f10,f12,f13
    1ce4:	01490933          	add	x18,x18,x20
    1ce8:	0107a027          	fsw	f16,0(x15)
    1cec:	013787b3          	add	x15,x15,x19
    1cf0:	00092887          	flw	f17,0(x18)
    1cf4:	0004ae07          	flw	f28,0(x9)
    1cf8:	00150513          	addi	x10,x10,1
    1cfc:	007484b3          	add	x9,x9,x7
    1d00:	e1157ec3          	fmadd.s	f29,f10,f17,f28
    1d04:	01490933          	add	x18,x18,x20
    1d08:	01d7a027          	fsw	f29,0(x15)
    1d0c:	013787b3          	add	x15,x15,x19
    1d10:	00092f07          	flw	f30,0(x18)
    1d14:	0004af87          	flw	f31,0(x9)
    1d18:	00150513          	addi	x10,x10,1
    1d1c:	007484b3          	add	x9,x9,x7
    1d20:	f9e57743          	fmadd.s	f14,f10,f30,f31
    1d24:	01490933          	add	x18,x18,x20
    1d28:	00e7a027          	fsw	f14,0(x15)
    1d2c:	013787b3          	add	x15,x15,x19
    1d30:	00092787          	flw	f15,0(x18)
    1d34:	0004a007          	flw	f0,0(x9)
    1d38:	00150513          	addi	x10,x10,1
    1d3c:	007484b3          	add	x9,x9,x7
    1d40:	00f570c3          	fmadd.s	f1,f10,f15,f0
    1d44:	01490933          	add	x18,x18,x20
    1d48:	0017a027          	fsw	f1,0(x15)
    1d4c:	013787b3          	add	x15,x15,x19
    1d50:	00092107          	flw	f2,0(x18)
    1d54:	0004a187          	flw	f3,0(x9)
    1d58:	00150513          	addi	x10,x10,1
    1d5c:	007484b3          	add	x9,x9,x7
    1d60:	18257243          	fmadd.s	f4,f10,f2,f3
    1d64:	01490933          	add	x18,x18,x20
    1d68:	0047a027          	fsw	f4,0(x15)
    1d6c:	013787b3          	add	x15,x15,x19
    1d70:	00092287          	flw	f5,0(x18)
    1d74:	0004a307          	flw	f6,0(x9)
    1d78:	00150513          	addi	x10,x10,1
    1d7c:	007484b3          	add	x9,x9,x7
    1d80:	305573c3          	fmadd.s	f7,f10,f5,f6
    1d84:	01490933          	add	x18,x18,x20
    1d88:	0077a027          	fsw	f7,0(x15)
    1d8c:	013787b3          	add	x15,x15,x19
    1d90:	d2a584e3          	beq	x11,x10,1ab8 <_Z21hb_tiled_foreach_implIfZ13tensorlib_addEUlffE_JEEvjjT0_8HBTensorIT_Lln1EES4_S4_PS3_S5_S5_.isra.0+0x13c>
    1d94:	0004a807          	flw	f16,0(x9)
    1d98:	00092687          	flw	f13,0(x18)
    1d9c:	00748fb3          	add	x31,x9,x7
    1da0:	014902b3          	add	x5,x18,x20
    1da4:	0002a887          	flw	f17,0(x5)
    1da8:	000fae07          	flw	f28,0(x31)
    1dac:	007f8f33          	add	x30,x31,x7
    1db0:	01428433          	add	x8,x5,x20
    1db4:	00042e87          	flw	f29,0(x8)
    1db8:	000f2587          	flw	f11,0(x30)
    1dbc:	007f0633          	add	x12,x30,x7
    1dc0:	01440333          	add	x6,x8,x20
    1dc4:	00032f07          	flw	f30,0(x6)
    1dc8:	00062607          	flw	f12,0(x12) # fc0000 <_bsg_elf_vcache_size+0xf40000>
    1dcc:	80d57fc3          	fmadd.s	f31,f10,f13,f16
    1dd0:	00760e33          	add	x28,x12,x7
    1dd4:	01430ab3          	add	x21,x6,x20
    1dd8:	000aa087          	flw	f1,0(x21)
    1ddc:	000e2287          	flw	f5,0(x28) # 1000000 <_bsg_elf_vcache_size+0xf80000>
    1de0:	e1157743          	fmadd.s	f14,f10,f17,f28
    1de4:	007e0c33          	add	x24,x28,x7
    1de8:	014a8eb3          	add	x29,x21,x20
    1dec:	000ea007          	flw	f0,0(x29)
    1df0:	000c2207          	flw	f4,0(x24)
    1df4:	59d577c3          	fmadd.s	f15,f10,f29,f11
    1df8:	007c0bb3          	add	x23,x24,x7
    1dfc:	014e8b33          	add	x22,x29,x20
    1e00:	61e57143          	fmadd.s	f2,f10,f30,f12
    1e04:	000b2387          	flw	f7,0(x22)
    1e08:	000ba187          	flw	f3,0(x23)
    1e0c:	007b88b3          	add	x17,x23,x7
    1e10:	014b0833          	add	x16,x22,x20
    1e14:	281578c3          	fmadd.s	f17,f10,f1,f5
    1e18:	00082807          	flw	f16,0(x16)
    1e1c:	0008a307          	flw	f6,0(x17) # 3f000000 <_bsg_elf_dram_size+0x1f000000>
    1e20:	007886b3          	add	x13,x17,x7
    1e24:	01480733          	add	x14,x16,x20
    1e28:	01f7a027          	fsw	f31,0(x15)
    1e2c:	20057ec3          	fmadd.s	f29,f10,f0,f4
    1e30:	00072687          	flw	f13,0(x14)
    1e34:	0006ae07          	flw	f28,0(x13)
    1e38:	00768933          	add	x18,x13,x7
    1e3c:	01470fb3          	add	x31,x14,x20
    1e40:	013784b3          	add	x9,x15,x19
    1e44:	00e4a027          	fsw	f14,0(x9)
    1e48:	187575c3          	fmadd.s	f11,f10,f7,f3
    1e4c:	000faf07          	flw	f30,0(x31)
    1e50:	00092f87          	flw	f31,0(x18)
    1e54:	013487b3          	add	x15,x9,x19
    1e58:	007902b3          	add	x5,x18,x7
    1e5c:	014f8f33          	add	x30,x31,x20
    1e60:	00f7a027          	fsw	f15,0(x15)
    1e64:	000f2087          	flw	f1,0(x30)
    1e68:	0002a287          	flw	f5,0(x5)
    1e6c:	01378433          	add	x8,x15,x19
    1e70:	31057643          	fmadd.s	f12,f10,f16,f6
    1e74:	00242027          	fsw	f2,0(x8)
    1e78:	01340633          	add	x12,x8,x19
    1e7c:	e0d57043          	fmadd.s	f0,f10,f13,f28
    1e80:	01162027          	fsw	f17,0(x12)
    1e84:	01360333          	add	x6,x12,x19
    1e88:	f9e57743          	fmadd.s	f14,f10,f30,f31
    1e8c:	01d32027          	fsw	f29,0(x6)
    1e90:	01330e33          	add	x28,x6,x19
    1e94:	28157243          	fmadd.s	f4,f10,f1,f5
    1e98:	00be2027          	fsw	f11,0(x28)
    1e9c:	013e0ab3          	add	x21,x28,x19
    1ea0:	00caa027          	fsw	f12,0(x21)
    1ea4:	013a8c33          	add	x24,x21,x19
    1ea8:	000c2027          	fsw	f0,0(x24)
    1eac:	013c0eb3          	add	x29,x24,x19
    1eb0:	00728b33          	add	x22,x5,x7
    1eb4:	014f08b3          	add	x17,x30,x20
    1eb8:	013e8bb3          	add	x23,x29,x19
    1ebc:	00eea027          	fsw	f14,0(x29)
    1ec0:	004ba027          	fsw	f4,0(x23)
    1ec4:	007b0833          	add	x16,x22,x7
    1ec8:	014886b3          	add	x13,x17,x20
    1ecc:	0008a387          	flw	f7,0(x17)
    1ed0:	000b2187          	flw	f3,0(x22)
    1ed4:	007804b3          	add	x9,x16,x7
    1ed8:	01468933          	add	x18,x13,x20
    1edc:	0006a807          	flw	f16,0(x13)
    1ee0:	00082787          	flw	f15,0(x16)
    1ee4:	00748fb3          	add	x31,x9,x7
    1ee8:	01490733          	add	x14,x18,x20
    1eec:	00092307          	flw	f6,0(x18)
    1ef0:	0004a107          	flw	f2,0(x9)
    1ef4:	007f82b3          	add	x5,x31,x7
    1ef8:	01470f33          	add	x30,x14,x20
    1efc:	187578c3          	fmadd.s	f17,f10,f7,f3
    1f00:	00072e07          	flw	f28,0(x14)
    1f04:	000fae87          	flw	f29,0(x31)
    1f08:	79057f43          	fmadd.s	f30,f10,f16,f15
    1f0c:	000f2f87          	flw	f31,0(x30)
    1f10:	0002a587          	flw	f11,0(x5)
    1f14:	106576c3          	fmadd.s	f13,f10,f6,f2
    1f18:	e9c570c3          	fmadd.s	f1,f10,f28,f29
    1f1c:	013b87b3          	add	x15,x23,x19
    1f20:	59f572c3          	fmadd.s	f5,f10,f31,f11
    1f24:	0117a027          	fsw	f17,0(x15)
    1f28:	01378433          	add	x8,x15,x19
    1f2c:	01e42027          	fsw	f30,0(x8)
    1f30:	01340633          	add	x12,x8,x19
    1f34:	00d62027          	fsw	f13,0(x12)
    1f38:	01360333          	add	x6,x12,x19
    1f3c:	01330e33          	add	x28,x6,x19
    1f40:	00132027          	fsw	f1,0(x6)
    1f44:	005e2027          	fsw	f5,0(x28)
    1f48:	01050513          	addi	x10,x10,16
    1f4c:	007284b3          	add	x9,x5,x7
    1f50:	014f0933          	add	x18,x30,x20
    1f54:	013e07b3          	add	x15,x28,x19
    1f58:	e2a59ee3          	bne	x11,x10,1d94 <_gp+0x16c>
    1f5c:	b5dff06f          	j	1ab8 <_Z21hb_tiled_foreach_implIfZ13tensorlib_addEUlffE_JEEvjjT0_8HBTensorIT_Lln1EES4_S4_PS3_S5_S5_.isra.0+0x13c>

00001f60 <tensorlib_add>:
    1f60:	f0010113          	addi	x2,x2,-256
    1f64:	00050793          	mv	x15,x10
    1f68:	0e912a23          	sw	x9,244(x2)
    1f6c:	02c10513          	addi	x10,x2,44
    1f70:	00058493          	mv	x9,x11
    1f74:	00078593          	mv	x11,x15
    1f78:	0e112e23          	sw	x1,252(x2)
    1f7c:	0e812c23          	sw	x8,248(x2)
    1f80:	0f212823          	sw	x18,240(x2)
    1f84:	00060413          	mv	x8,x12
    1f88:	0f312623          	sw	x19,236(x2)
    1f8c:	0f412423          	sw	x20,232(x2)
    1f90:	0f512223          	sw	x21,228(x2)
    1f94:	00068a93          	mv	x21,x13
    1f98:	4e52c0ef          	jal	x1,2ec7c <_ZN8HBTensorIfLln1EEC1EP11hb_tensor_t>
    1f9c:	00048593          	mv	x11,x9
    1fa0:	06810513          	addi	x10,x2,104
    1fa4:	4d92c0ef          	jal	x1,2ec7c <_ZN8HBTensorIfLln1EEC1EP11hb_tensor_t>
    1fa8:	00040593          	mv	x11,x8
    1fac:	0a410513          	addi	x10,x2,164
    1fb0:	4cd2c0ef          	jal	x1,2ec7c <_ZN8HBTensorIfLln1EEC1EP11hb_tensor_t>
    1fb4:	00001a37          	lui	x20,0x1
    1fb8:	000014b7          	lui	x9,0x1
    1fbc:	000019b7          	lui	x19,0x1
    1fc0:	00001437          	lui	x8,0x1
    1fc4:	538a2283          	lw	x5,1336(x20) # 1538 <__bsg_grp_org_y>
    1fc8:	5444a583          	lw	x11,1348(x9) # 1544 <__bsg_y>
    1fcc:	53c9a703          	lw	x14,1340(x19) # 153c <__bsg_grp_org_x>
    1fd0:	54842683          	lw	x13,1352(x8) # 1548 <__bsg_x>
    1fd4:	00001937          	lui	x18,0x1
    1fd8:	52492603          	lw	x12,1316(x18) # 1524 <__bsg_tile_group_id>
    1fdc:	00b28333          	add	x6,x5,x11
    1fe0:	00d703b3          	add	x7,x14,x13
    1fe4:	01831513          	slli	x10,x6,0x18
    1fe8:	01239813          	slli	x16,x7,0x12
    1fec:	3f0008b7          	lui	x17,0x3f000
    1ff0:	00fc0eb7          	lui	x29,0xfc0
    1ff4:	000402b7          	lui	x5,0x40
    1ff8:	01157e33          	and	x28,x10,x17
    1ffc:	01d87f33          	and	x30,x16,x29
    2000:	00461f93          	slli	x31,x12,0x4
    2004:	ff028593          	addi	x11,x5,-16 # 3fff0 <_ZN8HBTensorIfLl1EEC1EP11hb_tensor_t+0xa6bc>
    2008:	01ee67b3          	or	x15,x28,x30
    200c:	00bff733          	and	x14,x31,x11
    2010:	02c12303          	lw	x6,44(x2)
    2014:	00e7e6b3          	or	x13,x15,x14
    2018:	80000637          	lui	x12,0x80000
    201c:	00c6e3b3          	or	x7,x13,x12
    2020:	41001537          	lui	x10,0x41001
    2024:	000aa507          	flw	f10,0(x21)
    2028:	ffd00593          	li	x11,-3
    202c:	d0752623          	sw	x7,-756(x10) # 41000d0c <_bsg_elf_dram_size+0x21000d0c>
    2030:	fff30a93          	addi	x21,x6,-1
    2034:	03012603          	lw	x12,48(x2)
    2038:	03412683          	lw	x13,52(x2)
    203c:	03812703          	lw	x14,56(x2)
    2040:	03c12f83          	lw	x31,60(x2)
    2044:	06c12783          	lw	x15,108(x2)
    2048:	07012803          	lw	x16,112(x2)
    204c:	07412883          	lw	x17,116(x2)
    2050:	07812283          	lw	x5,120(x2)
    2054:	0a812e03          	lw	x28,168(x2)
    2058:	0ac12e83          	lw	x29,172(x2)
    205c:	0b012f03          	lw	x30,176(x2)
    2060:	0b412383          	lw	x7,180(x2)
    2064:	1f55ee63          	bltu	x11,x21,2260 <_bsg_elf_stack_ptr+0x264>
    2068:	000010b7          	lui	x1,0x1
    206c:	5400aa83          	lw	x21,1344(x1) # 1540 <__bsg_id>
    2070:	00735513          	srli	x10,x6,0x7
    2074:	00150593          	addi	x11,x10,1
    2078:	07faf093          	andi	x1,x21,127
    207c:	02b08533          	mul	x10,x1,x11
    2080:	00a585b3          	add	x11,x11,x10
    2084:	1eb36463          	bltu	x6,x11,226c <_bsg_elf_stack_ptr+0x270>
    2088:	1cb57c63          	bgeu	x10,x11,2260 <_bsg_elf_stack_ptr+0x264>
    208c:	00712a23          	sw	x7,20(x2)
    2090:	00512823          	sw	x5,16(x2)
    2094:	01f12623          	sw	x31,12(x2)
    2098:	01e12423          	sw	x30,8(x2)
    209c:	01d12223          	sw	x29,4(x2)
    20a0:	01c12023          	sw	x28,0(x2)
    20a4:	8d9ff0ef          	jal	x1,197c <_Z21hb_tiled_foreach_implIfZ13tensorlib_addEUlffE_JEEvjjT0_8HBTensorIT_Lln1EES4_S4_PS3_S5_S5_.isra.0>
    20a8:	5444a803          	lw	x16,1348(x9)
    20ac:	538a2a03          	lw	x20,1336(x20)
    20b0:	53c9a983          	lw	x19,1340(x19)
    20b4:	54842883          	lw	x17,1352(x8)
    20b8:	52492903          	lw	x18,1316(x18)
    20bc:	010a0333          	add	x6,x20,x16
    20c0:	01198733          	add	x14,x19,x17
    20c4:	01831793          	slli	x15,x6,0x18
    20c8:	01271693          	slli	x13,x14,0x12
    20cc:	3f000637          	lui	x12,0x3f000
    20d0:	00fc02b7          	lui	x5,0xfc0
    20d4:	000403b7          	lui	x7,0x40
    20d8:	00c7ffb3          	and	x31,x15,x12
    20dc:	0056fe33          	and	x28,x13,x5
    20e0:	00491e93          	slli	x29,x18,0x4
    20e4:	ff038a93          	addi	x21,x7,-16 # 3fff0 <_ZN8HBTensorIfLl1EEC1EP11hb_tensor_t+0xa6bc>
    20e8:	01cfef33          	or	x30,x31,x28
    20ec:	015ef533          	and	x10,x29,x21
    20f0:	00af65b3          	or	x11,x30,x10
    20f4:	c0000a37          	lui	x20,0xc0000
    20f8:	0145e833          	or	x16,x11,x20
    20fc:	410019b7          	lui	x19,0x41001
    2100:	d109a623          	sw	x16,-756(x19) # 41000d0c <_bsg_elf_dram_size+0x21000d0c>
    2104:	54842883          	lw	x17,1352(x8)
    2108:	5444a903          	lw	x18,1348(x9)
    210c:	00001637          	lui	x12,0x1
    2110:	00488313          	addi	x6,x17,4 # 3f000004 <_bsg_elf_dram_size+0x1f000004>
    2114:	57460793          	addi	x15,x12,1396 # 1574 <g_barrier>
    2118:	00678733          	add	x14,x15,x6
    211c:	01891693          	slli	x13,x18,0x18
    2120:	00d76fb3          	or	x31,x14,x13
    2124:	201c02b7          	lui	x5,0x201c0
    2128:	005fee33          	or	x28,x31,x5
    212c:	00100e93          	li	x29,1
    2130:	01de0023          	sb	x29,0(x28)
    2134:	54842f03          	lw	x30,1352(x8)
    2138:	00700393          	li	x7,7
    213c:	047f0863          	beq	x30,x7,218c <_bsg_elf_stack_ptr+0x190>
    2140:	00100493          	li	x9,1
    2144:	0100006f          	j	2154 <_bsg_elf_stack_ptr+0x158>
    2148:	57460a93          	addi	x21,x12,1396
    214c:	140aa52f          	lr.w.aq	x10,(x21)
    2150:	00950863          	beq	x10,x9,2160 <_bsg_elf_stack_ptr+0x164>
    2154:	57460a13          	addi	x20,x12,1396
    2158:	100a20af          	lr.w	x1,(x20)
    215c:	fe9096e3          	bne	x1,x9,2148 <_bsg_elf_stack_ptr+0x14c>
    2160:	0fc12083          	lw	x1,252(x2)
    2164:	0f812403          	lw	x8,248(x2)
    2168:	0007a023          	sw	x0,0(x15)
    216c:	0f412483          	lw	x9,244(x2)
    2170:	0f012903          	lw	x18,240(x2)
    2174:	0ec12983          	lw	x19,236(x2)
    2178:	0e812a03          	lw	x20,232(x2)
    217c:	0e412a83          	lw	x21,228(x2)
    2180:	00000513          	li	x10,0
    2184:	10010113          	addi	x2,x2,256
    2188:	00008067          	ret
    218c:	000010b7          	lui	x1,0x1
    2190:	00001537          	lui	x10,0x1
    2194:	57808a93          	addi	x21,x1,1400 # 1578 <g_barrier+0x4>
    2198:	58850a13          	addi	x20,x10,1416 # 1588 <g_barrier+0x14>
    219c:	000a8813          	mv	x16,x21
    21a0:	00084583          	lbu	x11,0(x16)
    21a4:	00180813          	addi	x16,x16,1
    21a8:	0ff5f993          	andi	x19,x11,255
    21ac:	fe0988e3          	beqz	x19,219c <_bsg_elf_stack_ptr+0x1a0>
    21b0:	ff0a18e3          	bne	x20,x16,21a0 <_bsg_elf_stack_ptr+0x1a4>
    21b4:	5444a883          	lw	x17,1348(x9)
    21b8:	231c0737          	lui	x14,0x231c0
    21bc:	00100693          	li	x13,1
    21c0:	01888913          	addi	x18,x17,24
    21c4:	01278333          	add	x6,x15,x18
    21c8:	00e36fb3          	or	x31,x6,x14
    21cc:	00df8023          	sb	x13,0(x31)
    21d0:	54842283          	lw	x5,1352(x8)
    21d4:	00700e13          	li	x28,7
    21d8:	f7c294e3          	bne	x5,x28,2140 <_bsg_elf_stack_ptr+0x144>
    21dc:	5444ae83          	lw	x29,1348(x9)
    21e0:	00300f13          	li	x30,3
    21e4:	09ee8863          	beq	x29,x30,2274 <_bsg_elf_stack_ptr+0x278>
    21e8:	00100093          	li	x1,1
    21ec:	0100006f          	j	21fc <_bsg_elf_stack_ptr+0x200>
    21f0:	01478593          	addi	x11,x15,20
    21f4:	1405a82f          	lr.w.aq	x16,(x11)
    21f8:	00180863          	beq	x16,x1,2208 <_bsg_elf_stack_ptr+0x20c>
    21fc:	01478a93          	addi	x21,x15,20
    2200:	100aa52f          	lr.w	x10,(x21)
    2204:	fe1516e3          	bne	x10,x1,21f0 <_bsg_elf_stack_ptr+0x1f4>
    2208:	0007aa23          	sw	x0,20(x15)
    220c:	00000f93          	li	x31,0
    2210:	01000993          	li	x19,16
    2214:	01f78933          	add	x18,x15,x31
    2218:	00090223          	sb	x0,4(x18)
    221c:	001f8f93          	addi	x31,x31,1
    2220:	ff3f9ae3          	bne	x31,x19,2214 <_bsg_elf_stack_ptr+0x218>
    2224:	0007a023          	sw	x0,0(x15)
    2228:	00000f13          	li	x30,0
    222c:	20000337          	lui	x6,0x20000
    2230:	00100893          	li	x17,1
    2234:	00040e37          	lui	x28,0x40
    2238:	004002b7          	lui	x5,0x400
    223c:	5444a703          	lw	x14,1348(x9)
    2240:	01e7eeb3          	or	x29,x15,x30
    2244:	01cf0f33          	add	x30,x30,x28
    2248:	01871393          	slli	x7,x14,0x18
    224c:	01d3e6b3          	or	x13,x7,x29
    2250:	0066e433          	or	x8,x13,x6
    2254:	01142023          	sw	x17,0(x8)
    2258:	fe5f12e3          	bne	x30,x5,223c <_bsg_elf_stack_ptr+0x240>
    225c:	ee5ff06f          	j	2140 <_bsg_elf_stack_ptr+0x144>
    2260:	00000593          	li	x11,0
    2264:	00000513          	li	x10,0
    2268:	e25ff06f          	j	208c <_bsg_elf_stack_ptr+0x90>
    226c:	00030593          	mv	x11,x6
    2270:	e19ff06f          	j	2088 <_bsg_elf_stack_ptr+0x8c>
    2274:	000013b7          	lui	x7,0x1
    2278:	00001ab7          	lui	x21,0x1
    227c:	58c38093          	addi	x1,x7,1420 # 158c <g_barrier+0x18>
    2280:	594a8513          	addi	x10,x21,1428 # 1594 <_tls_data>
    2284:	00008813          	mv	x16,x1
    2288:	00084583          	lbu	x11,0(x16)
    228c:	00180813          	addi	x16,x16,1
    2290:	0ff5f993          	andi	x19,x11,255
    2294:	fe0988e3          	beqz	x19,2284 <_bsg_elf_stack_ptr+0x288>
    2298:	ff0518e3          	bne	x10,x16,2288 <_bsg_elf_stack_ptr+0x28c>
    229c:	00078c23          	sb	x0,24(x15)
    22a0:	00078ca3          	sb	x0,25(x15)
    22a4:	00078d23          	sb	x0,26(x15)
    22a8:	00078da3          	sb	x0,27(x15)
    22ac:	00078e23          	sb	x0,28(x15)
    22b0:	00078ea3          	sb	x0,29(x15)
    22b4:	00078f23          	sb	x0,30(x15)
    22b8:	00078fa3          	sb	x0,31(x15)
    22bc:	0007aa23          	sw	x0,20(x15)
    22c0:	00000693          	li	x13,0
    22c4:	03fc0937          	lui	x18,0x3fc0
    22c8:	20000fb7          	lui	x31,0x20000
    22cc:	00100313          	li	x6,1
    22d0:	010008b7          	lui	x17,0x1000
    22d4:	08000e37          	lui	x28,0x8000
    22d8:	0080006f          	j	22e0 <_bsg_elf_stack_ptr+0x2e4>
    22dc:	54842283          	lw	x5,1352(x8)
    22e0:	01229713          	slli	x14,x5,0x12
    22e4:	01277eb3          	and	x29,x14,x18
    22e8:	00da62b3          	or	x5,x20,x13
    22ec:	005eef33          	or	x30,x29,x5
    22f0:	01ff63b3          	or	x7,x30,x31
    22f4:	0063a023          	sw	x6,0(x7)
    22f8:	011686b3          	add	x13,x13,x17
    22fc:	ffc690e3          	bne	x13,x28,22dc <_bsg_elf_stack_ptr+0x2e0>
    2300:	54842403          	lw	x8,1352(x8)
    2304:	00700a13          	li	x20,7
    2308:	ef4400e3          	beq	x8,x20,21e8 <_bsg_elf_stack_ptr+0x1ec>
    230c:	e35ff06f          	j	2140 <_bsg_elf_stack_ptr+0x144>

00002310 <tensorlib_index_select>:
    2310:	f1010113          	addi	x2,x2,-240
    2314:	00050793          	mv	x15,x10
    2318:	0e912223          	sw	x9,228(x2)
    231c:	00c10513          	addi	x10,x2,12
    2320:	00058493          	mv	x9,x11
    2324:	00078593          	mv	x11,x15
    2328:	0e112623          	sw	x1,236(x2)
    232c:	0e812423          	sw	x8,232(x2)
    2330:	0f212023          	sw	x18,224(x2)
    2334:	00060413          	mv	x8,x12
    2338:	0d312e23          	sw	x19,220(x2)
    233c:	0d412c23          	sw	x20,216(x2)
    2340:	0d512a23          	sw	x21,212(x2)
    2344:	0d612823          	sw	x22,208(x2)
    2348:	0d712623          	sw	x23,204(x2)
    234c:	0d812423          	sw	x24,200(x2)
    2350:	0d912223          	sw	x25,196(x2)
    2354:	1292c0ef          	jal	x1,2ec7c <_ZN8HBTensorIfLln1EEC1EP11hb_tensor_t>
    2358:	00048593          	mv	x11,x9
    235c:	04810513          	addi	x10,x2,72
    2360:	11d2c0ef          	jal	x1,2ec7c <_ZN8HBTensorIfLln1EEC1EP11hb_tensor_t>
    2364:	00040593          	mv	x11,x8
    2368:	08410513          	addi	x10,x2,132
    236c:	120330ef          	jal	x1,3548c <_ZN8HBTensorIlLln1EEC1EP11hb_tensor_t>
    2370:	000014b7          	lui	x9,0x1
    2374:	00001937          	lui	x18,0x1
    2378:	00001437          	lui	x8,0x1
    237c:	000019b7          	lui	x19,0x1
    2380:	5384a283          	lw	x5,1336(x9) # 1538 <__bsg_grp_org_y>
    2384:	54492583          	lw	x11,1348(x18) # 1544 <__bsg_y>
    2388:	53c42703          	lw	x14,1340(x8) # 153c <__bsg_grp_org_x>
    238c:	5489a603          	lw	x12,1352(x19) # 1548 <__bsg_x>
    2390:	00001ab7          	lui	x21,0x1
    2394:	524aa683          	lw	x13,1316(x21) # 1524 <__bsg_tile_group_id>
    2398:	00b28333          	add	x6,x5,x11
    239c:	00c703b3          	add	x7,x14,x12
    23a0:	01239813          	slli	x16,x7,0x12
    23a4:	01831513          	slli	x10,x6,0x18
    23a8:	3f0008b7          	lui	x17,0x3f000
    23ac:	00fc0b37          	lui	x22,0xfc0
    23b0:	00040e37          	lui	x28,0x40
    23b4:	01687bb3          	and	x23,x16,x22
    23b8:	01157a33          	and	x20,x10,x17
    23bc:	00469c13          	slli	x24,x13,0x4
    23c0:	ff0e0e93          	addi	x29,x28,-16 # 3fff0 <_ZN8HBTensorIfLl1EEC1EP11hb_tensor_t+0xa6bc>
    23c4:	017a6cb3          	or	x25,x20,x23
    23c8:	01dc7f33          	and	x30,x24,x29
    23cc:	01ecefb3          	or	x31,x25,x30
    23d0:	01012283          	lw	x5,16(x2)
    23d4:	800007b7          	lui	x15,0x80000
    23d8:	00ffe5b3          	or	x11,x31,x15
    23dc:	41001737          	lui	x14,0x41001
    23e0:	01c12c83          	lw	x25,28(x2)
    23e4:	05812383          	lw	x7,88(x2)
    23e8:	09412b83          	lw	x23,148(x2)
    23ec:	d0b72623          	sw	x11,-756(x14) # 41000d0c <_bsg_elf_dram_size+0x21000d0c>
    23f0:	18028863          	beqz	x5,2580 <tensorlib_index_select+0x270>
    23f4:	01812083          	lw	x1,24(x2)
    23f8:	0000ae83          	lw	x29,0(x1)
    23fc:	080e9463          	bnez	x29,2484 <tensorlib_index_select+0x174>
    2400:	00100313          	li	x6,1
    2404:	08412683          	lw	x13,132(x2)
    2408:	00100513          	li	x10,1
    240c:	fff68813          	addi	x16,x13,-1
    2410:	32a28263          	beq	x5,x10,2734 <tensorlib_index_select+0x424>
    2414:	ffd00893          	li	x17,-3
    2418:	0708ea63          	bltu	x17,x16,248c <tensorlib_index_select+0x17c>
    241c:	00001a37          	lui	x20,0x1
    2420:	540a2b03          	lw	x22,1344(x20) # 1540 <__bsg_id>
    2424:	0076dc13          	srli	x24,x13,0x7
    2428:	001c0e13          	addi	x28,x24,1
    242c:	07fb7f13          	andi	x30,x22,127
    2430:	03cf0fb3          	mul	x31,x30,x28
    2434:	01fe02b3          	add	x5,x28,x31
    2438:	3856e863          	bltu	x13,x5,27c8 <tensorlib_index_select+0x4b8>
    243c:	045ff863          	bgeu	x31,x5,248c <tensorlib_index_select+0x17c>
    2440:	002f9593          	slli	x11,x31,0x2
    2444:	02b30733          	mul	x14,x6,x11
    2448:	00229793          	slli	x15,x5,0x2
    244c:	00bb8a33          	add	x20,x23,x11
    2450:	00fb8c33          	add	x24,x23,x15
    2454:	00231b13          	slli	x22,x6,0x2
    2458:	00e38bb3          	add	x23,x7,x14
    245c:	000a2383          	lw	x7,0(x20)
    2460:	000b8513          	mv	x10,x23
    2464:	004a0a13          	addi	x20,x20,4
    2468:	027b00b3          	mul	x1,x22,x7
    246c:	000b0613          	mv	x12,x22
    2470:	016b8bb3          	add	x23,x23,x22
    2474:	001c85b3          	add	x11,x25,x1
    2478:	485020ef          	jal	x1,50fc <_Z9hb_memcpyPvPKvj>
    247c:	ff4c10e3          	bne	x24,x20,245c <tensorlib_index_select+0x14c>
    2480:	00c0006f          	j	248c <tensorlib_index_select+0x17c>
    2484:	00c12603          	lw	x12,12(x2)
    2488:	33d67c63          	bgeu	x12,x29,27c0 <tensorlib_index_select+0x4b0>
    248c:	5384a303          	lw	x6,1336(x9)
    2490:	53c42c03          	lw	x24,1340(x8)
    2494:	54492a03          	lw	x20,1348(x18)
    2498:	5489a483          	lw	x9,1352(x19)
    249c:	524aa403          	lw	x8,1316(x21)
    24a0:	01430ab3          	add	x21,x6,x20
    24a4:	009c0cb3          	add	x25,x24,x9
    24a8:	018a9e93          	slli	x29,x21,0x18
    24ac:	012c9393          	slli	x7,x25,0x12
    24b0:	3f000f37          	lui	x30,0x3f000
    24b4:	00fc02b7          	lui	x5,0xfc0
    24b8:	00040b37          	lui	x22,0x40
    24bc:	0053f5b3          	and	x11,x7,x5
    24c0:	01eeffb3          	and	x31,x29,x30
    24c4:	00441b93          	slli	x23,x8,0x4
    24c8:	ff0b0713          	addi	x14,x22,-16 # 3fff0 <_ZN8HBTensorIfLl1EEC1EP11hb_tensor_t+0xa6bc>
    24cc:	00bfe7b3          	or	x15,x31,x11
    24d0:	00ebf0b3          	and	x1,x23,x14
    24d4:	0017e533          	or	x10,x15,x1
    24d8:	c0000637          	lui	x12,0xc0000
    24dc:	00c56833          	or	x16,x10,x12
    24e0:	410018b7          	lui	x17,0x41001
    24e4:	d108a623          	sw	x16,-756(x17) # 41000d0c <_bsg_elf_dram_size+0x21000d0c>
    24e8:	5489ae03          	lw	x28,1352(x19)
    24ec:	54492683          	lw	x13,1348(x18)
    24f0:	000015b7          	lui	x11,0x1
    24f4:	004e0313          	addi	x6,x28,4
    24f8:	57458793          	addi	x15,x11,1396 # 1574 <g_barrier>
    24fc:	00678a33          	add	x20,x15,x6
    2500:	01869c13          	slli	x24,x13,0x18
    2504:	018a64b3          	or	x9,x20,x24
    2508:	201c0437          	lui	x8,0x201c0
    250c:	0084eab3          	or	x21,x9,x8
    2510:	00100c93          	li	x25,1
    2514:	019a8023          	sb	x25,0(x21)
    2518:	5489ae83          	lw	x29,1352(x19)
    251c:	00700393          	li	x7,7
    2520:	0a7e8263          	beq	x29,x7,25c4 <tensorlib_index_select+0x2b4>
    2524:	00100913          	li	x18,1
    2528:	0100006f          	j	2538 <tensorlib_index_select+0x228>
    252c:	57458693          	addi	x13,x11,1396
    2530:	1406a9af          	lr.w.aq	x19,(x13)
    2534:	01298863          	beq	x19,x18,2544 <tensorlib_index_select+0x234>
    2538:	57458e13          	addi	x28,x11,1396
    253c:	100e2a2f          	lr.w	x20,(x28)
    2540:	ff2a16e3          	bne	x20,x18,252c <tensorlib_index_select+0x21c>
    2544:	0ec12083          	lw	x1,236(x2)
    2548:	0e812403          	lw	x8,232(x2)
    254c:	0007a023          	sw	x0,0(x15) # 80000000 <_end+0xfeffcd2c>
    2550:	0e412483          	lw	x9,228(x2)
    2554:	0e012903          	lw	x18,224(x2)
    2558:	0dc12983          	lw	x19,220(x2)
    255c:	0d812a03          	lw	x20,216(x2)
    2560:	0d412a83          	lw	x21,212(x2)
    2564:	0d012b03          	lw	x22,208(x2)
    2568:	0cc12b83          	lw	x23,204(x2)
    256c:	0c812c03          	lw	x24,200(x2)
    2570:	0c412c83          	lw	x25,196(x2)
    2574:	00000513          	li	x10,0
    2578:	0f010113          	addi	x2,x2,240
    257c:	00008067          	ret
    2580:	810007b7          	lui	x15,0x81000
    2584:	810005b7          	lui	x11,0x81000
    2588:	06f00613          	li	x12,111
    258c:	00058593          	mv	x11,x11
    2590:	05878513          	addi	x10,x15,88 # 81000058 <_end+0xffffcd84>
    2594:	155280ef          	jal	x1,2aee8 <bsg_printf>
    2598:	01012583          	lw	x11,16(x2)
    259c:	81000bb7          	lui	x23,0x81000
    25a0:	090b8513          	addi	x10,x23,144 # 81000090 <_end+0xffffcdbc>
    25a4:	145280ef          	jal	x1,2aee8 <bsg_printf>
    25a8:	54492303          	lw	x6,1348(x18)
    25ac:	5489ac03          	lw	x24,1352(x19)
    25b0:	4100fab7          	lui	x21,0x4100f
    25b4:	01031493          	slli	x9,x6,0x10
    25b8:	01848433          	add	x8,x9,x24
    25bc:	ac8aac23          	sw	x8,-1320(x21) # 4100ead8 <_bsg_elf_dram_size+0x2100ead8>
    25c0:	0000006f          	j	25c0 <tensorlib_index_select+0x2b0>
    25c4:	00001f37          	lui	x30,0x1
    25c8:	000012b7          	lui	x5,0x1
    25cc:	578f0f93          	addi	x31,x30,1400 # 1578 <g_barrier+0x4>
    25d0:	58828b93          	addi	x23,x5,1416 # 1588 <g_barrier+0x14>
    25d4:	000f8713          	mv	x14,x31
    25d8:	00074b03          	lbu	x22,0(x14)
    25dc:	00170713          	addi	x14,x14,1
    25e0:	0ffb7093          	andi	x1,x22,255
    25e4:	fe0088e3          	beqz	x1,25d4 <tensorlib_index_select+0x2c4>
    25e8:	feeb98e3          	bne	x23,x14,25d8 <tensorlib_index_select+0x2c8>
    25ec:	54492503          	lw	x10,1348(x18)
    25f0:	231c08b7          	lui	x17,0x231c0
    25f4:	00100693          	li	x13,1
    25f8:	01850613          	addi	x12,x10,24
    25fc:	00c78833          	add	x16,x15,x12
    2600:	01186e33          	or	x28,x16,x17
    2604:	00de0023          	sb	x13,0(x28)
    2608:	5489aa03          	lw	x20,1352(x19)
    260c:	00700313          	li	x6,7
    2610:	f06a1ae3          	bne	x20,x6,2524 <tensorlib_index_select+0x214>
    2614:	54492c03          	lw	x24,1348(x18)
    2618:	00300493          	li	x9,3
    261c:	069c0e63          	beq	x24,x9,2698 <tensorlib_index_select+0x388>
    2620:	00100313          	li	x6,1
    2624:	0100006f          	j	2634 <tensorlib_index_select+0x324>
    2628:	01478413          	addi	x8,x15,20
    262c:	14042aaf          	lr.w.aq	x21,(x8)
    2630:	006a8863          	beq	x21,x6,2640 <tensorlib_index_select+0x330>
    2634:	01478c13          	addi	x24,x15,20
    2638:	100c24af          	lr.w	x9,(x24)
    263c:	fe6496e3          	bne	x9,x6,2628 <tensorlib_index_select+0x318>
    2640:	0007aa23          	sw	x0,20(x15)
    2644:	00000393          	li	x7,0
    2648:	01000c93          	li	x25,16
    264c:	00778eb3          	add	x29,x15,x7
    2650:	000e8223          	sb	x0,4(x29) # fc0004 <_bsg_elf_vcache_size+0xf40004>
    2654:	00138393          	addi	x7,x7,1
    2658:	ff939ae3          	bne	x7,x25,264c <tensorlib_index_select+0x33c>
    265c:	0007a023          	sw	x0,0(x15)
    2660:	00000813          	li	x16,0
    2664:	20000f37          	lui	x30,0x20000
    2668:	00100f93          	li	x31,1
    266c:	000402b7          	lui	x5,0x40
    2670:	00400b37          	lui	x22,0x400
    2674:	54492083          	lw	x1,1348(x18)
    2678:	0107e533          	or	x10,x15,x16
    267c:	00580833          	add	x16,x16,x5
    2680:	01809713          	slli	x14,x1,0x18
    2684:	00a76633          	or	x12,x14,x10
    2688:	01e668b3          	or	x17,x12,x30
    268c:	01f8a023          	sw	x31,0(x17) # 231c0000 <_bsg_elf_dram_size+0x31c0000>
    2690:	ff6812e3          	bne	x16,x22,2674 <tensorlib_index_select+0x364>
    2694:	e91ff06f          	j	2524 <tensorlib_index_select+0x214>
    2698:	00001437          	lui	x8,0x1
    269c:	00001cb7          	lui	x25,0x1
    26a0:	58c40a93          	addi	x21,x8,1420 # 158c <g_barrier+0x18>
    26a4:	594c8e93          	addi	x29,x25,1428 # 1594 <_tls_data>
    26a8:	000a8f13          	mv	x30,x21
    26ac:	000f4383          	lbu	x7,0(x30) # 20000000 <_bsg_elf_dram_size>
    26b0:	001f0f13          	addi	x30,x30,1
    26b4:	0ff3ff93          	andi	x31,x7,255
    26b8:	fe0f88e3          	beqz	x31,26a8 <tensorlib_index_select+0x398>
    26bc:	ffee98e3          	bne	x29,x30,26ac <tensorlib_index_select+0x39c>
    26c0:	00078c23          	sb	x0,24(x15)
    26c4:	00078ca3          	sb	x0,25(x15)
    26c8:	00078d23          	sb	x0,26(x15)
    26cc:	00078da3          	sb	x0,27(x15)
    26d0:	00078e23          	sb	x0,28(x15)
    26d4:	00078ea3          	sb	x0,29(x15)
    26d8:	00078f23          	sb	x0,30(x15)
    26dc:	00078fa3          	sb	x0,31(x15)
    26e0:	0007aa23          	sw	x0,20(x15)
    26e4:	00000693          	li	x13,0
    26e8:	03fc02b7          	lui	x5,0x3fc0
    26ec:	20000b37          	lui	x22,0x20000
    26f0:	00100093          	li	x1,1
    26f4:	01000537          	lui	x10,0x1000
    26f8:	08000837          	lui	x16,0x8000
    26fc:	0080006f          	j	2704 <tensorlib_index_select+0x3f4>
    2700:	5489aa03          	lw	x20,1352(x19)
    2704:	012a1713          	slli	x14,x20,0x12
    2708:	00dbe633          	or	x12,x23,x13
    270c:	005778b3          	and	x17,x14,x5
    2710:	00c8ee33          	or	x28,x17,x12
    2714:	016e6a33          	or	x20,x28,x22
    2718:	001a2023          	sw	x1,0(x20)
    271c:	00a686b3          	add	x13,x13,x10
    2720:	ff0690e3          	bne	x13,x16,2700 <tensorlib_index_select+0x3f0>
    2724:	5489a983          	lw	x19,1352(x19)
    2728:	00700b93          	li	x23,7
    272c:	ef798ae3          	beq	x19,x23,2620 <tensorlib_index_select+0x310>
    2730:	df5ff06f          	j	2524 <tensorlib_index_select+0x214>
    2734:	ffd00313          	li	x6,-3
    2738:	d5036ae3          	bltu	x6,x16,248c <tensorlib_index_select+0x17c>
    273c:	00001637          	lui	x12,0x1
    2740:	54062503          	lw	x10,1344(x12) # 1540 <__bsg_id>
    2744:	0076d813          	srli	x16,x13,0x7
    2748:	00180893          	addi	x17,x16,1 # 8000001 <_bsg_elf_vcache_size+0x7f80001>
    274c:	07f57e13          	andi	x28,x10,127
    2750:	031e0a33          	mul	x20,x28,x17
    2754:	01488f33          	add	x30,x17,x20
    2758:	07e6ee63          	bltu	x13,x30,27d4 <tensorlib_index_select+0x4c4>
    275c:	d3ea78e3          	bgeu	x20,x30,248c <tensorlib_index_select+0x17c>
    2760:	00c12f83          	lw	x31,12(x2)
    2764:	01412283          	lw	x5,20(x2)
    2768:	04812583          	lw	x11,72(x2)
    276c:	04c12783          	lw	x15,76(x2)
    2770:	05012083          	lw	x1,80(x2)
    2774:	002a1693          	slli	x13,x20,0x2
    2778:	00db8c33          	add	x24,x23,x13
    277c:	00100b93          	li	x23,1
    2780:	000c2b03          	lw	x22,0(x24)
    2784:	000b4463          	bltz	x22,278c <tensorlib_index_select+0x47c>
    2788:	05db6a63          	bltu	x22,x29,27dc <tensorlib_index_select+0x4cc>
    278c:	810000b7          	lui	x1,0x81000
    2790:	81000537          	lui	x10,0x81000
    2794:	01f00613          	li	x12,31
    2798:	10408593          	addi	x11,x1,260 # 81000104 <_end+0xffffce30>
    279c:	0ec50513          	addi	x10,x10,236 # 810000ec <_end+0xffffce18>
    27a0:	748280ef          	jal	x1,2aee8 <bsg_printf>
    27a4:	54492603          	lw	x12,1348(x18)
    27a8:	5489a803          	lw	x16,1352(x19)
    27ac:	4100f6b7          	lui	x13,0x4100f
    27b0:	01061893          	slli	x17,x12,0x10
    27b4:	01088e33          	add	x28,x17,x16
    27b8:	adc6ac23          	sw	x28,-1320(x13) # 4100ead8 <_bsg_elf_dram_size+0x2100ead8>
    27bc:	0000006f          	j	27bc <tensorlib_index_select+0x4ac>
    27c0:	03d65333          	divu	x6,x12,x29
    27c4:	c41ff06f          	j	2404 <tensorlib_index_select+0xf4>
    27c8:	00068293          	mv	x5,x13
    27cc:	c65feae3          	bltu	x31,x5,2440 <tensorlib_index_select+0x130>
    27d0:	cbdff06f          	j	248c <tensorlib_index_select+0x17c>
    27d4:	00068f13          	mv	x30,x13
    27d8:	f85ff06f          	j	275c <tensorlib_index_select+0x44c>
    27dc:	05fb7663          	bgeu	x22,x31,2828 <tensorlib_index_select+0x518>
    27e0:	0002a703          	lw	x14,0(x5) # 3fc0000 <_bsg_elf_vcache_size+0x3f40000>
    27e4:	002a1313          	slli	x6,x20,0x2
    27e8:	00638333          	add	x6,x7,x6
    27ec:	02eb0633          	mul	x12,x22,x14
    27f0:	00261513          	slli	x10,x12,0x2
    27f4:	00ac8833          	add	x16,x25,x10
    27f8:	06ba7c63          	bgeu	x20,x11,2870 <tensorlib_index_select+0x560>
    27fc:	01779a63          	bne	x15,x23,2810 <tensorlib_index_select+0x500>
    2800:	0000a883          	lw	x17,0(x1)
    2804:	031a0e33          	mul	x28,x20,x17
    2808:	002e1693          	slli	x13,x28,0x2
    280c:	00d38333          	add	x6,x7,x13
    2810:	00082787          	flw	f15,0(x16)
    2814:	001a0a13          	addi	x20,x20,1
    2818:	004c0c13          	addi	x24,x24,4
    281c:	00f32027          	fsw	f15,0(x6) # 20000000 <_bsg_elf_dram_size>
    2820:	f74f10e3          	bne	x30,x20,2780 <tensorlib_index_select+0x470>
    2824:	c69ff06f          	j	248c <tensorlib_index_select+0x17c>
    2828:	81000f37          	lui	x30,0x81000
    282c:	81000fb7          	lui	x31,0x81000
    2830:	000f0593          	mv	x11,x30
    2834:	08c00613          	li	x12,140
    2838:	058f8513          	addi	x10,x31,88 # 81000058 <_end+0xffffcd84>
    283c:	6ac280ef          	jal	x1,2aee8 <bsg_printf>
    2840:	00c12583          	lw	x11,12(x2)
    2844:	810002b7          	lui	x5,0x81000
    2848:	000b0613          	mv	x12,x22
    284c:	0b828513          	addi	x10,x5,184 # 810000b8 <_end+0xffffcde4>
    2850:	698280ef          	jal	x1,2aee8 <bsg_printf>
    2854:	54492583          	lw	x11,1348(x18)
    2858:	5489ab83          	lw	x23,1352(x19)
    285c:	4100f737          	lui	x14,0x4100f
    2860:	01059793          	slli	x15,x11,0x10
    2864:	01778b33          	add	x22,x15,x23
    2868:	ad672c23          	sw	x22,-1320(x14) # 4100ead8 <_bsg_elf_dram_size+0x2100ead8>
    286c:	0000006f          	j	286c <tensorlib_index_select+0x55c>
    2870:	810004b7          	lui	x9,0x81000
    2874:	81000437          	lui	x8,0x81000
    2878:	00048593          	mv	x11,x9
    287c:	08c00613          	li	x12,140
    2880:	05840513          	addi	x10,x8,88 # 81000058 <_end+0xffffcd84>
    2884:	664280ef          	jal	x1,2aee8 <bsg_printf>
    2888:	04812583          	lw	x11,72(x2)
    288c:	81000ab7          	lui	x21,0x81000
    2890:	000a0613          	mv	x12,x20
    2894:	0b8a8513          	addi	x10,x21,184 # 810000b8 <_end+0xffffcde4>
    2898:	650280ef          	jal	x1,2aee8 <bsg_printf>
    289c:	54492903          	lw	x18,1348(x18)
    28a0:	5489a983          	lw	x19,1352(x19)
    28a4:	4100f3b7          	lui	x7,0x4100f
    28a8:	01091c93          	slli	x25,x18,0x10
    28ac:	013c8eb3          	add	x29,x25,x19
    28b0:	add3ac23          	sw	x29,-1320(x7) # 4100ead8 <_bsg_elf_dram_size+0x2100ead8>
    28b4:	0000006f          	j	28b4 <tensorlib_index_select+0x5a4>

000028b8 <tensorlib_sparse_convolution_forward>:
    28b8:	e0010113          	addi	x2,x2,-512
    28bc:	00050893          	mv	x17,x10
    28c0:	1e112e23          	sw	x1,508(x2)
    28c4:	1e812c23          	sw	x8,504(x2)
    28c8:	1e912a23          	sw	x9,500(x2)
    28cc:	20010413          	addi	x8,x2,512
    28d0:	1f212823          	sw	x18,496(x2)
    28d4:	1f312623          	sw	x19,492(x2)
    28d8:	1f412423          	sw	x20,488(x2)
    28dc:	1f512223          	sw	x21,484(x2)
    28e0:	1f612023          	sw	x22,480(x2)
    28e4:	1d712e23          	sw	x23,476(x2)
    28e8:	1d812c23          	sw	x24,472(x2)
    28ec:	1d912a23          	sw	x25,468(x2)
    28f0:	1da12823          	sw	x26,464(x2)
    28f4:	1db12623          	sw	x27,460(x2)
    28f8:	1a812e27          	fsw	f8,444(x2)
    28fc:	e8440513          	addi	x10,x8,-380
    2900:	00058b13          	mv	x22,x11
    2904:	00088593          	mv	x11,x17
    2908:	00060a93          	mv	x21,x12
    290c:	00068913          	mv	x18,x13
    2910:	00070493          	mv	x9,x14
    2914:	00078a13          	mv	x20,x15
    2918:	00080993          	mv	x19,x16
    291c:	3602c0ef          	jal	x1,2ec7c <_ZN8HBTensorIfLln1EEC1EP11hb_tensor_t>
    2920:	000b0593          	mv	x11,x22
    2924:	ec040513          	addi	x10,x8,-320
    2928:	3542c0ef          	jal	x1,2ec7c <_ZN8HBTensorIfLln1EEC1EP11hb_tensor_t>
    292c:	000a8593          	mv	x11,x21
    2930:	efc40513          	addi	x10,x8,-260
    2934:	5352a0ef          	jal	x1,2d668 <_ZN8HBTensorIiLln1EEC1EP11hb_tensor_t>
    2938:	00090593          	mv	x11,x18
    293c:	f3840513          	addi	x10,x8,-200
    2940:	5292a0ef          	jal	x1,2d668 <_ZN8HBTensorIiLln1EEC1EP11hb_tensor_t>
    2944:	00048593          	mv	x11,x9
    2948:	f7440513          	addi	x10,x8,-140
    294c:	3302c0ef          	jal	x1,2ec7c <_ZN8HBTensorIfLln1EEC1EP11hb_tensor_t>
    2950:	e8842783          	lw	x15,-376(x8)
    2954:	44078463          	beqz	x15,2d9c <tensorlib_sparse_convolution_forward+0x4e4>
    2958:	00100613          	li	x12,1
    295c:	48f67663          	bgeu	x12,x15,2de8 <tensorlib_sparse_convolution_forward+0x530>
    2960:	00200693          	li	x13,2
    2964:	4cd78863          	beq	x15,x13,2e34 <tensorlib_sparse_convolution_forward+0x57c>
    2968:	00300713          	li	x14,3
    296c:	56e78063          	beq	x15,x14,2ecc <tensorlib_sparse_convolution_forward+0x614>
    2970:	ec442083          	lw	x1,-316(x8)
    2974:	50167663          	bgeu	x12,x1,2e80 <tensorlib_sparse_convolution_forward+0x5c8>
    2978:	5ad08063          	beq	x1,x13,2f18 <tensorlib_sparse_convolution_forward+0x660>
    297c:	06e086e3          	beq	x1,x14,31e8 <tensorlib_sparse_convolution_forward+0x930>
    2980:	000012b7          	lui	x5,0x1
    2984:	000013b7          	lui	x7,0x1
    2988:	00001937          	lui	x18,0x1
    298c:	000014b7          	lui	x9,0x1
    2990:	5382a303          	lw	x6,1336(x5) # 1538 <__bsg_grp_org_y>
    2994:	53c3a503          	lw	x10,1340(x7) # 153c <__bsg_grp_org_x>
    2998:	0049a603          	lw	x12,4(x19)
    299c:	54492583          	lw	x11,1348(x18) # 1544 <__bsg_y>
    29a0:	5484a803          	lw	x16,1352(x9) # 1548 <__bsg_x>
    29a4:	00042983          	lw	x19,0(x8)
    29a8:	00001bb7          	lui	x23,0x1
    29ac:	e9042d83          	lw	x27,-368(x8)
    29b0:	524bac03          	lw	x24,1316(x23) # 1524 <__bsg_tile_group_id>
    29b4:	0049a083          	lw	x1,4(x19)
    29b8:	00b30cb3          	add	x25,x6,x11
    29bc:	01050d33          	add	x26,x10,x16
    29c0:	ecc42283          	lw	x5,-308(x8)
    29c4:	004a2a03          	lw	x20,4(x20)
    29c8:	018c9e13          	slli	x28,x25,0x18
    29cc:	012d1e93          	slli	x29,x26,0x12
    29d0:	3f000f37          	lui	x30,0x3f000
    29d4:	00fc08b7          	lui	x17,0xfc0
    29d8:	01ee7fb3          	and	x31,x28,x30
    29dc:	011efb33          	and	x22,x29,x17
    29e0:	004da303          	lw	x6,4(x27)
    29e4:	008dac83          	lw	x25,8(x27)
    29e8:	00cdad03          	lw	x26,12(x27)
    29ec:	004c1a93          	slli	x21,x24,0x4
    29f0:	016fe7b3          	or	x15,x31,x22
    29f4:	000dac03          	lw	x24,0(x27)
    29f8:	00c2ae03          	lw	x28,12(x5)
    29fc:	0082ad83          	lw	x27,8(x5)
    2a00:	0080ae83          	lw	x29,8(x1)
    2a04:	00062f83          	lw	x31,0(x12)
    2a08:	00462883          	lw	x17,4(x12)
    2a0c:	000a2b03          	lw	x22,0(x20)
    2a10:	000406b7          	lui	x13,0x40
    2a14:	ff068713          	addi	x14,x13,-16 # 3fff0 <_ZN8HBTensorIfLl1EEC1EP11hb_tensor_t+0xa6bc>
    2a18:	e4642023          	sw	x6,-448(x8)
    2a1c:	000013b7          	lui	x7,0x1
    2a20:	e7842a23          	sw	x24,-396(x8)
    2a24:	e7942423          	sw	x25,-408(x8)
    2a28:	e7a42223          	sw	x26,-412(x8)
    2a2c:	e3b42e23          	sw	x27,-452(x8)
    2a30:	e3c42c23          	sw	x28,-456(x8)
    2a34:	e7d42c23          	sw	x29,-392(x8)
    2a38:	e5f42c23          	sw	x31,-424(x8)
    2a3c:	e5142a23          	sw	x17,-428(x8)
    2a40:	00eaf5b3          	and	x11,x21,x14
    2a44:	5403a983          	lw	x19,1344(x7) # 1540 <__bsg_id>
    2a48:	00c0af03          	lw	x30,12(x1)
    2a4c:	e5642823          	sw	x22,-432(x8)
    2a50:	004a2a83          	lw	x21,4(x20)
    2a54:	ce010113          	addi	x2,x2,-800
    2a58:	00b7e533          	or	x10,x15,x11
    2a5c:	80000837          	lui	x16,0x80000
    2a60:	e6242823          	sw	x2,-400(x8)
    2a64:	01056bb3          	or	x23,x10,x16
    2a68:	e5542623          	sw	x21,-436(x8)
    2a6c:	41001a37          	lui	x20,0x41001
    2a70:	d17a2623          	sw	x23,-756(x20) # 41000d0c <_bsg_elf_dram_size+0x21000d0c>
    2a74:	ce010113          	addi	x2,x2,-800
    2a78:	e6242623          	sw	x2,-404(x8)
    2a7c:	6469fe63          	bgeu	x19,x6,30d8 <tensorlib_sparse_convolution_forward+0x820>
    2a80:	e7842603          	lw	x12,-392(x8)
    2a84:	f0c42283          	lw	x5,-244(x8)
    2a88:	f8442c03          	lw	x24,-124(x8)
    2a8c:	03e600b3          	mul	x1,x12,x30
    2a90:	efc42783          	lw	x15,-260(x8)
    2a94:	f0042683          	lw	x13,-256(x8)
    2a98:	f0442703          	lw	x14,-252(x8)
    2a9c:	f3842583          	lw	x11,-200(x8)
    2aa0:	f3c42303          	lw	x6,-196(x8)
    2aa4:	f4842383          	lw	x7,-184(x8)
    2aa8:	f4042503          	lw	x10,-192(x8)
    2aac:	f7442803          	lw	x16,-140(x8)
    2ab0:	f7842b83          	lw	x23,-136(x8)
    2ab4:	f7c42c83          	lw	x25,-132(x8)
    2ab8:	e9442d03          	lw	x26,-364(x8)
    2abc:	ed042d83          	lw	x27,-304(x8)
    2ac0:	00001e37          	lui	x28,0x1
    2ac4:	e3842223          	sw	x24,-476(x8)
    2ac8:	e8c42b03          	lw	x22,-372(x8)
    2acc:	ec842a83          	lw	x21,-312(x8)
    2ad0:	e4142e23          	sw	x1,-420(x8)
    2ad4:	e6542023          	sw	x5,-416(x8)
    2ad8:	00198a13          	addi	x20,x19,1
    2adc:	e6f42e23          	sw	x15,-388(x8)
    2ae0:	e2d42a23          	sw	x13,-460(x8)
    2ae4:	e2e42823          	sw	x14,-464(x8)
    2ae8:	e0b42e23          	sw	x11,-484(x8)
    2aec:	e0642c23          	sw	x6,-488(x8)
    2af0:	e0742a23          	sw	x7,-492(x8)
    2af4:	e0a42823          	sw	x10,-496(x8)
    2af8:	e3042623          	sw	x16,-468(x8)
    2afc:	e3742423          	sw	x23,-472(x8)
    2b00:	e3942023          	sw	x25,-480(x8)
    2b04:	e5a42423          	sw	x26,-440(x8)
    2b08:	e5b42223          	sw	x27,-444(x8)
    2b0c:	454e2407          	flw	f8,1108(x28) # 1454 <_Z21hb_tiled_foreach_implIfZ14tensorlib_tanhEUlfE_JEEvjjT0_8HBTensorIT_Lln1EES4_PS3_S5_.isra.0+0x168>
    2b10:	002a1e93          	slli	x29,x20,0x2
    2b14:	01d28c33          	add	x24,x5,x29
    2b18:	e7c42f03          	lw	x30,-388(x8)
    2b1c:	57e9fa63          	bgeu	x19,x30,3090 <tensorlib_sparse_convolution_forward+0x7d8>
    2b20:	e3442f83          	lw	x31,-460(x8)
    2b24:	00100893          	li	x17,1
    2b28:	531f8a63          	beq	x31,x17,305c <tensorlib_sparse_convolution_forward+0x7a4>
    2b2c:	e7c42503          	lw	x10,-388(x8)
    2b30:	ffcc2b83          	lw	x23,-4(x24)
    2b34:	000c0393          	mv	x7,x24
    2b38:	4caa7e63          	bgeu	x20,x10,3014 <tensorlib_sparse_convolution_forward+0x75c>
    2b3c:	0003a803          	lw	x16,0(x7)
    2b40:	0c800c93          	li	x25,200
    2b44:	41780a33          	sub	x20,x16,x23
    2b48:	4d4cd063          	bge	x25,x20,3008 <tensorlib_sparse_convolution_forward+0x750>
    2b4c:	d00a7553          	fcvt.s.w	f10,x20
    2b50:	10857553          	fmul.s	f10,f10,f8
    2b54:	629280ef          	jal	x1,2b97c <ceilf>
    2b58:	c00518d3          	fcvt.w.s	x17,f10,rtz
    2b5c:	0c800f13          	li	x30,200
    2b60:	23105263          	blez	x17,2d84 <tensorlib_sparse_convolution_forward+0x4cc>
    2b64:	000b8693          	mv	x13,x23
    2b68:	00000093          	li	x1,0
    2b6c:	00000393          	li	x7,0
    2b70:	e1842623          	sw	x24,-500(x8)
    2b74:	00008c13          	mv	x24,x1
    2b78:	01e080b3          	add	x1,x1,x30
    2b7c:	00008d13          	mv	x26,x1
    2b80:	001a5463          	bge	x20,x1,2b88 <tensorlib_sparse_convolution_forward+0x2d0>
    2b84:	000a0d13          	mv	x26,x20
    2b88:	418d0fb3          	sub	x31,x26,x24
    2b8c:	098d0e63          	beq	x26,x24,2c28 <tensorlib_sparse_convolution_forward+0x370>
    2b90:	40d00db3          	neg	x27,x13
    2b94:	e7042e83          	lw	x29,-400(x8)
    2b98:	e6c42283          	lw	x5,-404(x8)
    2b9c:	002d9e13          	slli	x28,x27,0x2
    2ba0:	e2442583          	lw	x11,-476(x8)
    2ba4:	e2042803          	lw	x16,-480(x8)
    2ba8:	e1442d03          	lw	x26,-492(x8)
    2bac:	e1042d83          	lw	x27,-496(x8)
    2bb0:	00269613          	slli	x12,x13,0x2
    2bb4:	01f68333          	add	x6,x13,x31
    2bb8:	01ce8533          	add	x10,x29,x28
    2bbc:	01c28733          	add	x14,x5,x28
    2bc0:	00068b93          	mv	x23,x13
    2bc4:	e1c42783          	lw	x15,-484(x8)
    2bc8:	3efbfc63          	bgeu	x23,x15,2fc0 <tensorlib_sparse_convolution_forward+0x708>
    2bcc:	e1842c83          	lw	x25,-488(x8)
    2bd0:	00100c13          	li	x24,1
    2bd4:	3d8c8c63          	beq	x25,x24,2fac <tensorlib_sparse_convolution_forward+0x6f4>
    2bd8:	00cd07b3          	add	x15,x26,x12
    2bdc:	0007ac83          	lw	x25,0(x15)
    2be0:	e2c42e03          	lw	x28,-468(x8)
    2be4:	00c50c33          	add	x24,x10,x12
    2be8:	019c2023          	sw	x25,0(x24)
    2bec:	00c587b3          	add	x15,x11,x12
    2bf0:	37cbfa63          	bgeu	x23,x28,2f64 <tensorlib_sparse_convolution_forward+0x6ac>
    2bf4:	e2842e83          	lw	x29,-472(x8)
    2bf8:	00100293          	li	x5,1
    2bfc:	005e9a63          	bne	x29,x5,2c10 <tensorlib_sparse_convolution_forward+0x358>
    2c00:	00082783          	lw	x15,0(x16) # 80000000 <_end+0xfeffcd2c>
    2c04:	02fb8cb3          	mul	x25,x23,x15
    2c08:	002c9c13          	slli	x24,x25,0x2
    2c0c:	018587b3          	add	x15,x11,x24
    2c10:	0007a787          	flw	f15,0(x15)
    2c14:	00c70e33          	add	x28,x14,x12
    2c18:	001b8b93          	addi	x23,x23,1
    2c1c:	00fe2027          	fsw	f15,0(x28)
    2c20:	00460613          	addi	x12,x12,4
    2c24:	fa6b90e3          	bne	x23,x6,2bc4 <tensorlib_sparse_convolution_forward+0x30c>
    2c28:	e7442d03          	lw	x26,-396(x8)
    2c2c:	00000313          	li	x6,0
    2c30:	140d0263          	beqz	x26,2d74 <tensorlib_sparse_convolution_forward+0x4bc>
    2c34:	e5042d83          	lw	x27,-432(x8)
    2c38:	e6842e83          	lw	x29,-408(x8)
    2c3c:	00000e13          	li	x28,0
    2c40:	41b002b3          	neg	x5,x27
    2c44:	120e8263          	beqz	x29,2d68 <tensorlib_sparse_convolution_forward+0x4b0>
    2c48:	e6442c83          	lw	x25,-412(x8)
    2c4c:	100c8463          	beqz	x25,2d54 <tensorlib_sparse_convolution_forward+0x49c>
    2c50:	000b2c03          	lw	x24,0(x22) # 20000000 <_bsg_elf_dram_size>
    2c54:	004b2603          	lw	x12,4(x22)
    2c58:	008b2503          	lw	x10,8(x22)
    2c5c:	038307b3          	mul	x15,x6,x24
    2c60:	00cb2b83          	lw	x23,12(x22)
    2c64:	e4c42703          	lw	x14,-436(x8)
    2c68:	00000c13          	li	x24,0
    2c6c:	002b9813          	slli	x16,x23,0x2
    2c70:	40e00cb3          	neg	x25,x14
    2c74:	02c985b3          	mul	x11,x19,x12
    2c78:	02ae0d33          	mul	x26,x28,x10
    2c7c:	00b78db3          	add	x27,x15,x11
    2c80:	e4842503          	lw	x10,-440(x8)
    2c84:	01ad8eb3          	add	x29,x27,x26
    2c88:	002e9613          	slli	x12,x29,0x2
    2c8c:	00c507b3          	add	x15,x10,x12
    2c90:	0007a007          	flw	f0,0(x15)
    2c94:	0a0f8263          	beqz	x31,2d38 <tensorlib_sparse_convolution_forward+0x480>
    2c98:	e7042e83          	lw	x29,-400(x8)
    2c9c:	00000513          	li	x10,0
    2ca0:	000eab83          	lw	x23,0(x29)
    2ca4:	e5c42703          	lw	x14,-420(x8)
    2ca8:	e7842d83          	lw	x27,-392(x8)
    2cac:	004e8e93          	addi	x29,x29,4
    2cb0:	02ebf633          	remu	x12,x23,x14
    2cb4:	03b655b3          	divu	x11,x12,x27
    2cb8:	005585b3          	add	x11,x11,x5
    2cbc:	02ebdbb3          	divu	x23,x23,x14
    2cc0:	0605c863          	bltz	x11,2d30 <tensorlib_sparse_convolution_forward+0x478>
    2cc4:	e3c42d03          	lw	x26,-452(x8)
    2cc8:	07a5f463          	bgeu	x11,x26,2d30 <tensorlib_sparse_convolution_forward+0x478>
    2ccc:	03b67733          	remu	x14,x12,x27
    2cd0:	01970633          	add	x12,x14,x25
    2cd4:	04064e63          	bltz	x12,2d30 <tensorlib_sparse_convolution_forward+0x478>
    2cd8:	e6c42d03          	lw	x26,-404(x8)
    2cdc:	00251d93          	slli	x27,x10,0x2
    2ce0:	01bd0733          	add	x14,x26,x27
    2ce4:	e3842d83          	lw	x27,-456(x8)
    2ce8:	05b67463          	bgeu	x12,x27,2d30 <tensorlib_sparse_convolution_forward+0x478>
    2cec:	00072707          	flw	f14,0(x14)
    2cf0:	00caa703          	lw	x14,12(x21)
    2cf4:	000aad03          	lw	x26,0(x21)
    2cf8:	008aad83          	lw	x27,8(x21)
    2cfc:	02e60633          	mul	x12,x12,x14
    2d00:	004aa703          	lw	x14,4(x21)
    2d04:	03a30d33          	mul	x26,x6,x26
    2d08:	02eb8bb3          	mul	x23,x23,x14
    2d0c:	e4442703          	lw	x14,-444(x8)
    2d10:	03b585b3          	mul	x11,x11,x27
    2d14:	017d0d33          	add	x26,x26,x23
    2d18:	00cd0633          	add	x12,x26,x12
    2d1c:	00b60db3          	add	x27,x12,x11
    2d20:	002d9593          	slli	x11,x27,0x2
    2d24:	00b70bb3          	add	x23,x14,x11
    2d28:	000ba687          	flw	f13,0(x23)
    2d2c:	00e6f043          	fmadd.s	f0,f13,f14,f0
    2d30:	00150513          	addi	x10,x10,1
    2d34:	f7f516e3          	bne	x10,x31,2ca0 <tensorlib_sparse_convolution_forward+0x3e8>
    2d38:	e5442e83          	lw	x29,-428(x8)
    2d3c:	e6442d03          	lw	x26,-412(x8)
    2d40:	0007a027          	fsw	f0,0(x15)
    2d44:	001c0c13          	addi	x24,x24,1
    2d48:	010787b3          	add	x15,x15,x16
    2d4c:	01dc8cb3          	add	x25,x25,x29
    2d50:	f5ac10e3          	bne	x24,x26,2c90 <tensorlib_sparse_convolution_forward+0x3d8>
    2d54:	e5842803          	lw	x16,-424(x8)
    2d58:	e6842603          	lw	x12,-408(x8)
    2d5c:	001e0e13          	addi	x28,x28,1
    2d60:	010282b3          	add	x5,x5,x16
    2d64:	eece12e3          	bne	x28,x12,2c48 <tensorlib_sparse_convolution_forward+0x390>
    2d68:	e7442d83          	lw	x27,-396(x8)
    2d6c:	00130313          	addi	x6,x6,1
    2d70:	ec6d92e3          	bne	x27,x6,2c34 <tensorlib_sparse_convolution_forward+0x37c>
    2d74:	00138393          	addi	x7,x7,1
    2d78:	01e686b3          	add	x13,x13,x30
    2d7c:	df13cce3          	blt	x7,x17,2b74 <tensorlib_sparse_convolution_forward+0x2bc>
    2d80:	e0c42c03          	lw	x24,-500(x8)
    2d84:	e4042083          	lw	x1,-448(x8)
    2d88:	08098993          	addi	x19,x19,128
    2d8c:	200c0c13          	addi	x24,x24,512
    2d90:	3419f463          	bgeu	x19,x1,30d8 <tensorlib_sparse_convolution_forward+0x820>
    2d94:	00198a13          	addi	x20,x19,1
    2d98:	d81ff06f          	j	2b18 <tensorlib_sparse_convolution_forward+0x260>
    2d9c:	810003b7          	lui	x7,0x81000
    2da0:	81000db7          	lui	x27,0x81000
    2da4:	06f00613          	li	x12,111
    2da8:	000d8593          	mv	x11,x27
    2dac:	05838513          	addi	x10,x7,88 # 81000058 <_end+0xffffcd84>
    2db0:	138280ef          	jal	x1,2aee8 <bsg_printf>
    2db4:	e8842583          	lw	x11,-376(x8)
    2db8:	810006b7          	lui	x13,0x81000
    2dbc:	09068513          	addi	x10,x13,144 # 81000090 <_end+0xffffcdbc>
    2dc0:	00001c37          	lui	x24,0x1
    2dc4:	124280ef          	jal	x1,2aee8 <bsg_printf>
    2dc8:	00001a37          	lui	x20,0x1
    2dcc:	544c2983          	lw	x19,1348(x24) # 1544 <__bsg_y>
    2dd0:	548a2b03          	lw	x22,1352(x20) # 1548 <__bsg_x>
    2dd4:	4100f8b7          	lui	x17,0x4100f
    2dd8:	01099a93          	slli	x21,x19,0x10
    2ddc:	016a8f33          	add	x30,x21,x22
    2de0:	ade8ac23          	sw	x30,-1320(x17) # 4100ead8 <_bsg_elf_dram_size+0x2100ead8>
    2de4:	0000006f          	j	2de4 <tensorlib_sparse_convolution_forward+0x52c>
    2de8:	81000e37          	lui	x28,0x81000
    2dec:	81000d37          	lui	x26,0x81000
    2df0:	06f00613          	li	x12,111
    2df4:	000d0593          	mv	x11,x26
    2df8:	058e0513          	addi	x10,x28,88 # 81000058 <_end+0xffffcd84>
    2dfc:	0ec280ef          	jal	x1,2aee8 <bsg_printf>
    2e00:	e8842583          	lw	x11,-376(x8)
    2e04:	81000837          	lui	x16,0x81000
    2e08:	09080513          	addi	x10,x16,144 # 81000090 <_end+0xffffcdbc>
    2e0c:	0dc280ef          	jal	x1,2aee8 <bsg_printf>
    2e10:	000012b7          	lui	x5,0x1
    2e14:	5442a583          	lw	x11,1348(x5) # 1544 <__bsg_y>
    2e18:	000017b7          	lui	x15,0x1
    2e1c:	5487a483          	lw	x9,1352(x15) # 1548 <__bsg_x>
    2e20:	01059f93          	slli	x31,x11,0x10
    2e24:	4100f637          	lui	x12,0x4100f
    2e28:	009f8333          	add	x6,x31,x9
    2e2c:	ac662c23          	sw	x6,-1320(x12) # 4100ead8 <_bsg_elf_dram_size+0x2100ead8>
    2e30:	0000006f          	j	2e30 <tensorlib_sparse_convolution_forward+0x578>
    2e34:	810000b7          	lui	x1,0x81000
    2e38:	81000ab7          	lui	x21,0x81000
    2e3c:	00008593          	mv	x11,x1
    2e40:	06f00613          	li	x12,111
    2e44:	058a8513          	addi	x10,x21,88 # 81000058 <_end+0xffffcd84>
    2e48:	0a0280ef          	jal	x1,2aee8 <bsg_printf>
    2e4c:	e8842583          	lw	x11,-376(x8)
    2e50:	81000f37          	lui	x30,0x81000
    2e54:	090f0513          	addi	x10,x30,144 # 81000090 <_end+0xffffcdbc>
    2e58:	090280ef          	jal	x1,2aee8 <bsg_printf>
    2e5c:	000018b7          	lui	x17,0x1
    2e60:	5448ab83          	lw	x23,1348(x17) # 1544 <__bsg_y>
    2e64:	00001537          	lui	x10,0x1
    2e68:	54852703          	lw	x14,1352(x10) # 1548 <__bsg_x>
    2e6c:	010b9e93          	slli	x29,x23,0x10
    2e70:	4100f937          	lui	x18,0x4100f
    2e74:	00ee8cb3          	add	x25,x29,x14
    2e78:	ad992c23          	sw	x25,-1320(x18) # 4100ead8 <_bsg_elf_dram_size+0x2100ead8>
    2e7c:	0000006f          	j	2e7c <tensorlib_sparse_convolution_forward+0x5c4>
    2e80:	81000eb7          	lui	x29,0x81000
    2e84:	81000cb7          	lui	x25,0x81000
    2e88:	000e8593          	mv	x11,x29
    2e8c:	06f00613          	li	x12,111
    2e90:	058c8513          	addi	x10,x25,88 # 81000058 <_end+0xffffcd84>
    2e94:	054280ef          	jal	x1,2aee8 <bsg_printf>
    2e98:	ec442583          	lw	x11,-316(x8)
    2e9c:	81000937          	lui	x18,0x81000
    2ea0:	09090513          	addi	x10,x18,144 # 81000090 <_end+0xffffcdbc>
    2ea4:	044280ef          	jal	x1,2aee8 <bsg_printf>
    2ea8:	00001d37          	lui	x26,0x1
    2eac:	544d2e03          	lw	x28,1348(x26) # 1544 <__bsg_y>
    2eb0:	00001837          	lui	x16,0x1
    2eb4:	54882283          	lw	x5,1352(x16) # 1548 <__bsg_x>
    2eb8:	010e1593          	slli	x11,x28,0x10
    2ebc:	4100f4b7          	lui	x9,0x4100f
    2ec0:	005587b3          	add	x15,x11,x5
    2ec4:	acf4ac23          	sw	x15,-1320(x9) # 4100ead8 <_bsg_elf_dram_size+0x2100ead8>
    2ec8:	0000006f          	j	2ec8 <tensorlib_sparse_convolution_forward+0x610>
    2ecc:	81000fb7          	lui	x31,0x81000
    2ed0:	81000337          	lui	x6,0x81000
    2ed4:	000f8593          	mv	x11,x31
    2ed8:	06f00613          	li	x12,111
    2edc:	05830513          	addi	x10,x6,88 # 81000058 <_end+0xffffcd84>
    2ee0:	008280ef          	jal	x1,2aee8 <bsg_printf>
    2ee4:	e8842583          	lw	x11,-376(x8)
    2ee8:	81000637          	lui	x12,0x81000
    2eec:	09060513          	addi	x10,x12,144 # 81000090 <_end+0xffffcdbc>
    2ef0:	7f9270ef          	jal	x1,2aee8 <bsg_printf>
    2ef4:	00001db7          	lui	x27,0x1
    2ef8:	544da383          	lw	x7,1348(x27) # 1544 <__bsg_y>
    2efc:	000016b7          	lui	x13,0x1
    2f00:	5486ac03          	lw	x24,1352(x13) # 1548 <__bsg_x>
    2f04:	01039993          	slli	x19,x7,0x10
    2f08:	4100fb37          	lui	x22,0x4100f
    2f0c:	01898a33          	add	x20,x19,x24
    2f10:	ad4b2c23          	sw	x20,-1320(x22) # 4100ead8 <_bsg_elf_dram_size+0x2100ead8>
    2f14:	0000006f          	j	2f14 <tensorlib_sparse_convolution_forward+0x65c>
    2f18:	810000b7          	lui	x1,0x81000
    2f1c:	810009b7          	lui	x19,0x81000
    2f20:	06f00613          	li	x12,111
    2f24:	00098593          	mv	x11,x19
    2f28:	05808513          	addi	x10,x1,88 # 81000058 <_end+0xffffcd84>
    2f2c:	7bd270ef          	jal	x1,2aee8 <bsg_printf>
    2f30:	ec442583          	lw	x11,-316(x8)
    2f34:	81000a37          	lui	x20,0x81000
    2f38:	090a0513          	addi	x10,x20,144 # 81000090 <_end+0xffffcdbc>
    2f3c:	7ad270ef          	jal	x1,2aee8 <bsg_printf>
    2f40:	00001b37          	lui	x22,0x1
    2f44:	544b2a83          	lw	x21,1348(x22) # 1544 <__bsg_y>
    2f48:	00001f37          	lui	x30,0x1
    2f4c:	548f2883          	lw	x17,1352(x30) # 1548 <__bsg_x>
    2f50:	010a9b93          	slli	x23,x21,0x10
    2f54:	4100f737          	lui	x14,0x4100f
    2f58:	011b8533          	add	x10,x23,x17
    2f5c:	aca72c23          	sw	x10,-1320(x14) # 4100ead8 <_bsg_elf_dram_size+0x2100ead8>
    2f60:	0000006f          	j	2f60 <tensorlib_sparse_convolution_forward+0x6a8>
    2f64:	810009b7          	lui	x19,0x81000
    2f68:	81000b37          	lui	x22,0x81000
    2f6c:	00098593          	mv	x11,x19
    2f70:	08c00613          	li	x12,140
    2f74:	058b0513          	addi	x10,x22,88 # 81000058 <_end+0xffffcd84>
    2f78:	771270ef          	jal	x1,2aee8 <bsg_printf>
    2f7c:	f7442583          	lw	x11,-140(x8)
    2f80:	81000ab7          	lui	x21,0x81000
    2f84:	000b8613          	mv	x12,x23
    2f88:	0b8a8513          	addi	x10,x21,184 # 810000b8 <_end+0xffffcde4>
    2f8c:	75d270ef          	jal	x1,2aee8 <bsg_printf>
    2f90:	54492903          	lw	x18,1348(x18)
    2f94:	5484a483          	lw	x9,1352(x9)
    2f98:	4100fa37          	lui	x20,0x4100f
    2f9c:	01091693          	slli	x13,x18,0x10
    2fa0:	009683b3          	add	x7,x13,x9
    2fa4:	ac7a2c23          	sw	x7,-1320(x20) # 4100ead8 <_bsg_elf_dram_size+0x2100ead8>
    2fa8:	0000006f          	j	2fa8 <tensorlib_sparse_convolution_forward+0x6f0>
    2fac:	000dae03          	lw	x28,0(x27)
    2fb0:	03cb8eb3          	mul	x29,x23,x28
    2fb4:	002e9293          	slli	x5,x29,0x2
    2fb8:	005d07b3          	add	x15,x26,x5
    2fbc:	c21ff06f          	j	2bdc <tensorlib_sparse_convolution_forward+0x324>
    2fc0:	81000f37          	lui	x30,0x81000
    2fc4:	810008b7          	lui	x17,0x81000
    2fc8:	000f0593          	mv	x11,x30
    2fcc:	08c00613          	li	x12,140
    2fd0:	05888513          	addi	x10,x17,88 # 81000058 <_end+0xffffcd84>
    2fd4:	715270ef          	jal	x1,2aee8 <bsg_printf>
    2fd8:	f3842583          	lw	x11,-200(x8)
    2fdc:	81000fb7          	lui	x31,0x81000
    2fe0:	000b8613          	mv	x12,x23
    2fe4:	0b8f8513          	addi	x10,x31,184 # 810000b8 <_end+0xffffcde4>
    2fe8:	701270ef          	jal	x1,2aee8 <bsg_printf>
    2fec:	54492303          	lw	x6,1348(x18)
    2ff0:	5484a503          	lw	x10,1352(x9)
    2ff4:	4100f837          	lui	x16,0x4100f
    2ff8:	01031713          	slli	x14,x6,0x10
    2ffc:	00a705b3          	add	x11,x14,x10
    3000:	acb82c23          	sw	x11,-1320(x16) # 4100ead8 <_bsg_elf_dram_size+0x2100ead8>
    3004:	0000006f          	j	3004 <tensorlib_sparse_convolution_forward+0x74c>
    3008:	000a0f13          	mv	x30,x20
    300c:	00100893          	li	x17,1
    3010:	b55ff06f          	j	2b64 <tensorlib_sparse_convolution_forward+0x2ac>
    3014:	81000b37          	lui	x22,0x81000
    3018:	81000ab7          	lui	x21,0x81000
    301c:	000b0593          	mv	x11,x22
    3020:	08c00613          	li	x12,140
    3024:	058a8513          	addi	x10,x21,88 # 81000058 <_end+0xffffcd84>
    3028:	6c1270ef          	jal	x1,2aee8 <bsg_printf>
    302c:	efc42583          	lw	x11,-260(x8)
    3030:	81000f37          	lui	x30,0x81000
    3034:	000a0613          	mv	x12,x20
    3038:	0b8f0513          	addi	x10,x30,184 # 810000b8 <_end+0xffffcde4>
    303c:	6ad270ef          	jal	x1,2aee8 <bsg_printf>
    3040:	54492903          	lw	x18,1348(x18)
    3044:	5484a483          	lw	x9,1352(x9)
    3048:	4100f5b7          	lui	x11,0x4100f
    304c:	01091893          	slli	x17,x18,0x10
    3050:	00988fb3          	add	x31,x17,x9
    3054:	adf5ac23          	sw	x31,-1320(x11) # 4100ead8 <_bsg_elf_dram_size+0x2100ead8>
    3058:	0000006f          	j	3058 <tensorlib_sparse_convolution_forward+0x7a0>
    305c:	e3042603          	lw	x12,-464(x8)
    3060:	e6042683          	lw	x13,-416(x8)
    3064:	e7c42583          	lw	x11,-388(x8)
    3068:	00062083          	lw	x1,0(x12)
    306c:	00209293          	slli	x5,x1,0x2
    3070:	033287b3          	mul	x15,x5,x19
    3074:	00f68733          	add	x14,x13,x15
    3078:	00072b83          	lw	x23,0(x14)
    307c:	f8ba7ce3          	bgeu	x20,x11,3014 <tensorlib_sparse_convolution_forward+0x75c>
    3080:	03428a33          	mul	x20,x5,x20
    3084:	e6042303          	lw	x6,-416(x8)
    3088:	014303b3          	add	x7,x6,x20
    308c:	ab1ff06f          	j	2b3c <tensorlib_sparse_convolution_forward+0x284>
    3090:	81000737          	lui	x14,0x81000
    3094:	81000bb7          	lui	x23,0x81000
    3098:	00070593          	mv	x11,x14
    309c:	08c00613          	li	x12,140
    30a0:	058b8513          	addi	x10,x23,88 # 81000058 <_end+0xffffcd84>
    30a4:	645270ef          	jal	x1,2aee8 <bsg_printf>
    30a8:	efc42583          	lw	x11,-260(x8)
    30ac:	81000537          	lui	x10,0x81000
    30b0:	00098613          	mv	x12,x19
    30b4:	0b850513          	addi	x10,x10,184 # 810000b8 <_end+0xffffcde4>
    30b8:	631270ef          	jal	x1,2aee8 <bsg_printf>
    30bc:	54492783          	lw	x15,1348(x18)
    30c0:	5484ae83          	lw	x29,1352(x9)
    30c4:	4100fe37          	lui	x28,0x4100f
    30c8:	01079c93          	slli	x25,x15,0x10
    30cc:	01dc8d33          	add	x26,x25,x29
    30d0:	adae2c23          	sw	x26,-1320(x28) # 4100ead8 <_bsg_elf_dram_size+0x2100ead8>
    30d4:	0000006f          	j	30d4 <tensorlib_sparse_convolution_forward+0x81c>
    30d8:	00001837          	lui	x16,0x1
    30dc:	00001637          	lui	x12,0x1
    30e0:	53882283          	lw	x5,1336(x16) # 1538 <__bsg_grp_org_y>
    30e4:	53c62d83          	lw	x27,1340(x12) # 153c <__bsg_grp_org_x>
    30e8:	54492303          	lw	x6,1348(x18)
    30ec:	5484a383          	lw	x7,1352(x9)
    30f0:	000016b7          	lui	x13,0x1
    30f4:	5246ac03          	lw	x24,1316(x13) # 1524 <__bsg_tile_group_id>
    30f8:	006289b3          	add	x19,x5,x6
    30fc:	007d80b3          	add	x1,x27,x7
    3100:	01899a13          	slli	x20,x19,0x18
    3104:	01209b13          	slli	x22,x1,0x12
    3108:	3f000ab7          	lui	x21,0x3f000
    310c:	00fc08b7          	lui	x17,0xfc0
    3110:	00040737          	lui	x14,0x40
    3114:	004c1593          	slli	x11,x24,0x4
    3118:	015a7f33          	and	x30,x20,x21
    311c:	011b7fb3          	and	x31,x22,x17
    3120:	ff070513          	addi	x10,x14,-16 # 3fff0 <_ZN8HBTensorIfLl1EEC1EP11hb_tensor_t+0xa6bc>
    3124:	00a5f7b3          	and	x15,x11,x10
    3128:	01ff6bb3          	or	x23,x30,x31
    312c:	00fbeeb3          	or	x29,x23,x15
    3130:	c0000cb7          	lui	x25,0xc0000
    3134:	019eed33          	or	x26,x29,x25
    3138:	41001e37          	lui	x28,0x41001
    313c:	d1ae2623          	sw	x26,-756(x28) # 41000d0c <_bsg_elf_dram_size+0x21000d0c>
    3140:	5484a803          	lw	x16,1352(x9)
    3144:	54492283          	lw	x5,1348(x18)
    3148:	000015b7          	lui	x11,0x1
    314c:	00480313          	addi	x6,x16,4
    3150:	57458793          	addi	x15,x11,1396 # 1574 <g_barrier>
    3154:	00678633          	add	x12,x15,x6
    3158:	01829d93          	slli	x27,x5,0x18
    315c:	01b663b3          	or	x7,x12,x27
    3160:	201c06b7          	lui	x13,0x201c0
    3164:	00d3ec33          	or	x24,x7,x13
    3168:	00100993          	li	x19,1
    316c:	013c0023          	sb	x19,0(x24)
    3170:	5484a083          	lw	x1,1352(x9)
    3174:	00700a13          	li	x20,7
    3178:	0b408e63          	beq	x1,x20,3234 <tensorlib_sparse_convolution_forward+0x97c>
    317c:	00100913          	li	x18,1
    3180:	0100006f          	j	3190 <tensorlib_sparse_convolution_forward+0x8d8>
    3184:	57458813          	addi	x16,x11,1396
    3188:	140822af          	lr.w.aq	x5,(x16)
    318c:	01228863          	beq	x5,x18,319c <tensorlib_sparse_convolution_forward+0x8e4>
    3190:	57458d13          	addi	x26,x11,1396
    3194:	100d2e2f          	lr.w	x28,(x26)
    3198:	ff2e16e3          	bne	x28,x18,3184 <tensorlib_sparse_convolution_forward+0x8cc>
    319c:	0007a023          	sw	x0,0(x15)
    31a0:	e0040113          	addi	x2,x8,-512
    31a4:	1fc12083          	lw	x1,508(x2)
    31a8:	1f812403          	lw	x8,504(x2)
    31ac:	1f412483          	lw	x9,500(x2)
    31b0:	1f012903          	lw	x18,496(x2)
    31b4:	1ec12983          	lw	x19,492(x2)
    31b8:	1e812a03          	lw	x20,488(x2)
    31bc:	1e412a83          	lw	x21,484(x2)
    31c0:	1e012b03          	lw	x22,480(x2)
    31c4:	1dc12b83          	lw	x23,476(x2)
    31c8:	1d812c03          	lw	x24,472(x2)
    31cc:	1d412c83          	lw	x25,468(x2)
    31d0:	1d012d03          	lw	x26,464(x2)
    31d4:	1cc12d83          	lw	x27,460(x2)
    31d8:	1bc12407          	flw	f8,444(x2)
    31dc:	00000513          	li	x10,0
    31e0:	20010113          	addi	x2,x2,512
    31e4:	00008067          	ret
    31e8:	810007b7          	lui	x15,0x81000
    31ec:	810005b7          	lui	x11,0x81000
    31f0:	06f00613          	li	x12,111
    31f4:	00058593          	mv	x11,x11
    31f8:	05878513          	addi	x10,x15,88 # 81000058 <_end+0xffffcd84>
    31fc:	4ed270ef          	jal	x1,2aee8 <bsg_printf>
    3200:	ec442583          	lw	x11,-316(x8)
    3204:	810004b7          	lui	x9,0x81000
    3208:	09048513          	addi	x10,x9,144 # 81000090 <_end+0xffffcdbc>
    320c:	4dd270ef          	jal	x1,2aee8 <bsg_printf>
    3210:	00001fb7          	lui	x31,0x1
    3214:	544fa303          	lw	x6,1348(x31) # 1544 <__bsg_y>
    3218:	00001637          	lui	x12,0x1
    321c:	54862d83          	lw	x27,1352(x12) # 1548 <__bsg_x>
    3220:	01031393          	slli	x7,x6,0x10
    3224:	4100fc37          	lui	x24,0x4100f
    3228:	01b386b3          	add	x13,x7,x27
    322c:	acdc2c23          	sw	x13,-1320(x24) # 4100ead8 <_bsg_elf_dram_size+0x2100ead8>
    3230:	0000006f          	j	3230 <tensorlib_sparse_convolution_forward+0x978>
    3234:	00001b37          	lui	x22,0x1
    3238:	00001f37          	lui	x30,0x1
    323c:	578b0a93          	addi	x21,x22,1400 # 1578 <g_barrier+0x4>
    3240:	588f0f93          	addi	x31,x30,1416 # 1588 <g_barrier+0x14>
    3244:	000a8b93          	mv	x23,x21
    3248:	000bc883          	lbu	x17,0(x23)
    324c:	001b8b93          	addi	x23,x23,1
    3250:	0ff8f713          	andi	x14,x17,255
    3254:	fe0708e3          	beqz	x14,3244 <tensorlib_sparse_convolution_forward+0x98c>
    3258:	ff7f98e3          	bne	x31,x23,3248 <tensorlib_sparse_convolution_forward+0x990>
    325c:	54492503          	lw	x10,1348(x18)
    3260:	231c0d37          	lui	x26,0x231c0
    3264:	00100813          	li	x16,1
    3268:	01850e93          	addi	x29,x10,24
    326c:	01d78cb3          	add	x25,x15,x29
    3270:	01acee33          	or	x28,x25,x26
    3274:	010e0023          	sb	x16,0(x28)
    3278:	5484a283          	lw	x5,1352(x9)
    327c:	00700313          	li	x6,7
    3280:	ee629ee3          	bne	x5,x6,317c <tensorlib_sparse_convolution_forward+0x8c4>
    3284:	54492603          	lw	x12,1348(x18)
    3288:	00300d93          	li	x27,3
    328c:	07b60e63          	beq	x12,x27,3308 <tensorlib_sparse_convolution_forward+0xa50>
    3290:	00100313          	li	x6,1
    3294:	0100006f          	j	32a4 <tensorlib_sparse_convolution_forward+0x9ec>
    3298:	01478393          	addi	x7,x15,20
    329c:	1403a6af          	lr.w.aq	x13,(x7)
    32a0:	00668863          	beq	x13,x6,32b0 <tensorlib_sparse_convolution_forward+0x9f8>
    32a4:	01478613          	addi	x12,x15,20
    32a8:	10062daf          	lr.w	x27,(x12)
    32ac:	fe6d96e3          	bne	x27,x6,3298 <tensorlib_sparse_convolution_forward+0x9e0>
    32b0:	0007aa23          	sw	x0,20(x15)
    32b4:	00000093          	li	x1,0
    32b8:	01000c13          	li	x24,16
    32bc:	001789b3          	add	x19,x15,x1
    32c0:	00098223          	sb	x0,4(x19) # 81000004 <_end+0xffffcd30>
    32c4:	00108093          	addi	x1,x1,1
    32c8:	ff809ae3          	bne	x1,x24,32bc <tensorlib_sparse_convolution_forward+0xa04>
    32cc:	0007a023          	sw	x0,0(x15)
    32d0:	00000513          	li	x10,0
    32d4:	20000a37          	lui	x20,0x20000
    32d8:	00100b13          	li	x22,1
    32dc:	00040ab7          	lui	x21,0x40
    32e0:	00400f37          	lui	x30,0x400
    32e4:	54492883          	lw	x17,1348(x18)
    32e8:	00a7ebb3          	or	x23,x15,x10
    32ec:	01550533          	add	x10,x10,x21
    32f0:	01889713          	slli	x14,x17,0x18
    32f4:	01776eb3          	or	x29,x14,x23
    32f8:	014eecb3          	or	x25,x29,x20
    32fc:	016ca023          	sw	x22,0(x25) # c0000000 <_end+0x3effcd2c>
    3300:	ffe512e3          	bne	x10,x30,32e4 <tensorlib_sparse_convolution_forward+0xa2c>
    3304:	e79ff06f          	j	317c <tensorlib_sparse_convolution_forward+0x8c4>
    3308:	000013b7          	lui	x7,0x1
    330c:	00001c37          	lui	x24,0x1
    3310:	58c38693          	addi	x13,x7,1420 # 158c <g_barrier+0x18>
    3314:	594c0993          	addi	x19,x24,1428 # 1594 <_tls_data>
    3318:	00068a13          	mv	x20,x13
    331c:	000a4083          	lbu	x1,0(x20) # 20000000 <_bsg_elf_dram_size>
    3320:	001a0a13          	addi	x20,x20,1
    3324:	0ff0fb13          	andi	x22,x1,255
    3328:	fe0b08e3          	beqz	x22,3318 <tensorlib_sparse_convolution_forward+0xa60>
    332c:	ff4998e3          	bne	x19,x20,331c <tensorlib_sparse_convolution_forward+0xa64>
    3330:	00078c23          	sb	x0,24(x15)
    3334:	00078ca3          	sb	x0,25(x15)
    3338:	00078d23          	sb	x0,26(x15)
    333c:	00078da3          	sb	x0,27(x15)
    3340:	00078e23          	sb	x0,28(x15)
    3344:	00078ea3          	sb	x0,29(x15)
    3348:	00078f23          	sb	x0,30(x15)
    334c:	00078fa3          	sb	x0,31(x15)
    3350:	0007aa23          	sw	x0,20(x15)
    3354:	00000c93          	li	x25,0
    3358:	03fc0ab7          	lui	x21,0x3fc0
    335c:	20000f37          	lui	x30,0x20000
    3360:	00100893          	li	x17,1
    3364:	01000bb7          	lui	x23,0x1000
    3368:	08000537          	lui	x10,0x8000
    336c:	5484a703          	lw	x14,1352(x9)
    3370:	019feeb3          	or	x29,x31,x25
    3374:	017c8cb3          	add	x25,x25,x23
    3378:	01271d13          	slli	x26,x14,0x12
    337c:	015d7e33          	and	x28,x26,x21
    3380:	01de6833          	or	x16,x28,x29
    3384:	01e862b3          	or	x5,x16,x30
    3388:	0112a023          	sw	x17,0(x5)
    338c:	feac90e3          	bne	x25,x10,336c <tensorlib_sparse_convolution_forward+0xab4>
    3390:	5484a483          	lw	x9,1352(x9)
    3394:	00700f93          	li	x31,7
    3398:	eff48ce3          	beq	x9,x31,3290 <tensorlib_sparse_convolution_forward+0x9d8>
    339c:	de1ff06f          	j	317c <tensorlib_sparse_convolution_forward+0x8c4>

000033a0 <_Z21hb_tiled_foreach_implIfZ17tensorlib_sigmoidEUlfE_JEEvjjT0_8HBTensorIT_Lln1EES4_PS3_S5_.isra.0>:
    33a0:	f5010113          	addi	x2,x2,-176
    33a4:	0a812423          	sw	x8,168(x2)
    33a8:	0b212023          	sw	x18,160(x2)
    33ac:	09312e23          	sw	x19,156(x2)
    33b0:	09612823          	sw	x22,144(x2)
    33b4:	09812423          	sw	x24,136(x2)
    33b8:	09912223          	sw	x25,132(x2)
    33bc:	00060b13          	mv	x22,x12
    33c0:	0a112623          	sw	x1,172(x2)
    33c4:	0a912223          	sw	x9,164(x2)
    33c8:	09412c23          	sw	x20,152(x2)
    33cc:	09512a23          	sw	x21,148(x2)
    33d0:	09712623          	sw	x23,140(x2)
    33d4:	09a12023          	sw	x26,128(x2)
    33d8:	07b12e23          	sw	x27,124(x2)
    33dc:	06812627          	fsw	f8,108(x2)
    33e0:	00100613          	li	x12,1
    33e4:	0b012903          	lw	x18,176(x2)
    33e8:	00050413          	mv	x8,x10
    33ec:	00058993          	mv	x19,x11
    33f0:	00068c13          	mv	x24,x13
    33f4:	00080c93          	mv	x25,x16
    33f8:	12cb0063          	beq	x22,x12,3518 <_Z21hb_tiled_foreach_implIfZ17tensorlib_sigmoidEUlfE_JEEvjjT0_8HBTensorIT_Lln1EES4_PS3_S5_.isra.0+0x178>
    33fc:	0cb57663          	bgeu	x10,x11,34c8 <_Z21hb_tiled_foreach_implIfZ17tensorlib_sigmoidEUlfE_JEEvjjT0_8HBTensorIT_Lln1EES4_PS3_S5_.isra.0+0x128>
    3400:	00078a13          	mv	x20,x15
    3404:	000017b7          	lui	x15,0x1
    3408:	4507a407          	flw	f8,1104(x15) # 1450 <_Z21hb_tiled_foreach_implIfZ14tensorlib_tanhEUlfE_JEEvjjT0_8HBTensorIT_Lln1EES4_PS3_S5_.isra.0+0x164>
    340c:	002a1813          	slli	x16,x20,0x2
    3410:	002b1d93          	slli	x27,x22,0x2
    3414:	00070a93          	mv	x21,x14
    3418:	00088b93          	mv	x23,x17
    341c:	010884b3          	add	x9,x17,x16
    3420:	01b70db3          	add	x27,x14,x27
    3424:	0e0a0663          	beqz	x20,3510 <_Z21hb_tiled_foreach_implIfZ17tensorlib_sigmoidEUlfE_JEEvjjT0_8HBTensorIT_Lln1EES4_PS3_S5_.isra.0+0x170>
    3428:	000c8693          	mv	x13,x25
    342c:	000b8593          	mv	x11,x23
    3430:	00040713          	mv	x14,x8
    3434:	00000393          	li	x7,0
    3438:	0005a083          	lw	x1,0(x11) # 81000000 <_end+0xffffcd2c>
    343c:	0006a883          	lw	x17,0(x13) # 201c0000 <_bsg_elf_dram_size+0x1c0000>
    3440:	00458593          	addi	x11,x11,4
    3444:	021772b3          	remu	x5,x14,x1
    3448:	00468693          	addi	x13,x13,4
    344c:	03128333          	mul	x6,x5,x17
    3450:	02175733          	divu	x14,x14,x1
    3454:	006383b3          	add	x7,x7,x6
    3458:	feb490e3          	bne	x9,x11,3438 <_Z21hb_tiled_foreach_implIfZ17tensorlib_sigmoidEUlfE_JEEvjjT0_8HBTensorIT_Lln1EES4_PS3_S5_.isra.0+0x98>
    345c:	0b412e03          	lw	x28,180(x2)
    3460:	00239d13          	slli	x26,x7,0x2
    3464:	01ae0533          	add	x10,x28,x26
    3468:	00052507          	flw	f10,0(x10) # 8000000 <_bsg_elf_vcache_size+0x7f80000>
    346c:	080b0e63          	beqz	x22,3508 <_Z21hb_tiled_foreach_implIfZ17tensorlib_sigmoidEUlfE_JEEvjjT0_8HBTensorIT_Lln1EES4_PS3_S5_.isra.0+0x168>
    3470:	000c0813          	mv	x16,x24
    3474:	000a8f93          	mv	x31,x21
    3478:	00040513          	mv	x10,x8
    347c:	00000093          	li	x1,0
    3480:	000fae83          	lw	x29,0(x31)
    3484:	00082f03          	lw	x30,0(x16)
    3488:	004f8f93          	addi	x31,x31,4
    348c:	00480813          	addi	x16,x16,4
    3490:	03d57633          	remu	x12,x10,x29
    3494:	03e607b3          	mul	x15,x12,x30
    3498:	03d55533          	divu	x10,x10,x29
    349c:	00f080b3          	add	x1,x1,x15
    34a0:	fffd90e3          	bne	x27,x31,3480 <_Z21hb_tiled_foreach_implIfZ17tensorlib_sigmoidEUlfE_JEEvjjT0_8HBTensorIT_Lln1EES4_PS3_S5_.isra.0+0xe0>
    34a4:	00209893          	slli	x17,x1,0x2
    34a8:	01190d33          	add	x26,x18,x17
    34ac:	20a51553          	fneg.s	f10,f10
    34b0:	00140413          	addi	x8,x8,1
    34b4:	07d280ef          	jal	x1,2bd30 <expf>
    34b8:	00857053          	fadd.s	f0,f10,f8
    34bc:	180470d3          	fdiv.s	f1,f8,f0
    34c0:	001d2027          	fsw	f1,0(x26) # 231c0000 <_bsg_elf_dram_size+0x31c0000>
    34c4:	f68990e3          	bne	x19,x8,3424 <_Z21hb_tiled_foreach_implIfZ17tensorlib_sigmoidEUlfE_JEEvjjT0_8HBTensorIT_Lln1EES4_PS3_S5_.isra.0+0x84>
    34c8:	0ac12083          	lw	x1,172(x2)
    34cc:	0a812403          	lw	x8,168(x2)
    34d0:	0a412483          	lw	x9,164(x2)
    34d4:	0a012903          	lw	x18,160(x2)
    34d8:	09c12983          	lw	x19,156(x2)
    34dc:	09812a03          	lw	x20,152(x2)
    34e0:	09412a83          	lw	x21,148(x2)
    34e4:	09012b03          	lw	x22,144(x2)
    34e8:	08c12b83          	lw	x23,140(x2)
    34ec:	08812c03          	lw	x24,136(x2)
    34f0:	08412c83          	lw	x25,132(x2)
    34f4:	08012d03          	lw	x26,128(x2)
    34f8:	07c12d83          	lw	x27,124(x2)
    34fc:	06c12407          	flw	f8,108(x2)
    3500:	0b010113          	addi	x2,x2,176
    3504:	00008067          	ret
    3508:	00090d13          	mv	x26,x18
    350c:	fa1ff06f          	j	34ac <_Z21hb_tiled_foreach_implIfZ17tensorlib_sigmoidEUlfE_JEEvjjT0_8HBTensorIT_Lln1EES4_PS3_S5_.isra.0+0x10c>
    3510:	0b412503          	lw	x10,180(x2)
    3514:	f55ff06f          	j	3468 <_Z21hb_tiled_foreach_implIfZ17tensorlib_sigmoidEUlfE_JEEvjjT0_8HBTensorIT_Lln1EES4_PS3_S5_.isra.0+0xc8>
    3518:	fab578e3          	bgeu	x10,x11,34c8 <_Z21hb_tiled_foreach_implIfZ17tensorlib_sigmoidEUlfE_JEEvjjT0_8HBTensorIT_Lln1EES4_PS3_S5_.isra.0+0x128>
    351c:	0006ac03          	lw	x24,0(x13)
    3520:	00082c83          	lw	x25,0(x16)
    3524:	0b412683          	lw	x13,180(x2)
    3528:	002c1a13          	slli	x20,x24,0x2
    352c:	002c9a93          	slli	x21,x25,0x2
    3530:	035504b3          	mul	x9,x10,x21
    3534:	40a58bb3          	sub	x23,x11,x10
    3538:	00fbfd93          	andi	x27,x23,15
    353c:	000015b7          	lui	x11,0x1
    3540:	4505a407          	flw	f8,1104(x11) # 1450 <_Z21hb_tiled_foreach_implIfZ14tensorlib_tanhEUlfE_JEEvjjT0_8HBTensorIT_Lln1EES4_PS3_S5_.isra.0+0x164>
    3544:	034502b3          	mul	x5,x10,x20
    3548:	009684b3          	add	x9,x13,x9
    354c:	00590933          	add	x18,x18,x5
    3550:	280d8863          	beqz	x27,37e0 <_Z21hb_tiled_foreach_implIfZ17tensorlib_sigmoidEUlfE_JEEvjjT0_8HBTensorIT_Lln1EES4_PS3_S5_.isra.0+0x440>
    3554:	276d8263          	beq	x27,x22,37b8 <_Z21hb_tiled_foreach_implIfZ17tensorlib_sigmoidEUlfE_JEEvjjT0_8HBTensorIT_Lln1EES4_PS3_S5_.isra.0+0x418>
    3558:	00200b13          	li	x22,2
    355c:	236d8c63          	beq	x27,x22,3794 <_Z21hb_tiled_foreach_implIfZ17tensorlib_sigmoidEUlfE_JEEvjjT0_8HBTensorIT_Lln1EES4_PS3_S5_.isra.0+0x3f4>
    3560:	00300313          	li	x6,3
    3564:	206d8663          	beq	x27,x6,3770 <_Z21hb_tiled_foreach_implIfZ17tensorlib_sigmoidEUlfE_JEEvjjT0_8HBTensorIT_Lln1EES4_PS3_S5_.isra.0+0x3d0>
    3568:	00400713          	li	x14,4
    356c:	1eed8063          	beq	x27,x14,374c <_Z21hb_tiled_foreach_implIfZ17tensorlib_sigmoidEUlfE_JEEvjjT0_8HBTensorIT_Lln1EES4_PS3_S5_.isra.0+0x3ac>
    3570:	00500393          	li	x7,5
    3574:	1a7d8a63          	beq	x27,x7,3728 <_Z21hb_tiled_foreach_implIfZ17tensorlib_sigmoidEUlfE_JEEvjjT0_8HBTensorIT_Lln1EES4_PS3_S5_.isra.0+0x388>
    3578:	00600e13          	li	x28,6
    357c:	19cd8463          	beq	x27,x28,3704 <_Z21hb_tiled_foreach_implIfZ17tensorlib_sigmoidEUlfE_JEEvjjT0_8HBTensorIT_Lln1EES4_PS3_S5_.isra.0+0x364>
    3580:	00700d13          	li	x26,7
    3584:	15ad8e63          	beq	x27,x26,36e0 <_Z21hb_tiled_foreach_implIfZ17tensorlib_sigmoidEUlfE_JEEvjjT0_8HBTensorIT_Lln1EES4_PS3_S5_.isra.0+0x340>
    3588:	00800e93          	li	x29,8
    358c:	13dd8863          	beq	x27,x29,36bc <_Z21hb_tiled_foreach_implIfZ17tensorlib_sigmoidEUlfE_JEEvjjT0_8HBTensorIT_Lln1EES4_PS3_S5_.isra.0+0x31c>
    3590:	00900f13          	li	x30,9
    3594:	11ed8263          	beq	x27,x30,3698 <_Z21hb_tiled_foreach_implIfZ17tensorlib_sigmoidEUlfE_JEEvjjT0_8HBTensorIT_Lln1EES4_PS3_S5_.isra.0+0x2f8>
    3598:	00a00f93          	li	x31,10
    359c:	0dfd8c63          	beq	x27,x31,3674 <_Z21hb_tiled_foreach_implIfZ17tensorlib_sigmoidEUlfE_JEEvjjT0_8HBTensorIT_Lln1EES4_PS3_S5_.isra.0+0x2d4>
    35a0:	00b00613          	li	x12,11
    35a4:	0acd8663          	beq	x27,x12,3650 <_Z21hb_tiled_foreach_implIfZ17tensorlib_sigmoidEUlfE_JEEvjjT0_8HBTensorIT_Lln1EES4_PS3_S5_.isra.0+0x2b0>
    35a8:	00c00813          	li	x16,12
    35ac:	090d8063          	beq	x27,x16,362c <_Z21hb_tiled_foreach_implIfZ17tensorlib_sigmoidEUlfE_JEEvjjT0_8HBTensorIT_Lln1EES4_PS3_S5_.isra.0+0x28c>
    35b0:	00d00793          	li	x15,13
    35b4:	04fd8a63          	beq	x27,x15,3608 <_Z21hb_tiled_foreach_implIfZ17tensorlib_sigmoidEUlfE_JEEvjjT0_8HBTensorIT_Lln1EES4_PS3_S5_.isra.0+0x268>
    35b8:	00e00513          	li	x10,14
    35bc:	02ad8463          	beq	x27,x10,35e4 <_Z21hb_tiled_foreach_implIfZ17tensorlib_sigmoidEUlfE_JEEvjjT0_8HBTensorIT_Lln1EES4_PS3_S5_.isra.0+0x244>
    35c0:	0004a107          	flw	f2,0(x9)
    35c4:	00140413          	addi	x8,x8,1
    35c8:	015484b3          	add	x9,x9,x21
    35cc:	20211553          	fneg.s	f10,f2
    35d0:	760280ef          	jal	x1,2bd30 <expf>
    35d4:	008577d3          	fadd.s	f15,f10,f8
    35d8:	18f471d3          	fdiv.s	f3,f8,f15
    35dc:	00392027          	fsw	f3,0(x18)
    35e0:	01490933          	add	x18,x18,x20
    35e4:	0004a207          	flw	f4,0(x9)
    35e8:	00140413          	addi	x8,x8,1
    35ec:	015484b3          	add	x9,x9,x21
    35f0:	20421553          	fneg.s	f10,f4
    35f4:	73c280ef          	jal	x1,2bd30 <expf>
    35f8:	008572d3          	fadd.s	f5,f10,f8
    35fc:	18547353          	fdiv.s	f6,f8,f5
    3600:	00692027          	fsw	f6,0(x18)
    3604:	01490933          	add	x18,x18,x20
    3608:	0004a387          	flw	f7,0(x9)
    360c:	00140413          	addi	x8,x8,1
    3610:	015484b3          	add	x9,x9,x21
    3614:	20739553          	fneg.s	f10,f7
    3618:	718280ef          	jal	x1,2bd30 <expf>
    361c:	008575d3          	fadd.s	f11,f10,f8
    3620:	18b47653          	fdiv.s	f12,f8,f11
    3624:	00c92027          	fsw	f12,0(x18)
    3628:	01490933          	add	x18,x18,x20
    362c:	0004a687          	flw	f13,0(x9)
    3630:	00140413          	addi	x8,x8,1
    3634:	015484b3          	add	x9,x9,x21
    3638:	20d69553          	fneg.s	f10,f13
    363c:	6f4280ef          	jal	x1,2bd30 <expf>
    3640:	00857753          	fadd.s	f14,f10,f8
    3644:	18e47853          	fdiv.s	f16,f8,f14
    3648:	01092027          	fsw	f16,0(x18)
    364c:	01490933          	add	x18,x18,x20
    3650:	0004a887          	flw	f17,0(x9)
    3654:	00140413          	addi	x8,x8,1
    3658:	015484b3          	add	x9,x9,x21
    365c:	21189553          	fneg.s	f10,f17
    3660:	6d0280ef          	jal	x1,2bd30 <expf>
    3664:	00857e53          	fadd.s	f28,f10,f8
    3668:	19c47ed3          	fdiv.s	f29,f8,f28
    366c:	01d92027          	fsw	f29,0(x18)
    3670:	01490933          	add	x18,x18,x20
    3674:	0004af07          	flw	f30,0(x9)
    3678:	00140413          	addi	x8,x8,1
    367c:	015484b3          	add	x9,x9,x21
    3680:	21ef1553          	fneg.s	f10,f30
    3684:	6ac280ef          	jal	x1,2bd30 <expf>
    3688:	00857fd3          	fadd.s	f31,f10,f8
    368c:	19f47553          	fdiv.s	f10,f8,f31
    3690:	00a92027          	fsw	f10,0(x18)
    3694:	01490933          	add	x18,x18,x20
    3698:	0004a007          	flw	f0,0(x9)
    369c:	00140413          	addi	x8,x8,1
    36a0:	015484b3          	add	x9,x9,x21
    36a4:	20001553          	fneg.s	f10,f0
    36a8:	688280ef          	jal	x1,2bd30 <expf>
    36ac:	008570d3          	fadd.s	f1,f10,f8
    36b0:	18147153          	fdiv.s	f2,f8,f1
    36b4:	00292027          	fsw	f2,0(x18)
    36b8:	01490933          	add	x18,x18,x20
    36bc:	0004a787          	flw	f15,0(x9)
    36c0:	00140413          	addi	x8,x8,1
    36c4:	015484b3          	add	x9,x9,x21
    36c8:	20f79553          	fneg.s	f10,f15
    36cc:	664280ef          	jal	x1,2bd30 <expf>
    36d0:	008571d3          	fadd.s	f3,f10,f8
    36d4:	18347253          	fdiv.s	f4,f8,f3
    36d8:	00492027          	fsw	f4,0(x18)
    36dc:	01490933          	add	x18,x18,x20
    36e0:	0004a287          	flw	f5,0(x9)
    36e4:	00140413          	addi	x8,x8,1
    36e8:	015484b3          	add	x9,x9,x21
    36ec:	20529553          	fneg.s	f10,f5
    36f0:	640280ef          	jal	x1,2bd30 <expf>
    36f4:	00857353          	fadd.s	f6,f10,f8
    36f8:	186473d3          	fdiv.s	f7,f8,f6
    36fc:	00792027          	fsw	f7,0(x18)
    3700:	01490933          	add	x18,x18,x20
    3704:	0004a587          	flw	f11,0(x9)
    3708:	00140413          	addi	x8,x8,1
    370c:	015484b3          	add	x9,x9,x21
    3710:	20b59553          	fneg.s	f10,f11
    3714:	61c280ef          	jal	x1,2bd30 <expf>
    3718:	00857653          	fadd.s	f12,f10,f8
    371c:	18c476d3          	fdiv.s	f13,f8,f12
    3720:	00d92027          	fsw	f13,0(x18)
    3724:	01490933          	add	x18,x18,x20
    3728:	0004a707          	flw	f14,0(x9)
    372c:	00140413          	addi	x8,x8,1
    3730:	015484b3          	add	x9,x9,x21
    3734:	20e71553          	fneg.s	f10,f14
    3738:	5f8280ef          	jal	x1,2bd30 <expf>
    373c:	00857853          	fadd.s	f16,f10,f8
    3740:	190478d3          	fdiv.s	f17,f8,f16
    3744:	01192027          	fsw	f17,0(x18)
    3748:	01490933          	add	x18,x18,x20
    374c:	0004ae07          	flw	f28,0(x9)
    3750:	00140413          	addi	x8,x8,1
    3754:	015484b3          	add	x9,x9,x21
    3758:	21ce1553          	fneg.s	f10,f28
    375c:	5d4280ef          	jal	x1,2bd30 <expf>
    3760:	00857ed3          	fadd.s	f29,f10,f8
    3764:	19d47f53          	fdiv.s	f30,f8,f29
    3768:	01e92027          	fsw	f30,0(x18)
    376c:	01490933          	add	x18,x18,x20
    3770:	0004af87          	flw	f31,0(x9)
    3774:	00140413          	addi	x8,x8,1
    3778:	015484b3          	add	x9,x9,x21
    377c:	21ff9553          	fneg.s	f10,f31
    3780:	5b0280ef          	jal	x1,2bd30 <expf>
    3784:	00857553          	fadd.s	f10,f10,f8
    3788:	18a47053          	fdiv.s	f0,f8,f10
    378c:	00092027          	fsw	f0,0(x18)
    3790:	01490933          	add	x18,x18,x20
    3794:	0004a087          	flw	f1,0(x9)
    3798:	00140413          	addi	x8,x8,1
    379c:	015484b3          	add	x9,x9,x21
    37a0:	20109553          	fneg.s	f10,f1
    37a4:	58c280ef          	jal	x1,2bd30 <expf>
    37a8:	00857153          	fadd.s	f2,f10,f8
    37ac:	182477d3          	fdiv.s	f15,f8,f2
    37b0:	00f92027          	fsw	f15,0(x18)
    37b4:	01490933          	add	x18,x18,x20
    37b8:	0004a187          	flw	f3,0(x9)
    37bc:	00140413          	addi	x8,x8,1
    37c0:	015484b3          	add	x9,x9,x21
    37c4:	20319553          	fneg.s	f10,f3
    37c8:	568280ef          	jal	x1,2bd30 <expf>
    37cc:	00857253          	fadd.s	f4,f10,f8
    37d0:	184472d3          	fdiv.s	f5,f8,f4
    37d4:	00592027          	fsw	f5,0(x18)
    37d8:	01490933          	add	x18,x18,x20
    37dc:	ce8986e3          	beq	x19,x8,34c8 <_Z21hb_tiled_foreach_implIfZ17tensorlib_sigmoidEUlfE_JEEvjjT0_8HBTensorIT_Lln1EES4_PS3_S5_.isra.0+0x128>
    37e0:	0004a307          	flw	f6,0(x9)
    37e4:	01548cb3          	add	x25,x9,x21
    37e8:	015c84b3          	add	x9,x25,x21
    37ec:	20631553          	fneg.s	f10,f6
    37f0:	01490db3          	add	x27,x18,x20
    37f4:	01548d33          	add	x26,x9,x21
    37f8:	538280ef          	jal	x1,2bd30 <expf>
    37fc:	008575d3          	fadd.s	f11,f10,f8
    3800:	014d88b3          	add	x17,x27,x20
    3804:	015d0c33          	add	x24,x26,x21
    3808:	01488bb3          	add	x23,x17,x20
    380c:	015c05b3          	add	x11,x24,x21
    3810:	18b47653          	fdiv.s	f12,f8,f11
    3814:	014b82b3          	add	x5,x23,x20
    3818:	015586b3          	add	x13,x11,x21
    381c:	01428b33          	add	x22,x5,x20
    3820:	014b0733          	add	x14,x22,x20
    3824:	01568333          	add	x6,x13,x21
    3828:	01470e33          	add	x28,x14,x20
    382c:	015303b3          	add	x7,x6,x21
    3830:	000ca387          	flw	f7,0(x25)
    3834:	014e0f33          	add	x30,x28,x20
    3838:	01538eb3          	add	x29,x7,x21
    383c:	014f0633          	add	x12,x30,x20
    3840:	015e8fb3          	add	x31,x29,x21
    3844:	015f8cb3          	add	x25,x31,x21
    3848:	05812c23          	sw	x24,88(x2)
    384c:	01460c33          	add	x24,x12,x20
    3850:	20739553          	fneg.s	f10,f7
    3854:	05712a23          	sw	x23,84(x2)
    3858:	05612223          	sw	x22,68(x2)
    385c:	015c8bb3          	add	x23,x25,x21
    3860:	014c0b33          	add	x22,x24,x20
    3864:	014b07b3          	add	x15,x22,x20
    3868:	015b8833          	add	x16,x23,x21
    386c:	01580533          	add	x10,x16,x21
    3870:	00c92027          	fsw	f12,0(x18)
    3874:	05112e23          	sw	x17,92(x2)
    3878:	014788b3          	add	x17,x15,x20
    387c:	01112423          	sw	x17,8(x2)
    3880:	00a12623          	sw	x10,12(x2)
    3884:	00f12823          	sw	x15,16(x2)
    3888:	02c12223          	sw	x12,36(x2)
    388c:	01012a23          	sw	x16,20(x2)
    3890:	03e12623          	sw	x30,44(x2)
    3894:	03f12423          	sw	x31,40(x2)
    3898:	03c12a23          	sw	x28,52(x2)
    389c:	03d12823          	sw	x29,48(x2)
    38a0:	02e12e23          	sw	x14,60(x2)
    38a4:	02712c23          	sw	x7,56(x2)
    38a8:	04612023          	sw	x6,64(x2)
    38ac:	04b12823          	sw	x11,80(x2)
    38b0:	04512623          	sw	x5,76(x2)
    38b4:	04d12423          	sw	x13,72(x2)
    38b8:	478280ef          	jal	x1,2bd30 <expf>
    38bc:	00857753          	fadd.s	f14,f10,f8
    38c0:	0004a687          	flw	f13,0(x9)
    38c4:	00812583          	lw	x11,8(x2)
    38c8:	00c12903          	lw	x18,12(x2)
    38cc:	20d69553          	fneg.s	f10,f13
    38d0:	18e47853          	fdiv.s	f16,f8,f14
    38d4:	014582b3          	add	x5,x11,x20
    38d8:	014286b3          	add	x13,x5,x20
    38dc:	015904b3          	add	x9,x18,x21
    38e0:	00512c23          	sw	x5,24(x2)
    38e4:	02d12023          	sw	x13,32(x2)
    38e8:	01468933          	add	x18,x13,x20
    38ec:	00912e23          	sw	x9,28(x2)
    38f0:	01040413          	addi	x8,x8,16
    38f4:	015484b3          	add	x9,x9,x21
    38f8:	010da027          	fsw	f16,0(x27)
    38fc:	434280ef          	jal	x1,2bd30 <expf>
    3900:	00857e53          	fadd.s	f28,f10,f8
    3904:	000d2887          	flw	f17,0(x26)
    3908:	05c12d83          	lw	x27,92(x2)
    390c:	21189553          	fneg.s	f10,f17
    3910:	19c47ed3          	fdiv.s	f29,f8,f28
    3914:	01dda027          	fsw	f29,0(x27)
    3918:	418280ef          	jal	x1,2bd30 <expf>
    391c:	00857fd3          	fadd.s	f31,f10,f8
    3920:	05812d03          	lw	x26,88(x2)
    3924:	05412303          	lw	x6,84(x2)
    3928:	000d2f07          	flw	f30,0(x26)
    392c:	19f47053          	fdiv.s	f0,f8,f31
    3930:	21ef1553          	fneg.s	f10,f30
    3934:	00032027          	fsw	f0,0(x6)
    3938:	3f8280ef          	jal	x1,2bd30 <expf>
    393c:	00857153          	fadd.s	f2,f10,f8
    3940:	05012703          	lw	x14,80(x2)
    3944:	04c12383          	lw	x7,76(x2)
    3948:	00072087          	flw	f1,0(x14)
    394c:	182477d3          	fdiv.s	f15,f8,f2
    3950:	20109553          	fneg.s	f10,f1
    3954:	00f3a027          	fsw	f15,0(x7)
    3958:	3d8280ef          	jal	x1,2bd30 <expf>
    395c:	00857253          	fadd.s	f4,f10,f8
    3960:	04812e03          	lw	x28,72(x2)
    3964:	04412e83          	lw	x29,68(x2)
    3968:	000e2187          	flw	f3,0(x28)
    396c:	184472d3          	fdiv.s	f5,f8,f4
    3970:	20319553          	fneg.s	f10,f3
    3974:	005ea027          	fsw	f5,0(x29) # 81000000 <_end+0xffffcd2c>
    3978:	3b8280ef          	jal	x1,2bd30 <expf>
    397c:	008573d3          	fadd.s	f7,f10,f8
    3980:	04012f03          	lw	x30,64(x2)
    3984:	03c12f83          	lw	x31,60(x2)
    3988:	000f2307          	flw	f6,0(x30) # 20000000 <_bsg_elf_dram_size>
    398c:	187475d3          	fdiv.s	f11,f8,f7
    3990:	20631553          	fneg.s	f10,f6
    3994:	00bfa027          	fsw	f11,0(x31)
    3998:	398280ef          	jal	x1,2bd30 <expf>
    399c:	008576d3          	fadd.s	f13,f10,f8
    39a0:	03812603          	lw	x12,56(x2)
    39a4:	03412803          	lw	x16,52(x2)
    39a8:	00062607          	flw	f12,0(x12)
    39ac:	18d47753          	fdiv.s	f14,f8,f13
    39b0:	20c61553          	fneg.s	f10,f12
    39b4:	00e82027          	fsw	f14,0(x16)
    39b8:	378280ef          	jal	x1,2bd30 <expf>
    39bc:	008578d3          	fadd.s	f17,f10,f8
    39c0:	03012783          	lw	x15,48(x2)
    39c4:	0007a807          	flw	f16,0(x15)
    39c8:	19147e53          	fdiv.s	f28,f8,f17
    39cc:	02c12503          	lw	x10,44(x2)
    39d0:	21081553          	fneg.s	f10,f16
    39d4:	01c52027          	fsw	f28,0(x10)
    39d8:	358280ef          	jal	x1,2bd30 <expf>
    39dc:	00857f53          	fadd.s	f30,f10,f8
    39e0:	02812883          	lw	x17,40(x2)
    39e4:	02412583          	lw	x11,36(x2)
    39e8:	0008ae87          	flw	f29,0(x17) # fc0000 <_bsg_elf_vcache_size+0xf40000>
    39ec:	19e47fd3          	fdiv.s	f31,f8,f30
    39f0:	21de9553          	fneg.s	f10,f29
    39f4:	01f5a027          	fsw	f31,0(x11)
    39f8:	338280ef          	jal	x1,2bd30 <expf>
    39fc:	008570d3          	fadd.s	f1,f10,f8
    3a00:	000ca007          	flw	f0,0(x25)
    3a04:	20001553          	fneg.s	f10,f0
    3a08:	18147153          	fdiv.s	f2,f8,f1
    3a0c:	002c2027          	fsw	f2,0(x24)
    3a10:	320280ef          	jal	x1,2bd30 <expf>
    3a14:	008577d3          	fadd.s	f15,f10,f8
    3a18:	000ba187          	flw	f3,0(x23) # 1000000 <_bsg_elf_vcache_size+0xf80000>
    3a1c:	20319553          	fneg.s	f10,f3
    3a20:	18f47253          	fdiv.s	f4,f8,f15
    3a24:	004b2027          	fsw	f4,0(x22)
    3a28:	308280ef          	jal	x1,2bd30 <expf>
    3a2c:	00857353          	fadd.s	f6,f10,f8
    3a30:	01412c83          	lw	x25,20(x2)
    3a34:	01012c03          	lw	x24,16(x2)
    3a38:	000ca287          	flw	f5,0(x25)
    3a3c:	186473d3          	fdiv.s	f7,f8,f6
    3a40:	20529553          	fneg.s	f10,f5
    3a44:	007c2027          	fsw	f7,0(x24)
    3a48:	2e8280ef          	jal	x1,2bd30 <expf>
    3a4c:	00857653          	fadd.s	f12,f10,f8
    3a50:	00c12b83          	lw	x23,12(x2)
    3a54:	00812b03          	lw	x22,8(x2)
    3a58:	000ba587          	flw	f11,0(x23)
    3a5c:	18c476d3          	fdiv.s	f13,f8,f12
    3a60:	20b59553          	fneg.s	f10,f11
    3a64:	00db2027          	fsw	f13,0(x22)
    3a68:	2c8280ef          	jal	x1,2bd30 <expf>
    3a6c:	00857853          	fadd.s	f16,f10,f8
    3a70:	01c12283          	lw	x5,28(x2)
    3a74:	01812683          	lw	x13,24(x2)
    3a78:	0002a707          	flw	f14,0(x5)
    3a7c:	190478d3          	fdiv.s	f17,f8,f16
    3a80:	20e71553          	fneg.s	f10,f14
    3a84:	0116a027          	fsw	f17,0(x13)
    3a88:	2a8280ef          	jal	x1,2bd30 <expf>
    3a8c:	00857553          	fadd.s	f10,f10,f8
    3a90:	02012d83          	lw	x27,32(x2)
    3a94:	18a47e53          	fdiv.s	f28,f8,f10
    3a98:	01cda027          	fsw	f28,0(x27)
    3a9c:	d48992e3          	bne	x19,x8,37e0 <_Z21hb_tiled_foreach_implIfZ17tensorlib_sigmoidEUlfE_JEEvjjT0_8HBTensorIT_Lln1EES4_PS3_S5_.isra.0+0x440>
    3aa0:	a29ff06f          	j	34c8 <_Z21hb_tiled_foreach_implIfZ17tensorlib_sigmoidEUlfE_JEEvjjT0_8HBTensorIT_Lln1EES4_PS3_S5_.isra.0+0x128>

00003aa4 <tensorlib_sigmoid>:
    3aa4:	f5010113          	addi	x2,x2,-176
    3aa8:	00050793          	mv	x15,x10
    3aac:	0a812423          	sw	x8,168(x2)
    3ab0:	01810513          	addi	x10,x2,24
    3ab4:	00058413          	mv	x8,x11
    3ab8:	00078593          	mv	x11,x15
    3abc:	0a112623          	sw	x1,172(x2)
    3ac0:	0a912223          	sw	x9,164(x2)
    3ac4:	0b212023          	sw	x18,160(x2)
    3ac8:	09312e23          	sw	x19,156(x2)
    3acc:	09412c23          	sw	x20,152(x2)
    3ad0:	1ac2b0ef          	jal	x1,2ec7c <_ZN8HBTensorIfLln1EEC1EP11hb_tensor_t>
    3ad4:	00040593          	mv	x11,x8
    3ad8:	05410513          	addi	x10,x2,84
    3adc:	1a02b0ef          	jal	x1,2ec7c <_ZN8HBTensorIfLln1EEC1EP11hb_tensor_t>
    3ae0:	00001a37          	lui	x20,0x1
    3ae4:	000014b7          	lui	x9,0x1
    3ae8:	000019b7          	lui	x19,0x1
    3aec:	00001437          	lui	x8,0x1
    3af0:	538a2283          	lw	x5,1336(x20) # 1538 <__bsg_grp_org_y>
    3af4:	5444a583          	lw	x11,1348(x9) # 1544 <__bsg_y>
    3af8:	53c9a703          	lw	x14,1340(x19) # 153c <__bsg_grp_org_x>
    3afc:	54842603          	lw	x12,1352(x8) # 1548 <__bsg_x>
    3b00:	00001937          	lui	x18,0x1
    3b04:	52492683          	lw	x13,1316(x18) # 1524 <__bsg_tile_group_id>
    3b08:	00b28333          	add	x6,x5,x11
    3b0c:	00c703b3          	add	x7,x14,x12
    3b10:	01831513          	slli	x10,x6,0x18
    3b14:	01239813          	slli	x16,x7,0x12
    3b18:	3f0008b7          	lui	x17,0x3f000
    3b1c:	00fc0eb7          	lui	x29,0xfc0
    3b20:	000405b7          	lui	x11,0x40
    3b24:	01157e33          	and	x28,x10,x17
    3b28:	01d87f33          	and	x30,x16,x29
    3b2c:	00469f93          	slli	x31,x13,0x4
    3b30:	ff058713          	addi	x14,x11,-16 # 3fff0 <_ZN8HBTensorIfLl1EEC1EP11hb_tensor_t+0xa6bc>
    3b34:	01ee67b3          	or	x15,x28,x30
    3b38:	00eff633          	and	x12,x31,x14
    3b3c:	01812283          	lw	x5,24(x2)
    3b40:	00c7e6b3          	or	x13,x15,x12
    3b44:	80000337          	lui	x6,0x80000
    3b48:	0066e3b3          	or	x7,x13,x6
    3b4c:	41001537          	lui	x10,0x41001
    3b50:	d0752623          	sw	x7,-756(x10) # 41000d0c <_bsg_elf_dram_size+0x21000d0c>
    3b54:	fff28f13          	addi	x30,x5,-1
    3b58:	ffd00f93          	li	x31,-3
    3b5c:	01c12603          	lw	x12,28(x2)
    3b60:	02012683          	lw	x13,32(x2)
    3b64:	02412703          	lw	x14,36(x2)
    3b68:	02812e03          	lw	x28,40(x2)
    3b6c:	05812783          	lw	x15,88(x2)
    3b70:	05c12803          	lw	x16,92(x2)
    3b74:	06012883          	lw	x17,96(x2)
    3b78:	06412e83          	lw	x29,100(x2)
    3b7c:	1fefe463          	bltu	x31,x30,3d64 <tensorlib_sigmoid+0x2c0>
    3b80:	000010b7          	lui	x1,0x1
    3b84:	5400a303          	lw	x6,1344(x1) # 1540 <__bsg_id>
    3b88:	0072d593          	srli	x11,x5,0x7
    3b8c:	00158393          	addi	x7,x11,1
    3b90:	07f37513          	andi	x10,x6,127
    3b94:	02750533          	mul	x10,x10,x7
    3b98:	00a385b3          	add	x11,x7,x10
    3b9c:	1cb2ea63          	bltu	x5,x11,3d70 <tensorlib_sigmoid+0x2cc>
    3ba0:	1cb57263          	bgeu	x10,x11,3d64 <tensorlib_sigmoid+0x2c0>
    3ba4:	01d12223          	sw	x29,4(x2)
    3ba8:	01c12023          	sw	x28,0(x2)
    3bac:	ff4ff0ef          	jal	x1,33a0 <_Z21hb_tiled_foreach_implIfZ17tensorlib_sigmoidEUlfE_JEEvjjT0_8HBTensorIT_Lln1EES4_PS3_S5_.isra.0>
    3bb0:	5444a803          	lw	x16,1348(x9)
    3bb4:	538a2a03          	lw	x20,1336(x20)
    3bb8:	53c9a983          	lw	x19,1340(x19)
    3bbc:	54842883          	lw	x17,1352(x8)
    3bc0:	52492903          	lw	x18,1316(x18)
    3bc4:	010a02b3          	add	x5,x20,x16
    3bc8:	01198733          	add	x14,x19,x17
    3bcc:	01829793          	slli	x15,x5,0x18
    3bd0:	01271693          	slli	x13,x14,0x12
    3bd4:	3f000637          	lui	x12,0x3f000
    3bd8:	00fc0fb7          	lui	x31,0xfc0
    3bdc:	000405b7          	lui	x11,0x40
    3be0:	00c7ff33          	and	x30,x15,x12
    3be4:	01f6fe33          	and	x28,x13,x31
    3be8:	00491e93          	slli	x29,x18,0x4
    3bec:	ff058393          	addi	x7,x11,-16 # 3fff0 <_ZN8HBTensorIfLl1EEC1EP11hb_tensor_t+0xa6bc>
    3bf0:	01cf6333          	or	x6,x30,x28
    3bf4:	007ef533          	and	x10,x29,x7
    3bf8:	00a36a33          	or	x20,x6,x10
    3bfc:	c0000837          	lui	x16,0xc0000
    3c00:	010a69b3          	or	x19,x20,x16
    3c04:	410018b7          	lui	x17,0x41001
    3c08:	d138a623          	sw	x19,-756(x17) # 41000d0c <_bsg_elf_dram_size+0x21000d0c>
    3c0c:	54842903          	lw	x18,1352(x8)
    3c10:	5444a283          	lw	x5,1348(x9)
    3c14:	00001637          	lui	x12,0x1
    3c18:	00490713          	addi	x14,x18,4
    3c1c:	57460793          	addi	x15,x12,1396 # 1574 <g_barrier>
    3c20:	00e78f33          	add	x30,x15,x14
    3c24:	01829693          	slli	x13,x5,0x18
    3c28:	00df6fb3          	or	x31,x30,x13
    3c2c:	201c0e37          	lui	x28,0x201c0
    3c30:	01cfeeb3          	or	x29,x31,x28
    3c34:	00100313          	li	x6,1
    3c38:	006e8023          	sb	x6,0(x29) # fc0000 <_bsg_elf_vcache_size+0xf40000>
    3c3c:	54842583          	lw	x11,1352(x8)
    3c40:	00700393          	li	x7,7
    3c44:	04758663          	beq	x11,x7,3c90 <tensorlib_sigmoid+0x1ec>
    3c48:	00100493          	li	x9,1
    3c4c:	0100006f          	j	3c5c <tensorlib_sigmoid+0x1b8>
    3c50:	57460893          	addi	x17,x12,1396
    3c54:	1408a92f          	lr.w.aq	x18,(x17)
    3c58:	00990863          	beq	x18,x9,3c68 <tensorlib_sigmoid+0x1c4>
    3c5c:	57460513          	addi	x10,x12,1396
    3c60:	1005282f          	lr.w	x16,(x10)
    3c64:	fe9816e3          	bne	x16,x9,3c50 <tensorlib_sigmoid+0x1ac>
    3c68:	0ac12083          	lw	x1,172(x2)
    3c6c:	0a812403          	lw	x8,168(x2)
    3c70:	0007a023          	sw	x0,0(x15)
    3c74:	0a412483          	lw	x9,164(x2)
    3c78:	0a012903          	lw	x18,160(x2)
    3c7c:	09c12983          	lw	x19,156(x2)
    3c80:	09812a03          	lw	x20,152(x2)
    3c84:	00000513          	li	x10,0
    3c88:	0b010113          	addi	x2,x2,176
    3c8c:	00008067          	ret
    3c90:	000010b7          	lui	x1,0x1
    3c94:	00001537          	lui	x10,0x1
    3c98:	57808a13          	addi	x20,x1,1400 # 1578 <g_barrier+0x4>
    3c9c:	58850993          	addi	x19,x10,1416 # 1588 <g_barrier+0x14>
    3ca0:	000a0893          	mv	x17,x20
    3ca4:	0008c803          	lbu	x16,0(x17)
    3ca8:	00188893          	addi	x17,x17,1
    3cac:	0ff87913          	andi	x18,x16,255
    3cb0:	fe0908e3          	beqz	x18,3ca0 <tensorlib_sigmoid+0x1fc>
    3cb4:	ff1998e3          	bne	x19,x17,3ca4 <tensorlib_sigmoid+0x200>
    3cb8:	5444a283          	lw	x5,1348(x9)
    3cbc:	231c06b7          	lui	x13,0x231c0
    3cc0:	00100e13          	li	x28,1
    3cc4:	01828713          	addi	x14,x5,24
    3cc8:	00e78f33          	add	x30,x15,x14
    3ccc:	00df6fb3          	or	x31,x30,x13
    3cd0:	01cf8023          	sb	x28,0(x31) # fc0000 <_bsg_elf_vcache_size+0xf40000>
    3cd4:	54842383          	lw	x7,1352(x8)
    3cd8:	00700e93          	li	x29,7
    3cdc:	f7d396e3          	bne	x7,x29,3c48 <tensorlib_sigmoid+0x1a4>
    3ce0:	5444a303          	lw	x6,1348(x9)
    3ce4:	00300593          	li	x11,3
    3ce8:	08b30863          	beq	x6,x11,3d78 <tensorlib_sigmoid+0x2d4>
    3cec:	00100513          	li	x10,1
    3cf0:	0100006f          	j	3d00 <tensorlib_sigmoid+0x25c>
    3cf4:	01478913          	addi	x18,x15,20
    3cf8:	140922af          	lr.w.aq	x5,(x18)
    3cfc:	00a28863          	beq	x5,x10,3d0c <tensorlib_sigmoid+0x268>
    3d00:	01478813          	addi	x16,x15,20
    3d04:	100828af          	lr.w	x17,(x16)
    3d08:	fea896e3          	bne	x17,x10,3cf4 <tensorlib_sigmoid+0x250>
    3d0c:	0007aa23          	sw	x0,20(x15)
    3d10:	00000e13          	li	x28,0
    3d14:	01000f13          	li	x30,16
    3d18:	01c78fb3          	add	x31,x15,x28
    3d1c:	000f8223          	sb	x0,4(x31)
    3d20:	001e0e13          	addi	x28,x28,1 # 201c0001 <_bsg_elf_dram_size+0x1c0001>
    3d24:	ffee1ae3          	bne	x28,x30,3d18 <tensorlib_sigmoid+0x274>
    3d28:	0007a023          	sw	x0,0(x15)
    3d2c:	00000a13          	li	x20,0
    3d30:	20000eb7          	lui	x29,0x20000
    3d34:	00100313          	li	x6,1
    3d38:	000403b7          	lui	x7,0x40
    3d3c:	004000b7          	lui	x1,0x400
    3d40:	5444a703          	lw	x14,1348(x9)
    3d44:	0147e5b3          	or	x11,x15,x20
    3d48:	007a0a33          	add	x20,x20,x7
    3d4c:	01871693          	slli	x13,x14,0x18
    3d50:	00b6e433          	or	x8,x13,x11
    3d54:	01d469b3          	or	x19,x8,x29
    3d58:	0069a023          	sw	x6,0(x19)
    3d5c:	fe1a12e3          	bne	x20,x1,3d40 <tensorlib_sigmoid+0x29c>
    3d60:	ee9ff06f          	j	3c48 <tensorlib_sigmoid+0x1a4>
    3d64:	00000593          	li	x11,0
    3d68:	00000513          	li	x10,0
    3d6c:	e39ff06f          	j	3ba4 <tensorlib_sigmoid+0x100>
    3d70:	00028593          	mv	x11,x5
    3d74:	e2dff06f          	j	3ba0 <tensorlib_sigmoid+0xfc>
    3d78:	000010b7          	lui	x1,0x1
    3d7c:	00001537          	lui	x10,0x1
    3d80:	58c08a13          	addi	x20,x1,1420 # 158c <g_barrier+0x18>
    3d84:	59450813          	addi	x16,x10,1428 # 1594 <_tls_data>
    3d88:	000a0913          	mv	x18,x20
    3d8c:	00094883          	lbu	x17,0(x18)
    3d90:	00190913          	addi	x18,x18,1
    3d94:	0ff8f293          	andi	x5,x17,255
    3d98:	fe0288e3          	beqz	x5,3d88 <tensorlib_sigmoid+0x2e4>
    3d9c:	ff2818e3          	bne	x16,x18,3d8c <tensorlib_sigmoid+0x2e8>
    3da0:	00078c23          	sb	x0,24(x15)
    3da4:	00078ca3          	sb	x0,25(x15)
    3da8:	00078d23          	sb	x0,26(x15)
    3dac:	00078da3          	sb	x0,27(x15)
    3db0:	00078e23          	sb	x0,28(x15)
    3db4:	00078ea3          	sb	x0,29(x15)
    3db8:	00078f23          	sb	x0,30(x15)
    3dbc:	00078fa3          	sb	x0,31(x15)
    3dc0:	0007aa23          	sw	x0,20(x15)
    3dc4:	00000693          	li	x13,0
    3dc8:	03fc0f37          	lui	x30,0x3fc0
    3dcc:	20000fb7          	lui	x31,0x20000
    3dd0:	00100e13          	li	x28,1
    3dd4:	01000eb7          	lui	x29,0x1000
    3dd8:	08000337          	lui	x6,0x8000
    3ddc:	0080006f          	j	3de4 <tensorlib_sigmoid+0x340>
    3de0:	54842383          	lw	x7,1352(x8)
    3de4:	01239713          	slli	x14,x7,0x12
    3de8:	01e775b3          	and	x11,x14,x30
    3dec:	00d9e3b3          	or	x7,x19,x13
    3df0:	0075e0b3          	or	x1,x11,x7
    3df4:	01f0ea33          	or	x20,x1,x31
    3df8:	01ca2023          	sw	x28,0(x20)
    3dfc:	01d686b3          	add	x13,x13,x29
    3e00:	fe6690e3          	bne	x13,x6,3de0 <tensorlib_sigmoid+0x33c>
    3e04:	54842403          	lw	x8,1352(x8)
    3e08:	00700993          	li	x19,7
    3e0c:	ef3400e3          	beq	x8,x19,3cec <tensorlib_sigmoid+0x248>
    3e10:	e39ff06f          	j	3c48 <tensorlib_sigmoid+0x1a4>

00003e14 <tensorlib_eye>:
    3e14:	fb010113          	addi	x2,x2,-80
    3e18:	04912223          	sw	x9,68(x2)
    3e1c:	00058493          	mv	x9,x11
    3e20:	00050593          	mv	x11,x10
    3e24:	00410513          	addi	x10,x2,4
    3e28:	04812423          	sw	x8,72(x2)
    3e2c:	04112623          	sw	x1,76(x2)
    3e30:	00060413          	mv	x8,x12
    3e34:	6492a0ef          	jal	x1,2ec7c <_ZN8HBTensorIfLln1EEC1EP11hb_tensor_t>
    3e38:	00001e37          	lui	x28,0x1
    3e3c:	00001537          	lui	x10,0x1
    3e40:	00001337          	lui	x6,0x1
    3e44:	000016b7          	lui	x13,0x1
    3e48:	538e2783          	lw	x15,1336(x28) # 1538 <__bsg_grp_org_y>
    3e4c:	54452583          	lw	x11,1348(x10) # 1544 <__bsg_y>
    3e50:	53c32703          	lw	x14,1340(x6) # 153c <__bsg_grp_org_x>
    3e54:	5486a603          	lw	x12,1352(x13) # 1548 <__bsg_x>
    3e58:	000018b7          	lui	x17,0x1
    3e5c:	5248a803          	lw	x16,1316(x17) # 1524 <__bsg_tile_group_id>
    3e60:	00b782b3          	add	x5,x15,x11
    3e64:	00c703b3          	add	x7,x14,x12
    3e68:	01829e93          	slli	x29,x5,0x18
    3e6c:	01239f13          	slli	x30,x7,0x12
    3e70:	3f000fb7          	lui	x31,0x3f000
    3e74:	00fc05b7          	lui	x11,0xfc0
    3e78:	000402b7          	lui	x5,0x40
    3e7c:	01fef7b3          	and	x15,x29,x31
    3e80:	00bf7733          	and	x14,x30,x11
    3e84:	00481813          	slli	x16,x16,0x4
    3e88:	ff028393          	addi	x7,x5,-16 # 3fff0 <_ZN8HBTensorIfLl1EEC1EP11hb_tensor_t+0xa6bc>
    3e8c:	00e7e633          	or	x12,x15,x14
    3e90:	0004a483          	lw	x9,0(x9)
    3e94:	00787eb3          	and	x29,x16,x7
    3e98:	01d66f33          	or	x30,x12,x29
    3e9c:	80000fb7          	lui	x31,0x80000
    3ea0:	01ff67b3          	or	x15,x30,x31
    3ea4:	410015b7          	lui	x11,0x41001
    3ea8:	00042403          	lw	x8,0(x8)
    3eac:	fff48713          	addi	x14,x9,-1
    3eb0:	d0f5a623          	sw	x15,-756(x11) # 41000d0c <_bsg_elf_dram_size+0x21000d0c>
    3eb4:	ffd00813          	li	x16,-3
    3eb8:	06e86a63          	bltu	x16,x14,3f2c <tensorlib_eye+0x118>
    3ebc:	000010b7          	lui	x1,0x1
    3ec0:	5400a603          	lw	x12,1344(x1) # 1540 <__bsg_id>
    3ec4:	0074d293          	srli	x5,x9,0x7
    3ec8:	00128393          	addi	x7,x5,1
    3ecc:	07f67e93          	andi	x29,x12,127
    3ed0:	027e8733          	mul	x14,x29,x7
    3ed4:	00e38833          	add	x16,x7,x14
    3ed8:	2104e263          	bltu	x9,x16,40dc <tensorlib_eye+0x2c8>
    3edc:	05077863          	bgeu	x14,x16,3f2c <tensorlib_eye+0x118>
    3ee0:	00001fb7          	lui	x31,0x1
    3ee4:	00c12483          	lw	x9,12(x2)
    3ee8:	01412f03          	lw	x30,20(x2)
    3eec:	450fa787          	flw	f15,1104(x31) # 1450 <_Z21hb_tiled_foreach_implIfZ14tensorlib_tanhEUlfE_JEEvjjT0_8HBTensorIT_Lln1EES4_PS3_S5_.isra.0+0x164>
    3ef0:	02040a63          	beqz	x8,3f24 <tensorlib_eye+0x110>
    3ef4:	0004a783          	lw	x15,0(x9)
    3ef8:	0044a583          	lw	x11,4(x9)
    3efc:	00000613          	li	x12,0
    3f00:	02f700b3          	mul	x1,x14,x15
    3f04:	00259293          	slli	x5,x11,0x2
    3f08:	00209393          	slli	x7,x1,0x2
    3f0c:	007f0eb3          	add	x29,x30,x7
    3f10:	1cc70263          	beq	x14,x12,40d4 <tensorlib_eye+0x2c0>
    3f14:	000ea023          	sw	x0,0(x29) # 1000000 <_bsg_elf_vcache_size+0xf80000>
    3f18:	00160613          	addi	x12,x12,1
    3f1c:	005e8eb3          	add	x29,x29,x5
    3f20:	fec418e3          	bne	x8,x12,3f10 <tensorlib_eye+0xfc>
    3f24:	00170713          	addi	x14,x14,1
    3f28:	fce814e3          	bne	x16,x14,3ef0 <tensorlib_eye+0xdc>
    3f2c:	538e2e03          	lw	x28,1336(x28)
    3f30:	54452403          	lw	x8,1348(x10)
    3f34:	53c32303          	lw	x6,1340(x6)
    3f38:	5486a803          	lw	x16,1352(x13)
    3f3c:	5248a883          	lw	x17,1316(x17)
    3f40:	008e04b3          	add	x9,x28,x8
    3f44:	01030f33          	add	x30,x6,x16
    3f48:	01849f93          	slli	x31,x9,0x18
    3f4c:	012f1093          	slli	x1,x30,0x12
    3f50:	3f0007b7          	lui	x15,0x3f000
    3f54:	00fc05b7          	lui	x11,0xfc0
    3f58:	00040737          	lui	x14,0x40
    3f5c:	00fff2b3          	and	x5,x31,x15
    3f60:	00b0f3b3          	and	x7,x1,x11
    3f64:	00489613          	slli	x12,x17,0x4
    3f68:	ff070e13          	addi	x28,x14,-16 # 3fff0 <_ZN8HBTensorIfLl1EEC1EP11hb_tensor_t+0xa6bc>
    3f6c:	0072eeb3          	or	x29,x5,x7
    3f70:	01c67433          	and	x8,x12,x28
    3f74:	008ee333          	or	x6,x29,x8
    3f78:	c0000837          	lui	x16,0xc0000
    3f7c:	010368b3          	or	x17,x6,x16
    3f80:	410014b7          	lui	x9,0x41001
    3f84:	d114a623          	sw	x17,-756(x9) # 41000d0c <_bsg_elf_dram_size+0x21000d0c>
    3f88:	5486af03          	lw	x30,1352(x13)
    3f8c:	54452f83          	lw	x31,1348(x10)
    3f90:	000015b7          	lui	x11,0x1
    3f94:	004f0093          	addi	x1,x30,4 # 3fc0004 <_bsg_elf_vcache_size+0x3f40004>
    3f98:	57458793          	addi	x15,x11,1396 # 1574 <g_barrier>
    3f9c:	001782b3          	add	x5,x15,x1
    3fa0:	018f9393          	slli	x7,x31,0x18
    3fa4:	0072eeb3          	or	x29,x5,x7
    3fa8:	201c0637          	lui	x12,0x201c0
    3fac:	00cee733          	or	x14,x29,x12
    3fb0:	00100e13          	li	x28,1
    3fb4:	01c70023          	sb	x28,0(x14)
    3fb8:	5486a403          	lw	x8,1352(x13)
    3fbc:	00700313          	li	x6,7
    3fc0:	04640063          	beq	x8,x6,4000 <tensorlib_eye+0x1ec>
    3fc4:	00100513          	li	x10,1
    3fc8:	0100006f          	j	3fd8 <tensorlib_eye+0x1c4>
    3fcc:	57458e13          	addi	x28,x11,1396
    3fd0:	140e232f          	lr.w.aq	x6,(x28)
    3fd4:	00a30863          	beq	x6,x10,3fe4 <tensorlib_eye+0x1d0>
    3fd8:	57458893          	addi	x17,x11,1396
    3fdc:	1008af2f          	lr.w	x30,(x17)
    3fe0:	feaf16e3          	bne	x30,x10,3fcc <tensorlib_eye+0x1b8>
    3fe4:	04c12083          	lw	x1,76(x2)
    3fe8:	04812403          	lw	x8,72(x2)
    3fec:	0007a023          	sw	x0,0(x15) # 3f000000 <_bsg_elf_dram_size+0x1f000000>
    3ff0:	04412483          	lw	x9,68(x2)
    3ff4:	00000513          	li	x10,0
    3ff8:	05010113          	addi	x2,x2,80
    3ffc:	00008067          	ret
    4000:	00001837          	lui	x16,0x1
    4004:	000018b7          	lui	x17,0x1
    4008:	57880493          	addi	x9,x16,1400 # 1578 <g_barrier+0x4>
    400c:	58888093          	addi	x1,x17,1416 # 1588 <g_barrier+0x14>
    4010:	00048f93          	mv	x31,x9
    4014:	000fcf03          	lbu	x30,0(x31)
    4018:	001f8f93          	addi	x31,x31,1
    401c:	0fff7293          	andi	x5,x30,255
    4020:	fe0288e3          	beqz	x5,4010 <tensorlib_eye+0x1fc>
    4024:	fff098e3          	bne	x1,x31,4014 <tensorlib_eye+0x200>
    4028:	54452383          	lw	x7,1348(x10)
    402c:	231c0637          	lui	x12,0x231c0
    4030:	00100413          	li	x8,1
    4034:	01838e93          	addi	x29,x7,24 # 40018 <_ZN8HBTensorIfLl1EEC1EP11hb_tensor_t+0xa6e4>
    4038:	01d78733          	add	x14,x15,x29
    403c:	00c76e33          	or	x28,x14,x12
    4040:	008e0023          	sb	x8,0(x28)
    4044:	5486a483          	lw	x9,1352(x13)
    4048:	00700313          	li	x6,7
    404c:	f6649ce3          	bne	x9,x6,3fc4 <tensorlib_eye+0x1b0>
    4050:	54452803          	lw	x16,1348(x10)
    4054:	00300893          	li	x17,3
    4058:	09180663          	beq	x16,x17,40e4 <tensorlib_eye+0x2d0>
    405c:	00100713          	li	x14,1
    4060:	0100006f          	j	4070 <tensorlib_eye+0x25c>
    4064:	01478893          	addi	x17,x15,20
    4068:	1408af2f          	lr.w.aq	x30,(x17)
    406c:	00ef0863          	beq	x30,x14,407c <tensorlib_eye+0x268>
    4070:	01478613          	addi	x12,x15,20
    4074:	1006242f          	lr.w	x8,(x12)
    4078:	fee416e3          	bne	x8,x14,4064 <tensorlib_eye+0x250>
    407c:	0007aa23          	sw	x0,20(x15)
    4080:	00000493          	li	x9,0
    4084:	01000e13          	li	x28,16
    4088:	00978333          	add	x6,x15,x9
    408c:	00030223          	sb	x0,4(x6)
    4090:	00148493          	addi	x9,x9,1
    4094:	ffc49ae3          	bne	x9,x28,4088 <tensorlib_eye+0x274>
    4098:	0007a023          	sw	x0,0(x15)
    409c:	00000693          	li	x13,0
    40a0:	20000fb7          	lui	x31,0x20000
    40a4:	00100293          	li	x5,1
    40a8:	000403b7          	lui	x7,0x40
    40ac:	00400837          	lui	x16,0x400
    40b0:	54452e83          	lw	x29,1348(x10)
    40b4:	00d7e0b3          	or	x1,x15,x13
    40b8:	007686b3          	add	x13,x13,x7
    40bc:	018e9713          	slli	x14,x29,0x18
    40c0:	00176633          	or	x12,x14,x1
    40c4:	01f66433          	or	x8,x12,x31
    40c8:	00542023          	sw	x5,0(x8)
    40cc:	ff0692e3          	bne	x13,x16,40b0 <tensorlib_eye+0x29c>
    40d0:	ef5ff06f          	j	3fc4 <tensorlib_eye+0x1b0>
    40d4:	00fea027          	fsw	f15,0(x29)
    40d8:	e41ff06f          	j	3f18 <tensorlib_eye+0x104>
    40dc:	00048813          	mv	x16,x9
    40e0:	dfdff06f          	j	3edc <tensorlib_eye+0xc8>
    40e4:	00001f37          	lui	x30,0x1
    40e8:	000012b7          	lui	x5,0x1
    40ec:	58cf0f93          	addi	x31,x30,1420 # 158c <g_barrier+0x18>
    40f0:	59428393          	addi	x7,x5,1428 # 1594 <_tls_data>
    40f4:	000f8713          	mv	x14,x31
    40f8:	00074e83          	lbu	x29,0(x14)
    40fc:	00170713          	addi	x14,x14,1
    4100:	0ffef613          	andi	x12,x29,255
    4104:	fe0608e3          	beqz	x12,40f4 <tensorlib_eye+0x2e0>
    4108:	fee398e3          	bne	x7,x14,40f8 <tensorlib_eye+0x2e4>
    410c:	00078c23          	sb	x0,24(x15)
    4110:	00078ca3          	sb	x0,25(x15)
    4114:	00078d23          	sb	x0,26(x15)
    4118:	00078da3          	sb	x0,27(x15)
    411c:	00078e23          	sb	x0,28(x15)
    4120:	00078ea3          	sb	x0,29(x15)
    4124:	00078f23          	sb	x0,30(x15)
    4128:	00078fa3          	sb	x0,31(x15)
    412c:	0007aa23          	sw	x0,20(x15)
    4130:	00000e93          	li	x29,0
    4134:	03fc0437          	lui	x8,0x3fc0
    4138:	200008b7          	lui	x17,0x20000
    413c:	00100f13          	li	x30,1
    4140:	01000e37          	lui	x28,0x1000
    4144:	08000337          	lui	x6,0x8000
    4148:	0080006f          	j	4150 <tensorlib_eye+0x33c>
    414c:	5486a483          	lw	x9,1352(x13)
    4150:	01249493          	slli	x9,x9,0x12
    4154:	01d0e833          	or	x16,x1,x29
    4158:	0084ffb3          	and	x31,x9,x8
    415c:	010fe2b3          	or	x5,x31,x16
    4160:	0112e3b3          	or	x7,x5,x17
    4164:	01e3a023          	sw	x30,0(x7) # 40000 <_ZN8HBTensorIfLl1EEC1EP11hb_tensor_t+0xa6cc>
    4168:	01ce8eb3          	add	x29,x29,x28
    416c:	fe6e90e3          	bne	x29,x6,414c <tensorlib_eye+0x338>
    4170:	5486a683          	lw	x13,1352(x13)
    4174:	00700093          	li	x1,7
    4178:	ee1682e3          	beq	x13,x1,405c <tensorlib_eye+0x248>
    417c:	e49ff06f          	j	3fc4 <tensorlib_eye+0x1b0>

00004180 <_Z21hb_tiled_foreach_implIfZ15tensorlib_floorEUlfE_JEEvjjT0_8HBTensorIT_Lln1EES4_PS3_S5_.isra.0>:
    4180:	fc010113          	addi	x2,x2,-64
    4184:	02812c23          	sw	x8,56(x2)
    4188:	02912a23          	sw	x9,52(x2)
    418c:	03512223          	sw	x21,36(x2)
    4190:	03612023          	sw	x22,32(x2)
    4194:	01712e23          	sw	x23,28(x2)
    4198:	01812c23          	sw	x24,24(x2)
    419c:	00060413          	mv	x8,x12
    41a0:	02112e23          	sw	x1,60(x2)
    41a4:	03212823          	sw	x18,48(x2)
    41a8:	03312623          	sw	x19,44(x2)
    41ac:	03412423          	sw	x20,40(x2)
    41b0:	01912a23          	sw	x25,20(x2)
    41b4:	01a12823          	sw	x26,16(x2)
    41b8:	01b12623          	sw	x27,12(x2)
    41bc:	00100613          	li	x12,1
    41c0:	04412c03          	lw	x24,68(x2)
    41c4:	00050a93          	mv	x21,x10
    41c8:	00058493          	mv	x9,x11
    41cc:	00068b93          	mv	x23,x13
    41d0:	00080b13          	mv	x22,x16
    41d4:	10c40463          	beq	x8,x12,42dc <_Z21hb_tiled_foreach_implIfZ15tensorlib_floorEUlfE_JEEvjjT0_8HBTensorIT_Lln1EES4_PS3_S5_.isra.0+0x15c>
    41d8:	0ab57c63          	bgeu	x10,x11,4290 <_Z21hb_tiled_foreach_implIfZ15tensorlib_floorEUlfE_JEEvjjT0_8HBTensorIT_Lln1EES4_PS3_S5_.isra.0+0x110>
    41dc:	00279d93          	slli	x27,x15,0x2
    41e0:	00241d13          	slli	x26,x8,0x2
    41e4:	00070993          	mv	x19,x14
    41e8:	00078913          	mv	x18,x15
    41ec:	00088a13          	mv	x20,x17
    41f0:	01b88db3          	add	x27,x17,x27
    41f4:	01a70d33          	add	x26,x14,x26
    41f8:	0c090e63          	beqz	x18,42d4 <_Z21hb_tiled_foreach_implIfZ15tensorlib_floorEUlfE_JEEvjjT0_8HBTensorIT_Lln1EES4_PS3_S5_.isra.0+0x154>
    41fc:	000b0693          	mv	x13,x22
    4200:	000a0313          	mv	x6,x20
    4204:	000a8713          	mv	x14,x21
    4208:	00000393          	li	x7,0
    420c:	00032083          	lw	x1,0(x6) # 8000000 <_bsg_elf_vcache_size+0x7f80000>
    4210:	0006a803          	lw	x16,0(x13)
    4214:	00430313          	addi	x6,x6,4
    4218:	021777b3          	remu	x15,x14,x1
    421c:	00468693          	addi	x13,x13,4
    4220:	030782b3          	mul	x5,x15,x16
    4224:	02175733          	divu	x14,x14,x1
    4228:	005383b3          	add	x7,x7,x5
    422c:	fe6d90e3          	bne	x27,x6,420c <_Z21hb_tiled_foreach_implIfZ15tensorlib_floorEUlfE_JEEvjjT0_8HBTensorIT_Lln1EES4_PS3_S5_.isra.0+0x8c>
    4230:	00239513          	slli	x10,x7,0x2
    4234:	00ac05b3          	add	x11,x24,x10
    4238:	0005a507          	flw	f10,0(x11)
    423c:	08040863          	beqz	x8,42cc <_Z21hb_tiled_foreach_implIfZ15tensorlib_floorEUlfE_JEEvjjT0_8HBTensorIT_Lln1EES4_PS3_S5_.isra.0+0x14c>
    4240:	000b8f93          	mv	x31,x23
    4244:	00098f13          	mv	x30,x19
    4248:	000a8593          	mv	x11,x21
    424c:	00000093          	li	x1,0
    4250:	000f2883          	lw	x17,0(x30)
    4254:	000fae83          	lw	x29,0(x31) # 20000000 <_bsg_elf_dram_size>
    4258:	004f0f13          	addi	x30,x30,4
    425c:	004f8f93          	addi	x31,x31,4
    4260:	0315fe33          	remu	x28,x11,x17
    4264:	03de0633          	mul	x12,x28,x29
    4268:	0315d5b3          	divu	x11,x11,x17
    426c:	00c080b3          	add	x1,x1,x12
    4270:	ffed10e3          	bne	x26,x30,4250 <_Z21hb_tiled_foreach_implIfZ15tensorlib_floorEUlfE_JEEvjjT0_8HBTensorIT_Lln1EES4_PS3_S5_.isra.0+0xd0>
    4274:	04012303          	lw	x6,64(x2)
    4278:	00209813          	slli	x16,x1,0x2
    427c:	01030cb3          	add	x25,x6,x16
    4280:	7c4270ef          	jal	x1,2ba44 <floorf>
    4284:	001a8a93          	addi	x21,x21,1 # 3fc0001 <_bsg_elf_vcache_size+0x3f40001>
    4288:	00aca027          	fsw	f10,0(x25)
    428c:	f75496e3          	bne	x9,x21,41f8 <_Z21hb_tiled_foreach_implIfZ15tensorlib_floorEUlfE_JEEvjjT0_8HBTensorIT_Lln1EES4_PS3_S5_.isra.0+0x78>
    4290:	03c12083          	lw	x1,60(x2)
    4294:	03812403          	lw	x8,56(x2)
    4298:	03412483          	lw	x9,52(x2)
    429c:	03012903          	lw	x18,48(x2)
    42a0:	02c12983          	lw	x19,44(x2)
    42a4:	02812a03          	lw	x20,40(x2)
    42a8:	02412a83          	lw	x21,36(x2)
    42ac:	02012b03          	lw	x22,32(x2)
    42b0:	01c12b83          	lw	x23,28(x2)
    42b4:	01812c03          	lw	x24,24(x2)
    42b8:	01412c83          	lw	x25,20(x2)
    42bc:	01012d03          	lw	x26,16(x2)
    42c0:	00c12d83          	lw	x27,12(x2)
    42c4:	04010113          	addi	x2,x2,64
    42c8:	00008067          	ret
    42cc:	04012c83          	lw	x25,64(x2)
    42d0:	fb1ff06f          	j	4280 <_Z21hb_tiled_foreach_implIfZ15tensorlib_floorEUlfE_JEEvjjT0_8HBTensorIT_Lln1EES4_PS3_S5_.isra.0+0x100>
    42d4:	000c0593          	mv	x11,x24
    42d8:	f61ff06f          	j	4238 <_Z21hb_tiled_foreach_implIfZ15tensorlib_floorEUlfE_JEEvjjT0_8HBTensorIT_Lln1EES4_PS3_S5_.isra.0+0xb8>
    42dc:	fab57ae3          	bgeu	x10,x11,4290 <_Z21hb_tiled_foreach_implIfZ15tensorlib_floorEUlfE_JEEvjjT0_8HBTensorIT_Lln1EES4_PS3_S5_.isra.0+0x110>
    42e0:	00082b03          	lw	x22,0(x16) # 400000 <_bsg_elf_vcache_size+0x380000>
    42e4:	0006ab83          	lw	x23,0(x13)
    42e8:	04012683          	lw	x13,64(x2)
    42ec:	002b1993          	slli	x19,x22,0x2
    42f0:	002b9913          	slli	x18,x23,0x2
    42f4:	03350db3          	mul	x27,x10,x19
    42f8:	40a58a33          	sub	x20,x11,x10
    42fc:	00fa7d13          	andi	x26,x20,15
    4300:	032507b3          	mul	x15,x10,x18
    4304:	01bc0c33          	add	x24,x24,x27
    4308:	00f68b33          	add	x22,x13,x15
    430c:	1c0d0e63          	beqz	x26,44e8 <_Z21hb_tiled_foreach_implIfZ15tensorlib_floorEUlfE_JEEvjjT0_8HBTensorIT_Lln1EES4_PS3_S5_.isra.0+0x368>
    4310:	1a8d0e63          	beq	x26,x8,44cc <_Z21hb_tiled_foreach_implIfZ15tensorlib_floorEUlfE_JEEvjjT0_8HBTensorIT_Lln1EES4_PS3_S5_.isra.0+0x34c>
    4314:	00200413          	li	x8,2
    4318:	188d0e63          	beq	x26,x8,44b4 <_Z21hb_tiled_foreach_implIfZ15tensorlib_floorEUlfE_JEEvjjT0_8HBTensorIT_Lln1EES4_PS3_S5_.isra.0+0x334>
    431c:	00300293          	li	x5,3
    4320:	165d0e63          	beq	x26,x5,449c <_Z21hb_tiled_foreach_implIfZ15tensorlib_floorEUlfE_JEEvjjT0_8HBTensorIT_Lln1EES4_PS3_S5_.isra.0+0x31c>
    4324:	00400713          	li	x14,4
    4328:	14ed0e63          	beq	x26,x14,4484 <_Z21hb_tiled_foreach_implIfZ15tensorlib_floorEUlfE_JEEvjjT0_8HBTensorIT_Lln1EES4_PS3_S5_.isra.0+0x304>
    432c:	00500393          	li	x7,5
    4330:	127d0e63          	beq	x26,x7,446c <_Z21hb_tiled_foreach_implIfZ15tensorlib_floorEUlfE_JEEvjjT0_8HBTensorIT_Lln1EES4_PS3_S5_.isra.0+0x2ec>
    4334:	00600513          	li	x10,6
    4338:	10ad0e63          	beq	x26,x10,4454 <_Z21hb_tiled_foreach_implIfZ15tensorlib_floorEUlfE_JEEvjjT0_8HBTensorIT_Lln1EES4_PS3_S5_.isra.0+0x2d4>
    433c:	00700c93          	li	x25,7
    4340:	0f9d0e63          	beq	x26,x25,443c <_Z21hb_tiled_foreach_implIfZ15tensorlib_floorEUlfE_JEEvjjT0_8HBTensorIT_Lln1EES4_PS3_S5_.isra.0+0x2bc>
    4344:	00800893          	li	x17,8
    4348:	0d1d0e63          	beq	x26,x17,4424 <_Z21hb_tiled_foreach_implIfZ15tensorlib_floorEUlfE_JEEvjjT0_8HBTensorIT_Lln1EES4_PS3_S5_.isra.0+0x2a4>
    434c:	00900e93          	li	x29,9
    4350:	0bdd0e63          	beq	x26,x29,440c <_Z21hb_tiled_foreach_implIfZ15tensorlib_floorEUlfE_JEEvjjT0_8HBTensorIT_Lln1EES4_PS3_S5_.isra.0+0x28c>
    4354:	00a00f13          	li	x30,10
    4358:	09ed0e63          	beq	x26,x30,43f4 <_Z21hb_tiled_foreach_implIfZ15tensorlib_floorEUlfE_JEEvjjT0_8HBTensorIT_Lln1EES4_PS3_S5_.isra.0+0x274>
    435c:	00b00e13          	li	x28,11
    4360:	07cd0e63          	beq	x26,x28,43dc <_Z21hb_tiled_foreach_implIfZ15tensorlib_floorEUlfE_JEEvjjT0_8HBTensorIT_Lln1EES4_PS3_S5_.isra.0+0x25c>
    4364:	00c00f93          	li	x31,12
    4368:	05fd0e63          	beq	x26,x31,43c4 <_Z21hb_tiled_foreach_implIfZ15tensorlib_floorEUlfE_JEEvjjT0_8HBTensorIT_Lln1EES4_PS3_S5_.isra.0+0x244>
    436c:	00d00613          	li	x12,13
    4370:	02cd0e63          	beq	x26,x12,43ac <_Z21hb_tiled_foreach_implIfZ15tensorlib_floorEUlfE_JEEvjjT0_8HBTensorIT_Lln1EES4_PS3_S5_.isra.0+0x22c>
    4374:	00e00593          	li	x11,14
    4378:	00bd0e63          	beq	x26,x11,4394 <_Z21hb_tiled_foreach_implIfZ15tensorlib_floorEUlfE_JEEvjjT0_8HBTensorIT_Lln1EES4_PS3_S5_.isra.0+0x214>
    437c:	000c2507          	flw	f10,0(x24)
    4380:	001a8a93          	addi	x21,x21,1
    4384:	013c0c33          	add	x24,x24,x19
    4388:	6bc270ef          	jal	x1,2ba44 <floorf>
    438c:	00ab2027          	fsw	f10,0(x22)
    4390:	012b0b33          	add	x22,x22,x18
    4394:	000c2507          	flw	f10,0(x24)
    4398:	001a8a93          	addi	x21,x21,1
    439c:	013c0c33          	add	x24,x24,x19
    43a0:	6a4270ef          	jal	x1,2ba44 <floorf>
    43a4:	00ab2027          	fsw	f10,0(x22)
    43a8:	012b0b33          	add	x22,x22,x18
    43ac:	000c2507          	flw	f10,0(x24)
    43b0:	001a8a93          	addi	x21,x21,1
    43b4:	013c0c33          	add	x24,x24,x19
    43b8:	68c270ef          	jal	x1,2ba44 <floorf>
    43bc:	00ab2027          	fsw	f10,0(x22)
    43c0:	012b0b33          	add	x22,x22,x18
    43c4:	000c2507          	flw	f10,0(x24)
    43c8:	001a8a93          	addi	x21,x21,1
    43cc:	013c0c33          	add	x24,x24,x19
    43d0:	674270ef          	jal	x1,2ba44 <floorf>
    43d4:	00ab2027          	fsw	f10,0(x22)
    43d8:	012b0b33          	add	x22,x22,x18
    43dc:	000c2507          	flw	f10,0(x24)
    43e0:	001a8a93          	addi	x21,x21,1
    43e4:	013c0c33          	add	x24,x24,x19
    43e8:	65c270ef          	jal	x1,2ba44 <floorf>
    43ec:	00ab2027          	fsw	f10,0(x22)
    43f0:	012b0b33          	add	x22,x22,x18
    43f4:	000c2507          	flw	f10,0(x24)
    43f8:	001a8a93          	addi	x21,x21,1
    43fc:	013c0c33          	add	x24,x24,x19
    4400:	644270ef          	jal	x1,2ba44 <floorf>
    4404:	00ab2027          	fsw	f10,0(x22)
    4408:	012b0b33          	add	x22,x22,x18
    440c:	000c2507          	flw	f10,0(x24)
    4410:	001a8a93          	addi	x21,x21,1
    4414:	013c0c33          	add	x24,x24,x19
    4418:	62c270ef          	jal	x1,2ba44 <floorf>
    441c:	00ab2027          	fsw	f10,0(x22)
    4420:	012b0b33          	add	x22,x22,x18
    4424:	000c2507          	flw	f10,0(x24)
    4428:	001a8a93          	addi	x21,x21,1
    442c:	013c0c33          	add	x24,x24,x19
    4430:	614270ef          	jal	x1,2ba44 <floorf>
    4434:	00ab2027          	fsw	f10,0(x22)
    4438:	012b0b33          	add	x22,x22,x18
    443c:	000c2507          	flw	f10,0(x24)
    4440:	001a8a93          	addi	x21,x21,1
    4444:	013c0c33          	add	x24,x24,x19
    4448:	5fc270ef          	jal	x1,2ba44 <floorf>
    444c:	00ab2027          	fsw	f10,0(x22)
    4450:	012b0b33          	add	x22,x22,x18
    4454:	000c2507          	flw	f10,0(x24)
    4458:	001a8a93          	addi	x21,x21,1
    445c:	013c0c33          	add	x24,x24,x19
    4460:	5e4270ef          	jal	x1,2ba44 <floorf>
    4464:	00ab2027          	fsw	f10,0(x22)
    4468:	012b0b33          	add	x22,x22,x18
    446c:	000c2507          	flw	f10,0(x24)
    4470:	001a8a93          	addi	x21,x21,1
    4474:	013c0c33          	add	x24,x24,x19
    4478:	5cc270ef          	jal	x1,2ba44 <floorf>
    447c:	00ab2027          	fsw	f10,0(x22)
    4480:	012b0b33          	add	x22,x22,x18
    4484:	000c2507          	flw	f10,0(x24)
    4488:	001a8a93          	addi	x21,x21,1
    448c:	013c0c33          	add	x24,x24,x19
    4490:	5b4270ef          	jal	x1,2ba44 <floorf>
    4494:	00ab2027          	fsw	f10,0(x22)
    4498:	012b0b33          	add	x22,x22,x18
    449c:	000c2507          	flw	f10,0(x24)
    44a0:	001a8a93          	addi	x21,x21,1
    44a4:	013c0c33          	add	x24,x24,x19
    44a8:	59c270ef          	jal	x1,2ba44 <floorf>
    44ac:	00ab2027          	fsw	f10,0(x22)
    44b0:	012b0b33          	add	x22,x22,x18
    44b4:	000c2507          	flw	f10,0(x24)
    44b8:	001a8a93          	addi	x21,x21,1
    44bc:	013c0c33          	add	x24,x24,x19
    44c0:	584270ef          	jal	x1,2ba44 <floorf>
    44c4:	00ab2027          	fsw	f10,0(x22)
    44c8:	012b0b33          	add	x22,x22,x18
    44cc:	000c2507          	flw	f10,0(x24)
    44d0:	001a8a93          	addi	x21,x21,1
    44d4:	013c0c33          	add	x24,x24,x19
    44d8:	56c270ef          	jal	x1,2ba44 <floorf>
    44dc:	00ab2027          	fsw	f10,0(x22)
    44e0:	012b0b33          	add	x22,x22,x18
    44e4:	db5486e3          	beq	x9,x21,4290 <_Z21hb_tiled_foreach_implIfZ15tensorlib_floorEUlfE_JEEvjjT0_8HBTensorIT_Lln1EES4_PS3_S5_.isra.0+0x110>
    44e8:	000c2507          	flw	f10,0(x24)
    44ec:	013c0bb3          	add	x23,x24,x19
    44f0:	013b8a33          	add	x20,x23,x19
    44f4:	550270ef          	jal	x1,2ba44 <floorf>
    44f8:	20a507d3          	fmv.s	f15,f10
    44fc:	000ba507          	flw	f10,0(x23)
    4500:	012b0db3          	add	x27,x22,x18
    4504:	00fb2027          	fsw	f15,0(x22)
    4508:	53c270ef          	jal	x1,2ba44 <floorf>
    450c:	20a50053          	fmv.s	f0,f10
    4510:	000a2507          	flw	f10,0(x20)
    4514:	013a0d33          	add	x26,x20,x19
    4518:	000da027          	fsw	f0,0(x27)
    451c:	528270ef          	jal	x1,2ba44 <floorf>
    4520:	20a500d3          	fmv.s	f1,f10
    4524:	000d2507          	flw	f10,0(x26)
    4528:	012d8433          	add	x8,x27,x18
    452c:	00142027          	fsw	f1,0(x8) # 3fc0000 <_bsg_elf_vcache_size+0x3f40000>
    4530:	514270ef          	jal	x1,2ba44 <floorf>
    4534:	20a50153          	fmv.s	f2,f10
    4538:	013d0cb3          	add	x25,x26,x19
    453c:	000ca507          	flw	f10,0(x25)
    4540:	01240b33          	add	x22,x8,x18
    4544:	002b2027          	fsw	f2,0(x22)
    4548:	4fc270ef          	jal	x1,2ba44 <floorf>
    454c:	20a501d3          	fmv.s	f3,f10
    4550:	013c8c33          	add	x24,x25,x19
    4554:	000c2507          	flw	f10,0(x24)
    4558:	012b0bb3          	add	x23,x22,x18
    455c:	003ba027          	fsw	f3,0(x23)
    4560:	4e4270ef          	jal	x1,2ba44 <floorf>
    4564:	20a50253          	fmv.s	f4,f10
    4568:	013c0a33          	add	x20,x24,x19
    456c:	000a2507          	flw	f10,0(x20)
    4570:	012b8db3          	add	x27,x23,x18
    4574:	004da027          	fsw	f4,0(x27)
    4578:	4cc270ef          	jal	x1,2ba44 <floorf>
    457c:	20a502d3          	fmv.s	f5,f10
    4580:	013a0d33          	add	x26,x20,x19
    4584:	000d2507          	flw	f10,0(x26)
    4588:	012d8433          	add	x8,x27,x18
    458c:	00542027          	fsw	f5,0(x8)
    4590:	4b4270ef          	jal	x1,2ba44 <floorf>
    4594:	20a50353          	fmv.s	f6,f10
    4598:	013d0cb3          	add	x25,x26,x19
    459c:	000ca507          	flw	f10,0(x25)
    45a0:	01240b33          	add	x22,x8,x18
    45a4:	006b2027          	fsw	f6,0(x22)
    45a8:	49c270ef          	jal	x1,2ba44 <floorf>
    45ac:	20a503d3          	fmv.s	f7,f10
    45b0:	013c8c33          	add	x24,x25,x19
    45b4:	000c2507          	flw	f10,0(x24)
    45b8:	012b0bb3          	add	x23,x22,x18
    45bc:	007ba027          	fsw	f7,0(x23)
    45c0:	484270ef          	jal	x1,2ba44 <floorf>
    45c4:	20a505d3          	fmv.s	f11,f10
    45c8:	013c0a33          	add	x20,x24,x19
    45cc:	000a2507          	flw	f10,0(x20)
    45d0:	012b8db3          	add	x27,x23,x18
    45d4:	00bda027          	fsw	f11,0(x27)
    45d8:	46c270ef          	jal	x1,2ba44 <floorf>
    45dc:	20a50653          	fmv.s	f12,f10
    45e0:	013a0d33          	add	x26,x20,x19
    45e4:	000d2507          	flw	f10,0(x26)
    45e8:	012d8433          	add	x8,x27,x18
    45ec:	00c42027          	fsw	f12,0(x8)
    45f0:	454270ef          	jal	x1,2ba44 <floorf>
    45f4:	20a506d3          	fmv.s	f13,f10
    45f8:	013d0cb3          	add	x25,x26,x19
    45fc:	000ca507          	flw	f10,0(x25)
    4600:	01240b33          	add	x22,x8,x18
    4604:	00db2027          	fsw	f13,0(x22)
    4608:	43c270ef          	jal	x1,2ba44 <floorf>
    460c:	20a50753          	fmv.s	f14,f10
    4610:	013c8c33          	add	x24,x25,x19
    4614:	000c2507          	flw	f10,0(x24)
    4618:	012b0bb3          	add	x23,x22,x18
    461c:	00eba027          	fsw	f14,0(x23)
    4620:	424270ef          	jal	x1,2ba44 <floorf>
    4624:	20a50853          	fmv.s	f16,f10
    4628:	013c0a33          	add	x20,x24,x19
    462c:	000a2507          	flw	f10,0(x20)
    4630:	012b8db3          	add	x27,x23,x18
    4634:	010da027          	fsw	f16,0(x27)
    4638:	40c270ef          	jal	x1,2ba44 <floorf>
    463c:	20a508d3          	fmv.s	f17,f10
    4640:	013a0d33          	add	x26,x20,x19
    4644:	000d2507          	flw	f10,0(x26)
    4648:	012d8433          	add	x8,x27,x18
    464c:	01142027          	fsw	f17,0(x8)
    4650:	3f4270ef          	jal	x1,2ba44 <floorf>
    4654:	01240833          	add	x16,x8,x18
    4658:	010a8a93          	addi	x21,x21,16
    465c:	00a82027          	fsw	f10,0(x16)
    4660:	013d0c33          	add	x24,x26,x19
    4664:	01280b33          	add	x22,x16,x18
    4668:	e95490e3          	bne	x9,x21,44e8 <_Z21hb_tiled_foreach_implIfZ15tensorlib_floorEUlfE_JEEvjjT0_8HBTensorIT_Lln1EES4_PS3_S5_.isra.0+0x368>
    466c:	c25ff06f          	j	4290 <_Z21hb_tiled_foreach_implIfZ15tensorlib_floorEUlfE_JEEvjjT0_8HBTensorIT_Lln1EES4_PS3_S5_.isra.0+0x110>

00004670 <tensorlib_floor>:
    4670:	f5010113          	addi	x2,x2,-176
    4674:	00050793          	mv	x15,x10
    4678:	0a812423          	sw	x8,168(x2)
    467c:	01810513          	addi	x10,x2,24
    4680:	00058413          	mv	x8,x11
    4684:	00078593          	mv	x11,x15
    4688:	0a112623          	sw	x1,172(x2)
    468c:	0a912223          	sw	x9,164(x2)
    4690:	0b212023          	sw	x18,160(x2)
    4694:	09312e23          	sw	x19,156(x2)
    4698:	09412c23          	sw	x20,152(x2)
    469c:	5e02a0ef          	jal	x1,2ec7c <_ZN8HBTensorIfLln1EEC1EP11hb_tensor_t>
    46a0:	00040593          	mv	x11,x8
    46a4:	05410513          	addi	x10,x2,84
    46a8:	5d42a0ef          	jal	x1,2ec7c <_ZN8HBTensorIfLln1EEC1EP11hb_tensor_t>
    46ac:	00001a37          	lui	x20,0x1
    46b0:	000014b7          	lui	x9,0x1
    46b4:	000019b7          	lui	x19,0x1
    46b8:	00001437          	lui	x8,0x1
    46bc:	538a2283          	lw	x5,1336(x20) # 1538 <__bsg_grp_org_y>
    46c0:	5444a583          	lw	x11,1348(x9) # 1544 <__bsg_y>
    46c4:	53c9a703          	lw	x14,1340(x19) # 153c <__bsg_grp_org_x>
    46c8:	54842603          	lw	x12,1352(x8) # 1548 <__bsg_x>
    46cc:	00001937          	lui	x18,0x1
    46d0:	52492683          	lw	x13,1316(x18) # 1524 <__bsg_tile_group_id>
    46d4:	00b28333          	add	x6,x5,x11
    46d8:	00c703b3          	add	x7,x14,x12
    46dc:	01831513          	slli	x10,x6,0x18
    46e0:	01239813          	slli	x16,x7,0x12
    46e4:	3f0008b7          	lui	x17,0x3f000
    46e8:	00fc0eb7          	lui	x29,0xfc0
    46ec:	000405b7          	lui	x11,0x40
    46f0:	01157e33          	and	x28,x10,x17
    46f4:	01d87f33          	and	x30,x16,x29
    46f8:	00469f93          	slli	x31,x13,0x4
    46fc:	ff058713          	addi	x14,x11,-16 # 3fff0 <_ZN8HBTensorIfLl1EEC1EP11hb_tensor_t+0xa6bc>
    4700:	01ee67b3          	or	x15,x28,x30
    4704:	00eff633          	and	x12,x31,x14
    4708:	01812283          	lw	x5,24(x2)
    470c:	00c7e6b3          	or	x13,x15,x12
    4710:	80000337          	lui	x6,0x80000
    4714:	0066e3b3          	or	x7,x13,x6
    4718:	41001537          	lui	x10,0x41001
    471c:	d0752623          	sw	x7,-756(x10) # 41000d0c <_bsg_elf_dram_size+0x21000d0c>
    4720:	fff28f13          	addi	x30,x5,-1
    4724:	ffd00f93          	li	x31,-3
    4728:	01c12603          	lw	x12,28(x2)
    472c:	02012683          	lw	x13,32(x2)
    4730:	02412703          	lw	x14,36(x2)
    4734:	02812e03          	lw	x28,40(x2)
    4738:	05812783          	lw	x15,88(x2)
    473c:	05c12803          	lw	x16,92(x2)
    4740:	06012883          	lw	x17,96(x2)
    4744:	06412e83          	lw	x29,100(x2)
    4748:	1fefe463          	bltu	x31,x30,4930 <tensorlib_floor+0x2c0>
    474c:	000010b7          	lui	x1,0x1
    4750:	5400a303          	lw	x6,1344(x1) # 1540 <__bsg_id>
    4754:	0072d593          	srli	x11,x5,0x7
    4758:	00158393          	addi	x7,x11,1
    475c:	07f37513          	andi	x10,x6,127
    4760:	02750533          	mul	x10,x10,x7
    4764:	00a385b3          	add	x11,x7,x10
    4768:	1cb2ea63          	bltu	x5,x11,493c <tensorlib_floor+0x2cc>
    476c:	1cb57263          	bgeu	x10,x11,4930 <tensorlib_floor+0x2c0>
    4770:	01d12223          	sw	x29,4(x2)
    4774:	01c12023          	sw	x28,0(x2)
    4778:	a09ff0ef          	jal	x1,4180 <_Z21hb_tiled_foreach_implIfZ15tensorlib_floorEUlfE_JEEvjjT0_8HBTensorIT_Lln1EES4_PS3_S5_.isra.0>
    477c:	5444a803          	lw	x16,1348(x9)
    4780:	538a2a03          	lw	x20,1336(x20)
    4784:	53c9a983          	lw	x19,1340(x19)
    4788:	54842883          	lw	x17,1352(x8)
    478c:	52492903          	lw	x18,1316(x18)
    4790:	010a02b3          	add	x5,x20,x16
    4794:	01198733          	add	x14,x19,x17
    4798:	01829793          	slli	x15,x5,0x18
    479c:	01271693          	slli	x13,x14,0x12
    47a0:	3f000637          	lui	x12,0x3f000
    47a4:	00fc0fb7          	lui	x31,0xfc0
    47a8:	000405b7          	lui	x11,0x40
    47ac:	00c7ff33          	and	x30,x15,x12
    47b0:	01f6fe33          	and	x28,x13,x31
    47b4:	00491e93          	slli	x29,x18,0x4
    47b8:	ff058393          	addi	x7,x11,-16 # 3fff0 <_ZN8HBTensorIfLl1EEC1EP11hb_tensor_t+0xa6bc>
    47bc:	01cf6333          	or	x6,x30,x28
    47c0:	007ef533          	and	x10,x29,x7
    47c4:	00a36a33          	or	x20,x6,x10
    47c8:	c0000837          	lui	x16,0xc0000
    47cc:	010a69b3          	or	x19,x20,x16
    47d0:	410018b7          	lui	x17,0x41001
    47d4:	d138a623          	sw	x19,-756(x17) # 41000d0c <_bsg_elf_dram_size+0x21000d0c>
    47d8:	54842903          	lw	x18,1352(x8)
    47dc:	5444a283          	lw	x5,1348(x9)
    47e0:	00001637          	lui	x12,0x1
    47e4:	00490713          	addi	x14,x18,4
    47e8:	57460793          	addi	x15,x12,1396 # 1574 <g_barrier>
    47ec:	00e78f33          	add	x30,x15,x14
    47f0:	01829693          	slli	x13,x5,0x18
    47f4:	00df6fb3          	or	x31,x30,x13
    47f8:	201c0e37          	lui	x28,0x201c0
    47fc:	01cfeeb3          	or	x29,x31,x28
    4800:	00100313          	li	x6,1
    4804:	006e8023          	sb	x6,0(x29) # fc0000 <_bsg_elf_vcache_size+0xf40000>
    4808:	54842583          	lw	x11,1352(x8)
    480c:	00700393          	li	x7,7
    4810:	04758663          	beq	x11,x7,485c <tensorlib_floor+0x1ec>
    4814:	00100493          	li	x9,1
    4818:	0100006f          	j	4828 <tensorlib_floor+0x1b8>
    481c:	57460893          	addi	x17,x12,1396
    4820:	1408a92f          	lr.w.aq	x18,(x17)
    4824:	00990863          	beq	x18,x9,4834 <tensorlib_floor+0x1c4>
    4828:	57460513          	addi	x10,x12,1396
    482c:	1005282f          	lr.w	x16,(x10)
    4830:	fe9816e3          	bne	x16,x9,481c <tensorlib_floor+0x1ac>
    4834:	0ac12083          	lw	x1,172(x2)
    4838:	0a812403          	lw	x8,168(x2)
    483c:	0007a023          	sw	x0,0(x15)
    4840:	0a412483          	lw	x9,164(x2)
    4844:	0a012903          	lw	x18,160(x2)
    4848:	09c12983          	lw	x19,156(x2)
    484c:	09812a03          	lw	x20,152(x2)
    4850:	00000513          	li	x10,0
    4854:	0b010113          	addi	x2,x2,176
    4858:	00008067          	ret
    485c:	000010b7          	lui	x1,0x1
    4860:	00001537          	lui	x10,0x1
    4864:	57808a13          	addi	x20,x1,1400 # 1578 <g_barrier+0x4>
    4868:	58850993          	addi	x19,x10,1416 # 1588 <g_barrier+0x14>
    486c:	000a0893          	mv	x17,x20
    4870:	0008c803          	lbu	x16,0(x17)
    4874:	00188893          	addi	x17,x17,1
    4878:	0ff87913          	andi	x18,x16,255
    487c:	fe0908e3          	beqz	x18,486c <tensorlib_floor+0x1fc>
    4880:	ff1998e3          	bne	x19,x17,4870 <tensorlib_floor+0x200>
    4884:	5444a283          	lw	x5,1348(x9)
    4888:	231c06b7          	lui	x13,0x231c0
    488c:	00100e13          	li	x28,1
    4890:	01828713          	addi	x14,x5,24
    4894:	00e78f33          	add	x30,x15,x14
    4898:	00df6fb3          	or	x31,x30,x13
    489c:	01cf8023          	sb	x28,0(x31) # fc0000 <_bsg_elf_vcache_size+0xf40000>
    48a0:	54842383          	lw	x7,1352(x8)
    48a4:	00700e93          	li	x29,7
    48a8:	f7d396e3          	bne	x7,x29,4814 <tensorlib_floor+0x1a4>
    48ac:	5444a303          	lw	x6,1348(x9)
    48b0:	00300593          	li	x11,3
    48b4:	08b30863          	beq	x6,x11,4944 <tensorlib_floor+0x2d4>
    48b8:	00100513          	li	x10,1
    48bc:	0100006f          	j	48cc <tensorlib_floor+0x25c>
    48c0:	01478913          	addi	x18,x15,20
    48c4:	140922af          	lr.w.aq	x5,(x18)
    48c8:	00a28863          	beq	x5,x10,48d8 <tensorlib_floor+0x268>
    48cc:	01478813          	addi	x16,x15,20
    48d0:	100828af          	lr.w	x17,(x16)
    48d4:	fea896e3          	bne	x17,x10,48c0 <tensorlib_floor+0x250>
    48d8:	0007aa23          	sw	x0,20(x15)
    48dc:	00000e13          	li	x28,0
    48e0:	01000f13          	li	x30,16
    48e4:	01c78fb3          	add	x31,x15,x28
    48e8:	000f8223          	sb	x0,4(x31)
    48ec:	001e0e13          	addi	x28,x28,1 # 201c0001 <_bsg_elf_dram_size+0x1c0001>
    48f0:	ffee1ae3          	bne	x28,x30,48e4 <tensorlib_floor+0x274>
    48f4:	0007a023          	sw	x0,0(x15)
    48f8:	00000a13          	li	x20,0
    48fc:	20000eb7          	lui	x29,0x20000
    4900:	00100313          	li	x6,1
    4904:	000403b7          	lui	x7,0x40
    4908:	004000b7          	lui	x1,0x400
    490c:	5444a703          	lw	x14,1348(x9)
    4910:	0147e5b3          	or	x11,x15,x20
    4914:	007a0a33          	add	x20,x20,x7
    4918:	01871693          	slli	x13,x14,0x18
    491c:	00b6e433          	or	x8,x13,x11
    4920:	01d469b3          	or	x19,x8,x29
    4924:	0069a023          	sw	x6,0(x19)
    4928:	fe1a12e3          	bne	x20,x1,490c <tensorlib_floor+0x29c>
    492c:	ee9ff06f          	j	4814 <tensorlib_floor+0x1a4>
    4930:	00000593          	li	x11,0
    4934:	00000513          	li	x10,0
    4938:	e39ff06f          	j	4770 <tensorlib_floor+0x100>
    493c:	00028593          	mv	x11,x5
    4940:	e2dff06f          	j	476c <tensorlib_floor+0xfc>
    4944:	000010b7          	lui	x1,0x1
    4948:	00001537          	lui	x10,0x1
    494c:	58c08a13          	addi	x20,x1,1420 # 158c <g_barrier+0x18>
    4950:	59450813          	addi	x16,x10,1428 # 1594 <_tls_data>
    4954:	000a0913          	mv	x18,x20
    4958:	00094883          	lbu	x17,0(x18)
    495c:	00190913          	addi	x18,x18,1
    4960:	0ff8f293          	andi	x5,x17,255
    4964:	fe0288e3          	beqz	x5,4954 <tensorlib_floor+0x2e4>
    4968:	ff2818e3          	bne	x16,x18,4958 <tensorlib_floor+0x2e8>
    496c:	00078c23          	sb	x0,24(x15)
    4970:	00078ca3          	sb	x0,25(x15)
    4974:	00078d23          	sb	x0,26(x15)
    4978:	00078da3          	sb	x0,27(x15)
    497c:	00078e23          	sb	x0,28(x15)
    4980:	00078ea3          	sb	x0,29(x15)
    4984:	00078f23          	sb	x0,30(x15)
    4988:	00078fa3          	sb	x0,31(x15)
    498c:	0007aa23          	sw	x0,20(x15)
    4990:	00000693          	li	x13,0
    4994:	03fc0f37          	lui	x30,0x3fc0
    4998:	20000fb7          	lui	x31,0x20000
    499c:	00100e13          	li	x28,1
    49a0:	01000eb7          	lui	x29,0x1000
    49a4:	08000337          	lui	x6,0x8000
    49a8:	0080006f          	j	49b0 <tensorlib_floor+0x340>
    49ac:	54842383          	lw	x7,1352(x8)
    49b0:	01239713          	slli	x14,x7,0x12
    49b4:	01e775b3          	and	x11,x14,x30
    49b8:	00d9e3b3          	or	x7,x19,x13
    49bc:	0075e0b3          	or	x1,x11,x7
    49c0:	01f0ea33          	or	x20,x1,x31
    49c4:	01ca2023          	sw	x28,0(x20)
    49c8:	01d686b3          	add	x13,x13,x29
    49cc:	fe6690e3          	bne	x13,x6,49ac <tensorlib_floor+0x33c>
    49d0:	54842403          	lw	x8,1352(x8)
    49d4:	00700993          	li	x19,7
    49d8:	ef3400e3          	beq	x8,x19,48b8 <tensorlib_floor+0x248>
    49dc:	e39ff06f          	j	4814 <tensorlib_floor+0x1a4>

000049e0 <tensorlib_sparse_dense_mm>:
    49e0:	e7010113          	addi	x2,x2,-400
    49e4:	00050793          	mv	x15,x10
    49e8:	17312e23          	sw	x19,380(x2)
    49ec:	02410513          	addi	x10,x2,36
    49f0:	00058993          	mv	x19,x11
    49f4:	00078593          	mv	x11,x15
    49f8:	18112623          	sw	x1,396(x2)
    49fc:	18812423          	sw	x8,392(x2)
    4a00:	18912223          	sw	x9,388(x2)
    4a04:	00070413          	mv	x8,x14
    4a08:	00068493          	mv	x9,x13
    4a0c:	19212023          	sw	x18,384(x2)
    4a10:	17412c23          	sw	x20,376(x2)
    4a14:	00060913          	mv	x18,x12
    4a18:	17512a23          	sw	x21,372(x2)
    4a1c:	17612823          	sw	x22,368(x2)
    4a20:	17712623          	sw	x23,364(x2)
    4a24:	17812423          	sw	x24,360(x2)
    4a28:	17912223          	sw	x25,356(x2)
    4a2c:	17a12023          	sw	x26,352(x2)
    4a30:	15b12e23          	sw	x27,348(x2)
    4a34:	2482a0ef          	jal	x1,2ec7c <_ZN8HBTensorIfLln1EEC1EP11hb_tensor_t>
    4a38:	00098593          	mv	x11,x19
    4a3c:	06010513          	addi	x10,x2,96
    4a40:	429280ef          	jal	x1,2d668 <_ZN8HBTensorIiLln1EEC1EP11hb_tensor_t>
    4a44:	00090593          	mv	x11,x18
    4a48:	09c10513          	addi	x10,x2,156
    4a4c:	41d280ef          	jal	x1,2d668 <_ZN8HBTensorIiLln1EEC1EP11hb_tensor_t>
    4a50:	00048593          	mv	x11,x9
    4a54:	0d810513          	addi	x10,x2,216
    4a58:	2242a0ef          	jal	x1,2ec7c <_ZN8HBTensorIfLln1EEC1EP11hb_tensor_t>
    4a5c:	00040593          	mv	x11,x8
    4a60:	11410513          	addi	x10,x2,276
    4a64:	2182a0ef          	jal	x1,2ec7c <_ZN8HBTensorIfLln1EEC1EP11hb_tensor_t>
    4a68:	02812283          	lw	x5,40(x2)
    4a6c:	1e028e63          	beqz	x5,4c68 <tensorlib_sparse_dense_mm+0x288>
    4a70:	11812083          	lw	x1,280(x2)
    4a74:	1a008463          	beqz	x1,4c1c <tensorlib_sparse_dense_mm+0x23c>
    4a78:	00100713          	li	x14,1
    4a7c:	28177a63          	bgeu	x14,x1,4d10 <tensorlib_sparse_dense_mm+0x330>
    4a80:	000018b7          	lui	x17,0x1
    4a84:	00001937          	lui	x18,0x1
    4a88:	00001837          	lui	x16,0x1
    4a8c:	00001437          	lui	x8,0x1
    4a90:	5388a383          	lw	x7,1336(x17) # 1538 <__bsg_grp_org_y>
    4a94:	54492583          	lw	x11,1348(x18) # 1544 <__bsg_y>
    4a98:	53c82503          	lw	x10,1340(x16) # 153c <__bsg_grp_org_x>
    4a9c:	54842603          	lw	x12,1352(x8) # 1548 <__bsg_x>
    4aa0:	00001337          	lui	x6,0x1
    4aa4:	52432683          	lw	x13,1316(x6) # 1524 <__bsg_tile_group_id>
    4aa8:	00b38a33          	add	x20,x7,x11
    4aac:	00c50ab3          	add	x21,x10,x12
    4ab0:	03012983          	lw	x19,48(x2)
    4ab4:	018a1b13          	slli	x22,x20,0x18
    4ab8:	012a9b93          	slli	x23,x21,0x12
    4abc:	3f000c37          	lui	x24,0x3f000
    4ac0:	00fc0d37          	lui	x26,0xfc0
    4ac4:	00040f37          	lui	x30,0x40
    4ac8:	018b7cb3          	and	x25,x22,x24
    4acc:	01abfdb3          	and	x27,x23,x26
    4ad0:	00469e13          	slli	x28,x13,0x4
    4ad4:	ff0f0f93          	addi	x31,x30,-16 # 3fff0 <_ZN8HBTensorIfLl1EEC1EP11hb_tensor_t+0xa6bc>
    4ad8:	12012583          	lw	x11,288(x2)
    4adc:	01bceeb3          	or	x29,x25,x27
    4ae0:	01fe77b3          	and	x15,x28,x31
    4ae4:	000014b7          	lui	x9,0x1
    4ae8:	0009a083          	lw	x1,0(x19)
    4aec:	00fee2b3          	or	x5,x29,x15
    4af0:	5404a983          	lw	x19,1344(x9) # 1540 <__bsg_id>
    4af4:	80000737          	lui	x14,0x80000
    4af8:	00e2e3b3          	or	x7,x5,x14
    4afc:	41001537          	lui	x10,0x41001
    4b00:	0045ab03          	lw	x22,4(x11)
    4b04:	d0752623          	sw	x7,-756(x10) # 41000d0c <_bsg_elf_dram_size+0x21000d0c>
    4b08:	3019fc63          	bgeu	x19,x1,4e20 <tensorlib_sparse_dense_mm+0x440>
    4b0c:	0dc12683          	lw	x13,220(x2)
    4b10:	07012b83          	lw	x23,112(x2)
    4b14:	0d812603          	lw	x12,216(x2)
    4b18:	09c12a03          	lw	x20,156(x2)
    4b1c:	0a012c03          	lw	x24,160(x2)
    4b20:	12412d03          	lw	x26,292(x2)
    4b24:	06012a83          	lw	x21,96(x2)
    4b28:	06412383          	lw	x7,100(x2)
    4b2c:	06812283          	lw	x5,104(x2)
