
kernel_addcdiv.o:     file format elf32-littleriscv


Disassembly of section .group:

00000000 <_ZN8HBTensorIfLln1EEC5EP11hb_tensor_t>:
   0:	0001                	nop
   2:	0000                	unimp
   4:	00000007          	0x7
   8:	0008                	0x8
	...

Disassembly of section .text:

00000000 <tensorlib_addcdiv>:
   0:	ea010113          	addi	x2,x2,-352
   4:	00050793          	mv	x15,x10
   8:	15312623          	sw	x19,332(x2)
   c:	02010513          	addi	x10,x2,32
  10:	00058993          	mv	x19,x11
  14:	00078593          	mv	x11,x15
  18:	14112e23          	sw	x1,348(x2)
  1c:	14812c23          	sw	x8,344(x2)
  20:	14912a23          	sw	x9,340(x2)
  24:	00070413          	mv	x8,x14
  28:	00068493          	mv	x9,x13
  2c:	15212823          	sw	x18,336(x2)
  30:	15412423          	sw	x20,328(x2)
  34:	00060913          	mv	x18,x12
  38:	15512223          	sw	x21,324(x2)
  3c:	15612023          	sw	x22,320(x2)
  40:	13712e23          	sw	x23,316(x2)
  44:	13812c23          	sw	x24,312(x2)
  48:	13912a23          	sw	x25,308(x2)
  4c:	13a12823          	sw	x26,304(x2)
  50:	13b12623          	sw	x27,300(x2)
  54:	10812e27          	fsw	f8,284(x2)
  58:	00000097          	auipc	x1,0x0
  5c:	000080e7          	jalr	x1 # 58 <tensorlib_addcdiv+0x58>
  60:	00098593          	mv	x11,x19
  64:	05c10513          	addi	x10,x2,92
  68:	00000097          	auipc	x1,0x0
  6c:	000080e7          	jalr	x1 # 68 <tensorlib_addcdiv+0x68>
  70:	00090593          	mv	x11,x18
  74:	09810513          	addi	x10,x2,152
  78:	00000097          	auipc	x1,0x0
  7c:	000080e7          	jalr	x1 # 78 <tensorlib_addcdiv+0x78>
  80:	00048593          	mv	x11,x9
  84:	0d410513          	addi	x10,x2,212
  88:	00000097          	auipc	x1,0x0
  8c:	000080e7          	jalr	x1 # 88 <tensorlib_addcdiv+0x88>
  90:	00000b37          	lui	x22,0x0
  94:	000008b7          	lui	x17,0x0
  98:	00000ab7          	lui	x21,0x0
  9c:	00000337          	lui	x6,0x0
  a0:	000b2283          	lw	x5,0(x22) # 0 <tensorlib_addcdiv>
  a4:	0008a583          	lw	x11,0(x17) # 0 <tensorlib_addcdiv>
  a8:	000aa683          	lw	x13,0(x21) # 0 <tensorlib_addcdiv>
  ac:	00032703          	lw	x14,0(x6) # 0 <tensorlib_addcdiv>
  b0:	00000a37          	lui	x20,0x0
  b4:	000a2603          	lw	x12,0(x20) # 0 <tensorlib_addcdiv>
  b8:	00b283b3          	add	x7,x5,x11
  bc:	00e68533          	add	x10,x13,x14
  c0:	01839813          	slli	x16,x7,0x18
  c4:	00040f37          	lui	x30,0x40
  c8:	01251b93          	slli	x23,x10,0x12
  cc:	3f000c37          	lui	x24,0x3f000
  d0:	00fc0d37          	lui	x26,0xfc0
  d4:	01887cb3          	and	x25,x16,x24
  d8:	00461e13          	slli	x28,x12,0x4
  dc:	ff0f0f93          	addi	x31,x30,-16 # 3fff0 <.L104+0x3f784>
  e0:	01abfdb3          	and	x27,x23,x26
  e4:	01bceeb3          	or	x29,x25,x27
  e8:	01fe77b3          	and	x15,x28,x31
  ec:	00fee9b3          	or	x19,x29,x15
  f0:	80000937          	lui	x18,0x80000
  f4:	02012283          	lw	x5,32(x2)
  f8:	0129e4b3          	or	x9,x19,x18
  fc:	00042107          	flw	f2,0(x8)
 100:	41001437          	lui	x8,0x41001
 104:	d0942623          	sw	x9,-756(x8) # 41000d0c <.L104+0x410004a0>
 108:	fff00693          	li	x13,-1
 10c:	02412603          	lw	x12,36(x2)
 110:	02812583          	lw	x11,40(x2)
 114:	03012383          	lw	x7,48(x2)
 118:	06412803          	lw	x16,100(x2)
 11c:	06c12403          	lw	x8,108(x2)
 120:	0a012e83          	lw	x29,160(x2)
 124:	0a812483          	lw	x9,168(x2)
 128:	0dc12f03          	lw	x30,220(x2)
 12c:	0e412903          	lw	x18,228(x2)
 130:	1ad28e63          	beq	x5,x13,2ec <.L22>
 134:	1a028c63          	beqz	x5,2ec <.L22>
 138:	000000b7          	lui	x1,0x0
 13c:	0000a703          	lw	x14,0(x1) # 0 <tensorlib_addcdiv>
 140:	0042d513          	srli	x10,x5,0x4
 144:	00150b93          	addi	x23,x10,1
 148:	02eb87b3          	mul	x15,x23,x14
 14c:	00fb8e33          	add	x28,x23,x15
 150:	41c2ec63          	bltu	x5,x28,568 <.L100>

00000154 <.L17>:
 154:	19c7fc63          	bgeu	x15,x28,2ec <.L22>
 158:	00100c13          	li	x24,1
 15c:	41860a63          	beq	x12,x24,570 <.L101>
 160:	06012983          	lw	x19,96(x2)
 164:	09c12283          	lw	x5,156(x2)
 168:	0d812f83          	lw	x31,216(x2)
 16c:	0a412c83          	lw	x25,164(x2)
 170:	0e012d03          	lw	x26,224(x2)
 174:	02c12d83          	lw	x27,44(x2)
 178:	06812083          	lw	x1,104(x2)
 17c:	00299513          	slli	x10,x19,0x2
 180:	00229b93          	slli	x23,x5,0x2
 184:	002f9693          	slli	x13,x31,0x2
 188:	00261713          	slli	x14,x12,0x2
 18c:	01912423          	sw	x25,8(x2)
 190:	01a12823          	sw	x26,16(x2)
 194:	01b12c23          	sw	x27,24(x2)
 198:	00150c33          	add	x24,x10,x1
 19c:	019b8cb3          	add	x25,x23,x25
 1a0:	01a68d33          	add	x26,x13,x26
 1a4:	01b70db3          	add	x27,x14,x27
 1a8:	01812023          	sw	x24,0(x2)
 1ac:	01912223          	sw	x25,4(x2)
 1b0:	01a12623          	sw	x26,12(x2)
 1b4:	01b12a23          	sw	x27,20(x2)

000001b8 <.L41>:
 1b8:	3a098463          	beqz	x19,560 <.L64>
 1bc:	00080c13          	mv	x24,x16
 1c0:	00008693          	mv	x13,x1
 1c4:	00078b93          	mv	x23,x15
 1c8:	00000713          	li	x14,0

000001cc <.L34>:
 1cc:	0006ad03          	lw	x26,0(x13)
 1d0:	000c2d83          	lw	x27,0(x24) # 3f000000 <.L104+0x3efff794>
 1d4:	00468693          	addi	x13,x13,4
 1d8:	03abfcb3          	remu	x25,x23,x26
 1dc:	004c0c13          	addi	x24,x24,4
 1e0:	03bc8533          	mul	x10,x25,x27
 1e4:	03abdbb3          	divu	x23,x23,x26
 1e8:	00012d03          	lw	x26,0(x2)
 1ec:	00a70733          	add	x14,x14,x10
 1f0:	fcdd1ee3          	bne	x26,x13,1cc <.L34>
 1f4:	00271d93          	slli	x27,x14,0x2
 1f8:	01b40533          	add	x10,x8,x27

000001fc <.L33>:
 1fc:	00052707          	flw	f14,0(x10)
 200:	34028c63          	beqz	x5,558 <.L65>
 204:	00812d83          	lw	x27,8(x2)
 208:	000e8c13          	mv	x24,x29
 20c:	00078b93          	mv	x23,x15
 210:	00000713          	li	x14,0

00000214 <.L36>:
 214:	000da503          	lw	x10,0(x27)
 218:	000c2d03          	lw	x26,0(x24)
 21c:	004d8d93          	addi	x27,x27,4
 220:	004c0c13          	addi	x24,x24,4
 224:	02abfcb3          	remu	x25,x23,x10
 228:	03ac86b3          	mul	x13,x25,x26
 22c:	02abdbb3          	divu	x23,x23,x10
 230:	00412503          	lw	x10,4(x2)
 234:	00d70733          	add	x14,x14,x13
 238:	fdb51ee3          	bne	x10,x27,214 <.L36>
 23c:	00271d13          	slli	x26,x14,0x2
 240:	01a486b3          	add	x13,x9,x26

00000244 <.L35>:
 244:	0006a787          	flw	f15,0(x13)
 248:	300f8463          	beqz	x31,550 <.L66>
 24c:	01012683          	lw	x13,16(x2)
 250:	000f0c13          	mv	x24,x30
 254:	00078b93          	mv	x23,x15
 258:	00000713          	li	x14,0

0000025c <.L38>:
 25c:	0006a503          	lw	x10,0(x13)
 260:	000c2d03          	lw	x26,0(x24)
 264:	00468693          	addi	x13,x13,4
 268:	004c0c13          	addi	x24,x24,4
 26c:	02abfcb3          	remu	x25,x23,x10
 270:	03ac8db3          	mul	x27,x25,x26
 274:	02abdbb3          	divu	x23,x23,x10
 278:	00c12503          	lw	x10,12(x2)
 27c:	01b70733          	add	x14,x14,x27
 280:	fcd51ee3          	bne	x10,x13,25c <.L38>
 284:	00271d13          	slli	x26,x14,0x2
 288:	01a90db3          	add	x27,x18,x26

0000028c <.L37>:
 28c:	10f17053          	fmul.s	f0,f2,f15
 290:	000da687          	flw	f13,0(x27)
 294:	18d070d3          	fdiv.s	f1,f0,f13
 298:	00e0f1d3          	fadd.s	f3,f1,f14
 29c:	2a060663          	beqz	x12,548 <.L67>
 2a0:	01812d03          	lw	x26,24(x2)
 2a4:	00058c13          	mv	x24,x11
 2a8:	00078b93          	mv	x23,x15
 2ac:	00000713          	li	x14,0

000002b0 <.L40>:
 2b0:	000d2503          	lw	x10,0(x26) # fc0000 <.L104+0xfbf794>
 2b4:	000c2d83          	lw	x27,0(x24)
 2b8:	004d0d13          	addi	x26,x26,4
 2bc:	02abfcb3          	remu	x25,x23,x10
 2c0:	004c0c13          	addi	x24,x24,4
 2c4:	03bc86b3          	mul	x13,x25,x27
 2c8:	02abdbb3          	divu	x23,x23,x10
 2cc:	01412503          	lw	x10,20(x2)
 2d0:	00d70733          	add	x14,x14,x13
 2d4:	fda51ee3          	bne	x10,x26,2b0 <.L40>
 2d8:	00271d93          	slli	x27,x14,0x2
 2dc:	01b386b3          	add	x13,x7,x27

000002e0 <.L39>:
 2e0:	0036a027          	fsw	f3,0(x13)
 2e4:	00178793          	addi	x15,x15,1
 2e8:	ecfe18e3          	bne	x28,x15,1b8 <.L41>

000002ec <.L22>:
 2ec:	000b2e03          	lw	x28,0(x22)
 2f0:	000aaa83          	lw	x21,0(x21)
 2f4:	0008ab03          	lw	x22,0(x17)
 2f8:	00032c03          	lw	x24,0(x6)
 2fc:	000a2a03          	lw	x20,0(x20)
 300:	016e0bb3          	add	x23,x28,x22
 304:	018a8db3          	add	x27,x21,x24
 308:	018b9813          	slli	x16,x23,0x18
 30c:	012d9d13          	slli	x26,x27,0x12
 310:	3f0007b7          	lui	x15,0x3f000
 314:	00fc0cb7          	lui	x25,0xfc0
 318:	000406b7          	lui	x13,0x40
 31c:	00f870b3          	and	x1,x16,x15
 320:	004a1593          	slli	x11,x20,0x4
 324:	019d72b3          	and	x5,x26,x25
 328:	ff068713          	addi	x14,x13,-16 # 3fff0 <.L104+0x3f784>
 32c:	0050e633          	or	x12,x1,x5
 330:	00e5f533          	and	x10,x11,x14
 334:	00a669b3          	or	x19,x12,x10
 338:	c0000437          	lui	x8,0xc0000
 33c:	0089eeb3          	or	x29,x19,x8
 340:	410014b7          	lui	x9,0x41001
 344:	d1d4a623          	sw	x29,-756(x9) # 41000d0c <.L104+0x410004a0>
 348:	00032f03          	lw	x30,0(x6)
 34c:	0008a903          	lw	x18,0(x17)
 350:	000003b7          	lui	x7,0x0
 354:	004f0f93          	addi	x31,x30,4
 358:	00038793          	mv	x15,x7
 35c:	01f78e33          	add	x28,x15,x31
 360:	01891b13          	slli	x22,x18,0x18
 364:	016e6ab3          	or	x21,x28,x22
 368:	20040c37          	lui	x24,0x20040
 36c:	018aea33          	or	x20,x21,x24
 370:	00100b93          	li	x23,1
 374:	017a0023          	sb	x23,0(x20)
 378:	00032d83          	lw	x27,0(x6)
 37c:	077d8663          	beq	x27,x23,3e8 <.L43>

00000380 <.L55>:
 380:	00100893          	li	x17,1
 384:	0100006f          	j	394 <.L59>

00000388 <.L102>:
 388:	00038813          	mv	x16,x7
 38c:	140826af          	lr.w.aq	x13,(x16)
 390:	01168863          	beq	x13,x17,3a0 <.L58>

00000394 <.L59>:
 394:	00038293          	mv	x5,x7
 398:	1002a62f          	lr.w	x12,(x5)
 39c:	ff1616e3          	bne	x12,x17,388 <.L102>

000003a0 <.L58>:
 3a0:	15c12083          	lw	x1,348(x2)
 3a4:	15812403          	lw	x8,344(x2)
 3a8:	0007a023          	sw	x0,0(x15) # 3f000000 <.L104+0x3efff794>
 3ac:	15412483          	lw	x9,340(x2)
 3b0:	15012903          	lw	x18,336(x2)
 3b4:	14c12983          	lw	x19,332(x2)
 3b8:	14812a03          	lw	x20,328(x2)
 3bc:	14412a83          	lw	x21,324(x2)
 3c0:	14012b03          	lw	x22,320(x2)
 3c4:	13c12b83          	lw	x23,316(x2)
 3c8:	13812c03          	lw	x24,312(x2)
 3cc:	13412c83          	lw	x25,308(x2)
 3d0:	13012d03          	lw	x26,304(x2)
 3d4:	12c12d83          	lw	x27,300(x2)
 3d8:	11c12407          	flw	f8,284(x2)
 3dc:	00000513          	li	x10,0
 3e0:	16010113          	addi	x2,x2,352
 3e4:	00008067          	ret

000003e8 <.L43>:
 3e8:	0047c803          	lbu	x16,4(x15)
 3ec:	0ff87d13          	andi	x26,x16,255
 3f0:	fe0d0ce3          	beqz	x26,3e8 <.L43>
 3f4:	0057c083          	lbu	x1,5(x15)
 3f8:	0ff0fc93          	andi	x25,x1,255
 3fc:	fe0c86e3          	beqz	x25,3e8 <.L43>
 400:	0067c283          	lbu	x5,6(x15)
 404:	0ff2f593          	andi	x11,x5,255
 408:	fe0580e3          	beqz	x11,3e8 <.L43>
 40c:	0077c603          	lbu	x12,7(x15)
 410:	0ff67693          	andi	x13,x12,255
 414:	fc068ae3          	beqz	x13,3e8 <.L43>
 418:	0008a703          	lw	x14,0(x17)
 41c:	21040eb7          	lui	x29,0x21040
 420:	00100513          	li	x10,1
 424:	00c70993          	addi	x19,x14,12
 428:	01378433          	add	x8,x15,x19
 42c:	01d464b3          	or	x9,x8,x29
 430:	00a48023          	sb	x10,0(x9)
 434:	00032f03          	lw	x30,0(x6)
 438:	f4af14e3          	bne	x30,x10,380 <.L55>
 43c:	0008ae83          	lw	x29,0(x17)
 440:	07ee8c63          	beq	x29,x30,4b8 <.L49>

00000444 <.L54>:
 444:	00100313          	li	x6,1
 448:	0100006f          	j	458 <.L48>

0000044c <.L103>:
 44c:	00878913          	addi	x18,x15,8
 450:	14092faf          	lr.w.aq	x31,(x18)
 454:	006f8863          	beq	x31,x6,464 <.L56>

00000458 <.L48>:
 458:	00878493          	addi	x9,x15,8
 45c:	1004af2f          	lr.w	x30,(x9)
 460:	fe6f16e3          	bne	x30,x6,44c <.L103>

00000464 <.L56>:
 464:	0007a423          	sw	x0,8(x15)
 468:	00078223          	sb	x0,4(x15)
 46c:	000782a3          	sb	x0,5(x15)
 470:	00078323          	sb	x0,6(x15)
 474:	000783a3          	sb	x0,7(x15)
 478:	0007a023          	sw	x0,0(x15)
 47c:	00000d93          	li	x27,0
 480:	00038793          	mv	x15,x7
 484:	20000e37          	lui	x28,0x20000
 488:	00100b13          	li	x22,1
 48c:	00040ab7          	lui	x21,0x40
 490:	00100c37          	lui	x24,0x100

00000494 <.L57>:
 494:	0008aa03          	lw	x20,0(x17)
 498:	01b7ebb3          	or	x23,x15,x27
 49c:	015d8db3          	add	x27,x27,x21
 4a0:	018a1d13          	slli	x26,x20,0x18
 4a4:	017d60b3          	or	x1,x26,x23
 4a8:	01c0ecb3          	or	x25,x1,x28
 4ac:	016ca023          	sw	x22,0(x25) # fc0000 <.L104+0xfbf794>
 4b0:	ff8d92e3          	bne	x27,x24,494 <.L57>
 4b4:	ecdff06f          	j	380 <.L55>

000004b8 <.L49>:
 4b8:	00c7c903          	lbu	x18,12(x15)
 4bc:	0ff97f93          	andi	x31,x18,255
 4c0:	fe0f8ce3          	beqz	x31,4b8 <.L49>
 4c4:	00d7ce03          	lbu	x28,13(x15)
 4c8:	0ffe7b13          	andi	x22,x28,255
 4cc:	fe0b06e3          	beqz	x22,4b8 <.L49>
 4d0:	00e7ca83          	lbu	x21,14(x15)
 4d4:	0ffafc13          	andi	x24,x21,255
 4d8:	fe0c00e3          	beqz	x24,4b8 <.L49>
 4dc:	00f7ca03          	lbu	x20,15(x15)
 4e0:	0ffa7b93          	andi	x23,x20,255
 4e4:	fc0b8ae3          	beqz	x23,4b8 <.L49>
 4e8:	00078623          	sb	x0,12(x15)
 4ec:	000786a3          	sb	x0,13(x15)
 4f0:	00078723          	sb	x0,14(x15)
 4f4:	000787a3          	sb	x0,15(x15)
 4f8:	00000db7          	lui	x27,0x0
 4fc:	0007a423          	sw	x0,8(x15)
 500:	00000593          	li	x11,0
 504:	008d8d13          	addi	x26,x27,8 # 8 <tensorlib_addcdiv+0x8>
 508:	03fc00b7          	lui	x1,0x3fc0
 50c:	20000cb7          	lui	x25,0x20000
 510:	00100293          	li	x5,1
 514:	01000637          	lui	x12,0x1000
 518:	04000837          	lui	x16,0x4000

0000051c <.L53>:
 51c:	012e9693          	slli	x13,x29,0x12
 520:	00bd6533          	or	x10,x26,x11
 524:	0016f733          	and	x14,x13,x1
 528:	00a769b3          	or	x19,x14,x10
 52c:	0199e433          	or	x8,x19,x25
 530:	00542023          	sw	x5,0(x8) # c0000000 <.L104+0xbffff794>
 534:	00c585b3          	add	x11,x11,x12
 538:	00032e83          	lw	x29,0(x6)
 53c:	ff0590e3          	bne	x11,x16,51c <.L53>
 540:	f05e82e3          	beq	x29,x5,444 <.L54>
 544:	e3dff06f          	j	380 <.L55>

00000548 <.L67>:
 548:	00038693          	mv	x13,x7
 54c:	d95ff06f          	j	2e0 <.L39>

00000550 <.L66>:
 550:	00090d93          	mv	x27,x18
 554:	d39ff06f          	j	28c <.L37>

00000558 <.L65>:
 558:	00048693          	mv	x13,x9
 55c:	ce9ff06f          	j	244 <.L35>

00000560 <.L64>:
 560:	00040513          	mv	x10,x8
 564:	c99ff06f          	j	1fc <.L33>

00000568 <.L100>:
 568:	00028e13          	mv	x28,x5
 56c:	be9ff06f          	j	154 <.L17>

00000570 <.L101>:
 570:	00678513          	addi	x10,x15,6
 574:	0005a703          	lw	x14,0(x11)
 578:	000ea603          	lw	x12,0(x29) # 21040000 <.L104+0x2103f794>
 57c:	00082583          	lw	x11,0(x16) # 4000000 <.L104+0x3fff794>
 580:	000f2683          	lw	x13,0(x30)
 584:	2fc57463          	bgeu	x10,x28,86c <.L104>
 588:	00259813          	slli	x16,x11,0x2
 58c:	00261e93          	slli	x29,x12,0x2
 590:	00269f13          	slli	x30,x13,0x2
 594:	00271293          	slli	x5,x14,0x2
 598:	00ce89b3          	add	x19,x29,x12
 59c:	00b800b3          	add	x1,x16,x11
 5a0:	00df0d33          	add	x26,x30,x13
 5a4:	00e28cb3          	add	x25,x5,x14
 5a8:	01012223          	sw	x16,4(x2)
 5ac:	01d12423          	sw	x29,8(x2)
 5b0:	00299813          	slli	x16,x19,0x2
 5b4:	002d1e93          	slli	x29,x26,0x2
 5b8:	00512023          	sw	x5,0(x2)
 5bc:	00209b93          	slli	x23,x1,0x2
 5c0:	002c9293          	slli	x5,x25,0x2
 5c4:	01e12623          	sw	x30,12(x2)
 5c8:	40b00db3          	neg	x27,x11
 5cc:	40c00fb3          	neg	x31,x12
 5d0:	40d00f33          	neg	x30,x13
 5d4:	40e00c33          	neg	x24,x14
 5d8:	01d12c23          	sw	x29,24(x2)
 5dc:	00512e23          	sw	x5,28(x2)
 5e0:	01712823          	sw	x23,16(x2)
 5e4:	01012a23          	sw	x16,20(x2)
 5e8:	00100993          	li	x19,1
 5ec:	002d9293          	slli	x5,x27,0x2
 5f0:	002f9f93          	slli	x31,x31,0x2
 5f4:	002f1f13          	slli	x30,x30,0x2
 5f8:	002c1e93          	slli	x29,x24,0x2
 5fc:	0f359663          	bne	x11,x19,6e8 <.L23>

00000600 <.L106>:
 600:	00279813          	slli	x16,x15,0x2
 604:	01040cb3          	add	x25,x8,x16
 608:	014caf07          	flw	f30,20(x25) # 20000014 <.L104+0x1ffff7a8>
 60c:	010cae07          	flw	f28,16(x25)
 610:	00cca807          	flw	f16,12(x25)
 614:	008ca307          	flw	f6,8(x25)
 618:	004ca207          	flw	f4,4(x25)
 61c:	000ca187          	flw	f3,0(x25)
 620:	11361463          	bne	x12,x19,728 <.L25>

00000624 <.L107>:
 624:	00279813          	slli	x16,x15,0x2
 628:	01048c33          	add	x24,x9,x16
 62c:	014c2507          	flw	f10,20(x24) # 100014 <.L104+0xff7a8>
 630:	010c2707          	flw	f14,16(x24)
 634:	00cc2587          	flw	f11,12(x24)
 638:	008c2607          	flw	f12,8(x24)
 63c:	004c2687          	flw	f13,4(x24)
 640:	000c2787          	flw	f15,0(x24)
 644:	13369263          	bne	x13,x19,768 <.L27>

00000648 <.L108>:
 648:	00279813          	slli	x16,x15,0x2
 64c:	01090d33          	add	x26,x18,x16
 650:	014d2407          	flw	f8,20(x26)
 654:	010d2f87          	flw	f31,16(x26)
 658:	00cd2e87          	flw	f29,12(x26)
 65c:	008d2887          	flw	f17,8(x26)
 660:	004d2387          	flw	f7,4(x26)
 664:	000d2287          	flw	f5,0(x26)

00000668 <.L28>:
 668:	10a170d3          	fmul.s	f1,f2,f10
 66c:	10e17053          	fmul.s	f0,f2,f14
 670:	10c17653          	fmul.s	f12,f2,f12
 674:	10b17753          	fmul.s	f14,f2,f11
 678:	10d176d3          	fmul.s	f13,f2,f13
 67c:	10f177d3          	fmul.s	f15,f2,f15
 680:	1880f5d3          	fdiv.s	f11,f1,f8
 684:	19f07553          	fdiv.s	f10,f0,f31
 688:	01e5ff53          	fadd.s	f30,f11,f30
 68c:	19d77453          	fdiv.s	f8,f14,f29
 690:	01c57e53          	fadd.s	f28,f10,f28
 694:	19167fd3          	fdiv.s	f31,f12,f17
 698:	01047853          	fadd.s	f16,f8,f16
 69c:	1876fed3          	fdiv.s	f29,f13,f7
 6a0:	006ff353          	fadd.s	f6,f31,f6
 6a4:	1857f8d3          	fdiv.s	f17,f15,f5
 6a8:	004ef253          	fadd.s	f4,f29,f4
 6ac:	0038f1d3          	fadd.s	f3,f17,f3
 6b0:	0f371c63          	bne	x14,x19,7a8 <.L29>
 6b4:	00279093          	slli	x1,x15,0x2
 6b8:	00138cb3          	add	x25,x7,x1
 6bc:	01ecaa27          	fsw	f30,20(x25)
 6c0:	01cca827          	fsw	f28,16(x25)
 6c4:	010ca627          	fsw	f16,12(x25)
 6c8:	006ca427          	fsw	f6,8(x25)
 6cc:	004ca227          	fsw	f4,4(x25)
 6d0:	003ca027          	fsw	f3,0(x25)
 6d4:	00650c13          	addi	x24,x10,6
 6d8:	00050793          	mv	x15,x10
 6dc:	11cc7a63          	bgeu	x24,x28,7f0 <.L105>

000006e0 <.L63>:
 6e0:	000c0513          	mv	x10,x24
 6e4:	f1358ee3          	beq	x11,x19,600 <.L106>

000006e8 <.L23>:
 6e8:	02f580b3          	mul	x1,x11,x15
 6ec:	01012c83          	lw	x25,16(x2)
 6f0:	00209d13          	slli	x26,x1,0x2
 6f4:	01a40833          	add	x16,x8,x26
 6f8:	019800b3          	add	x1,x16,x25
 6fc:	00508d33          	add	x26,x1,x5
 700:	005d0c33          	add	x24,x26,x5
 704:	005c0bb3          	add	x23,x24,x5
 708:	005b8db3          	add	x27,x23,x5
 70c:	0000af07          	flw	f30,0(x1) # 3fc0000 <.L104+0x3fbf794>
 710:	000d2e07          	flw	f28,0(x26)
 714:	000c2807          	flw	f16,0(x24)
 718:	000ba307          	flw	f6,0(x23)
 71c:	000da207          	flw	f4,0(x27)
 720:	00082187          	flw	f3,0(x16)
 724:	f13600e3          	beq	x12,x19,624 <.L107>

00000728 <.L25>:
 728:	02f600b3          	mul	x1,x12,x15
 72c:	01412c03          	lw	x24,20(x2)
 730:	00209d13          	slli	x26,x1,0x2
 734:	01a48833          	add	x16,x9,x26
 738:	018800b3          	add	x1,x16,x24
 73c:	01f08cb3          	add	x25,x1,x31
 740:	01fc8d33          	add	x26,x25,x31
 744:	01fd0bb3          	add	x23,x26,x31
 748:	01fb8db3          	add	x27,x23,x31
 74c:	0000a507          	flw	f10,0(x1)
 750:	000ca707          	flw	f14,0(x25)
 754:	000d2587          	flw	f11,0(x26)
 758:	000ba607          	flw	f12,0(x23)
 75c:	000da687          	flw	f13,0(x27)
 760:	00082787          	flw	f15,0(x16)
 764:	ef3682e3          	beq	x13,x19,648 <.L108>

00000768 <.L27>:
 768:	02f680b3          	mul	x1,x13,x15
 76c:	01812d03          	lw	x26,24(x2)
 770:	00209c93          	slli	x25,x1,0x2
 774:	01990833          	add	x16,x18,x25
 778:	01a800b3          	add	x1,x16,x26
 77c:	01e08cb3          	add	x25,x1,x30
 780:	01ec8c33          	add	x24,x25,x30
 784:	01ec0bb3          	add	x23,x24,x30
 788:	01eb8db3          	add	x27,x23,x30
 78c:	0000a407          	flw	f8,0(x1)
 790:	000caf87          	flw	f31,0(x25)
 794:	000c2e87          	flw	f29,0(x24)
 798:	000ba887          	flw	f17,0(x23)
 79c:	000da387          	flw	f7,0(x27)
 7a0:	00082287          	flw	f5,0(x16)
 7a4:	ec5ff06f          	j	668 <.L28>

000007a8 <.L29>:
 7a8:	02f707b3          	mul	x15,x14,x15
 7ac:	01c12c03          	lw	x24,28(x2)
 7b0:	00279093          	slli	x1,x15,0x2
 7b4:	00138cb3          	add	x25,x7,x1
 7b8:	018c8bb3          	add	x23,x25,x24
 7bc:	01eba027          	fsw	f30,0(x23)
 7c0:	01db8db3          	add	x27,x23,x29
 7c4:	01cda027          	fsw	f28,0(x27)
 7c8:	01dd8833          	add	x16,x27,x29
 7cc:	01082027          	fsw	f16,0(x16)
 7d0:	01d80d33          	add	x26,x16,x29
 7d4:	006d2027          	fsw	f6,0(x26)
 7d8:	01dd07b3          	add	x15,x26,x29
 7dc:	0047a027          	fsw	f4,0(x15)
 7e0:	003ca027          	fsw	f3,0(x25)
 7e4:	00650c13          	addi	x24,x10,6
 7e8:	00050793          	mv	x15,x10
 7ec:	efcc6ae3          	bltu	x24,x28,6e0 <.L63>

000007f0 <.L105>:
 7f0:	afc57ee3          	bgeu	x10,x28,2ec <.L22>

000007f4 <.L19>:
 7f4:	02a587b3          	mul	x15,x11,x10
 7f8:	02a600b3          	mul	x1,x12,x10
 7fc:	00279c93          	slli	x25,x15,0x2
 800:	01940433          	add	x8,x8,x25
 804:	02a682b3          	mul	x5,x13,x10
 808:	00209593          	slli	x11,x1,0x2
 80c:	00b484b3          	add	x9,x9,x11
 810:	02a70633          	mul	x12,x14,x10
 814:	00229693          	slli	x13,x5,0x2
 818:	00d90933          	add	x18,x18,x13
 81c:	00261713          	slli	x14,x12,0x2
 820:	00e383b3          	add	x7,x7,x14

00000824 <.L32>:
 824:	0004a387          	flw	f7,0(x9)
 828:	00092287          	flw	f5,0(x18) # 80000000 <.L104+0x7ffff794>
 82c:	00042087          	flw	f1,0(x8)
 830:	10717053          	fmul.s	f0,f2,f7
 834:	00412983          	lw	x19,4(x2)
 838:	00812e83          	lw	x29,8(x2)
 83c:	00c12f03          	lw	x30,12(x2)
 840:	00012f83          	lw	x31,0(x2)
 844:	18507753          	fdiv.s	f14,f0,f5
 848:	00150513          	addi	x10,x10,1
 84c:	01340433          	add	x8,x8,x19
 850:	01d484b3          	add	x9,x9,x29
 854:	01e90933          	add	x18,x18,x30
 858:	00177653          	fadd.s	f12,f14,f1
 85c:	00c3a027          	fsw	f12,0(x7) # 0 <tensorlib_addcdiv>
 860:	01f383b3          	add	x7,x7,x31
 864:	fcae10e3          	bne	x28,x10,824 <.L32>
 868:	a85ff06f          	j	2ec <.L22>

0000086c <.L104>:
 86c:	00259b93          	slli	x23,x11,0x2
 870:	00261d93          	slli	x27,x12,0x2
 874:	00269813          	slli	x16,x13,0x2
 878:	00271d13          	slli	x26,x14,0x2
 87c:	00078513          	mv	x10,x15
 880:	01712223          	sw	x23,4(x2)
 884:	01b12423          	sw	x27,8(x2)
 888:	01012623          	sw	x16,12(x2)
 88c:	01a12023          	sw	x26,0(x2)
 890:	f65ff06f          	j	7f4 <.L19>

Disassembly of section .rodata._ZN8HBTensorIfLln1EEC2EP11hb_tensor_t.str1.4:

00000000 <.LC0>:
   0:	726f772f          	0x726f772f
   4:	6c672f6b          	0x6c672f6b
   8:	6c61626f          	jal	x4,166ce <.L104+0x15e62>
   c:	33726b2f          	0x33726b2f
  10:	3739                	jal	ffffff1e <.L104+0xfffff6b2>
  12:	2d62682f          	0x2d62682f
  16:	7970                	flw	f12,116(x10)
  18:	6f74                	flw	f13,92(x14)
  1a:	6372                	flw	f6,28(x2)
  1c:	2f68                	fld	f10,216(x14)
  1e:	6168                	flw	f10,68(x10)
  20:	6d6d                	lui	x26,0x1b
  22:	7265                	lui	x4,0xffff9
  24:	6c62                	flw	f24,24(x2)
  26:	6461                	lui	x8,0x18
  28:	2f65                	jal	7e0 <.L29+0x38>
  2a:	6f74                	flw	f13,92(x14)
  2c:	6372                	flw	f6,28(x2)
  2e:	2f68                	fld	f10,216(x14)
  30:	6e72656b          	0x6e72656b
  34:	6c65                	lui	x24,0x19
  36:	5f62682f          	0x5f62682f
  3a:	6574                	flw	f13,76(x10)
  3c:	736e                	flw	f6,248(x2)
  3e:	682e726f          	jal	x4,e76c0 <.L104+0xe6e54>
  42:	7070                	flw	f12,100(x8)
  44:	0000                	unimp
	...

00000048 <.LC1>:
  48:	7361                	lui	x6,0xffff8
  4a:	74726573          	csrrsi	x10,0x747,4
  4e:	6620                	flw	f8,72(x12)
  50:	6961                	lui	x18,0x18
  52:	656c                	flw	f11,76(x10)
  54:	2064                	fld	f9,192(x8)
  56:	7461                	lui	x8,0xffff8
  58:	2520                	fld	f8,72(x10)
  5a:	64253a73          	csrrc	x20,0x642,x10
  5e:	0020                	addi	x8,x2,8

00000060 <.LC2>:
  60:	7265                	lui	x4,0xffff9
  62:	6f72                	flw	f30,28(x2)
  64:	3a72                	fld	f20,312(x2)
  66:	7420                	flw	f8,104(x8)
  68:	6e65                	lui	x28,0x19
  6a:	20726f73          	csrrsi	x30,0x207,4
  6e:	6964                	flw	f9,84(x10)
  70:	736d                	lui	x6,0xffffb
  72:	6920                	flw	f8,80(x10)
  74:	6f742073          	csrs	0x6f7,x8
  78:	616c206f          	j	c268e <.L104+0xc1e22>
  7c:	6772                	flw	f14,28(x2)
  7e:	0065                	c.nop	25

Disassembly of section .text._ZN8HBTensorIfLln1EEC2EP11hb_tensor_t:

00000000 <_ZN8HBTensorIfLln1EEC1EP11hb_tensor_t>:
   0:	00058713          	mv	x14,x11
   4:	0045a683          	lw	x13,4(x11)
   8:	00072803          	lw	x16,0(x14)
   c:	0105a583          	lw	x11,16(x11)
  10:	00050793          	mv	x15,x10
  14:	02850613          	addi	x12,x10,40
  18:	01450513          	addi	x10,x10,20
  1c:	0107a023          	sw	x16,0(x15)
  20:	00d7a223          	sw	x13,4(x15)
  24:	00a7a423          	sw	x10,8(x15)
  28:	00c7a623          	sw	x12,12(x15)
  2c:	00b7a823          	sw	x11,16(x15)
  30:	00060613          	mv	x12,x12
  34:	00500293          	li	x5,5
  38:	04d2e463          	bltu	x5,x13,80 <.L14>
  3c:	00872303          	lw	x6,8(x14)
  40:	00c72383          	lw	x7,12(x14)
  44:	02068c63          	beqz	x13,7c <.L1>
  48:	00269893          	slli	x17,x13,0x2
  4c:	00078713          	mv	x14,x15
  50:	01178e33          	add	x28,x15,x17
  54:	40f30eb3          	sub	x29,x6,x15
  58:	40f38f33          	sub	x30,x7,x15

0000005c <.L5>:
  5c:	00ee8fb3          	add	x31,x29,x14
  60:	000fa683          	lw	x13,0(x31)
  64:	00ef05b3          	add	x11,x30,x14
  68:	00470713          	addi	x14,x14,4
  6c:	00d72823          	sw	x13,16(x14)
  70:	0005a803          	lw	x16,0(x11)
  74:	03072223          	sw	x16,36(x14)
  78:	ffc712e3          	bne	x14,x28,5c <.L5>

0000007c <.L1>:
  7c:	00008067          	ret

00000080 <.L14>:
  80:	ff010113          	addi	x2,x2,-16
  84:	000007b7          	lui	x15,0x0
  88:	00112623          	sw	x1,12(x2)
  8c:	000000b7          	lui	x1,0x0
  90:	0c700613          	li	x12,199
  94:	00008593          	mv	x11,x1
  98:	00078513          	mv	x10,x15
  9c:	00000097          	auipc	x1,0x0
  a0:	000080e7          	jalr	x1 # 9c <.L14+0x1c>
  a4:	00000637          	lui	x12,0x0
  a8:	00060513          	mv	x10,x12
  ac:	00000097          	auipc	x1,0x0
  b0:	000080e7          	jalr	x1 # ac <.L14+0x2c>
  b4:	00000537          	lui	x10,0x0
  b8:	00052283          	lw	x5,0(x10) # 0 <_ZN8HBTensorIfLln1EEC1EP11hb_tensor_t>
  bc:	00000337          	lui	x6,0x0
  c0:	00032383          	lw	x7,0(x6) # 0 <_ZN8HBTensorIfLln1EEC1EP11hb_tensor_t>
  c4:	01029893          	slli	x17,x5,0x10
  c8:	4100feb7          	lui	x29,0x4100f
  cc:	00788e33          	add	x28,x17,x7
  d0:	adceac23          	sw	x28,-1320(x29) # 4100ead8 <.L104+0x4100e26c>

000000d4 <.L3>:
  d4:	0000006f          	j	d4 <.L3>

Disassembly of section .comment:

00000000 <.comment>:
   0:	4700                	lw	x8,8(x14)
   2:	203a4343          	fmadd.s	f6,f20,f3,f4,rmm
   6:	4728                	lw	x10,72(x14)
   8:	554e                	lw	x10,240(x2)
   a:	2029                	jal	14 <_ZN8HBTensorIfLln1EEC5EP11hb_tensor_t+0x14>
   c:	2e39                	jal	32a <.L22+0x3e>
   e:	2e32                	fld	f28,264(x2)
  10:	0030                	addi	x12,x2,8

Disassembly of section .eh_frame:

00000000 <.eh_frame>:
   0:	0010                	0x10
   2:	0000                	unimp
   4:	0000                	unimp
   6:	0000                	unimp
   8:	7a01                	lui	x20,0xfffe0
   a:	0052                	c.slli	x0,0x14
   c:	7c01                	lui	x24,0xfffe0
   e:	0101                	addi	x2,x2,0
  10:	00020d1b          	0x20d1b
  14:	0014                	0x14
  16:	0000                	unimp
  18:	0018                	0x18
	...
  22:	0000                	unimp
  24:	0200                	addi	x8,x2,256
  26:	0e84                	addi	x9,x2,848
  28:	4810                	lw	x12,16(x8)
  2a:	0181                	addi	x3,x3,0
  2c:	0058                	addi	x14,x2,4
  2e:	0000                	unimp
  30:	0030                	addi	x12,x2,8
	...
  3a:	0000                	unimp
  3c:	4400                	lw	x8,8(x8)
  3e:	e00e                	fsw	f3,0(x2)
  40:	4c02                	lw	x24,0(x2)
  42:	81540593          	addi	x11,x8,-2027 # ffff7815 <.L104+0xffff6fa9>
  46:	8801                	andi	x8,x8,0
  48:	8902                	jr	x18
  4a:	04925003          	lhu	x0,73(x4) # ffff9049 <.L104+0xffff87dd>
  4e:	0694                	addi	x13,x2,832
  50:	9564                	0x9564
  52:	97089607          	0x97089607
  56:	9809                	andi	x8,x8,-30
  58:	990a                	add	x18,x18,x2
  5a:	9b0c9a0b          	0x9b0c9a0b
  5e:	a80d                	j	90 <.L14+0x10>
  60:	0311                	addi	x6,x6,4
  62:	034c                	addi	x11,x2,388
  64:	c10a                	sw	x2,128(x2)
  66:	c844                	sw	x9,20(x8)
  68:	c948                	sw	x10,20(x10)
  6a:	d244                	sw	x9,36(x12)
  6c:	d344                	sw	x9,36(x14)
  6e:	d444                	sw	x9,44(x8)
  70:	d544                	sw	x9,44(x10)
  72:	d644                	sw	x9,44(x12)
  74:	d744                	sw	x9,44(x14)
  76:	d844                	sw	x9,52(x8)
  78:	d944                	sw	x9,52(x10)
  7a:	da44                	sw	x9,52(x12)
  7c:	db44                	sw	x9,52(x14)
  7e:	e844                	fsw	f9,20(x8)
  80:	0e48                	addi	x10,x2,788
  82:	4400                	lw	x8,8(x8)
  84:	0000000b          	0xb

Disassembly of section .riscv.attributes:

00000000 <.riscv.attributes>:
   0:	2a41                	jal	190 <.L17+0x3c>
   2:	0000                	unimp
   4:	7200                	flw	f8,32(x12)
   6:	7369                	lui	x6,0xffffa
   8:	01007663          	bgeu	x0,x16,14 <.riscv.attributes+0x14>
   c:	0020                	addi	x8,x2,8
   e:	0000                	unimp
  10:	1004                	addi	x9,x2,32
  12:	7205                	lui	x4,0xfffe1
  14:	3376                	fld	f6,376(x2)
  16:	6932                	flw	f18,12(x2)
  18:	7032                	flw	f0,44(x2)
  1a:	5f30                	lw	x12,120(x14)
  1c:	326d                	jal	fffff9c6 <.L104+0xfffff15a>
  1e:	3070                	fld	f12,224(x8)
  20:	615f 7032 5f30      	0x5f307032615f
  26:	3266                	fld	f4,120(x2)
  28:	3070                	fld	f12,224(x8)
	...
