
kernel_fill.o:     file format elf32-littleriscv


Disassembly of section .group:

00000000 <_ZN8HBTensorIfLln1EEC5EP11hb_tensor_t>:
   0:	0001                	nop
   2:	0000                	unimp
   4:	00000007          	0x7
   8:	0008                	0x8
	...

Disassembly of section .text:

00000000 <_Z21hb_tiled_foreach_implIfZ14tensorlib_fillEUlvE_JEEvjjT0_8HBTensorIT_Lln1EEPS3_.isra.0>:
   0:	00100813          	li	x16,1
   4:	07060463          	beq	x12,x16,6c <.L75>
   8:	04b57c63          	bgeu	x10,x11,60 <.L1>
   c:	00261293          	slli	x5,x12,0x2
  10:	005703b3          	add	x7,x14,x5

00000014 <.L8>:
  14:	04060863          	beqz	x12,64 <.L9>
  18:	00068e13          	mv	x28,x13
  1c:	00070813          	mv	x16,x14
  20:	00050313          	mv	x6,x10
  24:	00000f13          	li	x30,0

00000028 <.L7>:
  28:	00082e83          	lw	x29,0(x16)
  2c:	000e2f83          	lw	x31,0(x28)
  30:	00480813          	addi	x16,x16,4
  34:	03d378b3          	remu	x17,x6,x29
  38:	004e0e13          	addi	x28,x28,4
  3c:	03f882b3          	mul	x5,x17,x31
  40:	03d35333          	divu	x6,x6,x29
  44:	005f0f33          	add	x30,x30,x5
  48:	ff0390e3          	bne	x7,x16,28 <.L7>
  4c:	002f1e93          	slli	x29,x30,0x2
  50:	01d78f33          	add	x30,x15,x29

00000054 <.L6>:
  54:	00af2027          	fsw	f10,0(x30)
  58:	00150513          	addi	x10,x10,1
  5c:	faa59ce3          	bne	x11,x10,14 <.L8>

00000060 <.L1>:
  60:	00008067          	ret

00000064 <.L9>:
  64:	00078f13          	mv	x30,x15
  68:	fedff06f          	j	54 <.L6>

0000006c <.L75>:
  6c:	feb57ae3          	bgeu	x10,x11,60 <.L1>
  70:	0006a703          	lw	x14,0(x13)
  74:	40a586b3          	sub	x13,x11,x10
  78:	00f6f393          	andi	x7,x13,15
  7c:	00271f93          	slli	x31,x14,0x2
  80:	03f50833          	mul	x16,x10,x31
  84:	010787b3          	add	x15,x15,x16
  88:	12038463          	beqz	x7,1b0 <.L4>
  8c:	10c38a63          	beq	x7,x12,1a0 <.L58>
  90:	00200613          	li	x12,2
  94:	10c38063          	beq	x7,x12,194 <.L59>
  98:	00300893          	li	x17,3
  9c:	0f138663          	beq	x7,x17,188 <.L60>
  a0:	00400e13          	li	x28,4
  a4:	0dc38c63          	beq	x7,x28,17c <.L61>
  a8:	00500293          	li	x5,5
  ac:	0c538263          	beq	x7,x5,170 <.L62>
  b0:	00600313          	li	x6,6
  b4:	0a638863          	beq	x7,x6,164 <.L63>
  b8:	00700f13          	li	x30,7
  bc:	09e38e63          	beq	x7,x30,158 <.L64>
  c0:	00800e93          	li	x29,8
  c4:	09d38463          	beq	x7,x29,14c <.L65>
  c8:	00900713          	li	x14,9
  cc:	06e38a63          	beq	x7,x14,140 <.L66>
  d0:	00a00693          	li	x13,10
  d4:	06d38063          	beq	x7,x13,134 <.L67>
  d8:	00b00813          	li	x16,11
  dc:	05038663          	beq	x7,x16,128 <.L68>
  e0:	00c00613          	li	x12,12
  e4:	02c38c63          	beq	x7,x12,11c <.L69>
  e8:	00d00893          	li	x17,13
  ec:	03138263          	beq	x7,x17,110 <.L70>
  f0:	00e00e13          	li	x28,14
  f4:	01c38863          	beq	x7,x28,104 <.L71>
  f8:	00a7a027          	fsw	f10,0(x15)
  fc:	00150513          	addi	x10,x10,1
 100:	01f787b3          	add	x15,x15,x31

00000104 <.L71>:
 104:	00a7a027          	fsw	f10,0(x15)
 108:	00150513          	addi	x10,x10,1
 10c:	01f787b3          	add	x15,x15,x31

00000110 <.L70>:
 110:	00a7a027          	fsw	f10,0(x15)
 114:	00150513          	addi	x10,x10,1
 118:	01f787b3          	add	x15,x15,x31

0000011c <.L69>:
 11c:	00a7a027          	fsw	f10,0(x15)
 120:	00150513          	addi	x10,x10,1
 124:	01f787b3          	add	x15,x15,x31

00000128 <.L68>:
 128:	00a7a027          	fsw	f10,0(x15)
 12c:	00150513          	addi	x10,x10,1
 130:	01f787b3          	add	x15,x15,x31

00000134 <.L67>:
 134:	00a7a027          	fsw	f10,0(x15)
 138:	00150513          	addi	x10,x10,1
 13c:	01f787b3          	add	x15,x15,x31

00000140 <.L66>:
 140:	00a7a027          	fsw	f10,0(x15)
 144:	00150513          	addi	x10,x10,1
 148:	01f787b3          	add	x15,x15,x31

0000014c <.L65>:
 14c:	00a7a027          	fsw	f10,0(x15)
 150:	00150513          	addi	x10,x10,1
 154:	01f787b3          	add	x15,x15,x31

00000158 <.L64>:
 158:	00a7a027          	fsw	f10,0(x15)
 15c:	00150513          	addi	x10,x10,1
 160:	01f787b3          	add	x15,x15,x31

00000164 <.L63>:
 164:	00a7a027          	fsw	f10,0(x15)
 168:	00150513          	addi	x10,x10,1
 16c:	01f787b3          	add	x15,x15,x31

00000170 <.L62>:
 170:	00a7a027          	fsw	f10,0(x15)
 174:	00150513          	addi	x10,x10,1
 178:	01f787b3          	add	x15,x15,x31

0000017c <.L61>:
 17c:	00a7a027          	fsw	f10,0(x15)
 180:	00150513          	addi	x10,x10,1
 184:	01f787b3          	add	x15,x15,x31

00000188 <.L60>:
 188:	00a7a027          	fsw	f10,0(x15)
 18c:	00150513          	addi	x10,x10,1
 190:	01f787b3          	add	x15,x15,x31

00000194 <.L59>:
 194:	00a7a027          	fsw	f10,0(x15)
 198:	00150513          	addi	x10,x10,1
 19c:	01f787b3          	add	x15,x15,x31

000001a0 <.L58>:
 1a0:	00a7a027          	fsw	f10,0(x15)
 1a4:	00150513          	addi	x10,x10,1
 1a8:	01f787b3          	add	x15,x15,x31
 1ac:	08a58863          	beq	x11,x10,23c <.L76>

000001b0 <.L4>:
 1b0:	00a7a027          	fsw	f10,0(x15)
 1b4:	01f783b3          	add	x7,x15,x31
 1b8:	00a3a027          	fsw	f10,0(x7)
 1bc:	01f382b3          	add	x5,x7,x31
 1c0:	00a2a027          	fsw	f10,0(x5)
 1c4:	01f28333          	add	x6,x5,x31
 1c8:	00a32027          	fsw	f10,0(x6)
 1cc:	01f30f33          	add	x30,x6,x31
 1d0:	00af2027          	fsw	f10,0(x30)
 1d4:	01ff0eb3          	add	x29,x30,x31
 1d8:	00aea027          	fsw	f10,0(x29)
 1dc:	01fe8733          	add	x14,x29,x31
 1e0:	00a72027          	fsw	f10,0(x14)
 1e4:	01f706b3          	add	x13,x14,x31
 1e8:	00a6a027          	fsw	f10,0(x13)
 1ec:	01f68833          	add	x16,x13,x31
 1f0:	00a82027          	fsw	f10,0(x16)
 1f4:	01f80633          	add	x12,x16,x31
 1f8:	00a62027          	fsw	f10,0(x12)
 1fc:	01f608b3          	add	x17,x12,x31
 200:	00a8a027          	fsw	f10,0(x17)
 204:	01f88e33          	add	x28,x17,x31
 208:	00ae2027          	fsw	f10,0(x28)
 20c:	01fe07b3          	add	x15,x28,x31
 210:	00a7a027          	fsw	f10,0(x15)
 214:	01f783b3          	add	x7,x15,x31
 218:	00a3a027          	fsw	f10,0(x7)
 21c:	01f382b3          	add	x5,x7,x31
 220:	01f28333          	add	x6,x5,x31
 224:	00a2a027          	fsw	f10,0(x5)
 228:	00a32027          	fsw	f10,0(x6)
 22c:	01050513          	addi	x10,x10,16
 230:	01f307b3          	add	x15,x6,x31
 234:	f6a59ee3          	bne	x11,x10,1b0 <.L4>
 238:	00008067          	ret

0000023c <.L76>:
 23c:	00008067          	ret

00000240 <tensorlib_fill>:
 240:	fa010113          	addi	x2,x2,-96
 244:	00050793          	mv	x15,x10
 248:	05512223          	sw	x21,68(x2)
 24c:	00410513          	addi	x10,x2,4
 250:	00058a93          	mv	x21,x11
 254:	00078593          	mv	x11,x15
 258:	04812c23          	sw	x8,88(x2)
 25c:	04912a23          	sw	x9,84(x2)
 260:	05212823          	sw	x18,80(x2)
 264:	05312623          	sw	x19,76(x2)
 268:	05412423          	sw	x20,72(x2)
 26c:	04112e23          	sw	x1,92(x2)
 270:	00000a37          	lui	x20,0x0
 274:	00000097          	auipc	x1,0x0
 278:	000080e7          	jalr	x1 # 274 <tensorlib_fill+0x34>
 27c:	000004b7          	lui	x9,0x0
 280:	000009b7          	lui	x19,0x0
 284:	00000437          	lui	x8,0x0
 288:	000a2283          	lw	x5,0(x20) # 0 <_Z21hb_tiled_foreach_implIfZ14tensorlib_fillEUlvE_JEEvjjT0_8HBTensorIT_Lln1EEPS3_.isra.0>
 28c:	0004a583          	lw	x11,0(x9) # 0 <_Z21hb_tiled_foreach_implIfZ14tensorlib_fillEUlvE_JEEvjjT0_8HBTensorIT_Lln1EEPS3_.isra.0>
 290:	0009a703          	lw	x14,0(x19) # 0 <_Z21hb_tiled_foreach_implIfZ14tensorlib_fillEUlvE_JEEvjjT0_8HBTensorIT_Lln1EEPS3_.isra.0>
 294:	00042603          	lw	x12,0(x8) # 0 <_Z21hb_tiled_foreach_implIfZ14tensorlib_fillEUlvE_JEEvjjT0_8HBTensorIT_Lln1EEPS3_.isra.0>
 298:	00000937          	lui	x18,0x0
 29c:	00092683          	lw	x13,0(x18) # 0 <_Z21hb_tiled_foreach_implIfZ14tensorlib_fillEUlvE_JEEvjjT0_8HBTensorIT_Lln1EEPS3_.isra.0>
 2a0:	00b28333          	add	x6,x5,x11
 2a4:	00c703b3          	add	x7,x14,x12
 2a8:	01831513          	slli	x10,x6,0x18
 2ac:	01239813          	slli	x16,x7,0x12
 2b0:	3f0008b7          	lui	x17,0x3f000
 2b4:	00fc0eb7          	lui	x29,0xfc0
 2b8:	000405b7          	lui	x11,0x40
 2bc:	01157e33          	and	x28,x10,x17
 2c0:	01d87f33          	and	x30,x16,x29
 2c4:	00469f93          	slli	x31,x13,0x4
 2c8:	ff058713          	addi	x14,x11,-16 # 3fff0 <.L101+0x3fa80>
 2cc:	00eff633          	and	x12,x31,x14
 2d0:	00412283          	lw	x5,4(x2)
 2d4:	01ee67b3          	or	x15,x28,x30
 2d8:	00c7e6b3          	or	x13,x15,x12
 2dc:	80000337          	lui	x6,0x80000
 2e0:	0066e3b3          	or	x7,x13,x6
 2e4:	41001537          	lui	x10,0x41001
 2e8:	000aa507          	flw	f10,0(x21)
 2ec:	ffd00813          	li	x16,-3
 2f0:	fff28a93          	addi	x21,x5,-1
 2f4:	d0752623          	sw	x7,-756(x10) # 41000d0c <.L101+0x4100079c>
 2f8:	00812603          	lw	x12,8(x2)
 2fc:	00c12683          	lw	x13,12(x2)
 300:	01012703          	lw	x14,16(x2)
 304:	01412783          	lw	x15,20(x2)
 308:	1f586463          	bltu	x16,x21,4f0 <.L111>
 30c:	000000b7          	lui	x1,0x0
 310:	0000a883          	lw	x17,0(x1) # 0 <_Z21hb_tiled_foreach_implIfZ14tensorlib_fillEUlvE_JEEvjjT0_8HBTensorIT_Lln1EEPS3_.isra.0>
 314:	0072de13          	srli	x28,x5,0x7
 318:	001e0e93          	addi	x29,x28,1
 31c:	07f8ff13          	andi	x30,x17,127
 320:	03df0533          	mul	x10,x30,x29
 324:	00ae85b3          	add	x11,x29,x10
 328:	1cb2ea63          	bltu	x5,x11,4fc <.L124>

0000032c <.L92>:
 32c:	1cb57263          	bgeu	x10,x11,4f0 <.L111>

00000330 <.L91>:
 330:	00000097          	auipc	x1,0x0
 334:	000080e7          	jalr	x1 # 330 <.L91>
 338:	0004af83          	lw	x31,0(x9)
 33c:	000a2a03          	lw	x20,0(x20)
 340:	0009a983          	lw	x19,0(x19)
 344:	00042283          	lw	x5,0(x8)
 348:	00092903          	lw	x18,0(x18)
 34c:	01fa07b3          	add	x15,x20,x31
 350:	005985b3          	add	x11,x19,x5
 354:	01879693          	slli	x13,x15,0x18
 358:	01259713          	slli	x14,x11,0x12
 35c:	3f000637          	lui	x12,0x3f000
 360:	00fc03b7          	lui	x7,0xfc0
 364:	000408b7          	lui	x17,0x40
 368:	00c6f333          	and	x6,x13,x12
 36c:	00777ab3          	and	x21,x14,x7
 370:	00491513          	slli	x10,x18,0x4
 374:	ff088e13          	addi	x28,x17,-16 # 3fff0 <.L101+0x3fa80>
 378:	01536833          	or	x16,x6,x21
 37c:	01c57eb3          	and	x29,x10,x28
 380:	01d86f33          	or	x30,x16,x29
 384:	c0000a37          	lui	x20,0xc0000
 388:	014f6fb3          	or	x31,x30,x20
 38c:	410019b7          	lui	x19,0x41001
 390:	d1f9a623          	sw	x31,-756(x19) # 41000d0c <.L101+0x4100079c>
 394:	00042283          	lw	x5,0(x8)
 398:	0004a903          	lw	x18,0(x9)
 39c:	00000637          	lui	x12,0x0
 3a0:	00428593          	addi	x11,x5,4
 3a4:	00060793          	mv	x15,x12
 3a8:	00b78733          	add	x14,x15,x11
 3ac:	01891693          	slli	x13,x18,0x18
 3b0:	00d76333          	or	x6,x14,x13
 3b4:	201c03b7          	lui	x7,0x201c0
 3b8:	00736ab3          	or	x21,x6,x7
 3bc:	00100513          	li	x10,1
 3c0:	00aa8023          	sb	x10,0(x21)
 3c4:	00042803          	lw	x16,0(x8)
 3c8:	00700893          	li	x17,7
 3cc:	05180863          	beq	x16,x17,41c <.L125>

000003d0 <.L94>:
 3d0:	00100493          	li	x9,1
 3d4:	0100006f          	j	3e4 <.L107>

000003d8 <.L126>:
 3d8:	00060e13          	mv	x28,x12
 3dc:	140e2eaf          	lr.w.aq	x29,(x28)
 3e0:	009e8863          	beq	x29,x9,3f0 <.L106>

000003e4 <.L107>:
 3e4:	00060f13          	mv	x30,x12
 3e8:	100f20af          	lr.w	x1,(x30)
 3ec:	fe9096e3          	bne	x1,x9,3d8 <.L126>

000003f0 <.L106>:
 3f0:	05c12083          	lw	x1,92(x2)
 3f4:	05812403          	lw	x8,88(x2)
 3f8:	0007a023          	sw	x0,0(x15)
 3fc:	05412483          	lw	x9,84(x2)
 400:	05012903          	lw	x18,80(x2)
 404:	04c12983          	lw	x19,76(x2)
 408:	04812a03          	lw	x20,72(x2)
 40c:	04412a83          	lw	x21,68(x2)
 410:	00000513          	li	x10,0
 414:	06010113          	addi	x2,x2,96
 418:	00008067          	ret

0000041c <.L125>:
 41c:	000000b7          	lui	x1,0x0
 420:	00000eb7          	lui	x29,0x0
 424:	00408e13          	addi	x28,x1,4 # 4 <_Z21hb_tiled_foreach_implIfZ14tensorlib_fillEUlvE_JEEvjjT0_8HBTensorIT_Lln1EEPS3_.isra.0+0x4>
 428:	014e8f13          	addi	x30,x29,20 # 14 <.L8>

0000042c <.L93>:
 42c:	000e0f93          	mv	x31,x28

00000430 <.L96>:
 430:	000fca03          	lbu	x20,0(x31)
 434:	001f8f93          	addi	x31,x31,1
 438:	0ffa7993          	andi	x19,x20,255
 43c:	fe0988e3          	beqz	x19,42c <.L93>
 440:	ffff18e3          	bne	x30,x31,430 <.L96>
 444:	0004a283          	lw	x5,0(x9)
 448:	231c0737          	lui	x14,0x231c0
 44c:	00100693          	li	x13,1
 450:	01828913          	addi	x18,x5,24
 454:	012785b3          	add	x11,x15,x18
 458:	00e5e333          	or	x6,x11,x14
 45c:	00d30023          	sb	x13,0(x6) # 80000000 <.L101+0x7ffffa90>
 460:	00042383          	lw	x7,0(x8)
 464:	00700a93          	li	x21,7
 468:	f75394e3          	bne	x7,x21,3d0 <.L94>
 46c:	0004a503          	lw	x10,0(x9)
 470:	00300813          	li	x16,3
 474:	09050863          	beq	x10,x16,504 <.L127>

00000478 <.L102>:
 478:	00100093          	li	x1,1
 47c:	0100006f          	j	48c <.L98>

00000480 <.L128>:
 480:	01478a13          	addi	x20,x15,20
 484:	140a2faf          	lr.w.aq	x31,(x20)
 488:	001f8863          	beq	x31,x1,498 <.L103>

0000048c <.L98>:
 48c:	01478e13          	addi	x28,x15,20
 490:	100e2eaf          	lr.w	x29,(x28)
 494:	fe1e96e3          	bne	x29,x1,480 <.L128>

00000498 <.L103>:
 498:	0007aa23          	sw	x0,20(x15)
 49c:	00000913          	li	x18,0
 4a0:	01000993          	li	x19,16

000004a4 <.L104>:
 4a4:	012782b3          	add	x5,x15,x18
 4a8:	00028223          	sb	x0,4(x5)
 4ac:	00190913          	addi	x18,x18,1
 4b0:	ff391ae3          	bne	x18,x19,4a4 <.L104>
 4b4:	0007a023          	sw	x0,0(x15)
 4b8:	00000813          	li	x16,0
 4bc:	20000337          	lui	x6,0x20000
 4c0:	00100a93          	li	x21,1
 4c4:	000403b7          	lui	x7,0x40
 4c8:	00400537          	lui	x10,0x400

000004cc <.L105>:
 4cc:	0004a703          	lw	x14,0(x9)
 4d0:	0107e5b3          	or	x11,x15,x16
 4d4:	00780833          	add	x16,x16,x7
 4d8:	01871893          	slli	x17,x14,0x18
 4dc:	00b8e6b3          	or	x13,x17,x11
 4e0:	0066e433          	or	x8,x13,x6
 4e4:	01542023          	sw	x21,0(x8)
 4e8:	fea812e3          	bne	x16,x10,4cc <.L105>
 4ec:	ee5ff06f          	j	3d0 <.L94>

000004f0 <.L111>:
 4f0:	00000593          	li	x11,0
 4f4:	00000513          	li	x10,0
 4f8:	e39ff06f          	j	330 <.L91>

000004fc <.L124>:
 4fc:	00028593          	mv	x11,x5
 500:	e2dff06f          	j	32c <.L92>

00000504 <.L127>:
 504:	000008b7          	lui	x17,0x0
 508:	00000e37          	lui	x28,0x0
 50c:	01888093          	addi	x1,x17,24 # 18 <.L8+0x4>
 510:	020e0e93          	addi	x29,x28,32 # 20 <.L8+0xc>

00000514 <.L97>:
 514:	00008f93          	mv	x31,x1

00000518 <.L99>:
 518:	000fca03          	lbu	x20,0(x31)
 51c:	001f8f93          	addi	x31,x31,1
 520:	0ffa7993          	andi	x19,x20,255
 524:	fe0988e3          	beqz	x19,514 <.L97>
 528:	fffe98e3          	bne	x29,x31,518 <.L99>
 52c:	00078c23          	sb	x0,24(x15)
 530:	00078ca3          	sb	x0,25(x15)
 534:	00078d23          	sb	x0,26(x15)
 538:	00078da3          	sb	x0,27(x15)
 53c:	00078e23          	sb	x0,28(x15)
 540:	00078ea3          	sb	x0,29(x15)
 544:	00078f23          	sb	x0,30(x15)
 548:	00078fa3          	sb	x0,31(x15)
 54c:	0007aa23          	sw	x0,20(x15)
 550:	00000693          	li	x13,0
 554:	03fc02b7          	lui	x5,0x3fc0
 558:	20000937          	lui	x18,0x20000
 55c:	00100313          	li	x6,1
 560:	01000ab7          	lui	x21,0x1000
 564:	08000537          	lui	x10,0x8000
 568:	0080006f          	j	570 <.L101>

0000056c <.L129>:
 56c:	00042383          	lw	x7,0(x8)

00000570 <.L101>:
 570:	01239713          	slli	x14,x7,0x12
 574:	00df65b3          	or	x11,x30,x13
 578:	005773b3          	and	x7,x14,x5
 57c:	00b3e833          	or	x16,x7,x11
 580:	012868b3          	or	x17,x16,x18
 584:	0068a023          	sw	x6,0(x17)
 588:	015686b3          	add	x13,x13,x21
 58c:	fea690e3          	bne	x13,x10,56c <.L129>
 590:	00042403          	lw	x8,0(x8)
 594:	00700f13          	li	x30,7
 598:	efe400e3          	beq	x8,x30,478 <.L102>
 59c:	e35ff06f          	j	3d0 <.L94>

Disassembly of section .text._ZN8HBTensorIfLln1EEC2EP11hb_tensor_t:

00000000 <_ZN8HBTensorIfLln1EEC1EP11hb_tensor_t>:
   0:	00058713          	mv	x14,x11
   4:	0045a683          	lw	x13,4(x11)
   8:	00072803          	lw	x16,0(x14) # 231c0000 <.L101+0x231bfa90>
   c:	0105a583          	lw	x11,16(x11)
  10:	00050793          	mv	x15,x10
  14:	02850613          	addi	x12,x10,40 # 8000028 <.L101+0x7fffab8>
  18:	01450513          	addi	x10,x10,20
  1c:	0107a023          	sw	x16,0(x15)
  20:	00d7a223          	sw	x13,4(x15)
  24:	00a7a423          	sw	x10,8(x15)
  28:	00c7a623          	sw	x12,12(x15)
  2c:	00b7a823          	sw	x11,16(x15)
  30:	00060613          	mv	x12,x12
  34:	00500293          	li	x5,5
  38:	04d2e463          	bltu	x5,x13,80 <.L89>
  3c:	00872303          	lw	x6,8(x14)
  40:	00c72383          	lw	x7,12(x14)
  44:	02068c63          	beqz	x13,7c <.L77>
  48:	00269893          	slli	x17,x13,0x2
  4c:	00078713          	mv	x14,x15
  50:	01178e33          	add	x28,x15,x17
  54:	40f30eb3          	sub	x29,x6,x15
  58:	40f38f33          	sub	x30,x7,x15

0000005c <.L81>:
  5c:	00ee8fb3          	add	x31,x29,x14
  60:	000fa683          	lw	x13,0(x31)
  64:	00ef05b3          	add	x11,x30,x14
  68:	00470713          	addi	x14,x14,4
  6c:	00d72823          	sw	x13,16(x14)
  70:	0005a803          	lw	x16,0(x11)
  74:	03072223          	sw	x16,36(x14)
  78:	ffc712e3          	bne	x14,x28,5c <.L81>

0000007c <.L77>:
  7c:	00008067          	ret

00000080 <.L89>:
  80:	ff010113          	addi	x2,x2,-16
  84:	000007b7          	lui	x15,0x0
  88:	00112623          	sw	x1,12(x2)
  8c:	000000b7          	lui	x1,0x0
  90:	0d800613          	li	x12,216
  94:	00008593          	mv	x11,x1
  98:	00078513          	mv	x10,x15
  9c:	00000097          	auipc	x1,0x0
  a0:	000080e7          	jalr	x1 # 9c <.L89+0x1c>
  a4:	00000637          	lui	x12,0x0
  a8:	00060513          	mv	x10,x12
  ac:	00000097          	auipc	x1,0x0
  b0:	000080e7          	jalr	x1 # ac <.L89+0x2c>
  b4:	00000537          	lui	x10,0x0
  b8:	00052283          	lw	x5,0(x10) # 0 <_ZN8HBTensorIfLln1EEC1EP11hb_tensor_t>
  bc:	00000337          	lui	x6,0x0
  c0:	00032383          	lw	x7,0(x6) # 0 <_ZN8HBTensorIfLln1EEC1EP11hb_tensor_t>
  c4:	01029893          	slli	x17,x5,0x10
  c8:	4100feb7          	lui	x29,0x4100f
  cc:	00788e33          	add	x28,x17,x7
  d0:	adceac23          	sw	x28,-1320(x29) # 4100ead8 <.L101+0x4100e568>

000000d4 <.L79>:
  d4:	0000006f          	j	d4 <.L79>
