
kernel_max.o:     file format elf32-littleriscv


Disassembly of section .group:

00000000 <_ZN8HBTensorIfLln1EEC5EP11hb_tensor_t>:
   0:	0001                	nop
   2:	0000                	unimp
   4:	00000007          	0x7
   8:	0008                	0x8
	...

Disassembly of section .text:

00000000 <_Z21hb_tiled_foreach_implIfZ13tensorlib_maxEUlffE_JEEvjjT0_8HBTensorIT_Lln1EES4_S4_PS3_S5_S5_.isra.0>:
   0:	fd010113          	addi	x2,x2,-48
   4:	02812623          	sw	x8,44(x2)
   8:	02912423          	sw	x9,40(x2)
   c:	03212223          	sw	x18,36(x2)
  10:	03312023          	sw	x19,32(x2)
  14:	01412e23          	sw	x20,28(x2)
  18:	01512c23          	sw	x21,24(x2)
  1c:	01612a23          	sw	x22,20(x2)
  20:	01712823          	sw	x23,16(x2)
  24:	01812623          	sw	x24,12(x2)
  28:	00100313          	li	x6,1
  2c:	03012383          	lw	x7,48(x2)
  30:	03412a03          	lw	x20,52(x2)
  34:	03812983          	lw	x19,56(x2)
  38:	03c12403          	lw	x8,60(x2)
  3c:	04012483          	lw	x9,64(x2)
  40:	04412903          	lw	x18,68(x2)
  44:	14660263          	beq	x12,x6,188 <.L84>
  48:	0eb57a63          	bgeu	x10,x11,13c <.L1>
  4c:	00279f93          	slli	x31,x15,0x2
  50:	00239293          	slli	x5,x7,0x2
  54:	00261f13          	slli	x30,x12,0x2
  58:	01f88fb3          	add	x31,x17,x31
  5c:	005982b3          	add	x5,x19,x5
  60:	01e70f33          	add	x30,x14,x30

00000064 <.L12>:
  64:	10078263          	beqz	x15,168 <.L13>
  68:	00080a93          	mv	x21,x16
  6c:	00088313          	mv	x6,x17
  70:	00050e93          	mv	x29,x10
  74:	00000b93          	li	x23,0

00000078 <.L7>:
  78:	00032b03          	lw	x22,0(x6)
  7c:	000aac03          	lw	x24,0(x21)
  80:	00430313          	addi	x6,x6,4
  84:	036efe33          	remu	x28,x29,x22
  88:	004a8a93          	addi	x21,x21,4
  8c:	038e0c33          	mul	x24,x28,x24
  90:	036edeb3          	divu	x29,x29,x22
  94:	018b8bb3          	add	x23,x23,x24
  98:	fe6f90e3          	bne	x31,x6,78 <.L7>
  9c:	002b9b13          	slli	x22,x23,0x2
  a0:	01648bb3          	add	x23,x9,x22
  a4:	000ba787          	flw	f15,0(x23)
  a8:	0c038663          	beqz	x7,174 <.L14>

000000ac <.L85>:
  ac:	000a0a93          	mv	x21,x20
  b0:	00098313          	mv	x6,x19
  b4:	00050e93          	mv	x29,x10
  b8:	00000b93          	li	x23,0

000000bc <.L9>:
  bc:	00032b03          	lw	x22,0(x6)
  c0:	000aac03          	lw	x24,0(x21)
  c4:	00430313          	addi	x6,x6,4
  c8:	004a8a93          	addi	x21,x21,4
  cc:	036efe33          	remu	x28,x29,x22
  d0:	038e0c33          	mul	x24,x28,x24
  d4:	036edeb3          	divu	x29,x29,x22
  d8:	018b8bb3          	add	x23,x23,x24
  dc:	fe6290e3          	bne	x5,x6,bc <.L9>
  e0:	002b9b13          	slli	x22,x23,0x2
  e4:	01690333          	add	x6,x18,x22
  e8:	00032707          	flw	f14,0(x6)
  ec:	08060a63          	beqz	x12,180 <.L15>

000000f0 <.L86>:
  f0:	00068a93          	mv	x21,x13
  f4:	00070313          	mv	x6,x14
  f8:	00050e93          	mv	x29,x10
  fc:	00000b93          	li	x23,0

00000100 <.L11>:
 100:	00032b03          	lw	x22,0(x6)
 104:	000aac03          	lw	x24,0(x21)
 108:	00430313          	addi	x6,x6,4
 10c:	004a8a93          	addi	x21,x21,4
 110:	036efe33          	remu	x28,x29,x22
 114:	038e0c33          	mul	x24,x28,x24
 118:	036edeb3          	divu	x29,x29,x22
 11c:	018b8bb3          	add	x23,x23,x24
 120:	fe6f10e3          	bne	x30,x6,100 <.L11>
 124:	002b9b13          	slli	x22,x23,0x2
 128:	01640333          	add	x6,x8,x22

0000012c <.L10>:
 12c:	28e79053          	fmax.s	f0,f15,f14
 130:	00150513          	addi	x10,x10,1
 134:	00032027          	fsw	f0,0(x6)
 138:	f2a596e3          	bne	x11,x10,64 <.L12>

0000013c <.L1>:
 13c:	02c12403          	lw	x8,44(x2)
 140:	02812483          	lw	x9,40(x2)
 144:	02412903          	lw	x18,36(x2)
 148:	02012983          	lw	x19,32(x2)
 14c:	01c12a03          	lw	x20,28(x2)
 150:	01812a83          	lw	x21,24(x2)
 154:	01412b03          	lw	x22,20(x2)
 158:	01012b83          	lw	x23,16(x2)
 15c:	00c12c03          	lw	x24,12(x2)
 160:	03010113          	addi	x2,x2,48
 164:	00008067          	ret

00000168 <.L13>:
 168:	00048b93          	mv	x23,x9
 16c:	000ba787          	flw	f15,0(x23)
 170:	f2039ee3          	bnez	x7,ac <.L85>

00000174 <.L14>:
 174:	00090313          	mv	x6,x18
 178:	00032707          	flw	f14,0(x6)
 17c:	f6061ae3          	bnez	x12,f0 <.L86>

00000180 <.L15>:
 180:	00040313          	mv	x6,x8
 184:	fa9ff06f          	j	12c <.L10>

00000188 <.L84>:
 188:	fab57ae3          	bgeu	x10,x11,13c <.L1>
 18c:	00082883          	lw	x17,0(x16)
 190:	0006a683          	lw	x13,0(x13)
 194:	000a2803          	lw	x16,0(x20)
 198:	00289393          	slli	x7,x17,0x2
 19c:	00269993          	slli	x19,x13,0x2
 1a0:	00281a13          	slli	x20,x16,0x2
 1a4:	02a387b3          	mul	x15,x7,x10
 1a8:	40a58733          	sub	x14,x11,x10
 1ac:	00f77f93          	andi	x31,x14,15
 1b0:	034502b3          	mul	x5,x10,x20
 1b4:	00f484b3          	add	x9,x9,x15
 1b8:	03350f33          	mul	x30,x10,x19
 1bc:	00590933          	add	x18,x18,x5
 1c0:	01e407b3          	add	x15,x8,x30
 1c4:	240f8a63          	beqz	x31,418 <.L4>
 1c8:	22cf8663          	beq	x31,x12,3f4 <.L66>
 1cc:	00200613          	li	x12,2
 1d0:	20cf8263          	beq	x31,x12,3d4 <.L67>
 1d4:	00300413          	li	x8,3
 1d8:	1c8f8e63          	beq	x31,x8,3b4 <.L68>
 1dc:	00400313          	li	x6,4
 1e0:	1a6f8a63          	beq	x31,x6,394 <.L69>
 1e4:	00500e13          	li	x28,5
 1e8:	19cf8663          	beq	x31,x28,374 <.L70>
 1ec:	00600a93          	li	x21,6
 1f0:	175f8263          	beq	x31,x21,354 <.L71>
 1f4:	00700c13          	li	x24,7
 1f8:	138f8e63          	beq	x31,x24,334 <.L72>
 1fc:	00800e93          	li	x29,8
 200:	11df8a63          	beq	x31,x29,314 <.L73>
 204:	00900b93          	li	x23,9
 208:	0f7f8663          	beq	x31,x23,2f4 <.L74>
 20c:	00a00b13          	li	x22,10
 210:	0d6f8263          	beq	x31,x22,2d4 <.L75>
 214:	00b00893          	li	x17,11
 218:	091f8e63          	beq	x31,x17,2b4 <.L76>
 21c:	00c00813          	li	x16,12
 220:	070f8a63          	beq	x31,x16,294 <.L77>
 224:	00d00693          	li	x13,13
 228:	04df8663          	beq	x31,x13,274 <.L78>
 22c:	00e00713          	li	x14,14
 230:	02ef8263          	beq	x31,x14,254 <.L79>
 234:	0004a087          	flw	f1,0(x9)
 238:	00092107          	flw	f2,0(x18)
 23c:	00150513          	addi	x10,x10,1
 240:	007484b3          	add	x9,x9,x7
 244:	282091d3          	fmax.s	f3,f1,f2
 248:	01490933          	add	x18,x18,x20
 24c:	0037a027          	fsw	f3,0(x15)
 250:	013787b3          	add	x15,x15,x19

00000254 <.L79>:
 254:	0004a207          	flw	f4,0(x9)
 258:	00092287          	flw	f5,0(x18)
 25c:	00150513          	addi	x10,x10,1
 260:	007484b3          	add	x9,x9,x7
 264:	28521353          	fmax.s	f6,f4,f5
 268:	01490933          	add	x18,x18,x20
 26c:	0067a027          	fsw	f6,0(x15)
 270:	013787b3          	add	x15,x15,x19

00000274 <.L78>:
 274:	0004a387          	flw	f7,0(x9)
 278:	00092507          	flw	f10,0(x18)
 27c:	00150513          	addi	x10,x10,1
 280:	007484b3          	add	x9,x9,x7
 284:	28a395d3          	fmax.s	f11,f7,f10
 288:	01490933          	add	x18,x18,x20
 28c:	00b7a027          	fsw	f11,0(x15)
 290:	013787b3          	add	x15,x15,x19

00000294 <.L77>:
 294:	0004a607          	flw	f12,0(x9)
 298:	00092687          	flw	f13,0(x18)
 29c:	00150513          	addi	x10,x10,1
 2a0:	007484b3          	add	x9,x9,x7
 2a4:	28d61853          	fmax.s	f16,f12,f13
 2a8:	01490933          	add	x18,x18,x20
 2ac:	0107a027          	fsw	f16,0(x15)
 2b0:	013787b3          	add	x15,x15,x19

000002b4 <.L76>:
 2b4:	0004a887          	flw	f17,0(x9)
 2b8:	00092e07          	flw	f28,0(x18)
 2bc:	00150513          	addi	x10,x10,1
 2c0:	007484b3          	add	x9,x9,x7
 2c4:	29c89ed3          	fmax.s	f29,f17,f28
 2c8:	01490933          	add	x18,x18,x20
 2cc:	01d7a027          	fsw	f29,0(x15)
 2d0:	013787b3          	add	x15,x15,x19

000002d4 <.L75>:
 2d4:	0004af07          	flw	f30,0(x9)
 2d8:	00092f87          	flw	f31,0(x18)
 2dc:	00150513          	addi	x10,x10,1
 2e0:	007484b3          	add	x9,x9,x7
 2e4:	29ff17d3          	fmax.s	f15,f30,f31
 2e8:	01490933          	add	x18,x18,x20
 2ec:	00f7a027          	fsw	f15,0(x15)
 2f0:	013787b3          	add	x15,x15,x19

000002f4 <.L74>:
 2f4:	0004a007          	flw	f0,0(x9)
 2f8:	00092707          	flw	f14,0(x18)
 2fc:	00150513          	addi	x10,x10,1
 300:	007484b3          	add	x9,x9,x7
 304:	28e010d3          	fmax.s	f1,f0,f14
 308:	01490933          	add	x18,x18,x20
 30c:	0017a027          	fsw	f1,0(x15)
 310:	013787b3          	add	x15,x15,x19

00000314 <.L73>:
 314:	0004a107          	flw	f2,0(x9)
 318:	00092187          	flw	f3,0(x18)
 31c:	00150513          	addi	x10,x10,1
 320:	007484b3          	add	x9,x9,x7
 324:	28311253          	fmax.s	f4,f2,f3
 328:	01490933          	add	x18,x18,x20
 32c:	0047a027          	fsw	f4,0(x15)
 330:	013787b3          	add	x15,x15,x19

00000334 <.L72>:
 334:	0004a287          	flw	f5,0(x9)
 338:	00092307          	flw	f6,0(x18)
 33c:	00150513          	addi	x10,x10,1
 340:	007484b3          	add	x9,x9,x7
 344:	286293d3          	fmax.s	f7,f5,f6
 348:	01490933          	add	x18,x18,x20
 34c:	0077a027          	fsw	f7,0(x15)
 350:	013787b3          	add	x15,x15,x19

00000354 <.L71>:
 354:	0004a507          	flw	f10,0(x9)
 358:	00092587          	flw	f11,0(x18)
 35c:	00150513          	addi	x10,x10,1
 360:	007484b3          	add	x9,x9,x7
 364:	28b51653          	fmax.s	f12,f10,f11
 368:	01490933          	add	x18,x18,x20
 36c:	00c7a027          	fsw	f12,0(x15)
 370:	013787b3          	add	x15,x15,x19

00000374 <.L70>:
 374:	0004a687          	flw	f13,0(x9)
 378:	00092807          	flw	f16,0(x18)
 37c:	00150513          	addi	x10,x10,1
 380:	007484b3          	add	x9,x9,x7
 384:	290698d3          	fmax.s	f17,f13,f16
 388:	01490933          	add	x18,x18,x20
 38c:	0117a027          	fsw	f17,0(x15)
 390:	013787b3          	add	x15,x15,x19

00000394 <.L69>:
 394:	0004ae07          	flw	f28,0(x9)
 398:	00092e87          	flw	f29,0(x18)
 39c:	00150513          	addi	x10,x10,1
 3a0:	007484b3          	add	x9,x9,x7
 3a4:	29de1f53          	fmax.s	f30,f28,f29
 3a8:	01490933          	add	x18,x18,x20
 3ac:	01e7a027          	fsw	f30,0(x15)
 3b0:	013787b3          	add	x15,x15,x19

000003b4 <.L68>:
 3b4:	0004af87          	flw	f31,0(x9)
 3b8:	00092787          	flw	f15,0(x18)
 3bc:	00150513          	addi	x10,x10,1
 3c0:	007484b3          	add	x9,x9,x7
 3c4:	28ff9053          	fmax.s	f0,f31,f15
 3c8:	01490933          	add	x18,x18,x20
 3cc:	0007a027          	fsw	f0,0(x15)
 3d0:	013787b3          	add	x15,x15,x19

000003d4 <.L67>:
 3d4:	0004a087          	flw	f1,0(x9)
 3d8:	00092707          	flw	f14,0(x18)
 3dc:	00150513          	addi	x10,x10,1
 3e0:	007484b3          	add	x9,x9,x7
 3e4:	28e09153          	fmax.s	f2,f1,f14
 3e8:	01490933          	add	x18,x18,x20
 3ec:	0027a027          	fsw	f2,0(x15)
 3f0:	013787b3          	add	x15,x15,x19

000003f4 <.L66>:
 3f4:	0004a187          	flw	f3,0(x9)
 3f8:	00092207          	flw	f4,0(x18)
 3fc:	00150513          	addi	x10,x10,1
 400:	007484b3          	add	x9,x9,x7
 404:	284192d3          	fmax.s	f5,f3,f4
 408:	01490933          	add	x18,x18,x20
 40c:	0057a027          	fsw	f5,0(x15)
 410:	013787b3          	add	x15,x15,x19
 414:	d2a584e3          	beq	x11,x10,13c <.L1>

00000418 <.L4>:
 418:	0004a307          	flw	f6,0(x9)
 41c:	00092387          	flw	f7,0(x18)
 420:	00748fb3          	add	x31,x9,x7
 424:	014902b3          	add	x5,x18,x20
 428:	000fa607          	flw	f12,0(x31)
 42c:	0002a507          	flw	f10,0(x5)
 430:	007f8f33          	add	x30,x31,x7
 434:	01428433          	add	x8,x5,x20
 438:	000f2687          	flw	f13,0(x30)
 43c:	00042807          	flw	f16,0(x8)
 440:	007f0633          	add	x12,x30,x7
 444:	01440333          	add	x6,x8,x20
 448:	00062887          	flw	f17,0(x12)
 44c:	00032e07          	flw	f28,0(x6)
 450:	287315d3          	fmax.s	f11,f6,f7
 454:	00760e33          	add	x28,x12,x7
 458:	01430ab3          	add	x21,x6,x20
 45c:	000aaf07          	flw	f30,0(x21)
 460:	000e2e87          	flw	f29,0(x28)
 464:	28a61fd3          	fmax.s	f31,f12,f10
 468:	007e0c33          	add	x24,x28,x7
 46c:	014a8eb3          	add	x29,x21,x20
 470:	000c2207          	flw	f4,0(x24)
 474:	000ea087          	flw	f1,0(x29)
 478:	29069153          	fmax.s	f2,f13,f16
 47c:	007c0bb3          	add	x23,x24,x7
 480:	014e8b33          	add	x22,x29,x20
 484:	00b7a027          	fsw	f11,0(x15)
 488:	000ba287          	flw	f5,0(x23)
 48c:	000b2007          	flw	f0,0(x22)
 490:	29c89753          	fmax.s	f14,f17,f28
 494:	013788b3          	add	x17,x15,x19
 498:	007b8833          	add	x16,x23,x7
 49c:	014b06b3          	add	x13,x22,x20
 4a0:	01f8a027          	fsw	f31,0(x17)
 4a4:	00082307          	flw	f6,0(x16)
 4a8:	0006a187          	flw	f3,0(x13)
 4ac:	29ee97d3          	fmax.s	f15,f29,f30
 4b0:	013884b3          	add	x9,x17,x19
 4b4:	00780933          	add	x18,x16,x7
 4b8:	01468733          	add	x14,x13,x20
 4bc:	0024a027          	fsw	f2,0(x9)
 4c0:	00092387          	flw	f7,0(x18)
 4c4:	00072687          	flw	f13,0(x14)
 4c8:	28121553          	fmax.s	f10,f4,f1
 4cc:	013487b3          	add	x15,x9,x19
 4d0:	00790fb3          	add	x31,x18,x7
 4d4:	014702b3          	add	x5,x14,x20
 4d8:	00e7a027          	fsw	f14,0(x15)
 4dc:	000fa807          	flw	f16,0(x31)
 4e0:	0002a887          	flw	f17,0(x5)
 4e4:	28029e53          	fmax.s	f28,f5,f0
 4e8:	01378f33          	add	x30,x15,x19
 4ec:	007f8433          	add	x8,x31,x7
 4f0:	01428e33          	add	x28,x5,x20
 4f4:	00ff2027          	fsw	f15,0(x30)
 4f8:	00042587          	flw	f11,0(x8)
 4fc:	013f0633          	add	x12,x30,x19
 500:	000e2e87          	flw	f29,0(x28)
 504:	28331653          	fmax.s	f12,f6,f3
 508:	00a62027          	fsw	f10,0(x12)
 50c:	01360333          	add	x6,x12,x19
 510:	28d39f53          	fmax.s	f30,f7,f13
 514:	01c32027          	fsw	f28,0(x6)
 518:	29181fd3          	fmax.s	f31,f16,f17
 51c:	01330ab3          	add	x21,x6,x19
 520:	00caa027          	fsw	f12,0(x21)
 524:	29d59253          	fmax.s	f4,f11,f29
 528:	013a8c33          	add	x24,x21,x19
 52c:	01ec2027          	fsw	f30,0(x24)
 530:	013c0eb3          	add	x29,x24,x19
 534:	00740b33          	add	x22,x8,x7
 538:	014e08b3          	add	x17,x28,x20
 53c:	013e8bb3          	add	x23,x29,x19
 540:	01fea027          	fsw	f31,0(x29)
 544:	004ba027          	fsw	f4,0(x23)
 548:	007b0833          	add	x16,x22,x7
 54c:	014886b3          	add	x13,x17,x20
 550:	000b2107          	flw	f2,0(x22)
 554:	0008a287          	flw	f5,0(x17)
 558:	007804b3          	add	x9,x16,x7
 55c:	01468933          	add	x18,x13,x20
 560:	00082307          	flw	f6,0(x16)
 564:	0006a187          	flw	f3,0(x13)
 568:	014907b3          	add	x15,x18,x20
 56c:	00748733          	add	x14,x9,x7
 570:	0004a387          	flw	f7,0(x9)
 574:	00092087          	flw	f1,0(x18)
 578:	014782b3          	add	x5,x15,x20
 57c:	0007a007          	flw	f0,0(x15)
 580:	00770fb3          	add	x31,x14,x7
 584:	28511853          	fmax.s	f16,f2,f5
 588:	00072707          	flw	f14,0(x14)
 58c:	283318d3          	fmax.s	f17,f6,f3
 590:	000fa787          	flw	f15,0(x31)
 594:	0002a507          	flw	f10,0(x5)
 598:	013b8f33          	add	x30,x23,x19
 59c:	281396d3          	fmax.s	f13,f7,f1
 5a0:	010f2027          	fsw	f16,0(x30)
 5a4:	013f0433          	add	x8,x30,x19
 5a8:	28071e53          	fmax.s	f28,f14,f0
 5ac:	01142027          	fsw	f17,0(x8)
 5b0:	01340e33          	add	x28,x8,x19
 5b4:	28a795d3          	fmax.s	f11,f15,f10
 5b8:	00de2027          	fsw	f13,0(x28)
 5bc:	013e0633          	add	x12,x28,x19
 5c0:	01360333          	add	x6,x12,x19
 5c4:	01c62027          	fsw	f28,0(x12)
 5c8:	00b32027          	fsw	f11,0(x6)
 5cc:	01050513          	addi	x10,x10,16
 5d0:	007f84b3          	add	x9,x31,x7
 5d4:	01428933          	add	x18,x5,x20
 5d8:	013307b3          	add	x15,x6,x19
 5dc:	e2a59ee3          	bne	x11,x10,418 <.L4>
 5e0:	b5dff06f          	j	13c <.L1>

000005e4 <tensorlib_max>:
 5e4:	f0010113          	addi	x2,x2,-256
 5e8:	00050793          	mv	x15,x10
 5ec:	0e912a23          	sw	x9,244(x2)
 5f0:	02c10513          	addi	x10,x2,44
 5f4:	00058493          	mv	x9,x11
 5f8:	00078593          	mv	x11,x15
 5fc:	0e112e23          	sw	x1,252(x2)
 600:	0e812c23          	sw	x8,248(x2)
 604:	0f212823          	sw	x18,240(x2)
 608:	00060413          	mv	x8,x12
 60c:	0f312623          	sw	x19,236(x2)
 610:	0f412423          	sw	x20,232(x2)
 614:	00000097          	auipc	x1,0x0
 618:	000080e7          	jalr	x1 # 614 <tensorlib_max+0x30>
 61c:	00048593          	mv	x11,x9
 620:	06810513          	addi	x10,x2,104
 624:	00000097          	auipc	x1,0x0
 628:	000080e7          	jalr	x1 # 624 <tensorlib_max+0x40>
 62c:	00040593          	mv	x11,x8
 630:	0a410513          	addi	x10,x2,164
 634:	00000097          	auipc	x1,0x0
 638:	000080e7          	jalr	x1 # 634 <tensorlib_max+0x50>
 63c:	00000a37          	lui	x20,0x0
 640:	000004b7          	lui	x9,0x0
 644:	000009b7          	lui	x19,0x0
 648:	00000437          	lui	x8,0x0
 64c:	000a2283          	lw	x5,0(x20) # 0 <_Z21hb_tiled_foreach_implIfZ13tensorlib_maxEUlffE_JEEvjjT0_8HBTensorIT_Lln1EES4_S4_PS3_S5_S5_.isra.0>
 650:	0004a583          	lw	x11,0(x9) # 0 <_Z21hb_tiled_foreach_implIfZ13tensorlib_maxEUlffE_JEEvjjT0_8HBTensorIT_Lln1EES4_S4_PS3_S5_S5_.isra.0>
 654:	0009a703          	lw	x14,0(x19) # 0 <_Z21hb_tiled_foreach_implIfZ13tensorlib_maxEUlffE_JEEvjjT0_8HBTensorIT_Lln1EES4_S4_PS3_S5_S5_.isra.0>
 658:	00042603          	lw	x12,0(x8) # 0 <_Z21hb_tiled_foreach_implIfZ13tensorlib_maxEUlffE_JEEvjjT0_8HBTensorIT_Lln1EES4_S4_PS3_S5_S5_.isra.0>
 65c:	00000937          	lui	x18,0x0
 660:	00092683          	lw	x13,0(x18) # 0 <_Z21hb_tiled_foreach_implIfZ13tensorlib_maxEUlffE_JEEvjjT0_8HBTensorIT_Lln1EES4_S4_PS3_S5_S5_.isra.0>
 664:	00b28333          	add	x6,x5,x11
 668:	00c703b3          	add	x7,x14,x12
 66c:	01831513          	slli	x10,x6,0x18
 670:	01239813          	slli	x16,x7,0x12
 674:	3f0008b7          	lui	x17,0x3f000
 678:	00fc0eb7          	lui	x29,0xfc0
 67c:	000402b7          	lui	x5,0x40
 680:	01157e33          	and	x28,x10,x17
 684:	01d87f33          	and	x30,x16,x29
 688:	00469f93          	slli	x31,x13,0x4
 68c:	ff028593          	addi	x11,x5,-16 # 3fff0 <.L111+0x3f68c>
 690:	01ee67b3          	or	x15,x28,x30
 694:	00bff733          	and	x14,x31,x11
 698:	02c12303          	lw	x6,44(x2)
 69c:	00e7e633          	or	x12,x15,x14
 6a0:	800006b7          	lui	x13,0x80000
 6a4:	00d663b3          	or	x7,x12,x13
 6a8:	41001537          	lui	x10,0x41001
 6ac:	d0752623          	sw	x7,-756(x10) # 41000d0c <.L111+0x410003a8>
 6b0:	ffd00593          	li	x11,-3
 6b4:	fff30513          	addi	x10,x6,-1
 6b8:	03012603          	lw	x12,48(x2)
 6bc:	03412683          	lw	x13,52(x2)
 6c0:	03812703          	lw	x14,56(x2)
 6c4:	03c12f83          	lw	x31,60(x2)
 6c8:	06c12783          	lw	x15,108(x2)
 6cc:	07012803          	lw	x16,112(x2)
 6d0:	07412883          	lw	x17,116(x2)
 6d4:	07812283          	lw	x5,120(x2)
 6d8:	0a812e03          	lw	x28,168(x2)
 6dc:	0ac12e83          	lw	x29,172(x2)
 6e0:	0b012f03          	lw	x30,176(x2)
 6e4:	0b412383          	lw	x7,180(x2)
 6e8:	1ea5ee63          	bltu	x11,x10,8e4 <.L121>
 6ec:	000000b7          	lui	x1,0x0
 6f0:	0000a503          	lw	x10,0(x1) # 0 <_Z21hb_tiled_foreach_implIfZ13tensorlib_maxEUlffE_JEEvjjT0_8HBTensorIT_Lln1EES4_S4_PS3_S5_S5_.isra.0>
 6f4:	00735593          	srli	x11,x6,0x7
 6f8:	00158093          	addi	x1,x11,1
 6fc:	07f57513          	andi	x10,x10,127
 700:	02150533          	mul	x10,x10,x1
 704:	00a085b3          	add	x11,x1,x10
 708:	1eb36463          	bltu	x6,x11,8f0 <.L134>

0000070c <.L102>:
 70c:	1cb57c63          	bgeu	x10,x11,8e4 <.L121>

00000710 <.L101>:
 710:	00712a23          	sw	x7,20(x2)
 714:	00512823          	sw	x5,16(x2)
 718:	01f12623          	sw	x31,12(x2)
 71c:	01e12423          	sw	x30,8(x2)
 720:	01d12223          	sw	x29,4(x2)
 724:	01c12023          	sw	x28,0(x2)
 728:	00000097          	auipc	x1,0x0
 72c:	000080e7          	jalr	x1 # 728 <.L101+0x18>
 730:	0004a803          	lw	x16,0(x9)
 734:	000a2a03          	lw	x20,0(x20)
 738:	0009a983          	lw	x19,0(x19)
 73c:	00042883          	lw	x17,0(x8)
 740:	00092903          	lw	x18,0(x18)
 744:	010a0333          	add	x6,x20,x16
 748:	01198733          	add	x14,x19,x17
 74c:	01831793          	slli	x15,x6,0x18
 750:	01271693          	slli	x13,x14,0x12
 754:	3f000637          	lui	x12,0x3f000
 758:	00fc02b7          	lui	x5,0xfc0
 75c:	000403b7          	lui	x7,0x40
 760:	00c7ffb3          	and	x31,x15,x12
 764:	0056fe33          	and	x28,x13,x5
 768:	00491e93          	slli	x29,x18,0x4
 76c:	ff038593          	addi	x11,x7,-16 # 3fff0 <.L111+0x3f68c>
 770:	01cfef33          	or	x30,x31,x28
 774:	00bef533          	and	x10,x29,x11
 778:	00af6a33          	or	x20,x30,x10
 77c:	c0000837          	lui	x16,0xc0000
 780:	010a69b3          	or	x19,x20,x16
 784:	410018b7          	lui	x17,0x41001
 788:	d138a623          	sw	x19,-756(x17) # 41000d0c <.L111+0x410003a8>
 78c:	00042903          	lw	x18,0(x8)
 790:	0004a303          	lw	x6,0(x9)
 794:	00000637          	lui	x12,0x0
 798:	00490713          	addi	x14,x18,4
 79c:	00060793          	mv	x15,x12
 7a0:	00e78fb3          	add	x31,x15,x14
 7a4:	01831693          	slli	x13,x6,0x18
 7a8:	00dfe2b3          	or	x5,x31,x13
 7ac:	201c0e37          	lui	x28,0x201c0
 7b0:	01c2eeb3          	or	x29,x5,x28
 7b4:	00100f13          	li	x30,1
 7b8:	01ee8023          	sb	x30,0(x29) # fc0000 <.L111+0xfbf69c>
 7bc:	00042383          	lw	x7,0(x8)
 7c0:	00700593          	li	x11,7
 7c4:	04b38663          	beq	x7,x11,810 <.L135>

000007c8 <.L104>:
 7c8:	00100493          	li	x9,1
 7cc:	0100006f          	j	7dc <.L117>

000007d0 <.L136>:
 7d0:	00060893          	mv	x17,x12
 7d4:	1408a92f          	lr.w.aq	x18,(x17)
 7d8:	00990863          	beq	x18,x9,7e8 <.L116>

000007dc <.L117>:
 7dc:	00060513          	mv	x10,x12
 7e0:	1005282f          	lr.w	x16,(x10)
 7e4:	fe9816e3          	bne	x16,x9,7d0 <.L136>

000007e8 <.L116>:
 7e8:	0fc12083          	lw	x1,252(x2)
 7ec:	0f812403          	lw	x8,248(x2)
 7f0:	0007a023          	sw	x0,0(x15)
 7f4:	0f412483          	lw	x9,244(x2)
 7f8:	0f012903          	lw	x18,240(x2)
 7fc:	0ec12983          	lw	x19,236(x2)
 800:	0e812a03          	lw	x20,232(x2)
 804:	00000513          	li	x10,0
 808:	10010113          	addi	x2,x2,256
 80c:	00008067          	ret

00000810 <.L135>:
 810:	000000b7          	lui	x1,0x0
 814:	00000537          	lui	x10,0x0
 818:	00408a13          	addi	x20,x1,4 # 4 <_Z21hb_tiled_foreach_implIfZ13tensorlib_maxEUlffE_JEEvjjT0_8HBTensorIT_Lln1EES4_S4_PS3_S5_S5_.isra.0+0x4>
 81c:	01450993          	addi	x19,x10,20 # 14 <_Z21hb_tiled_foreach_implIfZ13tensorlib_maxEUlffE_JEEvjjT0_8HBTensorIT_Lln1EES4_S4_PS3_S5_S5_.isra.0+0x14>

00000820 <.L103>:
 820:	000a0893          	mv	x17,x20

00000824 <.L106>:
 824:	0008c803          	lbu	x16,0(x17)
 828:	00188893          	addi	x17,x17,1
 82c:	0ff87913          	andi	x18,x16,255
 830:	fe0908e3          	beqz	x18,820 <.L103>
 834:	ff1998e3          	bne	x19,x17,824 <.L106>
 838:	0004a303          	lw	x6,0(x9)
 83c:	231c06b7          	lui	x13,0x231c0
 840:	00100e13          	li	x28,1
 844:	01830713          	addi	x14,x6,24
 848:	00e78fb3          	add	x31,x15,x14
 84c:	00dfe2b3          	or	x5,x31,x13
 850:	01c28023          	sb	x28,0(x5) # fc0000 <.L111+0xfbf69c>
 854:	00042f03          	lw	x30,0(x8)
 858:	00700e93          	li	x29,7
 85c:	f7df16e3          	bne	x30,x29,7c8 <.L104>
 860:	0004a383          	lw	x7,0(x9)
 864:	00300593          	li	x11,3
 868:	08b38863          	beq	x7,x11,8f8 <.L137>

0000086c <.L112>:
 86c:	00100513          	li	x10,1
 870:	0100006f          	j	880 <.L108>

00000874 <.L138>:
 874:	01478913          	addi	x18,x15,20
 878:	1409232f          	lr.w.aq	x6,(x18)
 87c:	00a30863          	beq	x6,x10,88c <.L113>

00000880 <.L108>:
 880:	01478813          	addi	x16,x15,20
 884:	100828af          	lr.w	x17,(x16)
 888:	fea896e3          	bne	x17,x10,874 <.L138>

0000088c <.L113>:
 88c:	0007aa23          	sw	x0,20(x15)
 890:	00000e13          	li	x28,0
 894:	01000f93          	li	x31,16

00000898 <.L114>:
 898:	01c782b3          	add	x5,x15,x28
 89c:	00028223          	sb	x0,4(x5)
 8a0:	001e0e13          	addi	x28,x28,1 # 201c0001 <.L111+0x201bf69d>
 8a4:	fffe1ae3          	bne	x28,x31,898 <.L114>
 8a8:	0007a023          	sw	x0,0(x15)
 8ac:	00000a13          	li	x20,0
 8b0:	20000eb7          	lui	x29,0x20000
 8b4:	00100393          	li	x7,1
 8b8:	00040f37          	lui	x30,0x40
 8bc:	004000b7          	lui	x1,0x400

000008c0 <.L115>:
 8c0:	0004a703          	lw	x14,0(x9)
 8c4:	0147e5b3          	or	x11,x15,x20
 8c8:	01ea0a33          	add	x20,x20,x30
 8cc:	01871693          	slli	x13,x14,0x18
 8d0:	00b6e433          	or	x8,x13,x11
 8d4:	01d469b3          	or	x19,x8,x29
 8d8:	0079a023          	sw	x7,0(x19)
 8dc:	fe1a12e3          	bne	x20,x1,8c0 <.L115>
 8e0:	ee9ff06f          	j	7c8 <.L104>

000008e4 <.L121>:
 8e4:	00000593          	li	x11,0
 8e8:	00000513          	li	x10,0
 8ec:	e25ff06f          	j	710 <.L101>

000008f0 <.L134>:
 8f0:	00030593          	mv	x11,x6
 8f4:	e19ff06f          	j	70c <.L102>

000008f8 <.L137>:
 8f8:	000000b7          	lui	x1,0x0
 8fc:	00000537          	lui	x10,0x0
 900:	01808a13          	addi	x20,x1,24 # 18 <_Z21hb_tiled_foreach_implIfZ13tensorlib_maxEUlffE_JEEvjjT0_8HBTensorIT_Lln1EES4_S4_PS3_S5_S5_.isra.0+0x18>
 904:	02050813          	addi	x16,x10,32 # 20 <_Z21hb_tiled_foreach_implIfZ13tensorlib_maxEUlffE_JEEvjjT0_8HBTensorIT_Lln1EES4_S4_PS3_S5_S5_.isra.0+0x20>

00000908 <.L107>:
 908:	000a0913          	mv	x18,x20

0000090c <.L109>:
 90c:	00094883          	lbu	x17,0(x18)
 910:	00190913          	addi	x18,x18,1
 914:	0ff8f313          	andi	x6,x17,255
 918:	fe0308e3          	beqz	x6,908 <.L107>
 91c:	ff2818e3          	bne	x16,x18,90c <.L109>
 920:	00078c23          	sb	x0,24(x15)
 924:	00078ca3          	sb	x0,25(x15)
 928:	00078d23          	sb	x0,26(x15)
 92c:	00078da3          	sb	x0,27(x15)
 930:	00078e23          	sb	x0,28(x15)
 934:	00078ea3          	sb	x0,29(x15)
 938:	00078f23          	sb	x0,30(x15)
 93c:	00078fa3          	sb	x0,31(x15)
 940:	0007aa23          	sw	x0,20(x15)
 944:	00000693          	li	x13,0
 948:	03fc0fb7          	lui	x31,0x3fc0
 94c:	200002b7          	lui	x5,0x20000
 950:	00100e13          	li	x28,1
 954:	01000eb7          	lui	x29,0x1000
 958:	080003b7          	lui	x7,0x8000
 95c:	0080006f          	j	964 <.L111>

00000960 <.L139>:
 960:	00042f03          	lw	x30,0(x8)

00000964 <.L111>:
 964:	012f1713          	slli	x14,x30,0x12
 968:	01f775b3          	and	x11,x14,x31
 96c:	00d9ef33          	or	x30,x19,x13
 970:	01e5e0b3          	or	x1,x11,x30
 974:	0050ea33          	or	x20,x1,x5
 978:	01ca2023          	sw	x28,0(x20)
 97c:	01d686b3          	add	x13,x13,x29
 980:	fe7690e3          	bne	x13,x7,960 <.L139>
 984:	00042403          	lw	x8,0(x8)
 988:	00700993          	li	x19,7
 98c:	ef3400e3          	beq	x8,x19,86c <.L112>
 990:	e39ff06f          	j	7c8 <.L104>

Disassembly of section .text._ZN8HBTensorIfLln1EEC2EP11hb_tensor_t:

00000000 <_ZN8HBTensorIfLln1EEC1EP11hb_tensor_t>:
   0:	00058713          	mv	x14,x11
   4:	0045a683          	lw	x13,4(x11)
   8:	00072803          	lw	x16,0(x14)
   c:	0105a583          	lw	x11,16(x11)
  10:	00050793          	mv	x15,x10
  14:	02850613          	addi	x12,x10,40
  18:	01450513          	addi	x10,x10,20
  1c:	0107a023          	sw	x16,0(x15)
  20:	00d7a223          	sw	x13,4(x15)
  24:	00a7a423          	sw	x10,8(x15)
  28:	00c7a623          	sw	x12,12(x15)
  2c:	00b7a823          	sw	x11,16(x15)
  30:	00060613          	mv	x12,x12
  34:	00500293          	li	x5,5
  38:	04d2e463          	bltu	x5,x13,80 <.L99>
  3c:	00872303          	lw	x6,8(x14)
  40:	00c72383          	lw	x7,12(x14)
  44:	02068c63          	beqz	x13,7c <.L87>
  48:	00269893          	slli	x17,x13,0x2
  4c:	00078713          	mv	x14,x15
  50:	01178e33          	add	x28,x15,x17
  54:	40f30eb3          	sub	x29,x6,x15
  58:	40f38f33          	sub	x30,x7,x15

0000005c <.L91>:
  5c:	00ee8fb3          	add	x31,x29,x14
  60:	000fa683          	lw	x13,0(x31) # 3fc0000 <.L111+0x3fbf69c>
  64:	00ef05b3          	add	x11,x30,x14
  68:	00470713          	addi	x14,x14,4
  6c:	00d72823          	sw	x13,16(x14)
  70:	0005a803          	lw	x16,0(x11)
  74:	03072223          	sw	x16,36(x14)
  78:	ffc712e3          	bne	x14,x28,5c <.L91>

0000007c <.L87>:
  7c:	00008067          	ret

00000080 <.L99>:
  80:	ff010113          	addi	x2,x2,-16
  84:	000007b7          	lui	x15,0x0
  88:	00112623          	sw	x1,12(x2)
  8c:	000000b7          	lui	x1,0x0
  90:	0d800613          	li	x12,216
  94:	00008593          	mv	x11,x1
  98:	00078513          	mv	x10,x15
  9c:	00000097          	auipc	x1,0x0
  a0:	000080e7          	jalr	x1 # 9c <.L99+0x1c>
  a4:	00000637          	lui	x12,0x0
  a8:	00060513          	mv	x10,x12
  ac:	00000097          	auipc	x1,0x0
  b0:	000080e7          	jalr	x1 # ac <.L99+0x2c>
  b4:	00000537          	lui	x10,0x0
  b8:	00052283          	lw	x5,0(x10) # 0 <_ZN8HBTensorIfLln1EEC1EP11hb_tensor_t>
  bc:	00000337          	lui	x6,0x0
  c0:	00032383          	lw	x7,0(x6) # 0 <_ZN8HBTensorIfLln1EEC1EP11hb_tensor_t>
  c4:	01029893          	slli	x17,x5,0x10
  c8:	4100feb7          	lui	x29,0x4100f
  cc:	00788e33          	add	x28,x17,x7
  d0:	adceac23          	sw	x28,-1320(x29) # 4100ead8 <.L111+0x4100e174>

000000d4 <.L89>:
  d4:	0000006f          	j	d4 <.L89>
