
kernel_log.o:     file format elf32-littleriscv


Disassembly of section .group:

00000000 <_ZN8HBTensorIfLln1EEC5EP11hb_tensor_t>:
   0:	0001                	nop
   2:	0000                	unimp
   4:	00000007          	0x7
   8:	0008                	0x8
	...

Disassembly of section .text:

00000000 <tensorlib_log>:
   0:	ef010113          	addi	x2,x2,-272
   4:	00050793          	mv	x15,x10
   8:	10812423          	sw	x8,264(x2)
   c:	02810513          	addi	x10,x2,40
  10:	00058413          	mv	x8,x11
  14:	00078593          	mv	x11,x15
  18:	10112623          	sw	x1,268(x2)
  1c:	10912223          	sw	x9,260(x2)
  20:	11212023          	sw	x18,256(x2)
  24:	0f312e23          	sw	x19,252(x2)
  28:	0f412c23          	sw	x20,248(x2)
  2c:	0f512a23          	sw	x21,244(x2)
  30:	0f612823          	sw	x22,240(x2)
  34:	0f712623          	sw	x23,236(x2)
  38:	0f812423          	sw	x24,232(x2)
  3c:	0f912223          	sw	x25,228(x2)
  40:	0fa12023          	sw	x26,224(x2)
  44:	0db12e23          	sw	x27,220(x2)
  48:	0c812627          	fsw	f8,204(x2)
  4c:	0c912427          	fsw	f9,200(x2)
  50:	0d212227          	fsw	f18,196(x2)
  54:	0d312027          	fsw	f19,192(x2)
  58:	0b412e27          	fsw	f20,188(x2)
  5c:	0b512c27          	fsw	f21,184(x2)
  60:	0b612a27          	fsw	f22,180(x2)
  64:	0b712827          	fsw	f23,176(x2)
  68:	0b812627          	fsw	f24,172(x2)
  6c:	0b912427          	fsw	f25,168(x2)
  70:	0ba12227          	fsw	f26,164(x2)
  74:	0bb12027          	fsw	f27,160(x2)
  78:	00000097          	auipc	x1,0x0
  7c:	000080e7          	jalr	x1 # 78 <tensorlib_log+0x78>
  80:	00040593          	mv	x11,x8
  84:	06410513          	addi	x10,x2,100
  88:	00000097          	auipc	x1,0x0
  8c:	000080e7          	jalr	x1 # 88 <tensorlib_log+0x88>
  90:	00000c37          	lui	x24,0x0
  94:	00000ab7          	lui	x21,0x0
  98:	00000bb7          	lui	x23,0x0
  9c:	00000db7          	lui	x27,0x0
  a0:	000c2283          	lw	x5,0(x24) # 0 <tensorlib_log>
  a4:	000aa583          	lw	x11,0(x21) # 0 <tensorlib_log>
  a8:	000ba703          	lw	x14,0(x23) # 0 <tensorlib_log>
  ac:	000da603          	lw	x12,0(x27) # 0 <tensorlib_log>
  b0:	00000cb7          	lui	x25,0x0
  b4:	000ca683          	lw	x13,0(x25) # 0 <tensorlib_log>
  b8:	00b28333          	add	x6,x5,x11
  bc:	00c703b3          	add	x7,x14,x12
  c0:	01831493          	slli	x9,x6,0x18
  c4:	00fc0937          	lui	x18,0xfc0
  c8:	00040d37          	lui	x26,0x40
  cc:	01239513          	slli	x10,x7,0x12
  d0:	3f000837          	lui	x16,0x3f000
  d4:	012579b3          	and	x19,x10,x18
  d8:	0104f8b3          	and	x17,x9,x16
  dc:	00469a13          	slli	x20,x13,0x4
  e0:	ff0d0e13          	addi	x28,x26,-16 # 3fff0 <.L90+0x3f870>
  e4:	0138eb33          	or	x22,x17,x19
  e8:	01ca7eb3          	and	x29,x20,x28
  ec:	02812f83          	lw	x31,40(x2)
  f0:	01db6f33          	or	x30,x22,x29
  f4:	800007b7          	lui	x15,0x80000
  f8:	00ff6433          	or	x8,x30,x15
  fc:	410012b7          	lui	x5,0x41001
 100:	d082a623          	sw	x8,-756(x5) # 41000d0c <.L90+0x4100058c>
 104:	fff00593          	li	x11,-1
 108:	02c12983          	lw	x19,44(x2)
 10c:	03012903          	lw	x18,48(x2)
 110:	03812d03          	lw	x26,56(x2)
 114:	06c12483          	lw	x9,108(x2)
 118:	07412683          	lw	x13,116(x2)
 11c:	10bf8263          	beq	x31,x11,220 <.L21>
 120:	100f8063          	beqz	x31,220 <.L21>
 124:	000000b7          	lui	x1,0x0
 128:	0000a703          	lw	x14,0(x1) # 0 <tensorlib_log>
 12c:	004fd613          	srli	x12,x31,0x4
 130:	00160313          	addi	x6,x12,1
 134:	02e30433          	mul	x8,x6,x14
 138:	00830b33          	add	x22,x6,x8
 13c:	376fee63          	bltu	x31,x22,4b8 <.L86>

00000140 <.L17>:
 140:	0f647063          	bgeu	x8,x22,220 <.L21>
 144:	00100393          	li	x7,1
 148:	36798c63          	beq	x19,x7,4c0 <.L87>
 14c:	06812503          	lw	x10,104(x2)
 150:	03412883          	lw	x17,52(x2)
 154:	07012803          	lw	x16,112(x2)
 158:	00299e13          	slli	x28,x19,0x2
 15c:	00251a13          	slli	x20,x10,0x2
 160:	011e0eb3          	add	x29,x28,x17
 164:	00a12823          	sw	x10,16(x2)
 168:	01012a23          	sw	x16,20(x2)
 16c:	01112e23          	sw	x17,28(x2)
 170:	010a0a33          	add	x20,x20,x16
 174:	01d12c23          	sw	x29,24(x2)

00000178 <.L32>:
 178:	01012f03          	lw	x30,16(x2)
 17c:	320f0a63          	beqz	x30,4b0 <.L54>
 180:	01412083          	lw	x1,20(x2)
 184:	00048613          	mv	x12,x9
 188:	00040393          	mv	x7,x8
 18c:	00000793          	li	x15,0

00000190 <.L29>:
 190:	0000a283          	lw	x5,0(x1)
 194:	00062583          	lw	x11,0(x12)
 198:	00408093          	addi	x1,x1,4
 19c:	0253f733          	remu	x14,x7,x5
 1a0:	00460613          	addi	x12,x12,4
 1a4:	02b70333          	mul	x6,x14,x11
 1a8:	0253d3b3          	divu	x7,x7,x5
 1ac:	006787b3          	add	x15,x15,x6
 1b0:	fe1a10e3          	bne	x20,x1,190 <.L29>
 1b4:	00279513          	slli	x10,x15,0x2
 1b8:	00a68fb3          	add	x31,x13,x10

000001bc <.L28>:
 1bc:	000fa507          	flw	f10,0(x31)
 1c0:	00d12623          	sw	x13,12(x2)
 1c4:	00000097          	auipc	x1,0x0
 1c8:	000080e7          	jalr	x1 # 1c4 <.L28+0x8>
 1cc:	00c12683          	lw	x13,12(x2)
 1d0:	2c098c63          	beqz	x19,4a8 <.L55>
 1d4:	01c12f83          	lw	x31,28(x2)
 1d8:	00090293          	mv	x5,x18
 1dc:	00040893          	mv	x17,x8
 1e0:	00000093          	li	x1,0

000001e4 <.L31>:
 1e4:	000fae83          	lw	x29,0(x31)
 1e8:	0002af03          	lw	x30,0(x5)
 1ec:	01812703          	lw	x14,24(x2)
 1f0:	004f8f93          	addi	x31,x31,4
 1f4:	00428293          	addi	x5,x5,4
 1f8:	03d8fe33          	remu	x28,x17,x29
 1fc:	03ee05b3          	mul	x11,x28,x30
 200:	03d8d8b3          	divu	x17,x17,x29
 204:	00b080b3          	add	x1,x1,x11
 208:	fdf71ee3          	bne	x14,x31,1e4 <.L31>
 20c:	00209613          	slli	x12,x1,0x2
 210:	00cd0833          	add	x16,x26,x12

00000214 <.L30>:
 214:	00a82027          	fsw	f10,0(x16) # 3f000000 <.L90+0x3efff880>
 218:	00140413          	addi	x8,x8,1
 21c:	f48b1ee3          	bne	x22,x8,178 <.L32>

00000220 <.L21>:
 220:	000c2b03          	lw	x22,0(x24)
 224:	000bab83          	lw	x23,0(x23)
 228:	000aac03          	lw	x24,0(x21)
 22c:	000daa03          	lw	x20,0(x27)
 230:	000cac83          	lw	x25,0(x25)
 234:	018b0e33          	add	x28,x22,x24
 238:	014b8733          	add	x14,x23,x20
 23c:	018e1313          	slli	x6,x28,0x18
 240:	01271893          	slli	x17,x14,0x12
 244:	3f0007b7          	lui	x15,0x3f000
 248:	00fc05b7          	lui	x11,0xfc0
 24c:	000402b7          	lui	x5,0x40
 250:	00f37533          	and	x10,x6,x15
 254:	004c9813          	slli	x16,x25,0x4
 258:	00b8f0b3          	and	x1,x17,x11
 25c:	ff028f93          	addi	x31,x5,-16 # 3fff0 <.L90+0x3f870>
 260:	001563b3          	or	x7,x10,x1
 264:	01f87f33          	and	x30,x16,x31
 268:	01e3eeb3          	or	x29,x7,x30
 26c:	c00004b7          	lui	x9,0xc0000
 270:	009ee433          	or	x8,x29,x9
 274:	410019b7          	lui	x19,0x41001
 278:	d089a623          	sw	x8,-756(x19) # 41000d0c <.L90+0x4100058c>
 27c:	000da903          	lw	x18,0(x27)
 280:	000aa603          	lw	x12,0(x21)
 284:	000006b7          	lui	x13,0x0
 288:	00490d13          	addi	x26,x18,4 # fc0004 <.L90+0xfbf884>
 28c:	00068793          	mv	x15,x13
 290:	01a78b33          	add	x22,x15,x26
 294:	01861c13          	slli	x24,x12,0x18
 298:	018b6bb3          	or	x23,x22,x24
 29c:	20040a37          	lui	x20,0x20040
 2a0:	014becb3          	or	x25,x23,x20
 2a4:	00100e13          	li	x28,1
 2a8:	01cc8023          	sb	x28,0(x25)
 2ac:	000da703          	lw	x14,0(x27)
 2b0:	09c70c63          	beq	x14,x28,348 <.L34>

000002b4 <.L46>:
 2b4:	00100a93          	li	x21,1
 2b8:	0100006f          	j	2c8 <.L50>

000002bc <.L88>:
 2bc:	00068813          	mv	x16,x13
 2c0:	1408272f          	lr.w.aq	x14,(x16)
 2c4:	01570863          	beq	x14,x21,2d4 <.L49>

000002c8 <.L50>:
 2c8:	00068513          	mv	x10,x13
 2cc:	100528af          	lr.w	x17,(x10)
 2d0:	ff5896e3          	bne	x17,x21,2bc <.L88>

000002d4 <.L49>:
 2d4:	10c12083          	lw	x1,268(x2)
 2d8:	10812403          	lw	x8,264(x2)
 2dc:	0007a023          	sw	x0,0(x15) # 3f000000 <.L90+0x3efff880>
 2e0:	10412483          	lw	x9,260(x2)
 2e4:	10012903          	lw	x18,256(x2)
 2e8:	0fc12983          	lw	x19,252(x2)
 2ec:	0f812a03          	lw	x20,248(x2)
 2f0:	0f412a83          	lw	x21,244(x2)
 2f4:	0f012b03          	lw	x22,240(x2)
 2f8:	0ec12b83          	lw	x23,236(x2)
 2fc:	0e812c03          	lw	x24,232(x2)
 300:	0e412c83          	lw	x25,228(x2)
 304:	0e012d03          	lw	x26,224(x2)
 308:	0dc12d83          	lw	x27,220(x2)
 30c:	0cc12407          	flw	f8,204(x2)
 310:	0c812487          	flw	f9,200(x2)
 314:	0c412907          	flw	f18,196(x2)
 318:	0c012987          	flw	f19,192(x2)
 31c:	0bc12a07          	flw	f20,188(x2)
 320:	0b812a87          	flw	f21,184(x2)
 324:	0b412b07          	flw	f22,180(x2)
 328:	0b012b87          	flw	f23,176(x2)
 32c:	0ac12c07          	flw	f24,172(x2)
 330:	0a812c87          	flw	f25,168(x2)
 334:	0a412d07          	flw	f26,164(x2)
 338:	0a012d87          	flw	f27,160(x2)
 33c:	00000513          	li	x10,0
 340:	11010113          	addi	x2,x2,272
 344:	00008067          	ret

00000348 <.L34>:
 348:	0047c303          	lbu	x6,4(x15)
 34c:	0ff37893          	andi	x17,x6,255
 350:	fe088ce3          	beqz	x17,348 <.L34>
 354:	0057c503          	lbu	x10,5(x15)
 358:	0ff57593          	andi	x11,x10,255
 35c:	fe0586e3          	beqz	x11,348 <.L34>
 360:	0067c083          	lbu	x1,6(x15)
 364:	0ff0f813          	andi	x16,x1,255
 368:	fe0800e3          	beqz	x16,348 <.L34>
 36c:	0077c383          	lbu	x7,7(x15)
 370:	0ff3f293          	andi	x5,x7,255
 374:	fc028ae3          	beqz	x5,348 <.L34>
 378:	000aaf83          	lw	x31,0(x21)
 37c:	21040437          	lui	x8,0x21040
 380:	00100f13          	li	x30,1
 384:	00cf8e93          	addi	x29,x31,12
 388:	01d784b3          	add	x9,x15,x29
 38c:	0084e9b3          	or	x19,x9,x8
 390:	01e98023          	sb	x30,0(x19)
 394:	000da903          	lw	x18,0(x27)
 398:	f1e91ee3          	bne	x18,x30,2b4 <.L46>
 39c:	000aa403          	lw	x8,0(x21)
 3a0:	07240c63          	beq	x8,x18,418 <.L40>

000003a4 <.L45>:
 3a4:	00100d93          	li	x27,1
 3a8:	0100006f          	j	3b8 <.L39>

000003ac <.L89>:
 3ac:	00878613          	addi	x12,x15,8
 3b0:	14062d2f          	lr.w.aq	x26,(x12)
 3b4:	01bd0863          	beq	x26,x27,3c4 <.L47>

000003b8 <.L39>:
 3b8:	00878993          	addi	x19,x15,8
 3bc:	1009a92f          	lr.w	x18,(x19)
 3c0:	ffb916e3          	bne	x18,x27,3ac <.L89>

000003c4 <.L47>:
 3c4:	0007a423          	sw	x0,8(x15)
 3c8:	00078223          	sb	x0,4(x15)
 3cc:	000782a3          	sb	x0,5(x15)
 3d0:	00078323          	sb	x0,6(x15)
 3d4:	000783a3          	sb	x0,7(x15)
 3d8:	0007a023          	sw	x0,0(x15)
 3dc:	00000313          	li	x6,0
 3e0:	00068793          	mv	x15,x13
 3e4:	20000b37          	lui	x22,0x20000
 3e8:	00100c13          	li	x24,1
 3ec:	00040bb7          	lui	x23,0x40
 3f0:	00100a37          	lui	x20,0x100

000003f4 <.L48>:
 3f4:	000aac83          	lw	x25,0(x21)
 3f8:	0067ee33          	or	x28,x15,x6
 3fc:	01730333          	add	x6,x6,x23
 400:	018c9093          	slli	x1,x25,0x18
 404:	01c0e3b3          	or	x7,x1,x28
 408:	0163e2b3          	or	x5,x7,x22
 40c:	0182a023          	sw	x24,0(x5)
 410:	ff4312e3          	bne	x6,x20,3f4 <.L48>
 414:	ea1ff06f          	j	2b4 <.L46>

00000418 <.L40>:
 418:	00c7c603          	lbu	x12,12(x15)
 41c:	0ff67d13          	andi	x26,x12,255
 420:	fe0d0ce3          	beqz	x26,418 <.L40>
 424:	00d7cb03          	lbu	x22,13(x15)
 428:	0ffb7c13          	andi	x24,x22,255
 42c:	fe0c06e3          	beqz	x24,418 <.L40>
 430:	00e7cb83          	lbu	x23,14(x15)
 434:	0ffbfa13          	andi	x20,x23,255
 438:	fe0a00e3          	beqz	x20,418 <.L40>
 43c:	00f7cc83          	lbu	x25,15(x15)
 440:	0ffcfe13          	andi	x28,x25,255
 444:	fc0e0ae3          	beqz	x28,418 <.L40>
 448:	00078623          	sb	x0,12(x15)
 44c:	000786a3          	sb	x0,13(x15)
 450:	00078723          	sb	x0,14(x15)
 454:	000787a3          	sb	x0,15(x15)
 458:	00000337          	lui	x6,0x0
 45c:	0007a423          	sw	x0,8(x15)
 460:	00000593          	li	x11,0
 464:	00830093          	addi	x1,x6,8 # 8 <tensorlib_log+0x8>
 468:	03fc03b7          	lui	x7,0x3fc0
 46c:	200002b7          	lui	x5,0x20000
 470:	00100513          	li	x10,1
 474:	010008b7          	lui	x17,0x1000
 478:	04000837          	lui	x16,0x4000

0000047c <.L44>:
 47c:	01241713          	slli	x14,x8,0x12
 480:	00b0efb3          	or	x31,x1,x11
 484:	00777f33          	and	x30,x14,x7
 488:	01ff6eb3          	or	x29,x30,x31
 48c:	005ee4b3          	or	x9,x29,x5
 490:	00a4a023          	sw	x10,0(x9) # c0000000 <.L90+0xbffff880>
 494:	011585b3          	add	x11,x11,x17
 498:	000da403          	lw	x8,0(x27)
 49c:	ff0590e3          	bne	x11,x16,47c <.L44>
 4a0:	f0a402e3          	beq	x8,x10,3a4 <.L45>
 4a4:	e11ff06f          	j	2b4 <.L46>

000004a8 <.L55>:
 4a8:	000d0813          	mv	x16,x26
 4ac:	d69ff06f          	j	214 <.L30>

000004b0 <.L54>:
 4b0:	00068f93          	mv	x31,x13
 4b4:	d09ff06f          	j	1bc <.L28>

000004b8 <.L86>:
 4b8:	000f8b13          	mv	x22,x31
 4bc:	c85ff06f          	j	140 <.L17>

000004c0 <.L87>:
 4c0:	00c40a13          	addi	x20,x8,12 # 2104000c <.L90+0x2103f88c>
 4c4:	00092983          	lw	x19,0(x18)
 4c8:	0004a603          	lw	x12,0(x9)
 4cc:	2b6a7a63          	bgeu	x20,x22,780 <.L90>
 4d0:	02c00313          	li	x6,44
 4d4:	026603b3          	mul	x7,x12,x6
 4d8:	40c00933          	neg	x18,x12
 4dc:	413004b3          	neg	x9,x19
 4e0:	00100e93          	li	x29,1
 4e4:	00291913          	slli	x18,x18,0x2
 4e8:	00249493          	slli	x9,x9,0x2
 4ec:	026987b3          	mul	x15,x19,x6
 4f0:	00712a23          	sw	x7,20(x2)
 4f4:	00f12c23          	sw	x15,24(x2)
 4f8:	15d61c63          	bne	x12,x29,650 <.L22>

000004fc <.L92>:
 4fc:	00241813          	slli	x16,x8,0x2
 500:	010683b3          	add	x7,x13,x16
 504:	02c3a507          	flw	f10,44(x7) # 3fc002c <.L90+0x3fbf8ac>
 508:	0283ac87          	flw	f25,40(x7)
 50c:	0243ac07          	flw	f24,36(x7)
 510:	0203ab87          	flw	f23,32(x7)
 514:	01c3ab07          	flw	f22,28(x7)
 518:	0183aa87          	flw	f21,24(x7)
 51c:	0143aa07          	flw	f20,20(x7)
 520:	0103a987          	flw	f19,16(x7)
 524:	00c3a907          	flw	f18,12(x7)
 528:	0083a487          	flw	f9,8(x7)
 52c:	0043a407          	flw	f8,4(x7)
 530:	0003ad87          	flw	f27,0(x7)

00000534 <.L23>:
 534:	00c12823          	sw	x12,16(x2)
 538:	00d12623          	sw	x13,12(x2)
 53c:	00000097          	auipc	x1,0x0
 540:	000080e7          	jalr	x1 # 53c <.L23+0x8>
 544:	20a50d53          	fmv.s	f26,f10
 548:	219c8553          	fmv.s	f10,f25
 54c:	00000097          	auipc	x1,0x0
 550:	000080e7          	jalr	x1 # 54c <.L23+0x18>
 554:	20a50cd3          	fmv.s	f25,f10
 558:	218c0553          	fmv.s	f10,f24
 55c:	00000097          	auipc	x1,0x0
 560:	000080e7          	jalr	x1 # 55c <.L23+0x28>
 564:	20a50c53          	fmv.s	f24,f10
 568:	217b8553          	fmv.s	f10,f23
 56c:	00000097          	auipc	x1,0x0
 570:	000080e7          	jalr	x1 # 56c <.L23+0x38>
 574:	20a50bd3          	fmv.s	f23,f10
 578:	216b0553          	fmv.s	f10,f22
 57c:	00000097          	auipc	x1,0x0
 580:	000080e7          	jalr	x1 # 57c <.L23+0x48>
 584:	20a50b53          	fmv.s	f22,f10
 588:	215a8553          	fmv.s	f10,f21
 58c:	00000097          	auipc	x1,0x0
 590:	000080e7          	jalr	x1 # 58c <.L23+0x58>
 594:	20a50ad3          	fmv.s	f21,f10
 598:	214a0553          	fmv.s	f10,f20
 59c:	00000097          	auipc	x1,0x0
 5a0:	000080e7          	jalr	x1 # 59c <.L23+0x68>
 5a4:	20a50a53          	fmv.s	f20,f10
 5a8:	21398553          	fmv.s	f10,f19
 5ac:	00000097          	auipc	x1,0x0
 5b0:	000080e7          	jalr	x1 # 5ac <.L23+0x78>
 5b4:	20a509d3          	fmv.s	f19,f10
 5b8:	21290553          	fmv.s	f10,f18
 5bc:	00000097          	auipc	x1,0x0
 5c0:	000080e7          	jalr	x1 # 5bc <.L23+0x88>
 5c4:	20a50953          	fmv.s	f18,f10
 5c8:	20948553          	fmv.s	f10,f9
 5cc:	00000097          	auipc	x1,0x0
 5d0:	000080e7          	jalr	x1 # 5cc <.L23+0x98>
 5d4:	20a504d3          	fmv.s	f9,f10
 5d8:	20840553          	fmv.s	f10,f8
 5dc:	00000097          	auipc	x1,0x0
 5e0:	000080e7          	jalr	x1 # 5dc <.L23+0xa8>
 5e4:	20a50453          	fmv.s	f8,f10
 5e8:	21bd8553          	fmv.s	f10,f27
 5ec:	00000097          	auipc	x1,0x0
 5f0:	000080e7          	jalr	x1 # 5ec <.L23+0xb8>
 5f4:	00100e93          	li	x29,1
 5f8:	00c12683          	lw	x13,12(x2)
 5fc:	01012603          	lw	x12,16(x2)
 600:	0dd99063          	bne	x19,x29,6c0 <.L24>
 604:	00241293          	slli	x5,x8,0x2
 608:	005d0fb3          	add	x31,x26,x5
 60c:	03afa627          	fsw	f26,44(x31)
 610:	039fa427          	fsw	f25,40(x31)
 614:	038fa227          	fsw	f24,36(x31)
 618:	037fa027          	fsw	f23,32(x31)
 61c:	016fae27          	fsw	f22,28(x31)
 620:	015fac27          	fsw	f21,24(x31)
 624:	014faa27          	fsw	f20,20(x31)
 628:	013fa827          	fsw	f19,16(x31)
 62c:	012fa627          	fsw	f18,12(x31)
 630:	009fa427          	fsw	f9,8(x31)
 634:	008fa227          	fsw	f8,4(x31)
 638:	00afa027          	fsw	f10,0(x31)
 63c:	00ca0f13          	addi	x30,x20,12 # 10000c <.L90+0xff88c>
 640:	000a0413          	mv	x8,x20
 644:	0f6f7a63          	bgeu	x30,x22,738 <.L91>

00000648 <.L53>:
 648:	000f0a13          	mv	x20,x30
 64c:	ebd608e3          	beq	x12,x29,4fc <.L92>

00000650 <.L22>:
 650:	02860533          	mul	x10,x12,x8
 654:	01412e83          	lw	x29,20(x2)
 658:	00251813          	slli	x16,x10,0x2
 65c:	010683b3          	add	x7,x13,x16
 660:	01d382b3          	add	x5,x7,x29
 664:	01228fb3          	add	x31,x5,x18
 668:	012f8f33          	add	x30,x31,x18
 66c:	012f0733          	add	x14,x30,x18
 670:	01270e33          	add	x28,x14,x18
 674:	012e0333          	add	x6,x28,x18
 678:	012308b3          	add	x17,x6,x18
 67c:	012887b3          	add	x15,x17,x18
 680:	01278533          	add	x10,x15,x18
 684:	012505b3          	add	x11,x10,x18
 688:	012580b3          	add	x1,x11,x18
 68c:	0002a507          	flw	f10,0(x5) # 20000000 <.L90+0x1ffff880>
 690:	000fac87          	flw	f25,0(x31)
 694:	000f2c07          	flw	f24,0(x30)
 698:	00072b87          	flw	f23,0(x14)
 69c:	000e2b07          	flw	f22,0(x28)
 6a0:	00032a87          	flw	f21,0(x6)
 6a4:	0008aa07          	flw	f20,0(x17) # 1000000 <.L90+0xfff880>
 6a8:	0007a987          	flw	f19,0(x15)
 6ac:	00052907          	flw	f18,0(x10)
 6b0:	0005a487          	flw	f9,0(x11) # fc0000 <.L90+0xfbf880>
 6b4:	0000a407          	flw	f8,0(x1)
 6b8:	0003ad87          	flw	f27,0(x7)
 6bc:	e79ff06f          	j	534 <.L23>

000006c0 <.L24>:
 6c0:	02898433          	mul	x8,x19,x8
 6c4:	01812f03          	lw	x30,24(x2)
 6c8:	00241293          	slli	x5,x8,0x2
 6cc:	005d0fb3          	add	x31,x26,x5
 6d0:	01ef8733          	add	x14,x31,x30
 6d4:	01a72027          	fsw	f26,0(x14)
 6d8:	00970e33          	add	x28,x14,x9
 6dc:	019e2027          	fsw	f25,0(x28)
 6e0:	009e0333          	add	x6,x28,x9
 6e4:	01832027          	fsw	f24,0(x6)
 6e8:	009308b3          	add	x17,x6,x9
 6ec:	0178a027          	fsw	f23,0(x17)
 6f0:	009887b3          	add	x15,x17,x9
 6f4:	0167a027          	fsw	f22,0(x15)
 6f8:	00978533          	add	x10,x15,x9
 6fc:	01552027          	fsw	f21,0(x10)
 700:	009505b3          	add	x11,x10,x9
 704:	0145a027          	fsw	f20,0(x11)
 708:	009580b3          	add	x1,x11,x9
 70c:	0130a027          	fsw	f19,0(x1)
 710:	00908833          	add	x16,x1,x9
 714:	01282027          	fsw	f18,0(x16) # 4000000 <.L90+0x3fff880>
 718:	009803b3          	add	x7,x16,x9
 71c:	0093a027          	fsw	f9,0(x7)
 720:	00938433          	add	x8,x7,x9
 724:	00842027          	fsw	f8,0(x8)
 728:	00afa027          	fsw	f10,0(x31)
 72c:	00ca0f13          	addi	x30,x20,12
 730:	000a0413          	mv	x8,x20
 734:	f16f6ae3          	bltu	x30,x22,648 <.L53>

00000738 <.L91>:
 738:	af6a74e3          	bgeu	x20,x22,220 <.L21>

0000073c <.L20>:
 73c:	03460eb3          	mul	x29,x12,x20
 740:	00299413          	slli	x8,x19,0x2
 744:	00261493          	slli	x9,x12,0x2
 748:	034989b3          	mul	x19,x19,x20
 74c:	002e9613          	slli	x12,x29,0x2
 750:	00c68933          	add	x18,x13,x12
 754:	00299693          	slli	x13,x19,0x2
 758:	00dd0d33          	add	x26,x26,x13

0000075c <.L27>:
 75c:	00092507          	flw	f10,0(x18)
 760:	001a0a13          	addi	x20,x20,1
 764:	00990933          	add	x18,x18,x9
 768:	00000097          	auipc	x1,0x0
 76c:	000080e7          	jalr	x1 # 768 <.L27+0xc>
 770:	00ad2027          	fsw	f10,0(x26)
 774:	008d0d33          	add	x26,x26,x8
 778:	ff4b12e3          	bne	x22,x20,75c <.L27>
 77c:	aa5ff06f          	j	220 <.L21>

00000780 <.L90>:
 780:	00040a13          	mv	x20,x8
 784:	fb9ff06f          	j	73c <.L20>

Disassembly of section .text._ZN8HBTensorIfLln1EEC2EP11hb_tensor_t:

00000000 <_ZN8HBTensorIfLln1EEC1EP11hb_tensor_t>:
   0:	00058713          	mv	x14,x11
   4:	0045a683          	lw	x13,4(x11)
   8:	00072803          	lw	x16,0(x14)
   c:	0105a583          	lw	x11,16(x11)
  10:	00050793          	mv	x15,x10
  14:	02850613          	addi	x12,x10,40
  18:	01450513          	addi	x10,x10,20
  1c:	0107a023          	sw	x16,0(x15)
  20:	00d7a223          	sw	x13,4(x15)
  24:	00a7a423          	sw	x10,8(x15)
  28:	00c7a623          	sw	x12,12(x15)
  2c:	00b7a823          	sw	x11,16(x15)
  30:	00060613          	mv	x12,x12
  34:	00500293          	li	x5,5
  38:	04d2e463          	bltu	x5,x13,80 <.L14>
  3c:	00872303          	lw	x6,8(x14)
  40:	00c72383          	lw	x7,12(x14)
  44:	02068c63          	beqz	x13,7c <.L1>
  48:	00269893          	slli	x17,x13,0x2
  4c:	00078713          	mv	x14,x15
  50:	01178e33          	add	x28,x15,x17
  54:	40f30eb3          	sub	x29,x6,x15
  58:	40f38f33          	sub	x30,x7,x15

0000005c <.L5>:
  5c:	00ee8fb3          	add	x31,x29,x14
  60:	000fa683          	lw	x13,0(x31)
  64:	00ef05b3          	add	x11,x30,x14
  68:	00470713          	addi	x14,x14,4
  6c:	00d72823          	sw	x13,16(x14)
  70:	0005a803          	lw	x16,0(x11)
  74:	03072223          	sw	x16,36(x14)
  78:	ffc712e3          	bne	x14,x28,5c <.L5>

0000007c <.L1>:
  7c:	00008067          	ret

00000080 <.L14>:
  80:	ff010113          	addi	x2,x2,-16
  84:	000007b7          	lui	x15,0x0
  88:	00112623          	sw	x1,12(x2)
  8c:	000000b7          	lui	x1,0x0
  90:	0c700613          	li	x12,199
  94:	00008593          	mv	x11,x1
  98:	00078513          	mv	x10,x15
  9c:	00000097          	auipc	x1,0x0
  a0:	000080e7          	jalr	x1 # 9c <.L14+0x1c>
  a4:	00000637          	lui	x12,0x0
  a8:	00060513          	mv	x10,x12
  ac:	00000097          	auipc	x1,0x0
  b0:	000080e7          	jalr	x1 # ac <.L14+0x2c>
  b4:	00000537          	lui	x10,0x0
  b8:	00052283          	lw	x5,0(x10) # 0 <_ZN8HBTensorIfLln1EEC1EP11hb_tensor_t>
  bc:	00000337          	lui	x6,0x0
  c0:	00032383          	lw	x7,0(x6) # 0 <_ZN8HBTensorIfLln1EEC1EP11hb_tensor_t>
  c4:	01029893          	slli	x17,x5,0x10
  c8:	4100feb7          	lui	x29,0x4100f
  cc:	00788e33          	add	x28,x17,x7
  d0:	adceac23          	sw	x28,-1320(x29) # 4100ead8 <.L90+0x4100e358>

000000d4 <.L3>:
  d4:	0000006f          	j	d4 <.L3>
