
kernel_clamp.o:     file format elf32-littleriscv


Disassembly of section .group:

00000000 <_ZN8HBTensorIfLln1EEC5EP11hb_tensor_t>:
   0:	0001                	nop
   2:	0000                	unimp
   4:	00000007          	0x7
   8:	0008                	0x8
	...

Disassembly of section .text:

00000000 <_Z21hb_tiled_foreach_implIfZ15tensorlib_clampEUlfE_JEEvjjT0_8HBTensorIT_Lln1EES4_PS3_S5_.isra.0>:
       0:	fd010113          	addi	x2,x2,-48
       4:	02812623          	sw	x8,44(x2)
       8:	02912423          	sw	x9,40(x2)
       c:	03212223          	sw	x18,36(x2)
      10:	03312023          	sw	x19,32(x2)
      14:	01412e23          	sw	x20,28(x2)
      18:	00c12423          	sw	x12,8(x2)
      1c:	00d12623          	sw	x13,12(x2)
      20:	00100313          	li	x6,1
      24:	03012983          	lw	x19,48(x2)
      28:	03412903          	lw	x18,52(x2)
      2c:	03812403          	lw	x8,56(x2)
      30:	03c12483          	lw	x9,60(x2)
      34:	0e670663          	beq	x14,x6,120 <.L115>
      38:	0ab57e63          	bgeu	x10,x11,f4 <.L1>
      3c:	00062687          	flw	f13,0(x12)
      40:	00289393          	slli	x7,x17,0x2
      44:	00271293          	slli	x5,x14,0x2
      48:	007903b3          	add	x7,x18,x7
      4c:	005802b3          	add	x5,x16,x5

00000050 <.L12>:
      50:	0c088463          	beqz	x17,118 <.L14>
      54:	00098e93          	mv	x29,x19
      58:	00090613          	mv	x12,x18
      5c:	00050e13          	mv	x28,x10
      60:	00000f93          	li	x31,0

00000064 <.L8>:
      64:	00062f03          	lw	x30,0(x12)
      68:	000eaa03          	lw	x20,0(x29)
      6c:	00460613          	addi	x12,x12,4
      70:	03ee7333          	remu	x6,x28,x30
      74:	004e8e93          	addi	x29,x29,4
      78:	03430a33          	mul	x20,x6,x20
      7c:	03ee5e33          	divu	x28,x28,x30
      80:	014f8fb3          	add	x31,x31,x20
      84:	fec390e3          	bne	x7,x12,64 <.L8>
      88:	002f9f13          	slli	x30,x31,0x2
      8c:	01e48fb3          	add	x31,x9,x30

00000090 <.L7>:
      90:	000fa707          	flw	f14,0(x31)
      94:	06070e63          	beqz	x14,110 <.L15>
      98:	00078e93          	mv	x29,x15
      9c:	00080613          	mv	x12,x16
      a0:	00050e13          	mv	x28,x10
      a4:	00000f93          	li	x31,0

000000a8 <.L10>:
      a8:	00062f03          	lw	x30,0(x12)
      ac:	000eaa03          	lw	x20,0(x29)
      b0:	00460613          	addi	x12,x12,4
      b4:	004e8e93          	addi	x29,x29,4
      b8:	03ee7333          	remu	x6,x28,x30
      bc:	03430a33          	mul	x20,x6,x20
      c0:	03ee5e33          	divu	x28,x28,x30
      c4:	014f8fb3          	add	x31,x31,x20
      c8:	fec290e3          	bne	x5,x12,a8 <.L10>
      cc:	002f9f13          	slli	x30,x31,0x2
      d0:	01e40333          	add	x6,x8,x30

000000d4 <.L9>:
      d4:	a0d71653          	flt.s	x12,f14,f13
      d8:	20d68053          	fmv.s	f0,f13
      dc:	00061663          	bnez	x12,e8 <.L11>
      e0:	0006a787          	flw	f15,0(x13)
      e4:	28f70053          	fmin.s	f0,f14,f15

000000e8 <.L11>:
      e8:	00032027          	fsw	f0,0(x6)
      ec:	00150513          	addi	x10,x10,1
      f0:	f6a590e3          	bne	x11,x10,50 <.L12>

000000f4 <.L1>:
      f4:	02c12403          	lw	x8,44(x2)
      f8:	02812483          	lw	x9,40(x2)
      fc:	02412903          	lw	x18,36(x2)
     100:	02012983          	lw	x19,32(x2)
     104:	01c12a03          	lw	x20,28(x2)
     108:	03010113          	addi	x2,x2,48
     10c:	00008067          	ret

00000110 <.L15>:
     110:	00040313          	mv	x6,x8
     114:	fc1ff06f          	j	d4 <.L9>

00000118 <.L14>:
     118:	00048f93          	mv	x31,x9
     11c:	f75ff06f          	j	90 <.L7>

00000120 <.L115>:
     120:	fcb57ae3          	bgeu	x10,x11,f4 <.L1>
     124:	0009a883          	lw	x17,0(x19)
     128:	0007a803          	lw	x16,0(x15)
     12c:	40a589b3          	sub	x19,x11,x10
     130:	00289913          	slli	x18,x17,0x2
     134:	00281393          	slli	x7,x16,0x2
     138:	032507b3          	mul	x15,x10,x18
     13c:	00f9f293          	andi	x5,x19,15
     140:	00062087          	flw	f1,0(x12)
     144:	02750333          	mul	x6,x10,x7
     148:	00f487b3          	add	x15,x9,x15
     14c:	00640433          	add	x8,x8,x6
     150:	28028663          	beqz	x5,3dc <.L5>
     154:	26e28263          	beq	x5,x14,3b8 <.L96>
     158:	00200713          	li	x14,2
     15c:	22e28e63          	beq	x5,x14,398 <.L97>
     160:	00300493          	li	x9,3
     164:	20928a63          	beq	x5,x9,378 <.L98>
     168:	00400e93          	li	x29,4
     16c:	1fd28663          	beq	x5,x29,358 <.L99>
     170:	00500a13          	li	x20,5
     174:	1d428263          	beq	x5,x20,338 <.L100>
     178:	00600e13          	li	x28,6
     17c:	19c28a63          	beq	x5,x28,310 <.L101>
     180:	00700f93          	li	x31,7
     184:	17f28263          	beq	x5,x31,2e8 <.L102>
     188:	00800f13          	li	x30,8
     18c:	13e28a63          	beq	x5,x30,2c0 <.L103>
     190:	00900613          	li	x12,9
     194:	10c28263          	beq	x5,x12,298 <.L104>
     198:	00a00893          	li	x17,10
     19c:	0d128a63          	beq	x5,x17,270 <.L105>
     1a0:	00b00813          	li	x16,11
     1a4:	0b028663          	beq	x5,x16,250 <.L106>
     1a8:	00c00993          	li	x19,12
     1ac:	09328263          	beq	x5,x19,230 <.L107>
     1b0:	00d00313          	li	x6,13
     1b4:	04628e63          	beq	x5,x6,210 <.L108>
     1b8:	00e00713          	li	x14,14
     1bc:	02e28663          	beq	x5,x14,1e8 <.L109>
     1c0:	0007a107          	flw	f2,0(x15)
     1c4:	20108253          	fmv.s	f4,f1
     1c8:	a01112d3          	flt.s	x5,f2,f1
     1cc:	00029663          	bnez	x5,1d8 <.L21>
     1d0:	0006a187          	flw	f3,0(x13)
     1d4:	28310253          	fmin.s	f4,f2,f3

000001d8 <.L21>:
     1d8:	00442027          	fsw	f4,0(x8)
     1dc:	00150513          	addi	x10,x10,1
     1e0:	012787b3          	add	x15,x15,x18
     1e4:	00740433          	add	x8,x8,x7

000001e8 <.L109>:
     1e8:	0007a287          	flw	f5,0(x15)
     1ec:	201083d3          	fmv.s	f7,f1
     1f0:	a01294d3          	flt.s	x9,f5,f1
     1f4:	00049663          	bnez	x9,200 <.L24>
     1f8:	0006a307          	flw	f6,0(x13)
     1fc:	286283d3          	fmin.s	f7,f5,f6

00000200 <.L24>:
     200:	00742027          	fsw	f7,0(x8)
     204:	00150513          	addi	x10,x10,1
     208:	012787b3          	add	x15,x15,x18
     20c:	00740433          	add	x8,x8,x7

00000210 <.L108>:
     210:	0007a507          	flw	f10,0(x15)
     214:	20108653          	fmv.s	f12,f1
     218:	a0151ed3          	flt.s	x29,f10,f1
     21c:	460e8463          	beqz	x29,684 <.L116>

00000220 <.L27>:
     220:	00c42027          	fsw	f12,0(x8)
     224:	00150513          	addi	x10,x10,1
     228:	012787b3          	add	x15,x15,x18
     22c:	00740433          	add	x8,x8,x7

00000230 <.L107>:
     230:	0007a807          	flw	f16,0(x15)
     234:	20108e53          	fmv.s	f28,f1
     238:	a0181a53          	flt.s	x20,f16,f1
     23c:	420a0e63          	beqz	x20,678 <.L117>

00000240 <.L30>:
     240:	01c42027          	fsw	f28,0(x8)
     244:	00150513          	addi	x10,x10,1
     248:	012787b3          	add	x15,x15,x18
     24c:	00740433          	add	x8,x8,x7

00000250 <.L106>:
     250:	0007ae87          	flw	f29,0(x15)
     254:	20108fd3          	fmv.s	f31,f1
     258:	a01e9e53          	flt.s	x28,f29,f1
     25c:	400e0863          	beqz	x28,66c <.L118>

00000260 <.L33>:
     260:	01f42027          	fsw	f31,0(x8)
     264:	00150513          	addi	x10,x10,1
     268:	012787b3          	add	x15,x15,x18
     26c:	00740433          	add	x8,x8,x7

00000270 <.L105>:
     270:	0007a687          	flw	f13,0(x15)
     274:	201087d3          	fmv.s	f15,f1
     278:	a0169fd3          	flt.s	x31,f13,f1
     27c:	000f9663          	bnez	x31,288 <.L36>
     280:	0006a707          	flw	f14,0(x13)
     284:	28e687d3          	fmin.s	f15,f13,f14

00000288 <.L36>:
     288:	00f42027          	fsw	f15,0(x8)
     28c:	00150513          	addi	x10,x10,1
     290:	012787b3          	add	x15,x15,x18
     294:	00740433          	add	x8,x8,x7

00000298 <.L104>:
     298:	0007a007          	flw	f0,0(x15)
     29c:	201081d3          	fmv.s	f3,f1
     2a0:	a0101f53          	flt.s	x30,f0,f1
     2a4:	000f1663          	bnez	x30,2b0 <.L39>
     2a8:	0006a107          	flw	f2,0(x13)
     2ac:	282001d3          	fmin.s	f3,f0,f2

000002b0 <.L39>:
     2b0:	00342027          	fsw	f3,0(x8)
     2b4:	00150513          	addi	x10,x10,1
     2b8:	012787b3          	add	x15,x15,x18
     2bc:	00740433          	add	x8,x8,x7

000002c0 <.L103>:
     2c0:	0007a207          	flw	f4,0(x15)
     2c4:	20108353          	fmv.s	f6,f1
     2c8:	a0121653          	flt.s	x12,f4,f1
     2cc:	00061663          	bnez	x12,2d8 <.L42>
     2d0:	0006a287          	flw	f5,0(x13)
     2d4:	28520353          	fmin.s	f6,f4,f5

000002d8 <.L42>:
     2d8:	00642027          	fsw	f6,0(x8)
     2dc:	00150513          	addi	x10,x10,1
     2e0:	012787b3          	add	x15,x15,x18
     2e4:	00740433          	add	x8,x8,x7

000002e8 <.L102>:
     2e8:	0007a387          	flw	f7,0(x15)
     2ec:	201085d3          	fmv.s	f11,f1
     2f0:	a01398d3          	flt.s	x17,f7,f1
     2f4:	00089663          	bnez	x17,300 <.L45>
     2f8:	0006a507          	flw	f10,0(x13)
     2fc:	28a385d3          	fmin.s	f11,f7,f10

00000300 <.L45>:
     300:	00b42027          	fsw	f11,0(x8)
     304:	00150513          	addi	x10,x10,1
     308:	012787b3          	add	x15,x15,x18
     30c:	00740433          	add	x8,x8,x7

00000310 <.L101>:
     310:	0007a607          	flw	f12,0(x15)
     314:	201088d3          	fmv.s	f17,f1
     318:	a0161853          	flt.s	x16,f12,f1
     31c:	00081663          	bnez	x16,328 <.L48>
     320:	0006a807          	flw	f16,0(x13)
     324:	290608d3          	fmin.s	f17,f12,f16

00000328 <.L48>:
     328:	01142027          	fsw	f17,0(x8)
     32c:	00150513          	addi	x10,x10,1
     330:	012787b3          	add	x15,x15,x18
     334:	00740433          	add	x8,x8,x7

00000338 <.L100>:
     338:	0007ae07          	flw	f28,0(x15)
     33c:	20108f53          	fmv.s	f30,f1
     340:	a01e19d3          	flt.s	x19,f28,f1
     344:	30098863          	beqz	x19,654 <.L119>

00000348 <.L51>:
     348:	01e42027          	fsw	f30,0(x8)
     34c:	00150513          	addi	x10,x10,1
     350:	012787b3          	add	x15,x15,x18
     354:	00740433          	add	x8,x8,x7

00000358 <.L99>:
     358:	0007af87          	flw	f31,0(x15)
     35c:	20108753          	fmv.s	f14,f1
     360:	a01f9353          	flt.s	x6,f31,f1
     364:	2e030263          	beqz	x6,648 <.L120>

00000368 <.L54>:
     368:	00e42027          	fsw	f14,0(x8)
     36c:	00150513          	addi	x10,x10,1
     370:	012787b3          	add	x15,x15,x18
     374:	00740433          	add	x8,x8,x7

00000378 <.L98>:
     378:	0007a787          	flw	f15,0(x15)
     37c:	20108153          	fmv.s	f2,f1
     380:	a0179753          	flt.s	x14,f15,f1
     384:	2a070c63          	beqz	x14,63c <.L121>

00000388 <.L57>:
     388:	00242027          	fsw	f2,0(x8)
     38c:	00150513          	addi	x10,x10,1
     390:	012787b3          	add	x15,x15,x18
     394:	00740433          	add	x8,x8,x7

00000398 <.L97>:
     398:	0007a187          	flw	f3,0(x15)
     39c:	201082d3          	fmv.s	f5,f1
     3a0:	a01192d3          	flt.s	x5,f3,f1
     3a4:	28028663          	beqz	x5,630 <.L122>

000003a8 <.L60>:
     3a8:	00542027          	fsw	f5,0(x8)
     3ac:	00150513          	addi	x10,x10,1
     3b0:	012787b3          	add	x15,x15,x18
     3b4:	00740433          	add	x8,x8,x7

000003b8 <.L96>:
     3b8:	0007a307          	flw	f6,0(x15)
     3bc:	20108553          	fmv.s	f10,f1
     3c0:	a01314d3          	flt.s	x9,f6,f1
     3c4:	26048063          	beqz	x9,624 <.L123>

000003c8 <.L63>:
     3c8:	00a42027          	fsw	f10,0(x8)
     3cc:	00150513          	addi	x10,x10,1
     3d0:	012787b3          	add	x15,x15,x18
     3d4:	00740433          	add	x8,x8,x7
     3d8:	d0a58ee3          	beq	x11,x10,f4 <.L1>

000003dc <.L5>:
     3dc:	0007a587          	flw	f11,0(x15)
     3e0:	20108853          	fmv.s	f16,f1
     3e4:	a0159ed3          	flt.s	x29,f11,f1
     3e8:	260e8c63          	beqz	x29,660 <.L124>

000003ec <.L4>:
     3ec:	012787b3          	add	x15,x15,x18
     3f0:	0007a887          	flw	f17,0(x15)
     3f4:	01042027          	fsw	f16,0(x8)
     3f8:	20108ed3          	fmv.s	f29,f1
     3fc:	a0189a53          	flt.s	x20,f17,f1
     400:	00150513          	addi	x10,x10,1
     404:	00740433          	add	x8,x8,x7
     408:	000a1663          	bnez	x20,414 <.L66>
     40c:	0006ae07          	flw	f28,0(x13)
     410:	29c88ed3          	fmin.s	f29,f17,f28

00000414 <.L66>:
     414:	01278e33          	add	x28,x15,x18
     418:	000e2f07          	flw	f30,0(x28)
     41c:	01d42027          	fsw	f29,0(x8)
     420:	20108753          	fmv.s	f14,f1
     424:	a01f1fd3          	flt.s	x31,f30,f1
     428:	00740f33          	add	x30,x8,x7
     42c:	000f9663          	bnez	x31,438 <.L68>
     430:	0006af87          	flw	f31,0(x13)
     434:	29ff0753          	fmin.s	f14,f30,f31

00000438 <.L68>:
     438:	012e0633          	add	x12,x28,x18
     43c:	00062687          	flw	f13,0(x12)
     440:	00ef2027          	fsw	f14,0(x30)
     444:	20108053          	fmv.s	f0,f1
     448:	a01698d3          	flt.s	x17,f13,f1
     44c:	007f0833          	add	x16,x30,x7
     450:	00089663          	bnez	x17,45c <.L70>
     454:	0006a787          	flw	f15,0(x13)
     458:	28f68053          	fmin.s	f0,f13,f15

0000045c <.L70>:
     45c:	012609b3          	add	x19,x12,x18
     460:	0009a107          	flw	f2,0(x19)
     464:	00082027          	fsw	f0,0(x16)
     468:	20108253          	fmv.s	f4,f1
     46c:	a0111353          	flt.s	x6,f2,f1
     470:	007802b3          	add	x5,x16,x7
     474:	00031663          	bnez	x6,480 <.L72>
     478:	0006a187          	flw	f3,0(x13)
     47c:	28310253          	fmin.s	f4,f2,f3

00000480 <.L72>:
     480:	012984b3          	add	x9,x19,x18
     484:	0004a287          	flw	f5,0(x9)
     488:	0042a027          	fsw	f4,0(x5)
     48c:	201083d3          	fmv.s	f7,f1
     490:	a0129753          	flt.s	x14,f5,f1
     494:	00728eb3          	add	x29,x5,x7
     498:	00071663          	bnez	x14,4a4 <.L74>
     49c:	0006a307          	flw	f6,0(x13)
     4a0:	286283d3          	fmin.s	f7,f5,f6

000004a4 <.L74>:
     4a4:	012487b3          	add	x15,x9,x18
     4a8:	0007a507          	flw	f10,0(x15)
     4ac:	007ea027          	fsw	f7,0(x29)
     4b0:	20108653          	fmv.s	f12,f1
     4b4:	a0151a53          	flt.s	x20,f10,f1
     4b8:	007e8433          	add	x8,x29,x7
     4bc:	000a1663          	bnez	x20,4c8 <.L76>
     4c0:	0006a587          	flw	f11,0(x13)
     4c4:	28b50653          	fmin.s	f12,f10,f11

000004c8 <.L76>:
     4c8:	01278e33          	add	x28,x15,x18
     4cc:	000e2807          	flw	f16,0(x28)
     4d0:	00c42027          	fsw	f12,0(x8)
     4d4:	20108e53          	fmv.s	f28,f1
     4d8:	a0181fd3          	flt.s	x31,f16,f1
     4dc:	00740f33          	add	x30,x8,x7
     4e0:	000f9663          	bnez	x31,4ec <.L78>
     4e4:	0006a887          	flw	f17,0(x13)
     4e8:	29180e53          	fmin.s	f28,f16,f17

000004ec <.L78>:
     4ec:	012e0633          	add	x12,x28,x18
     4f0:	00062e87          	flw	f29,0(x12)
     4f4:	01cf2027          	fsw	f28,0(x30)
     4f8:	20108fd3          	fmv.s	f31,f1
     4fc:	a01e98d3          	flt.s	x17,f29,f1
     500:	007f0833          	add	x16,x30,x7
     504:	00089663          	bnez	x17,510 <.L80>
     508:	0006af07          	flw	f30,0(x13)
     50c:	29ee8fd3          	fmin.s	f31,f29,f30

00000510 <.L80>:
     510:	012609b3          	add	x19,x12,x18
     514:	0009a687          	flw	f13,0(x19)
     518:	01f82027          	fsw	f31,0(x16)
     51c:	201087d3          	fmv.s	f15,f1
     520:	a0169353          	flt.s	x6,f13,f1
     524:	007802b3          	add	x5,x16,x7
     528:	00031663          	bnez	x6,534 <.L82>
     52c:	0006a707          	flw	f14,0(x13)
     530:	28e687d3          	fmin.s	f15,f13,f14

00000534 <.L82>:
     534:	012984b3          	add	x9,x19,x18
     538:	0004a007          	flw	f0,0(x9)
     53c:	00f2a027          	fsw	f15,0(x5)
     540:	201081d3          	fmv.s	f3,f1
     544:	a0101753          	flt.s	x14,f0,f1
     548:	00728eb3          	add	x29,x5,x7
     54c:	00071663          	bnez	x14,558 <.L84>
     550:	0006a107          	flw	f2,0(x13)
     554:	282001d3          	fmin.s	f3,f0,f2

00000558 <.L84>:
     558:	012487b3          	add	x15,x9,x18
     55c:	0007a207          	flw	f4,0(x15)
     560:	003ea027          	fsw	f3,0(x29)
     564:	20108353          	fmv.s	f6,f1
     568:	a0121a53          	flt.s	x20,f4,f1
     56c:	007e8433          	add	x8,x29,x7
     570:	000a1663          	bnez	x20,57c <.L86>
     574:	0006a287          	flw	f5,0(x13)
     578:	28520353          	fmin.s	f6,f4,f5

0000057c <.L86>:
     57c:	01278e33          	add	x28,x15,x18
     580:	000e2387          	flw	f7,0(x28)
     584:	00642027          	fsw	f6,0(x8)
     588:	201085d3          	fmv.s	f11,f1
     58c:	a0139fd3          	flt.s	x31,f7,f1
     590:	00740f33          	add	x30,x8,x7
     594:	000f9663          	bnez	x31,5a0 <.L88>
     598:	0006a507          	flw	f10,0(x13)
     59c:	28a385d3          	fmin.s	f11,f7,f10

000005a0 <.L88>:
     5a0:	012e0633          	add	x12,x28,x18
     5a4:	00062607          	flw	f12,0(x12)
     5a8:	00bf2027          	fsw	f11,0(x30)
     5ac:	201088d3          	fmv.s	f17,f1
     5b0:	a01618d3          	flt.s	x17,f12,f1
     5b4:	007f0833          	add	x16,x30,x7
     5b8:	00089663          	bnez	x17,5c4 <.L90>
     5bc:	0006a807          	flw	f16,0(x13)
     5c0:	290608d3          	fmin.s	f17,f12,f16

000005c4 <.L90>:
     5c4:	012609b3          	add	x19,x12,x18
     5c8:	0009ae07          	flw	f28,0(x19)
     5cc:	01182027          	fsw	f17,0(x16)
     5d0:	20108f53          	fmv.s	f30,f1
     5d4:	a01e1353          	flt.s	x6,f28,f1
     5d8:	007802b3          	add	x5,x16,x7
     5dc:	00031663          	bnez	x6,5e8 <.L92>
     5e0:	0006ae87          	flw	f29,0(x13)
     5e4:	29de0f53          	fmin.s	f30,f28,f29

000005e8 <.L92>:
     5e8:	012984b3          	add	x9,x19,x18
     5ec:	0004af87          	flw	f31,0(x9)
     5f0:	01e2a027          	fsw	f30,0(x5)
     5f4:	20108753          	fmv.s	f14,f1
     5f8:	a01f9753          	flt.s	x14,f31,f1
     5fc:	00728eb3          	add	x29,x5,x7
     600:	00071663          	bnez	x14,60c <.L94>
     604:	0006a687          	flw	f13,0(x13)
     608:	28df8753          	fmin.s	f14,f31,f13

0000060c <.L94>:
     60c:	00eea027          	fsw	f14,0(x29)
     610:	00f50513          	addi	x10,x10,15
     614:	012487b3          	add	x15,x9,x18
     618:	007e8433          	add	x8,x29,x7
     61c:	dca590e3          	bne	x11,x10,3dc <.L5>
     620:	ad5ff06f          	j	f4 <.L1>

00000624 <.L123>:
     624:	0006a387          	flw	f7,0(x13)
     628:	28730553          	fmin.s	f10,f6,f7
     62c:	d9dff06f          	j	3c8 <.L63>

00000630 <.L122>:
     630:	0006a207          	flw	f4,0(x13)
     634:	284182d3          	fmin.s	f5,f3,f4
     638:	d71ff06f          	j	3a8 <.L60>

0000063c <.L121>:
     63c:	0006a007          	flw	f0,0(x13)
     640:	28078153          	fmin.s	f2,f15,f0
     644:	d45ff06f          	j	388 <.L57>

00000648 <.L120>:
     648:	0006a687          	flw	f13,0(x13)
     64c:	28df8753          	fmin.s	f14,f31,f13
     650:	d19ff06f          	j	368 <.L54>

00000654 <.L119>:
     654:	0006ae87          	flw	f29,0(x13)
     658:	29de0f53          	fmin.s	f30,f28,f29
     65c:	cedff06f          	j	348 <.L51>

00000660 <.L124>:
     660:	0006a607          	flw	f12,0(x13)
     664:	28c58853          	fmin.s	f16,f11,f12
     668:	d85ff06f          	j	3ec <.L4>

0000066c <.L118>:
     66c:	0006af07          	flw	f30,0(x13)
     670:	29ee8fd3          	fmin.s	f31,f29,f30
     674:	bedff06f          	j	260 <.L33>

00000678 <.L117>:
     678:	0006a887          	flw	f17,0(x13)
     67c:	29180e53          	fmin.s	f28,f16,f17
     680:	bc1ff06f          	j	240 <.L30>

00000684 <.L116>:
     684:	0006a587          	flw	f11,0(x13)
     688:	28b50653          	fmin.s	f12,f10,f11
     68c:	b95ff06f          	j	220 <.L27>

00000690 <_Z21hb_tiled_foreach_implIfZ19tensorlib_clamp_minEUlfE_JEEvjjT0_8HBTensorIT_Lln1EES4_PS3_S5_.isra.0>:
     690:	ff010113          	addi	x2,x2,-16
     694:	00912423          	sw	x9,8(x2)
     698:	01212223          	sw	x18,4(x2)
     69c:	00812623          	sw	x8,12(x2)
     6a0:	01312023          	sw	x19,0(x2)
     6a4:	00100313          	li	x6,1
     6a8:	01012483          	lw	x9,16(x2)
     6ac:	01412903          	lw	x18,20(x2)
     6b0:	0c660a63          	beq	x12,x6,784 <.L203>
     6b4:	0ab57463          	bgeu	x10,x11,75c <.L125>
     6b8:	00279413          	slli	x8,x15,0x2
     6bc:	00261393          	slli	x7,x12,0x2
     6c0:	00888433          	add	x8,x17,x8
     6c4:	007703b3          	add	x7,x14,x7

000006c8 <.L134>:
     6c8:	0a078a63          	beqz	x15,77c <.L135>
     6cc:	00080f13          	mv	x30,x16
     6d0:	00088313          	mv	x6,x17
     6d4:	00050e93          	mv	x29,x10
     6d8:	00000293          	li	x5,0

000006dc <.L131>:
     6dc:	00032f83          	lw	x31,0(x6)
     6e0:	000f2983          	lw	x19,0(x30)
     6e4:	00430313          	addi	x6,x6,4
     6e8:	03fefe33          	remu	x28,x29,x31
     6ec:	004f0f13          	addi	x30,x30,4
     6f0:	033e09b3          	mul	x19,x28,x19
     6f4:	03fedeb3          	divu	x29,x29,x31
     6f8:	013282b3          	add	x5,x5,x19
     6fc:	fe6410e3          	bne	x8,x6,6dc <.L131>
     700:	00229f93          	slli	x31,x5,0x2
     704:	01f902b3          	add	x5,x18,x31

00000708 <.L130>:
     708:	0002a787          	flw	f15,0(x5)
     70c:	06060463          	beqz	x12,774 <.L136>
     710:	00068f13          	mv	x30,x13
     714:	00070313          	mv	x6,x14
     718:	00050e93          	mv	x29,x10
     71c:	00000293          	li	x5,0

00000720 <.L133>:
     720:	00032f83          	lw	x31,0(x6)
     724:	000f2983          	lw	x19,0(x30)
     728:	00430313          	addi	x6,x6,4
     72c:	004f0f13          	addi	x30,x30,4
     730:	03fefe33          	remu	x28,x29,x31
     734:	033e09b3          	mul	x19,x28,x19
     738:	03fedeb3          	divu	x29,x29,x31
     73c:	013282b3          	add	x5,x5,x19
     740:	fe6390e3          	bne	x7,x6,720 <.L133>
     744:	00229f93          	slli	x31,x5,0x2
     748:	01f48333          	add	x6,x9,x31

0000074c <.L132>:
     74c:	28f51053          	fmax.s	f0,f10,f15
     750:	00150513          	addi	x10,x10,1
     754:	00032027          	fsw	f0,0(x6)
     758:	f6a598e3          	bne	x11,x10,6c8 <.L134>

0000075c <.L125>:
     75c:	00c12403          	lw	x8,12(x2)
     760:	00812483          	lw	x9,8(x2)
     764:	00412903          	lw	x18,4(x2)
     768:	00012983          	lw	x19,0(x2)
     76c:	01010113          	addi	x2,x2,16
     770:	00008067          	ret

00000774 <.L136>:
     774:	00048313          	mv	x6,x9
     778:	fd5ff06f          	j	74c <.L132>

0000077c <.L135>:
     77c:	00090293          	mv	x5,x18
     780:	f89ff06f          	j	708 <.L130>

00000784 <.L203>:
     784:	fcb57ce3          	bgeu	x10,x11,75c <.L125>
     788:	0006a703          	lw	x14,0(x13)
     78c:	00082803          	lw	x16,0(x16)
     790:	40a587b3          	sub	x15,x11,x10
     794:	00271413          	slli	x8,x14,0x2
     798:	00281693          	slli	x13,x16,0x2
     79c:	02d508b3          	mul	x17,x10,x13
     7a0:	00f7f393          	andi	x7,x15,15
     7a4:	02850333          	mul	x6,x10,x8
     7a8:	01190933          	add	x18,x18,x17
     7ac:	006484b3          	add	x9,x9,x6
     7b0:	1c038e63          	beqz	x7,98c <.L128>
     7b4:	1ac38e63          	beq	x7,x12,970 <.L186>
     7b8:	00200613          	li	x12,2
     7bc:	18c38e63          	beq	x7,x12,958 <.L187>
     7c0:	00300e13          	li	x28,3
     7c4:	17c38e63          	beq	x7,x28,940 <.L188>
     7c8:	00400f13          	li	x30,4
     7cc:	15e38e63          	beq	x7,x30,928 <.L189>
     7d0:	00500993          	li	x19,5
     7d4:	13338e63          	beq	x7,x19,910 <.L190>
     7d8:	00600e93          	li	x29,6
     7dc:	11d38e63          	beq	x7,x29,8f8 <.L191>
     7e0:	00700293          	li	x5,7
     7e4:	0e538e63          	beq	x7,x5,8e0 <.L192>
     7e8:	00800f93          	li	x31,8
     7ec:	0df38e63          	beq	x7,x31,8c8 <.L193>
     7f0:	00900813          	li	x16,9
     7f4:	0b038e63          	beq	x7,x16,8b0 <.L194>
     7f8:	00a00713          	li	x14,10
     7fc:	08e38e63          	beq	x7,x14,898 <.L195>
     800:	00b00793          	li	x15,11
     804:	06f38e63          	beq	x7,x15,880 <.L196>
     808:	00c00893          	li	x17,12
     80c:	05138e63          	beq	x7,x17,868 <.L197>
     810:	00d00313          	li	x6,13
     814:	02638e63          	beq	x7,x6,850 <.L198>
     818:	00e00613          	li	x12,14
     81c:	00c38e63          	beq	x7,x12,838 <.L199>
     820:	00092087          	flw	f1,0(x18)
     824:	00150513          	addi	x10,x10,1
     828:	00d90933          	add	x18,x18,x13
     82c:	28a09153          	fmax.s	f2,f1,f10
     830:	0024a027          	fsw	f2,0(x9)
     834:	008484b3          	add	x9,x9,x8

00000838 <.L199>:
     838:	00092187          	flw	f3,0(x18)
     83c:	00150513          	addi	x10,x10,1
     840:	00d90933          	add	x18,x18,x13
     844:	28a19253          	fmax.s	f4,f3,f10
     848:	0044a027          	fsw	f4,0(x9)
     84c:	008484b3          	add	x9,x9,x8

00000850 <.L198>:
     850:	00092287          	flw	f5,0(x18)
     854:	00150513          	addi	x10,x10,1
     858:	00d90933          	add	x18,x18,x13
     85c:	28a29353          	fmax.s	f6,f5,f10
     860:	0064a027          	fsw	f6,0(x9)
     864:	008484b3          	add	x9,x9,x8

00000868 <.L197>:
     868:	00092387          	flw	f7,0(x18)
     86c:	00150513          	addi	x10,x10,1
     870:	00d90933          	add	x18,x18,x13
     874:	28a395d3          	fmax.s	f11,f7,f10
     878:	00b4a027          	fsw	f11,0(x9)
     87c:	008484b3          	add	x9,x9,x8

00000880 <.L196>:
     880:	00092607          	flw	f12,0(x18)
     884:	00150513          	addi	x10,x10,1
     888:	00d90933          	add	x18,x18,x13
     88c:	28a616d3          	fmax.s	f13,f12,f10
     890:	00d4a027          	fsw	f13,0(x9)
     894:	008484b3          	add	x9,x9,x8

00000898 <.L195>:
     898:	00092707          	flw	f14,0(x18)
     89c:	00150513          	addi	x10,x10,1
     8a0:	00d90933          	add	x18,x18,x13
     8a4:	28a71853          	fmax.s	f16,f14,f10
     8a8:	0104a027          	fsw	f16,0(x9)
     8ac:	008484b3          	add	x9,x9,x8

000008b0 <.L194>:
     8b0:	00092887          	flw	f17,0(x18)
     8b4:	00150513          	addi	x10,x10,1
     8b8:	00d90933          	add	x18,x18,x13
     8bc:	28a89e53          	fmax.s	f28,f17,f10
     8c0:	01c4a027          	fsw	f28,0(x9)
     8c4:	008484b3          	add	x9,x9,x8

000008c8 <.L193>:
     8c8:	00092e87          	flw	f29,0(x18)
     8cc:	00150513          	addi	x10,x10,1
     8d0:	00d90933          	add	x18,x18,x13
     8d4:	28ae9f53          	fmax.s	f30,f29,f10
     8d8:	01e4a027          	fsw	f30,0(x9)
     8dc:	008484b3          	add	x9,x9,x8

000008e0 <.L192>:
     8e0:	00092f87          	flw	f31,0(x18)
     8e4:	00150513          	addi	x10,x10,1
     8e8:	00d90933          	add	x18,x18,x13
     8ec:	28af97d3          	fmax.s	f15,f31,f10
     8f0:	00f4a027          	fsw	f15,0(x9)
     8f4:	008484b3          	add	x9,x9,x8

000008f8 <.L191>:
     8f8:	00092007          	flw	f0,0(x18)
     8fc:	00150513          	addi	x10,x10,1
     900:	00d90933          	add	x18,x18,x13
     904:	28a010d3          	fmax.s	f1,f0,f10
     908:	0014a027          	fsw	f1,0(x9)
     90c:	008484b3          	add	x9,x9,x8

00000910 <.L190>:
     910:	00092107          	flw	f2,0(x18)
     914:	00150513          	addi	x10,x10,1
     918:	00d90933          	add	x18,x18,x13
     91c:	28a111d3          	fmax.s	f3,f2,f10
     920:	0034a027          	fsw	f3,0(x9)
     924:	008484b3          	add	x9,x9,x8

00000928 <.L189>:
     928:	00092207          	flw	f4,0(x18)
     92c:	00150513          	addi	x10,x10,1
     930:	00d90933          	add	x18,x18,x13
     934:	28a212d3          	fmax.s	f5,f4,f10
     938:	0054a027          	fsw	f5,0(x9)
     93c:	008484b3          	add	x9,x9,x8

00000940 <.L188>:
     940:	00092307          	flw	f6,0(x18)
     944:	00150513          	addi	x10,x10,1
     948:	00d90933          	add	x18,x18,x13
     94c:	28a313d3          	fmax.s	f7,f6,f10
     950:	0074a027          	fsw	f7,0(x9)
     954:	008484b3          	add	x9,x9,x8

00000958 <.L187>:
     958:	00092587          	flw	f11,0(x18)
     95c:	00150513          	addi	x10,x10,1
     960:	00d90933          	add	x18,x18,x13
     964:	28a59653          	fmax.s	f12,f11,f10
     968:	00c4a027          	fsw	f12,0(x9)
     96c:	008484b3          	add	x9,x9,x8

00000970 <.L186>:
     970:	00092687          	flw	f13,0(x18)
     974:	00150513          	addi	x10,x10,1
     978:	00d90933          	add	x18,x18,x13
     97c:	28a69753          	fmax.s	f14,f13,f10
     980:	00e4a027          	fsw	f14,0(x9)
     984:	008484b3          	add	x9,x9,x8
     988:	dca58ae3          	beq	x11,x10,75c <.L125>

0000098c <.L128>:
     98c:	00092807          	flw	f16,0(x18)
     990:	00d903b3          	add	x7,x18,x13
     994:	00d38e33          	add	x28,x7,x13
     998:	0003a887          	flw	f17,0(x7)
     99c:	000e2e07          	flw	f28,0(x28)
     9a0:	00de0f33          	add	x30,x28,x13
     9a4:	00df09b3          	add	x19,x30,x13
     9a8:	28a81ed3          	fmax.s	f29,f16,f10
     9ac:	000f2f07          	flw	f30,0(x30)
     9b0:	0009a007          	flw	f0,0(x19)
     9b4:	00d98eb3          	add	x29,x19,x13
     9b8:	28a89fd3          	fmax.s	f31,f17,f10
     9bc:	00de82b3          	add	x5,x29,x13
     9c0:	28ae10d3          	fmax.s	f1,f28,f10
     9c4:	000ea107          	flw	f2,0(x29)
     9c8:	01d4a027          	fsw	f29,0(x9)
     9cc:	0002a187          	flw	f3,0(x5)
     9d0:	00848fb3          	add	x31,x9,x8
     9d4:	00d28833          	add	x16,x5,x13
     9d8:	28af17d3          	fmax.s	f15,f30,f10
     9dc:	01ffa027          	fsw	f31,0(x31)
     9e0:	00082287          	flw	f5,0(x16)
     9e4:	008f8733          	add	x14,x31,x8
     9e8:	00d808b3          	add	x17,x16,x13
     9ec:	28a01253          	fmax.s	f4,f0,f10
     9f0:	00172027          	fsw	f1,0(x14)
     9f4:	008707b3          	add	x15,x14,x8
     9f8:	00d88333          	add	x6,x17,x13
     9fc:	0008a387          	flw	f7,0(x17)
     a00:	28a11353          	fmax.s	f6,f2,f10
     a04:	00f7a027          	fsw	f15,0(x15)
     a08:	00878933          	add	x18,x15,x8
     a0c:	00d30633          	add	x12,x6,x13
     a10:	00032807          	flw	f16,0(x6)
     a14:	28a19653          	fmax.s	f12,f3,f10
     a18:	00492027          	fsw	f4,0(x18)
     a1c:	008904b3          	add	x9,x18,x8
     a20:	00062887          	flw	f17,0(x12)
     a24:	00d603b3          	add	x7,x12,x13
     a28:	28a296d3          	fmax.s	f13,f5,f10
     a2c:	0064a027          	fsw	f6,0(x9)
     a30:	00848e33          	add	x28,x9,x8
     a34:	00d38f33          	add	x30,x7,x13
     a38:	28a39753          	fmax.s	f14,f7,f10
     a3c:	0003a587          	flw	f11,0(x7)
     a40:	00ce2027          	fsw	f12,0(x28)
     a44:	008e09b3          	add	x19,x28,x8
     a48:	00df0eb3          	add	x29,x30,x13
     a4c:	28a81e53          	fmax.s	f28,f16,f10
     a50:	000f2e87          	flw	f29,0(x30)
     a54:	00d9a027          	fsw	f13,0(x19)
     a58:	008982b3          	add	x5,x19,x8
     a5c:	00de8fb3          	add	x31,x29,x13
     a60:	28a89f53          	fmax.s	f30,f17,f10
     a64:	000eaf87          	flw	f31,0(x29)
     a68:	00e2a027          	fsw	f14,0(x5)
     a6c:	00828833          	add	x16,x5,x8
     a70:	00df8733          	add	x14,x31,x13
     a74:	28a59053          	fmax.s	f0,f11,f10
     a78:	000fa087          	flw	f1,0(x31)
     a7c:	01c82027          	fsw	f28,0(x16)
     a80:	008808b3          	add	x17,x16,x8
     a84:	28ae9153          	fmax.s	f2,f29,f10
     a88:	00072787          	flw	f15,0(x14)
     a8c:	01e8a027          	fsw	f30,0(x17)
     a90:	008887b3          	add	x15,x17,x8
     a94:	28af91d3          	fmax.s	f3,f31,f10
     a98:	0007a027          	fsw	f0,0(x15)
     a9c:	00878333          	add	x6,x15,x8
     aa0:	28a09253          	fmax.s	f4,f1,f10
     aa4:	00232027          	fsw	f2,0(x6)
     aa8:	00830933          	add	x18,x6,x8
     aac:	28a792d3          	fmax.s	f5,f15,f10
     ab0:	00392027          	fsw	f3,0(x18)
     ab4:	00890633          	add	x12,x18,x8
     ab8:	008604b3          	add	x9,x12,x8
     abc:	00462027          	fsw	f4,0(x12)
     ac0:	0054a027          	fsw	f5,0(x9)
     ac4:	01050513          	addi	x10,x10,16
     ac8:	00d70933          	add	x18,x14,x13
     acc:	008484b3          	add	x9,x9,x8
     ad0:	eaa59ee3          	bne	x11,x10,98c <.L128>
     ad4:	c89ff06f          	j	75c <.L125>

00000ad8 <_Z21hb_tiled_foreach_implIfZ19tensorlib_clamp_maxEUlfE_JEEvjjT0_8HBTensorIT_Lln1EES4_PS3_S5_.isra.0>:
     ad8:	ff010113          	addi	x2,x2,-16
     adc:	00912423          	sw	x9,8(x2)
     ae0:	01212223          	sw	x18,4(x2)
     ae4:	00812623          	sw	x8,12(x2)
     ae8:	01312023          	sw	x19,0(x2)
     aec:	00100313          	li	x6,1
     af0:	01012483          	lw	x9,16(x2)
     af4:	01412903          	lw	x18,20(x2)
     af8:	0c660a63          	beq	x12,x6,bcc <.L282>
     afc:	0ab57463          	bgeu	x10,x11,ba4 <.L204>
     b00:	00279413          	slli	x8,x15,0x2
     b04:	00261393          	slli	x7,x12,0x2
     b08:	00888433          	add	x8,x17,x8
     b0c:	007703b3          	add	x7,x14,x7

00000b10 <.L213>:
     b10:	0a078a63          	beqz	x15,bc4 <.L214>
     b14:	00080f13          	mv	x30,x16
     b18:	00088313          	mv	x6,x17
     b1c:	00050e93          	mv	x29,x10
     b20:	00000293          	li	x5,0

00000b24 <.L210>:
     b24:	00032f83          	lw	x31,0(x6)
     b28:	000f2983          	lw	x19,0(x30)
     b2c:	00430313          	addi	x6,x6,4
     b30:	03fefe33          	remu	x28,x29,x31
     b34:	004f0f13          	addi	x30,x30,4
     b38:	033e09b3          	mul	x19,x28,x19
     b3c:	03fedeb3          	divu	x29,x29,x31
     b40:	013282b3          	add	x5,x5,x19
     b44:	fe6410e3          	bne	x8,x6,b24 <.L210>
     b48:	00229f93          	slli	x31,x5,0x2
     b4c:	01f902b3          	add	x5,x18,x31

00000b50 <.L209>:
     b50:	0002a787          	flw	f15,0(x5)
     b54:	06060463          	beqz	x12,bbc <.L215>
     b58:	00068f13          	mv	x30,x13
     b5c:	00070313          	mv	x6,x14
     b60:	00050e93          	mv	x29,x10
     b64:	00000293          	li	x5,0

00000b68 <.L212>:
     b68:	00032f83          	lw	x31,0(x6)
     b6c:	000f2983          	lw	x19,0(x30)
     b70:	00430313          	addi	x6,x6,4
     b74:	004f0f13          	addi	x30,x30,4
     b78:	03fefe33          	remu	x28,x29,x31
     b7c:	033e09b3          	mul	x19,x28,x19
     b80:	03fedeb3          	divu	x29,x29,x31
     b84:	013282b3          	add	x5,x5,x19
     b88:	fe6390e3          	bne	x7,x6,b68 <.L212>
     b8c:	00229f93          	slli	x31,x5,0x2
     b90:	01f48333          	add	x6,x9,x31

00000b94 <.L211>:
     b94:	28f50053          	fmin.s	f0,f10,f15
     b98:	00150513          	addi	x10,x10,1
     b9c:	00032027          	fsw	f0,0(x6)
     ba0:	f6a598e3          	bne	x11,x10,b10 <.L213>

00000ba4 <.L204>:
     ba4:	00c12403          	lw	x8,12(x2)
     ba8:	00812483          	lw	x9,8(x2)
     bac:	00412903          	lw	x18,4(x2)
     bb0:	00012983          	lw	x19,0(x2)
     bb4:	01010113          	addi	x2,x2,16
     bb8:	00008067          	ret

00000bbc <.L215>:
     bbc:	00048313          	mv	x6,x9
     bc0:	fd5ff06f          	j	b94 <.L211>

00000bc4 <.L214>:
     bc4:	00090293          	mv	x5,x18
     bc8:	f89ff06f          	j	b50 <.L209>

00000bcc <.L282>:
     bcc:	fcb57ce3          	bgeu	x10,x11,ba4 <.L204>
     bd0:	0006a703          	lw	x14,0(x13)
     bd4:	00082803          	lw	x16,0(x16)
     bd8:	40a587b3          	sub	x15,x11,x10
     bdc:	00271413          	slli	x8,x14,0x2
     be0:	00281693          	slli	x13,x16,0x2
     be4:	02d508b3          	mul	x17,x10,x13
     be8:	00f7f393          	andi	x7,x15,15
     bec:	02850333          	mul	x6,x10,x8
     bf0:	01190933          	add	x18,x18,x17
     bf4:	006484b3          	add	x9,x9,x6
     bf8:	1c038e63          	beqz	x7,dd4 <.L207>
     bfc:	1ac38e63          	beq	x7,x12,db8 <.L265>
     c00:	00200613          	li	x12,2
     c04:	18c38e63          	beq	x7,x12,da0 <.L266>
     c08:	00300e13          	li	x28,3
     c0c:	17c38e63          	beq	x7,x28,d88 <.L267>
     c10:	00400f13          	li	x30,4
     c14:	15e38e63          	beq	x7,x30,d70 <.L268>
     c18:	00500993          	li	x19,5
     c1c:	13338e63          	beq	x7,x19,d58 <.L269>
     c20:	00600e93          	li	x29,6
     c24:	11d38e63          	beq	x7,x29,d40 <.L270>
     c28:	00700293          	li	x5,7
     c2c:	0e538e63          	beq	x7,x5,d28 <.L271>
     c30:	00800f93          	li	x31,8
     c34:	0df38e63          	beq	x7,x31,d10 <.L272>
     c38:	00900813          	li	x16,9
     c3c:	0b038e63          	beq	x7,x16,cf8 <.L273>
     c40:	00a00713          	li	x14,10
     c44:	08e38e63          	beq	x7,x14,ce0 <.L274>
     c48:	00b00793          	li	x15,11
     c4c:	06f38e63          	beq	x7,x15,cc8 <.L275>
     c50:	00c00893          	li	x17,12
     c54:	05138e63          	beq	x7,x17,cb0 <.L276>
     c58:	00d00313          	li	x6,13
     c5c:	02638e63          	beq	x7,x6,c98 <.L277>
     c60:	00e00613          	li	x12,14
     c64:	00c38e63          	beq	x7,x12,c80 <.L278>
     c68:	00092087          	flw	f1,0(x18)
     c6c:	00150513          	addi	x10,x10,1
     c70:	00d90933          	add	x18,x18,x13
     c74:	28a08153          	fmin.s	f2,f1,f10
     c78:	0024a027          	fsw	f2,0(x9)
     c7c:	008484b3          	add	x9,x9,x8

00000c80 <.L278>:
     c80:	00092187          	flw	f3,0(x18)
     c84:	00150513          	addi	x10,x10,1
     c88:	00d90933          	add	x18,x18,x13
     c8c:	28a18253          	fmin.s	f4,f3,f10
     c90:	0044a027          	fsw	f4,0(x9)
     c94:	008484b3          	add	x9,x9,x8

00000c98 <.L277>:
     c98:	00092287          	flw	f5,0(x18)
     c9c:	00150513          	addi	x10,x10,1
     ca0:	00d90933          	add	x18,x18,x13
     ca4:	28a28353          	fmin.s	f6,f5,f10
     ca8:	0064a027          	fsw	f6,0(x9)
     cac:	008484b3          	add	x9,x9,x8

00000cb0 <.L276>:
     cb0:	00092387          	flw	f7,0(x18)
     cb4:	00150513          	addi	x10,x10,1
     cb8:	00d90933          	add	x18,x18,x13
     cbc:	28a385d3          	fmin.s	f11,f7,f10
     cc0:	00b4a027          	fsw	f11,0(x9)
     cc4:	008484b3          	add	x9,x9,x8

00000cc8 <.L275>:
     cc8:	00092607          	flw	f12,0(x18)
     ccc:	00150513          	addi	x10,x10,1
     cd0:	00d90933          	add	x18,x18,x13
     cd4:	28a606d3          	fmin.s	f13,f12,f10
     cd8:	00d4a027          	fsw	f13,0(x9)
     cdc:	008484b3          	add	x9,x9,x8

00000ce0 <.L274>:
     ce0:	00092707          	flw	f14,0(x18)
     ce4:	00150513          	addi	x10,x10,1
     ce8:	00d90933          	add	x18,x18,x13
     cec:	28a70853          	fmin.s	f16,f14,f10
     cf0:	0104a027          	fsw	f16,0(x9)
     cf4:	008484b3          	add	x9,x9,x8

00000cf8 <.L273>:
     cf8:	00092887          	flw	f17,0(x18)
     cfc:	00150513          	addi	x10,x10,1
     d00:	00d90933          	add	x18,x18,x13
     d04:	28a88e53          	fmin.s	f28,f17,f10
     d08:	01c4a027          	fsw	f28,0(x9)
     d0c:	008484b3          	add	x9,x9,x8

00000d10 <.L272>:
     d10:	00092e87          	flw	f29,0(x18)
     d14:	00150513          	addi	x10,x10,1
     d18:	00d90933          	add	x18,x18,x13
     d1c:	28ae8f53          	fmin.s	f30,f29,f10
     d20:	01e4a027          	fsw	f30,0(x9)
     d24:	008484b3          	add	x9,x9,x8

00000d28 <.L271>:
     d28:	00092f87          	flw	f31,0(x18)
     d2c:	00150513          	addi	x10,x10,1
     d30:	00d90933          	add	x18,x18,x13
     d34:	28af87d3          	fmin.s	f15,f31,f10
     d38:	00f4a027          	fsw	f15,0(x9)
     d3c:	008484b3          	add	x9,x9,x8

00000d40 <.L270>:
     d40:	00092007          	flw	f0,0(x18)
     d44:	00150513          	addi	x10,x10,1
     d48:	00d90933          	add	x18,x18,x13
     d4c:	28a000d3          	fmin.s	f1,f0,f10
     d50:	0014a027          	fsw	f1,0(x9)
     d54:	008484b3          	add	x9,x9,x8

00000d58 <.L269>:
     d58:	00092107          	flw	f2,0(x18)
     d5c:	00150513          	addi	x10,x10,1
     d60:	00d90933          	add	x18,x18,x13
     d64:	28a101d3          	fmin.s	f3,f2,f10
     d68:	0034a027          	fsw	f3,0(x9)
     d6c:	008484b3          	add	x9,x9,x8

00000d70 <.L268>:
     d70:	00092207          	flw	f4,0(x18)
     d74:	00150513          	addi	x10,x10,1
     d78:	00d90933          	add	x18,x18,x13
     d7c:	28a202d3          	fmin.s	f5,f4,f10
     d80:	0054a027          	fsw	f5,0(x9)
     d84:	008484b3          	add	x9,x9,x8

00000d88 <.L267>:
     d88:	00092307          	flw	f6,0(x18)
     d8c:	00150513          	addi	x10,x10,1
     d90:	00d90933          	add	x18,x18,x13
     d94:	28a303d3          	fmin.s	f7,f6,f10
     d98:	0074a027          	fsw	f7,0(x9)
     d9c:	008484b3          	add	x9,x9,x8

00000da0 <.L266>:
     da0:	00092587          	flw	f11,0(x18)
     da4:	00150513          	addi	x10,x10,1
     da8:	00d90933          	add	x18,x18,x13
     dac:	28a58653          	fmin.s	f12,f11,f10
     db0:	00c4a027          	fsw	f12,0(x9)
     db4:	008484b3          	add	x9,x9,x8

00000db8 <.L265>:
     db8:	00092687          	flw	f13,0(x18)
     dbc:	00150513          	addi	x10,x10,1
     dc0:	00d90933          	add	x18,x18,x13
     dc4:	28a68753          	fmin.s	f14,f13,f10
     dc8:	00e4a027          	fsw	f14,0(x9)
     dcc:	008484b3          	add	x9,x9,x8
     dd0:	dca58ae3          	beq	x11,x10,ba4 <.L204>

00000dd4 <.L207>:
     dd4:	00092807          	flw	f16,0(x18)
     dd8:	00d903b3          	add	x7,x18,x13
     ddc:	00d38e33          	add	x28,x7,x13
     de0:	0003a887          	flw	f17,0(x7)
     de4:	000e2e07          	flw	f28,0(x28)
     de8:	00de0f33          	add	x30,x28,x13
     dec:	00df09b3          	add	x19,x30,x13
     df0:	28a80ed3          	fmin.s	f29,f16,f10
     df4:	000f2f07          	flw	f30,0(x30)
     df8:	0009a007          	flw	f0,0(x19)
     dfc:	00d98eb3          	add	x29,x19,x13
     e00:	28a88fd3          	fmin.s	f31,f17,f10
     e04:	00de82b3          	add	x5,x29,x13
     e08:	28ae00d3          	fmin.s	f1,f28,f10
     e0c:	000ea107          	flw	f2,0(x29)
     e10:	01d4a027          	fsw	f29,0(x9)
     e14:	0002a187          	flw	f3,0(x5)
     e18:	00848fb3          	add	x31,x9,x8
     e1c:	00d28833          	add	x16,x5,x13
     e20:	28af07d3          	fmin.s	f15,f30,f10
     e24:	01ffa027          	fsw	f31,0(x31)
     e28:	00082287          	flw	f5,0(x16)
     e2c:	008f8733          	add	x14,x31,x8
     e30:	00d808b3          	add	x17,x16,x13
     e34:	28a00253          	fmin.s	f4,f0,f10
     e38:	00172027          	fsw	f1,0(x14)
     e3c:	008707b3          	add	x15,x14,x8
     e40:	00d88333          	add	x6,x17,x13
     e44:	0008a387          	flw	f7,0(x17)
     e48:	28a10353          	fmin.s	f6,f2,f10
     e4c:	00f7a027          	fsw	f15,0(x15)
     e50:	00878933          	add	x18,x15,x8
     e54:	00d30633          	add	x12,x6,x13
     e58:	00032807          	flw	f16,0(x6)
     e5c:	28a18653          	fmin.s	f12,f3,f10
     e60:	00492027          	fsw	f4,0(x18)
     e64:	008904b3          	add	x9,x18,x8
     e68:	00062887          	flw	f17,0(x12)
     e6c:	00d603b3          	add	x7,x12,x13
     e70:	28a286d3          	fmin.s	f13,f5,f10
     e74:	0064a027          	fsw	f6,0(x9)
     e78:	00848e33          	add	x28,x9,x8
     e7c:	00d38f33          	add	x30,x7,x13
     e80:	28a38753          	fmin.s	f14,f7,f10
     e84:	0003a587          	flw	f11,0(x7)
     e88:	00ce2027          	fsw	f12,0(x28)
     e8c:	008e09b3          	add	x19,x28,x8
     e90:	00df0eb3          	add	x29,x30,x13
     e94:	28a80e53          	fmin.s	f28,f16,f10
     e98:	000f2e87          	flw	f29,0(x30)
     e9c:	00d9a027          	fsw	f13,0(x19)
     ea0:	008982b3          	add	x5,x19,x8
     ea4:	00de8fb3          	add	x31,x29,x13
     ea8:	28a88f53          	fmin.s	f30,f17,f10
     eac:	000eaf87          	flw	f31,0(x29)
     eb0:	00e2a027          	fsw	f14,0(x5)
     eb4:	00828833          	add	x16,x5,x8
     eb8:	00df8733          	add	x14,x31,x13
     ebc:	28a58053          	fmin.s	f0,f11,f10
     ec0:	000fa087          	flw	f1,0(x31)
     ec4:	01c82027          	fsw	f28,0(x16)
     ec8:	008808b3          	add	x17,x16,x8
     ecc:	28ae8153          	fmin.s	f2,f29,f10
     ed0:	00072787          	flw	f15,0(x14)
     ed4:	01e8a027          	fsw	f30,0(x17)
     ed8:	008887b3          	add	x15,x17,x8
     edc:	28af81d3          	fmin.s	f3,f31,f10
     ee0:	0007a027          	fsw	f0,0(x15)
     ee4:	00878333          	add	x6,x15,x8
     ee8:	28a08253          	fmin.s	f4,f1,f10
     eec:	00232027          	fsw	f2,0(x6)
     ef0:	00830933          	add	x18,x6,x8
     ef4:	28a782d3          	fmin.s	f5,f15,f10
     ef8:	00392027          	fsw	f3,0(x18)
     efc:	00890633          	add	x12,x18,x8
     f00:	008604b3          	add	x9,x12,x8
     f04:	00462027          	fsw	f4,0(x12)
     f08:	0054a027          	fsw	f5,0(x9)
     f0c:	01050513          	addi	x10,x10,16
     f10:	00d70933          	add	x18,x14,x13
     f14:	008484b3          	add	x9,x9,x8
     f18:	eaa59ee3          	bne	x11,x10,dd4 <.L207>
     f1c:	c89ff06f          	j	ba4 <.L204>

00000f20 <tensorlib_clamp>:
     f20:	f4010113          	addi	x2,x2,-192
     f24:	00050793          	mv	x15,x10
     f28:	0a812c23          	sw	x8,184(x2)
     f2c:	02810513          	addi	x10,x2,40
     f30:	00058413          	mv	x8,x11
     f34:	00078593          	mv	x11,x15
     f38:	0a112e23          	sw	x1,188(x2)
     f3c:	0a912a23          	sw	x9,180(x2)
     f40:	0b212823          	sw	x18,176(x2)
     f44:	0b312623          	sw	x19,172(x2)
     f48:	0b412423          	sw	x20,168(x2)
     f4c:	0b512223          	sw	x21,164(x2)
     f50:	0b612023          	sw	x22,160(x2)
     f54:	00068a93          	mv	x21,x13
     f58:	00060b13          	mv	x22,x12
     f5c:	00000097          	auipc	x1,0x0
     f60:	000080e7          	jalr	x1 # f5c <tensorlib_clamp+0x3c>
     f64:	00040593          	mv	x11,x8
     f68:	06410513          	addi	x10,x2,100
     f6c:	00000097          	auipc	x1,0x0
     f70:	000080e7          	jalr	x1 # f6c <tensorlib_clamp+0x4c>
     f74:	00000a37          	lui	x20,0x0
     f78:	00000437          	lui	x8,0x0
     f7c:	000009b7          	lui	x19,0x0
     f80:	000004b7          	lui	x9,0x0
     f84:	000a2283          	lw	x5,0(x20) # 0 <_Z21hb_tiled_foreach_implIfZ15tensorlib_clampEUlfE_JEEvjjT0_8HBTensorIT_Lln1EES4_PS3_S5_.isra.0>
     f88:	00042603          	lw	x12,0(x8) # 0 <_Z21hb_tiled_foreach_implIfZ15tensorlib_clampEUlfE_JEEvjjT0_8HBTensorIT_Lln1EES4_PS3_S5_.isra.0>
     f8c:	0009a703          	lw	x14,0(x19) # 0 <_Z21hb_tiled_foreach_implIfZ15tensorlib_clampEUlfE_JEEvjjT0_8HBTensorIT_Lln1EES4_PS3_S5_.isra.0>
     f90:	0004a683          	lw	x13,0(x9) # 0 <_Z21hb_tiled_foreach_implIfZ15tensorlib_clampEUlfE_JEEvjjT0_8HBTensorIT_Lln1EES4_PS3_S5_.isra.0>
     f94:	00000937          	lui	x18,0x0
     f98:	00092583          	lw	x11,0(x18) # 0 <_Z21hb_tiled_foreach_implIfZ15tensorlib_clampEUlfE_JEEvjjT0_8HBTensorIT_Lln1EES4_PS3_S5_.isra.0>
     f9c:	00c28333          	add	x6,x5,x12
     fa0:	00d703b3          	add	x7,x14,x13
     fa4:	000b2707          	flw	f14,0(x22)
     fa8:	01831513          	slli	x10,x6,0x18
     fac:	01239813          	slli	x16,x7,0x12
     fb0:	3f0008b7          	lui	x17,0x3f000
     fb4:	00fc0eb7          	lui	x29,0xfc0
     fb8:	00040b37          	lui	x22,0x40
     fbc:	01157e33          	and	x28,x10,x17
     fc0:	01d87f33          	and	x30,x16,x29
     fc4:	000aa787          	flw	f15,0(x21)
     fc8:	00459f93          	slli	x31,x11,0x4
     fcc:	ff0b0a93          	addi	x21,x22,-16 # 3fff0 <.L434+0x3e644>
     fd0:	01ee67b3          	or	x15,x28,x30
     fd4:	015ff2b3          	and	x5,x31,x21
     fd8:	02812683          	lw	x13,40(x2)
     fdc:	0057e633          	or	x12,x15,x5
     fe0:	80000737          	lui	x14,0x80000
     fe4:	00e665b3          	or	x11,x12,x14
     fe8:	00e12c27          	fsw	f14,24(x2)
     fec:	00f12e27          	fsw	f15,28(x2)
     ff0:	41001337          	lui	x6,0x41001
     ff4:	d0b32623          	sw	x11,-756(x6) # 41000d0c <.L434+0x40fff360>
     ff8:	01810393          	addi	x7,x2,24
     ffc:	01c10513          	addi	x10,x2,28
    1000:	02712023          	sw	x7,32(x2)
    1004:	02a12223          	sw	x10,36(x2)
    1008:	fff68f93          	addi	x31,x13,-1
    100c:	ffd00b13          	li	x22,-3
    1010:	02c12703          	lw	x14,44(x2)
    1014:	03012783          	lw	x15,48(x2)
    1018:	03412803          	lw	x16,52(x2)
    101c:	03812e83          	lw	x29,56(x2)
    1020:	06812883          	lw	x17,104(x2)
    1024:	06c12a83          	lw	x21,108(x2)
    1028:	07012e03          	lw	x28,112(x2)
    102c:	07412f03          	lw	x30,116(x2)
    1030:	29fb6463          	bltu	x22,x31,12b8 <.L318>
    1034:	000000b7          	lui	x1,0x0
    1038:	0000a283          	lw	x5,0(x1) # 0 <_Z21hb_tiled_foreach_implIfZ15tensorlib_clampEUlfE_JEEvjjT0_8HBTensorIT_Lln1EES4_PS3_S5_.isra.0>
    103c:	0046d613          	srli	x12,x13,0x4
    1040:	00160593          	addi	x11,x12,1
    1044:	02558533          	mul	x10,x11,x5
    1048:	00a585b3          	add	x11,x11,x10
    104c:	26b6ec63          	bltu	x13,x11,12c4 <.L340>

00001050 <.L298>:
    1050:	26b57463          	bgeu	x10,x11,12b8 <.L318>

00001054 <.L297>:
    1054:	02012603          	lw	x12,32(x2)
    1058:	02412683          	lw	x13,36(x2)
    105c:	01e12623          	sw	x30,12(x2)
    1060:	01d12423          	sw	x29,8(x2)
    1064:	01c12223          	sw	x28,4(x2)
    1068:	01512023          	sw	x21,0(x2)
    106c:	00000097          	auipc	x1,0x0
    1070:	000080e7          	jalr	x1 # 106c <.L297+0x18>
    1074:	00042803          	lw	x16,0(x8)
    1078:	000a2a03          	lw	x20,0(x20)
    107c:	0009a983          	lw	x19,0(x19)
    1080:	0004a883          	lw	x17,0(x9)
    1084:	00092903          	lw	x18,0(x18)
    1088:	010a07b3          	add	x15,x20,x16
    108c:	011986b3          	add	x13,x19,x17
    1090:	01879313          	slli	x6,x15,0x18
    1094:	01269713          	slli	x14,x13,0x12
    1098:	3f0003b7          	lui	x7,0x3f000
    109c:	00fc0fb7          	lui	x31,0xfc0
    10a0:	00040e37          	lui	x28,0x40
    10a4:	00737533          	and	x10,x6,x7
    10a8:	01f77b33          	and	x22,x14,x31
    10ac:	00491e93          	slli	x29,x18,0x4
    10b0:	ff0e0f13          	addi	x30,x28,-16 # 3fff0 <.L434+0x3e644>
    10b4:	01656ab3          	or	x21,x10,x22
    10b8:	01eef2b3          	and	x5,x29,x30
    10bc:	005ae633          	or	x12,x21,x5
    10c0:	c00005b7          	lui	x11,0xc0000
    10c4:	00b66a33          	or	x20,x12,x11
    10c8:	41001837          	lui	x16,0x41001
    10cc:	d1482623          	sw	x20,-756(x16) # 41000d0c <.L434+0x40fff360>
    10d0:	0004a983          	lw	x19,0(x9)
    10d4:	00042883          	lw	x17,0(x8)
    10d8:	00000937          	lui	x18,0x0
    10dc:	00498693          	addi	x13,x19,4
    10e0:	00090793          	mv	x15,x18
    10e4:	00d78333          	add	x6,x15,x13
    10e8:	01889713          	slli	x14,x17,0x18
    10ec:	00e363b3          	or	x7,x6,x14
    10f0:	20040537          	lui	x10,0x20040
    10f4:	00a3efb3          	or	x31,x7,x10
    10f8:	00100b13          	li	x22,1
    10fc:	016f8023          	sb	x22,0(x31) # fc0000 <.L434+0xfbe654>
    1100:	0004ae83          	lw	x29,0(x9)
    1104:	056e8a63          	beq	x29,x22,1158 <.L300>

00001108 <.L312>:
    1108:	00100413          	li	x8,1
    110c:	0100006f          	j	111c <.L316>

00001110 <.L341>:
    1110:	00090f93          	mv	x31,x18
    1114:	140fa5af          	lr.w.aq	x11,(x31)
    1118:	00858863          	beq	x11,x8,1128 <.L315>

0000111c <.L316>:
    111c:	00090713          	mv	x14,x18
    1120:	1007252f          	lr.w	x10,(x14)
    1124:	fe8516e3          	bne	x10,x8,1110 <.L341>

00001128 <.L315>:
    1128:	0bc12083          	lw	x1,188(x2)
    112c:	0b812403          	lw	x8,184(x2)
    1130:	0007a023          	sw	x0,0(x15)
    1134:	0b412483          	lw	x9,180(x2)
    1138:	0b012903          	lw	x18,176(x2)
    113c:	0ac12983          	lw	x19,172(x2)
    1140:	0a812a03          	lw	x20,168(x2)
    1144:	0a412a83          	lw	x21,164(x2)
    1148:	0a012b03          	lw	x22,160(x2)
    114c:	00000513          	li	x10,0
    1150:	0c010113          	addi	x2,x2,192
    1154:	00008067          	ret

00001158 <.L300>:
    1158:	0047c083          	lbu	x1,4(x15)
    115c:	0ff0fa93          	andi	x21,x1,255
    1160:	fe0a8ce3          	beqz	x21,1158 <.L300>
    1164:	0057ce03          	lbu	x28,5(x15)
    1168:	0ffe7f13          	andi	x30,x28,255
    116c:	fe0f06e3          	beqz	x30,1158 <.L300>
    1170:	0067c283          	lbu	x5,6(x15)
    1174:	0ff2f613          	andi	x12,x5,255
    1178:	fe0600e3          	beqz	x12,1158 <.L300>
    117c:	0077c583          	lbu	x11,7(x15)
    1180:	0ff5fa13          	andi	x20,x11,255
    1184:	fc0a0ae3          	beqz	x20,1158 <.L300>
    1188:	00042803          	lw	x16,0(x8)
    118c:	21040337          	lui	x6,0x21040
    1190:	00100993          	li	x19,1
    1194:	00c80893          	addi	x17,x16,12
    1198:	011786b3          	add	x13,x15,x17
    119c:	0066e733          	or	x14,x13,x6
    11a0:	01370023          	sb	x19,0(x14) # 80000000 <.L434+0x7fffe654>
    11a4:	0004a383          	lw	x7,0(x9)
    11a8:	f73390e3          	bne	x7,x19,1108 <.L312>
    11ac:	00042303          	lw	x6,0(x8)
    11b0:	06730c63          	beq	x6,x7,1228 <.L306>

000011b4 <.L311>:
    11b4:	00100493          	li	x9,1
    11b8:	0100006f          	j	11c8 <.L305>

000011bc <.L342>:
    11bc:	00878093          	addi	x1,x15,8
    11c0:	1400aaaf          	lr.w.aq	x21,(x1)
    11c4:	009a8863          	beq	x21,x9,11d4 <.L313>

000011c8 <.L305>:
    11c8:	00878b13          	addi	x22,x15,8
    11cc:	100b2eaf          	lr.w	x29,(x22)
    11d0:	fe9e96e3          	bne	x29,x9,11bc <.L342>

000011d4 <.L313>:
    11d4:	0007a423          	sw	x0,8(x15)
    11d8:	00078223          	sb	x0,4(x15)
    11dc:	000782a3          	sb	x0,5(x15)
    11e0:	00078323          	sb	x0,6(x15)
    11e4:	000783a3          	sb	x0,7(x15)
    11e8:	0007a023          	sw	x0,0(x15)
    11ec:	00000613          	li	x12,0
    11f0:	00090793          	mv	x15,x18
    11f4:	20000e37          	lui	x28,0x20000
    11f8:	00100f13          	li	x30,1
    11fc:	000402b7          	lui	x5,0x40
    1200:	00100a37          	lui	x20,0x100

00001204 <.L314>:
    1204:	00042983          	lw	x19,0(x8)
    1208:	00c7e6b3          	or	x13,x15,x12
    120c:	00560633          	add	x12,x12,x5
    1210:	01899893          	slli	x17,x19,0x18
    1214:	00d8e833          	or	x16,x17,x13
    1218:	01c863b3          	or	x7,x16,x28
    121c:	01e3a023          	sw	x30,0(x7) # 3f000000 <.L434+0x3effe654>
    1220:	ff4612e3          	bne	x12,x20,1204 <.L314>
    1224:	ee5ff06f          	j	1108 <.L312>

00001228 <.L306>:
    1228:	00c7c503          	lbu	x10,12(x15)
    122c:	0ff57f93          	andi	x31,x10,255
    1230:	fe0f8ce3          	beqz	x31,1228 <.L306>
    1234:	00d7cb03          	lbu	x22,13(x15)
    1238:	0ffb7e93          	andi	x29,x22,255
    123c:	fe0e86e3          	beqz	x29,1228 <.L306>
    1240:	00e7c083          	lbu	x1,14(x15)
    1244:	0ff0fa93          	andi	x21,x1,255
    1248:	fe0a80e3          	beqz	x21,1228 <.L306>
    124c:	00f7ce03          	lbu	x28,15(x15)
    1250:	0ffe7f13          	andi	x30,x28,255
    1254:	fc0f0ae3          	beqz	x30,1228 <.L306>
    1258:	00078623          	sb	x0,12(x15)
    125c:	000786a3          	sb	x0,13(x15)
    1260:	00078723          	sb	x0,14(x15)
    1264:	000787a3          	sb	x0,15(x15)
    1268:	000002b7          	lui	x5,0x0
    126c:	0007a423          	sw	x0,8(x15)
    1270:	00000593          	li	x11,0
    1274:	00828613          	addi	x12,x5,8 # 8 <_Z21hb_tiled_foreach_implIfZ15tensorlib_clampEUlfE_JEEvjjT0_8HBTensorIT_Lln1EES4_PS3_S5_.isra.0+0x8>
    1278:	03fc0a37          	lui	x20,0x3fc0
    127c:	200009b7          	lui	x19,0x20000
    1280:	00100693          	li	x13,1
    1284:	010008b7          	lui	x17,0x1000
    1288:	04000837          	lui	x16,0x4000

0000128c <.L310>:
    128c:	01231313          	slli	x6,x6,0x12
    1290:	00b663b3          	or	x7,x12,x11
    1294:	01437733          	and	x14,x6,x20
    1298:	00776533          	or	x10,x14,x7
    129c:	01356fb3          	or	x31,x10,x19
    12a0:	00dfa023          	sw	x13,0(x31)
    12a4:	011585b3          	add	x11,x11,x17
    12a8:	0004a303          	lw	x6,0(x9)
    12ac:	ff0590e3          	bne	x11,x16,128c <.L310>
    12b0:	f0d302e3          	beq	x6,x13,11b4 <.L311>
    12b4:	e55ff06f          	j	1108 <.L312>

000012b8 <.L318>:
    12b8:	00000593          	li	x11,0
    12bc:	00000513          	li	x10,0
    12c0:	d95ff06f          	j	1054 <.L297>

000012c4 <.L340>:
    12c4:	00068593          	mv	x11,x13
    12c8:	d89ff06f          	j	1050 <.L298>

000012cc <tensorlib_clamp_min>:
    12cc:	f5010113          	addi	x2,x2,-176
    12d0:	00050793          	mv	x15,x10
    12d4:	0a812423          	sw	x8,168(x2)
    12d8:	01810513          	addi	x10,x2,24
    12dc:	00058413          	mv	x8,x11
    12e0:	00078593          	mv	x11,x15
    12e4:	0a112623          	sw	x1,172(x2)
    12e8:	0a912223          	sw	x9,164(x2)
    12ec:	0b212023          	sw	x18,160(x2)
    12f0:	09312e23          	sw	x19,156(x2)
    12f4:	09412c23          	sw	x20,152(x2)
    12f8:	09512a23          	sw	x21,148(x2)
    12fc:	00060a93          	mv	x21,x12
    1300:	00000097          	auipc	x1,0x0
    1304:	000080e7          	jalr	x1 # 1300 <tensorlib_clamp_min+0x34>
    1308:	00040593          	mv	x11,x8
    130c:	05410513          	addi	x10,x2,84
    1310:	00000097          	auipc	x1,0x0
    1314:	000080e7          	jalr	x1 # 1310 <tensorlib_clamp_min+0x44>
    1318:	00000a37          	lui	x20,0x0
    131c:	00000437          	lui	x8,0x0
    1320:	000009b7          	lui	x19,0x0
    1324:	000004b7          	lui	x9,0x0
    1328:	000a2283          	lw	x5,0(x20) # 0 <_Z21hb_tiled_foreach_implIfZ15tensorlib_clampEUlfE_JEEvjjT0_8HBTensorIT_Lln1EES4_PS3_S5_.isra.0>
    132c:	00042583          	lw	x11,0(x8) # 0 <_Z21hb_tiled_foreach_implIfZ15tensorlib_clampEUlfE_JEEvjjT0_8HBTensorIT_Lln1EES4_PS3_S5_.isra.0>
    1330:	0009a703          	lw	x14,0(x19) # 0 <_Z21hb_tiled_foreach_implIfZ15tensorlib_clampEUlfE_JEEvjjT0_8HBTensorIT_Lln1EES4_PS3_S5_.isra.0>
    1334:	0004a603          	lw	x12,0(x9) # 0 <_Z21hb_tiled_foreach_implIfZ15tensorlib_clampEUlfE_JEEvjjT0_8HBTensorIT_Lln1EES4_PS3_S5_.isra.0>
    1338:	00000937          	lui	x18,0x0
    133c:	00092683          	lw	x13,0(x18) # 0 <_Z21hb_tiled_foreach_implIfZ15tensorlib_clampEUlfE_JEEvjjT0_8HBTensorIT_Lln1EES4_PS3_S5_.isra.0>
    1340:	00b28333          	add	x6,x5,x11
    1344:	00c703b3          	add	x7,x14,x12
    1348:	01831513          	slli	x10,x6,0x18
    134c:	01239813          	slli	x16,x7,0x12
    1350:	3f0008b7          	lui	x17,0x3f000
    1354:	00fc0eb7          	lui	x29,0xfc0
    1358:	000405b7          	lui	x11,0x40
    135c:	01157e33          	and	x28,x10,x17
    1360:	01d87f33          	and	x30,x16,x29
    1364:	00469f93          	slli	x31,x13,0x4
    1368:	ff058713          	addi	x14,x11,-16 # 3fff0 <.L434+0x3e644>
    136c:	01ee67b3          	or	x15,x28,x30
    1370:	00eff633          	and	x12,x31,x14
    1374:	01812283          	lw	x5,24(x2)
    1378:	00c7e6b3          	or	x13,x15,x12
    137c:	80000337          	lui	x6,0x80000
    1380:	0066e3b3          	or	x7,x13,x6
    1384:	41001537          	lui	x10,0x41001
    1388:	000aa507          	flw	f10,0(x21)
    138c:	ffd00f13          	li	x30,-3
    1390:	fff28a93          	addi	x21,x5,-1
    1394:	d0752623          	sw	x7,-756(x10) # 41000d0c <.L434+0x40fff360>
    1398:	01c12603          	lw	x12,28(x2)
    139c:	02012683          	lw	x13,32(x2)
    13a0:	02412703          	lw	x14,36(x2)
    13a4:	02812e03          	lw	x28,40(x2)
    13a8:	05812783          	lw	x15,88(x2)
    13ac:	05c12803          	lw	x16,92(x2)
    13b0:	06012883          	lw	x17,96(x2)
    13b4:	06412e83          	lw	x29,100(x2)
    13b8:	275f6a63          	bltu	x30,x21,162c <.L365>
    13bc:	000000b7          	lui	x1,0x0
    13c0:	0000af83          	lw	x31,0(x1) # 0 <_Z21hb_tiled_foreach_implIfZ15tensorlib_clampEUlfE_JEEvjjT0_8HBTensorIT_Lln1EES4_PS3_S5_.isra.0>
    13c4:	0042d593          	srli	x11,x5,0x4
    13c8:	00158313          	addi	x6,x11,1
    13cc:	03f30533          	mul	x10,x6,x31
    13d0:	00a305b3          	add	x11,x6,x10
    13d4:	26b2e263          	bltu	x5,x11,1638 <.L387>

000013d8 <.L345>:
    13d8:	24b57a63          	bgeu	x10,x11,162c <.L365>

000013dc <.L344>:
    13dc:	01d12223          	sw	x29,4(x2)
    13e0:	01c12023          	sw	x28,0(x2)
    13e4:	00000097          	auipc	x1,0x0
    13e8:	000080e7          	jalr	x1 # 13e4 <.L344+0x8>
    13ec:	00042803          	lw	x16,0(x8)
    13f0:	000a2a03          	lw	x20,0(x20)
    13f4:	0009a983          	lw	x19,0(x19)
    13f8:	0004a883          	lw	x17,0(x9)
    13fc:	00092903          	lw	x18,0(x18)
    1400:	010a02b3          	add	x5,x20,x16
    1404:	01198733          	add	x14,x19,x17
    1408:	01829793          	slli	x15,x5,0x18
    140c:	01271693          	slli	x13,x14,0x12
    1410:	3f000637          	lui	x12,0x3f000
    1414:	00fc0ab7          	lui	x21,0xfc0
    1418:	00040eb7          	lui	x29,0x40
    141c:	00c7f3b3          	and	x7,x15,x12
    1420:	0156f533          	and	x10,x13,x21
    1424:	00491f13          	slli	x30,x18,0x4
    1428:	ff0e8f93          	addi	x31,x29,-16 # 3fff0 <.L434+0x3e644>
    142c:	00a3ee33          	or	x28,x7,x10
    1430:	01ff75b3          	and	x11,x30,x31
    1434:	00be6333          	or	x6,x28,x11
    1438:	c0000a37          	lui	x20,0xc0000
    143c:	01436833          	or	x16,x6,x20
    1440:	410019b7          	lui	x19,0x41001
    1444:	d109a623          	sw	x16,-756(x19) # 41000d0c <.L434+0x40fff360>
    1448:	0004a883          	lw	x17,0(x9)
    144c:	00042903          	lw	x18,0(x8)
    1450:	000002b7          	lui	x5,0x0
    1454:	00488713          	addi	x14,x17,4 # 3f000004 <.L434+0x3effe658>
    1458:	00028793          	mv	x15,x5
    145c:	00e786b3          	add	x13,x15,x14
    1460:	01891613          	slli	x12,x18,0x18
    1464:	00c6e3b3          	or	x7,x13,x12
    1468:	20040ab7          	lui	x21,0x20040
    146c:	0153e533          	or	x10,x7,x21
    1470:	00100f13          	li	x30,1
    1474:	01e50023          	sb	x30,0(x10)
    1478:	0004ae03          	lw	x28,0(x9)
    147c:	05ee0863          	beq	x28,x30,14cc <.L347>

00001480 <.L359>:
    1480:	00100413          	li	x8,1
    1484:	0100006f          	j	1494 <.L363>

00001488 <.L388>:
    1488:	00028e13          	mv	x28,x5
    148c:	140e272f          	lr.w.aq	x14,(x28)
    1490:	00870863          	beq	x14,x8,14a0 <.L362>

00001494 <.L363>:
    1494:	00028513          	mv	x10,x5
    1498:	10052f2f          	lr.w	x30,(x10)
    149c:	fe8f16e3          	bne	x30,x8,1488 <.L388>

000014a0 <.L362>:
    14a0:	0ac12083          	lw	x1,172(x2)
    14a4:	0a812403          	lw	x8,168(x2)
    14a8:	0007a023          	sw	x0,0(x15)
    14ac:	0a412483          	lw	x9,164(x2)
    14b0:	0a012903          	lw	x18,160(x2)
    14b4:	09c12983          	lw	x19,156(x2)
    14b8:	09812a03          	lw	x20,152(x2)
    14bc:	09412a83          	lw	x21,148(x2)
    14c0:	00000513          	li	x10,0
    14c4:	0b010113          	addi	x2,x2,176
    14c8:	00008067          	ret

000014cc <.L347>:
    14cc:	0047c083          	lbu	x1,4(x15)
    14d0:	0ff0fe93          	andi	x29,x1,255
    14d4:	fe0e8ce3          	beqz	x29,14cc <.L347>
    14d8:	0057cf83          	lbu	x31,5(x15)
    14dc:	0ffff593          	andi	x11,x31,255
    14e0:	fe0586e3          	beqz	x11,14cc <.L347>
    14e4:	0067c303          	lbu	x6,6(x15)
    14e8:	0ff37a13          	andi	x20,x6,255
    14ec:	fe0a00e3          	beqz	x20,14cc <.L347>
    14f0:	0077c803          	lbu	x16,7(x15)
    14f4:	0ff87993          	andi	x19,x16,255
    14f8:	fc098ae3          	beqz	x19,14cc <.L347>
    14fc:	00042883          	lw	x17,0(x8)
    1500:	21040637          	lui	x12,0x21040
    1504:	00100913          	li	x18,1
    1508:	00c88713          	addi	x14,x17,12
    150c:	00e786b3          	add	x13,x15,x14
    1510:	00c6e3b3          	or	x7,x13,x12
    1514:	01238023          	sb	x18,0(x7)
    1518:	0004aa83          	lw	x21,0(x9)
    151c:	f72a92e3          	bne	x21,x18,1480 <.L359>
    1520:	00042703          	lw	x14,0(x8)
    1524:	07570c63          	beq	x14,x21,159c <.L353>

00001528 <.L358>:
    1528:	00100493          	li	x9,1
    152c:	0100006f          	j	153c <.L352>

00001530 <.L389>:
    1530:	00878f93          	addi	x31,x15,8
    1534:	140fa5af          	lr.w.aq	x11,(x31)
    1538:	00958863          	beq	x11,x9,1548 <.L360>

0000153c <.L352>:
    153c:	00878093          	addi	x1,x15,8
    1540:	1000aeaf          	lr.w	x29,(x1)
    1544:	fe9e96e3          	bne	x29,x9,1530 <.L389>

00001548 <.L360>:
    1548:	0007a423          	sw	x0,8(x15)
    154c:	00078223          	sb	x0,4(x15)
    1550:	000782a3          	sb	x0,5(x15)
    1554:	00078323          	sb	x0,6(x15)
    1558:	000783a3          	sb	x0,7(x15)
    155c:	0007a023          	sw	x0,0(x15)
    1560:	00000613          	li	x12,0
    1564:	00028793          	mv	x15,x5
    1568:	20000337          	lui	x6,0x20000
    156c:	00100a13          	li	x20,1
    1570:	000409b7          	lui	x19,0x40
    1574:	00100937          	lui	x18,0x100

00001578 <.L361>:
    1578:	00042683          	lw	x13,0(x8)
    157c:	00c7e8b3          	or	x17,x15,x12
    1580:	01360633          	add	x12,x12,x19
    1584:	01869813          	slli	x16,x13,0x18
    1588:	011863b3          	or	x7,x16,x17
    158c:	0063eab3          	or	x21,x7,x6
    1590:	014aa023          	sw	x20,0(x21) # 20040000 <.L434+0x2003e654>
    1594:	ff2612e3          	bne	x12,x18,1578 <.L361>
    1598:	ee9ff06f          	j	1480 <.L359>

0000159c <.L353>:
    159c:	00c7c503          	lbu	x10,12(x15)
    15a0:	0ff57f13          	andi	x30,x10,255
    15a4:	fe0f0ce3          	beqz	x30,159c <.L353>
    15a8:	00d7ce03          	lbu	x28,13(x15)
    15ac:	0ffe7093          	andi	x1,x28,255
    15b0:	fe0086e3          	beqz	x1,159c <.L353>
    15b4:	00e7ce83          	lbu	x29,14(x15)
    15b8:	0ffeff93          	andi	x31,x29,255
    15bc:	fe0f80e3          	beqz	x31,159c <.L353>
    15c0:	00f7c583          	lbu	x11,15(x15)
    15c4:	0ff5f313          	andi	x6,x11,255
    15c8:	fc030ae3          	beqz	x6,159c <.L353>
    15cc:	00078623          	sb	x0,12(x15)
    15d0:	000786a3          	sb	x0,13(x15)
    15d4:	00078723          	sb	x0,14(x15)
    15d8:	000787a3          	sb	x0,15(x15)
    15dc:	00000a37          	lui	x20,0x0
    15e0:	0007a423          	sw	x0,8(x15)
    15e4:	00000e13          	li	x28,0
    15e8:	008a0993          	addi	x19,x20,8 # 8 <_Z21hb_tiled_foreach_implIfZ15tensorlib_clampEUlfE_JEEvjjT0_8HBTensorIT_Lln1EES4_PS3_S5_.isra.0+0x8>
    15ec:	03fc0937          	lui	x18,0x3fc0
    15f0:	200006b7          	lui	x13,0x20000
    15f4:	00100613          	li	x12,1
    15f8:	010008b7          	lui	x17,0x1000
    15fc:	04000837          	lui	x16,0x4000

00001600 <.L357>:
    1600:	01271713          	slli	x14,x14,0x12
    1604:	01c9e3b3          	or	x7,x19,x28
    1608:	01277ab3          	and	x21,x14,x18
    160c:	007ae533          	or	x10,x21,x7
    1610:	00d56f33          	or	x30,x10,x13
    1614:	00cf2023          	sw	x12,0(x30)
    1618:	011e0e33          	add	x28,x28,x17
    161c:	0004a703          	lw	x14,0(x9)
    1620:	ff0e10e3          	bne	x28,x16,1600 <.L357>
    1624:	f0c702e3          	beq	x14,x12,1528 <.L358>
    1628:	e59ff06f          	j	1480 <.L359>

0000162c <.L365>:
    162c:	00000593          	li	x11,0
    1630:	00000513          	li	x10,0
    1634:	da9ff06f          	j	13dc <.L344>

00001638 <.L387>:
    1638:	00028593          	mv	x11,x5
    163c:	d9dff06f          	j	13d8 <.L345>

00001640 <tensorlib_clamp_max>:
    1640:	f5010113          	addi	x2,x2,-176
    1644:	00050793          	mv	x15,x10
    1648:	0a812423          	sw	x8,168(x2)
    164c:	01810513          	addi	x10,x2,24
    1650:	00058413          	mv	x8,x11
    1654:	00078593          	mv	x11,x15
    1658:	0a112623          	sw	x1,172(x2)
    165c:	0a912223          	sw	x9,164(x2)
    1660:	0b212023          	sw	x18,160(x2)
    1664:	09312e23          	sw	x19,156(x2)
    1668:	09412c23          	sw	x20,152(x2)
    166c:	09512a23          	sw	x21,148(x2)
    1670:	00060a93          	mv	x21,x12
    1674:	00000097          	auipc	x1,0x0
    1678:	000080e7          	jalr	x1 # 1674 <tensorlib_clamp_max+0x34>
    167c:	00040593          	mv	x11,x8
    1680:	05410513          	addi	x10,x2,84
    1684:	00000097          	auipc	x1,0x0
    1688:	000080e7          	jalr	x1 # 1684 <tensorlib_clamp_max+0x44>
    168c:	00000a37          	lui	x20,0x0
    1690:	00000437          	lui	x8,0x0
    1694:	000009b7          	lui	x19,0x0
    1698:	000004b7          	lui	x9,0x0
    169c:	000a2283          	lw	x5,0(x20) # 0 <_Z21hb_tiled_foreach_implIfZ15tensorlib_clampEUlfE_JEEvjjT0_8HBTensorIT_Lln1EES4_PS3_S5_.isra.0>
    16a0:	00042583          	lw	x11,0(x8) # 0 <_Z21hb_tiled_foreach_implIfZ15tensorlib_clampEUlfE_JEEvjjT0_8HBTensorIT_Lln1EES4_PS3_S5_.isra.0>
    16a4:	0009a703          	lw	x14,0(x19) # 0 <_Z21hb_tiled_foreach_implIfZ15tensorlib_clampEUlfE_JEEvjjT0_8HBTensorIT_Lln1EES4_PS3_S5_.isra.0>
    16a8:	0004a603          	lw	x12,0(x9) # 0 <_Z21hb_tiled_foreach_implIfZ15tensorlib_clampEUlfE_JEEvjjT0_8HBTensorIT_Lln1EES4_PS3_S5_.isra.0>
    16ac:	00000937          	lui	x18,0x0
    16b0:	00092683          	lw	x13,0(x18) # 0 <_Z21hb_tiled_foreach_implIfZ15tensorlib_clampEUlfE_JEEvjjT0_8HBTensorIT_Lln1EES4_PS3_S5_.isra.0>
    16b4:	00b28333          	add	x6,x5,x11
    16b8:	00c703b3          	add	x7,x14,x12
    16bc:	01831513          	slli	x10,x6,0x18
    16c0:	01239813          	slli	x16,x7,0x12
    16c4:	3f0008b7          	lui	x17,0x3f000
    16c8:	00fc0eb7          	lui	x29,0xfc0
    16cc:	000405b7          	lui	x11,0x40
    16d0:	01157e33          	and	x28,x10,x17
    16d4:	01d87f33          	and	x30,x16,x29
    16d8:	00469f93          	slli	x31,x13,0x4
    16dc:	ff058713          	addi	x14,x11,-16 # 3fff0 <.L434+0x3e644>
    16e0:	01ee67b3          	or	x15,x28,x30
    16e4:	00eff633          	and	x12,x31,x14
    16e8:	01812283          	lw	x5,24(x2)
    16ec:	00c7e6b3          	or	x13,x15,x12
    16f0:	80000337          	lui	x6,0x80000
    16f4:	0066e3b3          	or	x7,x13,x6
    16f8:	41001537          	lui	x10,0x41001
    16fc:	000aa507          	flw	f10,0(x21)
    1700:	ffd00f13          	li	x30,-3
    1704:	fff28a93          	addi	x21,x5,-1
    1708:	d0752623          	sw	x7,-756(x10) # 41000d0c <.L434+0x40fff360>
    170c:	01c12603          	lw	x12,28(x2)
    1710:	02012683          	lw	x13,32(x2)
    1714:	02412703          	lw	x14,36(x2)
    1718:	02812e03          	lw	x28,40(x2)
    171c:	05812783          	lw	x15,88(x2)
    1720:	05c12803          	lw	x16,92(x2)
    1724:	06012883          	lw	x17,96(x2)
    1728:	06412e83          	lw	x29,100(x2)
    172c:	275f6a63          	bltu	x30,x21,19a0 <.L412>
    1730:	000000b7          	lui	x1,0x0
    1734:	0000af83          	lw	x31,0(x1) # 0 <_Z21hb_tiled_foreach_implIfZ15tensorlib_clampEUlfE_JEEvjjT0_8HBTensorIT_Lln1EES4_PS3_S5_.isra.0>
    1738:	0042d593          	srli	x11,x5,0x4
    173c:	00158313          	addi	x6,x11,1
    1740:	03f30533          	mul	x10,x6,x31
    1744:	00a305b3          	add	x11,x6,x10
    1748:	26b2e263          	bltu	x5,x11,19ac <.L434>

0000174c <.L392>:
    174c:	24b57a63          	bgeu	x10,x11,19a0 <.L412>

00001750 <.L391>:
    1750:	01d12223          	sw	x29,4(x2)
    1754:	01c12023          	sw	x28,0(x2)
    1758:	00000097          	auipc	x1,0x0
    175c:	000080e7          	jalr	x1 # 1758 <.L391+0x8>
    1760:	00042803          	lw	x16,0(x8)
    1764:	000a2a03          	lw	x20,0(x20)
    1768:	0009a983          	lw	x19,0(x19)
    176c:	0004a883          	lw	x17,0(x9)
    1770:	00092903          	lw	x18,0(x18)
    1774:	010a02b3          	add	x5,x20,x16
    1778:	01198733          	add	x14,x19,x17
    177c:	01829793          	slli	x15,x5,0x18
    1780:	01271693          	slli	x13,x14,0x12
    1784:	3f000637          	lui	x12,0x3f000
    1788:	00fc0ab7          	lui	x21,0xfc0
    178c:	00040eb7          	lui	x29,0x40
    1790:	00c7f3b3          	and	x7,x15,x12
    1794:	0156f533          	and	x10,x13,x21
    1798:	00491f13          	slli	x30,x18,0x4
    179c:	ff0e8f93          	addi	x31,x29,-16 # 3fff0 <.L434+0x3e644>
    17a0:	00a3ee33          	or	x28,x7,x10
    17a4:	01ff75b3          	and	x11,x30,x31
    17a8:	00be6333          	or	x6,x28,x11
    17ac:	c0000a37          	lui	x20,0xc0000
    17b0:	01436833          	or	x16,x6,x20
    17b4:	410019b7          	lui	x19,0x41001
    17b8:	d109a623          	sw	x16,-756(x19) # 41000d0c <.L434+0x40fff360>
    17bc:	0004a883          	lw	x17,0(x9)
    17c0:	00042903          	lw	x18,0(x8)
    17c4:	000002b7          	lui	x5,0x0
    17c8:	00488713          	addi	x14,x17,4 # 3f000004 <.L434+0x3effe658>
    17cc:	00028793          	mv	x15,x5
    17d0:	00e786b3          	add	x13,x15,x14
    17d4:	01891613          	slli	x12,x18,0x18
    17d8:	00c6e3b3          	or	x7,x13,x12
    17dc:	20040ab7          	lui	x21,0x20040
    17e0:	0153e533          	or	x10,x7,x21
    17e4:	00100f13          	li	x30,1
    17e8:	01e50023          	sb	x30,0(x10)
    17ec:	0004ae03          	lw	x28,0(x9)
    17f0:	05ee0863          	beq	x28,x30,1840 <.L394>

000017f4 <.L406>:
    17f4:	00100413          	li	x8,1
    17f8:	0100006f          	j	1808 <.L410>

000017fc <.L435>:
    17fc:	00028e13          	mv	x28,x5
    1800:	140e272f          	lr.w.aq	x14,(x28)
    1804:	00870863          	beq	x14,x8,1814 <.L409>

00001808 <.L410>:
    1808:	00028513          	mv	x10,x5
    180c:	10052f2f          	lr.w	x30,(x10)
    1810:	fe8f16e3          	bne	x30,x8,17fc <.L435>

00001814 <.L409>:
    1814:	0ac12083          	lw	x1,172(x2)
    1818:	0a812403          	lw	x8,168(x2)
    181c:	0007a023          	sw	x0,0(x15)
    1820:	0a412483          	lw	x9,164(x2)
    1824:	0a012903          	lw	x18,160(x2)
    1828:	09c12983          	lw	x19,156(x2)
    182c:	09812a03          	lw	x20,152(x2)
    1830:	09412a83          	lw	x21,148(x2)
    1834:	00000513          	li	x10,0
    1838:	0b010113          	addi	x2,x2,176
    183c:	00008067          	ret

00001840 <.L394>:
    1840:	0047c083          	lbu	x1,4(x15)
    1844:	0ff0fe93          	andi	x29,x1,255
    1848:	fe0e8ce3          	beqz	x29,1840 <.L394>
    184c:	0057cf83          	lbu	x31,5(x15)
    1850:	0ffff593          	andi	x11,x31,255
    1854:	fe0586e3          	beqz	x11,1840 <.L394>
    1858:	0067c303          	lbu	x6,6(x15)
    185c:	0ff37a13          	andi	x20,x6,255
    1860:	fe0a00e3          	beqz	x20,1840 <.L394>
    1864:	0077c803          	lbu	x16,7(x15)
    1868:	0ff87993          	andi	x19,x16,255
    186c:	fc098ae3          	beqz	x19,1840 <.L394>
    1870:	00042883          	lw	x17,0(x8)
    1874:	21040637          	lui	x12,0x21040
    1878:	00100913          	li	x18,1
    187c:	00c88713          	addi	x14,x17,12
    1880:	00e786b3          	add	x13,x15,x14
    1884:	00c6e3b3          	or	x7,x13,x12
    1888:	01238023          	sb	x18,0(x7)
    188c:	0004aa83          	lw	x21,0(x9)
    1890:	f72a92e3          	bne	x21,x18,17f4 <.L406>
    1894:	00042703          	lw	x14,0(x8)
    1898:	07570c63          	beq	x14,x21,1910 <.L400>

0000189c <.L405>:
    189c:	00100493          	li	x9,1
    18a0:	0100006f          	j	18b0 <.L399>

000018a4 <.L436>:
    18a4:	00878f93          	addi	x31,x15,8
    18a8:	140fa5af          	lr.w.aq	x11,(x31)
    18ac:	00958863          	beq	x11,x9,18bc <.L407>

000018b0 <.L399>:
    18b0:	00878093          	addi	x1,x15,8
    18b4:	1000aeaf          	lr.w	x29,(x1)
    18b8:	fe9e96e3          	bne	x29,x9,18a4 <.L436>

000018bc <.L407>:
    18bc:	0007a423          	sw	x0,8(x15)
    18c0:	00078223          	sb	x0,4(x15)
    18c4:	000782a3          	sb	x0,5(x15)
    18c8:	00078323          	sb	x0,6(x15)
    18cc:	000783a3          	sb	x0,7(x15)
    18d0:	0007a023          	sw	x0,0(x15)
    18d4:	00000613          	li	x12,0
    18d8:	00028793          	mv	x15,x5
    18dc:	20000337          	lui	x6,0x20000
    18e0:	00100a13          	li	x20,1
    18e4:	000409b7          	lui	x19,0x40
    18e8:	00100937          	lui	x18,0x100

000018ec <.L408>:
    18ec:	00042683          	lw	x13,0(x8)
    18f0:	00c7e8b3          	or	x17,x15,x12
    18f4:	01360633          	add	x12,x12,x19
    18f8:	01869813          	slli	x16,x13,0x18
    18fc:	011863b3          	or	x7,x16,x17
    1900:	0063eab3          	or	x21,x7,x6
    1904:	014aa023          	sw	x20,0(x21) # 20040000 <.L434+0x2003e654>
    1908:	ff2612e3          	bne	x12,x18,18ec <.L408>
    190c:	ee9ff06f          	j	17f4 <.L406>

00001910 <.L400>:
    1910:	00c7c503          	lbu	x10,12(x15)
    1914:	0ff57f13          	andi	x30,x10,255
    1918:	fe0f0ce3          	beqz	x30,1910 <.L400>
    191c:	00d7ce03          	lbu	x28,13(x15)
    1920:	0ffe7093          	andi	x1,x28,255
    1924:	fe0086e3          	beqz	x1,1910 <.L400>
    1928:	00e7ce83          	lbu	x29,14(x15)
    192c:	0ffeff93          	andi	x31,x29,255
    1930:	fe0f80e3          	beqz	x31,1910 <.L400>
    1934:	00f7c583          	lbu	x11,15(x15)
    1938:	0ff5f313          	andi	x6,x11,255
    193c:	fc030ae3          	beqz	x6,1910 <.L400>
    1940:	00078623          	sb	x0,12(x15)
    1944:	000786a3          	sb	x0,13(x15)
    1948:	00078723          	sb	x0,14(x15)
    194c:	000787a3          	sb	x0,15(x15)
    1950:	00000a37          	lui	x20,0x0
    1954:	0007a423          	sw	x0,8(x15)
    1958:	00000e13          	li	x28,0
    195c:	008a0993          	addi	x19,x20,8 # 8 <_Z21hb_tiled_foreach_implIfZ15tensorlib_clampEUlfE_JEEvjjT0_8HBTensorIT_Lln1EES4_PS3_S5_.isra.0+0x8>
    1960:	03fc0937          	lui	x18,0x3fc0
    1964:	200006b7          	lui	x13,0x20000
    1968:	00100613          	li	x12,1
    196c:	010008b7          	lui	x17,0x1000
    1970:	04000837          	lui	x16,0x4000

00001974 <.L404>:
    1974:	01271713          	slli	x14,x14,0x12
    1978:	01c9e3b3          	or	x7,x19,x28
    197c:	01277ab3          	and	x21,x14,x18
    1980:	007ae533          	or	x10,x21,x7
    1984:	00d56f33          	or	x30,x10,x13
    1988:	00cf2023          	sw	x12,0(x30)
    198c:	011e0e33          	add	x28,x28,x17
    1990:	0004a703          	lw	x14,0(x9)
    1994:	ff0e10e3          	bne	x28,x16,1974 <.L404>
    1998:	f0c702e3          	beq	x14,x12,189c <.L405>
    199c:	e59ff06f          	j	17f4 <.L406>

000019a0 <.L412>:
    19a0:	00000593          	li	x11,0
    19a4:	00000513          	li	x10,0
    19a8:	da9ff06f          	j	1750 <.L391>

000019ac <.L434>:
    19ac:	00028593          	mv	x11,x5
    19b0:	d9dff06f          	j	174c <.L392>

Disassembly of section .rodata._ZN8HBTensorIfLln1EEC2EP11hb_tensor_t.str1.4:

00000000 <.LC0>:
   0:	6d6f682f          	0x6d6f682f
   4:	2f65                	jal	7bc <.L203+0x38>
   6:	7a7a                	flw	f20,188(x2)
   8:	3435                	jal	fffffa34 <.L434+0xffffe088>
   a:	2f36                	fld	f30,328(x2)
   c:	6268                	flw	f10,68(x12)
   e:	702d                	c.lui	x0,0xfffeb
  10:	7479                	lui	x8,0xffffe
  12:	6863726f          	jal	x4,37698 <.L434+0x35cec>
  16:	6d61682f          	0x6d61682f
  1a:	656d                	lui	x10,0x1b
  1c:	6272                	flw	f4,28(x2)
  1e:	616c                	flw	f11,68(x10)
  20:	6564                	flw	f9,76(x10)
  22:	726f742f          	0x726f742f
  26:	6b2f6863          	bltu	x30,x18,6d6 <.L134+0xe>
  2a:	7265                	lui	x4,0xffff9
  2c:	656e                	flw	f10,216(x2)
  2e:	2f6c                	fld	f11,216(x14)
  30:	6268                	flw	f10,68(x12)
  32:	745f 6e65 6f73      	0x6f736e65745f
  38:	2e72                	fld	f28,280(x2)
  3a:	7068                	flw	f10,100(x8)
  3c:	0070                	addi	x12,x2,12
	...

00000040 <.LC1>:
  40:	7361                	lui	x6,0xffff8
  42:	74726573          	csrrsi	x10,0x747,4
  46:	6620                	flw	f8,72(x12)
  48:	6961                	lui	x18,0x18
  4a:	656c                	flw	f11,76(x10)
  4c:	2064                	fld	f9,192(x8)
  4e:	7461                	lui	x8,0xffff8
  50:	2520                	fld	f8,72(x10)
  52:	64253a73          	csrrc	x20,0x642,x10
  56:	0020                	addi	x8,x2,8

00000058 <.LC2>:
  58:	7265                	lui	x4,0xffff9
  5a:	6f72                	flw	f30,28(x2)
  5c:	3a72                	fld	f20,312(x2)
  5e:	7420                	flw	f8,104(x8)
  60:	6e65                	lui	x28,0x19
  62:	20726f73          	csrrsi	x30,0x207,4
  66:	6964                	flw	f9,84(x10)
  68:	736d                	lui	x6,0xffffb
  6a:	6920                	flw	f8,80(x10)
  6c:	6f742073          	csrs	0x6f7,x8
  70:	616c206f          	j	c2686 <.L434+0xc0cda>
  74:	6772                	flw	f14,28(x2)
  76:	0065                	c.nop	25

Disassembly of section .text._ZN8HBTensorIfLln1EEC2EP11hb_tensor_t:

00000000 <_ZN8HBTensorIfLln1EEC1EP11hb_tensor_t>:
   0:	00058713          	mv	x14,x11
   4:	0045a683          	lw	x13,4(x11)
   8:	00072803          	lw	x16,0(x14)
   c:	0105a583          	lw	x11,16(x11)
  10:	00050793          	mv	x15,x10
  14:	02850613          	addi	x12,x10,40 # 1b028 <.L434+0x1967c>
  18:	01450513          	addi	x10,x10,20
  1c:	0107a023          	sw	x16,0(x15)
  20:	00d7a223          	sw	x13,4(x15)
  24:	00a7a423          	sw	x10,8(x15)
  28:	00c7a623          	sw	x12,12(x15)
  2c:	00b7a823          	sw	x11,16(x15)
  30:	00060613          	mv	x12,x12
  34:	00500293          	li	x5,5
  38:	04d2e463          	bltu	x5,x13,80 <.L295>
  3c:	00872303          	lw	x6,8(x14)
  40:	00c72383          	lw	x7,12(x14)
  44:	02068c63          	beqz	x13,7c <.L283>
  48:	00269893          	slli	x17,x13,0x2
  4c:	00078713          	mv	x14,x15
  50:	01178e33          	add	x28,x15,x17
  54:	40f30eb3          	sub	x29,x6,x15
  58:	40f38f33          	sub	x30,x7,x15

0000005c <.L287>:
  5c:	00ee8fb3          	add	x31,x29,x14
  60:	000fa683          	lw	x13,0(x31)
  64:	00ef05b3          	add	x11,x30,x14
  68:	00470713          	addi	x14,x14,4
  6c:	00d72823          	sw	x13,16(x14)
  70:	0005a803          	lw	x16,0(x11)
  74:	03072223          	sw	x16,36(x14)
  78:	ffc712e3          	bne	x14,x28,5c <.L287>

0000007c <.L283>:
  7c:	00008067          	ret

00000080 <.L295>:
  80:	ff010113          	addi	x2,x2,-16
  84:	000007b7          	lui	x15,0x0
  88:	00112623          	sw	x1,12(x2)
  8c:	000000b7          	lui	x1,0x0
  90:	0cb00613          	li	x12,203
  94:	00008593          	mv	x11,x1
  98:	00078513          	mv	x10,x15
  9c:	00000097          	auipc	x1,0x0
  a0:	000080e7          	jalr	x1 # 9c <.L295+0x1c>
  a4:	00000637          	lui	x12,0x0
  a8:	00060513          	mv	x10,x12
  ac:	00000097          	auipc	x1,0x0
  b0:	000080e7          	jalr	x1 # ac <.L295+0x2c>
  b4:	00000537          	lui	x10,0x0
  b8:	00052283          	lw	x5,0(x10) # 0 <_ZN8HBTensorIfLln1EEC1EP11hb_tensor_t>
  bc:	00000337          	lui	x6,0x0
  c0:	00032383          	lw	x7,0(x6) # 0 <_ZN8HBTensorIfLln1EEC1EP11hb_tensor_t>
  c4:	01029893          	slli	x17,x5,0x10
  c8:	4100feb7          	lui	x29,0x4100f
  cc:	00788e33          	add	x28,x17,x7
  d0:	adceac23          	sw	x28,-1320(x29) # 4100ead8 <.L434+0x4100d12c>

000000d4 <.L285>:
  d4:	0000006f          	j	d4 <.L285>

Disassembly of section .comment:

00000000 <.comment>:
   0:	4700                	lw	x8,8(x14)
   2:	203a4343          	fmadd.s	f6,f20,f3,f4,rmm
   6:	4728                	lw	x10,72(x14)
   8:	554e                	lw	x10,240(x2)
   a:	2029                	jal	14 <_ZN8HBTensorIfLln1EEC5EP11hb_tensor_t+0x14>
   c:	2e39                	jal	32a <.L48+0x2>
   e:	2e32                	fld	f28,264(x2)
  10:	0030                	addi	x12,x2,8

Disassembly of section .eh_frame:

00000000 <.eh_frame>:
   0:	0010                	0x10
   2:	0000                	unimp
   4:	0000                	unimp
   6:	0000                	unimp
   8:	7a01                	lui	x20,0xfffe0
   a:	0052                	c.slli	x0,0x14
   c:	7c01                	lui	x24,0xfffe0
   e:	0101                	addi	x2,x2,0
  10:	00020d1b          	0x20d1b
  14:	002c                	addi	x11,x2,8
  16:	0000                	unimp
  18:	0018                	0x18
	...
  22:	0000                	unimp
  24:	4400                	lw	x8,8(x8)
  26:	300e                	fld	f0,224(x2)
  28:	8854                	0x8854
  2a:	8901                	andi	x10,x10,0
  2c:	9202                	jalr	x4
  2e:	94049303          	lh	x6,-1728(x9)
  32:	0205                	addi	x4,x4,1
  34:	0ae0                	addi	x8,x2,348
  36:	44c8                	lw	x10,12(x9)
  38:	44c9                	li	x9,18
  3a:	44d2                	lw	x9,20(x2)
  3c:	44d444d3          	0x44d444d3
  40:	000e                	c.slli	x0,0x3
  42:	0b44                	addi	x9,x2,404
  44:	0028                	addi	x10,x2,8
  46:	0000                	unimp
  48:	0048                	addi	x10,x2,4
	...
  52:	0000                	unimp
  54:	4400                	lw	x8,8(x8)
  56:	100e                	c.slli	x0,0x23
  58:	8950                	0x8950
  5a:	9202                	jalr	x4
  5c:	93018803          	lb	x16,-1744(x3)
  60:	0204                	addi	x9,x2,256
  62:	0abc                	addi	x15,x2,344
  64:	44c8                	lw	x10,12(x9)
  66:	44c9                	li	x9,18
  68:	44d2                	lw	x9,20(x2)
  6a:	000e44d3          	fadd.s	f9,f28,f0,rmm
  6e:	0b44                	addi	x9,x2,404
  70:	0028                	addi	x10,x2,8
  72:	0000                	unimp
  74:	0074                	addi	x13,x2,12
	...
  7e:	0000                	unimp
  80:	4400                	lw	x8,8(x8)
  82:	100e                	c.slli	x0,0x23
  84:	8950                	0x8950
  86:	9202                	jalr	x4
  88:	93018803          	lb	x16,-1744(x3)
  8c:	0204                	addi	x9,x2,256
  8e:	0abc                	addi	x15,x2,344
  90:	44c8                	lw	x10,12(x9)
  92:	44c9                	li	x9,18
  94:	44d2                	lw	x9,20(x2)
  96:	000e44d3          	fadd.s	f9,f28,f0,rmm
  9a:	0b44                	addi	x9,x2,404
  9c:	0014                	0x14
  9e:	0000                	unimp
  a0:	00a0                	addi	x8,x2,72
	...
  aa:	0000                	unimp
  ac:	0200                	addi	x8,x2,256
  ae:	0e84                	addi	x9,x2,848
  b0:	4810                	lw	x12,16(x8)
  b2:	0181                	addi	x3,x3,0
  b4:	003c                	addi	x15,x2,8
  b6:	0000                	unimp
  b8:	00b8                	addi	x14,x2,72
	...
  c2:	0000                	unimp
  c4:	4400                	lw	x8,8(x8)
  c6:	c00e                	sw	x3,0(x2)
  c8:	4c01                	li	x24,0
  ca:	0288                	addi	x10,x2,320
  cc:	8164                	0x8164
  ce:	8901                	andi	x10,x10,0
  d0:	93049203          	lh	x4,-1744(x9)
  d4:	9405                	srai	x8,x8,0x21
  d6:	9506                	add	x10,x10,x1
  d8:	03089607          	0x3089607
  dc:	01d8                	addi	x14,x2,196
  de:	c10a                	sw	x2,128(x2)
  e0:	c844                	sw	x9,20(x8)
  e2:	c948                	sw	x10,20(x10)
  e4:	d244                	sw	x9,36(x12)
  e6:	d344                	sw	x9,36(x14)
  e8:	d444                	sw	x9,44(x8)
  ea:	d544                	sw	x9,44(x10)
  ec:	d644                	sw	x9,44(x12)
  ee:	0e48                	addi	x10,x2,788
  f0:	4400                	lw	x8,8(x8)
  f2:	0038000b          	0x38000b
  f6:	0000                	unimp
  f8:	00f8                	addi	x14,x2,76
	...
 102:	0000                	unimp
 104:	4400                	lw	x8,8(x8)
 106:	b00e                	fsd	f3,32(x2)
 108:	4c01                	li	x24,0
 10a:	0288                	addi	x10,x2,320
 10c:	8160                	0x8160
 10e:	8901                	andi	x10,x10,0
 110:	93049203          	lh	x4,-1744(x9)
 114:	9405                	srai	x8,x8,0x21
 116:	9506                	add	x10,x10,x1
 118:	01a80307          	0x1a80307
 11c:	c10a                	sw	x2,128(x2)
 11e:	c844                	sw	x9,20(x8)
 120:	c948                	sw	x10,20(x10)
 122:	d244                	sw	x9,36(x12)
 124:	d344                	sw	x9,36(x14)
 126:	d444                	sw	x9,44(x8)
 128:	d544                	sw	x9,44(x10)
 12a:	0e48                	addi	x10,x2,788
 12c:	4400                	lw	x8,8(x8)
 12e:	0038000b          	0x38000b
 132:	0000                	unimp
 134:	0134                	addi	x13,x2,136
	...
 13e:	0000                	unimp
 140:	4400                	lw	x8,8(x8)
 142:	b00e                	fsd	f3,32(x2)
 144:	4c01                	li	x24,0
 146:	0288                	addi	x10,x2,320
 148:	8160                	0x8160
 14a:	8901                	andi	x10,x10,0
 14c:	93049203          	lh	x4,-1744(x9)
 150:	9405                	srai	x8,x8,0x21
 152:	9506                	add	x10,x10,x1
 154:	01a80307          	0x1a80307
 158:	c10a                	sw	x2,128(x2)
 15a:	c844                	sw	x9,20(x8)
 15c:	c948                	sw	x10,20(x10)
 15e:	d244                	sw	x9,36(x12)
 160:	d344                	sw	x9,36(x14)
 162:	d444                	sw	x9,44(x8)
 164:	d544                	sw	x9,44(x10)
 166:	0e48                	addi	x10,x2,788
 168:	4400                	lw	x8,8(x8)
 16a:	          	0xb

Disassembly of section .riscv.attributes:

00000000 <.riscv.attributes>:
   0:	2a41                	jal	190 <.L115+0x70>
   2:	0000                	unimp
   4:	7200                	flw	f8,32(x12)
   6:	7369                	lui	x6,0xffffa
   8:	01007663          	bgeu	x0,x16,14 <.riscv.attributes+0x14>
   c:	0020                	addi	x8,x2,8
   e:	0000                	unimp
  10:	1004                	addi	x9,x2,32
  12:	7205                	lui	x4,0xfffe1
  14:	3376                	fld	f6,376(x2)
  16:	6932                	flw	f18,12(x2)
  18:	7032                	flw	f0,44(x2)
  1a:	5f30                	lw	x12,120(x14)
  1c:	326d                	jal	fffff9c6 <.L434+0xffffe01a>
  1e:	3070                	fld	f12,224(x8)
  20:	615f 7032 5f30      	0x5f307032615f
  26:	3266                	fld	f4,120(x2)
  28:	3070                	fld	f12,224(x8)
	...
