
kernel_dot.o:     file format elf32-littleriscv


Disassembly of section .group:

00000000 <_ZN8HBTensorIfLln1EEC5EP11hb_tensor_t>:
   0:	0001                	nop
   2:	0000                	unimp
   4:	00000007          	0x7
   8:	0008                	0x8
	...

Disassembly of section .text:

00000000 <tensorlib_dot>:
   0:	f2010113          	addi	x2,x2,-224
   4:	00050793          	mv	x15,x10
   8:	0c912a23          	sw	x9,212(x2)
   c:	00c10513          	addi	x10,x2,12
  10:	00058493          	mv	x9,x11
  14:	00078593          	mv	x11,x15
  18:	0c112e23          	sw	x1,220(x2)
  1c:	0c812c23          	sw	x8,216(x2)
  20:	0d212823          	sw	x18,208(x2)
  24:	00060413          	mv	x8,x12
  28:	0d312623          	sw	x19,204(x2)
  2c:	0d412423          	sw	x20,200(x2)
  30:	00000097          	auipc	x1,0x0
  34:	000080e7          	jalr	x1 # 30 <tensorlib_dot+0x30>
  38:	00048593          	mv	x11,x9
  3c:	04810513          	addi	x10,x2,72
  40:	00000097          	auipc	x1,0x0
  44:	000080e7          	jalr	x1 # 40 <tensorlib_dot+0x40>
  48:	00040593          	mv	x11,x8
  4c:	08410513          	addi	x10,x2,132
  50:	00000097          	auipc	x1,0x0
  54:	000080e7          	jalr	x1 # 50 <tensorlib_dot+0x50>
  58:	000004b7          	lui	x9,0x0
  5c:	00000537          	lui	x10,0x0
  60:	000005b7          	lui	x11,0x0
  64:	00000937          	lui	x18,0x0
  68:	00052283          	lw	x5,0(x10) # 0 <tensorlib_dot>
  6c:	0004a883          	lw	x17,0(x9) # 0 <tensorlib_dot>
  70:	0005a703          	lw	x14,0(x11) # 0 <tensorlib_dot>
  74:	00092603          	lw	x12,0(x18) # 0 <tensorlib_dot>
  78:	00000837          	lui	x16,0x0
  7c:	00082683          	lw	x13,0(x16) # 0 <tensorlib_dot>
  80:	01128333          	add	x6,x5,x17
  84:	00c703b3          	add	x7,x14,x12
  88:	01831993          	slli	x19,x6,0x18
  8c:	01239a13          	slli	x20,x7,0x12
  90:	3f000e37          	lui	x28,0x3f000
  94:	00fc0f37          	lui	x30,0xfc0
  98:	000402b7          	lui	x5,0x40
  9c:	01c9feb3          	and	x29,x19,x28
  a0:	01ea7fb3          	and	x31,x20,x30
  a4:	00469413          	slli	x8,x13,0x4
  a8:	ff028893          	addi	x17,x5,-16 # 3fff0 <.L49+0x3f920>
  ac:	04812983          	lw	x19,72(x2)
  b0:	01fee7b3          	or	x15,x29,x31
  b4:	01147733          	and	x14,x8,x17
  b8:	00e7e633          	or	x12,x15,x14
  bc:	800006b7          	lui	x13,0x80000
  c0:	00d66333          	or	x6,x12,x13
  c4:	410013b7          	lui	x7,0x41001
  c8:	d063a623          	sw	x6,-756(x7) # 41000d0c <.L49+0x4100063c>
  cc:	00000e37          	lui	x28,0x0
  d0:	fff98a13          	addi	x20,x19,-1
  d4:	ffd00e93          	li	x29,-3
  d8:	000e2303          	lw	x6,0(x28) # 0 <tensorlib_dot>
  dc:	0f4ee463          	bltu	x29,x20,1c4 <.L68>
  e0:	0079d093          	srli	x1,x19,0x7
  e4:	00108f13          	addi	x30,x1,1
  e8:	07f37f93          	andi	x31,x6,127
  ec:	03ef8433          	mul	x8,x31,x30
  f0:	008f06b3          	add	x13,x30,x8
  f4:	24d9e863          	bltu	x19,x13,344 <.L94>

000000f8 <.L18>:
  f8:	0cd47663          	bgeu	x8,x13,1c4 <.L68>
  fc:	25347863          	bgeu	x8,x19,34c <.L95>
 100:	04c12083          	lw	x1,76(x2)
 104:	05812e83          	lw	x29,88(x2)
 108:	05012383          	lw	x7,80(x2)
 10c:	08412883          	lw	x17,132(x2)
 110:	08812f03          	lw	x30,136(x2)
 114:	09412283          	lw	x5,148(x2)
 118:	08c12a03          	lw	x20,140(x2)
 11c:	f00007d3          	fmv.w.x	f15,x0
 120:	00100613          	li	x12,1

00000124 <.L21>:
 124:	00241f93          	slli	x31,x8,0x2
 128:	00c09863          	bne	x1,x12,138 <.L93>
 12c:	0003a783          	lw	x15,0(x7)
 130:	02f40733          	mul	x14,x8,x15
 134:	00271f93          	slli	x31,x14,0x2

00000138 <.L93>:
 138:	01fe87b3          	add	x15,x29,x31
 13c:	0007a687          	flw	f13,0(x15)
 140:	00241713          	slli	x14,x8,0x2
 144:	3b147c63          	bgeu	x8,x17,4fc <.L96>
 148:	00e28fb3          	add	x31,x5,x14
 14c:	00cf1a63          	bne	x30,x12,160 <.L28>
 150:	000a2f83          	lw	x31,0(x20)
 154:	03f407b3          	mul	x15,x8,x31
 158:	00279713          	slli	x14,x15,0x2
 15c:	00e28fb3          	add	x31,x5,x14

00000160 <.L28>:
 160:	000fa707          	flw	f14,0(x31)
 164:	00140413          	addi	x8,x8,1
 168:	78e6f7c3          	fmadd.s	f15,f13,f14,f15
 16c:	04868e63          	beq	x13,x8,1c8 <.L17>
 170:	fa899ae3          	bne	x19,x8,124 <.L21>

00000174 <.L19>:
 174:	000006b7          	lui	x13,0x0
 178:	000000b7          	lui	x1,0x0
 17c:	00068593          	mv	x11,x13
 180:	08c00613          	li	x12,140
 184:	00008513          	mv	x10,x1
 188:	00000097          	auipc	x1,0x0
 18c:	000080e7          	jalr	x1 # 188 <.L19+0x14>
 190:	04812583          	lw	x11,72(x2)
 194:	00000eb7          	lui	x29,0x0
 198:	00098613          	mv	x12,x19
 19c:	000e8513          	mv	x10,x29
 1a0:	00000097          	auipc	x1,0x0
 1a4:	000080e7          	jalr	x1 # 1a0 <.L19+0x2c>
 1a8:	0004a383          	lw	x7,0(x9)
 1ac:	00092883          	lw	x17,0(x18)
 1b0:	4100fa37          	lui	x20,0x4100f
 1b4:	01039f13          	slli	x30,x7,0x10
 1b8:	011f02b3          	add	x5,x30,x17
 1bc:	ac5a2c23          	sw	x5,-1320(x20) # 4100ead8 <.L49+0x4100e408>

000001c0 <.L22>:
 1c0:	0000006f          	j	1c0 <.L22>

000001c4 <.L68>:
 1c4:	f00007d3          	fmv.w.x	f15,x0

000001c8 <.L17>:
 1c8:	00092603          	lw	x12,0(x18)
 1cc:	0004af83          	lw	x31,0(x9)
 1d0:	000007b7          	lui	x15,0x0
 1d4:	0007a783          	lw	x15,0(x15) # 0 <tensorlib_dot>
 1d8:	000008b7          	lui	x17,0x0
 1dc:	00460413          	addi	x8,x12,4
 1e0:	00088613          	mv	x12,x17
 1e4:	00231713          	slli	x14,x6,0x2
 1e8:	008609b3          	add	x19,x12,x8
 1ec:	018f9313          	slli	x6,x31,0x18
 1f0:	00e780b3          	add	x1,x15,x14
 1f4:	0069e6b3          	or	x13,x19,x6
 1f8:	201c0eb7          	lui	x29,0x201c0
 1fc:	00f0a027          	fsw	f15,0(x1)
 200:	01d6e3b3          	or	x7,x13,x29
 204:	00100f13          	li	x30,1
 208:	01e38023          	sb	x30,0(x7)
 20c:	00092283          	lw	x5,0(x18)
 210:	00700a13          	li	x20,7
 214:	15428063          	beq	x5,x20,354 <.L97>

00000218 <.L40>:
 218:	00100a13          	li	x20,1
 21c:	0100006f          	j	22c <.L45>

00000220 <.L98>:
 220:	00088f93          	mv	x31,x17
 224:	140fa42f          	lr.w.aq	x8,(x31)
 228:	01440863          	beq	x8,x20,238 <.L44>

0000022c <.L45>:
 22c:	00088713          	mv	x14,x17
 230:	100729af          	lr.w	x19,(x14)
 234:	ff4996e3          	bne	x19,x20,220 <.L98>

00000238 <.L44>:
 238:	000e2e03          	lw	x28,0(x28)
 23c:	00062023          	sw	x0,0(x12)
 240:	020e1663          	bnez	x28,26c <.L46>
 244:	f00000d3          	fmv.w.x	f1,x0
 248:	20078393          	addi	x7,x15,512

0000024c <.L47>:
 24c:	0007a007          	flw	f0,0(x15)
 250:	00478793          	addi	x15,x15,4
 254:	0000f0d3          	fadd.s	f1,f1,f0
 258:	fef39ae3          	bne	x7,x15,24c <.L47>
 25c:	00c12783          	lw	x15,12(x2)
 260:	42078263          	beqz	x15,684 <.L99>
 264:	01c12f03          	lw	x30,28(x2)
 268:	001f2027          	fsw	f1,0(x30) # fc0000 <.L49+0xfbf930>

0000026c <.L46>:
 26c:	00052303          	lw	x6,0(x10)
 270:	0005a283          	lw	x5,0(x11)
 274:	0004a503          	lw	x10,0(x9)
 278:	00092583          	lw	x11,0(x18)
 27c:	00082803          	lw	x16,0(x16)
 280:	00a306b3          	add	x13,x6,x10
 284:	00b280b3          	add	x1,x5,x11
 288:	01869e93          	slli	x29,x13,0x18
 28c:	01209a13          	slli	x20,x1,0x12
 290:	3f000737          	lui	x14,0x3f000
 294:	00fc0fb7          	lui	x31,0xfc0
 298:	000407b7          	lui	x15,0x40
 29c:	00eef9b3          	and	x19,x29,x14
 2a0:	01fa7433          	and	x8,x20,x31
 2a4:	00481e13          	slli	x28,x16,0x4
 2a8:	ff078f13          	addi	x30,x15,-16 # 3fff0 <.L49+0x3f920>
 2ac:	0089e3b3          	or	x7,x19,x8
 2b0:	01ee7333          	and	x6,x28,x30
 2b4:	0063e533          	or	x10,x7,x6
 2b8:	c00002b7          	lui	x5,0xc0000
 2bc:	005565b3          	or	x11,x10,x5
 2c0:	41001837          	lui	x16,0x41001
 2c4:	d0b82623          	sw	x11,-756(x16) # 41000d0c <.L49+0x4100063c>
 2c8:	00092683          	lw	x13,0(x18)
 2cc:	0004a083          	lw	x1,0(x9)
 2d0:	201c0fb7          	lui	x31,0x201c0
 2d4:	00468e93          	addi	x29,x13,4 # 4 <tensorlib_dot+0x4>
 2d8:	01d60a33          	add	x20,x12,x29
 2dc:	01809713          	slli	x14,x1,0x18
 2e0:	00ea69b3          	or	x19,x20,x14
 2e4:	01f9e433          	or	x8,x19,x31
 2e8:	00100e13          	li	x28,1
 2ec:	01c40023          	sb	x28,0(x8)
 2f0:	00092383          	lw	x7,0(x18)
 2f4:	00700793          	li	x15,7
 2f8:	12f38863          	beq	x7,x15,428 <.L100>

000002fc <.L60>:
 2fc:	00100493          	li	x9,1
 300:	0100006f          	j	310 <.L65>

00000304 <.L101>:
 304:	00088813          	mv	x16,x17
 308:	140826af          	lr.w.aq	x13,(x16)
 30c:	00968863          	beq	x13,x9,31c <.L64>

00000310 <.L65>:
 310:	00088513          	mv	x10,x17
 314:	100525af          	lr.w	x11,(x10)
 318:	fe9596e3          	bne	x11,x9,304 <.L101>

0000031c <.L64>:
 31c:	0dc12083          	lw	x1,220(x2)
 320:	0d812403          	lw	x8,216(x2)
 324:	00062023          	sw	x0,0(x12)
 328:	0d412483          	lw	x9,212(x2)
 32c:	0d012903          	lw	x18,208(x2)
 330:	0cc12983          	lw	x19,204(x2)
 334:	0c812a03          	lw	x20,200(x2)
 338:	00000513          	li	x10,0
 33c:	0e010113          	addi	x2,x2,224
 340:	00008067          	ret

00000344 <.L94>:
 344:	00098693          	mv	x13,x19
 348:	db1ff06f          	j	f8 <.L18>

0000034c <.L95>:
 34c:	00040993          	mv	x19,x8
 350:	e25ff06f          	j	174 <.L19>

00000354 <.L97>:
 354:	00000fb7          	lui	x31,0x0
 358:	00000737          	lui	x14,0x0
 35c:	004f8413          	addi	x8,x31,4 # 4 <tensorlib_dot+0x4>
 360:	01470313          	addi	x6,x14,20 # 14 <tensorlib_dot+0x14>

00000364 <.L31>:
 364:	00040093          	mv	x1,x8

00000368 <.L33>:
 368:	0000c983          	lbu	x19,0(x1)
 36c:	00108093          	addi	x1,x1,1
 370:	0ff9f693          	andi	x13,x19,255
 374:	fe0688e3          	beqz	x13,364 <.L31>
 378:	fe1318e3          	bne	x6,x1,368 <.L33>
 37c:	0004ae83          	lw	x29,0(x9)
 380:	231c02b7          	lui	x5,0x231c0
 384:	00100f93          	li	x31,1
 388:	018e8393          	addi	x7,x29,24 # 201c0018 <.L49+0x201bf948>
 38c:	00760f33          	add	x30,x12,x7
 390:	005f6a33          	or	x20,x30,x5
 394:	01fa0023          	sb	x31,0(x20)
 398:	00092083          	lw	x1,0(x18)
 39c:	00700413          	li	x8,7
 3a0:	e6809ce3          	bne	x1,x8,218 <.L40>
 3a4:	0004a983          	lw	x19,0(x9)
 3a8:	00300713          	li	x14,3
 3ac:	22e98e63          	beq	x19,x14,5e8 <.L102>

000003b0 <.L39>:
 3b0:	00100413          	li	x8,1
 3b4:	0100006f          	j	3c4 <.L35>

000003b8 <.L103>:
 3b8:	01460293          	addi	x5,x12,20
 3bc:	1402a0af          	lr.w.aq	x1,(x5)
 3c0:	00808863          	beq	x1,x8,3d0 <.L41>

000003c4 <.L35>:
 3c4:	01460393          	addi	x7,x12,20
 3c8:	1003af2f          	lr.w	x30,(x7)
 3cc:	fe8f16e3          	bne	x30,x8,3b8 <.L103>

000003d0 <.L41>:
 3d0:	00062a23          	sw	x0,20(x12)
 3d4:	00000713          	li	x14,0
 3d8:	01000e93          	li	x29,16

000003dc <.L42>:
 3dc:	00e60a33          	add	x20,x12,x14
 3e0:	000a0223          	sb	x0,4(x20)
 3e4:	00170713          	addi	x14,x14,1
 3e8:	ffd71ae3          	bne	x14,x29,3dc <.L42>
 3ec:	00062023          	sw	x0,0(x12)
 3f0:	00000693          	li	x13,0
 3f4:	200009b7          	lui	x19,0x20000
 3f8:	00100f93          	li	x31,1
 3fc:	00040437          	lui	x8,0x40
 400:	004003b7          	lui	x7,0x400

00000404 <.L43>:
 404:	0004af03          	lw	x30,0(x9)
 408:	00d66333          	or	x6,x12,x13
 40c:	008686b3          	add	x13,x13,x8
 410:	018f1293          	slli	x5,x30,0x18
 414:	0062e0b3          	or	x1,x5,x6
 418:	0130eeb3          	or	x29,x1,x19
 41c:	01fea023          	sw	x31,0(x29)
 420:	fe7692e3          	bne	x13,x7,404 <.L43>
 424:	df5ff06f          	j	218 <.L40>

00000428 <.L100>:
 428:	00000f37          	lui	x30,0x0
 42c:	00000537          	lui	x10,0x0
 430:	004f0313          	addi	x6,x30,4 # 4 <tensorlib_dot+0x4>
 434:	01450293          	addi	x5,x10,20 # 14 <tensorlib_dot+0x14>

00000438 <.L51>:
 438:	00030813          	mv	x16,x6

0000043c <.L53>:
 43c:	00084583          	lbu	x11,0(x16)
 440:	00180813          	addi	x16,x16,1
 444:	0ff5f693          	andi	x13,x11,255
 448:	fe0688e3          	beqz	x13,438 <.L51>
 44c:	ff0298e3          	bne	x5,x16,43c <.L53>
 450:	0004a083          	lw	x1,0(x9)
 454:	231c0737          	lui	x14,0x231c0
 458:	00100f93          	li	x31,1
 45c:	01808e93          	addi	x29,x1,24
 460:	01d60a33          	add	x20,x12,x29
 464:	00ea69b3          	or	x19,x20,x14
 468:	01f98023          	sb	x31,0(x19) # 20000000 <.L49+0x1ffff930>
 46c:	00092403          	lw	x8,0(x18)
 470:	00700e13          	li	x28,7
 474:	e9c414e3          	bne	x8,x28,2fc <.L60>
 478:	0004a383          	lw	x7,0(x9)
 47c:	00300793          	li	x15,3
 480:	0cf38663          	beq	x7,x15,54c <.L104>

00000484 <.L59>:
 484:	00100513          	li	x10,1
 488:	0100006f          	j	498 <.L55>

0000048c <.L105>:
 48c:	01460693          	addi	x13,x12,20
 490:	1406a0af          	lr.w.aq	x1,(x13)
 494:	00a08863          	beq	x1,x10,4a4 <.L61>

00000498 <.L55>:
 498:	01460593          	addi	x11,x12,20
 49c:	1005a82f          	lr.w	x16,(x11)
 4a0:	fea816e3          	bne	x16,x10,48c <.L105>

000004a4 <.L61>:
 4a4:	00062a23          	sw	x0,20(x12)
 4a8:	00000993          	li	x19,0
 4ac:	01000a13          	li	x20,16

000004b0 <.L62>:
 4b0:	01360eb3          	add	x29,x12,x19
 4b4:	000e8223          	sb	x0,4(x29)
 4b8:	00198993          	addi	x19,x19,1
 4bc:	ff499ae3          	bne	x19,x20,4b0 <.L62>
 4c0:	00062023          	sw	x0,0(x12)
 4c4:	00000313          	li	x6,0
 4c8:	20000fb7          	lui	x31,0x20000
 4cc:	00100e13          	li	x28,1
 4d0:	00040437          	lui	x8,0x40
 4d4:	004003b7          	lui	x7,0x400

000004d8 <.L63>:
 4d8:	0004a783          	lw	x15,0(x9)
 4dc:	00666f33          	or	x30,x12,x6
 4e0:	00830333          	add	x6,x6,x8
 4e4:	01879713          	slli	x14,x15,0x18
 4e8:	01e76933          	or	x18,x14,x30
 4ec:	01f962b3          	or	x5,x18,x31
 4f0:	01c2a023          	sw	x28,0(x5) # 231c0000 <.L49+0x231bf930>
 4f4:	fe7312e3          	bne	x6,x7,4d8 <.L63>
 4f8:	e05ff06f          	j	2fc <.L60>

000004fc <.L96>:
 4fc:	000005b7          	lui	x11,0x0
 500:	00000537          	lui	x10,0x0
 504:	00058593          	mv	x11,x11
 508:	08c00613          	li	x12,140
 50c:	00050513          	mv	x10,x10
 510:	00000097          	auipc	x1,0x0
 514:	000080e7          	jalr	x1 # 510 <.L96+0x14>
 518:	08412583          	lw	x11,132(x2)
 51c:	00000837          	lui	x16,0x0
 520:	00040613          	mv	x12,x8
 524:	00080513          	mv	x10,x16
 528:	00000097          	auipc	x1,0x0
 52c:	000080e7          	jalr	x1 # 528 <.L96+0x2c>
 530:	0004a483          	lw	x9,0(x9)
 534:	00092903          	lw	x18,0(x18)
 538:	4100f337          	lui	x6,0x4100f
 53c:	01049e13          	slli	x28,x9,0x10
 540:	012e09b3          	add	x19,x28,x18
 544:	ad332c23          	sw	x19,-1320(x6) # 4100ead8 <.L49+0x4100e408>

00000548 <.L26>:
 548:	0000006f          	j	548 <.L26>

0000054c <.L104>:
 54c:	00000f37          	lui	x30,0x0
 550:	00000537          	lui	x10,0x0
 554:	018f0313          	addi	x6,x30,24 # 18 <tensorlib_dot+0x18>
 558:	02050593          	addi	x11,x10,32 # 20 <tensorlib_dot+0x20>

0000055c <.L54>:
 55c:	00030693          	mv	x13,x6

00000560 <.L56>:
 560:	0006c803          	lbu	x16,0(x13)
 564:	00168693          	addi	x13,x13,1
 568:	0ff87093          	andi	x1,x16,255
 56c:	fe0088e3          	beqz	x1,55c <.L54>
 570:	fed598e3          	bne	x11,x13,560 <.L56>
 574:	00060c23          	sb	x0,24(x12)
 578:	00060ca3          	sb	x0,25(x12)
 57c:	00060d23          	sb	x0,26(x12)
 580:	00060da3          	sb	x0,27(x12)
 584:	00060e23          	sb	x0,28(x12)
 588:	00060ea3          	sb	x0,29(x12)
 58c:	00060f23          	sb	x0,30(x12)
 590:	00060fa3          	sb	x0,31(x12)
 594:	00062a23          	sw	x0,20(x12)
 598:	00000713          	li	x14,0
 59c:	03fc0a37          	lui	x20,0x3fc0
 5a0:	20000eb7          	lui	x29,0x20000
 5a4:	00100993          	li	x19,1
 5a8:	01000fb7          	lui	x31,0x1000
 5ac:	08000e37          	lui	x28,0x8000
 5b0:	0080006f          	j	5b8 <.L58>

000005b4 <.L106>:
 5b4:	00092403          	lw	x8,0(x18)

000005b8 <.L58>:
 5b8:	01241413          	slli	x8,x8,0x12
 5bc:	00e2e3b3          	or	x7,x5,x14
 5c0:	014477b3          	and	x15,x8,x20
 5c4:	0077ef33          	or	x30,x15,x7
 5c8:	01df6333          	or	x6,x30,x29
 5cc:	01332023          	sw	x19,0(x6)
 5d0:	01f70733          	add	x14,x14,x31
 5d4:	ffc710e3          	bne	x14,x28,5b4 <.L106>
 5d8:	00092903          	lw	x18,0(x18)
 5dc:	00700293          	li	x5,7
 5e0:	ea5902e3          	beq	x18,x5,484 <.L59>
 5e4:	d19ff06f          	j	2fc <.L60>

000005e8 <.L102>:
 5e8:	000006b7          	lui	x13,0x0
 5ec:	00000eb7          	lui	x29,0x0
 5f0:	01868393          	addi	x7,x13,24 # 18 <tensorlib_dot+0x18>
 5f4:	020e8f13          	addi	x30,x29,32 # 20 <tensorlib_dot+0x20>

000005f8 <.L34>:
 5f8:	00038a13          	mv	x20,x7

000005fc <.L36>:
 5fc:	000a4283          	lbu	x5,0(x20) # 3fc0000 <.L49+0x3fbf930>
 600:	001a0a13          	addi	x20,x20,1
 604:	0ff2ff93          	andi	x31,x5,255
 608:	fe0f88e3          	beqz	x31,5f8 <.L34>
 60c:	ff4f18e3          	bne	x30,x20,5fc <.L36>
 610:	00060c23          	sb	x0,24(x12)
 614:	00060ca3          	sb	x0,25(x12)
 618:	00060d23          	sb	x0,26(x12)
 61c:	00060da3          	sb	x0,27(x12)
 620:	00060e23          	sb	x0,28(x12)
 624:	00060ea3          	sb	x0,29(x12)
 628:	00060f23          	sb	x0,30(x12)
 62c:	00060fa3          	sb	x0,31(x12)
 630:	00062a23          	sw	x0,20(x12)
 634:	00000693          	li	x13,0
 638:	03fc09b7          	lui	x19,0x3fc0
 63c:	20000437          	lui	x8,0x20000
 640:	00100393          	li	x7,1
 644:	01000f37          	lui	x30,0x1000
 648:	080002b7          	lui	x5,0x8000
 64c:	0080006f          	j	654 <.L38>

00000650 <.L107>:
 650:	00092083          	lw	x1,0(x18)

00000654 <.L38>:
 654:	01209093          	slli	x1,x1,0x12
 658:	00d36eb3          	or	x29,x6,x13
 65c:	0130f733          	and	x14,x1,x19
 660:	01d76a33          	or	x20,x14,x29
 664:	008a6fb3          	or	x31,x20,x8
 668:	007fa023          	sw	x7,0(x31) # 1000000 <.L49+0xfff930>
 66c:	01e686b3          	add	x13,x13,x30
 670:	fe5690e3          	bne	x13,x5,650 <.L107>
 674:	00092303          	lw	x6,0(x18)
 678:	00700993          	li	x19,7
 67c:	d3330ae3          	beq	x6,x19,3b0 <.L39>
 680:	b99ff06f          	j	218 <.L40>

00000684 <.L99>:
 684:	000008b7          	lui	x17,0x0
 688:	000000b7          	lui	x1,0x0
 68c:	00088593          	mv	x11,x17
 690:	08c00613          	li	x12,140
 694:	00008513          	mv	x10,x1
 698:	00000097          	auipc	x1,0x0
 69c:	000080e7          	jalr	x1 # 698 <.L99+0x14>
 6a0:	00c12583          	lw	x11,12(x2)
 6a4:	00000a37          	lui	x20,0x0
 6a8:	00000613          	li	x12,0
 6ac:	000a0513          	mv	x10,x20
 6b0:	00000097          	auipc	x1,0x0
 6b4:	000080e7          	jalr	x1 # 6b0 <.L99+0x2c>
 6b8:	0004a603          	lw	x12,0(x9)
 6bc:	00092e83          	lw	x29,0(x18)
 6c0:	4100fe37          	lui	x28,0x4100f
 6c4:	01061993          	slli	x19,x12,0x10
 6c8:	01d98fb3          	add	x31,x19,x29
 6cc:	adfe2c23          	sw	x31,-1320(x28) # 4100ead8 <.L49+0x4100e408>

000006d0 <.L49>:
 6d0:	0000006f          	j	6d0 <.L49>

Disassembly of section .text._ZN8HBTensorIfLln1EEC2EP11hb_tensor_t:

00000000 <_ZN8HBTensorIfLln1EEC1EP11hb_tensor_t>:
   0:	00058713          	mv	x14,x11
   4:	0045a683          	lw	x13,4(x11) # 4 <_ZN8HBTensorIfLln1EEC1EP11hb_tensor_t+0x4>
   8:	00072803          	lw	x16,0(x14) # 231c0000 <.L49+0x231bf930>
   c:	0105a583          	lw	x11,16(x11)
  10:	00050793          	mv	x15,x10
  14:	02850613          	addi	x12,x10,40
  18:	01450513          	addi	x10,x10,20
  1c:	0107a023          	sw	x16,0(x15)
  20:	00d7a223          	sw	x13,4(x15)
  24:	00a7a423          	sw	x10,8(x15)
  28:	00c7a623          	sw	x12,12(x15)
  2c:	00b7a823          	sw	x11,16(x15)
  30:	00060613          	mv	x12,x12
  34:	00500293          	li	x5,5
  38:	04d2e463          	bltu	x5,x13,80 <.L14>
  3c:	00872303          	lw	x6,8(x14)
  40:	00c72383          	lw	x7,12(x14)
  44:	02068c63          	beqz	x13,7c <.L1>
  48:	00269893          	slli	x17,x13,0x2
  4c:	00078713          	mv	x14,x15
  50:	01178e33          	add	x28,x15,x17
  54:	40f30eb3          	sub	x29,x6,x15
  58:	40f38f33          	sub	x30,x7,x15

0000005c <.L5>:
  5c:	00ee8fb3          	add	x31,x29,x14
  60:	000fa683          	lw	x13,0(x31)
  64:	00ef05b3          	add	x11,x30,x14
  68:	00470713          	addi	x14,x14,4
  6c:	00d72823          	sw	x13,16(x14)
  70:	0005a803          	lw	x16,0(x11)
  74:	03072223          	sw	x16,36(x14)
  78:	ffc712e3          	bne	x14,x28,5c <.L5>

0000007c <.L1>:
  7c:	00008067          	ret

00000080 <.L14>:
  80:	ff010113          	addi	x2,x2,-16
  84:	000007b7          	lui	x15,0x0
  88:	00112623          	sw	x1,12(x2)
  8c:	000000b7          	lui	x1,0x0
  90:	0d800613          	li	x12,216
  94:	00008593          	mv	x11,x1
  98:	00078513          	mv	x10,x15
  9c:	00000097          	auipc	x1,0x0
  a0:	000080e7          	jalr	x1 # 9c <.L14+0x1c>
  a4:	00000637          	lui	x12,0x0
  a8:	00060513          	mv	x10,x12
  ac:	00000097          	auipc	x1,0x0
  b0:	000080e7          	jalr	x1 # ac <.L14+0x2c>
  b4:	00000537          	lui	x10,0x0
  b8:	00052283          	lw	x5,0(x10) # 0 <_ZN8HBTensorIfLln1EEC1EP11hb_tensor_t>
  bc:	00000337          	lui	x6,0x0
  c0:	00032383          	lw	x7,0(x6) # 0 <_ZN8HBTensorIfLln1EEC1EP11hb_tensor_t>
  c4:	01029893          	slli	x17,x5,0x10
  c8:	4100feb7          	lui	x29,0x4100f
  cc:	00788e33          	add	x28,x17,x7
  d0:	adceac23          	sw	x28,-1320(x29) # 4100ead8 <.L49+0x4100e408>

000000d4 <.L3>:
  d4:	0000006f          	j	d4 <.L3>
