
kernel_LossNLL.o:     file format elf32-littleriscv


Disassembly of section .group:

00000000 <_ZN8HBTensorIfLln1EEC5EP11hb_tensor_t>:
   0:	0001                	nop
   2:	0000                	unimp
   4:	0008                	0x8
   6:	0000                	unimp
   8:	0009                	c.nop	2
	...

Disassembly of section .group:

00000000 <_ZN8HBTensorIiLln1EEC5EP11hb_tensor_t>:
   0:	0001                	nop
   2:	0000                	unimp
   4:	000a                	c.slli	x0,0x2
   6:	0000                	unimp
   8:	0000000b          	0xb

Disassembly of section .text:

00000000 <tensorlib_lossnll_weight>:
       0:	ea010113          	addi	x2,x2,-352
       4:	15212823          	sw	x18,336(x2)
       8:	15312623          	sw	x19,332(x2)
       c:	00058913          	mv	x18,x11
      10:	00050993          	mv	x19,x10
      14:	00070593          	mv	x11,x14
      18:	00410513          	addi	x10,x2,4
      1c:	14112e23          	sw	x1,348(x2)
      20:	14812c23          	sw	x8,344(x2)
      24:	14912a23          	sw	x9,340(x2)
      28:	00068413          	mv	x8,x13
      2c:	00060493          	mv	x9,x12
      30:	15412423          	sw	x20,328(x2)
      34:	15512223          	sw	x21,324(x2)
      38:	00080a13          	mv	x20,x16
      3c:	00078a93          	mv	x21,x15
      40:	15612023          	sw	x22,320(x2)
      44:	13712e23          	sw	x23,316(x2)
      48:	00000097          	auipc	x1,0x0
      4c:	000080e7          	jalr	x1 # 48 <tensorlib_lossnll_weight+0x48>
      50:	00098593          	mv	x11,x19
      54:	04010513          	addi	x10,x2,64
      58:	00000097          	auipc	x1,0x0
      5c:	000080e7          	jalr	x1 # 58 <tensorlib_lossnll_weight+0x58>
      60:	00090593          	mv	x11,x18
      64:	07c10513          	addi	x10,x2,124
      68:	00000097          	auipc	x1,0x0
      6c:	000080e7          	jalr	x1 # 68 <tensorlib_lossnll_weight+0x68>
      70:	00048593          	mv	x11,x9
      74:	0b810513          	addi	x10,x2,184
      78:	00000097          	auipc	x1,0x0
      7c:	000080e7          	jalr	x1 # 78 <tensorlib_lossnll_weight+0x78>
      80:	00040593          	mv	x11,x8
      84:	0f410513          	addi	x10,x2,244
      88:	00000097          	auipc	x1,0x0
      8c:	000080e7          	jalr	x1 # 88 <tensorlib_lossnll_weight+0x88>
      90:	0bc12783          	lw	x15,188(x2)
      94:	00100713          	li	x14,1
      98:	32f77663          	bgeu	x14,x15,3c4 <.L129>
      9c:	0c412683          	lw	x13,196(x2)
      a0:	000aa603          	lw	x12,0(x21)
      a4:	000a2583          	lw	x11,0(x20)
      a8:	0046a503          	lw	x10,4(x13)
      ac:	0006a083          	lw	x1,0(x13)
      b0:	0c061a63          	bnez	x12,184 <.L31>
      b4:	00200b13          	li	x22,2
      b8:	53678863          	beq	x15,x22,5e8 <.L130>
      bc:	00000bb7          	lui	x23,0x0
      c0:	000baa83          	lw	x21,0(x23) # 0 <tensorlib_lossnll_weight>
      c4:	020a9663          	bnez	x21,f0 <.L34>

000000c8 <.L128>:
      c8:	f0000753          	fmv.w.x	f14,x0
      cc:	20e707d3          	fmv.s	f15,f14

000000d0 <.L78>:
      d0:	04012783          	lw	x15,64(x2)
      d4:	36078263          	beqz	x15,438 <.L131>
      d8:	05012e83          	lw	x29,80(x2)
      dc:	07c12083          	lw	x1,124(x2)
      e0:	00fea027          	fsw	f15,0(x29)
      e4:	3a008663          	beqz	x1,490 <.L132>
      e8:	08c12683          	lw	x13,140(x2)
      ec:	00e6a027          	fsw	f14,0(x13)

000000f0 <.L34>:
      f0:	00000b37          	lui	x22,0x0
      f4:	000b2e03          	lw	x28,0(x22) # 0 <tensorlib_lossnll_weight>
      f8:	00000437          	lui	x8,0x0
      fc:	00042803          	lw	x16,0(x8) # 0 <tensorlib_lossnll_weight>
     100:	000006b7          	lui	x13,0x0
     104:	004e0313          	addi	x6,x28,4
     108:	00068793          	mv	x15,x13
     10c:	00678fb3          	add	x31,x15,x6
     110:	01881393          	slli	x7,x16,0x18
     114:	007feab3          	or	x21,x31,x7
     118:	200402b7          	lui	x5,0x20040
     11c:	005aea33          	or	x20,x21,x5
     120:	00100913          	li	x18,1
     124:	012a0023          	sb	x18,0(x20)
     128:	000b2f03          	lw	x30,0(x22)
     12c:	132f0c63          	beq	x30,x18,264 <.L85>

00000130 <.L97>:
     130:	00100413          	li	x8,1
     134:	0100006f          	j	144 <.L101>

00000138 <.L133>:
     138:	00068a93          	mv	x21,x13
     13c:	140aa8af          	lr.w.aq	x17,(x21)
     140:	00888863          	beq	x17,x8,150 <.L100>

00000144 <.L101>:
     144:	00068f93          	mv	x31,x13
     148:	100fa3af          	lr.w	x7,(x31)
     14c:	fe8396e3          	bne	x7,x8,138 <.L133>

00000150 <.L100>:
     150:	15c12083          	lw	x1,348(x2)
     154:	15812403          	lw	x8,344(x2)
     158:	0007a023          	sw	x0,0(x15)
     15c:	15412483          	lw	x9,340(x2)
     160:	15012903          	lw	x18,336(x2)
     164:	14c12983          	lw	x19,332(x2)
     168:	14812a03          	lw	x20,328(x2)
     16c:	14412a83          	lw	x21,324(x2)
     170:	14012b03          	lw	x22,320(x2)
     174:	13c12b83          	lw	x23,316(x2)
     178:	00000513          	li	x10,0
     17c:	16010113          	addi	x2,x2,352
     180:	00008067          	ret

00000184 <.L31>:
     184:	00000837          	lui	x16,0x0
     188:	00082283          	lw	x5,0(x16) # 0 <tensorlib_lossnll_weight>
     18c:	f60292e3          	bnez	x5,f0 <.L34>
     190:	00200313          	li	x6,2
     194:	28679263          	bne	x15,x6,418 <.L59>
     198:	0f812b03          	lw	x22,248(x2)
     19c:	380b0663          	beqz	x22,528 <.L134>
     1a0:	10012383          	lw	x7,256(x2)
     1a4:	0003a883          	lw	x17,0(x7)
     1a8:	35109063          	bne	x1,x17,4e8 <.L135>
     1ac:	68008a63          	beqz	x1,840 <.L64>
     1b0:	f00007d3          	fmv.w.x	f15,x0
     1b4:	0f412b83          	lw	x23,244(x2)
     1b8:	10412a83          	lw	x21,260(x2)
     1bc:	0fc12783          	lw	x15,252(x2)
     1c0:	00412e83          	lw	x29,4(x2)
     1c4:	00812683          	lw	x13,8(x2)
     1c8:	01412f83          	lw	x31,20(x2)
     1cc:	00c12903          	lw	x18,12(x2)
     1d0:	0c012e03          	lw	x28,192(x2)
     1d4:	0c812f03          	lw	x30,200(x2)
     1d8:	20f78753          	fmv.s	f14,f15
     1dc:	00000413          	li	x8,0
     1e0:	00100813          	li	x16,1

000001e4 <.L77>:
     1e4:	39740c63          	beq	x8,x23,57c <.L136>
     1e8:	3f0b0663          	beq	x22,x16,5d4 <.L67>
     1ec:	00241293          	slli	x5,x8,0x2
     1f0:	005a8733          	add	x14,x21,x5

000001f4 <.L68>:
     1f4:	00072483          	lw	x9,0(x14)
     1f8:	04958463          	beq	x11,x9,240 <.L69>
     1fc:	6004c263          	bltz	x9,800 <.L70>
     200:	60a4f063          	bgeu	x9,x10,800 <.L70>
     204:	51d4f463          	bgeu	x9,x29,70c <.L137>
     208:	57068863          	beq	x13,x16,778 <.L75>
     20c:	00249a13          	slli	x20,x9,0x2
     210:	014f89b3          	add	x19,x31,x20

00000214 <.L76>:
     214:	000e2703          	lw	x14,0(x28)
     218:	004e2283          	lw	x5,4(x28)
     21c:	0009a687          	flw	f13,0(x19)
     220:	02e40333          	mul	x6,x8,x14
     224:	00d77753          	fadd.s	f14,f14,f13
     228:	025484b3          	mul	x9,x9,x5
     22c:	009303b3          	add	x7,x6,x9
     230:	00239893          	slli	x17,x7,0x2
     234:	011f09b3          	add	x19,x30,x17
     238:	0009a607          	flw	f12,0(x19)
     23c:	78c6f7cb          	fnmsub.s	f15,f13,f12,f15

00000240 <.L69>:
     240:	00140413          	addi	x8,x8,1
     244:	fa8090e3          	bne	x1,x8,1e4 <.L77>
     248:	00100593          	li	x11,1
     24c:	e8b612e3          	bne	x12,x11,d0 <.L78>
     250:	f0000053          	fmv.w.x	f0,x0
     254:	a0072653          	feq.s	x12,f14,f0
     258:	1c061663          	bnez	x12,424 <.L102>
     25c:	18e7f7d3          	fdiv.s	f15,f15,f14
     260:	e71ff06f          	j	d0 <.L78>

00000264 <.L85>:
     264:	0047c083          	lbu	x1,4(x15)
     268:	0ff0fe93          	andi	x29,x1,255
     26c:	fe0e8ce3          	beqz	x29,264 <.L85>
     270:	0057c983          	lbu	x19,5(x15)
     274:	0ff9f613          	andi	x12,x19,255
     278:	fe0606e3          	beqz	x12,264 <.L85>
     27c:	0067c583          	lbu	x11,6(x15)
     280:	0ff5f513          	andi	x10,x11,255
     284:	fe0500e3          	beqz	x10,264 <.L85>
     288:	0077c883          	lbu	x17,7(x15)
     28c:	0ff8f713          	andi	x14,x17,255
     290:	fc070ae3          	beqz	x14,264 <.L85>
     294:	00042b83          	lw	x23,0(x8)
     298:	21040837          	lui	x16,0x21040
     29c:	00100493          	li	x9,1
     2a0:	00cb8e13          	addi	x28,x23,12
     2a4:	01c78333          	add	x6,x15,x28
     2a8:	01036fb3          	or	x31,x6,x16
     2ac:	009f8023          	sb	x9,0(x31)
     2b0:	000b2383          	lw	x7,0(x22)
     2b4:	e6939ee3          	bne	x7,x9,130 <.L97>
     2b8:	00042703          	lw	x14,0(x8)
     2bc:	06770c63          	beq	x14,x7,334 <.L91>

000002c0 <.L96>:
     2c0:	00100293          	li	x5,1
     2c4:	0100006f          	j	2d4 <.L90>

000002c8 <.L138>:
     2c8:	00878f13          	addi	x30,x15,8
     2cc:	140f20af          	lr.w.aq	x1,(x30)
     2d0:	00508863          	beq	x1,x5,2e0 <.L98>

000002d4 <.L90>:
     2d4:	00878a13          	addi	x20,x15,8
     2d8:	100a292f          	lr.w	x18,(x20)
     2dc:	fe5916e3          	bne	x18,x5,2c8 <.L138>

000002e0 <.L98>:
     2e0:	0007a423          	sw	x0,8(x15)
     2e4:	00078223          	sb	x0,4(x15)
     2e8:	000782a3          	sb	x0,5(x15)
     2ec:	00078323          	sb	x0,6(x15)
     2f0:	000783a3          	sb	x0,7(x15)
     2f4:	0007a023          	sw	x0,0(x15)
     2f8:	00000313          	li	x6,0
     2fc:	00068793          	mv	x15,x13
     300:	20000eb7          	lui	x29,0x20000
     304:	00100993          	li	x19,1
     308:	000405b7          	lui	x11,0x40
     30c:	00100bb7          	lui	x23,0x100

00000310 <.L99>:
     310:	00042483          	lw	x9,0(x8)
     314:	0067e533          	or	x10,x15,x6
     318:	00b30333          	add	x6,x6,x11
     31c:	01849813          	slli	x16,x9,0x18
     320:	00a86e33          	or	x28,x16,x10
     324:	01de6633          	or	x12,x28,x29
     328:	01362023          	sw	x19,0(x12)
     32c:	ff7312e3          	bne	x6,x23,310 <.L99>
     330:	e01ff06f          	j	130 <.L97>

00000334 <.L91>:
     334:	00c7ca83          	lbu	x21,12(x15)
     338:	0ffaf293          	andi	x5,x21,255
     33c:	fe028ce3          	beqz	x5,334 <.L91>
     340:	00d7ca03          	lbu	x20,13(x15)
     344:	0ffa7913          	andi	x18,x20,255
     348:	fe0906e3          	beqz	x18,334 <.L91>
     34c:	00e7cf03          	lbu	x30,14(x15)
     350:	0fff7093          	andi	x1,x30,255
     354:	fe0080e3          	beqz	x1,334 <.L91>
     358:	00f7ce83          	lbu	x29,15(x15)
     35c:	0ffef993          	andi	x19,x29,255
     360:	fc098ae3          	beqz	x19,334 <.L91>
     364:	00078623          	sb	x0,12(x15)
     368:	000786a3          	sb	x0,13(x15)
     36c:	00078723          	sb	x0,14(x15)
     370:	000787a3          	sb	x0,15(x15)
     374:	000005b7          	lui	x11,0x0
     378:	0007a423          	sw	x0,8(x15)
     37c:	00000893          	li	x17,0
     380:	00858513          	addi	x10,x11,8 # 8 <tensorlib_lossnll_weight+0x8>
     384:	03fc0bb7          	lui	x23,0x3fc0
     388:	200004b7          	lui	x9,0x20000
     38c:	00100313          	li	x6,1
     390:	01000837          	lui	x16,0x1000
     394:	04000e37          	lui	x28,0x4000

00000398 <.L95>:
     398:	01271713          	slli	x14,x14,0x12
     39c:	01156633          	or	x12,x10,x17
     3a0:	01777fb3          	and	x31,x14,x23
     3a4:	00cfe3b3          	or	x7,x31,x12
     3a8:	0093eab3          	or	x21,x7,x9
     3ac:	006aa023          	sw	x6,0(x21)
     3b0:	010888b3          	add	x17,x17,x16
     3b4:	5dc89e63          	bne	x17,x28,990 <.L139>
     3b8:	000b2b03          	lw	x22,0(x22)
     3bc:	f06b02e3          	beq	x22,x6,2c0 <.L96>
     3c0:	d71ff06f          	j	130 <.L97>

000003c4 <.L129>:
     3c4:	000006b7          	lui	x13,0x0
     3c8:	00000737          	lui	x14,0x0
     3cc:	00068593          	mv	x11,x13
     3d0:	06b00613          	li	x12,107
     3d4:	00070513          	mv	x10,x14
     3d8:	00000097          	auipc	x1,0x0
     3dc:	000080e7          	jalr	x1 # 3d8 <.L129+0x14>
     3e0:	0bc12583          	lw	x11,188(x2)
     3e4:	00000b37          	lui	x22,0x0
     3e8:	000b0513          	mv	x10,x22
     3ec:	00000097          	auipc	x1,0x0
     3f0:	000080e7          	jalr	x1 # 3ec <.L129+0x28>
     3f4:	000002b7          	lui	x5,0x0
     3f8:	0002aa03          	lw	x20,0(x5) # 0 <tensorlib_lossnll_weight>
     3fc:	00000937          	lui	x18,0x0
     400:	00092f03          	lw	x30,0(x18) # 0 <tensorlib_lossnll_weight>
     404:	010a1793          	slli	x15,x20,0x10
     408:	4100f9b7          	lui	x19,0x4100f
     40c:	01e78eb3          	add	x29,x15,x30
     410:	add9ac23          	sw	x29,-1320(x19) # 4100ead8 <.L225+0x4100d900>

00000414 <.L30>:
     414:	0000006f          	j	414 <.L30>

00000418 <.L59>:
     418:	f00007d3          	fmv.w.x	f15,x0
     41c:	20f78753          	fmv.s	f14,f15
     420:	cae618e3          	bne	x12,x14,d0 <.L78>

00000424 <.L102>:
     424:	0b812083          	lw	x1,184(x2)
     428:	f0000753          	fmv.w.x	f14,x0
     42c:	ca0092e3          	bnez	x1,d0 <.L78>
     430:	18e7f7d3          	fdiv.s	f15,f15,f14
     434:	c9dff06f          	j	d0 <.L78>

00000438 <.L131>:
     438:	000003b7          	lui	x7,0x0
     43c:	000008b7          	lui	x17,0x0
     440:	00038593          	mv	x11,x7
     444:	07b00613          	li	x12,123
     448:	00088513          	mv	x10,x17
     44c:	00000097          	auipc	x1,0x0
     450:	000080e7          	jalr	x1 # 44c <.L131+0x14>
     454:	04012583          	lw	x11,64(x2)
     458:	000009b7          	lui	x19,0x0
     45c:	00000613          	li	x12,0
     460:	00098513          	mv	x10,x19
     464:	00000097          	auipc	x1,0x0
     468:	000080e7          	jalr	x1 # 464 <.L131+0x2c>
     46c:	00000437          	lui	x8,0x0
     470:	00042583          	lw	x11,0(x8) # 0 <tensorlib_lossnll_weight>
     474:	00000637          	lui	x12,0x0
     478:	00062503          	lw	x10,0(x12) # 0 <tensorlib_lossnll_weight>
     47c:	01059b13          	slli	x22,x11,0x10
     480:	4100fab7          	lui	x21,0x4100f
     484:	00ab0bb3          	add	x23,x22,x10
     488:	ad7aac23          	sw	x23,-1320(x21) # 4100ead8 <.L225+0x4100d900>

0000048c <.L81>:
     48c:	0000006f          	j	48c <.L81>

00000490 <.L132>:
     490:	00000fb7          	lui	x31,0x0
     494:	00000937          	lui	x18,0x0
     498:	000f8593          	mv	x11,x31
     49c:	07b00613          	li	x12,123
     4a0:	00090513          	mv	x10,x18
     4a4:	00000097          	auipc	x1,0x0
     4a8:	000080e7          	jalr	x1 # 4a4 <.L132+0x14>
     4ac:	07c12583          	lw	x11,124(x2)
     4b0:	00000e37          	lui	x28,0x0
     4b4:	00000613          	li	x12,0
     4b8:	000e0513          	mv	x10,x28
     4bc:	00000097          	auipc	x1,0x0
     4c0:	000080e7          	jalr	x1 # 4bc <.L132+0x2c>
     4c4:	00000f37          	lui	x30,0x0
     4c8:	000f2803          	lw	x16,0(x30) # 0 <tensorlib_lossnll_weight>
     4cc:	00000a37          	lui	x20,0x0
     4d0:	000a2703          	lw	x14,0(x20) # 0 <tensorlib_lossnll_weight>
     4d4:	01081293          	slli	x5,x16,0x10
     4d8:	4100f4b7          	lui	x9,0x4100f
     4dc:	00e28333          	add	x6,x5,x14
     4e0:	ac64ac23          	sw	x6,-1320(x9) # 4100ead8 <.L225+0x4100d900>

000004e4 <.L83>:
     4e4:	0000006f          	j	4e4 <.L83>

000004e8 <.L135>:
     4e8:	00000eb7          	lui	x29,0x0
     4ec:	000006b7          	lui	x13,0x0
     4f0:	03d00613          	li	x12,61
     4f4:	000e8593          	mv	x11,x29
     4f8:	00068513          	mv	x10,x13
     4fc:	00000097          	auipc	x1,0x0
     500:	000080e7          	jalr	x1 # 4fc <.L135+0x14>
     504:	00000fb7          	lui	x31,0x0
     508:	000fa903          	lw	x18,0(x31) # 0 <tensorlib_lossnll_weight>
     50c:	00000e37          	lui	x28,0x0
     510:	000e2f03          	lw	x30,0(x28) # 0 <tensorlib_lossnll_weight>
     514:	01091813          	slli	x16,x18,0x10
     518:	4100f737          	lui	x14,0x4100f
     51c:	01e80a33          	add	x20,x16,x30
     520:	ad472c23          	sw	x20,-1320(x14) # 4100ead8 <.L225+0x4100d900>

00000524 <.L63>:
     524:	0000006f          	j	524 <.L63>

00000528 <.L134>:
     528:	000002b7          	lui	x5,0x0
     52c:	00000337          	lui	x6,0x0
     530:	06b00613          	li	x12,107
     534:	00028593          	mv	x11,x5
     538:	00030513          	mv	x10,x6
     53c:	00000097          	auipc	x1,0x0
     540:	000080e7          	jalr	x1 # 53c <.L134+0x14>
     544:	0f812583          	lw	x11,248(x2)
     548:	000004b7          	lui	x9,0x0
     54c:	00048513          	mv	x10,x9
     550:	00000097          	auipc	x1,0x0
     554:	000080e7          	jalr	x1 # 550 <.L134+0x28>
     558:	000003b7          	lui	x7,0x0
     55c:	0003a883          	lw	x17,0(x7) # 0 <tensorlib_lossnll_weight>
     560:	000009b7          	lui	x19,0x0
     564:	0009a403          	lw	x8,0(x19) # 0 <tensorlib_lossnll_weight>
     568:	01089593          	slli	x11,x17,0x10
     56c:	4100f537          	lui	x10,0x4100f
     570:	00858633          	add	x12,x11,x8
     574:	acc52c23          	sw	x12,-1320(x10) # 4100ead8 <.L225+0x4100d900>

00000578 <.L61>:
     578:	0000006f          	j	578 <.L61>

0000057c <.L136>:
     57c:	000008b7          	lui	x17,0x0
     580:	000009b7          	lui	x19,0x0
     584:	00088593          	mv	x11,x17
     588:	07b00613          	li	x12,123
     58c:	00098513          	mv	x10,x19
     590:	00000097          	auipc	x1,0x0
     594:	000080e7          	jalr	x1 # 590 <.L136+0x14>
     598:	0f412583          	lw	x11,244(x2)
     59c:	00040613          	mv	x12,x8
     5a0:	00000437          	lui	x8,0x0
     5a4:	00040513          	mv	x10,x8
     5a8:	00000097          	auipc	x1,0x0
     5ac:	000080e7          	jalr	x1 # 5a8 <.L136+0x2c>
     5b0:	000005b7          	lui	x11,0x0
     5b4:	0005a603          	lw	x12,0(x11) # 0 <tensorlib_lossnll_weight>
     5b8:	00000537          	lui	x10,0x0
     5bc:	00052b03          	lw	x22,0(x10) # 0 <tensorlib_lossnll_weight>
     5c0:	01061b93          	slli	x23,x12,0x10
     5c4:	4100f7b7          	lui	x15,0x4100f
     5c8:	016b8ab3          	add	x21,x23,x22
     5cc:	ad57ac23          	sw	x21,-1320(x15) # 4100ead8 <.L225+0x4100d900>

000005d0 <.L66>:
     5d0:	0000006f          	j	5d0 <.L66>

000005d4 <.L67>:
     5d4:	0007a983          	lw	x19,0(x15)
     5d8:	033404b3          	mul	x9,x8,x19
     5dc:	00249a13          	slli	x20,x9,0x2
     5e0:	014a8733          	add	x14,x21,x20
     5e4:	c11ff06f          	j	1f4 <.L68>

000005e8 <.L130>:
     5e8:	fff08793          	addi	x15,x1,-1
     5ec:	ffd00e93          	li	x29,-3
     5f0:	b0fee0e3          	bltu	x29,x15,f0 <.L34>
     5f4:	000006b7          	lui	x13,0x0
     5f8:	0006af83          	lw	x31,0(x13) # 0 <tensorlib_lossnll_weight>
     5fc:	0040d913          	srli	x18,x1,0x4
     600:	00190e13          	addi	x28,x18,1 # 1 <tensorlib_lossnll_weight+0x1>
     604:	03fe0433          	mul	x8,x28,x31
     608:	008e0733          	add	x14,x28,x8
     60c:	00e0f463          	bgeu	x1,x14,614 <.L35>
     610:	00008713          	mv	x14,x1

00000614 <.L35>:
     614:	ace47ee3          	bgeu	x8,x14,f0 <.L34>
     618:	0f412083          	lw	x1,244(x2)
     61c:	0f812883          	lw	x17,248(x2)
     620:	10412803          	lw	x16,260(x2)
     624:	0fc12303          	lw	x6,252(x2)
     628:	00412683          	lw	x13,4(x2)
     62c:	00812f83          	lw	x31,8(x2)
     630:	01412383          	lw	x7,20(x2)
     634:	00c12a83          	lw	x21,12(x2)
     638:	0c012283          	lw	x5,192(x2)
     63c:	0c812a03          	lw	x20,200(x2)
     640:	04012903          	lw	x18,64(x2)
     644:	04412f03          	lw	x30,68(x2)
     648:	05012e83          	lw	x29,80(x2)
     64c:	04812983          	lw	x19,72(x2)
     650:	00100613          	li	x12,1

00000654 <.L58>:
     654:	06147063          	bgeu	x8,x1,6b4 <.L140>
     658:	10c88663          	beq	x17,x12,764 <.L39>
     65c:	00241e13          	slli	x28,x8,0x2
     660:	01c807b3          	add	x15,x16,x28

00000664 <.L40>:
     664:	0007a483          	lw	x9,0(x15)
     668:	12958263          	beq	x11,x9,78c <.L141>
     66c:	0004c463          	bltz	x9,674 <.L47>
     670:	12a4ee63          	bltu	x9,x10,7ac <.L48>

00000674 <.L47>:
     674:	000004b7          	lui	x9,0x0
     678:	00000b37          	lui	x22,0x0
     67c:	00048593          	mv	x11,x9
     680:	02500613          	li	x12,37
     684:	000b0513          	mv	x10,x22
     688:	00000097          	auipc	x1,0x0
     68c:	000080e7          	jalr	x1 # 688 <.L47+0x14>
     690:	00000e37          	lui	x28,0x0
     694:	000e2783          	lw	x15,0(x28) # 0 <tensorlib_lossnll_weight>
     698:	000005b7          	lui	x11,0x0
     69c:	0005a503          	lw	x10,0(x11) # 0 <tensorlib_lossnll_weight>
     6a0:	01079413          	slli	x8,x15,0x10
     6a4:	4100f737          	lui	x14,0x4100f
     6a8:	00a408b3          	add	x17,x8,x10
     6ac:	ad172c23          	sw	x17,-1320(x14) # 4100ead8 <.L225+0x4100d900>

000006b0 <.L49>:
     6b0:	0000006f          	j	6b0 <.L49>

000006b4 <.L140>:
     6b4:	000000b7          	lui	x1,0x0
     6b8:	00000eb7          	lui	x29,0x0
     6bc:	00008593          	mv	x11,x1
     6c0:	07b00613          	li	x12,123
     6c4:	000e8513          	mv	x10,x29
     6c8:	00000097          	auipc	x1,0x0
     6cc:	000080e7          	jalr	x1 # 6c8 <.L140+0x14>
     6d0:	0f412583          	lw	x11,244(x2)
     6d4:	000009b7          	lui	x19,0x0
     6d8:	00040613          	mv	x12,x8
     6dc:	00098513          	mv	x10,x19
     6e0:	00000097          	auipc	x1,0x0
     6e4:	000080e7          	jalr	x1 # 6e0 <.L140+0x2c>
     6e8:	00000637          	lui	x12,0x0
     6ec:	00062583          	lw	x11,0(x12) # 0 <tensorlib_lossnll_weight>
     6f0:	00000537          	lui	x10,0x0
     6f4:	00052883          	lw	x17,0(x10) # 0 <tensorlib_lossnll_weight>
     6f8:	01059713          	slli	x14,x11,0x10
     6fc:	4100f4b7          	lui	x9,0x4100f
     700:	01170bb3          	add	x23,x14,x17
     704:	ad74ac23          	sw	x23,-1320(x9) # 4100ead8 <.L225+0x4100d900>

00000708 <.L38>:
     708:	0000006f          	j	708 <.L38>

0000070c <.L137>:
     70c:	000000b7          	lui	x1,0x0
     710:	00000537          	lui	x10,0x0
     714:	00050593          	mv	x11,x10
     718:	07b00613          	li	x12,123
     71c:	00008513          	mv	x10,x1
     720:	00000097          	auipc	x1,0x0
     724:	000080e7          	jalr	x1 # 720 <.L137+0x14>
     728:	00412583          	lw	x11,4(x2)
     72c:	00000b37          	lui	x22,0x0
     730:	00048613          	mv	x12,x9
     734:	000b0513          	mv	x10,x22
     738:	00000097          	auipc	x1,0x0
     73c:	000080e7          	jalr	x1 # 738 <.L137+0x2c>
     740:	00000bb7          	lui	x23,0x0
     744:	000baa83          	lw	x21,0(x23) # 0 <tensorlib_lossnll_weight>
     748:	000007b7          	lui	x15,0x0
     74c:	0007ae83          	lw	x29,0(x15) # 0 <tensorlib_lossnll_weight>
     750:	010a9693          	slli	x13,x21,0x10
     754:	4100f937          	lui	x18,0x4100f
     758:	01d68fb3          	add	x31,x13,x29
     75c:	adf92c23          	sw	x31,-1320(x18) # 4100ead8 <.L225+0x4100d900>

00000760 <.L74>:
     760:	0000006f          	j	760 <.L74>

00000764 <.L39>:
     764:	00032483          	lw	x9,0(x6) # 0 <tensorlib_lossnll_weight>
     768:	02940b33          	mul	x22,x8,x9
     76c:	002b1b93          	slli	x23,x22,0x2
     770:	017807b3          	add	x15,x16,x23
     774:	ef1ff06f          	j	664 <.L40>

00000778 <.L75>:
     778:	00092303          	lw	x6,0(x18)
     77c:	026483b3          	mul	x7,x9,x6
     780:	00239893          	slli	x17,x7,0x2
     784:	011f89b3          	add	x19,x31,x17
     788:	a8dff06f          	j	214 <.L76>

0000078c <.L141>:
     78c:	0d247063          	bgeu	x8,x18,84c <.L142>
     790:	1ccf0c63          	beq	x30,x12,968 <.L44>
     794:	00241793          	slli	x15,x8,0x2
     798:	00fe8e33          	add	x28,x29,x15

0000079c <.L45>:
     79c:	000e2023          	sw	x0,0(x28)

000007a0 <.L46>:
     7a0:	00140413          	addi	x8,x8,1 # 1 <tensorlib_lossnll_weight+0x1>
     7a4:	ea8718e3          	bne	x14,x8,654 <.L58>
     7a8:	949ff06f          	j	f0 <.L34>

000007ac <.L48>:
     7ac:	0ed4fc63          	bgeu	x9,x13,8a4 <.L143>
     7b0:	14cf8663          	beq	x31,x12,8fc <.L52>
     7b4:	00249b13          	slli	x22,x9,0x2
     7b8:	01638e33          	add	x28,x7,x22

000007bc <.L53>:
     7bc:	15247a63          	bgeu	x8,x18,910 <.L144>
     7c0:	1acf0e63          	beq	x30,x12,97c <.L56>
     7c4:	00241793          	slli	x15,x8,0x2
     7c8:	00fe8bb3          	add	x23,x29,x15

000007cc <.L57>:
     7cc:	0002ab03          	lw	x22,0(x5) # 0 <tensorlib_lossnll_weight>
     7d0:	0042a783          	lw	x15,4(x5)
     7d4:	000e2087          	flw	f1,0(x28)
     7d8:	03640e33          	mul	x28,x8,x22
     7dc:	02f484b3          	mul	x9,x9,x15
     7e0:	009e0b33          	add	x22,x28,x9
     7e4:	002b1e13          	slli	x28,x22,0x2
     7e8:	01ca07b3          	add	x15,x20,x28
     7ec:	0007a107          	flw	f2,0(x15)
     7f0:	101171d3          	fmul.s	f3,f2,f1
     7f4:	20319253          	fneg.s	f4,f3
     7f8:	004ba027          	fsw	f4,0(x23)
     7fc:	fa5ff06f          	j	7a0 <.L46>

00000800 <.L70>:
     800:	00000e37          	lui	x28,0x0
     804:	00000f37          	lui	x30,0x0
     808:	04200613          	li	x12,66
     80c:	000e0593          	mv	x11,x28
     810:	000f0513          	mv	x10,x30
     814:	00000097          	auipc	x1,0x0
     818:	000080e7          	jalr	x1 # 814 <.L70+0x14>
     81c:	00000837          	lui	x16,0x0
     820:	00082a03          	lw	x20,0(x16) # 0 <tensorlib_lossnll_weight>
     824:	00000737          	lui	x14,0x0
     828:	00072283          	lw	x5,0(x14) # 0 <tensorlib_lossnll_weight>
     82c:	010a1313          	slli	x6,x20,0x10
     830:	4100f3b7          	lui	x7,0x4100f
     834:	005304b3          	add	x9,x6,x5
     838:	ac93ac23          	sw	x9,-1320(x7) # 4100ead8 <.L225+0x4100d900>

0000083c <.L72>:
     83c:	0000006f          	j	83c <.L72>

00000840 <.L64>:
     840:	88e614e3          	bne	x12,x14,c8 <.L128>
     844:	f00007d3          	fmv.w.x	f15,x0
     848:	bddff06f          	j	424 <.L102>

0000084c <.L142>:
     84c:	00000837          	lui	x16,0x0
     850:	00000337          	lui	x6,0x0
     854:	00080593          	mv	x11,x16
     858:	07b00613          	li	x12,123
     85c:	00030513          	mv	x10,x6
     860:	00000097          	auipc	x1,0x0
     864:	000080e7          	jalr	x1 # 860 <.L142+0x14>
     868:	04012583          	lw	x11,64(x2)
     86c:	000006b7          	lui	x13,0x0
     870:	00040613          	mv	x12,x8
     874:	00068513          	mv	x10,x13
     878:	00000097          	auipc	x1,0x0
     87c:	000080e7          	jalr	x1 # 878 <.L142+0x2c>
     880:	00000fb7          	lui	x31,0x0
     884:	000fa383          	lw	x7,0(x31) # 0 <tensorlib_lossnll_weight>
     888:	00000ab7          	lui	x21,0x0
     88c:	000aa283          	lw	x5,0(x21) # 0 <tensorlib_lossnll_weight>
     890:	01039a13          	slli	x20,x7,0x10
     894:	4100ff37          	lui	x30,0x4100f
     898:	005a0933          	add	x18,x20,x5
     89c:	ad2f2c23          	sw	x18,-1320(x30) # 4100ead8 <.L225+0x4100d900>

000008a0 <.L43>:
     8a0:	0000006f          	j	8a0 <.L43>

000008a4 <.L143>:
     8a4:	000000b7          	lui	x1,0x0
     8a8:	00000ab7          	lui	x21,0x0
     8ac:	00008593          	mv	x11,x1
     8b0:	07b00613          	li	x12,123
     8b4:	000a8513          	mv	x10,x21
     8b8:	00000097          	auipc	x1,0x0
     8bc:	000080e7          	jalr	x1 # 8b8 <.L143+0x14>
     8c0:	00412583          	lw	x11,4(x2)
     8c4:	000002b7          	lui	x5,0x0
     8c8:	00048613          	mv	x12,x9
     8cc:	00028513          	mv	x10,x5
     8d0:	00000097          	auipc	x1,0x0
     8d4:	000080e7          	jalr	x1 # 8d0 <.L143+0x2c>
     8d8:	00000a37          	lui	x20,0x0
     8dc:	000a2903          	lw	x18,0(x20) # 0 <tensorlib_lossnll_weight>
     8e0:	00000f37          	lui	x30,0x0
     8e4:	000f2e83          	lw	x29,0(x30) # 0 <tensorlib_lossnll_weight>
     8e8:	01091993          	slli	x19,x18,0x10
     8ec:	4100fbb7          	lui	x23,0x4100f
     8f0:	01d98633          	add	x12,x19,x29
     8f4:	accbac23          	sw	x12,-1320(x23) # 4100ead8 <.L225+0x4100d900>

000008f8 <.L51>:
     8f8:	0000006f          	j	8f8 <.L51>

000008fc <.L52>:
     8fc:	000aab03          	lw	x22,0(x21) # 0 <tensorlib_lossnll_weight>
     900:	03648bb3          	mul	x23,x9,x22
     904:	002b9793          	slli	x15,x23,0x2
     908:	00f38e33          	add	x28,x7,x15
     90c:	eb1ff06f          	j	7bc <.L53>

00000910 <.L144>:
     910:	000005b7          	lui	x11,0x0
     914:	00000537          	lui	x10,0x0
     918:	00058593          	mv	x11,x11
     91c:	07b00613          	li	x12,123
     920:	00050513          	mv	x10,x10
     924:	00000097          	auipc	x1,0x0
     928:	000080e7          	jalr	x1 # 924 <.L144+0x14>
     92c:	04012583          	lw	x11,64(x2)
     930:	00040613          	mv	x12,x8
     934:	00000437          	lui	x8,0x0
     938:	00040513          	mv	x10,x8
     93c:	00000097          	auipc	x1,0x0
     940:	000080e7          	jalr	x1 # 93c <.L144+0x2c>
     944:	00000737          	lui	x14,0x0
     948:	00072883          	lw	x17,0(x14) # 0 <tensorlib_lossnll_weight>
     94c:	00000837          	lui	x16,0x0
     950:	00082303          	lw	x6,0(x16) # 0 <tensorlib_lossnll_weight>
     954:	01089693          	slli	x13,x17,0x10
     958:	4100f3b7          	lui	x7,0x4100f
     95c:	00668fb3          	add	x31,x13,x6
     960:	adf3ac23          	sw	x31,-1320(x7) # 4100ead8 <.L225+0x4100d900>

00000964 <.L55>:
     964:	0000006f          	j	964 <.L55>

00000968 <.L44>:
     968:	0009ab83          	lw	x23,0(x19) # 0 <tensorlib_lossnll_weight>
     96c:	037404b3          	mul	x9,x8,x23
     970:	00249b13          	slli	x22,x9,0x2
     974:	016e8e33          	add	x28,x29,x22
     978:	e25ff06f          	j	79c <.L45>

0000097c <.L56>:
     97c:	0009ab83          	lw	x23,0(x19)
     980:	037407b3          	mul	x15,x8,x23
     984:	00279b13          	slli	x22,x15,0x2
     988:	016e8bb3          	add	x23,x29,x22
     98c:	e41ff06f          	j	7cc <.L57>

00000990 <.L139>:
     990:	000b2703          	lw	x14,0(x22) # 0 <tensorlib_lossnll_weight>
     994:	a05ff06f          	j	398 <.L95>

00000998 <_Z22tensorlib_lossnll_implIZ17tensorlib_lossnllEUliE_EiP11hb_tensor_tS2_S2_S2_PmPlT_>:
     998:	ef010113          	addi	x2,x2,-272
     99c:	00050813          	mv	x16,x10
     9a0:	11212023          	sw	x18,256(x2)
     9a4:	00010513          	mv	x10,x2
     9a8:	00058913          	mv	x18,x11
     9ac:	00080593          	mv	x11,x16
     9b0:	10112623          	sw	x1,268(x2)
     9b4:	10812423          	sw	x8,264(x2)
     9b8:	10912223          	sw	x9,260(x2)
     9bc:	00068413          	mv	x8,x13
     9c0:	00060493          	mv	x9,x12
     9c4:	0f312e23          	sw	x19,252(x2)
     9c8:	0f412c23          	sw	x20,248(x2)
     9cc:	00078993          	mv	x19,x15
     9d0:	00070a13          	mv	x20,x14
     9d4:	00000097          	auipc	x1,0x0
     9d8:	000080e7          	jalr	x1 # 9d4 <_Z22tensorlib_lossnll_implIZ17tensorlib_lossnllEUliE_EiP11hb_tensor_tS2_S2_S2_PmPlT_+0x3c>
     9dc:	00090593          	mv	x11,x18
     9e0:	03c10513          	addi	x10,x2,60
     9e4:	00000097          	auipc	x1,0x0
     9e8:	000080e7          	jalr	x1 # 9e4 <_Z22tensorlib_lossnll_implIZ17tensorlib_lossnllEUliE_EiP11hb_tensor_tS2_S2_S2_PmPlT_+0x4c>
     9ec:	00048593          	mv	x11,x9
     9f0:	07810513          	addi	x10,x2,120
     9f4:	00000097          	auipc	x1,0x0
     9f8:	000080e7          	jalr	x1 # 9f4 <_Z22tensorlib_lossnll_implIZ17tensorlib_lossnllEUliE_EiP11hb_tensor_tS2_S2_S2_PmPlT_+0x5c>
     9fc:	00040593          	mv	x11,x8
     a00:	0b410513          	addi	x10,x2,180
     a04:	00000097          	auipc	x1,0x0
     a08:	000080e7          	jalr	x1 # a04 <_Z22tensorlib_lossnll_implIZ17tensorlib_lossnllEUliE_EiP11hb_tensor_tS2_S2_S2_PmPlT_+0x6c>
     a0c:	07c12703          	lw	x14,124(x2)
     a10:	00100793          	li	x15,1
     a14:	14e7f663          	bgeu	x15,x14,b60 <.L202>
     a18:	08412683          	lw	x13,132(x2)
     a1c:	000a2603          	lw	x12,0(x20)
     a20:	0009a583          	lw	x11,0(x19)
     a24:	0046a503          	lw	x10,4(x13) # 4 <tensorlib_lossnll_weight+0x4>
     a28:	0006a083          	lw	x1,0(x13)
     a2c:	06061263          	bnez	x12,a90 <.L148>
     a30:	00200413          	li	x8,2
     a34:	36870e63          	beq	x14,x8,db0 <.L203>
     a38:	000005b7          	lui	x11,0x0
     a3c:	0005a503          	lw	x10,0(x11) # 0 <tensorlib_lossnll_weight>
     a40:	02051663          	bnez	x10,a6c <.L197>

00000a44 <.L201>:
     a44:	f0000753          	fmv.w.x	f14,x0
     a48:	20e707d3          	fmv.s	f15,f14

00000a4c <.L187>:
     a4c:	00012083          	lw	x1,0(x2)
     a50:	18008263          	beqz	x1,bd4 <.L204>
     a54:	01012903          	lw	x18,16(x2)
     a58:	03c12603          	lw	x12,60(x2)
     a5c:	00f92027          	fsw	f15,0(x18)
     a60:	1c060663          	beqz	x12,c2c <.L205>
     a64:	04c12f83          	lw	x31,76(x2)
     a68:	00efa027          	fsw	f14,0(x31)

00000a6c <.L197>:
     a6c:	10c12083          	lw	x1,268(x2)
     a70:	10812403          	lw	x8,264(x2)
     a74:	10412483          	lw	x9,260(x2)
     a78:	10012903          	lw	x18,256(x2)
     a7c:	0fc12983          	lw	x19,252(x2)
     a80:	0f812a03          	lw	x20,248(x2)
     a84:	00000513          	li	x10,0
     a88:	11010113          	addi	x2,x2,272
     a8c:	00008067          	ret

00000a90 <.L148>:
     a90:	000002b7          	lui	x5,0x0
     a94:	0002a303          	lw	x6,0(x5) # 0 <tensorlib_lossnll_weight>
     a98:	fc031ae3          	bnez	x6,a6c <.L197>
     a9c:	00200393          	li	x7,2
     aa0:	10771a63          	bne	x14,x7,bb4 <.L172>
     aa4:	0b812903          	lw	x18,184(x2)
     aa8:	26090a63          	beqz	x18,d1c <.L206>
     aac:	0c012883          	lw	x17,192(x2)
     ab0:	0008ae03          	lw	x28,0(x17) # 0 <tensorlib_lossnll_weight>
     ab4:	1dc09863          	bne	x1,x28,c84 <.L207>
     ab8:	3a008a63          	beqz	x1,e6c <.L177>
     abc:	f0000753          	fmv.w.x	f14,x0
     ac0:	0b412f83          	lw	x31,180(x2)
     ac4:	0c412483          	lw	x9,196(x2)
     ac8:	0bc12f03          	lw	x30,188(x2)
     acc:	08012803          	lw	x16,128(x2)
     ad0:	08812e83          	lw	x29,136(x2)
     ad4:	20e707d3          	fmv.s	f15,f14
     ad8:	00000437          	lui	x8,0x0
     adc:	00042687          	flw	f13,0(x8) # 0 <tensorlib_lossnll_weight>
     ae0:	00100a13          	li	x20,1
     ae4:	00000413          	li	x8,0

00000ae8 <.L186>:
     ae8:	00241793          	slli	x15,x8,0x2
     aec:	1df40c63          	beq	x8,x31,cc4 <.L208>
     af0:	01491863          	bne	x18,x20,b00 <.L200>
     af4:	000f2983          	lw	x19,0(x30)
     af8:	03340733          	mul	x14,x8,x19
     afc:	00271793          	slli	x15,x14,0x2

00000b00 <.L200>:
     b00:	00f486b3          	add	x13,x9,x15
     b04:	0006a303          	lw	x6,0(x13)
     b08:	02658a63          	beq	x11,x6,b3c <.L182>
     b0c:	00d77753          	fadd.s	f14,f14,f13
     b10:	26034063          	bltz	x6,d70 <.L183>
     b14:	24a37e63          	bgeu	x6,x10,d70 <.L183>
     b18:	00082383          	lw	x7,0(x16)
     b1c:	00482283          	lw	x5,4(x16)
     b20:	027408b3          	mul	x17,x8,x7
     b24:	02530e33          	mul	x28,x6,x5
     b28:	01c889b3          	add	x19,x17,x28
     b2c:	00299713          	slli	x14,x19,0x2
     b30:	00ee87b3          	add	x15,x29,x14
     b34:	0007a607          	flw	f12,0(x15)
     b38:	08c7f7d3          	fsub.s	f15,f15,f12

00000b3c <.L182>:
     b3c:	00140413          	addi	x8,x8,1
     b40:	fa1414e3          	bne	x8,x1,ae8 <.L186>
     b44:	00100593          	li	x11,1
     b48:	f0b612e3          	bne	x12,x11,a4c <.L187>
     b4c:	f0000053          	fmv.w.x	f0,x0
     b50:	a0072653          	feq.s	x12,f14,f0
     b54:	06061663          	bnez	x12,bc0 <.L193>
     b58:	18e7f7d3          	fdiv.s	f15,f15,f14
     b5c:	ef1ff06f          	j	a4c <.L187>

00000b60 <.L202>:
     b60:	00000437          	lui	x8,0x0
     b64:	00000537          	lui	x10,0x0
     b68:	06b00613          	li	x12,107
     b6c:	00040593          	mv	x11,x8
     b70:	00050513          	mv	x10,x10
     b74:	00000097          	auipc	x1,0x0
     b78:	000080e7          	jalr	x1 # b74 <.L202+0x14>
     b7c:	07c12583          	lw	x11,124(x2)
     b80:	00000737          	lui	x14,0x0
     b84:	00070513          	mv	x10,x14
     b88:	00000097          	auipc	x1,0x0
     b8c:	000080e7          	jalr	x1 # b88 <.L202+0x28>
     b90:	000005b7          	lui	x11,0x0
     b94:	0005a383          	lw	x7,0(x11) # 0 <tensorlib_lossnll_weight>
     b98:	000002b7          	lui	x5,0x0
     b9c:	0002af83          	lw	x31,0(x5) # 0 <tensorlib_lossnll_weight>
     ba0:	01039e13          	slli	x28,x7,0x10
     ba4:	4100f337          	lui	x6,0x4100f
     ba8:	01fe0f33          	add	x30,x28,x31
     bac:	ade32c23          	sw	x30,-1320(x6) # 4100ead8 <.L225+0x4100d900>

00000bb0 <.L147>:
     bb0:	0000006f          	j	bb0 <.L147>

00000bb4 <.L172>:
     bb4:	f00007d3          	fmv.w.x	f15,x0
     bb8:	20f78753          	fmv.s	f14,f15
     bbc:	e8f618e3          	bne	x12,x15,a4c <.L187>

00000bc0 <.L193>:
     bc0:	07812583          	lw	x11,120(x2)
     bc4:	f0000753          	fmv.w.x	f14,x0
     bc8:	e80592e3          	bnez	x11,a4c <.L187>
     bcc:	18e7f7d3          	fdiv.s	f15,f15,f14
     bd0:	e7dff06f          	j	a4c <.L187>

00000bd4 <.L204>:
     bd4:	00000e37          	lui	x28,0x0
     bd8:	000009b7          	lui	x19,0x0
     bdc:	000e0593          	mv	x11,x28
     be0:	07b00613          	li	x12,123
     be4:	00098513          	mv	x10,x19
     be8:	00000097          	auipc	x1,0x0
     bec:	000080e7          	jalr	x1 # be8 <.L204+0x14>
     bf0:	00012583          	lw	x11,0(x2)
     bf4:	000007b7          	lui	x15,0x0
     bf8:	00000613          	li	x12,0
     bfc:	00078513          	mv	x10,x15
     c00:	00000097          	auipc	x1,0x0
     c04:	000080e7          	jalr	x1 # c00 <.L204+0x2c>
     c08:	00000737          	lui	x14,0x0
     c0c:	00072403          	lw	x8,0(x14) # 0 <tensorlib_lossnll_weight>
     c10:	000005b7          	lui	x11,0x0
     c14:	0005a503          	lw	x10,0(x11) # 0 <tensorlib_lossnll_weight>
     c18:	01041613          	slli	x12,x8,0x10
     c1c:	4100ffb7          	lui	x31,0x4100f
     c20:	00a60933          	add	x18,x12,x10
     c24:	ad2fac23          	sw	x18,-1320(x31) # 4100ead8 <.L225+0x4100d900>

00000c28 <.L190>:
     c28:	0000006f          	j	c28 <.L190>

00000c2c <.L205>:
     c2c:	00000f37          	lui	x30,0x0
     c30:	000004b7          	lui	x9,0x0
     c34:	07b00613          	li	x12,123
     c38:	00048593          	mv	x11,x9
     c3c:	000f0513          	mv	x10,x30
     c40:	00000097          	auipc	x1,0x0
     c44:	000080e7          	jalr	x1 # c40 <.L205+0x14>
     c48:	03c12583          	lw	x11,60(x2)
     c4c:	00000837          	lui	x16,0x0
     c50:	00000613          	li	x12,0
     c54:	00080513          	mv	x10,x16
     c58:	00000097          	auipc	x1,0x0
     c5c:	000080e7          	jalr	x1 # c58 <.L205+0x2c>
     c60:	00000eb7          	lui	x29,0x0
     c64:	000eaa03          	lw	x20,0(x29) # 0 <tensorlib_lossnll_weight>
     c68:	000006b7          	lui	x13,0x0
     c6c:	0006a303          	lw	x6,0(x13) # 0 <tensorlib_lossnll_weight>
     c70:	010a1393          	slli	x7,x20,0x10
     c74:	4100f8b7          	lui	x17,0x4100f
     c78:	006382b3          	add	x5,x7,x6
     c7c:	ac58ac23          	sw	x5,-1320(x17) # 4100ead8 <.L225+0x4100d900>

00000c80 <.L192>:
     c80:	0000006f          	j	c80 <.L192>

00000c84 <.L207>:
     c84:	00000537          	lui	x10,0x0
     c88:	000000b7          	lui	x1,0x0
     c8c:	03d00613          	li	x12,61
     c90:	00050593          	mv	x11,x10
     c94:	00008513          	mv	x10,x1
     c98:	00000097          	auipc	x1,0x0
     c9c:	000080e7          	jalr	x1 # c98 <.L207+0x14>
     ca0:	00000637          	lui	x12,0x0
     ca4:	00062903          	lw	x18,0(x12) # 0 <tensorlib_lossnll_weight>
     ca8:	00000fb7          	lui	x31,0x0
     cac:	000fa483          	lw	x9,0(x31) # 0 <tensorlib_lossnll_weight>
     cb0:	01091f13          	slli	x30,x18,0x10
     cb4:	4100feb7          	lui	x29,0x4100f
     cb8:	009f0833          	add	x16,x30,x9
     cbc:	ad0eac23          	sw	x16,-1320(x29) # 4100ead8 <.L225+0x4100d900>

00000cc0 <.L176>:
     cc0:	0000006f          	j	cc0 <.L176>

00000cc4 <.L208>:
     cc4:	000006b7          	lui	x13,0x0
     cc8:	00000337          	lui	x6,0x0
     ccc:	00068593          	mv	x11,x13
     cd0:	07b00613          	li	x12,123
     cd4:	00030513          	mv	x10,x6
     cd8:	00000097          	auipc	x1,0x0
     cdc:	000080e7          	jalr	x1 # cd8 <.L208+0x14>
     ce0:	0b412583          	lw	x11,180(x2)
     ce4:	000003b7          	lui	x7,0x0
     ce8:	00040613          	mv	x12,x8
     cec:	00038513          	mv	x10,x7
     cf0:	00000097          	auipc	x1,0x0
     cf4:	000080e7          	jalr	x1 # cf0 <.L208+0x2c>
     cf8:	000002b7          	lui	x5,0x0
     cfc:	0002a883          	lw	x17,0(x5) # 0 <tensorlib_lossnll_weight>
     d00:	00000e37          	lui	x28,0x0
     d04:	000e2983          	lw	x19,0(x28) # 0 <tensorlib_lossnll_weight>
     d08:	01089713          	slli	x14,x17,0x10
     d0c:	4100f437          	lui	x8,0x4100f
     d10:	013707b3          	add	x15,x14,x19
     d14:	acf42c23          	sw	x15,-1320(x8) # 4100ead8 <.L225+0x4100d900>

00000d18 <.L179>:
     d18:	0000006f          	j	d18 <.L179>

00000d1c <.L206>:
     d1c:	000006b7          	lui	x13,0x0
     d20:	00000a37          	lui	x20,0x0
     d24:	06b00613          	li	x12,107
     d28:	000a0593          	mv	x11,x20
     d2c:	00068513          	mv	x10,x13
     d30:	00000097          	auipc	x1,0x0
     d34:	000080e7          	jalr	x1 # d30 <.L206+0x14>
     d38:	0b812583          	lw	x11,184(x2)
     d3c:	00000337          	lui	x6,0x0
     d40:	00030513          	mv	x10,x6
     d44:	00000097          	auipc	x1,0x0
     d48:	000080e7          	jalr	x1 # d44 <.L206+0x28>
     d4c:	000003b7          	lui	x7,0x0
     d50:	0003a283          	lw	x5,0(x7) # 0 <tensorlib_lossnll_weight>
     d54:	000008b7          	lui	x17,0x0
     d58:	0008ae03          	lw	x28,0(x17) # 0 <tensorlib_lossnll_weight>
     d5c:	01029993          	slli	x19,x5,0x10
     d60:	4100f737          	lui	x14,0x4100f
     d64:	01c987b3          	add	x15,x19,x28
     d68:	acf72c23          	sw	x15,-1320(x14) # 4100ead8 <.L225+0x4100d900>

00000d6c <.L174>:
     d6c:	0000006f          	j	d6c <.L174>

00000d70 <.L183>:
     d70:	00000537          	lui	x10,0x0
     d74:	000000b7          	lui	x1,0x0
     d78:	00050593          	mv	x11,x10
     d7c:	04200613          	li	x12,66
     d80:	00008513          	mv	x10,x1
     d84:	00000097          	auipc	x1,0x0
     d88:	000080e7          	jalr	x1 # d84 <.L183+0x14>
     d8c:	00000937          	lui	x18,0x0
     d90:	00092f83          	lw	x31,0(x18) # 0 <tensorlib_lossnll_weight>
     d94:	000004b7          	lui	x9,0x0
     d98:	0004af03          	lw	x30,0(x9) # 0 <tensorlib_lossnll_weight>
     d9c:	010f9813          	slli	x16,x31,0x10
     da0:	4100fa37          	lui	x20,0x4100f
     da4:	01e80eb3          	add	x29,x16,x30
     da8:	adda2c23          	sw	x29,-1320(x20) # 4100ead8 <.L225+0x4100d900>

00000dac <.L185>:
     dac:	0000006f          	j	dac <.L185>

00000db0 <.L203>:
     db0:	fff08493          	addi	x9,x1,-1
     db4:	ffd00f13          	li	x30,-3
     db8:	ca9f6ae3          	bltu	x30,x9,a6c <.L197>
     dbc:	00000837          	lui	x16,0x0
     dc0:	00082e83          	lw	x29,0(x16) # 0 <tensorlib_lossnll_weight>
     dc4:	0040da13          	srli	x20,x1,0x4
     dc8:	001a0693          	addi	x13,x20,1
     dcc:	03d68433          	mul	x8,x13,x29
     dd0:	00868733          	add	x14,x13,x8
     dd4:	00e0f463          	bgeu	x1,x14,ddc <.L152>
     dd8:	00008713          	mv	x14,x1

00000ddc <.L152>:
     ddc:	c8e478e3          	bgeu	x8,x14,a6c <.L197>
     de0:	0b412083          	lw	x1,180(x2)
     de4:	0b812383          	lw	x7,184(x2)
     de8:	0c412283          	lw	x5,196(x2)
     dec:	0bc12f83          	lw	x31,188(x2)
     df0:	08012e03          	lw	x28,128(x2)
     df4:	08812f03          	lw	x30,136(x2)
     df8:	00012303          	lw	x6,0(x2)
     dfc:	00412883          	lw	x17,4(x2)
     e00:	01012e83          	lw	x29,16(x2)
     e04:	00812803          	lw	x16,8(x2)
     e08:	00100613          	li	x12,1

00000e0c <.L171>:
     e0c:	0c147e63          	bgeu	x8,x1,ee8 <.L209>
     e10:	08c38063          	beq	x7,x12,e90 <.L156>
     e14:	00241a13          	slli	x20,x8,0x2
     e18:	014284b3          	add	x9,x5,x20

00000e1c <.L157>:
     e1c:	0004a683          	lw	x13,0(x9)
     e20:	04d58c63          	beq	x11,x13,e78 <.L210>
     e24:	0006c463          	bltz	x13,e2c <.L164>
     e28:	06a6ee63          	bltu	x13,x10,ea4 <.L165>

00000e2c <.L164>:
     e2c:	000000b7          	lui	x1,0x0
     e30:	000008b7          	lui	x17,0x0
     e34:	02500613          	li	x12,37
     e38:	00008593          	mv	x11,x1
     e3c:	00088513          	mv	x10,x17
     e40:	00000097          	auipc	x1,0x0
     e44:	000080e7          	jalr	x1 # e40 <.L164+0x14>
     e48:	00000eb7          	lui	x29,0x0
     e4c:	000ea803          	lw	x16,0(x29) # 0 <tensorlib_lossnll_weight>
     e50:	00000637          	lui	x12,0x0
     e54:	00062a03          	lw	x20,0(x12) # 0 <tensorlib_lossnll_weight>
     e58:	01081493          	slli	x9,x16,0x10
     e5c:	4100f937          	lui	x18,0x4100f
     e60:	014486b3          	add	x13,x9,x20
     e64:	acd92c23          	sw	x13,-1320(x18) # 4100ead8 <.L225+0x4100d900>

00000e68 <.L166>:
     e68:	0000006f          	j	e68 <.L166>

00000e6c <.L177>:
     e6c:	bcf61ce3          	bne	x12,x15,a44 <.L201>
     e70:	f00007d3          	fmv.w.x	f15,x0
     e74:	d4dff06f          	j	bc0 <.L193>

00000e78 <.L210>:
     e78:	0e647063          	bgeu	x8,x6,f58 <.L211>
     e7c:	0cc88263          	beq	x17,x12,f40 <.L161>
     e80:	00241693          	slli	x13,x8,0x2
     e84:	00de84b3          	add	x9,x29,x13
     e88:	0004a023          	sw	x0,0(x9)
     e8c:	0500006f          	j	edc <.L163>

00000e90 <.L156>:
     e90:	000fa983          	lw	x19,0(x31)
     e94:	033407b3          	mul	x15,x8,x19
     e98:	00279913          	slli	x18,x15,0x2
     e9c:	012284b3          	add	x9,x5,x18
     ea0:	f7dff06f          	j	e1c <.L157>

00000ea4 <.L165>:
     ea4:	12647063          	bgeu	x8,x6,fc4 <.L212>
     ea8:	10c88463          	beq	x17,x12,fb0 <.L169>
     eac:	00241493          	slli	x9,x8,0x2
     eb0:	009e8a33          	add	x20,x29,x9

00000eb4 <.L170>:
     eb4:	000e2783          	lw	x15,0(x28)
     eb8:	004e2983          	lw	x19,4(x28)
     ebc:	02f404b3          	mul	x9,x8,x15
     ec0:	033686b3          	mul	x13,x13,x19
     ec4:	00d48933          	add	x18,x9,x13
     ec8:	00291793          	slli	x15,x18,0x2
     ecc:	00ff09b3          	add	x19,x30,x15
     ed0:	0009a087          	flw	f1,0(x19) # 0 <tensorlib_lossnll_weight>
     ed4:	20109153          	fneg.s	f2,f1
     ed8:	002a2027          	fsw	f2,0(x20)

00000edc <.L163>:
     edc:	00140413          	addi	x8,x8,1
     ee0:	f28716e3          	bne	x14,x8,e0c <.L171>
     ee4:	b89ff06f          	j	a6c <.L197>

00000ee8 <.L209>:
     ee8:	000000b7          	lui	x1,0x0
     eec:	00000eb7          	lui	x29,0x0
     ef0:	00008593          	mv	x11,x1
     ef4:	07b00613          	li	x12,123
     ef8:	000e8513          	mv	x10,x29
     efc:	00000097          	auipc	x1,0x0
     f00:	000080e7          	jalr	x1 # efc <.L209+0x14>
     f04:	0b412583          	lw	x11,180(x2)
     f08:	00000837          	lui	x16,0x0
     f0c:	00040613          	mv	x12,x8
     f10:	00080513          	mv	x10,x16
     f14:	00000097          	auipc	x1,0x0
     f18:	000080e7          	jalr	x1 # f14 <.L209+0x2c>
     f1c:	00000637          	lui	x12,0x0
     f20:	00062903          	lw	x18,0(x12) # 0 <tensorlib_lossnll_weight>
     f24:	000007b7          	lui	x15,0x0
     f28:	0007a983          	lw	x19,0(x15) # 0 <tensorlib_lossnll_weight>
     f2c:	01091a13          	slli	x20,x18,0x10
     f30:	4100f6b7          	lui	x13,0x4100f
     f34:	013a04b3          	add	x9,x20,x19
     f38:	ac96ac23          	sw	x9,-1320(x13) # 4100ead8 <.L225+0x4100d900>

00000f3c <.L155>:
     f3c:	0000006f          	j	f3c <.L155>

00000f40 <.L161>:
     f40:	00082783          	lw	x15,0(x16) # 0 <tensorlib_lossnll_weight>
     f44:	02f409b3          	mul	x19,x8,x15
     f48:	00299a13          	slli	x20,x19,0x2
     f4c:	014e84b3          	add	x9,x29,x20
     f50:	0004a023          	sw	x0,0(x9)
     f54:	f89ff06f          	j	edc <.L163>

00000f58 <.L211>:
     f58:	000005b7          	lui	x11,0x0
     f5c:	00000537          	lui	x10,0x0
     f60:	00058593          	mv	x11,x11
     f64:	07b00613          	li	x12,123
     f68:	00050513          	mv	x10,x10
     f6c:	00000097          	auipc	x1,0x0
     f70:	000080e7          	jalr	x1 # f6c <.L211+0x14>
     f74:	00012583          	lw	x11,0(x2)
     f78:	00000737          	lui	x14,0x0
     f7c:	00040613          	mv	x12,x8
     f80:	00070513          	mv	x10,x14
     f84:	00000097          	auipc	x1,0x0
     f88:	000080e7          	jalr	x1 # f84 <.L211+0x2c>
     f8c:	000003b7          	lui	x7,0x0
     f90:	0003a283          	lw	x5,0(x7) # 0 <tensorlib_lossnll_weight>
     f94:	00000fb7          	lui	x31,0x0
     f98:	000fae03          	lw	x28,0(x31) # 0 <tensorlib_lossnll_weight>
     f9c:	01029f13          	slli	x30,x5,0x10
     fa0:	4100f8b7          	lui	x17,0x4100f
     fa4:	01cf0333          	add	x6,x30,x28
     fa8:	ac68ac23          	sw	x6,-1320(x17) # 4100ead8 <.L225+0x4100d900>

00000fac <.L160>:
     fac:	0000006f          	j	fac <.L160>

00000fb0 <.L169>:
     fb0:	00082983          	lw	x19,0(x16)
     fb4:	033407b3          	mul	x15,x8,x19
     fb8:	00279913          	slli	x18,x15,0x2
     fbc:	012e8a33          	add	x20,x29,x18
     fc0:	ef5ff06f          	j	eb4 <.L170>

00000fc4 <.L212>:
     fc4:	000005b7          	lui	x11,0x0
     fc8:	00000537          	lui	x10,0x0
     fcc:	00058593          	mv	x11,x11
     fd0:	07b00613          	li	x12,123
     fd4:	00050513          	mv	x10,x10
     fd8:	00000097          	auipc	x1,0x0
     fdc:	000080e7          	jalr	x1 # fd8 <.L212+0x14>
     fe0:	00012583          	lw	x11,0(x2)
     fe4:	00040613          	mv	x12,x8
     fe8:	00000437          	lui	x8,0x0
     fec:	00040513          	mv	x10,x8
     ff0:	00000097          	auipc	x1,0x0
     ff4:	000080e7          	jalr	x1 # ff0 <.L212+0x2c>
     ff8:	00000737          	lui	x14,0x0
     ffc:	00072383          	lw	x7,0(x14) # 0 <tensorlib_lossnll_weight>
    1000:	000002b7          	lui	x5,0x0
    1004:	0002af83          	lw	x31,0(x5) # 0 <tensorlib_lossnll_weight>
    1008:	01039e13          	slli	x28,x7,0x10
    100c:	4100f337          	lui	x6,0x4100f
    1010:	01fe0f33          	add	x30,x28,x31
    1014:	ade32c23          	sw	x30,-1320(x6) # 4100ead8 <.L225+0x4100d900>

00001018 <.L168>:
    1018:	0000006f          	j	1018 <.L168>

0000101c <tensorlib_lossnll>:
    101c:	ff010113          	addi	x2,x2,-16
    1020:	00000813          	li	x16,0
    1024:	00112623          	sw	x1,12(x2)
    1028:	00000097          	auipc	x1,0x0
    102c:	000080e7          	jalr	x1 # 1028 <tensorlib_lossnll+0xc>
    1030:	00000637          	lui	x12,0x0
    1034:	00062703          	lw	x14,0(x12) # 0 <tensorlib_lossnll_weight>
    1038:	000005b7          	lui	x11,0x0
    103c:	0005a503          	lw	x10,0(x11) # 0 <tensorlib_lossnll_weight>
    1040:	000006b7          	lui	x13,0x0
    1044:	00470293          	addi	x5,x14,4
    1048:	00068793          	mv	x15,x13
    104c:	00578333          	add	x6,x15,x5
    1050:	01851393          	slli	x7,x10,0x18
    1054:	00736833          	or	x16,x6,x7
    1058:	200408b7          	lui	x17,0x20040
    105c:	01186e33          	or	x28,x16,x17
    1060:	00100e93          	li	x29,1
    1064:	01de0023          	sb	x29,0(x28)
    1068:	00062f03          	lw	x30,0(x12)
    106c:	03df0c63          	beq	x30,x29,10a4 <.L215>

00001070 <.L227>:
    1070:	00100593          	li	x11,1
    1074:	0100006f          	j	1084 <.L231>

00001078 <.L253>:
    1078:	00068893          	mv	x17,x13
    107c:	1408ae2f          	lr.w.aq	x28,(x17)
    1080:	00be0863          	beq	x28,x11,1090 <.L230>

00001084 <.L231>:
    1084:	00068293          	mv	x5,x13
    1088:	1002a3af          	lr.w	x7,(x5)
    108c:	feb396e3          	bne	x7,x11,1078 <.L253>

00001090 <.L230>:
    1090:	00c12083          	lw	x1,12(x2)
    1094:	0007a023          	sw	x0,0(x15)
    1098:	00000513          	li	x10,0
    109c:	01010113          	addi	x2,x2,16
    10a0:	00008067          	ret

000010a4 <.L215>:
    10a4:	0047c083          	lbu	x1,4(x15)
    10a8:	0ff0ff93          	andi	x31,x1,255
    10ac:	fe0f8ce3          	beqz	x31,10a4 <.L215>
    10b0:	0057c703          	lbu	x14,5(x15)
    10b4:	0ff77513          	andi	x10,x14,255
    10b8:	fe0506e3          	beqz	x10,10a4 <.L215>
    10bc:	0067c283          	lbu	x5,6(x15)
    10c0:	0ff2f313          	andi	x6,x5,255
    10c4:	fe0300e3          	beqz	x6,10a4 <.L215>
    10c8:	0077c383          	lbu	x7,7(x15)
    10cc:	0ff3f813          	andi	x16,x7,255
    10d0:	fc080ae3          	beqz	x16,10a4 <.L215>
    10d4:	0005a883          	lw	x17,0(x11)
    10d8:	210400b7          	lui	x1,0x21040
    10dc:	00100e13          	li	x28,1
    10e0:	00c88e93          	addi	x29,x17,12 # 2004000c <.L225+0x2003ee34>
    10e4:	01d78f33          	add	x30,x15,x29
    10e8:	001f6fb3          	or	x31,x30,x1
    10ec:	01cf8023          	sb	x28,0(x31)
    10f0:	00062503          	lw	x10,0(x12)
    10f4:	f7c51ee3          	bne	x10,x28,1070 <.L227>
    10f8:	0005a703          	lw	x14,0(x11)
    10fc:	06a70c63          	beq	x14,x10,1174 <.L221>

00001100 <.L226>:
    1100:	00100513          	li	x10,1
    1104:	0100006f          	j	1114 <.L220>

00001108 <.L254>:
    1108:	00878393          	addi	x7,x15,8
    110c:	1403a8af          	lr.w.aq	x17,(x7)
    1110:	00a88863          	beq	x17,x10,1120 <.L228>

00001114 <.L220>:
    1114:	00878613          	addi	x12,x15,8
    1118:	100622af          	lr.w	x5,(x12)
    111c:	fea296e3          	bne	x5,x10,1108 <.L254>

00001120 <.L228>:
    1120:	0007a423          	sw	x0,8(x15)
    1124:	00078223          	sb	x0,4(x15)
    1128:	000782a3          	sb	x0,5(x15)
    112c:	00078323          	sb	x0,6(x15)
    1130:	000783a3          	sb	x0,7(x15)
    1134:	0007a023          	sw	x0,0(x15)
    1138:	00000813          	li	x16,0
    113c:	00068793          	mv	x15,x13
    1140:	20000e37          	lui	x28,0x20000
    1144:	00100313          	li	x6,1
    1148:	00040fb7          	lui	x31,0x40
    114c:	00100eb7          	lui	x29,0x100

00001150 <.L229>:
    1150:	0005af03          	lw	x30,0(x11)
    1154:	0107e0b3          	or	x1,x15,x16
    1158:	01f80833          	add	x16,x16,x31
    115c:	018f1713          	slli	x14,x30,0x18
    1160:	00176533          	or	x10,x14,x1
    1164:	01c56633          	or	x12,x10,x28
    1168:	00662023          	sw	x6,0(x12)
    116c:	ffd812e3          	bne	x16,x29,1150 <.L229>
    1170:	f01ff06f          	j	1070 <.L227>

00001174 <.L221>:
    1174:	00c7c283          	lbu	x5,12(x15)
    1178:	0ff2f313          	andi	x6,x5,255
    117c:	fe030ce3          	beqz	x6,1174 <.L221>
    1180:	00d7c383          	lbu	x7,13(x15)
    1184:	0ff3f813          	andi	x16,x7,255
    1188:	fe0806e3          	beqz	x16,1174 <.L221>
    118c:	00e7c883          	lbu	x17,14(x15)
    1190:	0ff8fe13          	andi	x28,x17,255
    1194:	fe0e00e3          	beqz	x28,1174 <.L221>
    1198:	00f7ce83          	lbu	x29,15(x15)
    119c:	0ffeff13          	andi	x30,x29,255
    11a0:	fc0f0ae3          	beqz	x30,1174 <.L221>
    11a4:	00078623          	sb	x0,12(x15)
    11a8:	000786a3          	sb	x0,13(x15)
    11ac:	00078723          	sb	x0,14(x15)
    11b0:	000787a3          	sb	x0,15(x15)
    11b4:	000000b7          	lui	x1,0x0
    11b8:	0007a423          	sw	x0,8(x15)
    11bc:	00000813          	li	x16,0
    11c0:	00808513          	addi	x10,x1,8 # 8 <tensorlib_lossnll_weight+0x8>
    11c4:	03fc02b7          	lui	x5,0x3fc0
    11c8:	200003b7          	lui	x7,0x20000
    11cc:	00100893          	li	x17,1
    11d0:	01000e37          	lui	x28,0x1000
    11d4:	04000337          	lui	x6,0x4000

000011d8 <.L225>:
    11d8:	01271713          	slli	x14,x14,0x12
    11dc:	01056fb3          	or	x31,x10,x16
    11e0:	00577eb3          	and	x29,x14,x5
    11e4:	01feef33          	or	x30,x29,x31
    11e8:	007f60b3          	or	x1,x30,x7
    11ec:	0110a023          	sw	x17,0(x1)
    11f0:	01c80833          	add	x16,x16,x28
    11f4:	00062703          	lw	x14,0(x12)
    11f8:	fe6810e3          	bne	x16,x6,11d8 <.L225>
    11fc:	f11702e3          	beq	x14,x17,1100 <.L226>
    1200:	e71ff06f          	j	1070 <.L227>

Disassembly of section .rodata._ZN8HBTensorIfLln1EEC2EP11hb_tensor_t.str1.4:

00000000 <.LC0>:
   0:	726f772f          	0x726f772f
   4:	6c672f6b          	0x6c672f6b
   8:	6c61626f          	jal	x4,166ce <.L225+0x154f6>
   c:	33726b2f          	0x33726b2f
  10:	3739                	jal	ffffff1e <.L225+0xffffed46>
  12:	2d62682f          	0x2d62682f
  16:	7970                	flw	f12,116(x10)
  18:	6f74                	flw	f13,92(x14)
  1a:	6372                	flw	f6,28(x2)
  1c:	2f68                	fld	f10,216(x14)
  1e:	6168                	flw	f10,68(x10)
  20:	6d6d                	lui	x26,0x1b
  22:	7265                	lui	x4,0xffff9
  24:	6c62                	flw	f24,24(x2)
  26:	6461                	lui	x8,0x18
  28:	2f65                	jal	7e0 <.L57+0x14>
  2a:	6f74                	flw	f13,92(x14)
  2c:	6372                	flw	f6,28(x2)
  2e:	2f68                	fld	f10,216(x14)
  30:	6e72656b          	0x6e72656b
  34:	6c65                	lui	x24,0x19
  36:	5f62682f          	0x5f62682f
  3a:	6574                	flw	f13,76(x10)
  3c:	736e                	flw	f6,248(x2)
  3e:	682e726f          	jal	x4,e76c0 <.L225+0xe64e8>
  42:	7070                	flw	f12,100(x8)
  44:	0000                	unimp
	...

00000048 <.LC1>:
  48:	7361                	lui	x6,0xffff8
  4a:	74726573          	csrrsi	x10,0x747,4
  4e:	6620                	flw	f8,72(x12)
  50:	6961                	lui	x18,0x18
  52:	656c                	flw	f11,76(x10)
  54:	2064                	fld	f9,192(x8)
  56:	7461                	lui	x8,0xffff8
  58:	2520                	fld	f8,72(x10)
  5a:	64253a73          	csrrc	x20,0x642,x10
  5e:	0020                	addi	x8,x2,8

00000060 <.LC2>:
  60:	7265                	lui	x4,0xffff9
  62:	6f72                	flw	f30,28(x2)
  64:	3a72                	fld	f20,312(x2)
  66:	7420                	flw	f8,104(x8)
  68:	6e65                	lui	x28,0x19
  6a:	20726f73          	csrrsi	x30,0x207,4
  6e:	6964                	flw	f9,84(x10)
  70:	736d                	lui	x6,0xffffb
  72:	6920                	flw	f8,80(x10)
  74:	6f742073          	csrs	0x6f7,x8
  78:	616c206f          	j	c268e <.L225+0xc14b6>
  7c:	6772                	flw	f14,28(x2)
  7e:	0065                	c.nop	25

Disassembly of section .text._ZN8HBTensorIfLln1EEC2EP11hb_tensor_t:

00000000 <_ZN8HBTensorIfLln1EEC1EP11hb_tensor_t>:
   0:	00058713          	mv	x14,x11
   4:	0045a683          	lw	x13,4(x11)
   8:	00072803          	lw	x16,0(x14)
   c:	0105a583          	lw	x11,16(x11)
  10:	00050793          	mv	x15,x10
  14:	02850613          	addi	x12,x10,40 # 28 <_ZN8HBTensorIfLln1EEC1EP11hb_tensor_t+0x28>
  18:	01450513          	addi	x10,x10,20
  1c:	0107a023          	sw	x16,0(x15)
  20:	00d7a223          	sw	x13,4(x15)
  24:	00a7a423          	sw	x10,8(x15)
  28:	00c7a623          	sw	x12,12(x15)
  2c:	00b7a823          	sw	x11,16(x15)
  30:	00060613          	mv	x12,x12
  34:	00500293          	li	x5,5
  38:	04d2e463          	bltu	x5,x13,80 <.L14>
  3c:	00872303          	lw	x6,8(x14)
  40:	00c72383          	lw	x7,12(x14)
  44:	02068c63          	beqz	x13,7c <.L1>
  48:	00269893          	slli	x17,x13,0x2
  4c:	00078713          	mv	x14,x15
  50:	01178e33          	add	x28,x15,x17
  54:	40f30eb3          	sub	x29,x6,x15
  58:	40f38f33          	sub	x30,x7,x15

0000005c <.L5>:
  5c:	00ee8fb3          	add	x31,x29,x14
  60:	000fa683          	lw	x13,0(x31) # 40000 <.L225+0x3ee28>
  64:	00ef05b3          	add	x11,x30,x14
  68:	00470713          	addi	x14,x14,4
  6c:	00d72823          	sw	x13,16(x14)
  70:	0005a803          	lw	x16,0(x11)
  74:	03072223          	sw	x16,36(x14)
  78:	ffc712e3          	bne	x14,x28,5c <.L5>

0000007c <.L1>:
  7c:	00008067          	ret

00000080 <.L14>:
  80:	ff010113          	addi	x2,x2,-16
  84:	000007b7          	lui	x15,0x0
  88:	00112623          	sw	x1,12(x2)
  8c:	000000b7          	lui	x1,0x0
  90:	0c700613          	li	x12,199
  94:	00008593          	mv	x11,x1
  98:	00078513          	mv	x10,x15
  9c:	00000097          	auipc	x1,0x0
  a0:	000080e7          	jalr	x1 # 9c <.L14+0x1c>
  a4:	00000637          	lui	x12,0x0
  a8:	00060513          	mv	x10,x12
  ac:	00000097          	auipc	x1,0x0
  b0:	000080e7          	jalr	x1 # ac <.L14+0x2c>
  b4:	00000537          	lui	x10,0x0
  b8:	00052283          	lw	x5,0(x10) # 0 <_ZN8HBTensorIfLln1EEC1EP11hb_tensor_t>
  bc:	00000337          	lui	x6,0x0
  c0:	00032383          	lw	x7,0(x6) # 0 <_ZN8HBTensorIfLln1EEC1EP11hb_tensor_t>
  c4:	01029893          	slli	x17,x5,0x10
  c8:	4100feb7          	lui	x29,0x4100f
  cc:	00788e33          	add	x28,x17,x7
  d0:	adceac23          	sw	x28,-1320(x29) # 4100ead8 <.L225+0x4100d900>

000000d4 <.L3>:
  d4:	0000006f          	j	d4 <.L3>

Disassembly of section .text._ZN8HBTensorIiLln1EEC2EP11hb_tensor_t:

00000000 <_ZN8HBTensorIiLln1EEC1EP11hb_tensor_t>:
   0:	00058713          	mv	x14,x11
   4:	0045a683          	lw	x13,4(x11)
   8:	00072803          	lw	x16,0(x14)
   c:	0105a583          	lw	x11,16(x11)
  10:	00050793          	mv	x15,x10
  14:	02850613          	addi	x12,x10,40
  18:	01450513          	addi	x10,x10,20
  1c:	0107a023          	sw	x16,0(x15) # 0 <_ZN8HBTensorIiLln1EEC1EP11hb_tensor_t>
  20:	00d7a223          	sw	x13,4(x15)
  24:	00a7a423          	sw	x10,8(x15)
  28:	00c7a623          	sw	x12,12(x15)
  2c:	00b7a823          	sw	x11,16(x15)
  30:	00060613          	mv	x12,x12
  34:	00500293          	li	x5,5
  38:	04d2e463          	bltu	x5,x13,80 <.L27>
  3c:	00872303          	lw	x6,8(x14)
  40:	00c72383          	lw	x7,12(x14)
  44:	02068c63          	beqz	x13,7c <.L15>
  48:	00269893          	slli	x17,x13,0x2
  4c:	00078713          	mv	x14,x15
  50:	01178e33          	add	x28,x15,x17
  54:	40f30eb3          	sub	x29,x6,x15
  58:	40f38f33          	sub	x30,x7,x15

0000005c <.L19>:
  5c:	00ee8fb3          	add	x31,x29,x14
  60:	000fa683          	lw	x13,0(x31)
  64:	00ef05b3          	add	x11,x30,x14
  68:	00470713          	addi	x14,x14,4
  6c:	00d72823          	sw	x13,16(x14)
  70:	0005a803          	lw	x16,0(x11)
  74:	03072223          	sw	x16,36(x14)
  78:	ffc712e3          	bne	x14,x28,5c <.L19>

0000007c <.L15>:
  7c:	00008067          	ret

00000080 <.L27>:
  80:	ff010113          	addi	x2,x2,-16
  84:	000007b7          	lui	x15,0x0
  88:	00112623          	sw	x1,12(x2)
  8c:	000000b7          	lui	x1,0x0
  90:	0c700613          	li	x12,199
  94:	00008593          	mv	x11,x1
  98:	00078513          	mv	x10,x15
  9c:	00000097          	auipc	x1,0x0
  a0:	000080e7          	jalr	x1 # 9c <.L27+0x1c>
  a4:	00000637          	lui	x12,0x0
  a8:	00060513          	mv	x10,x12
  ac:	00000097          	auipc	x1,0x0
  b0:	000080e7          	jalr	x1 # ac <.L27+0x2c>
  b4:	00000537          	lui	x10,0x0
  b8:	00052283          	lw	x5,0(x10) # 0 <_ZN8HBTensorIiLln1EEC1EP11hb_tensor_t>
  bc:	00000337          	lui	x6,0x0
  c0:	00032383          	lw	x7,0(x6) # 0 <_ZN8HBTensorIiLln1EEC1EP11hb_tensor_t>
  c4:	01029893          	slli	x17,x5,0x10
  c8:	4100feb7          	lui	x29,0x4100f
  cc:	00788e33          	add	x28,x17,x7
  d0:	adceac23          	sw	x28,-1320(x29) # 4100ead8 <.L225+0x4100d900>

000000d4 <.L17>:
  d4:	0000006f          	j	d4 <.L17>

Disassembly of section .rodata.str1.4:

00000000 <.LC3>:
   0:	7265                	lui	x4,0xffff9
   2:	6f72                	flw	f30,28(x2)
   4:	3a72                	fld	f20,312(x2)
   6:	6420                	flw	f8,72(x8)
   8:	6d69                	lui	x26,0x1a
   a:	7365                	lui	x6,0xffff9
   c:	696e                	flw	f18,216(x2)
   e:	6d206e6f          	jal	x28,66e0 <.L225+0x5508>
  12:	7375                	lui	x6,0xffffd
  14:	2074                	fld	f13,192(x8)
  16:	6562                	flw	f10,24(x2)
  18:	6c20                	flw	f8,88(x8)
  1a:	7365                	lui	x6,0xffff9
  1c:	68742073          	csrs	0x687,x8
  20:	6e61                	lui	x28,0x18
  22:	2520                	fld	f8,72(x10)
  24:	0a64                	addi	x9,x2,284
	...

00000028 <.LC4>:
  28:	7265                	lui	x4,0xffff9
  2a:	6f72                	flw	f30,28(x2)
  2c:	3a72                	fld	f20,312(x2)
  2e:	4e20                	lw	x8,88(x12)
  30:	253d                	jal	65e <.L58+0xa>
  32:	2064                	fld	f9,192(x8)
  34:	7562                	flw	f10,56(x2)
  36:	2074                	fld	f13,192(x8)
  38:	6361                	lui	x6,0x18
  3a:	73736563          	bltu	x6,x23,764 <.L39>
  3e:	6465                	lui	x8,0x19
  40:	2520                	fld	f8,72(x10)
  42:	0a64                	addi	x9,x2,284
  44:	0000                	unimp
	...

00000048 <.LC5>:
  48:	6e72656b          	0x6e72656b
  4c:	6c65                	lui	x24,0x19
  4e:	4c5f 736f 4e73      	0x4e73736f4c5f
  54:	4c4c                	lw	x11,28(x8)
  56:	632e                	flw	f6,200(x2)
  58:	7070                	flw	f12,100(x8)
	...

0000005c <.LC6>:
  5c:	7361                	lui	x6,0xffff8
  5e:	74726573          	csrrsi	x10,0x747,4
  62:	6620                	flw	f8,72(x12)
  64:	6961                	lui	x18,0x18
  66:	656c                	flw	f11,76(x10)
  68:	2064                	fld	f9,192(x8)
  6a:	7461                	lui	x8,0xffff8
  6c:	2520                	fld	f8,72(x10)
  6e:	64253a73          	csrrc	x20,0x642,x10
	...

Disassembly of section .srodata.cst4:

00000000 <.LC7>:
   0:	0000                	unimp
   2:	3f80                	fld	f8,56(x15)

Disassembly of section .comment:

00000000 <.comment>:
   0:	4700                	lw	x8,8(x14)
   2:	203a4343          	fmadd.s	f6,f20,f3,f4,rmm
   6:	4728                	lw	x10,72(x14)
   8:	554e                	lw	x10,240(x2)
   a:	2029                	jal	14 <_ZN8HBTensorIfLln1EEC5EP11hb_tensor_t+0x14>
   c:	2e39                	jal	32a <.L99+0x1a>
   e:	2e32                	fld	f28,264(x2)
  10:	0030                	addi	x12,x2,8

Disassembly of section .eh_frame:

00000000 <.eh_frame>:
   0:	0010                	0x10
   2:	0000                	unimp
   4:	0000                	unimp
   6:	0000                	unimp
   8:	7a01                	lui	x20,0xfffe0
   a:	0052                	c.slli	x0,0x14
   c:	7c01                	lui	x24,0xfffe0
   e:	0101                	addi	x2,x2,0
  10:	00020d1b          	0x20d1b
  14:	0014                	0x14
  16:	0000                	unimp
  18:	0018                	0x18
	...
  22:	0000                	unimp
  24:	0200                	addi	x8,x2,256
  26:	0e84                	addi	x9,x2,848
  28:	4810                	lw	x12,16(x8)
  2a:	0181                	addi	x3,x3,0
  2c:	0014                	0x14
  2e:	0000                	unimp
  30:	0030                	addi	x12,x2,8
	...
  3a:	0000                	unimp
  3c:	0200                	addi	x8,x2,256
  3e:	0e84                	addi	x9,x2,848
  40:	4810                	lw	x12,16(x8)
  42:	0181                	addi	x3,x3,0
  44:	0044                	addi	x9,x2,4
  46:	0000                	unimp
  48:	0048                	addi	x10,x2,4
	...
  52:	0000                	unimp
  54:	4400                	lw	x8,8(x8)
  56:	e00e                	fsw	f3,0(x2)
  58:	4802                	lw	x16,0(x2)
  5a:	0492                	slli	x9,x9,0x4
  5c:	815c0593          	addi	x11,x24,-2027 # fffdf815 <.L225+0xfffde63d>
  60:	8801                	andi	x8,x8,0
  62:	8902                	jr	x18
  64:	06945003          	lhu	x0,105(x8) # ffff8069 <.L225+0xffff6e91>
  68:	0795                	addi	x15,x15,5
  6a:	9650                	0x9650
  6c:	9708                	0x9708
  6e:	0309                	addi	x6,x6,2
  70:	010c                	addi	x11,x2,128
  72:	c10a                	sw	x2,128(x2)
  74:	c844                	sw	x9,20(x8)
  76:	c948                	sw	x10,20(x10)
  78:	d244                	sw	x9,36(x12)
  7a:	d344                	sw	x9,36(x14)
  7c:	d444                	sw	x9,44(x8)
  7e:	d544                	sw	x9,44(x10)
  80:	d644                	sw	x9,44(x12)
  82:	d744                	sw	x9,44(x14)
  84:	0e48                	addi	x10,x2,788
  86:	4400                	lw	x8,8(x8)
  88:	0000000b          	0xb
  8c:	0034                	addi	x13,x2,8
  8e:	0000                	unimp
  90:	0090                	addi	x12,x2,64
	...
  9a:	0000                	unimp
  9c:	4400                	lw	x8,8(x8)
  9e:	900e                	c.add	x0,x3
  a0:	4c02                	lw	x24,0(x2)
  a2:	0492                	slli	x9,x9,0x4
  a4:	8154                	0x8154
  a6:	8801                	andi	x8,x8,0
  a8:	8902                	jr	x18
  aa:	05935003          	lhu	x0,89(x6) # ffff8059 <.L225+0xffff6e81>
  ae:	0694                	addi	x13,x2,832
  b0:	a402                	fsd	f0,8(x2)
  b2:	c10a                	sw	x2,128(x2)
  b4:	c844                	sw	x9,20(x8)
  b6:	c944                	sw	x9,20(x10)
  b8:	d244                	sw	x9,36(x12)
  ba:	d344                	sw	x9,36(x14)
  bc:	d444                	sw	x9,44(x8)
  be:	0e48                	addi	x10,x2,788
  c0:	4400                	lw	x8,8(x8)
  c2:	001c000b          	0x1c000b
  c6:	0000                	unimp
  c8:	00c8                	addi	x10,x2,68
	...
  d2:	0000                	unimp
  d4:	4400                	lw	x8,8(x8)
  d6:	100e                	c.slli	x0,0x23
  d8:	8148                	0x8148
  da:	0201                	addi	x4,x4,0
  dc:	0a6c                	addi	x11,x2,284
  de:	4cc1                	li	x25,16
  e0:	000e                	c.slli	x0,0x3
  e2:	0b44                	addi	x9,x2,404

Disassembly of section .riscv.attributes:

00000000 <.riscv.attributes>:
   0:	2a41                	jal	190 <.L31+0xc>
   2:	0000                	unimp
   4:	7200                	flw	f8,32(x12)
   6:	7369                	lui	x6,0xffffa
   8:	01007663          	bgeu	x0,x16,14 <.riscv.attributes+0x14>
   c:	0020                	addi	x8,x2,8
   e:	0000                	unimp
  10:	1004                	addi	x9,x2,32
  12:	7205                	lui	x4,0xfffe1
  14:	3376                	fld	f6,376(x2)
  16:	6932                	flw	f18,12(x2)
  18:	7032                	flw	f0,44(x2)
  1a:	5f30                	lw	x12,120(x14)
  1c:	326d                	jal	fffff9c6 <.L225+0xffffe7ee>
  1e:	3070                	fld	f12,224(x8)
  20:	615f 7032 5f30      	0x5f307032615f
  26:	3266                	fld	f4,120(x2)
  28:	3070                	fld	f12,224(x8)
	...
