
kernel_copy_hb_to_hb.o:     file format elf32-littleriscv


Disassembly of section .group:

00000000 <_ZN8HBTensorIiLln1EEC5EP11hb_tensor_t>:
   0:	0001                	nop
   2:	0000                	unimp
   4:	001c                	0x1c
   6:	0000                	unimp
   8:	001d                	c.nop	7
	...

Disassembly of section .group:

00000000 <.group>:
   0:	0001                	nop
   2:	0000                	unimp
   4:	001e                	c.slli	x0,0x7
   6:	0000                	unimp
   8:	001f 0000       	0x1f

Disassembly of section .group:

00000000 <_ZN8HBTensorIxLln1EEC5EP11hb_tensor_t>:
   0:	0001                	nop
   2:	0000                	unimp
   4:	0020                	addi	x8,x2,8
   6:	0000                	unimp
   8:	0021                	c.nop	8
	...

Disassembly of section .group:

00000000 <.group>:
   0:	0001                	nop
   2:	0000                	unimp
   4:	0022                	c.slli	x0,0x8
   6:	0000                	unimp
   8:	00000023          	sb	x0,0(x0) # 0 <.group>

Disassembly of section .group:

00000000 <.group>:
   0:	0001                	nop
   2:	0000                	unimp
   4:	0024                	addi	x9,x2,8
   6:	0000                	unimp
   8:	0025                	c.nop	9
	...

Disassembly of section .group:

00000000 <.group>:
   0:	0001                	nop
   2:	0000                	unimp
   4:	0026                	c.slli	x0,0x9
   6:	0000                	unimp
   8:	00000027          	0x27

Disassembly of section .group:

00000000 <_ZN8HBTensorIfLln1EEC5EP11hb_tensor_t>:
   0:	0001                	nop
   2:	0000                	unimp
   4:	0028                	addi	x10,x2,8
   6:	0000                	unimp
   8:	0029                	c.nop	10
	...

Disassembly of section .group:

00000000 <.group>:
   0:	0001                	nop
   2:	0000                	unimp
   4:	002a                	c.slli	x0,0xa
   6:	0000                	unimp
   8:	0000002b          	0x2b

Disassembly of section .group:

00000000 <.group>:
   0:	0001                	nop
   2:	0000                	unimp
   4:	002c                	addi	x11,x2,8
   6:	0000                	unimp
   8:	002d                	c.nop	11
	...

Disassembly of section .group:

00000000 <.group>:
   0:	0001                	nop
   2:	0000                	unimp
   4:	002e                	c.slli	x0,0xb
   6:	0000                	unimp
   8:	0000002f          	0x2f

Disassembly of section .group:

00000000 <.group>:
   0:	0001                	nop
   2:	0000                	unimp
   4:	0030                	addi	x12,x2,8
   6:	0000                	unimp
   8:	0031                	c.nop	12
	...

Disassembly of section .group:

00000000 <.group>:
   0:	0001                	nop
   2:	0000                	unimp
   4:	0032                	c.slli	x0,0xc
   6:	0000                	unimp
   8:	00000033          	add	x0,x0,x0

Disassembly of section .group:

00000000 <_ZN8HBTensorIdLln1EEC5EP11hb_tensor_t>:
   0:	0001                	nop
   2:	0000                	unimp
   4:	0034                	addi	x13,x2,8
   6:	0000                	unimp
   8:	0035                	c.nop	13
	...

Disassembly of section .group:

00000000 <.group>:
   0:	0001                	nop
   2:	0000                	unimp
   4:	0036                	c.slli	x0,0xd
   6:	0000                	unimp
   8:	00000037          	lui	x0,0x0

Disassembly of section .group:

00000000 <.group>:
   0:	0001                	nop
   2:	0000                	unimp
   4:	0038                	addi	x14,x2,8
   6:	0000                	unimp
   8:	0039                	c.nop	14
	...

Disassembly of section .group:

00000000 <.group>:
   0:	0001                	nop
   2:	0000                	unimp
   4:	003a                	c.slli	x0,0xe
   6:	0000                	unimp
   8:	0000003b          	0x3b

Disassembly of section .group:

00000000 <.group>:
   0:	0001                	nop
   2:	0000                	unimp
   4:	003c                	addi	x15,x2,8
   6:	0000                	unimp
   8:	003d                	c.nop	15
	...

Disassembly of section .group:

00000000 <.group>:
   0:	0001                	nop
   2:	0000                	unimp
   4:	003e                	c.slli	x0,0xf
   6:	0000                	unimp
   8:	0000003f  	0x3f

Disassembly of section .group:

00000000 <.group>:
   0:	0001                	nop
   2:	0000                	unimp
   4:	0040                	addi	x8,x2,4
   6:	0000                	unimp
   8:	0041                	c.nop	16
	...

Disassembly of section .group:

00000000 <.group>:
   0:	0001                	nop
   2:	0000                	unimp
   4:	0042                	c.slli	x0,0x10
   6:	0000                	unimp
   8:	00000043          	fmadd.s	f0,f0,f0,f0,rne

Disassembly of section .group:

00000000 <.group>:
   0:	0001                	nop
   2:	0000                	unimp
   4:	0044                	addi	x9,x2,4
   6:	0000                	unimp
   8:	0045                	c.nop	17
	...

Disassembly of section .group:

00000000 <.group>:
   0:	0001                	nop
   2:	0000                	unimp
   4:	0046                	c.slli	x0,0x11
   6:	0000                	unimp
   8:	00000047          	fmsub.s	f0,f0,f0,f0,rne

Disassembly of section .text:

00000000 <tensorlib_copy_Int_to_Int>:
   0:	00000317          	auipc	x6,0x0
   4:	00030067          	jr	x6 # 0 <tensorlib_copy_Int_to_Int>

00000008 <tensorlib_copy_Int_to_Long>:
   8:	00000317          	auipc	x6,0x0
   c:	00030067          	jr	x6 # 8 <tensorlib_copy_Int_to_Long>

00000010 <tensorlib_copy_Long_to_Int>:
  10:	00000317          	auipc	x6,0x0
  14:	00030067          	jr	x6 # 10 <tensorlib_copy_Long_to_Int>

00000018 <tensorlib_copy_Long_to_Long>:
  18:	00000317          	auipc	x6,0x0
  1c:	00030067          	jr	x6 # 18 <tensorlib_copy_Long_to_Long>

00000020 <tensorlib_copy_Int_to_Float>:
  20:	00000317          	auipc	x6,0x0
  24:	00030067          	jr	x6 # 20 <tensorlib_copy_Int_to_Float>

00000028 <tensorlib_copy_Long_to_Float>:
  28:	00000317          	auipc	x6,0x0
  2c:	00030067          	jr	x6 # 28 <tensorlib_copy_Long_to_Float>

00000030 <tensorlib_copy_Float_to_Int>:
  30:	00000317          	auipc	x6,0x0
  34:	00030067          	jr	x6 # 30 <tensorlib_copy_Float_to_Int>

00000038 <tensorlib_copy_Float_to_Long>:
  38:	00000317          	auipc	x6,0x0
  3c:	00030067          	jr	x6 # 38 <tensorlib_copy_Float_to_Long>

00000040 <tensorlib_copy_Float_to_Float>:
  40:	00000317          	auipc	x6,0x0
  44:	00030067          	jr	x6 # 40 <tensorlib_copy_Float_to_Float>

00000048 <tensorlib_copy_Int_to_Double>:
  48:	00000317          	auipc	x6,0x0
  4c:	00030067          	jr	x6 # 48 <tensorlib_copy_Int_to_Double>

00000050 <tensorlib_copy_Float_to_Double>:
  50:	00000317          	auipc	x6,0x0
  54:	00030067          	jr	x6 # 50 <tensorlib_copy_Float_to_Double>

00000058 <tensorlib_copy_Double_to_Int>:
  58:	00000317          	auipc	x6,0x0
  5c:	00030067          	jr	x6 # 58 <tensorlib_copy_Double_to_Int>

00000060 <tensorlib_copy_Double_to_Float>:
  60:	00000317          	auipc	x6,0x0
  64:	00030067          	jr	x6 # 60 <tensorlib_copy_Double_to_Float>

00000068 <tensorlib_copy_Double_to_Double>:
  68:	00000317          	auipc	x6,0x0
  6c:	00030067          	jr	x6 # 68 <tensorlib_copy_Double_to_Double>

00000070 <tensorlib_copy_Long_to_Double>:
  70:	00000317          	auipc	x6,0x0
  74:	00030067          	jr	x6 # 70 <tensorlib_copy_Long_to_Double>

00000078 <tensorlib_copy_Double_to_Long>:
  78:	00000317          	auipc	x6,0x0
  7c:	00030067          	jr	x6 # 78 <tensorlib_copy_Double_to_Long>

Disassembly of section .rodata._ZN8HBTensorIiLln1EEC2EP11hb_tensor_t.str1.4:

00000000 <.LC0>:
   0:	6d6f682f          	0x6d6f682f
   4:	2f65                	jal	7bc <.L1040+0x28>
   6:	7a7a                	flw	f20,188(x2)
   8:	3435                	jal	fffffa34 <.L1103+0xfffff238>
   a:	2f36                	fld	f30,328(x2)
   c:	6268                	flw	f10,68(x12)
   e:	702d                	c.lui	x0,0xfffeb
  10:	7479                	lui	x8,0xffffe
  12:	6863726f          	jal	x4,37698 <.L1103+0x36e9c>
  16:	6d61682f          	0x6d61682f
  1a:	656d                	lui	x10,0x1b
  1c:	6272                	flw	f4,28(x2)
  1e:	616c                	flw	f11,68(x10)
  20:	6564                	flw	f9,76(x10)
  22:	726f742f          	0x726f742f
  26:	6b2f6863          	bltu	x30,x18,6d6 <.L198+0xa>
  2a:	7265                	lui	x4,0xffff9
  2c:	656e                	flw	f10,216(x2)
  2e:	2f6c                	fld	f11,216(x14)
  30:	6268                	flw	f10,68(x12)
  32:	745f 6e65 6f73      	0x6f736e65745f
  38:	2e72                	fld	f28,280(x2)
  3a:	7068                	flw	f10,100(x8)
  3c:	0070                	addi	x12,x2,12
	...

00000040 <.LC1>:
  40:	7361                	lui	x6,0xffff8
  42:	74726573          	csrrsi	x10,0x747,4
  46:	6620                	flw	f8,72(x12)
  48:	6961                	lui	x18,0x18
  4a:	656c                	flw	f11,76(x10)
  4c:	2064                	fld	f9,192(x8)
  4e:	7461                	lui	x8,0xffff8
  50:	2520                	fld	f8,72(x10)
  52:	64253a73          	csrrc	x20,0x642,x10
  56:	0020                	addi	x8,x2,8

00000058 <.LC2>:
  58:	7265                	lui	x4,0xffff9
  5a:	6f72                	flw	f30,28(x2)
  5c:	3a72                	fld	f20,312(x2)
  5e:	7420                	flw	f8,104(x8)
  60:	6e65                	lui	x28,0x19
  62:	20726f73          	csrrsi	x30,0x207,4
  66:	6964                	flw	f9,84(x10)
  68:	736d                	lui	x6,0xffffb
  6a:	6920                	flw	f8,80(x10)
  6c:	6f742073          	csrs	0x6f7,x8
  70:	616c206f          	j	c2686 <.L1103+0xc1e8a>
  74:	6772                	flw	f14,28(x2)
  76:	0065                	c.nop	25

Disassembly of section .text._ZN8HBTensorIiLln1EEC2EP11hb_tensor_t:

00000000 <_ZN8HBTensorIiLln1EEC1EP11hb_tensor_t>:
   0:	00058713          	mv	x14,x11
   4:	0045a683          	lw	x13,4(x11)
   8:	00072803          	lw	x16,0(x14)
   c:	0105a583          	lw	x11,16(x11)
  10:	00050793          	mv	x15,x10
  14:	02850613          	addi	x12,x10,40 # 1b028 <.L1103+0x1a82c>
  18:	01450513          	addi	x10,x10,20
  1c:	0107a023          	sw	x16,0(x15)
  20:	00d7a223          	sw	x13,4(x15)
  24:	00a7a423          	sw	x10,8(x15)
  28:	00c7a623          	sw	x12,12(x15)
  2c:	00b7a823          	sw	x11,16(x15)
  30:	00060613          	mv	x12,x12
  34:	00500293          	li	x5,5
  38:	04d2e463          	bltu	x5,x13,80 <.L14>
  3c:	00872303          	lw	x6,8(x14)
  40:	00c72383          	lw	x7,12(x14)
  44:	02068c63          	beqz	x13,7c <.L1>
  48:	00269893          	slli	x17,x13,0x2
  4c:	00078713          	mv	x14,x15
  50:	01178e33          	add	x28,x15,x17
  54:	40f30eb3          	sub	x29,x6,x15
  58:	40f38f33          	sub	x30,x7,x15

0000005c <.L5>:
  5c:	00ee8fb3          	add	x31,x29,x14
  60:	000fa683          	lw	x13,0(x31)
  64:	00ef05b3          	add	x11,x30,x14
  68:	00470713          	addi	x14,x14,4
  6c:	00d72823          	sw	x13,16(x14)
  70:	0005a803          	lw	x16,0(x11)
  74:	03072223          	sw	x16,36(x14)
  78:	ffc712e3          	bne	x14,x28,5c <.L5>

0000007c <.L1>:
  7c:	00008067          	ret

00000080 <.L14>:
  80:	ff010113          	addi	x2,x2,-16
  84:	000007b7          	lui	x15,0x0
  88:	00112623          	sw	x1,12(x2)
  8c:	000000b7          	lui	x1,0x0
  90:	0cb00613          	li	x12,203
  94:	00008593          	mv	x11,x1
  98:	00078513          	mv	x10,x15
  9c:	00000097          	auipc	x1,0x0
  a0:	000080e7          	jalr	x1 # 9c <.L14+0x1c>
  a4:	00000637          	lui	x12,0x0
  a8:	00060513          	mv	x10,x12
  ac:	00000097          	auipc	x1,0x0
  b0:	000080e7          	jalr	x1 # ac <.L14+0x2c>
  b4:	00000537          	lui	x10,0x0
  b8:	00052283          	lw	x5,0(x10) # 0 <_ZN8HBTensorIiLln1EEC1EP11hb_tensor_t>
  bc:	00000337          	lui	x6,0x0
  c0:	00032383          	lw	x7,0(x6) # 0 <_ZN8HBTensorIiLln1EEC1EP11hb_tensor_t>
  c4:	01029893          	slli	x17,x5,0x10
  c8:	4100feb7          	lui	x29,0x4100f
  cc:	00788e33          	add	x28,x17,x7
  d0:	adceac23          	sw	x28,-1320(x29) # 4100ead8 <.L1103+0x4100e2dc>

000000d4 <.L3>:
  d4:	0000006f          	j	d4 <.L3>

Disassembly of section .text._Z19tensorlib_copy_implIiiEiP11hb_tensor_tS1_:

00000000 <_Z19tensorlib_copy_implIiiEiP11hb_tensor_tS1_>:
   0:	f5010113          	addi	x2,x2,-176
   4:	00050793          	mv	x15,x10
   8:	0a812423          	sw	x8,168(x2)
   c:	00810513          	addi	x10,x2,8
  10:	00058413          	mv	x8,x11
  14:	00078593          	mv	x11,x15
  18:	0a112623          	sw	x1,172(x2)
  1c:	0a912223          	sw	x9,164(x2)
  20:	0b212023          	sw	x18,160(x2)
  24:	09312e23          	sw	x19,156(x2)
  28:	09412c23          	sw	x20,152(x2)
  2c:	09512a23          	sw	x21,148(x2)
  30:	09612823          	sw	x22,144(x2)
  34:	09712623          	sw	x23,140(x2)
  38:	09812423          	sw	x24,136(x2)
  3c:	09912223          	sw	x25,132(x2)
  40:	00000097          	auipc	x1,0x0
  44:	000080e7          	jalr	x1 # 40 <_Z19tensorlib_copy_implIiiEiP11hb_tensor_tS1_+0x40>
  48:	00040593          	mv	x11,x8
  4c:	04410513          	addi	x10,x2,68
  50:	00000097          	auipc	x1,0x0
  54:	000080e7          	jalr	x1 # 50 <_Z19tensorlib_copy_implIiiEiP11hb_tensor_tS1_+0x50>
  58:	00000fb7          	lui	x31,0x0
  5c:	000006b7          	lui	x13,0x0
  60:	00000f37          	lui	x30,0x0
  64:	00000637          	lui	x12,0x0
  68:	000fa283          	lw	x5,0(x31) # 0 <_Z19tensorlib_copy_implIiiEiP11hb_tensor_tS1_>
  6c:	0006a803          	lw	x16,0(x13) # 0 <_Z19tensorlib_copy_implIiiEiP11hb_tensor_tS1_>
  70:	000f2703          	lw	x14,0(x30) # 0 <_Z19tensorlib_copy_implIiiEiP11hb_tensor_tS1_>
  74:	00062503          	lw	x10,0(x12) # 0 <_Z19tensorlib_copy_implIiiEiP11hb_tensor_tS1_>
  78:	00000eb7          	lui	x29,0x0
  7c:	000ea583          	lw	x11,0(x29) # 0 <_Z19tensorlib_copy_implIiiEiP11hb_tensor_tS1_>
  80:	01028333          	add	x6,x5,x16
  84:	00a703b3          	add	x7,x14,x10
  88:	01831493          	slli	x9,x6,0x18
  8c:	01239893          	slli	x17,x7,0x12
  90:	3f000937          	lui	x18,0x3f000
  94:	00fc0a37          	lui	x20,0xfc0
  98:	00040c37          	lui	x24,0x40
  9c:	0124f9b3          	and	x19,x9,x18
  a0:	0148fab3          	and	x21,x17,x20
  a4:	00459b13          	slli	x22,x11,0x4
  a8:	ff0c0c93          	addi	x25,x24,-16 # 3fff0 <.L1103+0x3f7f4>
  ac:	019b7e33          	and	x28,x22,x25
  b0:	0159ebb3          	or	x23,x19,x21
  b4:	01cbe7b3          	or	x15,x23,x28
  b8:	00c12283          	lw	x5,12(x2)
  bc:	80000437          	lui	x8,0x80000
  c0:	0087e833          	or	x16,x15,x8
  c4:	41001737          	lui	x14,0x41001
  c8:	d1072623          	sw	x16,-756(x14) # 41000d0c <.L1103+0x41000510>
  cc:	00100513          	li	x10,1
  d0:	00812483          	lw	x9,8(x2)
  d4:	01012883          	lw	x17,16(x2)
  d8:	01812e03          	lw	x28,24(x2)
  dc:	04c12803          	lw	x16,76(x2)
  e0:	05412303          	lw	x6,84(x2)
  e4:	3ca28e63          	beq	x5,x10,4c0 <.L92>
  e8:	00200093          	li	x1,2
  ec:	01412383          	lw	x7,20(x2)
  f0:	1c128863          	beq	x5,x1,2c0 <.L93>
  f4:	00300593          	li	x11,3
  f8:	05012903          	lw	x18,80(x2)
  fc:	4cb28263          	beq	x5,x11,5c0 <.L94>
 100:	fff48993          	addi	x19,x9,-1
 104:	ffd00a13          	li	x20,-3
 108:	0d3a6463          	bltu	x20,x19,1d0 <.L21>
 10c:	00000ab7          	lui	x21,0x0
 110:	000aab03          	lw	x22,0(x21) # 0 <_Z19tensorlib_copy_implIiiEiP11hb_tensor_tS1_>
 114:	0044db93          	srli	x23,x9,0x4
 118:	001b8c13          	addi	x24,x23,1
 11c:	036c05b3          	mul	x11,x24,x22
 120:	00bc00b3          	add	x1,x24,x11
 124:	5614e063          	bltu	x9,x1,684 <.L95>

00000128 <.L39>:
 128:	0a15f463          	bgeu	x11,x1,1d0 <.L21>
 12c:	04812983          	lw	x19,72(x2)
 130:	00229c93          	slli	x25,x5,0x2
 134:	01938ab3          	add	x21,x7,x25
 138:	00299793          	slli	x15,x19,0x2
 13c:	00f90a33          	add	x20,x18,x15

00000140 <.L44>:
 140:	46028c63          	beqz	x5,5b8 <.L61>
 144:	00088413          	mv	x8,x17
 148:	00038c13          	mv	x24,x7
 14c:	00058513          	mv	x10,x11
 150:	00000793          	li	x15,0

00000154 <.L41>:
 154:	000c2b03          	lw	x22,0(x24)
 158:	00042b83          	lw	x23,0(x8) # 80000000 <.L1103+0x7ffff804>
 15c:	004c0c13          	addi	x24,x24,4
 160:	036574b3          	remu	x9,x10,x22
 164:	00440413          	addi	x8,x8,4
 168:	03748cb3          	mul	x25,x9,x23
 16c:	03655533          	divu	x10,x10,x22
 170:	019787b3          	add	x15,x15,x25
 174:	ff8a90e3          	bne	x21,x24,154 <.L41>
 178:	00279713          	slli	x14,x15,0x2
 17c:	00ee0733          	add	x14,x28,x14

00000180 <.L40>:
 180:	42098863          	beqz	x19,5b0 <.L62>
 184:	00080493          	mv	x9,x16
 188:	00090513          	mv	x10,x18
 18c:	00058413          	mv	x8,x11
 190:	00000793          	li	x15,0

00000194 <.L43>:
 194:	00052c03          	lw	x24,0(x10)
 198:	0004ac83          	lw	x25,0(x9)
 19c:	00450513          	addi	x10,x10,4
 1a0:	00448493          	addi	x9,x9,4
 1a4:	03847bb3          	remu	x23,x8,x24
 1a8:	039b8b33          	mul	x22,x23,x25
 1ac:	03845433          	divu	x8,x8,x24
 1b0:	016787b3          	add	x15,x15,x22
 1b4:	feaa10e3          	bne	x20,x10,194 <.L43>
 1b8:	00279c13          	slli	x24,x15,0x2
 1bc:	01830b33          	add	x22,x6,x24

000001c0 <.L42>:
 1c0:	000b2c83          	lw	x25,0(x22)
 1c4:	00158593          	addi	x11,x11,1
 1c8:	01972023          	sw	x25,0(x14)
 1cc:	f6b09ae3          	bne	x1,x11,140 <.L44>

000001d0 <.L21>:
 1d0:	000faf83          	lw	x31,0(x31)
 1d4:	0006ac83          	lw	x25,0(x13)
 1d8:	000f2f03          	lw	x30,0(x30)
 1dc:	00062883          	lw	x17,0(x12)
 1e0:	000eae83          	lw	x29,0(x29)
 1e4:	019f8833          	add	x16,x31,x25
 1e8:	011f0bb3          	add	x23,x30,x17
 1ec:	01881393          	slli	x7,x16,0x18
 1f0:	012b9293          	slli	x5,x23,0x12
 1f4:	3f000a37          	lui	x20,0x3f000
 1f8:	00fc0b37          	lui	x22,0xfc0
 1fc:	00040737          	lui	x14,0x40
 200:	0143fc33          	and	x24,x7,x20
 204:	0162f0b3          	and	x1,x5,x22
 208:	004e9993          	slli	x19,x29,0x4
 20c:	ff070913          	addi	x18,x14,-16 # 3fff0 <.L1103+0x3f7f4>
 210:	001c6ab3          	or	x21,x24,x1
 214:	0129fe33          	and	x28,x19,x18
 218:	01cae4b3          	or	x9,x21,x28
 21c:	c00005b7          	lui	x11,0xc0000
 220:	410017b7          	lui	x15,0x41001
 224:	00b4e433          	or	x8,x9,x11
 228:	d087a623          	sw	x8,-756(x15) # 41000d0c <.L1103+0x41000510>
 22c:	00062303          	lw	x6,0(x12)
 230:	0006a503          	lw	x10,0(x13)
 234:	00000cb7          	lui	x25,0x0
 238:	00430f93          	addi	x31,x6,4
 23c:	000c8793          	mv	x15,x25
 240:	01f78f33          	add	x30,x15,x31
 244:	01851893          	slli	x17,x10,0x18
 248:	011f6eb3          	or	x29,x30,x17
 24c:	20040837          	lui	x16,0x20040
 250:	010eebb3          	or	x23,x29,x16
 254:	00100393          	li	x7,1
 258:	007b8023          	sb	x7,0(x23)
 25c:	00062283          	lw	x5,0(x12)
 260:	10728063          	beq	x5,x7,360 <.L45>

00000264 <.L56>:
 264:	00100913          	li	x18,1
 268:	0100006f          	j	278 <.L60>

0000026c <.L96>:
 26c:	000c8493          	mv	x9,x25
 270:	1404a5af          	lr.w.aq	x11,(x9)
 274:	01258863          	beq	x11,x18,284 <.L59>

00000278 <.L60>:
 278:	000c8693          	mv	x13,x25
 27c:	1006ae2f          	lr.w	x28,(x13)
 280:	ff2e16e3          	bne	x28,x18,26c <.L96>

00000284 <.L59>:
 284:	0ac12083          	lw	x1,172(x2)
 288:	0a812403          	lw	x8,168(x2)
 28c:	0007a023          	sw	x0,0(x15)
 290:	0a412483          	lw	x9,164(x2)
 294:	0a012903          	lw	x18,160(x2)
 298:	09c12983          	lw	x19,156(x2)
 29c:	09812a03          	lw	x20,152(x2)
 2a0:	09412a83          	lw	x21,148(x2)
 2a4:	09012b03          	lw	x22,144(x2)
 2a8:	08c12b83          	lw	x23,140(x2)
 2ac:	08812c03          	lw	x24,136(x2)
 2b0:	08412c83          	lw	x25,132(x2)
 2b4:	00000513          	li	x10,0
 2b8:	0b010113          	addi	x2,x2,176
 2bc:	00008067          	ret

000002c0 <.L93>:
 2c0:	0003a283          	lw	x5,0(x7)
 2c4:	ffd00c93          	li	x25,-3
 2c8:	fff28093          	addi	x1,x5,-1
 2cc:	f01ce2e3          	bltu	x25,x1,1d0 <.L21>
 2d0:	00000ab7          	lui	x21,0x0
 2d4:	000aa403          	lw	x8,0(x21) # 0 <_Z19tensorlib_copy_implIiiEiP11hb_tensor_tS1_>
 2d8:	0042d993          	srli	x19,x5,0x4
 2dc:	00198913          	addi	x18,x19,1
 2e0:	02890433          	mul	x8,x18,x8
 2e4:	00890bb3          	add	x23,x18,x8
 2e8:	3b72e263          	bltu	x5,x23,68c <.L97>
 2ec:	ef7472e3          	bgeu	x8,x23,1d0 <.L21>

000002f0 <.L101>:
 2f0:	00082583          	lw	x11,0(x16) # 20040000 <.L1103+0x2003f804>
 2f4:	0008a483          	lw	x9,0(x17)
 2f8:	0043a383          	lw	x7,4(x7)
 2fc:	00259a13          	slli	x20,x11,0x2
 300:	00249c13          	slli	x24,x9,0x2
 304:	03440b33          	mul	x22,x8,x20
 308:	038407b3          	mul	x15,x8,x24
 30c:	01630333          	add	x6,x6,x22
 310:	00fe0e33          	add	x28,x28,x15

00000314 <.L30>:
 314:	00030293          	mv	x5,x6
 318:	02038a63          	beqz	x7,34c <.L32>
 31c:	0048ac83          	lw	x25,4(x17)
 320:	00482703          	lw	x14,4(x16)
 324:	000e0513          	mv	x10,x28
 328:	002c9093          	slli	x1,x25,0x2
 32c:	00271a93          	slli	x21,x14,0x2
 330:	00000913          	li	x18,0

00000334 <.L31>:
 334:	0002a983          	lw	x19,0(x5)
 338:	00190913          	addi	x18,x18,1 # 3f000001 <.L1103+0x3efff805>
 33c:	015282b3          	add	x5,x5,x21
 340:	01352023          	sw	x19,0(x10)
 344:	00150533          	add	x10,x10,x1
 348:	ff2396e3          	bne	x7,x18,334 <.L31>

0000034c <.L32>:
 34c:	00140413          	addi	x8,x8,1
 350:	01430333          	add	x6,x6,x20
 354:	018e0e33          	add	x28,x28,x24
 358:	fa8b9ee3          	bne	x23,x8,314 <.L30>
 35c:	e75ff06f          	j	1d0 <.L21>

00000360 <.L45>:
 360:	0047ca03          	lbu	x20,4(x15)
 364:	0ffa7c13          	andi	x24,x20,255
 368:	fe0c0ce3          	beqz	x24,360 <.L45>
 36c:	0057cb03          	lbu	x22,5(x15)
 370:	0ffb7093          	andi	x1,x22,255
 374:	fe0086e3          	beqz	x1,360 <.L45>
 378:	0067c983          	lbu	x19,6(x15)
 37c:	0ff9fa93          	andi	x21,x19,255
 380:	fe0a80e3          	beqz	x21,360 <.L45>
 384:	0077c703          	lbu	x14,7(x15)
 388:	0ff77913          	andi	x18,x14,255
 38c:	fc090ae3          	beqz	x18,360 <.L45>
 390:	0006ae03          	lw	x28,0(x13)
 394:	21040337          	lui	x6,0x21040
 398:	00100493          	li	x9,1
 39c:	00ce0593          	addi	x11,x28,12 # 1900c <.L1103+0x18810>
 3a0:	00b78433          	add	x8,x15,x11
 3a4:	00646533          	or	x10,x8,x6
 3a8:	00950023          	sb	x9,0(x10)
 3ac:	00062f83          	lw	x31,0(x12)
 3b0:	ea9f9ae3          	bne	x31,x9,264 <.L56>
 3b4:	0006a703          	lw	x14,0(x13)
 3b8:	07f70c63          	beq	x14,x31,430 <.L50>

000003bc <.L55>:
 3bc:	00100f93          	li	x31,1
 3c0:	0100006f          	j	3d0 <.L49>

000003c4 <.L98>:
 3c4:	00878893          	addi	x17,x15,8
 3c8:	1408aeaf          	lr.w.aq	x29,(x17)
 3cc:	01fe8863          	beq	x29,x31,3dc <.L57>

000003d0 <.L49>:
 3d0:	00878613          	addi	x12,x15,8
 3d4:	10062f2f          	lr.w	x30,(x12)
 3d8:	ffff16e3          	bne	x30,x31,3c4 <.L98>

000003dc <.L57>:
 3dc:	0007a423          	sw	x0,8(x15)
 3e0:	00078223          	sb	x0,4(x15)
 3e4:	000782a3          	sb	x0,5(x15)
 3e8:	00078323          	sb	x0,6(x15)
 3ec:	000783a3          	sb	x0,7(x15)
 3f0:	0007a023          	sw	x0,0(x15)
 3f4:	00000b13          	li	x22,0
 3f8:	000c8793          	mv	x15,x25
 3fc:	20000bb7          	lui	x23,0x20000
 400:	00100393          	li	x7,1
 404:	000402b7          	lui	x5,0x40
 408:	00100837          	lui	x16,0x100

0000040c <.L58>:
 40c:	0006aa03          	lw	x20,0(x13)
 410:	0167ec33          	or	x24,x15,x22
 414:	005b0b33          	add	x22,x22,x5
 418:	018a1093          	slli	x1,x20,0x18
 41c:	0180e9b3          	or	x19,x1,x24
 420:	0179eab3          	or	x21,x19,x23
 424:	007aa023          	sw	x7,0(x21)
 428:	ff0b12e3          	bne	x22,x16,40c <.L58>
 42c:	e39ff06f          	j	264 <.L56>

00000430 <.L50>:
 430:	00c7cf03          	lbu	x30,12(x15)
 434:	0fff7893          	andi	x17,x30,255
 438:	fe088ce3          	beqz	x17,430 <.L50>
 43c:	00d7ce83          	lbu	x29,13(x15)
 440:	0ffef813          	andi	x16,x29,255
 444:	fe0806e3          	beqz	x16,430 <.L50>
 448:	00e7cb83          	lbu	x23,14(x15)
 44c:	0ffbf393          	andi	x7,x23,255
 450:	fe0380e3          	beqz	x7,430 <.L50>
 454:	00f7c283          	lbu	x5,15(x15)
 458:	0ff2fa13          	andi	x20,x5,255
 45c:	fc0a0ae3          	beqz	x20,430 <.L50>
 460:	00078623          	sb	x0,12(x15)
 464:	000786a3          	sb	x0,13(x15)
 468:	00078723          	sb	x0,14(x15)
 46c:	000787a3          	sb	x0,15(x15)
 470:	00000c37          	lui	x24,0x0
 474:	0007a423          	sw	x0,8(x15)
 478:	00000513          	li	x10,0
 47c:	008c0b13          	addi	x22,x24,8 # 8 <_Z19tensorlib_copy_implIiiEiP11hb_tensor_tS1_+0x8>
 480:	03fc00b7          	lui	x1,0x3fc0
 484:	200009b7          	lui	x19,0x20000
 488:	00100a93          	li	x21,1
 48c:	01000937          	lui	x18,0x1000
 490:	04000e37          	lui	x28,0x4000

00000494 <.L54>:
 494:	01271713          	slli	x14,x14,0x12
 498:	00ab64b3          	or	x9,x22,x10
 49c:	001775b3          	and	x11,x14,x1
 4a0:	0095e433          	or	x8,x11,x9
 4a4:	01346333          	or	x6,x8,x19
 4a8:	01532023          	sw	x21,0(x6) # 21040000 <.L1103+0x2103f804>
 4ac:	01250533          	add	x10,x10,x18
 4b0:	00062703          	lw	x14,0(x12)
 4b4:	ffc510e3          	bne	x10,x28,494 <.L54>
 4b8:	f15702e3          	beq	x14,x21,3bc <.L55>
 4bc:	da9ff06f          	j	264 <.L56>

000004c0 <.L92>:
 4c0:	fff48b93          	addi	x23,x9,-1
 4c4:	ffd00593          	li	x11,-3
 4c8:	d175e4e3          	bltu	x11,x23,1d0 <.L21>
 4cc:	000003b7          	lui	x7,0x0
 4d0:	0003aa03          	lw	x20,0(x7) # 0 <_Z19tensorlib_copy_implIiiEiP11hb_tensor_tS1_>
 4d4:	0044dc13          	srli	x24,x9,0x4
 4d8:	001c0b13          	addi	x22,x24,1
 4dc:	034b07b3          	mul	x15,x22,x20
 4e0:	00fb0cb3          	add	x25,x22,x15
 4e4:	0d94e263          	bltu	x9,x25,5a8 <.L99>

000004e8 <.L20>:
 4e8:	cf97f4e3          	bgeu	x15,x25,1d0 <.L21>
 4ec:	0008a083          	lw	x1,0(x17)
 4f0:	00082983          	lw	x19,0(x16) # 100000 <.L1103+0xff804>
 4f4:	40fc8ab3          	sub	x21,x25,x15
 4f8:	00209893          	slli	x17,x1,0x2
 4fc:	00299813          	slli	x16,x19,0x2
 500:	03178733          	mul	x14,x15,x17
 504:	00400913          	li	x18,4
 508:	02f804b3          	mul	x9,x16,x15
 50c:	00ee0533          	add	x10,x28,x14
 510:	00930333          	add	x6,x6,x9
 514:	07597c63          	bgeu	x18,x21,58c <.L26>
 518:	ffcc8413          	addi	x8,x25,-4 # fffffffc <.L1103+0xfffff800>
 51c:	0687f863          	bgeu	x15,x8,58c <.L26>
 520:	00050e13          	mv	x28,x10
 524:	00309b93          	slli	x23,x1,0x3
 528:	00399513          	slli	x10,x19,0x3
 52c:	00409393          	slli	x7,x1,0x4
 530:	00499293          	slli	x5,x19,0x4
 534:	00a304b3          	add	x9,x6,x10
 538:	017e05b3          	add	x11,x28,x23

0000053c <.L25>:
 53c:	00032a03          	lw	x20,0(x6)
 540:	01030c33          	add	x24,x6,x16
 544:	000c2b03          	lw	x22,0(x24)
 548:	0004a083          	lw	x1,0(x9)
 54c:	010489b3          	add	x19,x9,x16
 550:	0009aa83          	lw	x21,0(x19) # 20000000 <.L1103+0x1ffff804>
 554:	011e0733          	add	x14,x28,x17
 558:	014e2023          	sw	x20,0(x28) # 4000000 <.L1103+0x3fff804>
 55c:	01672023          	sw	x22,0(x14)
 560:	0015a023          	sw	x1,0(x11) # c0000000 <.L1103+0xbffff804>
 564:	01158933          	add	x18,x11,x17
 568:	007e0533          	add	x10,x28,x7
 56c:	01592023          	sw	x21,0(x18) # 1000000 <.L1103+0xfff804>
 570:	00478793          	addi	x15,x15,4
 574:	00050e13          	mv	x28,x10
 578:	00530333          	add	x6,x6,x5
 57c:	005484b3          	add	x9,x9,x5
 580:	007585b3          	add	x11,x11,x7
 584:	fa87ece3          	bltu	x15,x8,53c <.L25>
 588:	c597f4e3          	bgeu	x15,x25,1d0 <.L21>

0000058c <.L26>:
 58c:	00032403          	lw	x8,0(x6)
 590:	00178793          	addi	x15,x15,1
 594:	01030333          	add	x6,x6,x16
 598:	00852023          	sw	x8,0(x10)
 59c:	01150533          	add	x10,x10,x17
 5a0:	ff97e6e3          	bltu	x15,x25,58c <.L26>
 5a4:	c2dff06f          	j	1d0 <.L21>

000005a8 <.L99>:
 5a8:	00048c93          	mv	x25,x9
 5ac:	f3dff06f          	j	4e8 <.L20>

000005b0 <.L62>:
 5b0:	00030b13          	mv	x22,x6
 5b4:	c0dff06f          	j	1c0 <.L42>

000005b8 <.L61>:
 5b8:	000e0713          	mv	x14,x28
 5bc:	bc5ff06f          	j	180 <.L40>

000005c0 <.L94>:
 5c0:	0043a283          	lw	x5,4(x7)
 5c4:	0003a083          	lw	x1,0(x7)
 5c8:	ffd00993          	li	x19,-3
 5cc:	02128ab3          	mul	x21,x5,x1
 5d0:	fffa8a13          	addi	x20,x21,-1
 5d4:	bf49eee3          	bltu	x19,x20,1d0 <.L21>
 5d8:	00000737          	lui	x14,0x0
 5dc:	00072503          	lw	x10,0(x14) # 0 <_Z19tensorlib_copy_implIiiEiP11hb_tensor_tS1_>
 5e0:	004adb93          	srli	x23,x21,0x4
 5e4:	001b8493          	addi	x9,x23,1 # 20000001 <.L1103+0x1ffff805>
 5e8:	02a48533          	mul	x10,x9,x10
 5ec:	00a48cb3          	add	x25,x9,x10
 5f0:	0b9ae463          	bltu	x21,x25,698 <.L100>

000005f4 <.L34>:
 5f4:	bd957ee3          	bgeu	x10,x25,1d0 <.L21>
 5f8:	00492403          	lw	x8,4(x18)
 5fc:	0048a083          	lw	x1,4(x17)
 600:	0008aa83          	lw	x21,0(x17)
 604:	00482983          	lw	x19,4(x16)
 608:	00082903          	lw	x18,0(x16)
 60c:	0083a383          	lw	x7,8(x7)

00000610 <.L36>:
 610:	02557c33          	remu	x24,x10,x5
 614:	02555a33          	divu	x20,x10,x5
 618:	028577b3          	remu	x15,x10,x8
 61c:	02855b33          	divu	x22,x10,x8
 620:	035a0733          	mul	x14,x20,x21
 624:	021c05b3          	mul	x11,x24,x1
 628:	032b0a33          	mul	x20,x22,x18
 62c:	00e584b3          	add	x9,x11,x14
 630:	00249c13          	slli	x24,x9,0x2
 634:	018e0733          	add	x14,x28,x24
 638:	03378bb3          	mul	x23,x15,x19
 63c:	014b87b3          	add	x15,x23,x20
 640:	00279b13          	slli	x22,x15,0x2
 644:	016307b3          	add	x15,x6,x22
 648:	02038863          	beqz	x7,678 <.L38>
 64c:	0088a583          	lw	x11,8(x17)
 650:	00882483          	lw	x9,8(x16)
 654:	00000b13          	li	x22,0
 658:	00259b93          	slli	x23,x11,0x2
 65c:	00249a13          	slli	x20,x9,0x2

00000660 <.L37>:
 660:	0007ac03          	lw	x24,0(x15)
 664:	001b0b13          	addi	x22,x22,1 # fc0001 <.L1103+0xfbf805>
 668:	014787b3          	add	x15,x15,x20
 66c:	01872023          	sw	x24,0(x14)
 670:	01770733          	add	x14,x14,x23
 674:	ff6396e3          	bne	x7,x22,660 <.L37>

00000678 <.L38>:
 678:	00150513          	addi	x10,x10,1
 67c:	f8ac9ae3          	bne	x25,x10,610 <.L36>
 680:	b51ff06f          	j	1d0 <.L21>

00000684 <.L95>:
 684:	00048093          	mv	x1,x9
 688:	aa1ff06f          	j	128 <.L39>

0000068c <.L97>:
 68c:	00028b93          	mv	x23,x5
 690:	c77460e3          	bltu	x8,x23,2f0 <.L101>
 694:	b3dff06f          	j	1d0 <.L21>

00000698 <.L100>:
 698:	000a8c93          	mv	x25,x21
 69c:	f59ff06f          	j	5f4 <.L34>

Disassembly of section .text._ZN8HBTensorIxLln1EEC2EP11hb_tensor_t:

00000000 <_ZN8HBTensorIxLln1EEC1EP11hb_tensor_t>:
   0:	00058713          	mv	x14,x11
   4:	0045a683          	lw	x13,4(x11)
   8:	00072803          	lw	x16,0(x14)
   c:	0105a583          	lw	x11,16(x11)
  10:	00050793          	mv	x15,x10
  14:	02850613          	addi	x12,x10,40
  18:	01450513          	addi	x10,x10,20
  1c:	0107a023          	sw	x16,0(x15)
  20:	00d7a223          	sw	x13,4(x15)
  24:	00a7a423          	sw	x10,8(x15)
  28:	00c7a623          	sw	x12,12(x15)
  2c:	00b7a823          	sw	x11,16(x15)
  30:	00060613          	mv	x12,x12
  34:	00500293          	li	x5,5
  38:	04d2e463          	bltu	x5,x13,80 <.L115>
  3c:	00872303          	lw	x6,8(x14)
  40:	00c72383          	lw	x7,12(x14)
  44:	02068c63          	beqz	x13,7c <.L103>
  48:	00269893          	slli	x17,x13,0x2
  4c:	00078713          	mv	x14,x15
  50:	01178e33          	add	x28,x15,x17
  54:	40f30eb3          	sub	x29,x6,x15
  58:	40f38f33          	sub	x30,x7,x15

0000005c <.L107>:
  5c:	00ee8fb3          	add	x31,x29,x14
  60:	000fa683          	lw	x13,0(x31)
  64:	00ef05b3          	add	x11,x30,x14
  68:	00470713          	addi	x14,x14,4
  6c:	00d72823          	sw	x13,16(x14)
  70:	0005a803          	lw	x16,0(x11)
  74:	03072223          	sw	x16,36(x14)
  78:	ffc712e3          	bne	x14,x28,5c <.L107>

0000007c <.L103>:
  7c:	00008067          	ret

00000080 <.L115>:
  80:	ff010113          	addi	x2,x2,-16
  84:	000007b7          	lui	x15,0x0
  88:	00112623          	sw	x1,12(x2)
  8c:	000000b7          	lui	x1,0x0
  90:	0cb00613          	li	x12,203
  94:	00008593          	mv	x11,x1
  98:	00078513          	mv	x10,x15
  9c:	00000097          	auipc	x1,0x0
  a0:	000080e7          	jalr	x1 # 9c <.L115+0x1c>
  a4:	00000637          	lui	x12,0x0
  a8:	00060513          	mv	x10,x12
  ac:	00000097          	auipc	x1,0x0
  b0:	000080e7          	jalr	x1 # ac <.L115+0x2c>
  b4:	00000537          	lui	x10,0x0
  b8:	00052283          	lw	x5,0(x10) # 0 <_ZN8HBTensorIxLln1EEC1EP11hb_tensor_t>
  bc:	00000337          	lui	x6,0x0
  c0:	00032383          	lw	x7,0(x6) # 0 <_ZN8HBTensorIxLln1EEC1EP11hb_tensor_t>
  c4:	01029893          	slli	x17,x5,0x10
  c8:	4100feb7          	lui	x29,0x4100f
  cc:	00788e33          	add	x28,x17,x7
  d0:	adceac23          	sw	x28,-1320(x29) # 4100ead8 <.L1103+0x4100e2dc>

000000d4 <.L105>:
  d4:	0000006f          	j	d4 <.L105>

Disassembly of section .text._Z19tensorlib_copy_implIixEiP11hb_tensor_tS1_:

00000000 <_Z19tensorlib_copy_implIixEiP11hb_tensor_tS1_>:
   0:	f5010113          	addi	x2,x2,-176
   4:	00050793          	mv	x15,x10
   8:	0a812423          	sw	x8,168(x2)
   c:	00810513          	addi	x10,x2,8
  10:	00058413          	mv	x8,x11
  14:	00078593          	mv	x11,x15
  18:	0a112623          	sw	x1,172(x2)
  1c:	0a912223          	sw	x9,164(x2)
  20:	0b212023          	sw	x18,160(x2)
  24:	09312e23          	sw	x19,156(x2)
  28:	09412c23          	sw	x20,152(x2)
  2c:	09512a23          	sw	x21,148(x2)
  30:	09612823          	sw	x22,144(x2)
  34:	09712623          	sw	x23,140(x2)
  38:	09812423          	sw	x24,136(x2)
  3c:	09912223          	sw	x25,132(x2)
  40:	00000097          	auipc	x1,0x0
  44:	000080e7          	jalr	x1 # 40 <_Z19tensorlib_copy_implIixEiP11hb_tensor_tS1_+0x40>
  48:	00040593          	mv	x11,x8
  4c:	04410513          	addi	x10,x2,68
  50:	00000097          	auipc	x1,0x0
  54:	000080e7          	jalr	x1 # 50 <_Z19tensorlib_copy_implIixEiP11hb_tensor_tS1_+0x50>
  58:	00000f37          	lui	x30,0x0
  5c:	000006b7          	lui	x13,0x0
  60:	00000eb7          	lui	x29,0x0
  64:	00000637          	lui	x12,0x0
  68:	000f2283          	lw	x5,0(x30) # 0 <_Z19tensorlib_copy_implIixEiP11hb_tensor_tS1_>
  6c:	0006a803          	lw	x16,0(x13) # 0 <_Z19tensorlib_copy_implIixEiP11hb_tensor_tS1_>
  70:	000ea703          	lw	x14,0(x29) # 0 <_Z19tensorlib_copy_implIixEiP11hb_tensor_tS1_>
  74:	00062503          	lw	x10,0(x12) # 0 <_Z19tensorlib_copy_implIixEiP11hb_tensor_tS1_>
  78:	00000fb7          	lui	x31,0x0
  7c:	000fa583          	lw	x11,0(x31) # 0 <_Z19tensorlib_copy_implIixEiP11hb_tensor_tS1_>
  80:	01028333          	add	x6,x5,x16
  84:	00a703b3          	add	x7,x14,x10
  88:	01831493          	slli	x9,x6,0x18
  8c:	01239893          	slli	x17,x7,0x12
  90:	3f000937          	lui	x18,0x3f000
  94:	00fc0a37          	lui	x20,0xfc0
  98:	00040c37          	lui	x24,0x40
  9c:	0124f9b3          	and	x19,x9,x18
  a0:	0148fab3          	and	x21,x17,x20
  a4:	00459b13          	slli	x22,x11,0x4
  a8:	ff0c0c93          	addi	x25,x24,-16 # 3fff0 <.L1103+0x3f7f4>
  ac:	019b7e33          	and	x28,x22,x25
  b0:	0159ebb3          	or	x23,x19,x21
  b4:	01cbe7b3          	or	x15,x23,x28
  b8:	00c12283          	lw	x5,12(x2)
  bc:	80000437          	lui	x8,0x80000
  c0:	0087e833          	or	x16,x15,x8
  c4:	41001737          	lui	x14,0x41001
  c8:	d1072623          	sw	x16,-756(x14) # 41000d0c <.L1103+0x41000510>
  cc:	00100513          	li	x10,1
  d0:	00812483          	lw	x9,8(x2)
  d4:	01012883          	lw	x17,16(x2)
  d8:	01812e03          	lw	x28,24(x2)
  dc:	04c12803          	lw	x16,76(x2)
  e0:	05412303          	lw	x6,84(x2)
  e4:	3ea28663          	beq	x5,x10,4d0 <.L193>
  e8:	00200093          	li	x1,2
  ec:	01412383          	lw	x7,20(x2)
  f0:	1c128c63          	beq	x5,x1,2c8 <.L194>
  f4:	00300593          	li	x11,3
  f8:	05012903          	lw	x18,80(x2)
  fc:	4eb28e63          	beq	x5,x11,5f8 <.L195>
 100:	fff48993          	addi	x19,x9,-1
 104:	ffd00a13          	li	x20,-3
 108:	0d3a6863          	bltu	x20,x19,1d8 <.L122>
 10c:	00000ab7          	lui	x21,0x0
 110:	000aab03          	lw	x22,0(x21) # 0 <_Z19tensorlib_copy_implIixEiP11hb_tensor_tS1_>
 114:	0044db93          	srli	x23,x9,0x4
 118:	001b8c13          	addi	x24,x23,1
 11c:	036c05b3          	mul	x11,x24,x22
 120:	00bc00b3          	add	x1,x24,x11
 124:	5a14e063          	bltu	x9,x1,6c4 <.L196>

00000128 <.L140>:
 128:	0a15f863          	bgeu	x11,x1,1d8 <.L122>
 12c:	04812983          	lw	x19,72(x2)
 130:	00229c93          	slli	x25,x5,0x2
 134:	01938ab3          	add	x21,x7,x25
 138:	00299793          	slli	x15,x19,0x2
 13c:	00f90a33          	add	x20,x18,x15

00000140 <.L145>:
 140:	4a028863          	beqz	x5,5f0 <.L162>
 144:	00088413          	mv	x8,x17
 148:	00038c13          	mv	x24,x7
 14c:	00058513          	mv	x10,x11
 150:	00000793          	li	x15,0

00000154 <.L142>:
 154:	000c2b03          	lw	x22,0(x24)
 158:	00042b83          	lw	x23,0(x8) # 80000000 <.L1103+0x7ffff804>
 15c:	004c0c13          	addi	x24,x24,4
 160:	036574b3          	remu	x9,x10,x22
 164:	00440413          	addi	x8,x8,4
 168:	03748cb3          	mul	x25,x9,x23
 16c:	03655533          	divu	x10,x10,x22
 170:	019787b3          	add	x15,x15,x25
 174:	ff8a90e3          	bne	x21,x24,154 <.L142>
 178:	00379713          	slli	x14,x15,0x3
 17c:	00ee0733          	add	x14,x28,x14

00000180 <.L141>:
 180:	46098463          	beqz	x19,5e8 <.L163>
 184:	00080493          	mv	x9,x16
 188:	00090513          	mv	x10,x18
 18c:	00058413          	mv	x8,x11
 190:	00000793          	li	x15,0

00000194 <.L144>:
 194:	00052c03          	lw	x24,0(x10)
 198:	0004ac83          	lw	x25,0(x9)
 19c:	00450513          	addi	x10,x10,4
 1a0:	00448493          	addi	x9,x9,4
 1a4:	03847bb3          	remu	x23,x8,x24
 1a8:	039b8b33          	mul	x22,x23,x25
 1ac:	03845433          	divu	x8,x8,x24
 1b0:	016787b3          	add	x15,x15,x22
 1b4:	feaa10e3          	bne	x20,x10,194 <.L144>
 1b8:	00279c13          	slli	x24,x15,0x2
 1bc:	01830b33          	add	x22,x6,x24

000001c0 <.L143>:
 1c0:	000b2c83          	lw	x25,0(x22)
 1c4:	00158593          	addi	x11,x11,1
 1c8:	41fcd513          	srai	x10,x25,0x1f
 1cc:	01972023          	sw	x25,0(x14)
 1d0:	00a72223          	sw	x10,4(x14)
 1d4:	f6b096e3          	bne	x1,x11,140 <.L145>

000001d8 <.L122>:
 1d8:	000f2f03          	lw	x30,0(x30)
 1dc:	0006ab03          	lw	x22,0(x13)
 1e0:	000eae83          	lw	x29,0(x29)
 1e4:	00062883          	lw	x17,0(x12)
 1e8:	000faf83          	lw	x31,0(x31)
 1ec:	016f0833          	add	x16,x30,x22
 1f0:	011e8c33          	add	x24,x29,x17
 1f4:	01881493          	slli	x9,x16,0x18
 1f8:	012c1a93          	slli	x21,x24,0x12
 1fc:	3f0009b7          	lui	x19,0x3f000
 200:	00fc0737          	lui	x14,0xfc0
 204:	000400b7          	lui	x1,0x40
 208:	0134fa33          	and	x20,x9,x19
 20c:	00eaf2b3          	and	x5,x21,x14
 210:	004f9413          	slli	x8,x31,0x4
 214:	ff008e13          	addi	x28,x1,-16 # 3fff0 <.L1103+0x3f7f4>
 218:	005a6cb3          	or	x25,x20,x5
 21c:	01c47533          	and	x10,x8,x28
 220:	00ace5b3          	or	x11,x25,x10
 224:	c0000937          	lui	x18,0xc0000
 228:	0125e7b3          	or	x15,x11,x18
 22c:	41001337          	lui	x6,0x41001
 230:	d0f32623          	sw	x15,-756(x6) # 41000d0c <.L1103+0x41000510>
 234:	00062b83          	lw	x23,0(x12)
 238:	0006a383          	lw	x7,0(x13)
 23c:	00000b37          	lui	x22,0x0
 240:	004b8f13          	addi	x30,x23,4
 244:	000b0793          	mv	x15,x22
 248:	01e78eb3          	add	x29,x15,x30
 24c:	01839893          	slli	x17,x7,0x18
 250:	011eefb3          	or	x31,x29,x17
 254:	20040837          	lui	x16,0x20040
 258:	010fec33          	or	x24,x31,x16
 25c:	00100493          	li	x9,1
 260:	009c0023          	sb	x9,0(x24)
 264:	00062a83          	lw	x21,0(x12)
 268:	109a8463          	beq	x21,x9,370 <.L146>

0000026c <.L157>:
 26c:	00100e13          	li	x28,1
 270:	0100006f          	j	280 <.L161>

00000274 <.L197>:
 274:	000b0513          	mv	x10,x22
 278:	1405292f          	lr.w.aq	x18,(x10)
 27c:	01c90863          	beq	x18,x28,28c <.L160>

00000280 <.L161>:
 280:	000b0693          	mv	x13,x22
 284:	1006a5af          	lr.w	x11,(x13)
 288:	ffc596e3          	bne	x11,x28,274 <.L197>

0000028c <.L160>:
 28c:	0ac12083          	lw	x1,172(x2)
 290:	0a812403          	lw	x8,168(x2)
 294:	0007a023          	sw	x0,0(x15) # 0 <_Z19tensorlib_copy_implIixEiP11hb_tensor_tS1_>
 298:	0a412483          	lw	x9,164(x2)
 29c:	0a012903          	lw	x18,160(x2)
 2a0:	09c12983          	lw	x19,156(x2)
 2a4:	09812a03          	lw	x20,152(x2)
 2a8:	09412a83          	lw	x21,148(x2)
 2ac:	09012b03          	lw	x22,144(x2)
 2b0:	08c12b83          	lw	x23,140(x2)
 2b4:	08812c03          	lw	x24,136(x2)
 2b8:	08412c83          	lw	x25,132(x2)
 2bc:	00000513          	li	x10,0
 2c0:	0b010113          	addi	x2,x2,176
 2c4:	00008067          	ret

000002c8 <.L194>:
 2c8:	0003a283          	lw	x5,0(x7)
 2cc:	ffd00093          	li	x1,-3
 2d0:	fff28a93          	addi	x21,x5,-1 # 3ffff <.L1103+0x3f803>
 2d4:	f150e2e3          	bltu	x1,x21,1d8 <.L122>
 2d8:	00000a37          	lui	x20,0x0
 2dc:	000a2403          	lw	x8,0(x20) # 0 <_Z19tensorlib_copy_implIixEiP11hb_tensor_tS1_>
 2e0:	0042d993          	srli	x19,x5,0x4
 2e4:	00198913          	addi	x18,x19,1 # 3f000001 <.L1103+0x3efff805>
 2e8:	02890433          	mul	x8,x18,x8
 2ec:	00890bb3          	add	x23,x18,x8
 2f0:	3d72ee63          	bltu	x5,x23,6cc <.L198>
 2f4:	ef7472e3          	bgeu	x8,x23,1d8 <.L122>

000002f8 <.L202>:
 2f8:	00082b03          	lw	x22,0(x16) # 20040000 <.L1103+0x2003f804>
 2fc:	0008ac03          	lw	x24,0(x17)
 300:	0043a483          	lw	x9,4(x7)
 304:	002b1c93          	slli	x25,x22,0x2
 308:	003c1093          	slli	x1,x24,0x3
 30c:	039403b3          	mul	x7,x8,x25
 310:	021405b3          	mul	x11,x8,x1
 314:	00730333          	add	x6,x6,x7
 318:	00be0e33          	add	x28,x28,x11

0000031c <.L131>:
 31c:	00030293          	mv	x5,x6
 320:	02048e63          	beqz	x9,35c <.L133>
 324:	0048a703          	lw	x14,4(x17)
 328:	00482a83          	lw	x21,4(x16)
 32c:	000e0793          	mv	x15,x28
 330:	00371513          	slli	x10,x14,0x3
 334:	002a9a13          	slli	x20,x21,0x2
 338:	00000b13          	li	x22,0

0000033c <.L132>:
 33c:	0002a983          	lw	x19,0(x5)
 340:	001b0b13          	addi	x22,x22,1 # 1 <_Z19tensorlib_copy_implIixEiP11hb_tensor_tS1_+0x1>
 344:	014282b3          	add	x5,x5,x20
 348:	41f9d913          	srai	x18,x19,0x1f
 34c:	0137a023          	sw	x19,0(x15)
 350:	0127a223          	sw	x18,4(x15)
 354:	00a787b3          	add	x15,x15,x10
 358:	ff6492e3          	bne	x9,x22,33c <.L132>

0000035c <.L133>:
 35c:	00140413          	addi	x8,x8,1
 360:	01930333          	add	x6,x6,x25
 364:	001e0e33          	add	x28,x28,x1
 368:	fa8b9ae3          	bne	x23,x8,31c <.L131>
 36c:	e6dff06f          	j	1d8 <.L122>

00000370 <.L146>:
 370:	0047c983          	lbu	x19,4(x15)
 374:	0ff9fa13          	andi	x20,x19,255
 378:	fe0a0ce3          	beqz	x20,370 <.L146>
 37c:	0057c703          	lbu	x14,5(x15)
 380:	0ff77293          	andi	x5,x14,255
 384:	fe0286e3          	beqz	x5,370 <.L146>
 388:	0067c403          	lbu	x8,6(x15)
 38c:	0ff47c93          	andi	x25,x8,255
 390:	fe0c80e3          	beqz	x25,370 <.L146>
 394:	0077c083          	lbu	x1,7(x15)
 398:	0ff0fe13          	andi	x28,x1,255
 39c:	fc0e0ae3          	beqz	x28,370 <.L146>
 3a0:	0006a583          	lw	x11,0(x13)
 3a4:	21040bb7          	lui	x23,0x21040
 3a8:	00100513          	li	x10,1
 3ac:	00c58913          	addi	x18,x11,12
 3b0:	01278333          	add	x6,x15,x18
 3b4:	017363b3          	or	x7,x6,x23
 3b8:	00a38023          	sb	x10,0(x7)
 3bc:	00062f03          	lw	x30,0(x12)
 3c0:	eaaf16e3          	bne	x30,x10,26c <.L157>
 3c4:	0006a703          	lw	x14,0(x13)
 3c8:	07e70c63          	beq	x14,x30,440 <.L151>

000003cc <.L156>:
 3cc:	00100f13          	li	x30,1
 3d0:	0100006f          	j	3e0 <.L150>

000003d4 <.L199>:
 3d4:	00878893          	addi	x17,x15,8
 3d8:	1408afaf          	lr.w.aq	x31,(x17)
 3dc:	01ef8863          	beq	x31,x30,3ec <.L158>

000003e0 <.L150>:
 3e0:	00878613          	addi	x12,x15,8
 3e4:	10062eaf          	lr.w	x29,(x12)
 3e8:	ffee96e3          	bne	x29,x30,3d4 <.L199>

000003ec <.L158>:
 3ec:	0007a423          	sw	x0,8(x15)
 3f0:	00078223          	sb	x0,4(x15)
 3f4:	000782a3          	sb	x0,5(x15)
 3f8:	00078323          	sb	x0,6(x15)
 3fc:	000783a3          	sb	x0,7(x15)
 400:	0007a023          	sw	x0,0(x15)
 404:	00000293          	li	x5,0
 408:	000b0793          	mv	x15,x22
 40c:	20000c37          	lui	x24,0x20000
 410:	00100493          	li	x9,1
 414:	00040ab7          	lui	x21,0x40
 418:	00100837          	lui	x16,0x100

0000041c <.L159>:
 41c:	0006a983          	lw	x19,0(x13)
 420:	0057ea33          	or	x20,x15,x5
 424:	015282b3          	add	x5,x5,x21
 428:	01899413          	slli	x8,x19,0x18
 42c:	01446cb3          	or	x25,x8,x20
 430:	018ce0b3          	or	x1,x25,x24
 434:	0090a023          	sw	x9,0(x1)
 438:	ff0292e3          	bne	x5,x16,41c <.L159>
 43c:	e31ff06f          	j	26c <.L157>

00000440 <.L151>:
 440:	00c7ce83          	lbu	x29,12(x15)
 444:	0ffef893          	andi	x17,x29,255
 448:	fe088ce3          	beqz	x17,440 <.L151>
 44c:	00d7cf83          	lbu	x31,13(x15)
 450:	0ffff813          	andi	x16,x31,255
 454:	fe0806e3          	beqz	x16,440 <.L151>
 458:	00e7cc03          	lbu	x24,14(x15)
 45c:	0ffc7493          	andi	x9,x24,255
 460:	fe0480e3          	beqz	x9,440 <.L151>
 464:	00f7ca83          	lbu	x21,15(x15)
 468:	0ffaf993          	andi	x19,x21,255
 46c:	fc098ae3          	beqz	x19,440 <.L151>
 470:	00078623          	sb	x0,12(x15)
 474:	000786a3          	sb	x0,13(x15)
 478:	00078723          	sb	x0,14(x15)
 47c:	000787a3          	sb	x0,15(x15)
 480:	00000a37          	lui	x20,0x0
 484:	0007a423          	sw	x0,8(x15)
 488:	00000393          	li	x7,0
 48c:	008a0293          	addi	x5,x20,8 # 8 <_Z19tensorlib_copy_implIixEiP11hb_tensor_tS1_+0x8>
 490:	03fc0437          	lui	x8,0x3fc0
 494:	20000cb7          	lui	x25,0x20000
 498:	00100093          	li	x1,1
 49c:	01000e37          	lui	x28,0x1000
 4a0:	040005b7          	lui	x11,0x4000

000004a4 <.L155>:
 4a4:	01271713          	slli	x14,x14,0x12
 4a8:	0072e533          	or	x10,x5,x7
 4ac:	00877933          	and	x18,x14,x8
 4b0:	00a96333          	or	x6,x18,x10
 4b4:	01936bb3          	or	x23,x6,x25
 4b8:	001ba023          	sw	x1,0(x23) # 21040000 <.L1103+0x2103f804>
 4bc:	01c383b3          	add	x7,x7,x28
 4c0:	00062703          	lw	x14,0(x12)
 4c4:	feb390e3          	bne	x7,x11,4a4 <.L155>
 4c8:	f01702e3          	beq	x14,x1,3cc <.L156>
 4cc:	da1ff06f          	j	26c <.L157>

000004d0 <.L193>:
 4d0:	fff48b93          	addi	x23,x9,-1
 4d4:	ffd00c13          	li	x24,-3
 4d8:	d17c60e3          	bltu	x24,x23,1d8 <.L122>
 4dc:	00000cb7          	lui	x25,0x0
 4e0:	000ca083          	lw	x1,0(x25) # 0 <_Z19tensorlib_copy_implIixEiP11hb_tensor_tS1_>
 4e4:	0044d393          	srli	x7,x9,0x4
 4e8:	00138593          	addi	x11,x7,1
 4ec:	021587b3          	mul	x15,x11,x1
 4f0:	00f58b33          	add	x22,x11,x15
 4f4:	0f64e663          	bltu	x9,x22,5e0 <.L200>

000004f8 <.L121>:
 4f8:	cf67f0e3          	bgeu	x15,x22,1d8 <.L122>
 4fc:	0008aa03          	lw	x20,0(x17)
 500:	00082483          	lw	x9,0(x16) # 100000 <.L1103+0xff804>
 504:	40fb0ab3          	sub	x21,x22,x15
 508:	003a1893          	slli	x17,x20,0x3
 50c:	00249813          	slli	x16,x9,0x2
 510:	03178733          	mul	x14,x15,x17
 514:	00400513          	li	x10,4
 518:	02f809b3          	mul	x19,x16,x15
 51c:	00ee03b3          	add	x7,x28,x14
 520:	01330333          	add	x6,x6,x19
 524:	09557c63          	bgeu	x10,x21,5bc <.L127>
 528:	ffcb0913          	addi	x18,x22,-4
 52c:	0927f863          	bgeu	x15,x18,5bc <.L127>
 530:	00349293          	slli	x5,x9,0x3
 534:	004a1413          	slli	x8,x20,0x4
 538:	00038e13          	mv	x28,x7
 53c:	005a1b93          	slli	x23,x20,0x5
 540:	00449c13          	slli	x24,x9,0x4
 544:	00530533          	add	x10,x6,x5
 548:	008385b3          	add	x11,x7,x8

0000054c <.L126>:
 54c:	00032c83          	lw	x25,0(x6)
 550:	010300b3          	add	x1,x6,x16
 554:	0000a483          	lw	x9,0(x1)
 558:	00052a83          	lw	x21,0(x10)
 55c:	010503b3          	add	x7,x10,x16
 560:	0003a983          	lw	x19,0(x7)
 564:	41fcda13          	srai	x20,x25,0x1f
 568:	019e2023          	sw	x25,0(x28) # 1000000 <.L1103+0xfff804>
 56c:	014e2223          	sw	x20,4(x28)
 570:	011e0733          	add	x14,x28,x17
 574:	41f4d293          	srai	x5,x9,0x1f
 578:	00972023          	sw	x9,0(x14) # fc0000 <.L1103+0xfbf804>
 57c:	00572223          	sw	x5,4(x14)
 580:	41fad413          	srai	x8,x21,0x1f
 584:	0155a023          	sw	x21,0(x11) # 4000000 <.L1103+0x3fff804>
 588:	0085a223          	sw	x8,4(x11)
 58c:	01158cb3          	add	x25,x11,x17
 590:	41f9d093          	srai	x1,x19,0x1f
 594:	017e03b3          	add	x7,x28,x23
 598:	013ca023          	sw	x19,0(x25)
 59c:	001ca223          	sw	x1,4(x25)
 5a0:	00478793          	addi	x15,x15,4
 5a4:	00038e13          	mv	x28,x7
 5a8:	01830333          	add	x6,x6,x24
 5ac:	01850533          	add	x10,x10,x24
 5b0:	017585b3          	add	x11,x11,x23
 5b4:	f927ece3          	bltu	x15,x18,54c <.L126>
 5b8:	c367f0e3          	bgeu	x15,x22,1d8 <.L122>

000005bc <.L127>:
 5bc:	00032903          	lw	x18,0(x6)
 5c0:	00178793          	addi	x15,x15,1
 5c4:	01030333          	add	x6,x6,x16
 5c8:	41f95b93          	srai	x23,x18,0x1f
 5cc:	0123a023          	sw	x18,0(x7)
 5d0:	0173a223          	sw	x23,4(x7)
 5d4:	011383b3          	add	x7,x7,x17
 5d8:	ff67e2e3          	bltu	x15,x22,5bc <.L127>
 5dc:	bfdff06f          	j	1d8 <.L122>

000005e0 <.L200>:
 5e0:	00048b13          	mv	x22,x9
 5e4:	f15ff06f          	j	4f8 <.L121>

000005e8 <.L163>:
 5e8:	00030b13          	mv	x22,x6
 5ec:	bd5ff06f          	j	1c0 <.L143>

000005f0 <.L162>:
 5f0:	000e0713          	mv	x14,x28
 5f4:	b8dff06f          	j	180 <.L141>

000005f8 <.L195>:
 5f8:	0043a283          	lw	x5,4(x7)
 5fc:	0003a083          	lw	x1,0(x7)
 600:	ffd00993          	li	x19,-3
 604:	02128ab3          	mul	x21,x5,x1
 608:	fffa8a13          	addi	x20,x21,-1 # 3ffff <.L1103+0x3f803>
 60c:	bd49e6e3          	bltu	x19,x20,1d8 <.L122>
 610:	00000737          	lui	x14,0x0
 614:	00072b83          	lw	x23,0(x14) # 0 <_Z19tensorlib_copy_implIixEiP11hb_tensor_tS1_>
 618:	004ad493          	srli	x9,x21,0x4
 61c:	00148b13          	addi	x22,x9,1
 620:	037b0533          	mul	x10,x22,x23
 624:	00ab00b3          	add	x1,x22,x10
 628:	0a1ae863          	bltu	x21,x1,6d8 <.L201>

0000062c <.L135>:
 62c:	ba1576e3          	bgeu	x10,x1,1d8 <.L122>
 630:	00492403          	lw	x8,4(x18) # c0000004 <.L1103+0xbffff808>
 634:	0048aa83          	lw	x21,4(x17)
 638:	0008aa03          	lw	x20,0(x17)
 63c:	00482983          	lw	x19,4(x16)
 640:	00082903          	lw	x18,0(x16)
 644:	0083a383          	lw	x7,8(x7)

00000648 <.L137>:
 648:	02557c33          	remu	x24,x10,x5
 64c:	02555cb3          	divu	x25,x10,x5
 650:	028577b3          	remu	x15,x10,x8
 654:	02855bb3          	divu	x23,x10,x8
 658:	034c8733          	mul	x14,x25,x20
 65c:	035c05b3          	mul	x11,x24,x21
 660:	032b8cb3          	mul	x25,x23,x18
 664:	00e58b33          	add	x22,x11,x14
 668:	003b1c13          	slli	x24,x22,0x3
 66c:	018e0733          	add	x14,x28,x24
 670:	033784b3          	mul	x9,x15,x19
 674:	019487b3          	add	x15,x9,x25
 678:	00279b93          	slli	x23,x15,0x2
 67c:	017307b3          	add	x15,x6,x23
 680:	02038c63          	beqz	x7,6b8 <.L139>
 684:	0088a583          	lw	x11,8(x17)
 688:	00882483          	lw	x9,8(x16)
 68c:	00359b93          	slli	x23,x11,0x3
 690:	00249b13          	slli	x22,x9,0x2
 694:	00000593          	li	x11,0

00000698 <.L138>:
 698:	0007ac03          	lw	x24,0(x15)
 69c:	00158593          	addi	x11,x11,1
 6a0:	016787b3          	add	x15,x15,x22
 6a4:	41fc5c93          	srai	x25,x24,0x1f
 6a8:	01872023          	sw	x24,0(x14)
 6ac:	01972223          	sw	x25,4(x14)
 6b0:	01770733          	add	x14,x14,x23
 6b4:	feb392e3          	bne	x7,x11,698 <.L138>

000006b8 <.L139>:
 6b8:	00150513          	addi	x10,x10,1
 6bc:	f8a096e3          	bne	x1,x10,648 <.L137>
 6c0:	b19ff06f          	j	1d8 <.L122>

000006c4 <.L196>:
 6c4:	00048093          	mv	x1,x9
 6c8:	a61ff06f          	j	128 <.L140>

000006cc <.L198>:
 6cc:	00028b93          	mv	x23,x5
 6d0:	c37464e3          	bltu	x8,x23,2f8 <.L202>
 6d4:	b05ff06f          	j	1d8 <.L122>

000006d8 <.L201>:
 6d8:	000a8093          	mv	x1,x21
 6dc:	f51ff06f          	j	62c <.L135>

Disassembly of section .text._Z19tensorlib_copy_implIxiEiP11hb_tensor_tS1_:

00000000 <_Z19tensorlib_copy_implIxiEiP11hb_tensor_tS1_>:
   0:	f5010113          	addi	x2,x2,-176
   4:	00050793          	mv	x15,x10
   8:	0a812423          	sw	x8,168(x2)
   c:	00810513          	addi	x10,x2,8
  10:	00058413          	mv	x8,x11
  14:	00078593          	mv	x11,x15
  18:	0a112623          	sw	x1,172(x2)
  1c:	0a912223          	sw	x9,164(x2)
  20:	0b212023          	sw	x18,160(x2)
  24:	09312e23          	sw	x19,156(x2)
  28:	09412c23          	sw	x20,152(x2)
  2c:	09512a23          	sw	x21,148(x2)
  30:	09612823          	sw	x22,144(x2)
  34:	09712623          	sw	x23,140(x2)
  38:	09812423          	sw	x24,136(x2)
  3c:	09912223          	sw	x25,132(x2)
  40:	00000097          	auipc	x1,0x0
  44:	000080e7          	jalr	x1 # 40 <_Z19tensorlib_copy_implIxiEiP11hb_tensor_tS1_+0x40>
  48:	00040593          	mv	x11,x8
  4c:	04410513          	addi	x10,x2,68
  50:	00000097          	auipc	x1,0x0
  54:	000080e7          	jalr	x1 # 50 <_Z19tensorlib_copy_implIxiEiP11hb_tensor_tS1_+0x50>
  58:	00000fb7          	lui	x31,0x0
  5c:	000006b7          	lui	x13,0x0
  60:	00000f37          	lui	x30,0x0
  64:	00000637          	lui	x12,0x0
  68:	000fa283          	lw	x5,0(x31) # 0 <_Z19tensorlib_copy_implIxiEiP11hb_tensor_tS1_>
  6c:	0006a803          	lw	x16,0(x13) # 0 <_Z19tensorlib_copy_implIxiEiP11hb_tensor_tS1_>
  70:	000f2703          	lw	x14,0(x30) # 0 <_Z19tensorlib_copy_implIxiEiP11hb_tensor_tS1_>
  74:	00062503          	lw	x10,0(x12) # 0 <_Z19tensorlib_copy_implIxiEiP11hb_tensor_tS1_>
  78:	00000eb7          	lui	x29,0x0
  7c:	000ea583          	lw	x11,0(x29) # 0 <_Z19tensorlib_copy_implIxiEiP11hb_tensor_tS1_>
  80:	01028333          	add	x6,x5,x16
  84:	00a703b3          	add	x7,x14,x10
  88:	01831493          	slli	x9,x6,0x18
  8c:	01239893          	slli	x17,x7,0x12
  90:	3f000937          	lui	x18,0x3f000
  94:	00fc0a37          	lui	x20,0xfc0
  98:	00040c37          	lui	x24,0x40
  9c:	0124f9b3          	and	x19,x9,x18
  a0:	0148fab3          	and	x21,x17,x20
  a4:	00459b13          	slli	x22,x11,0x4
  a8:	ff0c0c93          	addi	x25,x24,-16 # 3fff0 <.L1103+0x3f7f4>
  ac:	019b7e33          	and	x28,x22,x25
  b0:	0159ebb3          	or	x23,x19,x21
  b4:	01cbe7b3          	or	x15,x23,x28
  b8:	00c12283          	lw	x5,12(x2)
  bc:	80000437          	lui	x8,0x80000
  c0:	0087e833          	or	x16,x15,x8
  c4:	41001737          	lui	x14,0x41001
  c8:	d1072623          	sw	x16,-756(x14) # 41000d0c <.L1103+0x41000510>
  cc:	00100513          	li	x10,1
  d0:	00812483          	lw	x9,8(x2)
  d4:	01012883          	lw	x17,16(x2)
  d8:	01812e03          	lw	x28,24(x2)
  dc:	04c12803          	lw	x16,76(x2)
  e0:	05412303          	lw	x6,84(x2)
  e4:	3ca28e63          	beq	x5,x10,4c0 <.L281>
  e8:	00200093          	li	x1,2
  ec:	01412383          	lw	x7,20(x2)
  f0:	1c128863          	beq	x5,x1,2c0 <.L282>
  f4:	00300593          	li	x11,3
  f8:	05012903          	lw	x18,80(x2)
  fc:	4cb28263          	beq	x5,x11,5c0 <.L283>
 100:	fff48993          	addi	x19,x9,-1
 104:	ffd00a13          	li	x20,-3
 108:	0d3a6463          	bltu	x20,x19,1d0 <.L210>
 10c:	00000ab7          	lui	x21,0x0
 110:	000aab03          	lw	x22,0(x21) # 0 <_Z19tensorlib_copy_implIxiEiP11hb_tensor_tS1_>
 114:	0044db93          	srli	x23,x9,0x4
 118:	001b8c13          	addi	x24,x23,1
 11c:	036c05b3          	mul	x11,x24,x22
 120:	00bc00b3          	add	x1,x24,x11
 124:	5614e063          	bltu	x9,x1,684 <.L284>

00000128 <.L228>:
 128:	0a15f463          	bgeu	x11,x1,1d0 <.L210>
 12c:	04812983          	lw	x19,72(x2)
 130:	00229c93          	slli	x25,x5,0x2
 134:	01938ab3          	add	x21,x7,x25
 138:	00299793          	slli	x15,x19,0x2
 13c:	00f90a33          	add	x20,x18,x15

00000140 <.L233>:
 140:	46028c63          	beqz	x5,5b8 <.L250>
 144:	00088413          	mv	x8,x17
 148:	00038c13          	mv	x24,x7
 14c:	00058513          	mv	x10,x11
 150:	00000793          	li	x15,0

00000154 <.L230>:
 154:	000c2b03          	lw	x22,0(x24)
 158:	00042b83          	lw	x23,0(x8) # 80000000 <.L1103+0x7ffff804>
 15c:	004c0c13          	addi	x24,x24,4
 160:	036574b3          	remu	x9,x10,x22
 164:	00440413          	addi	x8,x8,4
 168:	03748cb3          	mul	x25,x9,x23
 16c:	03655533          	divu	x10,x10,x22
 170:	019787b3          	add	x15,x15,x25
 174:	ff8a90e3          	bne	x21,x24,154 <.L230>
 178:	00279713          	slli	x14,x15,0x2
 17c:	00ee0733          	add	x14,x28,x14

00000180 <.L229>:
 180:	42098863          	beqz	x19,5b0 <.L251>
 184:	00080493          	mv	x9,x16
 188:	00090513          	mv	x10,x18
 18c:	00058413          	mv	x8,x11
 190:	00000793          	li	x15,0

00000194 <.L232>:
 194:	00052c03          	lw	x24,0(x10)
 198:	0004ac83          	lw	x25,0(x9)
 19c:	00450513          	addi	x10,x10,4
 1a0:	00448493          	addi	x9,x9,4
 1a4:	03847bb3          	remu	x23,x8,x24
 1a8:	039b8b33          	mul	x22,x23,x25
 1ac:	03845433          	divu	x8,x8,x24
 1b0:	016787b3          	add	x15,x15,x22
 1b4:	feaa10e3          	bne	x20,x10,194 <.L232>
 1b8:	00379c13          	slli	x24,x15,0x3
 1bc:	01830b33          	add	x22,x6,x24

000001c0 <.L231>:
 1c0:	000b2c83          	lw	x25,0(x22)
 1c4:	00158593          	addi	x11,x11,1
 1c8:	01972023          	sw	x25,0(x14)
 1cc:	f6b09ae3          	bne	x1,x11,140 <.L233>

000001d0 <.L210>:
 1d0:	000faf83          	lw	x31,0(x31)
 1d4:	0006ac83          	lw	x25,0(x13)
 1d8:	000f2f03          	lw	x30,0(x30)
 1dc:	00062883          	lw	x17,0(x12)
 1e0:	000eae83          	lw	x29,0(x29)
 1e4:	019f8833          	add	x16,x31,x25
 1e8:	011f0bb3          	add	x23,x30,x17
 1ec:	01881393          	slli	x7,x16,0x18
 1f0:	012b9293          	slli	x5,x23,0x12
 1f4:	3f000a37          	lui	x20,0x3f000
 1f8:	00fc0b37          	lui	x22,0xfc0
 1fc:	00040737          	lui	x14,0x40
 200:	0143fc33          	and	x24,x7,x20
 204:	0162f0b3          	and	x1,x5,x22
 208:	004e9993          	slli	x19,x29,0x4
 20c:	ff070913          	addi	x18,x14,-16 # 3fff0 <.L1103+0x3f7f4>
 210:	001c6ab3          	or	x21,x24,x1
 214:	0129fe33          	and	x28,x19,x18
 218:	01cae4b3          	or	x9,x21,x28
 21c:	c00005b7          	lui	x11,0xc0000
 220:	410017b7          	lui	x15,0x41001
 224:	00b4e433          	or	x8,x9,x11
 228:	d087a623          	sw	x8,-756(x15) # 41000d0c <.L1103+0x41000510>
 22c:	00062303          	lw	x6,0(x12)
 230:	0006a503          	lw	x10,0(x13)
 234:	00000cb7          	lui	x25,0x0
 238:	00430f93          	addi	x31,x6,4
 23c:	000c8793          	mv	x15,x25
 240:	01f78f33          	add	x30,x15,x31
 244:	01851893          	slli	x17,x10,0x18
 248:	011f6eb3          	or	x29,x30,x17
 24c:	20040837          	lui	x16,0x20040
 250:	010eebb3          	or	x23,x29,x16
 254:	00100393          	li	x7,1
 258:	007b8023          	sb	x7,0(x23)
 25c:	00062283          	lw	x5,0(x12)
 260:	10728063          	beq	x5,x7,360 <.L234>

00000264 <.L245>:
 264:	00100913          	li	x18,1
 268:	0100006f          	j	278 <.L249>

0000026c <.L285>:
 26c:	000c8493          	mv	x9,x25
 270:	1404a5af          	lr.w.aq	x11,(x9)
 274:	01258863          	beq	x11,x18,284 <.L248>

00000278 <.L249>:
 278:	000c8693          	mv	x13,x25
 27c:	1006ae2f          	lr.w	x28,(x13)
 280:	ff2e16e3          	bne	x28,x18,26c <.L285>

00000284 <.L248>:
 284:	0ac12083          	lw	x1,172(x2)
 288:	0a812403          	lw	x8,168(x2)
 28c:	0007a023          	sw	x0,0(x15)
 290:	0a412483          	lw	x9,164(x2)
 294:	0a012903          	lw	x18,160(x2)
 298:	09c12983          	lw	x19,156(x2)
 29c:	09812a03          	lw	x20,152(x2)
 2a0:	09412a83          	lw	x21,148(x2)
 2a4:	09012b03          	lw	x22,144(x2)
 2a8:	08c12b83          	lw	x23,140(x2)
 2ac:	08812c03          	lw	x24,136(x2)
 2b0:	08412c83          	lw	x25,132(x2)
 2b4:	00000513          	li	x10,0
 2b8:	0b010113          	addi	x2,x2,176
 2bc:	00008067          	ret

000002c0 <.L282>:
 2c0:	0003a283          	lw	x5,0(x7)
 2c4:	ffd00c93          	li	x25,-3
 2c8:	fff28093          	addi	x1,x5,-1
 2cc:	f01ce2e3          	bltu	x25,x1,1d0 <.L210>
 2d0:	00000ab7          	lui	x21,0x0
 2d4:	000aa403          	lw	x8,0(x21) # 0 <_Z19tensorlib_copy_implIxiEiP11hb_tensor_tS1_>
 2d8:	0042d993          	srli	x19,x5,0x4
 2dc:	00198913          	addi	x18,x19,1
 2e0:	02890433          	mul	x8,x18,x8
 2e4:	00890bb3          	add	x23,x18,x8
 2e8:	3b72e263          	bltu	x5,x23,68c <.L286>
 2ec:	ef7472e3          	bgeu	x8,x23,1d0 <.L210>

000002f0 <.L290>:
 2f0:	00082583          	lw	x11,0(x16) # 20040000 <.L1103+0x2003f804>
 2f4:	0008a483          	lw	x9,0(x17)
 2f8:	0043a383          	lw	x7,4(x7)
 2fc:	00359a13          	slli	x20,x11,0x3
 300:	00249c13          	slli	x24,x9,0x2
 304:	03440b33          	mul	x22,x8,x20
 308:	038407b3          	mul	x15,x8,x24
 30c:	01630333          	add	x6,x6,x22
 310:	00fe0e33          	add	x28,x28,x15

00000314 <.L219>:
 314:	00030293          	mv	x5,x6
 318:	02038a63          	beqz	x7,34c <.L221>
 31c:	0048ac83          	lw	x25,4(x17)
 320:	00482703          	lw	x14,4(x16)
 324:	000e0513          	mv	x10,x28
 328:	002c9093          	slli	x1,x25,0x2
 32c:	00371a93          	slli	x21,x14,0x3
 330:	00000913          	li	x18,0

00000334 <.L220>:
 334:	0002a983          	lw	x19,0(x5)
 338:	00190913          	addi	x18,x18,1 # 3f000001 <.L1103+0x3efff805>
 33c:	015282b3          	add	x5,x5,x21
 340:	01352023          	sw	x19,0(x10)
 344:	00150533          	add	x10,x10,x1
 348:	ff2396e3          	bne	x7,x18,334 <.L220>

0000034c <.L221>:
 34c:	00140413          	addi	x8,x8,1
 350:	01430333          	add	x6,x6,x20
 354:	018e0e33          	add	x28,x28,x24
 358:	fa8b9ee3          	bne	x23,x8,314 <.L219>
 35c:	e75ff06f          	j	1d0 <.L210>

00000360 <.L234>:
 360:	0047ca03          	lbu	x20,4(x15)
 364:	0ffa7c13          	andi	x24,x20,255
 368:	fe0c0ce3          	beqz	x24,360 <.L234>
 36c:	0057cb03          	lbu	x22,5(x15)
 370:	0ffb7093          	andi	x1,x22,255
 374:	fe0086e3          	beqz	x1,360 <.L234>
 378:	0067c983          	lbu	x19,6(x15)
 37c:	0ff9fa93          	andi	x21,x19,255
 380:	fe0a80e3          	beqz	x21,360 <.L234>
 384:	0077c703          	lbu	x14,7(x15)
 388:	0ff77913          	andi	x18,x14,255
 38c:	fc090ae3          	beqz	x18,360 <.L234>
 390:	0006ae03          	lw	x28,0(x13)
 394:	21040337          	lui	x6,0x21040
 398:	00100493          	li	x9,1
 39c:	00ce0593          	addi	x11,x28,12
 3a0:	00b78433          	add	x8,x15,x11
 3a4:	00646533          	or	x10,x8,x6
 3a8:	00950023          	sb	x9,0(x10)
 3ac:	00062f83          	lw	x31,0(x12)
 3b0:	ea9f9ae3          	bne	x31,x9,264 <.L245>
 3b4:	0006a703          	lw	x14,0(x13)
 3b8:	07f70c63          	beq	x14,x31,430 <.L239>

000003bc <.L244>:
 3bc:	00100f93          	li	x31,1
 3c0:	0100006f          	j	3d0 <.L238>

000003c4 <.L287>:
 3c4:	00878893          	addi	x17,x15,8
 3c8:	1408aeaf          	lr.w.aq	x29,(x17)
 3cc:	01fe8863          	beq	x29,x31,3dc <.L246>

000003d0 <.L238>:
 3d0:	00878613          	addi	x12,x15,8
 3d4:	10062f2f          	lr.w	x30,(x12)
 3d8:	ffff16e3          	bne	x30,x31,3c4 <.L287>

000003dc <.L246>:
 3dc:	0007a423          	sw	x0,8(x15)
 3e0:	00078223          	sb	x0,4(x15)
 3e4:	000782a3          	sb	x0,5(x15)
 3e8:	00078323          	sb	x0,6(x15)
 3ec:	000783a3          	sb	x0,7(x15)
 3f0:	0007a023          	sw	x0,0(x15)
 3f4:	00000b13          	li	x22,0
 3f8:	000c8793          	mv	x15,x25
 3fc:	20000bb7          	lui	x23,0x20000
 400:	00100393          	li	x7,1
 404:	000402b7          	lui	x5,0x40
 408:	00100837          	lui	x16,0x100

0000040c <.L247>:
 40c:	0006aa03          	lw	x20,0(x13)
 410:	0167ec33          	or	x24,x15,x22
 414:	005b0b33          	add	x22,x22,x5
 418:	018a1093          	slli	x1,x20,0x18
 41c:	0180e9b3          	or	x19,x1,x24
 420:	0179eab3          	or	x21,x19,x23
 424:	007aa023          	sw	x7,0(x21)
 428:	ff0b12e3          	bne	x22,x16,40c <.L247>
 42c:	e39ff06f          	j	264 <.L245>

00000430 <.L239>:
 430:	00c7cf03          	lbu	x30,12(x15)
 434:	0fff7893          	andi	x17,x30,255
 438:	fe088ce3          	beqz	x17,430 <.L239>
 43c:	00d7ce83          	lbu	x29,13(x15)
 440:	0ffef813          	andi	x16,x29,255
 444:	fe0806e3          	beqz	x16,430 <.L239>
 448:	00e7cb83          	lbu	x23,14(x15)
 44c:	0ffbf393          	andi	x7,x23,255
 450:	fe0380e3          	beqz	x7,430 <.L239>
 454:	00f7c283          	lbu	x5,15(x15)
 458:	0ff2fa13          	andi	x20,x5,255
 45c:	fc0a0ae3          	beqz	x20,430 <.L239>
 460:	00078623          	sb	x0,12(x15)
 464:	000786a3          	sb	x0,13(x15)
 468:	00078723          	sb	x0,14(x15)
 46c:	000787a3          	sb	x0,15(x15)
 470:	00000c37          	lui	x24,0x0
 474:	0007a423          	sw	x0,8(x15)
 478:	00000513          	li	x10,0
 47c:	008c0b13          	addi	x22,x24,8 # 8 <_Z19tensorlib_copy_implIxiEiP11hb_tensor_tS1_+0x8>
 480:	03fc00b7          	lui	x1,0x3fc0
 484:	200009b7          	lui	x19,0x20000
 488:	00100a93          	li	x21,1
 48c:	01000937          	lui	x18,0x1000
 490:	04000e37          	lui	x28,0x4000

00000494 <.L243>:
 494:	01271713          	slli	x14,x14,0x12
 498:	00ab64b3          	or	x9,x22,x10
 49c:	001775b3          	and	x11,x14,x1
 4a0:	0095e433          	or	x8,x11,x9
 4a4:	01346333          	or	x6,x8,x19
 4a8:	01532023          	sw	x21,0(x6) # 21040000 <.L1103+0x2103f804>
 4ac:	01250533          	add	x10,x10,x18
 4b0:	00062703          	lw	x14,0(x12)
 4b4:	ffc510e3          	bne	x10,x28,494 <.L243>
 4b8:	f15702e3          	beq	x14,x21,3bc <.L244>
 4bc:	da9ff06f          	j	264 <.L245>

000004c0 <.L281>:
 4c0:	fff48b93          	addi	x23,x9,-1
 4c4:	ffd00593          	li	x11,-3
 4c8:	d175e4e3          	bltu	x11,x23,1d0 <.L210>
 4cc:	000003b7          	lui	x7,0x0
 4d0:	0003aa03          	lw	x20,0(x7) # 0 <_Z19tensorlib_copy_implIxiEiP11hb_tensor_tS1_>
 4d4:	0044dc13          	srli	x24,x9,0x4
 4d8:	001c0b13          	addi	x22,x24,1
 4dc:	034b07b3          	mul	x15,x22,x20
 4e0:	00fb0cb3          	add	x25,x22,x15
 4e4:	0d94e263          	bltu	x9,x25,5a8 <.L288>

000004e8 <.L209>:
 4e8:	cf97f4e3          	bgeu	x15,x25,1d0 <.L210>
 4ec:	0008a083          	lw	x1,0(x17)
 4f0:	00082983          	lw	x19,0(x16) # 100000 <.L1103+0xff804>
 4f4:	40fc8ab3          	sub	x21,x25,x15
 4f8:	00209893          	slli	x17,x1,0x2
 4fc:	00399813          	slli	x16,x19,0x3
 500:	03178733          	mul	x14,x15,x17
 504:	00400913          	li	x18,4
 508:	02f804b3          	mul	x9,x16,x15
 50c:	00ee0533          	add	x10,x28,x14
 510:	00930333          	add	x6,x6,x9
 514:	07597c63          	bgeu	x18,x21,58c <.L215>
 518:	ffcc8413          	addi	x8,x25,-4 # fffffffc <.L1103+0xfffff800>
 51c:	0687f863          	bgeu	x15,x8,58c <.L215>
 520:	00050e13          	mv	x28,x10
 524:	00309b93          	slli	x23,x1,0x3
 528:	00499513          	slli	x10,x19,0x4
 52c:	00409393          	slli	x7,x1,0x4
 530:	00599293          	slli	x5,x19,0x5
 534:	00a304b3          	add	x9,x6,x10
 538:	017e05b3          	add	x11,x28,x23

0000053c <.L214>:
 53c:	00032a03          	lw	x20,0(x6)
 540:	01030c33          	add	x24,x6,x16
 544:	000c2b03          	lw	x22,0(x24)
 548:	0004a083          	lw	x1,0(x9)
 54c:	010489b3          	add	x19,x9,x16
 550:	0009aa83          	lw	x21,0(x19) # 20000000 <.L1103+0x1ffff804>
 554:	011e0733          	add	x14,x28,x17
 558:	014e2023          	sw	x20,0(x28) # 4000000 <.L1103+0x3fff804>
 55c:	01672023          	sw	x22,0(x14)
 560:	0015a023          	sw	x1,0(x11) # c0000000 <.L1103+0xbffff804>
 564:	01158933          	add	x18,x11,x17
 568:	007e0533          	add	x10,x28,x7
 56c:	01592023          	sw	x21,0(x18) # 1000000 <.L1103+0xfff804>
 570:	00478793          	addi	x15,x15,4
 574:	00050e13          	mv	x28,x10
 578:	00530333          	add	x6,x6,x5
 57c:	005484b3          	add	x9,x9,x5
 580:	007585b3          	add	x11,x11,x7
 584:	fa87ece3          	bltu	x15,x8,53c <.L214>
 588:	c597f4e3          	bgeu	x15,x25,1d0 <.L210>

0000058c <.L215>:
 58c:	00032403          	lw	x8,0(x6)
 590:	00178793          	addi	x15,x15,1
 594:	01030333          	add	x6,x6,x16
 598:	00852023          	sw	x8,0(x10)
 59c:	01150533          	add	x10,x10,x17
 5a0:	ff97e6e3          	bltu	x15,x25,58c <.L215>
 5a4:	c2dff06f          	j	1d0 <.L210>

000005a8 <.L288>:
 5a8:	00048c93          	mv	x25,x9
 5ac:	f3dff06f          	j	4e8 <.L209>

000005b0 <.L251>:
 5b0:	00030b13          	mv	x22,x6
 5b4:	c0dff06f          	j	1c0 <.L231>

000005b8 <.L250>:
 5b8:	000e0713          	mv	x14,x28
 5bc:	bc5ff06f          	j	180 <.L229>

000005c0 <.L283>:
 5c0:	0043a283          	lw	x5,4(x7)
 5c4:	0003a083          	lw	x1,0(x7)
 5c8:	ffd00993          	li	x19,-3
 5cc:	02128ab3          	mul	x21,x5,x1
 5d0:	fffa8a13          	addi	x20,x21,-1
 5d4:	bf49eee3          	bltu	x19,x20,1d0 <.L210>
 5d8:	00000737          	lui	x14,0x0
 5dc:	00072503          	lw	x10,0(x14) # 0 <_Z19tensorlib_copy_implIxiEiP11hb_tensor_tS1_>
 5e0:	004adb93          	srli	x23,x21,0x4
 5e4:	001b8493          	addi	x9,x23,1 # 20000001 <.L1103+0x1ffff805>
 5e8:	02a48533          	mul	x10,x9,x10
 5ec:	00a48cb3          	add	x25,x9,x10
 5f0:	0b9ae463          	bltu	x21,x25,698 <.L289>

000005f4 <.L223>:
 5f4:	bd957ee3          	bgeu	x10,x25,1d0 <.L210>
 5f8:	00492403          	lw	x8,4(x18)
 5fc:	0048a083          	lw	x1,4(x17)
 600:	0008aa83          	lw	x21,0(x17)
 604:	00482983          	lw	x19,4(x16)
 608:	00082903          	lw	x18,0(x16)
 60c:	0083a383          	lw	x7,8(x7)

00000610 <.L225>:
 610:	02557c33          	remu	x24,x10,x5
 614:	02555a33          	divu	x20,x10,x5
 618:	028577b3          	remu	x15,x10,x8
 61c:	02855b33          	divu	x22,x10,x8
 620:	035a0733          	mul	x14,x20,x21
 624:	021c05b3          	mul	x11,x24,x1
 628:	032b0a33          	mul	x20,x22,x18
 62c:	00e584b3          	add	x9,x11,x14
 630:	00249c13          	slli	x24,x9,0x2
 634:	018e0733          	add	x14,x28,x24
 638:	03378bb3          	mul	x23,x15,x19
 63c:	014b87b3          	add	x15,x23,x20
 640:	00379b13          	slli	x22,x15,0x3
 644:	016307b3          	add	x15,x6,x22
 648:	02038863          	beqz	x7,678 <.L227>
 64c:	0088a583          	lw	x11,8(x17)
 650:	00882483          	lw	x9,8(x16)
 654:	00000b13          	li	x22,0
 658:	00259b93          	slli	x23,x11,0x2
 65c:	00349a13          	slli	x20,x9,0x3

00000660 <.L226>:
 660:	0007ac03          	lw	x24,0(x15)
 664:	001b0b13          	addi	x22,x22,1 # fc0001 <.L1103+0xfbf805>
 668:	014787b3          	add	x15,x15,x20
 66c:	01872023          	sw	x24,0(x14)
 670:	01770733          	add	x14,x14,x23
 674:	ff6396e3          	bne	x7,x22,660 <.L226>

00000678 <.L227>:
 678:	00150513          	addi	x10,x10,1
 67c:	f8ac9ae3          	bne	x25,x10,610 <.L225>
 680:	b51ff06f          	j	1d0 <.L210>

00000684 <.L284>:
 684:	00048093          	mv	x1,x9
 688:	aa1ff06f          	j	128 <.L228>

0000068c <.L286>:
 68c:	00028b93          	mv	x23,x5
 690:	c77460e3          	bltu	x8,x23,2f0 <.L290>
 694:	b3dff06f          	j	1d0 <.L210>

00000698 <.L289>:
 698:	000a8c93          	mv	x25,x21
 69c:	f59ff06f          	j	5f4 <.L223>

Disassembly of section .text._Z19tensorlib_copy_implIxxEiP11hb_tensor_tS1_:

00000000 <_Z19tensorlib_copy_implIxxEiP11hb_tensor_tS1_>:
   0:	f5010113          	addi	x2,x2,-176
   4:	00050793          	mv	x15,x10
   8:	0a812423          	sw	x8,168(x2)
   c:	00810513          	addi	x10,x2,8
  10:	00058413          	mv	x8,x11
  14:	00078593          	mv	x11,x15
  18:	0a112623          	sw	x1,172(x2)
  1c:	0a912223          	sw	x9,164(x2)
  20:	0b212023          	sw	x18,160(x2)
  24:	09312e23          	sw	x19,156(x2)
  28:	09412c23          	sw	x20,152(x2)
  2c:	09512a23          	sw	x21,148(x2)
  30:	09612823          	sw	x22,144(x2)
  34:	09712623          	sw	x23,140(x2)
  38:	09812423          	sw	x24,136(x2)
  3c:	09912223          	sw	x25,132(x2)
  40:	00000097          	auipc	x1,0x0
  44:	000080e7          	jalr	x1 # 40 <_Z19tensorlib_copy_implIxxEiP11hb_tensor_tS1_+0x40>
  48:	00040593          	mv	x11,x8
  4c:	04410513          	addi	x10,x2,68
  50:	00000097          	auipc	x1,0x0
  54:	000080e7          	jalr	x1 # 50 <_Z19tensorlib_copy_implIxxEiP11hb_tensor_tS1_+0x50>
  58:	00000eb7          	lui	x29,0x0
  5c:	000006b7          	lui	x13,0x0
  60:	00000e37          	lui	x28,0x0
  64:	00000637          	lui	x12,0x0
  68:	000ea283          	lw	x5,0(x29) # 0 <_Z19tensorlib_copy_implIxxEiP11hb_tensor_tS1_>
  6c:	0006a803          	lw	x16,0(x13) # 0 <_Z19tensorlib_copy_implIxxEiP11hb_tensor_tS1_>
  70:	000e2703          	lw	x14,0(x28) # 0 <_Z19tensorlib_copy_implIxxEiP11hb_tensor_tS1_>
  74:	00062503          	lw	x10,0(x12) # 0 <_Z19tensorlib_copy_implIxxEiP11hb_tensor_tS1_>
  78:	00000337          	lui	x6,0x0
  7c:	00032583          	lw	x11,0(x6) # 0 <_Z19tensorlib_copy_implIxxEiP11hb_tensor_tS1_>
  80:	010283b3          	add	x7,x5,x16
  84:	00a704b3          	add	x9,x14,x10
  88:	01839893          	slli	x17,x7,0x18
  8c:	01249913          	slli	x18,x9,0x12
  90:	3f0009b7          	lui	x19,0x3f000
  94:	00fc0ab7          	lui	x21,0xfc0
  98:	00040cb7          	lui	x25,0x40
  9c:	00459b93          	slli	x23,x11,0x4
  a0:	ff0c8f13          	addi	x30,x25,-16 # 3fff0 <.L1103+0x3f7f4>
  a4:	0138fa33          	and	x20,x17,x19
  a8:	01597b33          	and	x22,x18,x21
  ac:	01ebffb3          	and	x31,x23,x30
  b0:	016a6c33          	or	x24,x20,x22
  b4:	01fc67b3          	or	x15,x24,x31
  b8:	00c12383          	lw	x7,12(x2)
  bc:	80000437          	lui	x8,0x80000
  c0:	0087e2b3          	or	x5,x15,x8
  c4:	41001837          	lui	x16,0x41001
  c8:	d0582623          	sw	x5,-756(x16) # 41000d0c <.L1103+0x41000510>
  cc:	00100593          	li	x11,1
  d0:	00812703          	lw	x14,8(x2)
  d4:	01012f03          	lw	x30,16(x2)
  d8:	01812283          	lw	x5,24(x2)
  dc:	04c12503          	lw	x10,76(x2)
  e0:	05412f83          	lw	x31,84(x2)
  e4:	3eb38663          	beq	x7,x11,4d0 <.L369>
  e8:	00200093          	li	x1,2
  ec:	01412883          	lw	x17,20(x2)
  f0:	1c138c63          	beq	x7,x1,2c8 <.L370>
  f4:	00300493          	li	x9,3
  f8:	05012403          	lw	x8,80(x2)
  fc:	4e938e63          	beq	x7,x9,5f8 <.L371>
 100:	fff70913          	addi	x18,x14,-1
 104:	ffd00993          	li	x19,-3
 108:	0d29e863          	bltu	x19,x18,1d8 <.L298>
 10c:	00000a37          	lui	x20,0x0
 110:	000a2a83          	lw	x21,0(x20) # 0 <_Z19tensorlib_copy_implIxxEiP11hb_tensor_tS1_>
 114:	00475b13          	srli	x22,x14,0x4
 118:	001b0b93          	addi	x23,x22,1
 11c:	035b8833          	mul	x16,x23,x21
 120:	010b80b3          	add	x1,x23,x16
 124:	5a176063          	bltu	x14,x1,6c4 <.L372>

00000128 <.L316>:
 128:	0a187863          	bgeu	x16,x1,1d8 <.L298>
 12c:	04812483          	lw	x9,72(x2)
 130:	00239c13          	slli	x24,x7,0x2
 134:	018889b3          	add	x19,x17,x24
 138:	00249c93          	slli	x25,x9,0x2
 13c:	01940933          	add	x18,x8,x25

00000140 <.L321>:
 140:	4a038863          	beqz	x7,5f0 <.L338>
 144:	000f0a93          	mv	x21,x30
 148:	00088713          	mv	x14,x17
 14c:	00080c93          	mv	x25,x16
 150:	00000793          	li	x15,0

00000154 <.L318>:
 154:	00072a03          	lw	x20,0(x14)
 158:	000aab83          	lw	x23,0(x21) # fc0000 <.L1103+0xfbf804>
 15c:	00470713          	addi	x14,x14,4
 160:	034cfb33          	remu	x22,x25,x20
 164:	004a8a93          	addi	x21,x21,4
 168:	037b0c33          	mul	x24,x22,x23
 16c:	034cdcb3          	divu	x25,x25,x20
 170:	018787b3          	add	x15,x15,x24
 174:	fee990e3          	bne	x19,x14,154 <.L318>
 178:	00379593          	slli	x11,x15,0x3
 17c:	00b285b3          	add	x11,x5,x11

00000180 <.L317>:
 180:	46048463          	beqz	x9,5e8 <.L339>
 184:	00050b13          	mv	x22,x10
 188:	00040713          	mv	x14,x8
 18c:	00080a93          	mv	x21,x16
 190:	00000793          	li	x15,0

00000194 <.L320>:
 194:	00072c03          	lw	x24,0(x14)
 198:	000b2c83          	lw	x25,0(x22)
 19c:	00470713          	addi	x14,x14,4
 1a0:	004b0b13          	addi	x22,x22,4
 1a4:	038afbb3          	remu	x23,x21,x24
 1a8:	039b8a33          	mul	x20,x23,x25
 1ac:	038adab3          	divu	x21,x21,x24
 1b0:	014787b3          	add	x15,x15,x20
 1b4:	fee910e3          	bne	x18,x14,194 <.L320>
 1b8:	00379c13          	slli	x24,x15,0x3
 1bc:	018f8a33          	add	x20,x31,x24

000001c0 <.L319>:
 1c0:	000a2c83          	lw	x25,0(x20)
 1c4:	004a2703          	lw	x14,4(x20)
 1c8:	00180813          	addi	x16,x16,1
 1cc:	0195a023          	sw	x25,0(x11)
 1d0:	00e5a223          	sw	x14,4(x11)
 1d4:	f70096e3          	bne	x1,x16,140 <.L321>

000001d8 <.L298>:
 1d8:	000eae83          	lw	x29,0(x29)
 1dc:	0006aa03          	lw	x20,0(x13)
 1e0:	000e2e03          	lw	x28,0(x28)
 1e4:	00062b03          	lw	x22,0(x12)
 1e8:	00032303          	lw	x6,0(x6)
 1ec:	014e8ab3          	add	x21,x29,x20
 1f0:	016e0bb3          	add	x23,x28,x22
 1f4:	018a9793          	slli	x15,x21,0x18
 1f8:	012b9413          	slli	x8,x23,0x12
 1fc:	3f000837          	lui	x16,0x3f000
 200:	00fc09b7          	lui	x19,0xfc0
 204:	000400b7          	lui	x1,0x40
 208:	0107f8b3          	and	x17,x15,x16
 20c:	01347933          	and	x18,x8,x19
 210:	00431493          	slli	x9,x6,0x4
 214:	ff008293          	addi	x5,x1,-16 # 3fff0 <.L1103+0x3f7f4>
 218:	0128e533          	or	x10,x17,x18
 21c:	0054f3b3          	and	x7,x9,x5
 220:	00756f33          	or	x30,x10,x7
 224:	c0000cb7          	lui	x25,0xc0000
 228:	019f6c33          	or	x24,x30,x25
 22c:	410015b7          	lui	x11,0x41001
 230:	d185a623          	sw	x24,-756(x11) # 41000d0c <.L1103+0x41000510>
 234:	00062f83          	lw	x31,0(x12)
 238:	0006ae83          	lw	x29,0(x13)
 23c:	00000a37          	lui	x20,0x0
 240:	004f8713          	addi	x14,x31,4
 244:	000a0793          	mv	x15,x20
 248:	00e78e33          	add	x28,x15,x14
 24c:	018e9b13          	slli	x22,x29,0x18
 250:	016e6333          	or	x6,x28,x22
 254:	20040ab7          	lui	x21,0x20040
 258:	01536bb3          	or	x23,x6,x21
 25c:	00100413          	li	x8,1
 260:	008b8023          	sb	x8,0(x23)
 264:	00062803          	lw	x16,0(x12)
 268:	10880463          	beq	x16,x8,370 <.L322>

0000026c <.L333>:
 26c:	00100393          	li	x7,1
 270:	0100006f          	j	280 <.L337>

00000274 <.L373>:
 274:	000a0c93          	mv	x25,x20
 278:	140cac2f          	lr.w.aq	x24,(x25)
 27c:	007c0863          	beq	x24,x7,28c <.L336>

00000280 <.L337>:
 280:	000a0693          	mv	x13,x20
 284:	1006af2f          	lr.w	x30,(x13)
 288:	fe7f16e3          	bne	x30,x7,274 <.L373>

0000028c <.L336>:
 28c:	0ac12083          	lw	x1,172(x2)
 290:	0a812403          	lw	x8,168(x2)
 294:	0007a023          	sw	x0,0(x15)
 298:	0a412483          	lw	x9,164(x2)
 29c:	0a012903          	lw	x18,160(x2)
 2a0:	09c12983          	lw	x19,156(x2)
 2a4:	09812a03          	lw	x20,152(x2)
 2a8:	09412a83          	lw	x21,148(x2)
 2ac:	09012b03          	lw	x22,144(x2)
 2b0:	08c12b83          	lw	x23,140(x2)
 2b4:	08812c03          	lw	x24,136(x2)
 2b8:	08412c83          	lw	x25,132(x2)
 2bc:	00000513          	li	x10,0
 2c0:	0b010113          	addi	x2,x2,176
 2c4:	00008067          	ret

000002c8 <.L370>:
 2c8:	0008a383          	lw	x7,0(x17)
 2cc:	ffd00093          	li	x1,-3
 2d0:	fff38913          	addi	x18,x7,-1
 2d4:	f120e2e3          	bltu	x1,x18,1d8 <.L298>
 2d8:	00000ab7          	lui	x21,0x0
 2dc:	000aa483          	lw	x9,0(x21) # 0 <_Z19tensorlib_copy_implIxxEiP11hb_tensor_tS1_>
 2e0:	0043db13          	srli	x22,x7,0x4
 2e4:	001b0993          	addi	x19,x22,1
 2e8:	029984b3          	mul	x9,x19,x9
 2ec:	00998bb3          	add	x23,x19,x9
 2f0:	3d73ee63          	bltu	x7,x23,6cc <.L374>
 2f4:	ef74f2e3          	bgeu	x9,x23,1d8 <.L298>

000002f8 <.L378>:
 2f8:	00052403          	lw	x8,0(x10)
 2fc:	000f2a03          	lw	x20,0(x30)
 300:	0048ac03          	lw	x24,4(x17)
 304:	00341c93          	slli	x25,x8,0x3
 308:	003a1093          	slli	x1,x20,0x3
 30c:	039488b3          	mul	x17,x9,x25
 310:	02148833          	mul	x16,x9,x1
 314:	011f8fb3          	add	x31,x31,x17
 318:	010282b3          	add	x5,x5,x16

0000031c <.L307>:
 31c:	000f8413          	mv	x8,x31
 320:	020c0e63          	beqz	x24,35c <.L309>
 324:	004f2783          	lw	x15,4(x30)
 328:	00452703          	lw	x14,4(x10)
 32c:	00028393          	mv	x7,x5
 330:	00379913          	slli	x18,x15,0x3
 334:	00371a93          	slli	x21,x14,0x3
 338:	00000593          	li	x11,0

0000033c <.L308>:
 33c:	00042b03          	lw	x22,0(x8) # 80000000 <.L1103+0x7ffff804>
 340:	00442983          	lw	x19,4(x8)
 344:	00158593          	addi	x11,x11,1
 348:	0163a023          	sw	x22,0(x7)
 34c:	0133a223          	sw	x19,4(x7)
 350:	01540433          	add	x8,x8,x21
 354:	012383b3          	add	x7,x7,x18
 358:	febc12e3          	bne	x24,x11,33c <.L308>

0000035c <.L309>:
 35c:	00148493          	addi	x9,x9,1
 360:	019f8fb3          	add	x31,x31,x25
 364:	001282b3          	add	x5,x5,x1
 368:	fa9b9ae3          	bne	x23,x9,31c <.L307>
 36c:	e6dff06f          	j	1d8 <.L298>

00000370 <.L322>:
 370:	0047c883          	lbu	x17,4(x15)
 374:	0ff8f993          	andi	x19,x17,255
 378:	fe098ce3          	beqz	x19,370 <.L322>
 37c:	0057c903          	lbu	x18,5(x15)
 380:	0ff97493          	andi	x9,x18,255
 384:	fe0486e3          	beqz	x9,370 <.L322>
 388:	0067c503          	lbu	x10,6(x15)
 38c:	0ff57093          	andi	x1,x10,255
 390:	fe0080e3          	beqz	x1,370 <.L322>
 394:	0077c283          	lbu	x5,7(x15)
 398:	0ff2f393          	andi	x7,x5,255
 39c:	fc038ae3          	beqz	x7,370 <.L322>
 3a0:	0006af03          	lw	x30,0(x13)
 3a4:	21040fb7          	lui	x31,0x21040
 3a8:	00100c93          	li	x25,1
 3ac:	00cf0c13          	addi	x24,x30,12
 3b0:	018785b3          	add	x11,x15,x24
 3b4:	01f5eeb3          	or	x29,x11,x31
 3b8:	019e8023          	sb	x25,0(x29)
 3bc:	00062e03          	lw	x28,0(x12)
 3c0:	eb9e16e3          	bne	x28,x25,26c <.L333>
 3c4:	0006a703          	lw	x14,0(x13)
 3c8:	07c70c63          	beq	x14,x28,440 <.L327>

000003cc <.L332>:
 3cc:	00100e13          	li	x28,1
 3d0:	0100006f          	j	3e0 <.L326>

000003d4 <.L375>:
 3d4:	00878313          	addi	x6,x15,8
 3d8:	14032aaf          	lr.w.aq	x21,(x6)
 3dc:	01ca8863          	beq	x21,x28,3ec <.L334>

000003e0 <.L326>:
 3e0:	00878613          	addi	x12,x15,8
 3e4:	10062b2f          	lr.w	x22,(x12)
 3e8:	ffcb16e3          	bne	x22,x28,3d4 <.L375>

000003ec <.L334>:
 3ec:	0007a423          	sw	x0,8(x15)
 3f0:	00078223          	sb	x0,4(x15)
 3f4:	000782a3          	sb	x0,5(x15)
 3f8:	00078323          	sb	x0,6(x15)
 3fc:	000783a3          	sb	x0,7(x15)
 400:	0007a023          	sw	x0,0(x15)
 404:	00000493          	li	x9,0
 408:	000a0793          	mv	x15,x20
 40c:	20000bb7          	lui	x23,0x20000
 410:	00100413          	li	x8,1
 414:	000408b7          	lui	x17,0x40
 418:	00100837          	lui	x16,0x100

0000041c <.L335>:
 41c:	0006a983          	lw	x19,0(x13)
 420:	0097e933          	or	x18,x15,x9
 424:	011484b3          	add	x9,x9,x17
 428:	01899513          	slli	x10,x19,0x18
 42c:	012560b3          	or	x1,x10,x18
 430:	0170e2b3          	or	x5,x1,x23
 434:	0082a023          	sw	x8,0(x5) # 40000 <.L1103+0x3f804>
 438:	ff0492e3          	bne	x9,x16,41c <.L335>
 43c:	e31ff06f          	j	26c <.L333>

00000440 <.L327>:
 440:	00c7cb03          	lbu	x22,12(x15)
 444:	0ffb7313          	andi	x6,x22,255
 448:	fe030ce3          	beqz	x6,440 <.L327>
 44c:	00d7ca83          	lbu	x21,13(x15)
 450:	0ffafb93          	andi	x23,x21,255
 454:	fe0b86e3          	beqz	x23,440 <.L327>
 458:	00e7c403          	lbu	x8,14(x15)
 45c:	0ff47813          	andi	x16,x8,255
 460:	fe0800e3          	beqz	x16,440 <.L327>
 464:	00f7c883          	lbu	x17,15(x15)
 468:	0ff8f993          	andi	x19,x17,255
 46c:	fc098ae3          	beqz	x19,440 <.L327>
 470:	00078623          	sb	x0,12(x15)
 474:	000786a3          	sb	x0,13(x15)
 478:	00078723          	sb	x0,14(x15)
 47c:	000787a3          	sb	x0,15(x15)
 480:	00000937          	lui	x18,0x0
 484:	0007a423          	sw	x0,8(x15)
 488:	00000e93          	li	x29,0
 48c:	00890493          	addi	x9,x18,8 # 8 <_Z19tensorlib_copy_implIxxEiP11hb_tensor_tS1_+0x8>
 490:	03fc0537          	lui	x10,0x3fc0
 494:	200000b7          	lui	x1,0x20000
 498:	00100293          	li	x5,1
 49c:	010003b7          	lui	x7,0x1000
 4a0:	04000f37          	lui	x30,0x4000

000004a4 <.L331>:
 4a4:	01271713          	slli	x14,x14,0x12
 4a8:	01d4ecb3          	or	x25,x9,x29
 4ac:	00a77c33          	and	x24,x14,x10
 4b0:	019c65b3          	or	x11,x24,x25
 4b4:	0015efb3          	or	x31,x11,x1
 4b8:	005fa023          	sw	x5,0(x31) # 21040000 <.L1103+0x2103f804>
 4bc:	007e8eb3          	add	x29,x29,x7
 4c0:	00062703          	lw	x14,0(x12)
 4c4:	ffee90e3          	bne	x29,x30,4a4 <.L331>
 4c8:	f05702e3          	beq	x14,x5,3cc <.L332>
 4cc:	da1ff06f          	j	26c <.L333>

000004d0 <.L369>:
 4d0:	fff70b93          	addi	x23,x14,-1
 4d4:	ffd00a13          	li	x20,-3
 4d8:	d17a60e3          	bltu	x20,x23,1d8 <.L298>
 4dc:	00000c37          	lui	x24,0x0
 4e0:	000c2c83          	lw	x25,0(x24) # 0 <_Z19tensorlib_copy_implIxxEiP11hb_tensor_tS1_>
 4e4:	00475093          	srli	x1,x14,0x4
 4e8:	00108893          	addi	x17,x1,1 # 20000001 <.L1103+0x1ffff805>
 4ec:	039885b3          	mul	x11,x17,x25
 4f0:	00b88a33          	add	x20,x17,x11
 4f4:	0f476663          	bltu	x14,x20,5e0 <.L376>

000004f8 <.L297>:
 4f8:	cf45f0e3          	bgeu	x11,x20,1d8 <.L298>
 4fc:	000f2903          	lw	x18,0(x30) # 4000000 <.L1103+0x3fff804>
 500:	00052983          	lw	x19,0(x10) # 3fc0000 <.L1103+0x3fbf804>
 504:	40ba0f33          	sub	x30,x20,x11
 508:	00391b13          	slli	x22,x18,0x3
 50c:	00399a93          	slli	x21,x19,0x3
 510:	03658533          	mul	x10,x11,x22
 514:	00400793          	li	x15,4
 518:	02ba8833          	mul	x16,x21,x11
 51c:	00a28733          	add	x14,x5,x10
 520:	010f8fb3          	add	x31,x31,x16
 524:	09e7fc63          	bgeu	x15,x30,5bc <.L303>
 528:	ffca0c93          	addi	x25,x20,-4 # fffffffc <.L1103+0xfffff800>
 52c:	0995f863          	bgeu	x11,x25,5bc <.L303>
 530:	00070293          	mv	x5,x14
 534:	00491413          	slli	x8,x18,0x4
 538:	00499713          	slli	x14,x19,0x4
 53c:	00591c13          	slli	x24,x18,0x5
 540:	00599b93          	slli	x23,x19,0x5
 544:	00ef83b3          	add	x7,x31,x14
 548:	00828f33          	add	x30,x5,x8

0000054c <.L302>:
 54c:	000fa083          	lw	x1,0(x31)
 550:	004fa783          	lw	x15,4(x31)
 554:	015f84b3          	add	x9,x31,x21
 558:	0004a703          	lw	x14,0(x9)
 55c:	0044a403          	lw	x8,4(x9)
 560:	0003a803          	lw	x16,0(x7) # 1000000 <.L1103+0xfff804>
 564:	0043a883          	lw	x17,4(x7)
 568:	015389b3          	add	x19,x7,x21
 56c:	0009a903          	lw	x18,0(x19) # fc0000 <.L1103+0xfbf804>
 570:	0049a483          	lw	x9,4(x19)
 574:	01628533          	add	x10,x5,x22
 578:	0012a023          	sw	x1,0(x5)
 57c:	00f2a223          	sw	x15,4(x5)
 580:	00e52023          	sw	x14,0(x10)
 584:	00852223          	sw	x8,4(x10)
 588:	010f2023          	sw	x16,0(x30)
 58c:	011f2223          	sw	x17,4(x30)
 590:	016f00b3          	add	x1,x30,x22
 594:	01828733          	add	x14,x5,x24
 598:	0120a023          	sw	x18,0(x1)
 59c:	0090a223          	sw	x9,4(x1)
 5a0:	00458593          	addi	x11,x11,4
 5a4:	00070293          	mv	x5,x14
 5a8:	017f8fb3          	add	x31,x31,x23
 5ac:	017383b3          	add	x7,x7,x23
 5b0:	018f0f33          	add	x30,x30,x24
 5b4:	f995ece3          	bltu	x11,x25,54c <.L302>
 5b8:	c345f0e3          	bgeu	x11,x20,1d8 <.L298>

000005bc <.L303>:
 5bc:	000fac83          	lw	x25,0(x31)
 5c0:	004fac03          	lw	x24,4(x31)
 5c4:	00158593          	addi	x11,x11,1
 5c8:	01972023          	sw	x25,0(x14)
 5cc:	01872223          	sw	x24,4(x14)
 5d0:	015f8fb3          	add	x31,x31,x21
 5d4:	01670733          	add	x14,x14,x22
 5d8:	ff45e2e3          	bltu	x11,x20,5bc <.L303>
 5dc:	bfdff06f          	j	1d8 <.L298>

000005e0 <.L376>:
 5e0:	00070a13          	mv	x20,x14
 5e4:	f15ff06f          	j	4f8 <.L297>

000005e8 <.L339>:
 5e8:	000f8a13          	mv	x20,x31
 5ec:	bd5ff06f          	j	1c0 <.L319>

000005f0 <.L338>:
 5f0:	00028593          	mv	x11,x5
 5f4:	b8dff06f          	j	180 <.L317>

000005f8 <.L371>:
 5f8:	0048a383          	lw	x7,4(x17) # 40004 <.L1103+0x3f808>
 5fc:	0008a083          	lw	x1,0(x17)
 600:	ffd00493          	li	x9,-3
 604:	021389b3          	mul	x19,x7,x1
 608:	fff98913          	addi	x18,x19,-1
 60c:	bd24e6e3          	bltu	x9,x18,1d8 <.L298>
 610:	000005b7          	lui	x11,0x0
 614:	0005ab83          	lw	x23,0(x11) # 0 <_Z19tensorlib_copy_implIxxEiP11hb_tensor_tS1_>
 618:	0049db13          	srli	x22,x19,0x4
 61c:	001b0a13          	addi	x20,x22,1
 620:	037a05b3          	mul	x11,x20,x23
 624:	00ba00b3          	add	x1,x20,x11
 628:	0a19e863          	bltu	x19,x1,6d8 <.L377>

0000062c <.L311>:
 62c:	ba15f6e3          	bgeu	x11,x1,1d8 <.L298>
 630:	00442483          	lw	x9,4(x8)
 634:	004f2903          	lw	x18,4(x30)
 638:	000f2a83          	lw	x21,0(x30)
 63c:	00452b03          	lw	x22,4(x10)
 640:	00052983          	lw	x19,0(x10)
 644:	0088a403          	lw	x8,8(x17)

00000648 <.L313>:
 648:	0275fc33          	remu	x24,x11,x7
 64c:	0275dcb3          	divu	x25,x11,x7
 650:	0295f7b3          	remu	x15,x11,x9
 654:	0295d8b3          	divu	x17,x11,x9
 658:	035c8733          	mul	x14,x25,x21
 65c:	032c0833          	mul	x16,x24,x18
 660:	03388cb3          	mul	x25,x17,x19
 664:	00e80a33          	add	x20,x16,x14
 668:	003a1c13          	slli	x24,x20,0x3
 66c:	01828733          	add	x14,x5,x24
 670:	03678bb3          	mul	x23,x15,x22
 674:	019b87b3          	add	x15,x23,x25
 678:	00379893          	slli	x17,x15,0x3
 67c:	011f87b3          	add	x15,x31,x17
 680:	02040c63          	beqz	x8,6b8 <.L315>
 684:	008f2803          	lw	x16,8(x30)
 688:	00852b83          	lw	x23,8(x10)
 68c:	00381a13          	slli	x20,x16,0x3
 690:	003b9c13          	slli	x24,x23,0x3
 694:	00000813          	li	x16,0

00000698 <.L314>:
 698:	0007ac83          	lw	x25,0(x15)
 69c:	0047a883          	lw	x17,4(x15)
 6a0:	00180813          	addi	x16,x16,1 # 100001 <.L1103+0xff805>
 6a4:	01972023          	sw	x25,0(x14)
 6a8:	01172223          	sw	x17,4(x14)
 6ac:	018787b3          	add	x15,x15,x24
 6b0:	01470733          	add	x14,x14,x20
 6b4:	ff0412e3          	bne	x8,x16,698 <.L314>

000006b8 <.L315>:
 6b8:	00158593          	addi	x11,x11,1
 6bc:	f8b096e3          	bne	x1,x11,648 <.L313>
 6c0:	b19ff06f          	j	1d8 <.L298>

000006c4 <.L372>:
 6c4:	00070093          	mv	x1,x14
 6c8:	a61ff06f          	j	128 <.L316>

000006cc <.L374>:
 6cc:	00038b93          	mv	x23,x7
 6d0:	c374e4e3          	bltu	x9,x23,2f8 <.L378>
 6d4:	b05ff06f          	j	1d8 <.L298>

000006d8 <.L377>:
 6d8:	00098093          	mv	x1,x19
 6dc:	f51ff06f          	j	62c <.L311>

Disassembly of section .text._ZN8HBTensorIfLln1EEC2EP11hb_tensor_t:

00000000 <_ZN8HBTensorIfLln1EEC1EP11hb_tensor_t>:
   0:	00058713          	mv	x14,x11
   4:	0045a683          	lw	x13,4(x11)
   8:	00072803          	lw	x16,0(x14)
   c:	0105a583          	lw	x11,16(x11)
  10:	00050793          	mv	x15,x10
  14:	02850613          	addi	x12,x10,40
  18:	01450513          	addi	x10,x10,20
  1c:	0107a023          	sw	x16,0(x15)
  20:	00d7a223          	sw	x13,4(x15)
  24:	00a7a423          	sw	x10,8(x15)
  28:	00c7a623          	sw	x12,12(x15)
  2c:	00b7a823          	sw	x11,16(x15)
  30:	00060613          	mv	x12,x12
  34:	00500293          	li	x5,5
  38:	04d2e463          	bltu	x5,x13,80 <.L392>
  3c:	00872303          	lw	x6,8(x14)
  40:	00c72383          	lw	x7,12(x14)
  44:	02068c63          	beqz	x13,7c <.L380>
  48:	00269893          	slli	x17,x13,0x2
  4c:	00078713          	mv	x14,x15
  50:	01178e33          	add	x28,x15,x17
  54:	40f30eb3          	sub	x29,x6,x15
  58:	40f38f33          	sub	x30,x7,x15

0000005c <.L384>:
  5c:	00ee8fb3          	add	x31,x29,x14
  60:	000fa683          	lw	x13,0(x31)
  64:	00ef05b3          	add	x11,x30,x14
  68:	00470713          	addi	x14,x14,4
  6c:	00d72823          	sw	x13,16(x14)
  70:	0005a803          	lw	x16,0(x11)
  74:	03072223          	sw	x16,36(x14)
  78:	ffc712e3          	bne	x14,x28,5c <.L384>

0000007c <.L380>:
  7c:	00008067          	ret

00000080 <.L392>:
  80:	ff010113          	addi	x2,x2,-16
  84:	000007b7          	lui	x15,0x0
  88:	00112623          	sw	x1,12(x2)
  8c:	000000b7          	lui	x1,0x0
  90:	0cb00613          	li	x12,203
  94:	00008593          	mv	x11,x1
  98:	00078513          	mv	x10,x15
  9c:	00000097          	auipc	x1,0x0
  a0:	000080e7          	jalr	x1 # 9c <.L392+0x1c>
  a4:	00000637          	lui	x12,0x0
  a8:	00060513          	mv	x10,x12
  ac:	00000097          	auipc	x1,0x0
  b0:	000080e7          	jalr	x1 # ac <.L392+0x2c>
  b4:	00000537          	lui	x10,0x0
  b8:	00052283          	lw	x5,0(x10) # 0 <_ZN8HBTensorIfLln1EEC1EP11hb_tensor_t>
  bc:	00000337          	lui	x6,0x0
  c0:	00032383          	lw	x7,0(x6) # 0 <_ZN8HBTensorIfLln1EEC1EP11hb_tensor_t>
  c4:	01029893          	slli	x17,x5,0x10
  c8:	4100feb7          	lui	x29,0x4100f
  cc:	00788e33          	add	x28,x17,x7
  d0:	adceac23          	sw	x28,-1320(x29) # 4100ead8 <.L1103+0x4100e2dc>

000000d4 <.L382>:
  d4:	0000006f          	j	d4 <.L382>

Disassembly of section .text._Z19tensorlib_copy_implIifEiP11hb_tensor_tS1_:

00000000 <_Z19tensorlib_copy_implIifEiP11hb_tensor_tS1_>:
   0:	f5010113          	addi	x2,x2,-176
   4:	00050793          	mv	x15,x10
   8:	0a812423          	sw	x8,168(x2)
   c:	00810513          	addi	x10,x2,8
  10:	00058413          	mv	x8,x11
  14:	00078593          	mv	x11,x15
  18:	0a112623          	sw	x1,172(x2)
  1c:	0a912223          	sw	x9,164(x2)
  20:	0b212023          	sw	x18,160(x2)
  24:	09312e23          	sw	x19,156(x2)
  28:	09412c23          	sw	x20,152(x2)
  2c:	09512a23          	sw	x21,148(x2)
  30:	09612823          	sw	x22,144(x2)
  34:	09712623          	sw	x23,140(x2)
  38:	09812423          	sw	x24,136(x2)
  3c:	09912223          	sw	x25,132(x2)
  40:	00000097          	auipc	x1,0x0
  44:	000080e7          	jalr	x1 # 40 <_Z19tensorlib_copy_implIifEiP11hb_tensor_tS1_+0x40>
  48:	00040593          	mv	x11,x8
  4c:	04410513          	addi	x10,x2,68
  50:	00000097          	auipc	x1,0x0
  54:	000080e7          	jalr	x1 # 50 <_Z19tensorlib_copy_implIifEiP11hb_tensor_tS1_+0x50>
  58:	00000f37          	lui	x30,0x0
  5c:	000006b7          	lui	x13,0x0
  60:	00000eb7          	lui	x29,0x0
  64:	00000637          	lui	x12,0x0
  68:	000f2283          	lw	x5,0(x30) # 0 <_Z19tensorlib_copy_implIifEiP11hb_tensor_tS1_>
  6c:	0006a803          	lw	x16,0(x13) # 0 <_Z19tensorlib_copy_implIifEiP11hb_tensor_tS1_>
  70:	000ea703          	lw	x14,0(x29) # 0 <_Z19tensorlib_copy_implIifEiP11hb_tensor_tS1_>
  74:	00062503          	lw	x10,0(x12) # 0 <_Z19tensorlib_copy_implIifEiP11hb_tensor_tS1_>
  78:	00000fb7          	lui	x31,0x0
  7c:	000fa583          	lw	x11,0(x31) # 0 <_Z19tensorlib_copy_implIifEiP11hb_tensor_tS1_>
  80:	01028333          	add	x6,x5,x16
  84:	00a703b3          	add	x7,x14,x10
  88:	01831493          	slli	x9,x6,0x18
  8c:	01239893          	slli	x17,x7,0x12
  90:	3f000937          	lui	x18,0x3f000
  94:	00fc0a37          	lui	x20,0xfc0
  98:	00040c37          	lui	x24,0x40
  9c:	0124f9b3          	and	x19,x9,x18
  a0:	0148fab3          	and	x21,x17,x20
  a4:	00459b13          	slli	x22,x11,0x4
  a8:	ff0c0c93          	addi	x25,x24,-16 # 3fff0 <.L1103+0x3f7f4>
  ac:	019b7e33          	and	x28,x22,x25
  b0:	0159ebb3          	or	x23,x19,x21
  b4:	01cbe7b3          	or	x15,x23,x28
  b8:	00c12283          	lw	x5,12(x2)
  bc:	80000437          	lui	x8,0x80000
  c0:	0087e833          	or	x16,x15,x8
  c4:	41001737          	lui	x14,0x41001
  c8:	d1072623          	sw	x16,-756(x14) # 41000d0c <.L1103+0x41000510>
  cc:	00100513          	li	x10,1
  d0:	00812903          	lw	x18,8(x2)
  d4:	01012883          	lw	x17,16(x2)
  d8:	01812e03          	lw	x28,24(x2)
  dc:	04c12803          	lw	x16,76(x2)
  e0:	05412303          	lw	x6,84(x2)
  e4:	3ea28263          	beq	x5,x10,4c8 <.L470>
  e8:	00200093          	li	x1,2
  ec:	01412383          	lw	x7,20(x2)
  f0:	1c128a63          	beq	x5,x1,2c4 <.L471>
  f4:	00300593          	li	x11,3
  f8:	05012403          	lw	x8,80(x2)
  fc:	4eb28063          	beq	x5,x11,5dc <.L472>
 100:	fff90493          	addi	x9,x18,-1 # 3effffff <.L1103+0x3efff803>
 104:	ffd00993          	li	x19,-3
 108:	0c99e663          	bltu	x19,x9,1d4 <.L399>
 10c:	00000a37          	lui	x20,0x0
 110:	000a2a83          	lw	x21,0(x20) # 0 <_Z19tensorlib_copy_implIifEiP11hb_tensor_tS1_>
 114:	00495b13          	srli	x22,x18,0x4
 118:	001b0b93          	addi	x23,x22,1
 11c:	035b85b3          	mul	x11,x23,x21
 120:	00bb80b3          	add	x1,x23,x11
 124:	58196063          	bltu	x18,x1,6a4 <.L473>

00000128 <.L417>:
 128:	0a15f663          	bgeu	x11,x1,1d4 <.L399>
 12c:	04812483          	lw	x9,72(x2)
 130:	00229c13          	slli	x24,x5,0x2
 134:	018389b3          	add	x19,x7,x24
 138:	00249c93          	slli	x25,x9,0x2
 13c:	01940933          	add	x18,x8,x25

00000140 <.L422>:
 140:	48028a63          	beqz	x5,5d4 <.L439>
 144:	00088a93          	mv	x21,x17
 148:	00038c13          	mv	x24,x7
 14c:	00058513          	mv	x10,x11
 150:	00000793          	li	x15,0

00000154 <.L419>:
 154:	000c2a03          	lw	x20,0(x24)
 158:	000aab83          	lw	x23,0(x21)
 15c:	004c0c13          	addi	x24,x24,4
 160:	03457b33          	remu	x22,x10,x20
 164:	004a8a93          	addi	x21,x21,4
 168:	037b0cb3          	mul	x25,x22,x23
 16c:	03455533          	divu	x10,x10,x20
 170:	019787b3          	add	x15,x15,x25
 174:	ff8990e3          	bne	x19,x24,154 <.L419>
 178:	00279713          	slli	x14,x15,0x2
 17c:	00ee0733          	add	x14,x28,x14

00000180 <.L418>:
 180:	44048663          	beqz	x9,5cc <.L440>
 184:	00080b13          	mv	x22,x16
 188:	00040513          	mv	x10,x8
 18c:	00058a93          	mv	x21,x11
 190:	00000793          	li	x15,0

00000194 <.L421>:
 194:	00052c03          	lw	x24,0(x10)
 198:	000b2c83          	lw	x25,0(x22)
 19c:	00450513          	addi	x10,x10,4
 1a0:	004b0b13          	addi	x22,x22,4
 1a4:	038afbb3          	remu	x23,x21,x24
 1a8:	039b8a33          	mul	x20,x23,x25
 1ac:	038adab3          	divu	x21,x21,x24
 1b0:	014787b3          	add	x15,x15,x20
 1b4:	fea910e3          	bne	x18,x10,194 <.L421>
 1b8:	00279c13          	slli	x24,x15,0x2
 1bc:	01830a33          	add	x20,x6,x24

000001c0 <.L420>:
 1c0:	000a2c83          	lw	x25,0(x20)
 1c4:	00158593          	addi	x11,x11,1
 1c8:	d00cf7d3          	fcvt.s.w	f15,x25
 1cc:	00f72027          	fsw	f15,0(x14)
 1d0:	f6b098e3          	bne	x1,x11,140 <.L422>

000001d4 <.L399>:
 1d4:	000f2f03          	lw	x30,0(x30)
 1d8:	0006ac83          	lw	x25,0(x13)
 1dc:	000eae83          	lw	x29,0(x29)
 1e0:	00062a83          	lw	x21,0(x12)
 1e4:	000faf83          	lw	x31,0(x31)
 1e8:	019f00b3          	add	x1,x30,x25
 1ec:	015e8533          	add	x10,x29,x21
 1f0:	01809b13          	slli	x22,x1,0x18
 1f4:	01251b93          	slli	x23,x10,0x12
 1f8:	3f000c37          	lui	x24,0x3f000
 1fc:	00fc05b7          	lui	x11,0xfc0
 200:	00040737          	lui	x14,0x40
 204:	018b79b3          	and	x19,x22,x24
 208:	00bbf3b3          	and	x7,x23,x11
 20c:	004f9893          	slli	x17,x31,0x4
 210:	ff070a13          	addi	x20,x14,-16 # 3fff0 <.L1103+0x3f7f4>
 214:	0079e933          	or	x18,x19,x7
 218:	0148fe33          	and	x28,x17,x20
 21c:	01c964b3          	or	x9,x18,x28
 220:	c0000837          	lui	x16,0xc0000
 224:	410017b7          	lui	x15,0x41001
 228:	0104e433          	or	x8,x9,x16
 22c:	d087a623          	sw	x8,-756(x15) # 41000d0c <.L1103+0x41000510>
 230:	00062303          	lw	x6,0(x12)
 234:	0006a283          	lw	x5,0(x13)
 238:	00000cb7          	lui	x25,0x0
 23c:	00430f13          	addi	x30,x6,4
 240:	000c8793          	mv	x15,x25
 244:	01e78eb3          	add	x29,x15,x30
 248:	01829a93          	slli	x21,x5,0x18
 24c:	015eefb3          	or	x31,x29,x21
 250:	200400b7          	lui	x1,0x20040
 254:	001feb33          	or	x22,x31,x1
 258:	00100513          	li	x10,1
 25c:	00ab0023          	sb	x10,0(x22)
 260:	00062b83          	lw	x23,0(x12)
 264:	10ab8263          	beq	x23,x10,368 <.L423>

00000268 <.L434>:
 268:	00100a13          	li	x20,1
 26c:	0100006f          	j	27c <.L438>

00000270 <.L474>:
 270:	000c8493          	mv	x9,x25
 274:	1404a42f          	lr.w.aq	x8,(x9)
 278:	01440863          	beq	x8,x20,288 <.L437>

0000027c <.L438>:
 27c:	000c8693          	mv	x13,x25
 280:	1006ae2f          	lr.w	x28,(x13)
 284:	ff4e16e3          	bne	x28,x20,270 <.L474>

00000288 <.L437>:
 288:	0ac12083          	lw	x1,172(x2)
 28c:	0a812403          	lw	x8,168(x2)
 290:	0007a023          	sw	x0,0(x15)
 294:	0a412483          	lw	x9,164(x2)
 298:	0a012903          	lw	x18,160(x2)
 29c:	09c12983          	lw	x19,156(x2)
 2a0:	09812a03          	lw	x20,152(x2)
 2a4:	09412a83          	lw	x21,148(x2)
 2a8:	09012b03          	lw	x22,144(x2)
 2ac:	08c12b83          	lw	x23,140(x2)
 2b0:	08812c03          	lw	x24,136(x2)
 2b4:	08412c83          	lw	x25,132(x2)
 2b8:	00000513          	li	x10,0
 2bc:	0b010113          	addi	x2,x2,176
 2c0:	00008067          	ret

000002c4 <.L471>:
 2c4:	0003a283          	lw	x5,0(x7)
 2c8:	ffd00c93          	li	x25,-3
 2cc:	fff28a93          	addi	x21,x5,-1
 2d0:	f15ce2e3          	bltu	x25,x21,1d4 <.L399>
 2d4:	00000a37          	lui	x20,0x0
 2d8:	000a2403          	lw	x8,0(x20) # 0 <_Z19tensorlib_copy_implIifEiP11hb_tensor_tS1_>
 2dc:	0042d093          	srli	x1,x5,0x4
 2e0:	00108493          	addi	x9,x1,1 # 20040001 <.L1103+0x2003f805>
 2e4:	02848433          	mul	x8,x9,x8
 2e8:	00848b33          	add	x22,x9,x8
 2ec:	3d62e063          	bltu	x5,x22,6ac <.L475>
 2f0:	ef6472e3          	bgeu	x8,x22,1d4 <.L399>

000002f4 <.L479>:
 2f4:	00082583          	lw	x11,0(x16) # c0000000 <.L1103+0xbffff804>
 2f8:	0008ab83          	lw	x23,0(x17)
 2fc:	0043ac03          	lw	x24,4(x7)
 300:	00259913          	slli	x18,x11,0x2
 304:	002b9993          	slli	x19,x23,0x2
 308:	032403b3          	mul	x7,x8,x18
 30c:	033407b3          	mul	x15,x8,x19
 310:	00730333          	add	x6,x6,x7
 314:	00fe0e33          	add	x28,x28,x15

00000318 <.L408>:
 318:	00030293          	mv	x5,x6
 31c:	020c0c63          	beqz	x24,354 <.L410>
 320:	0048ac83          	lw	x25,4(x17)
 324:	00482703          	lw	x14,4(x16)
 328:	000e0513          	mv	x10,x28
 32c:	002c9a93          	slli	x21,x25,0x2
 330:	00271a13          	slli	x20,x14,0x2
 334:	00000493          	li	x9,0

00000338 <.L409>:
 338:	0002a083          	lw	x1,0(x5)
 33c:	00148493          	addi	x9,x9,1
 340:	014282b3          	add	x5,x5,x20
 344:	d000f0d3          	fcvt.s.w	f1,x1
 348:	00152027          	fsw	f1,0(x10)
 34c:	01550533          	add	x10,x10,x21
 350:	fe9c14e3          	bne	x24,x9,338 <.L409>

00000354 <.L410>:
 354:	00140413          	addi	x8,x8,1 # 80000001 <.L1103+0x7ffff805>
 358:	01230333          	add	x6,x6,x18
 35c:	013e0e33          	add	x28,x28,x19
 360:	fa8b1ce3          	bne	x22,x8,318 <.L408>
 364:	e71ff06f          	j	1d4 <.L399>

00000368 <.L423>:
 368:	0047cc03          	lbu	x24,4(x15)
 36c:	0ffc7993          	andi	x19,x24,255
 370:	fe098ce3          	beqz	x19,368 <.L423>
 374:	0057c583          	lbu	x11,5(x15)
 378:	0ff5f393          	andi	x7,x11,255
 37c:	fe0386e3          	beqz	x7,368 <.L423>
 380:	0067c883          	lbu	x17,6(x15)
 384:	0ff8f913          	andi	x18,x17,255
 388:	fe0900e3          	beqz	x18,368 <.L423>
 38c:	0077c703          	lbu	x14,7(x15)
 390:	0ff77a13          	andi	x20,x14,255
 394:	fc0a0ae3          	beqz	x20,368 <.L423>
 398:	0006ae03          	lw	x28,0(x13)
 39c:	21040337          	lui	x6,0x21040
 3a0:	00100493          	li	x9,1
 3a4:	00ce0813          	addi	x16,x28,12
 3a8:	01078433          	add	x8,x15,x16
 3ac:	006462b3          	or	x5,x8,x6
 3b0:	00928023          	sb	x9,0(x5)
 3b4:	00062f03          	lw	x30,0(x12)
 3b8:	ea9f18e3          	bne	x30,x9,268 <.L434>
 3bc:	0006a703          	lw	x14,0(x13)
 3c0:	07e70c63          	beq	x14,x30,438 <.L428>

000003c4 <.L433>:
 3c4:	00100f13          	li	x30,1
 3c8:	0100006f          	j	3d8 <.L427>

000003cc <.L476>:
 3cc:	00878a93          	addi	x21,x15,8
 3d0:	140aafaf          	lr.w.aq	x31,(x21)
 3d4:	01ef8863          	beq	x31,x30,3e4 <.L435>

000003d8 <.L427>:
 3d8:	00878613          	addi	x12,x15,8
 3dc:	10062eaf          	lr.w	x29,(x12)
 3e0:	ffee96e3          	bne	x29,x30,3cc <.L476>

000003e4 <.L435>:
 3e4:	0007a423          	sw	x0,8(x15)
 3e8:	00078223          	sb	x0,4(x15)
 3ec:	000782a3          	sb	x0,5(x15)
 3f0:	00078323          	sb	x0,6(x15)
 3f4:	000783a3          	sb	x0,7(x15)
 3f8:	0007a023          	sw	x0,0(x15)
 3fc:	00000593          	li	x11,0
 400:	000c8793          	mv	x15,x25
 404:	200000b7          	lui	x1,0x20000
 408:	00100b13          	li	x22,1
 40c:	00040bb7          	lui	x23,0x40
 410:	00100c37          	lui	x24,0x100

00000414 <.L436>:
 414:	0006a983          	lw	x19,0(x13)
 418:	00b7e533          	or	x10,x15,x11
 41c:	017585b3          	add	x11,x11,x23
 420:	01899393          	slli	x7,x19,0x18
 424:	00a3e933          	or	x18,x7,x10
 428:	001968b3          	or	x17,x18,x1
 42c:	0168a023          	sw	x22,0(x17)
 430:	ff8592e3          	bne	x11,x24,414 <.L436>
 434:	e35ff06f          	j	268 <.L434>

00000438 <.L428>:
 438:	00c7ce83          	lbu	x29,12(x15)
 43c:	0ffefa93          	andi	x21,x29,255
 440:	fe0a8ce3          	beqz	x21,438 <.L428>
 444:	00d7cf83          	lbu	x31,13(x15)
 448:	0ffff093          	andi	x1,x31,255
 44c:	fe0086e3          	beqz	x1,438 <.L428>
 450:	00e7cb03          	lbu	x22,14(x15)
 454:	0ffb7513          	andi	x10,x22,255
 458:	fe0500e3          	beqz	x10,438 <.L428>
 45c:	00f7cb83          	lbu	x23,15(x15)
 460:	0ffbfc13          	andi	x24,x23,255
 464:	fc0c0ae3          	beqz	x24,438 <.L428>
 468:	00078623          	sb	x0,12(x15)
 46c:	000786a3          	sb	x0,13(x15)
 470:	00078723          	sb	x0,14(x15)
 474:	000787a3          	sb	x0,15(x15)
 478:	000009b7          	lui	x19,0x0
 47c:	0007a423          	sw	x0,8(x15)
 480:	00000813          	li	x16,0
 484:	00898593          	addi	x11,x19,8 # 8 <_Z19tensorlib_copy_implIifEiP11hb_tensor_tS1_+0x8>
 488:	03fc03b7          	lui	x7,0x3fc0
 48c:	20000937          	lui	x18,0x20000
 490:	00100893          	li	x17,1
 494:	01000a37          	lui	x20,0x1000
 498:	04000e37          	lui	x28,0x4000

0000049c <.L432>:
 49c:	01271713          	slli	x14,x14,0x12
 4a0:	0105e4b3          	or	x9,x11,x16
 4a4:	00777433          	and	x8,x14,x7
 4a8:	00946333          	or	x6,x8,x9
 4ac:	012362b3          	or	x5,x6,x18
 4b0:	0112a023          	sw	x17,0(x5)
 4b4:	01480833          	add	x16,x16,x20
 4b8:	00062703          	lw	x14,0(x12)
 4bc:	ffc810e3          	bne	x16,x28,49c <.L432>
 4c0:	f11702e3          	beq	x14,x17,3c4 <.L433>
 4c4:	da5ff06f          	j	268 <.L434>

000004c8 <.L470>:
 4c8:	fff90b13          	addi	x22,x18,-1 # 1fffffff <.L1103+0x1ffff803>
 4cc:	ffd00593          	li	x11,-3
 4d0:	d165e2e3          	bltu	x11,x22,1d4 <.L399>
 4d4:	00000bb7          	lui	x23,0x0
 4d8:	000bac03          	lw	x24,0(x23) # 0 <_Z19tensorlib_copy_implIifEiP11hb_tensor_tS1_>
 4dc:	00495993          	srli	x19,x18,0x4
 4e0:	00198393          	addi	x7,x19,1
 4e4:	038387b3          	mul	x15,x7,x24
 4e8:	00f38cb3          	add	x25,x7,x15
 4ec:	0d996c63          	bltu	x18,x25,5c4 <.L477>

000004f0 <.L398>:
 4f0:	cf97f2e3          	bgeu	x15,x25,1d4 <.L399>
 4f4:	00082903          	lw	x18,0(x16)
 4f8:	0008a883          	lw	x17,0(x17)
 4fc:	40fc8733          	sub	x14,x25,x15
 500:	00291093          	slli	x1,x18,0x2
 504:	00289a93          	slli	x21,x17,0x2
 508:	03578a33          	mul	x20,x15,x21
 50c:	00400493          	li	x9,4
 510:	02f08833          	mul	x16,x1,x15
 514:	014e02b3          	add	x5,x28,x20
 518:	01030333          	add	x6,x6,x16
 51c:	08e4f463          	bgeu	x9,x14,5a4 <.L404>
 520:	ffcc8413          	addi	x8,x25,-4 # fffffffc <.L1103+0xfffff800>
 524:	0887f063          	bgeu	x15,x8,5a4 <.L404>
 528:	00028e13          	mv	x28,x5
 52c:	00389513          	slli	x10,x17,0x3
 530:	00391293          	slli	x5,x18,0x3
 534:	00489b13          	slli	x22,x17,0x4
 538:	00491b93          	slli	x23,x18,0x4
 53c:	005304b3          	add	x9,x6,x5
 540:	00ae0833          	add	x16,x28,x10

00000544 <.L403>:
 544:	00032c03          	lw	x24,0(x6) # 21040000 <.L1103+0x2103f804>
 548:	001305b3          	add	x11,x6,x1
 54c:	0005a983          	lw	x19,0(x11) # fc0000 <.L1103+0xfbf804>
 550:	0004a383          	lw	x7,0(x9)
 554:	001488b3          	add	x17,x9,x1
 558:	0008a903          	lw	x18,0(x17)
 55c:	d00c7153          	fcvt.s.w	f2,x24
 560:	d009f6d3          	fcvt.s.w	f13,x19
 564:	d003f753          	fcvt.s.w	f14,x7
 568:	002e2027          	fsw	f2,0(x28) # 4000000 <.L1103+0x3fff804>
 56c:	015e0733          	add	x14,x28,x21
 570:	d00971d3          	fcvt.s.w	f3,x18
 574:	00d72027          	fsw	f13,0(x14)
 578:	00e82027          	fsw	f14,0(x16)
 57c:	01580a33          	add	x20,x16,x21
 580:	016e02b3          	add	x5,x28,x22
 584:	003a2027          	fsw	f3,0(x20) # 1000000 <.L1103+0xfff804>
 588:	00478793          	addi	x15,x15,4
 58c:	00028e13          	mv	x28,x5
 590:	01730333          	add	x6,x6,x23
 594:	017484b3          	add	x9,x9,x23
 598:	01680833          	add	x16,x16,x22
 59c:	fa87e4e3          	bltu	x15,x8,544 <.L403>
 5a0:	c397fae3          	bgeu	x15,x25,1d4 <.L399>

000005a4 <.L404>:
 5a4:	00032403          	lw	x8,0(x6)
 5a8:	00178793          	addi	x15,x15,1
 5ac:	00130333          	add	x6,x6,x1
 5b0:	d0047253          	fcvt.s.w	f4,x8
 5b4:	0042a027          	fsw	f4,0(x5)
 5b8:	015282b3          	add	x5,x5,x21
 5bc:	ff97e4e3          	bltu	x15,x25,5a4 <.L404>
 5c0:	c15ff06f          	j	1d4 <.L399>

000005c4 <.L477>:
 5c4:	00090c93          	mv	x25,x18
 5c8:	f29ff06f          	j	4f0 <.L398>

000005cc <.L440>:
 5cc:	00030a13          	mv	x20,x6
 5d0:	bf1ff06f          	j	1c0 <.L420>

000005d4 <.L439>:
 5d4:	000e0713          	mv	x14,x28
 5d8:	ba9ff06f          	j	180 <.L418>

000005dc <.L472>:
 5dc:	0043a283          	lw	x5,4(x7) # 3fc0004 <.L1103+0x3fbf808>
 5e0:	0003a083          	lw	x1,0(x7)
 5e4:	ffd00493          	li	x9,-3
 5e8:	021289b3          	mul	x19,x5,x1
 5ec:	fff98913          	addi	x18,x19,-1
 5f0:	bf24e2e3          	bltu	x9,x18,1d4 <.L399>
 5f4:	00000737          	lui	x14,0x0
 5f8:	00072503          	lw	x10,0(x14) # 0 <_Z19tensorlib_copy_implIifEiP11hb_tensor_tS1_>
 5fc:	0049db93          	srli	x23,x19,0x4
 600:	001b8b13          	addi	x22,x23,1
 604:	02ab0533          	mul	x10,x22,x10
 608:	00ab0cb3          	add	x25,x22,x10
 60c:	0b99e663          	bltu	x19,x25,6b8 <.L478>

00000610 <.L412>:
 610:	bd9572e3          	bgeu	x10,x25,1d4 <.L399>
 614:	0048aa83          	lw	x21,4(x17)
 618:	0008aa03          	lw	x20,0(x17)
 61c:	00442403          	lw	x8,4(x8)
 620:	00482083          	lw	x1,4(x16)
 624:	00082483          	lw	x9,0(x16)
 628:	0083a383          	lw	x7,8(x7)

0000062c <.L414>:
 62c:	02557c33          	remu	x24,x10,x5
 630:	025559b3          	divu	x19,x10,x5
 634:	028577b3          	remu	x15,x10,x8
 638:	02855933          	divu	x18,x10,x8
 63c:	03498733          	mul	x14,x19,x20
 640:	035c05b3          	mul	x11,x24,x21
 644:	029909b3          	mul	x19,x18,x9
 648:	00e58b33          	add	x22,x11,x14
 64c:	002b1c13          	slli	x24,x22,0x2
 650:	018e0733          	add	x14,x28,x24
 654:	02178bb3          	mul	x23,x15,x1
 658:	013b87b3          	add	x15,x23,x19
 65c:	00279913          	slli	x18,x15,0x2
 660:	012307b3          	add	x15,x6,x18
 664:	02038a63          	beqz	x7,698 <.L416>
 668:	0088a583          	lw	x11,8(x17)
 66c:	00882b03          	lw	x22,8(x16)
 670:	00000913          	li	x18,0
 674:	00259b93          	slli	x23,x11,0x2
 678:	002b1993          	slli	x19,x22,0x2

0000067c <.L415>:
 67c:	0007ac03          	lw	x24,0(x15)
 680:	00190913          	addi	x18,x18,1
 684:	013787b3          	add	x15,x15,x19
 688:	d00c7053          	fcvt.s.w	f0,x24
 68c:	00072027          	fsw	f0,0(x14)
 690:	01770733          	add	x14,x14,x23
 694:	ff2394e3          	bne	x7,x18,67c <.L415>

00000698 <.L416>:
 698:	00150513          	addi	x10,x10,1
 69c:	f8ac98e3          	bne	x25,x10,62c <.L414>
 6a0:	b35ff06f          	j	1d4 <.L399>

000006a4 <.L473>:
 6a4:	00090093          	mv	x1,x18
 6a8:	a81ff06f          	j	128 <.L417>

000006ac <.L475>:
 6ac:	00028b13          	mv	x22,x5
 6b0:	c56462e3          	bltu	x8,x22,2f4 <.L479>
 6b4:	b21ff06f          	j	1d4 <.L399>

000006b8 <.L478>:
 6b8:	00098c93          	mv	x25,x19
 6bc:	f55ff06f          	j	610 <.L412>

Disassembly of section .text._Z19tensorlib_copy_implIxfEiP11hb_tensor_tS1_:

00000000 <_Z19tensorlib_copy_implIxfEiP11hb_tensor_tS1_>:
   0:	f0010113          	addi	x2,x2,-256
   4:	00050793          	mv	x15,x10
   8:	0e812c23          	sw	x8,248(x2)
   c:	04810513          	addi	x10,x2,72
  10:	00058413          	mv	x8,x11
  14:	00078593          	mv	x11,x15
  18:	0e112e23          	sw	x1,252(x2)
  1c:	0e912a23          	sw	x9,244(x2)
  20:	0f212823          	sw	x18,240(x2)
  24:	0f312623          	sw	x19,236(x2)
  28:	0f412423          	sw	x20,232(x2)
  2c:	0f512223          	sw	x21,228(x2)
  30:	0f612023          	sw	x22,224(x2)
  34:	0d712e23          	sw	x23,220(x2)
  38:	0d812c23          	sw	x24,216(x2)
  3c:	0d912a23          	sw	x25,212(x2)
  40:	0da12823          	sw	x26,208(x2)
  44:	0db12623          	sw	x27,204(x2)
  48:	00000097          	auipc	x1,0x0
  4c:	000080e7          	jalr	x1 # 48 <_Z19tensorlib_copy_implIxfEiP11hb_tensor_tS1_+0x48>
  50:	00040593          	mv	x11,x8
  54:	08410513          	addi	x10,x2,132
  58:	00000097          	auipc	x1,0x0
  5c:	000080e7          	jalr	x1 # 58 <_Z19tensorlib_copy_implIxfEiP11hb_tensor_tS1_+0x58>
  60:	00000b37          	lui	x22,0x0
  64:	00000437          	lui	x8,0x0
  68:	000004b7          	lui	x9,0x0
  6c:	00000737          	lui	x14,0x0
  70:	000b2283          	lw	x5,0(x22) # 0 <_Z19tensorlib_copy_implIxfEiP11hb_tensor_tS1_>
  74:	00042583          	lw	x11,0(x8) # 0 <_Z19tensorlib_copy_implIxfEiP11hb_tensor_tS1_>
  78:	00072303          	lw	x6,0(x14) # 0 <_Z19tensorlib_copy_implIxfEiP11hb_tensor_tS1_>
  7c:	0004a603          	lw	x12,0(x9) # 0 <_Z19tensorlib_copy_implIxfEiP11hb_tensor_tS1_>
  80:	000006b7          	lui	x13,0x0
  84:	0006a383          	lw	x7,0(x13) # 0 <_Z19tensorlib_copy_implIxfEiP11hb_tensor_tS1_>
  88:	00b28533          	add	x10,x5,x11
  8c:	00c30833          	add	x16,x6,x12
  90:	01281913          	slli	x18,x16,0x12
  94:	3f0009b7          	lui	x19,0x3f000
  98:	00fc0ab7          	lui	x21,0xfc0
  9c:	01851893          	slli	x17,x10,0x18
  a0:	00040d37          	lui	x26,0x40
  a4:	0138fa33          	and	x20,x17,x19
  a8:	01597bb3          	and	x23,x18,x21
  ac:	ff0d0d93          	addi	x27,x26,-16 # 3fff0 <.L1103+0x3f7f4>
  b0:	00439c13          	slli	x24,x7,0x4
  b4:	017a6cb3          	or	x25,x20,x23
  b8:	01bc7e33          	and	x28,x24,x27
  bc:	01cceeb3          	or	x29,x25,x28
  c0:	04c12d83          	lw	x27,76(x2)
  c4:	80000f37          	lui	x30,0x80000
  c8:	01eeefb3          	or	x31,x29,x30
  cc:	410017b7          	lui	x15,0x41001
  d0:	d1f7a623          	sw	x31,-756(x15) # 41000d0c <.L1103+0x41000510>
  d4:	00100293          	li	x5,1
  d8:	04812583          	lw	x11,72(x2)
  dc:	05012a83          	lw	x21,80(x2)
  e0:	05812983          	lw	x19,88(x2)
  e4:	08c12a03          	lw	x20,140(x2)
  e8:	09412903          	lw	x18,148(x2)
  ec:	445d8a63          	beq	x27,x5,540 <.L558>
  f0:	00200093          	li	x1,2
  f4:	05412303          	lw	x6,84(x2)
  f8:	201d8663          	beq	x27,x1,304 <.L559>
  fc:	00300713          	li	x14,3
 100:	09012c03          	lw	x24,144(x2)
 104:	5ced8263          	beq	x27,x14,6c8 <.L560>
 108:	fff58613          	addi	x12,x11,-1
 10c:	ffd00693          	li	x13,-3
 110:	0ec6ea63          	bltu	x13,x12,204 <.L487>
 114:	000003b7          	lui	x7,0x0
 118:	0003a503          	lw	x10,0(x7) # 0 <_Z19tensorlib_copy_implIxfEiP11hb_tensor_tS1_>
 11c:	0045d813          	srli	x16,x11,0x4
 120:	00180893          	addi	x17,x16,1
 124:	02a88cb3          	mul	x25,x17,x10
 128:	01988bb3          	add	x23,x17,x25
 12c:	6b75ee63          	bltu	x11,x23,7e8 <.L561>

00000130 <.L505>:
 130:	0d7cfa63          	bgeu	x25,x23,204 <.L487>
 134:	08812e03          	lw	x28,136(x2)
 138:	002d9d13          	slli	x26,x27,0x2
 13c:	01a30eb3          	add	x29,x6,x26
 140:	002e1f13          	slli	x30,x28,0x2
 144:	01ec0fb3          	add	x31,x24,x30
 148:	03c12223          	sw	x28,36(x2)
 14c:	01d12823          	sw	x29,16(x2)
 150:	01f12c23          	sw	x31,24(x2)

00000154 <.L510>:
 154:	560d8663          	beqz	x27,6c0 <.L527>
 158:	000a8393          	mv	x7,x21
 15c:	00030713          	mv	x14,x6
 160:	000c8593          	mv	x11,x25
 164:	00000793          	li	x15,0

00000168 <.L507>:
 168:	00072283          	lw	x5,0(x14)
 16c:	0003a083          	lw	x1,0(x7)
 170:	01012503          	lw	x10,16(x2)
 174:	0255f633          	remu	x12,x11,x5
 178:	00470713          	addi	x14,x14,4
 17c:	00438393          	addi	x7,x7,4
 180:	021606b3          	mul	x13,x12,x1
 184:	0255d5b3          	divu	x11,x11,x5
 188:	00d787b3          	add	x15,x15,x13
 18c:	fce51ee3          	bne	x10,x14,168 <.L507>
 190:	00279813          	slli	x16,x15,0x2
 194:	01098d33          	add	x26,x19,x16

00000198 <.L506>:
 198:	02412883          	lw	x17,36(x2)
 19c:	50088e63          	beqz	x17,6b8 <.L528>
 1a0:	000a0093          	mv	x1,x20
 1a4:	000c0293          	mv	x5,x24
 1a8:	000c8613          	mv	x12,x25
 1ac:	00000393          	li	x7,0

000001b0 <.L509>:
 1b0:	0002af03          	lw	x30,0(x5)
 1b4:	0000af83          	lw	x31,0(x1)
 1b8:	01812683          	lw	x13,24(x2)
 1bc:	00428293          	addi	x5,x5,4
 1c0:	00408093          	addi	x1,x1,4
 1c4:	03e67eb3          	remu	x29,x12,x30
 1c8:	03fe8733          	mul	x14,x29,x31
 1cc:	03e65633          	divu	x12,x12,x30
 1d0:	00e383b3          	add	x7,x7,x14
 1d4:	fc569ee3          	bne	x13,x5,1b0 <.L509>
 1d8:	00339593          	slli	x11,x7,0x3
 1dc:	00b90e33          	add	x28,x18,x11

000001e0 <.L508>:
 1e0:	000e2503          	lw	x10,0(x28)
 1e4:	004e2583          	lw	x11,4(x28)
 1e8:	00612423          	sw	x6,8(x2)
 1ec:	001c8c93          	addi	x25,x25,1
 1f0:	00000097          	auipc	x1,0x0
 1f4:	000080e7          	jalr	x1 # 1f0 <.L508+0x10>
 1f8:	00ad2027          	fsw	f10,0(x26)
 1fc:	00812303          	lw	x6,8(x2)
 200:	f59b9ae3          	bne	x23,x25,154 <.L510>

00000204 <.L487>:
 204:	00000c37          	lui	x24,0x0
 208:	000c2d03          	lw	x26,0(x24) # 0 <_Z19tensorlib_copy_implIxfEiP11hb_tensor_tS1_>
 20c:	000b2b03          	lw	x22,0(x22)
 210:	00042083          	lw	x1,0(x8)
 214:	0004ac83          	lw	x25,0(x9)
 218:	000006b7          	lui	x13,0x0
 21c:	0006a303          	lw	x6,0(x13) # 0 <_Z19tensorlib_copy_implIxfEiP11hb_tensor_tS1_>
 220:	001b08b3          	add	x17,x22,x1
 224:	019d0e33          	add	x28,x26,x25
 228:	01889793          	slli	x15,x17,0x18
 22c:	012e1f13          	slli	x30,x28,0x12
 230:	3f000fb7          	lui	x31,0x3f000
 234:	00fc0eb7          	lui	x29,0xfc0
 238:	00040637          	lui	x12,0x40
 23c:	01f7f2b3          	and	x5,x15,x31
 240:	00431513          	slli	x10,x6,0x4
 244:	01df73b3          	and	x7,x30,x29
 248:	ff060a93          	addi	x21,x12,-16 # 3fff0 <.L1103+0x3f7f4>
 24c:	0072e5b3          	or	x11,x5,x7
 250:	01557833          	and	x16,x10,x21
 254:	0105edb3          	or	x27,x11,x16
 258:	c0000a37          	lui	x20,0xc0000
 25c:	014debb3          	or	x23,x27,x20
 260:	41001737          	lui	x14,0x41001
 264:	d1772623          	sw	x23,-756(x14) # 41000d0c <.L1103+0x41000510>
 268:	0004a903          	lw	x18,0(x9)
 26c:	00042983          	lw	x19,0(x8)
 270:	00000b37          	lui	x22,0x0
 274:	00490093          	addi	x1,x18,4
 278:	000b0793          	mv	x15,x22
 27c:	00178c33          	add	x24,x15,x1
 280:	01899d13          	slli	x26,x19,0x18
 284:	01ac6cb3          	or	x25,x24,x26
 288:	200406b7          	lui	x13,0x20040
 28c:	00dce333          	or	x6,x25,x13
 290:	00100893          	li	x17,1
 294:	01130023          	sb	x17,0(x6)
 298:	0004ae03          	lw	x28,0(x9)
 29c:	151e0263          	beq	x28,x17,3e0 <.L511>

000002a0 <.L522>:
 2a0:	00100413          	li	x8,1
 2a4:	0100006f          	j	2b4 <.L526>

000002a8 <.L562>:
 2a8:	000b0613          	mv	x12,x22
 2ac:	14062aaf          	lr.w.aq	x21,(x12)
 2b0:	008a8863          	beq	x21,x8,2c0 <.L525>

000002b4 <.L526>:
 2b4:	000b0393          	mv	x7,x22
 2b8:	1003a52f          	lr.w	x10,(x7)
 2bc:	fe8516e3          	bne	x10,x8,2a8 <.L562>

000002c0 <.L525>:
 2c0:	0fc12083          	lw	x1,252(x2)
 2c4:	0f812403          	lw	x8,248(x2)
 2c8:	0007a023          	sw	x0,0(x15)
 2cc:	0f412483          	lw	x9,244(x2)
 2d0:	0f012903          	lw	x18,240(x2)
 2d4:	0ec12983          	lw	x19,236(x2)
 2d8:	0e812a03          	lw	x20,232(x2)
 2dc:	0e412a83          	lw	x21,228(x2)
 2e0:	0e012b03          	lw	x22,224(x2)
 2e4:	0dc12b83          	lw	x23,220(x2)
 2e8:	0d812c03          	lw	x24,216(x2)
 2ec:	0d412c83          	lw	x25,212(x2)
 2f0:	0d012d03          	lw	x26,208(x2)
 2f4:	0cc12d83          	lw	x27,204(x2)
 2f8:	00000513          	li	x10,0
 2fc:	10010113          	addi	x2,x2,256
 300:	00008067          	ret

00000304 <.L559>:
 304:	00032d03          	lw	x26,0(x6)
 308:	ffd00c93          	li	x25,-3
 30c:	fffd0c13          	addi	x24,x26,-1
 310:	ef8ceae3          	bltu	x25,x24,204 <.L487>
 314:	000008b7          	lui	x17,0x0
 318:	0008ae03          	lw	x28,0(x17) # 0 <_Z19tensorlib_copy_implIxfEiP11hb_tensor_tS1_>
 31c:	004d5f13          	srli	x30,x26,0x4
 320:	001f0f93          	addi	x31,x30,1 # 80000001 <.L1103+0x7ffff805>
 324:	03cf8bb3          	mul	x23,x31,x28
 328:	017f82b3          	add	x5,x31,x23
 32c:	00512c23          	sw	x5,24(x2)
 330:	4c5d6063          	bltu	x26,x5,7f0 <.L563>

00000334 <.L494>:
 334:	01812e83          	lw	x29,24(x2)
 338:	eddbf6e3          	bgeu	x23,x29,204 <.L487>
 33c:	000a2083          	lw	x1,0(x20) # c0000000 <.L1103+0xbffff804>
 340:	000aa603          	lw	x12,0(x21) # fc0000 <.L1103+0xfbf804>
 344:	00432503          	lw	x10,4(x6)
 348:	00309393          	slli	x7,x1,0x3
 34c:	00261713          	slli	x14,x12,0x2
 350:	027b85b3          	mul	x11,x23,x7
 354:	02712423          	sw	x7,40(x2)
 358:	02e12223          	sw	x14,36(x2)
 35c:	02eb86b3          	mul	x13,x23,x14
 360:	00b90cb3          	add	x25,x18,x11
 364:	00d98c33          	add	x24,x19,x13

00000368 <.L496>:
 368:	000c8793          	mv	x15,x25
 36c:	04050a63          	beqz	x10,3c0 <.L498>
 370:	004aa903          	lw	x18,4(x21)
 374:	004a2803          	lw	x16,4(x20)
 378:	000c0993          	mv	x19,x24
 37c:	00291913          	slli	x18,x18,0x2
 380:	00381d93          	slli	x27,x16,0x3
 384:	00000d13          	li	x26,0

00000388 <.L497>:
 388:	0047a583          	lw	x11,4(x15)
 38c:	00a12823          	sw	x10,16(x2)
 390:	0007a503          	lw	x10,0(x15)
 394:	01b78333          	add	x6,x15,x27
 398:	00612423          	sw	x6,8(x2)
 39c:	02612623          	sw	x6,44(x2)
 3a0:	00000097          	auipc	x1,0x0
 3a4:	000080e7          	jalr	x1 # 3a0 <.L497+0x18>
 3a8:	01012503          	lw	x10,16(x2)
 3ac:	00a9a027          	fsw	f10,0(x19) # 3f000000 <.L1103+0x3efff804>
 3b0:	001d0d13          	addi	x26,x26,1
 3b4:	00812783          	lw	x15,8(x2)
 3b8:	012989b3          	add	x19,x19,x18
 3bc:	fda516e3          	bne	x10,x26,388 <.L497>

000003c0 <.L498>:
 3c0:	02812883          	lw	x17,40(x2)
 3c4:	02412e03          	lw	x28,36(x2)
 3c8:	01812f03          	lw	x30,24(x2)
 3cc:	001b8b93          	addi	x23,x23,1
 3d0:	011c8cb3          	add	x25,x25,x17
 3d4:	01cc0c33          	add	x24,x24,x28
 3d8:	f97f18e3          	bne	x30,x23,368 <.L496>
 3dc:	e29ff06f          	j	204 <.L487>

000003e0 <.L511>:
 3e0:	0047cf03          	lbu	x30,4(x15)
 3e4:	0fff7f93          	andi	x31,x30,255
 3e8:	fe0f8ce3          	beqz	x31,3e0 <.L511>
 3ec:	0057c283          	lbu	x5,5(x15)
 3f0:	0ff2fe93          	andi	x29,x5,255
 3f4:	fe0e86e3          	beqz	x29,3e0 <.L511>
 3f8:	0067c383          	lbu	x7,6(x15)
 3fc:	0ff3f513          	andi	x10,x7,255
 400:	fe0500e3          	beqz	x10,3e0 <.L511>
 404:	0077c583          	lbu	x11,7(x15)
 408:	0ff5f613          	andi	x12,x11,255
 40c:	fc060ae3          	beqz	x12,3e0 <.L511>
 410:	00042a83          	lw	x21,0(x8)
 414:	21040bb7          	lui	x23,0x21040
 418:	00100813          	li	x16,1
 41c:	00ca8d93          	addi	x27,x21,12
 420:	01b78a33          	add	x20,x15,x27
 424:	017a6733          	or	x14,x20,x23
 428:	01070023          	sb	x16,0(x14)
 42c:	0004a903          	lw	x18,0(x9)
 430:	e70918e3          	bne	x18,x16,2a0 <.L522>
 434:	00042b83          	lw	x23,0(x8)
 438:	072b8c63          	beq	x23,x18,4b0 <.L516>

0000043c <.L521>:
 43c:	00100493          	li	x9,1
 440:	0100006f          	j	450 <.L515>

00000444 <.L564>:
 444:	00878993          	addi	x19,x15,8
 448:	1409a0af          	lr.w.aq	x1,(x19)
 44c:	00908863          	beq	x1,x9,45c <.L523>

00000450 <.L515>:
 450:	00878713          	addi	x14,x15,8
 454:	1007292f          	lr.w	x18,(x14)
 458:	fe9916e3          	bne	x18,x9,444 <.L564>

0000045c <.L523>:
 45c:	0007a423          	sw	x0,8(x15)
 460:	00078223          	sb	x0,4(x15)
 464:	000782a3          	sb	x0,5(x15)
 468:	00078323          	sb	x0,6(x15)
 46c:	000783a3          	sb	x0,7(x15)
 470:	0007a023          	sw	x0,0(x15)
 474:	00000e13          	li	x28,0
 478:	000b0793          	mv	x15,x22
 47c:	20000c37          	lui	x24,0x20000
 480:	00100d13          	li	x26,1
 484:	00040cb7          	lui	x25,0x40
 488:	001006b7          	lui	x13,0x100

0000048c <.L524>:
 48c:	00042303          	lw	x6,0(x8)
 490:	01c7e8b3          	or	x17,x15,x28
 494:	019e0e33          	add	x28,x28,x25
 498:	01831f13          	slli	x30,x6,0x18
 49c:	011f6fb3          	or	x31,x30,x17
 4a0:	018fe2b3          	or	x5,x31,x24
 4a4:	01a2a023          	sw	x26,0(x5)
 4a8:	fede12e3          	bne	x28,x13,48c <.L524>
 4ac:	df5ff06f          	j	2a0 <.L522>

000004b0 <.L516>:
 4b0:	00c7c983          	lbu	x19,12(x15)
 4b4:	0ff9f093          	andi	x1,x19,255
 4b8:	fe008ce3          	beqz	x1,4b0 <.L516>
 4bc:	00d7cc03          	lbu	x24,13(x15)
 4c0:	0ffc7d13          	andi	x26,x24,255
 4c4:	fe0d06e3          	beqz	x26,4b0 <.L516>
 4c8:	00e7cc83          	lbu	x25,14(x15)
 4cc:	0ffcf693          	andi	x13,x25,255
 4d0:	fe0680e3          	beqz	x13,4b0 <.L516>
 4d4:	00f7c303          	lbu	x6,15(x15)
 4d8:	0ff37893          	andi	x17,x6,255
 4dc:	fc088ae3          	beqz	x17,4b0 <.L516>
 4e0:	00078623          	sb	x0,12(x15)
 4e4:	000786a3          	sb	x0,13(x15)
 4e8:	00078723          	sb	x0,14(x15)
 4ec:	000787a3          	sb	x0,15(x15)
 4f0:	00000e37          	lui	x28,0x0
 4f4:	0007a423          	sw	x0,8(x15)
 4f8:	00000593          	li	x11,0
 4fc:	008e0f13          	addi	x30,x28,8 # 8 <_Z19tensorlib_copy_implIxfEiP11hb_tensor_tS1_+0x8>
 500:	03fc0fb7          	lui	x31,0x3fc0
 504:	200002b7          	lui	x5,0x20000
 508:	00100393          	li	x7,1
 50c:	01000537          	lui	x10,0x1000
 510:	04000637          	lui	x12,0x4000

00000514 <.L520>:
 514:	012b9a93          	slli	x21,x23,0x12
 518:	00bf6eb3          	or	x29,x30,x11
 51c:	01faf833          	and	x16,x21,x31
 520:	01d86db3          	or	x27,x16,x29
 524:	005dea33          	or	x20,x27,x5
 528:	007a2023          	sw	x7,0(x20)
 52c:	00a585b3          	add	x11,x11,x10
 530:	0004ab83          	lw	x23,0(x9)
 534:	fec590e3          	bne	x11,x12,514 <.L520>
 538:	f07b82e3          	beq	x23,x7,43c <.L521>
 53c:	d65ff06f          	j	2a0 <.L522>

00000540 <.L558>:
 540:	fff58f93          	addi	x31,x11,-1
 544:	ffd00293          	li	x5,-3
 548:	cbf2eee3          	bltu	x5,x31,204 <.L487>
 54c:	00000eb7          	lui	x29,0x0
 550:	000ea083          	lw	x1,0(x29) # 0 <_Z19tensorlib_copy_implIxfEiP11hb_tensor_tS1_>
 554:	0045d613          	srli	x12,x11,0x4
 558:	00160393          	addi	x7,x12,1 # 4000001 <.L1103+0x3fff805>
 55c:	02138bb3          	mul	x23,x7,x1
 560:	01738c33          	add	x24,x7,x23
 564:	1585e663          	bltu	x11,x24,6b0 <.L565>

00000568 <.L486>:
 568:	c98bfee3          	bgeu	x23,x24,204 <.L487>
 56c:	000aa583          	lw	x11,0(x21)
 570:	000a2a03          	lw	x20,0(x20)
 574:	417c0ab3          	sub	x21,x24,x23
 578:	00259d13          	slli	x26,x11,0x2
 57c:	003a1c93          	slli	x25,x20,0x3
 580:	03ab8833          	mul	x16,x23,x26
 584:	00400713          	li	x14,4
 588:	037c86b3          	mul	x13,x25,x23
 58c:	010989b3          	add	x19,x19,x16
 590:	00d90933          	add	x18,x18,x13
 594:	0f577a63          	bgeu	x14,x21,688 <.L492>
 598:	ffcc0d93          	addi	x27,x24,-4 # 1ffffffc <.L1103+0x1ffff800>
 59c:	03b12623          	sw	x27,44(x2)
 5a0:	0fbbf463          	bgeu	x23,x27,688 <.L492>
 5a4:	00098a93          	mv	x21,x19
 5a8:	00359313          	slli	x6,x11,0x3
 5ac:	004a1993          	slli	x19,x20,0x4
 5b0:	005a1813          	slli	x16,x20,0x5
 5b4:	00459613          	slli	x12,x11,0x4
 5b8:	01390db3          	add	x27,x18,x19
 5bc:	006a8a33          	add	x20,x21,x6

000005c0 <.L491>:
 5c0:	019908b3          	add	x17,x18,x25
 5c4:	019d87b3          	add	x15,x27,x25
 5c8:	0008ae03          	lw	x28,0(x17)
 5cc:	0048af03          	lw	x30,4(x17)
 5d0:	0007af83          	lw	x31,0(x15)
 5d4:	0047a283          	lw	x5,4(x15)
 5d8:	00092503          	lw	x10,0(x18)
 5dc:	00492583          	lw	x11,4(x18)
 5e0:	02c12423          	sw	x12,40(x2)
 5e4:	03012223          	sw	x16,36(x2)
 5e8:	01c12c23          	sw	x28,24(x2)
 5ec:	01e12e23          	sw	x30,28(x2)
 5f0:	01f12823          	sw	x31,16(x2)
 5f4:	00512a23          	sw	x5,20(x2)
 5f8:	00000097          	auipc	x1,0x0
 5fc:	000080e7          	jalr	x1 # 5f8 <.L491+0x38>
 600:	000da503          	lw	x10,0(x27)
 604:	004dae83          	lw	x29,4(x27)
 608:	01c12583          	lw	x11,28(x2)
 60c:	00a12423          	sw	x10,8(x2)
 610:	01812503          	lw	x10,24(x2)
 614:	00aaa027          	fsw	f10,0(x21)
 618:	01d12623          	sw	x29,12(x2)
 61c:	00000097          	auipc	x1,0x0
 620:	000080e7          	jalr	x1 # 61c <.L491+0x5c>
 624:	00812503          	lw	x10,8(x2)
 628:	00c12583          	lw	x11,12(x2)
 62c:	01aa83b3          	add	x7,x21,x26
 630:	00a3a027          	fsw	f10,0(x7)
 634:	00000097          	auipc	x1,0x0
 638:	000080e7          	jalr	x1 # 634 <.L491+0x74>
 63c:	01012503          	lw	x10,16(x2)
 640:	01412583          	lw	x11,20(x2)
 644:	00aa2027          	fsw	f10,0(x20)
 648:	000a8993          	mv	x19,x21
 64c:	00000097          	auipc	x1,0x0
 650:	000080e7          	jalr	x1 # 64c <.L491+0x8c>
 654:	02812603          	lw	x12,40(x2)
 658:	02412803          	lw	x16,36(x2)
 65c:	02c12703          	lw	x14,44(x2)
 660:	01aa0ab3          	add	x21,x20,x26
 664:	00c989b3          	add	x19,x19,x12
 668:	00aaa027          	fsw	f10,0(x21)
 66c:	004b8b93          	addi	x23,x23,4 # 21040004 <.L1103+0x2103f808>
 670:	00098a93          	mv	x21,x19
 674:	01090933          	add	x18,x18,x16
 678:	010d8db3          	add	x27,x27,x16
 67c:	00ca0a33          	add	x20,x20,x12
 680:	f4ebe0e3          	bltu	x23,x14,5c0 <.L491>
 684:	b98bf0e3          	bgeu	x23,x24,204 <.L487>

00000688 <.L492>:
 688:	00092503          	lw	x10,0(x18)
 68c:	00492583          	lw	x11,4(x18)
 690:	001b8b93          	addi	x23,x23,1
 694:	01990933          	add	x18,x18,x25
 698:	00000097          	auipc	x1,0x0
 69c:	000080e7          	jalr	x1 # 698 <.L492+0x10>
 6a0:	00a9a027          	fsw	f10,0(x19)
 6a4:	01a989b3          	add	x19,x19,x26
 6a8:	ff8be0e3          	bltu	x23,x24,688 <.L492>
 6ac:	b59ff06f          	j	204 <.L487>

000006b0 <.L565>:
 6b0:	00058c13          	mv	x24,x11
 6b4:	eb5ff06f          	j	568 <.L486>

000006b8 <.L528>:
 6b8:	00090e13          	mv	x28,x18
 6bc:	b25ff06f          	j	1e0 <.L508>

000006c0 <.L527>:
 6c0:	00098d13          	mv	x26,x19
 6c4:	ad5ff06f          	j	198 <.L506>

000006c8 <.L560>:
 6c8:	00432d03          	lw	x26,4(x6)
 6cc:	00032d83          	lw	x27,0(x6)
 6d0:	ffd00b93          	li	x23,-3
 6d4:	03bd07b3          	mul	x15,x26,x27
 6d8:	fff78513          	addi	x10,x15,-1
 6dc:	b2abe4e3          	bltu	x23,x10,204 <.L487>
 6e0:	00000837          	lui	x16,0x0
 6e4:	00082883          	lw	x17,0(x16) # 0 <_Z19tensorlib_copy_implIxfEiP11hb_tensor_tS1_>
 6e8:	0047de13          	srli	x28,x15,0x4
 6ec:	001e0f13          	addi	x30,x28,1
 6f0:	031f0db3          	mul	x27,x30,x17
 6f4:	01bf0fb3          	add	x31,x30,x27
 6f8:	03f12423          	sw	x31,40(x2)
 6fc:	0ff7ee63          	bltu	x15,x31,7f8 <.L566>

00000700 <.L500>:
 700:	02812283          	lw	x5,40(x2)
 704:	b05df0e3          	bgeu	x27,x5,204 <.L487>
 708:	004c2c83          	lw	x25,4(x24)
 70c:	004a2c03          	lw	x24,4(x20)
 710:	004aae83          	lw	x29,4(x21)
 714:	000aa083          	lw	x1,0(x21)
 718:	000a2703          	lw	x14,0(x20)
 71c:	03812a23          	sw	x24,52(x2)
 720:	00832c03          	lw	x24,8(x6)
 724:	03d12623          	sw	x29,44(x2)
 728:	02112823          	sw	x1,48(x2)
 72c:	02e12c23          	sw	x14,56(x2)

00000730 <.L502>:
 730:	03adf633          	remu	x12,x27,x26
 734:	02c12683          	lw	x13,44(x2)
 738:	03012783          	lw	x15,48(x2)
 73c:	03412803          	lw	x16,52(x2)
 740:	03812f83          	lw	x31,56(x2)
 744:	03add3b3          	divu	x7,x27,x26
 748:	039df333          	remu	x6,x27,x25
 74c:	039dd5b3          	divu	x11,x27,x25
 750:	02d60bb3          	mul	x23,x12,x13
 754:	02f38533          	mul	x10,x7,x15
 758:	030308b3          	mul	x17,x6,x16
 75c:	00ab8e33          	add	x28,x23,x10
 760:	002e1f13          	slli	x30,x28,0x2
 764:	01e986b3          	add	x13,x19,x30
 768:	03f582b3          	mul	x5,x11,x31
 76c:	00588eb3          	add	x29,x17,x5
 770:	003e9093          	slli	x1,x29,0x3
 774:	001907b3          	add	x15,x18,x1
 778:	060c0063          	beqz	x24,7d8 <.L504>
 77c:	008aa603          	lw	x12,8(x21)
 780:	008a2383          	lw	x7,8(x20)
 784:	00000b93          	li	x23,0
 788:	00261593          	slli	x11,x12,0x2
 78c:	00339813          	slli	x16,x7,0x3

00000790 <.L503>:
 790:	0007a503          	lw	x10,0(x15)
 794:	00b12c23          	sw	x11,24(x2)
 798:	0047a583          	lw	x11,4(x15)
 79c:	01078733          	add	x14,x15,x16
 7a0:	02d12223          	sw	x13,36(x2)
 7a4:	01012823          	sw	x16,16(x2)
 7a8:	00e12423          	sw	x14,8(x2)
 7ac:	02e12e23          	sw	x14,60(x2)
 7b0:	00000097          	auipc	x1,0x0
 7b4:	000080e7          	jalr	x1 # 7b0 <.L503+0x20>
 7b8:	02412303          	lw	x6,36(x2)
 7bc:	01812583          	lw	x11,24(x2)
 7c0:	001b8b93          	addi	x23,x23,1
 7c4:	00a32027          	fsw	f10,0(x6)
 7c8:	00812783          	lw	x15,8(x2)
 7cc:	01012803          	lw	x16,16(x2)
 7d0:	00b306b3          	add	x13,x6,x11
 7d4:	fb7c1ee3          	bne	x24,x23,790 <.L503>

000007d8 <.L504>:
 7d8:	02812503          	lw	x10,40(x2)
 7dc:	001d8d93          	addi	x27,x27,1
 7e0:	f5b518e3          	bne	x10,x27,730 <.L502>
 7e4:	a21ff06f          	j	204 <.L487>

000007e8 <.L561>:
 7e8:	00058b93          	mv	x23,x11
 7ec:	945ff06f          	j	130 <.L505>

000007f0 <.L563>:
 7f0:	01a12c23          	sw	x26,24(x2)
 7f4:	b41ff06f          	j	334 <.L494>

000007f8 <.L566>:
 7f8:	02f12423          	sw	x15,40(x2)
 7fc:	f05ff06f          	j	700 <.L500>

Disassembly of section .text._Z19tensorlib_copy_implIfiEiP11hb_tensor_tS1_:

00000000 <_Z19tensorlib_copy_implIfiEiP11hb_tensor_tS1_>:
   0:	f5010113          	addi	x2,x2,-176
   4:	00050793          	mv	x15,x10
   8:	0a812423          	sw	x8,168(x2)
   c:	00810513          	addi	x10,x2,8
  10:	00058413          	mv	x8,x11
  14:	00078593          	mv	x11,x15
  18:	0a112623          	sw	x1,172(x2)
  1c:	0a912223          	sw	x9,164(x2)
  20:	0b212023          	sw	x18,160(x2)
  24:	09312e23          	sw	x19,156(x2)
  28:	09412c23          	sw	x20,152(x2)
  2c:	09512a23          	sw	x21,148(x2)
  30:	09612823          	sw	x22,144(x2)
  34:	09712623          	sw	x23,140(x2)
  38:	09812423          	sw	x24,136(x2)
  3c:	09912223          	sw	x25,132(x2)
  40:	00000097          	auipc	x1,0x0
  44:	000080e7          	jalr	x1 # 40 <_Z19tensorlib_copy_implIfiEiP11hb_tensor_tS1_+0x40>
  48:	00040593          	mv	x11,x8
  4c:	04410513          	addi	x10,x2,68
  50:	00000097          	auipc	x1,0x0
  54:	000080e7          	jalr	x1 # 50 <_Z19tensorlib_copy_implIfiEiP11hb_tensor_tS1_+0x50>
  58:	00000f37          	lui	x30,0x0
  5c:	000006b7          	lui	x13,0x0
  60:	00000eb7          	lui	x29,0x0
  64:	00000637          	lui	x12,0x0
  68:	000f2283          	lw	x5,0(x30) # 0 <_Z19tensorlib_copy_implIfiEiP11hb_tensor_tS1_>
  6c:	0006a803          	lw	x16,0(x13) # 0 <_Z19tensorlib_copy_implIfiEiP11hb_tensor_tS1_>
  70:	000ea703          	lw	x14,0(x29) # 0 <_Z19tensorlib_copy_implIfiEiP11hb_tensor_tS1_>
  74:	00062503          	lw	x10,0(x12) # 0 <_Z19tensorlib_copy_implIfiEiP11hb_tensor_tS1_>
  78:	00000fb7          	lui	x31,0x0
  7c:	000fa583          	lw	x11,0(x31) # 0 <_Z19tensorlib_copy_implIfiEiP11hb_tensor_tS1_>
  80:	01028333          	add	x6,x5,x16
  84:	00a703b3          	add	x7,x14,x10
  88:	01831493          	slli	x9,x6,0x18
  8c:	01239893          	slli	x17,x7,0x12
  90:	3f000937          	lui	x18,0x3f000
  94:	00fc0a37          	lui	x20,0xfc0
  98:	00040c37          	lui	x24,0x40
  9c:	0124f9b3          	and	x19,x9,x18
  a0:	0148fab3          	and	x21,x17,x20
  a4:	00459b13          	slli	x22,x11,0x4
  a8:	ff0c0c93          	addi	x25,x24,-16 # 3fff0 <.L1103+0x3f7f4>
  ac:	019b7e33          	and	x28,x22,x25
  b0:	0159ebb3          	or	x23,x19,x21
  b4:	01cbe7b3          	or	x15,x23,x28
  b8:	00c12283          	lw	x5,12(x2)
  bc:	80000437          	lui	x8,0x80000
  c0:	0087e833          	or	x16,x15,x8
  c4:	41001737          	lui	x14,0x41001
  c8:	d1072623          	sw	x16,-756(x14) # 41000d0c <.L1103+0x41000510>
  cc:	00100513          	li	x10,1
  d0:	00812903          	lw	x18,8(x2)
  d4:	01012883          	lw	x17,16(x2)
  d8:	01812e03          	lw	x28,24(x2)
  dc:	04c12803          	lw	x16,76(x2)
  e0:	05412303          	lw	x6,84(x2)
  e4:	3ea28263          	beq	x5,x10,4c8 <.L645>
  e8:	00200093          	li	x1,2
  ec:	01412383          	lw	x7,20(x2)
  f0:	1c128a63          	beq	x5,x1,2c4 <.L646>
  f4:	00300593          	li	x11,3
  f8:	05012403          	lw	x8,80(x2)
  fc:	4eb28063          	beq	x5,x11,5dc <.L647>
 100:	fff90493          	addi	x9,x18,-1 # 3effffff <.L1103+0x3efff803>
 104:	ffd00993          	li	x19,-3
 108:	0c99e663          	bltu	x19,x9,1d4 <.L574>
 10c:	00000a37          	lui	x20,0x0
 110:	000a2a83          	lw	x21,0(x20) # 0 <_Z19tensorlib_copy_implIfiEiP11hb_tensor_tS1_>
 114:	00495b13          	srli	x22,x18,0x4
 118:	001b0b93          	addi	x23,x22,1 # 1 <_Z19tensorlib_copy_implIfiEiP11hb_tensor_tS1_+0x1>
 11c:	035b85b3          	mul	x11,x23,x21
 120:	00bb80b3          	add	x1,x23,x11
 124:	58196063          	bltu	x18,x1,6a4 <.L648>

00000128 <.L592>:
 128:	0a15f663          	bgeu	x11,x1,1d4 <.L574>
 12c:	04812483          	lw	x9,72(x2)
 130:	00229c13          	slli	x24,x5,0x2
 134:	018389b3          	add	x19,x7,x24
 138:	00249c93          	slli	x25,x9,0x2
 13c:	01940933          	add	x18,x8,x25

00000140 <.L597>:
 140:	48028a63          	beqz	x5,5d4 <.L614>
 144:	00088a93          	mv	x21,x17
 148:	00038c13          	mv	x24,x7
 14c:	00058513          	mv	x10,x11
 150:	00000793          	li	x15,0

00000154 <.L594>:
 154:	000c2a03          	lw	x20,0(x24)
 158:	000aab83          	lw	x23,0(x21)
 15c:	004c0c13          	addi	x24,x24,4
 160:	03457b33          	remu	x22,x10,x20
 164:	004a8a93          	addi	x21,x21,4
 168:	037b0cb3          	mul	x25,x22,x23
 16c:	03455533          	divu	x10,x10,x20
 170:	019787b3          	add	x15,x15,x25
 174:	ff8990e3          	bne	x19,x24,154 <.L594>
 178:	00279713          	slli	x14,x15,0x2
 17c:	00ee0733          	add	x14,x28,x14

00000180 <.L593>:
 180:	44048663          	beqz	x9,5cc <.L615>
 184:	00080b13          	mv	x22,x16
 188:	00040513          	mv	x10,x8
 18c:	00058a93          	mv	x21,x11
 190:	00000793          	li	x15,0

00000194 <.L596>:
 194:	00052c03          	lw	x24,0(x10) # 1000000 <.L1103+0xfff804>
 198:	000b2c83          	lw	x25,0(x22)
 19c:	00450513          	addi	x10,x10,4
 1a0:	004b0b13          	addi	x22,x22,4
 1a4:	038afbb3          	remu	x23,x21,x24
 1a8:	039b8a33          	mul	x20,x23,x25
 1ac:	038adab3          	divu	x21,x21,x24
 1b0:	014787b3          	add	x15,x15,x20
 1b4:	fea910e3          	bne	x18,x10,194 <.L596>
 1b8:	00279c13          	slli	x24,x15,0x2
 1bc:	01830a33          	add	x20,x6,x24

000001c0 <.L595>:
 1c0:	000a2787          	flw	f15,0(x20)
 1c4:	00158593          	addi	x11,x11,1
 1c8:	c0079cd3          	fcvt.w.s	x25,f15,rtz
 1cc:	01972023          	sw	x25,0(x14)
 1d0:	f6b098e3          	bne	x1,x11,140 <.L597>

000001d4 <.L574>:
 1d4:	000f2f03          	lw	x30,0(x30)
 1d8:	0006ac83          	lw	x25,0(x13)
 1dc:	000eae83          	lw	x29,0(x29)
 1e0:	00062083          	lw	x1,0(x12)
 1e4:	000faf83          	lw	x31,0(x31)
 1e8:	019f02b3          	add	x5,x30,x25
 1ec:	001e8b33          	add	x22,x29,x1
 1f0:	01829b93          	slli	x23,x5,0x18
 1f4:	012b1493          	slli	x9,x22,0x12
 1f8:	3f000c37          	lui	x24,0x3f000
 1fc:	00fc03b7          	lui	x7,0xfc0
 200:	00040737          	lui	x14,0x40
 204:	018bf9b3          	and	x19,x23,x24
 208:	0074f8b3          	and	x17,x9,x7
 20c:	004f9a93          	slli	x21,x31,0x4
 210:	ff070a13          	addi	x20,x14,-16 # 3fff0 <.L1103+0x3f7f4>
 214:	0119e933          	or	x18,x19,x17
 218:	014afe33          	and	x28,x21,x20
 21c:	01c96833          	or	x16,x18,x28
 220:	c00005b7          	lui	x11,0xc0000
 224:	00b867b3          	or	x15,x16,x11
 228:	41001337          	lui	x6,0x41001
 22c:	d0f32623          	sw	x15,-756(x6) # 41000d0c <.L1103+0x41000510>
 230:	00062403          	lw	x8,0(x12)
 234:	0006a503          	lw	x10,0(x13)
 238:	00000cb7          	lui	x25,0x0
 23c:	00440f13          	addi	x30,x8,4 # 80000004 <.L1103+0x7ffff808>
 240:	000c8793          	mv	x15,x25
 244:	01e78eb3          	add	x29,x15,x30
 248:	01851093          	slli	x1,x10,0x18
 24c:	001eefb3          	or	x31,x29,x1
 250:	200402b7          	lui	x5,0x20040
 254:	005feb33          	or	x22,x31,x5
 258:	00100b93          	li	x23,1
 25c:	017b0023          	sb	x23,0(x22)
 260:	00062483          	lw	x9,0(x12)
 264:	11748263          	beq	x9,x23,368 <.L598>

00000268 <.L609>:
 268:	00100a13          	li	x20,1
 26c:	0100006f          	j	27c <.L613>

00000270 <.L649>:
 270:	000c8593          	mv	x11,x25
 274:	1405a32f          	lr.w.aq	x6,(x11)
 278:	01430863          	beq	x6,x20,288 <.L612>

0000027c <.L613>:
 27c:	000c8693          	mv	x13,x25
 280:	1006ae2f          	lr.w	x28,(x13)
 284:	ff4e16e3          	bne	x28,x20,270 <.L649>

00000288 <.L612>:
 288:	0ac12083          	lw	x1,172(x2)
 28c:	0a812403          	lw	x8,168(x2)
 290:	0007a023          	sw	x0,0(x15)
 294:	0a412483          	lw	x9,164(x2)
 298:	0a012903          	lw	x18,160(x2)
 29c:	09c12983          	lw	x19,156(x2)
 2a0:	09812a03          	lw	x20,152(x2)
 2a4:	09412a83          	lw	x21,148(x2)
 2a8:	09012b03          	lw	x22,144(x2)
 2ac:	08c12b83          	lw	x23,140(x2)
 2b0:	08812c03          	lw	x24,136(x2)
 2b4:	08412c83          	lw	x25,132(x2)
 2b8:	00000513          	li	x10,0
 2bc:	0b010113          	addi	x2,x2,176
 2c0:	00008067          	ret

000002c4 <.L646>:
 2c4:	0003a283          	lw	x5,0(x7) # fc0000 <.L1103+0xfbf804>
 2c8:	ffd00c93          	li	x25,-3
 2cc:	fff28a93          	addi	x21,x5,-1 # 2003ffff <.L1103+0x2003f803>
 2d0:	f15ce2e3          	bltu	x25,x21,1d4 <.L574>
 2d4:	00000a37          	lui	x20,0x0
 2d8:	000a2403          	lw	x8,0(x20) # 0 <_Z19tensorlib_copy_implIfiEiP11hb_tensor_tS1_>
 2dc:	0042d093          	srli	x1,x5,0x4
 2e0:	00108493          	addi	x9,x1,1
 2e4:	02848433          	mul	x8,x9,x8
 2e8:	00848b33          	add	x22,x9,x8
 2ec:	3d62e063          	bltu	x5,x22,6ac <.L650>
 2f0:	ef6472e3          	bgeu	x8,x22,1d4 <.L574>

000002f4 <.L654>:
 2f4:	00082583          	lw	x11,0(x16)
 2f8:	0008ab83          	lw	x23,0(x17)
 2fc:	0043a903          	lw	x18,4(x7)
 300:	00259c13          	slli	x24,x11,0x2
 304:	002b9993          	slli	x19,x23,0x2
 308:	038403b3          	mul	x7,x8,x24
 30c:	033407b3          	mul	x15,x8,x19
 310:	00730333          	add	x6,x6,x7
 314:	00fe0e33          	add	x28,x28,x15

00000318 <.L583>:
 318:	00030293          	mv	x5,x6
 31c:	02090c63          	beqz	x18,354 <.L585>
 320:	0048ac83          	lw	x25,4(x17)
 324:	00482703          	lw	x14,4(x16)
 328:	000e0513          	mv	x10,x28
 32c:	002c9a93          	slli	x21,x25,0x2
 330:	00271a13          	slli	x20,x14,0x2
 334:	00000093          	li	x1,0

00000338 <.L584>:
 338:	0002a087          	flw	f1,0(x5)
 33c:	00108093          	addi	x1,x1,1
 340:	014282b3          	add	x5,x5,x20
 344:	c00094d3          	fcvt.w.s	x9,f1,rtz
 348:	00952023          	sw	x9,0(x10)
 34c:	01550533          	add	x10,x10,x21
 350:	fe1914e3          	bne	x18,x1,338 <.L584>

00000354 <.L585>:
 354:	00140413          	addi	x8,x8,1
 358:	01830333          	add	x6,x6,x24
 35c:	013e0e33          	add	x28,x28,x19
 360:	fa8b1ce3          	bne	x22,x8,318 <.L583>
 364:	e71ff06f          	j	1d4 <.L574>

00000368 <.L598>:
 368:	0047cc03          	lbu	x24,4(x15)
 36c:	0ffc7993          	andi	x19,x24,255
 370:	fe098ce3          	beqz	x19,368 <.L598>
 374:	0057c383          	lbu	x7,5(x15)
 378:	0ff3f893          	andi	x17,x7,255
 37c:	fe0886e3          	beqz	x17,368 <.L598>
 380:	0067ca83          	lbu	x21,6(x15)
 384:	0ffaf913          	andi	x18,x21,255
 388:	fe0900e3          	beqz	x18,368 <.L598>
 38c:	0077c703          	lbu	x14,7(x15)
 390:	0ff77a13          	andi	x20,x14,255
 394:	fc0a0ae3          	beqz	x20,368 <.L598>
 398:	0006ae03          	lw	x28,0(x13)
 39c:	21040437          	lui	x8,0x21040
 3a0:	00100593          	li	x11,1
 3a4:	00ce0813          	addi	x16,x28,12
 3a8:	01078333          	add	x6,x15,x16
 3ac:	00836533          	or	x10,x6,x8
 3b0:	00b50023          	sb	x11,0(x10)
 3b4:	00062f03          	lw	x30,0(x12)
 3b8:	eabf18e3          	bne	x30,x11,268 <.L609>
 3bc:	0006a703          	lw	x14,0(x13)
 3c0:	07e70c63          	beq	x14,x30,438 <.L603>

000003c4 <.L608>:
 3c4:	00100f13          	li	x30,1
 3c8:	0100006f          	j	3d8 <.L602>

000003cc <.L651>:
 3cc:	00878093          	addi	x1,x15,8
 3d0:	1400afaf          	lr.w.aq	x31,(x1)
 3d4:	01ef8863          	beq	x31,x30,3e4 <.L610>

000003d8 <.L602>:
 3d8:	00878613          	addi	x12,x15,8
 3dc:	10062eaf          	lr.w	x29,(x12)
 3e0:	ffee96e3          	bne	x29,x30,3cc <.L651>

000003e4 <.L610>:
 3e4:	0007a423          	sw	x0,8(x15)
 3e8:	00078223          	sb	x0,4(x15)
 3ec:	000782a3          	sb	x0,5(x15)
 3f0:	00078323          	sb	x0,6(x15)
 3f4:	000783a3          	sb	x0,7(x15)
 3f8:	0007a023          	sw	x0,0(x15)
 3fc:	00000393          	li	x7,0
 400:	000c8793          	mv	x15,x25
 404:	200002b7          	lui	x5,0x20000
 408:	00100b13          	li	x22,1
 40c:	00040bb7          	lui	x23,0x40
 410:	001004b7          	lui	x9,0x100

00000414 <.L611>:
 414:	0006ac03          	lw	x24,0(x13)
 418:	0077e9b3          	or	x19,x15,x7
 41c:	017383b3          	add	x7,x7,x23
 420:	018c1a93          	slli	x21,x24,0x18
 424:	013ae933          	or	x18,x21,x19
 428:	005968b3          	or	x17,x18,x5
 42c:	0168a023          	sw	x22,0(x17)
 430:	fe9392e3          	bne	x7,x9,414 <.L611>
 434:	e35ff06f          	j	268 <.L609>

00000438 <.L603>:
 438:	00c7ce83          	lbu	x29,12(x15)
 43c:	0ffef093          	andi	x1,x29,255
 440:	fe008ce3          	beqz	x1,438 <.L603>
 444:	00d7cf83          	lbu	x31,13(x15)
 448:	0ffff293          	andi	x5,x31,255
 44c:	fe0286e3          	beqz	x5,438 <.L603>
 450:	00e7cb03          	lbu	x22,14(x15)
 454:	0ffb7b93          	andi	x23,x22,255
 458:	fe0b80e3          	beqz	x23,438 <.L603>
 45c:	00f7c483          	lbu	x9,15(x15)
 460:	0ff4fc13          	andi	x24,x9,255
 464:	fc0c0ae3          	beqz	x24,438 <.L603>
 468:	00078623          	sb	x0,12(x15)
 46c:	000786a3          	sb	x0,13(x15)
 470:	00078723          	sb	x0,14(x15)
 474:	000787a3          	sb	x0,15(x15)
 478:	000009b7          	lui	x19,0x0
 47c:	0007a423          	sw	x0,8(x15)
 480:	00000813          	li	x16,0
 484:	00898393          	addi	x7,x19,8 # 8 <_Z19tensorlib_copy_implIfiEiP11hb_tensor_tS1_+0x8>
 488:	03fc0ab7          	lui	x21,0x3fc0
 48c:	20000937          	lui	x18,0x20000
 490:	00100893          	li	x17,1
 494:	01000a37          	lui	x20,0x1000
 498:	04000e37          	lui	x28,0x4000

0000049c <.L607>:
 49c:	01271713          	slli	x14,x14,0x12
 4a0:	0103e5b3          	or	x11,x7,x16
 4a4:	01577333          	and	x6,x14,x21
 4a8:	00b36433          	or	x8,x6,x11
 4ac:	01246533          	or	x10,x8,x18
 4b0:	01152023          	sw	x17,0(x10)
 4b4:	01480833          	add	x16,x16,x20
 4b8:	00062703          	lw	x14,0(x12)
 4bc:	ffc810e3          	bne	x16,x28,49c <.L607>
 4c0:	f11702e3          	beq	x14,x17,3c4 <.L608>
 4c4:	da5ff06f          	j	268 <.L609>

000004c8 <.L645>:
 4c8:	fff90b13          	addi	x22,x18,-1 # 1fffffff <.L1103+0x1ffff803>
 4cc:	ffd00593          	li	x11,-3
 4d0:	d165e2e3          	bltu	x11,x22,1d4 <.L574>
 4d4:	00000bb7          	lui	x23,0x0
 4d8:	000bac03          	lw	x24,0(x23) # 0 <_Z19tensorlib_copy_implIfiEiP11hb_tensor_tS1_>
 4dc:	00495993          	srli	x19,x18,0x4
 4e0:	00198393          	addi	x7,x19,1
 4e4:	038387b3          	mul	x15,x7,x24
 4e8:	00f38cb3          	add	x25,x7,x15
 4ec:	0d996c63          	bltu	x18,x25,5c4 <.L652>

000004f0 <.L573>:
 4f0:	cf97f2e3          	bgeu	x15,x25,1d4 <.L574>
 4f4:	00082a83          	lw	x21,0(x16)
 4f8:	0008a883          	lw	x17,0(x17)
 4fc:	40fc8933          	sub	x18,x25,x15
 500:	002a9293          	slli	x5,x21,0x2
 504:	00289093          	slli	x1,x17,0x2
 508:	02178733          	mul	x14,x15,x1
 50c:	00400a13          	li	x20,4
 510:	02f28833          	mul	x16,x5,x15
 514:	00ee0533          	add	x10,x28,x14
 518:	01030333          	add	x6,x6,x16
 51c:	092a7463          	bgeu	x20,x18,5a4 <.L579>
 520:	ffcc8413          	addi	x8,x25,-4 # fffffffc <.L1103+0xfffff800>
 524:	0887f063          	bgeu	x15,x8,5a4 <.L579>
 528:	00050e13          	mv	x28,x10
 52c:	00389b13          	slli	x22,x17,0x3
 530:	003a9513          	slli	x10,x21,0x3
 534:	00489b93          	slli	x23,x17,0x4
 538:	004a9493          	slli	x9,x21,0x4
 53c:	00a30833          	add	x16,x6,x10
 540:	016e05b3          	add	x11,x28,x22

00000544 <.L578>:
 544:	00032607          	flw	f12,0(x6)
 548:	00530c33          	add	x24,x6,x5
 54c:	000c2687          	flw	f13,0(x24) # 3f000000 <.L1103+0x3efff804>
 550:	00082707          	flw	f14,0(x16)
 554:	005809b3          	add	x19,x16,x5
 558:	0009a107          	flw	f2,0(x19)
 55c:	c00613d3          	fcvt.w.s	x7,f12,rtz
 560:	c00698d3          	fcvt.w.s	x17,f13,rtz
 564:	c0071ad3          	fcvt.w.s	x21,f14,rtz
 568:	007e2023          	sw	x7,0(x28) # 4000000 <.L1103+0x3fff804>
 56c:	001e0733          	add	x14,x28,x1
 570:	c0011953          	fcvt.w.s	x18,f2,rtz
 574:	01172023          	sw	x17,0(x14)
 578:	0155a023          	sw	x21,0(x11) # c0000000 <.L1103+0xbffff804>
 57c:	00158a33          	add	x20,x11,x1
 580:	017e0533          	add	x10,x28,x23
 584:	012a2023          	sw	x18,0(x20) # 1000000 <.L1103+0xfff804>
 588:	00478793          	addi	x15,x15,4
 58c:	00050e13          	mv	x28,x10
 590:	00930333          	add	x6,x6,x9
 594:	00980833          	add	x16,x16,x9
 598:	017585b3          	add	x11,x11,x23
 59c:	fa87e4e3          	bltu	x15,x8,544 <.L578>
 5a0:	c397fae3          	bgeu	x15,x25,1d4 <.L574>

000005a4 <.L579>:
 5a4:	00032187          	flw	f3,0(x6)
 5a8:	00178793          	addi	x15,x15,1
 5ac:	00530333          	add	x6,x6,x5
 5b0:	c0019453          	fcvt.w.s	x8,f3,rtz
 5b4:	00852023          	sw	x8,0(x10)
 5b8:	00150533          	add	x10,x10,x1
 5bc:	ff97e4e3          	bltu	x15,x25,5a4 <.L579>
 5c0:	c15ff06f          	j	1d4 <.L574>

000005c4 <.L652>:
 5c4:	00090c93          	mv	x25,x18
 5c8:	f29ff06f          	j	4f0 <.L573>

000005cc <.L615>:
 5cc:	00030a13          	mv	x20,x6
 5d0:	bf1ff06f          	j	1c0 <.L595>

000005d4 <.L614>:
 5d4:	000e0713          	mv	x14,x28
 5d8:	ba9ff06f          	j	180 <.L593>

000005dc <.L647>:
 5dc:	0043a283          	lw	x5,4(x7)
 5e0:	0003a083          	lw	x1,0(x7)
 5e4:	ffd00493          	li	x9,-3
 5e8:	021289b3          	mul	x19,x5,x1
 5ec:	fff98913          	addi	x18,x19,-1
 5f0:	bf24e2e3          	bltu	x9,x18,1d4 <.L574>
 5f4:	00000737          	lui	x14,0x0
 5f8:	00072503          	lw	x10,0(x14) # 0 <_Z19tensorlib_copy_implIfiEiP11hb_tensor_tS1_>
 5fc:	0049db93          	srli	x23,x19,0x4
 600:	001b8b13          	addi	x22,x23,1
 604:	02ab0533          	mul	x10,x22,x10
 608:	00ab0cb3          	add	x25,x22,x10
 60c:	0b99e663          	bltu	x19,x25,6b8 <.L653>

00000610 <.L587>:
 610:	bd9572e3          	bgeu	x10,x25,1d4 <.L574>
 614:	0048aa83          	lw	x21,4(x17)
 618:	0008aa03          	lw	x20,0(x17)
 61c:	00442403          	lw	x8,4(x8) # 21040004 <.L1103+0x2103f808>
 620:	00482083          	lw	x1,4(x16)
 624:	00082483          	lw	x9,0(x16)
 628:	0083a383          	lw	x7,8(x7)

0000062c <.L589>:
 62c:	02557c33          	remu	x24,x10,x5
 630:	025559b3          	divu	x19,x10,x5
 634:	028577b3          	remu	x15,x10,x8
 638:	02855933          	divu	x18,x10,x8
 63c:	03498733          	mul	x14,x19,x20
 640:	035c05b3          	mul	x11,x24,x21
 644:	029909b3          	mul	x19,x18,x9
 648:	00e58b33          	add	x22,x11,x14
 64c:	002b1c13          	slli	x24,x22,0x2
 650:	018e0733          	add	x14,x28,x24
 654:	02178bb3          	mul	x23,x15,x1
 658:	013b87b3          	add	x15,x23,x19
 65c:	00279913          	slli	x18,x15,0x2
 660:	012307b3          	add	x15,x6,x18
 664:	02038a63          	beqz	x7,698 <.L591>
 668:	0088a583          	lw	x11,8(x17)
 66c:	00882b03          	lw	x22,8(x16)
 670:	00000913          	li	x18,0
 674:	00259b93          	slli	x23,x11,0x2
 678:	002b1993          	slli	x19,x22,0x2

0000067c <.L590>:
 67c:	0007a007          	flw	f0,0(x15)
 680:	00190913          	addi	x18,x18,1
 684:	013787b3          	add	x15,x15,x19
 688:	c0001c53          	fcvt.w.s	x24,f0,rtz
 68c:	01872023          	sw	x24,0(x14)
 690:	01770733          	add	x14,x14,x23
 694:	ff2394e3          	bne	x7,x18,67c <.L590>

00000698 <.L591>:
 698:	00150513          	addi	x10,x10,1
 69c:	f8ac98e3          	bne	x25,x10,62c <.L589>
 6a0:	b35ff06f          	j	1d4 <.L574>

000006a4 <.L648>:
 6a4:	00090093          	mv	x1,x18
 6a8:	a81ff06f          	j	128 <.L592>

000006ac <.L650>:
 6ac:	00028b13          	mv	x22,x5
 6b0:	c56462e3          	bltu	x8,x22,2f4 <.L654>
 6b4:	b21ff06f          	j	1d4 <.L574>

000006b8 <.L653>:
 6b8:	00098c93          	mv	x25,x19
 6bc:	f55ff06f          	j	610 <.L587>

Disassembly of section .text._Z19tensorlib_copy_implIfxEiP11hb_tensor_tS1_:

00000000 <_Z19tensorlib_copy_implIfxEiP11hb_tensor_tS1_>:
   0:	f0010113          	addi	x2,x2,-256
   4:	00050793          	mv	x15,x10
   8:	0e812c23          	sw	x8,248(x2)
   c:	03810513          	addi	x10,x2,56
  10:	00058413          	mv	x8,x11
  14:	00078593          	mv	x11,x15
  18:	0e112e23          	sw	x1,252(x2)
  1c:	0e912a23          	sw	x9,244(x2)
  20:	0f212823          	sw	x18,240(x2)
  24:	0f312623          	sw	x19,236(x2)
  28:	0f412423          	sw	x20,232(x2)
  2c:	0f512223          	sw	x21,228(x2)
  30:	0f612023          	sw	x22,224(x2)
  34:	0d712e23          	sw	x23,220(x2)
  38:	0d812c23          	sw	x24,216(x2)
  3c:	0d912a23          	sw	x25,212(x2)
  40:	0da12823          	sw	x26,208(x2)
  44:	0db12623          	sw	x27,204(x2)
  48:	0a812e27          	fsw	f8,188(x2)
  4c:	0a912c27          	fsw	f9,184(x2)
  50:	00000097          	auipc	x1,0x0
  54:	000080e7          	jalr	x1 # 50 <_Z19tensorlib_copy_implIfxEiP11hb_tensor_tS1_+0x50>
  58:	00040593          	mv	x11,x8
  5c:	07410513          	addi	x10,x2,116
  60:	00000097          	auipc	x1,0x0
  64:	000080e7          	jalr	x1 # 60 <_Z19tensorlib_copy_implIfxEiP11hb_tensor_tS1_+0x60>
  68:	00000b37          	lui	x22,0x0
  6c:	00000437          	lui	x8,0x0
  70:	000004b7          	lui	x9,0x0
  74:	00000737          	lui	x14,0x0
  78:	000b2283          	lw	x5,0(x22) # 0 <_Z19tensorlib_copy_implIfxEiP11hb_tensor_tS1_>
  7c:	00042583          	lw	x11,0(x8) # 0 <_Z19tensorlib_copy_implIfxEiP11hb_tensor_tS1_>
  80:	00072303          	lw	x6,0(x14) # 0 <_Z19tensorlib_copy_implIfxEiP11hb_tensor_tS1_>
  84:	0004a603          	lw	x12,0(x9) # 0 <_Z19tensorlib_copy_implIfxEiP11hb_tensor_tS1_>
  88:	000006b7          	lui	x13,0x0
  8c:	0006a383          	lw	x7,0(x13) # 0 <_Z19tensorlib_copy_implIfxEiP11hb_tensor_tS1_>
  90:	00b28533          	add	x10,x5,x11
  94:	00c30833          	add	x16,x6,x12
  98:	01281913          	slli	x18,x16,0x12
  9c:	3f0009b7          	lui	x19,0x3f000
  a0:	00fc0ab7          	lui	x21,0xfc0
  a4:	01851893          	slli	x17,x10,0x18
  a8:	00040d37          	lui	x26,0x40
  ac:	0138fa33          	and	x20,x17,x19
  b0:	01597bb3          	and	x23,x18,x21
  b4:	ff0d0d93          	addi	x27,x26,-16 # 3fff0 <.L1103+0x3f7f4>
  b8:	00439c13          	slli	x24,x7,0x4
  bc:	017a6cb3          	or	x25,x20,x23
  c0:	01bc7e33          	and	x28,x24,x27
  c4:	01cceeb3          	or	x29,x25,x28
  c8:	03c12d83          	lw	x27,60(x2)
  cc:	80000f37          	lui	x30,0x80000
  d0:	01eeefb3          	or	x31,x29,x30
  d4:	410017b7          	lui	x15,0x41001
  d8:	d1f7a623          	sw	x31,-756(x15) # 41000d0c <.L1103+0x41000510>
  dc:	00100293          	li	x5,1
  e0:	03812583          	lw	x11,56(x2)
  e4:	04012a83          	lw	x21,64(x2)
  e8:	04812983          	lw	x19,72(x2)
  ec:	07c12a03          	lw	x20,124(x2)
  f0:	08412903          	lw	x18,132(x2)
  f4:	445d8e63          	beq	x27,x5,550 <.L733>
  f8:	00200093          	li	x1,2
  fc:	04412303          	lw	x6,68(x2)
 100:	201d8a63          	beq	x27,x1,314 <.L734>
 104:	00300713          	li	x14,3
 108:	08012c03          	lw	x24,128(x2)
 10c:	5aed8463          	beq	x27,x14,6b4 <.L735>
 110:	fff58613          	addi	x12,x11,-1
 114:	ffd00693          	li	x13,-3
 118:	0ec6ea63          	bltu	x13,x12,20c <.L662>
 11c:	000003b7          	lui	x7,0x0
 120:	0003a503          	lw	x10,0(x7) # 0 <_Z19tensorlib_copy_implIfxEiP11hb_tensor_tS1_>
 124:	0045d813          	srli	x16,x11,0x4
 128:	00180893          	addi	x17,x16,1
 12c:	02a88cb3          	mul	x25,x17,x10
 130:	01988bb3          	add	x23,x17,x25
 134:	6b75e063          	bltu	x11,x23,7d4 <.L736>

00000138 <.L680>:
 138:	0d7cfa63          	bgeu	x25,x23,20c <.L662>
 13c:	07812e03          	lw	x28,120(x2)
 140:	002d9d13          	slli	x26,x27,0x2
 144:	01a30eb3          	add	x29,x6,x26
 148:	002e1f13          	slli	x30,x28,0x2
 14c:	01ec0fb3          	add	x31,x24,x30
 150:	01c12a23          	sw	x28,20(x2)
 154:	01d12623          	sw	x29,12(x2)
 158:	01f12823          	sw	x31,16(x2)

0000015c <.L685>:
 15c:	540d8863          	beqz	x27,6ac <.L702>
 160:	000a8393          	mv	x7,x21
 164:	00030713          	mv	x14,x6
 168:	000c8593          	mv	x11,x25
 16c:	00000793          	li	x15,0

00000170 <.L682>:
 170:	00072283          	lw	x5,0(x14)
 174:	0003a083          	lw	x1,0(x7)
 178:	00c12503          	lw	x10,12(x2)
 17c:	0255f633          	remu	x12,x11,x5
 180:	00470713          	addi	x14,x14,4
 184:	00438393          	addi	x7,x7,4
 188:	021606b3          	mul	x13,x12,x1
 18c:	0255d5b3          	divu	x11,x11,x5
 190:	00d787b3          	add	x15,x15,x13
 194:	fce51ee3          	bne	x10,x14,170 <.L682>
 198:	00379813          	slli	x16,x15,0x3
 19c:	01098d33          	add	x26,x19,x16

000001a0 <.L681>:
 1a0:	01412883          	lw	x17,20(x2)
 1a4:	50088063          	beqz	x17,6a4 <.L703>
 1a8:	000a0093          	mv	x1,x20
 1ac:	000c0293          	mv	x5,x24
 1b0:	000c8613          	mv	x12,x25
 1b4:	00000393          	li	x7,0

000001b8 <.L684>:
 1b8:	0002af03          	lw	x30,0(x5) # 20000000 <.L1103+0x1ffff804>
 1bc:	0000af83          	lw	x31,0(x1)
 1c0:	01012683          	lw	x13,16(x2)
 1c4:	00428293          	addi	x5,x5,4
 1c8:	00408093          	addi	x1,x1,4
 1cc:	03e67eb3          	remu	x29,x12,x30
 1d0:	03fe8733          	mul	x14,x29,x31
 1d4:	03e65633          	divu	x12,x12,x30
 1d8:	00e383b3          	add	x7,x7,x14
 1dc:	fc569ee3          	bne	x13,x5,1b8 <.L684>
 1e0:	00239593          	slli	x11,x7,0x2
 1e4:	00b90e33          	add	x28,x18,x11

000001e8 <.L683>:
 1e8:	000e2507          	flw	f10,0(x28)
 1ec:	00612423          	sw	x6,8(x2)
 1f0:	001c8c93          	addi	x25,x25,1
 1f4:	00000097          	auipc	x1,0x0
 1f8:	000080e7          	jalr	x1 # 1f4 <.L683+0xc>
 1fc:	00ad2023          	sw	x10,0(x26)
 200:	00bd2223          	sw	x11,4(x26)
 204:	00812303          	lw	x6,8(x2)
 208:	f59b9ae3          	bne	x23,x25,15c <.L685>

0000020c <.L662>:
 20c:	00000eb7          	lui	x29,0x0
 210:	000ea083          	lw	x1,0(x29) # 0 <_Z19tensorlib_copy_implIfxEiP11hb_tensor_tS1_>
 214:	000b2b03          	lw	x22,0(x22)
 218:	00042283          	lw	x5,0(x8)
 21c:	0004a603          	lw	x12,0(x9)
 220:	000003b7          	lui	x7,0x0
 224:	0003ac03          	lw	x24,0(x7) # 0 <_Z19tensorlib_copy_implIfxEiP11hb_tensor_tS1_>
 228:	005b0533          	add	x10,x22,x5
 22c:	00c08d33          	add	x26,x1,x12
 230:	01851c93          	slli	x25,x10,0x18
 234:	012d1593          	slli	x11,x26,0x12
 238:	3f000737          	lui	x14,0x3f000
 23c:	00fc06b7          	lui	x13,0xfc0
 240:	00040e37          	lui	x28,0x40
 244:	00d5f7b3          	and	x15,x11,x13
 248:	004c1813          	slli	x16,x24,0x4
 24c:	00ecf333          	and	x6,x25,x14
 250:	ff0e0a93          	addi	x21,x28,-16 # 3fff0 <.L1103+0x3f7f4>
 254:	00f368b3          	or	x17,x6,x15
 258:	01587f33          	and	x30,x16,x21
 25c:	01e8edb3          	or	x27,x17,x30
 260:	c0000a37          	lui	x20,0xc0000
 264:	014defb3          	or	x31,x27,x20
 268:	41001bb7          	lui	x23,0x41001
 26c:	d1fba623          	sw	x31,-756(x23) # 41000d0c <.L1103+0x41000510>
 270:	0004a903          	lw	x18,0(x9)
 274:	00042983          	lw	x19,0(x8)
 278:	00000b37          	lui	x22,0x0
 27c:	00490293          	addi	x5,x18,4
 280:	000b0793          	mv	x15,x22
 284:	00578eb3          	add	x29,x15,x5
 288:	01899093          	slli	x1,x19,0x18
 28c:	001ee3b3          	or	x7,x29,x1
 290:	20040637          	lui	x12,0x20040
 294:	00c3ec33          	or	x24,x7,x12
 298:	00100513          	li	x10,1
 29c:	00ac0023          	sb	x10,0(x24)
 2a0:	0004ad03          	lw	x26,0(x9)
 2a4:	14ad0663          	beq	x26,x10,3f0 <.L686>

000002a8 <.L697>:
 2a8:	00100413          	li	x8,1
 2ac:	0100006f          	j	2bc <.L701>

000002b0 <.L737>:
 2b0:	000b0813          	mv	x16,x22
 2b4:	1408272f          	lr.w.aq	x14,(x16)
 2b8:	00870863          	beq	x14,x8,2c8 <.L700>

000002bc <.L701>:
 2bc:	000b0e13          	mv	x28,x22
 2c0:	100e28af          	lr.w	x17,(x28)
 2c4:	fe8896e3          	bne	x17,x8,2b0 <.L737>

000002c8 <.L700>:
 2c8:	0fc12083          	lw	x1,252(x2)
 2cc:	0f812403          	lw	x8,248(x2)
 2d0:	0007a023          	sw	x0,0(x15)
 2d4:	0f412483          	lw	x9,244(x2)
 2d8:	0f012903          	lw	x18,240(x2)
 2dc:	0ec12983          	lw	x19,236(x2)
 2e0:	0e812a03          	lw	x20,232(x2)
 2e4:	0e412a83          	lw	x21,228(x2)
 2e8:	0e012b03          	lw	x22,224(x2)
 2ec:	0dc12b83          	lw	x23,220(x2)
 2f0:	0d812c03          	lw	x24,216(x2)
 2f4:	0d412c83          	lw	x25,212(x2)
 2f8:	0d012d03          	lw	x26,208(x2)
 2fc:	0cc12d83          	lw	x27,204(x2)
 300:	0bc12407          	flw	f8,188(x2)
 304:	0b812487          	flw	f9,184(x2)
 308:	00000513          	li	x10,0
 30c:	10010113          	addi	x2,x2,256
 310:	00008067          	ret

00000314 <.L734>:
 314:	00032d03          	lw	x26,0(x6)
 318:	ffd00c93          	li	x25,-3
 31c:	fffd0c13          	addi	x24,x26,-1
 320:	ef8ce6e3          	bltu	x25,x24,20c <.L662>
 324:	000008b7          	lui	x17,0x0
 328:	0008ae03          	lw	x28,0(x17) # 0 <_Z19tensorlib_copy_implIfxEiP11hb_tensor_tS1_>
 32c:	004d5f13          	srli	x30,x26,0x4
 330:	001f0f93          	addi	x31,x30,1 # 80000001 <.L1103+0x7ffff805>
 334:	03cf8bb3          	mul	x23,x31,x28
 338:	017f82b3          	add	x5,x31,x23
 33c:	00512823          	sw	x5,16(x2)
 340:	485d6e63          	bltu	x26,x5,7dc <.L738>

00000344 <.L669>:
 344:	01012e83          	lw	x29,16(x2)
 348:	eddbf2e3          	bgeu	x23,x29,20c <.L662>
 34c:	000a2083          	lw	x1,0(x20) # c0000000 <.L1103+0xbffff804>
 350:	000aa603          	lw	x12,0(x21) # fc0000 <.L1103+0xfbf804>
 354:	00432803          	lw	x16,4(x6)
 358:	00209393          	slli	x7,x1,0x2
 35c:	00361713          	slli	x14,x12,0x3
 360:	027b85b3          	mul	x11,x23,x7
 364:	00712c23          	sw	x7,24(x2)
 368:	00e12a23          	sw	x14,20(x2)
 36c:	02eb86b3          	mul	x13,x23,x14
 370:	00b90cb3          	add	x25,x18,x11
 374:	00d98c33          	add	x24,x19,x13

00000378 <.L671>:
 378:	000c8793          	mv	x15,x25
 37c:	04080a63          	beqz	x16,3d0 <.L673>
 380:	004aa903          	lw	x18,4(x21)
 384:	004a2503          	lw	x10,4(x20)
 388:	000c0993          	mv	x19,x24
 38c:	00391913          	slli	x18,x18,0x3
 390:	00251d93          	slli	x27,x10,0x2
 394:	00000d13          	li	x26,0

00000398 <.L672>:
 398:	0007a507          	flw	f10,0(x15)
 39c:	01b78333          	add	x6,x15,x27
 3a0:	01012623          	sw	x16,12(x2)
 3a4:	00612423          	sw	x6,8(x2)
 3a8:	00612e23          	sw	x6,28(x2)
 3ac:	00000097          	auipc	x1,0x0
 3b0:	000080e7          	jalr	x1 # 3ac <.L672+0x14>
 3b4:	00c12803          	lw	x16,12(x2)
 3b8:	00a9a023          	sw	x10,0(x19) # 3f000000 <.L1103+0x3efff804>
 3bc:	00b9a223          	sw	x11,4(x19)
 3c0:	001d0d13          	addi	x26,x26,1
 3c4:	00812783          	lw	x15,8(x2)
 3c8:	012989b3          	add	x19,x19,x18
 3cc:	fda816e3          	bne	x16,x26,398 <.L672>

000003d0 <.L673>:
 3d0:	01812883          	lw	x17,24(x2)
 3d4:	01412e03          	lw	x28,20(x2)
 3d8:	01012f03          	lw	x30,16(x2)
 3dc:	001b8b93          	addi	x23,x23,1
 3e0:	011c8cb3          	add	x25,x25,x17
 3e4:	01cc0c33          	add	x24,x24,x28
 3e8:	f97f18e3          	bne	x30,x23,378 <.L671>
 3ec:	e21ff06f          	j	20c <.L662>

000003f0 <.L686>:
 3f0:	0047cc83          	lbu	x25,4(x15)
 3f4:	0ffcf593          	andi	x11,x25,255
 3f8:	fe058ce3          	beqz	x11,3f0 <.L686>
 3fc:	0057c703          	lbu	x14,5(x15)
 400:	0ff77313          	andi	x6,x14,255
 404:	fe0306e3          	beqz	x6,3f0 <.L686>
 408:	0067c683          	lbu	x13,6(x15)
 40c:	0ff6f813          	andi	x16,x13,255
 410:	fe0800e3          	beqz	x16,3f0 <.L686>
 414:	0077c883          	lbu	x17,7(x15)
 418:	0ff8fe13          	andi	x28,x17,255
 41c:	fc0e0ae3          	beqz	x28,3f0 <.L686>
 420:	00042a83          	lw	x21,0(x8)
 424:	21040fb7          	lui	x31,0x21040
 428:	00100f13          	li	x30,1
 42c:	00ca8d93          	addi	x27,x21,12
 430:	01b78a33          	add	x20,x15,x27
 434:	01fa6bb3          	or	x23,x20,x31
 438:	01eb8023          	sb	x30,0(x23)
 43c:	0004a903          	lw	x18,0(x9)
 440:	e7e914e3          	bne	x18,x30,2a8 <.L697>
 444:	00042f83          	lw	x31,0(x8)
 448:	072f8c63          	beq	x31,x18,4c0 <.L691>

0000044c <.L696>:
 44c:	00100493          	li	x9,1
 450:	0100006f          	j	460 <.L690>

00000454 <.L739>:
 454:	00878993          	addi	x19,x15,8
 458:	1409a2af          	lr.w.aq	x5,(x19)
 45c:	00928863          	beq	x5,x9,46c <.L698>

00000460 <.L690>:
 460:	00878b93          	addi	x23,x15,8
 464:	100ba92f          	lr.w	x18,(x23)
 468:	fe9916e3          	bne	x18,x9,454 <.L739>

0000046c <.L698>:
 46c:	0007a423          	sw	x0,8(x15)
 470:	00078223          	sb	x0,4(x15)
 474:	000782a3          	sb	x0,5(x15)
 478:	00078323          	sb	x0,6(x15)
 47c:	000783a3          	sb	x0,7(x15)
 480:	0007a023          	sw	x0,0(x15)
 484:	00000613          	li	x12,0
 488:	000b0793          	mv	x15,x22
 48c:	20000eb7          	lui	x29,0x20000
 490:	00100093          	li	x1,1
 494:	000403b7          	lui	x7,0x40
 498:	00100c37          	lui	x24,0x100

0000049c <.L699>:
 49c:	00042503          	lw	x10,0(x8)
 4a0:	00c7ed33          	or	x26,x15,x12
 4a4:	00760633          	add	x12,x12,x7
 4a8:	01851c93          	slli	x25,x10,0x18
 4ac:	01ace6b3          	or	x13,x25,x26
 4b0:	01d6e333          	or	x6,x13,x29
 4b4:	00132023          	sw	x1,0(x6)
 4b8:	ff8612e3          	bne	x12,x24,49c <.L699>
 4bc:	dedff06f          	j	2a8 <.L697>

000004c0 <.L691>:
 4c0:	00c7c983          	lbu	x19,12(x15)
 4c4:	0ff9f293          	andi	x5,x19,255
 4c8:	fe028ce3          	beqz	x5,4c0 <.L691>
 4cc:	00d7ce83          	lbu	x29,13(x15)
 4d0:	0ffef093          	andi	x1,x29,255
 4d4:	fe0086e3          	beqz	x1,4c0 <.L691>
 4d8:	00e7c383          	lbu	x7,14(x15)
 4dc:	0ff3f613          	andi	x12,x7,255
 4e0:	fe0600e3          	beqz	x12,4c0 <.L691>
 4e4:	00f7cc03          	lbu	x24,15(x15)
 4e8:	0ffc7513          	andi	x10,x24,255
 4ec:	fc050ae3          	beqz	x10,4c0 <.L691>
 4f0:	00078623          	sb	x0,12(x15)
 4f4:	000786a3          	sb	x0,13(x15)
 4f8:	00078723          	sb	x0,14(x15)
 4fc:	000787a3          	sb	x0,15(x15)
 500:	00000d37          	lui	x26,0x0
 504:	0007a423          	sw	x0,8(x15)
 508:	00000593          	li	x11,0
 50c:	008d0c93          	addi	x25,x26,8 # 8 <_Z19tensorlib_copy_implIfxEiP11hb_tensor_tS1_+0x8>
 510:	03fc06b7          	lui	x13,0x3fc0
 514:	20000337          	lui	x6,0x20000
 518:	00100e13          	li	x28,1
 51c:	010008b7          	lui	x17,0x1000
 520:	04000837          	lui	x16,0x4000

00000524 <.L695>:
 524:	012f9713          	slli	x14,x31,0x12
 528:	00bceab3          	or	x21,x25,x11
 52c:	00d77f33          	and	x30,x14,x13
 530:	015f6db3          	or	x27,x30,x21
 534:	006dea33          	or	x20,x27,x6
 538:	01ca2023          	sw	x28,0(x20)
 53c:	011585b3          	add	x11,x11,x17
 540:	0004af83          	lw	x31,0(x9)
 544:	ff0590e3          	bne	x11,x16,524 <.L695>
 548:	f1cf82e3          	beq	x31,x28,44c <.L696>
 54c:	d5dff06f          	j	2a8 <.L697>

00000550 <.L733>:
 550:	fff58f93          	addi	x31,x11,-1
 554:	ffd00293          	li	x5,-3
 558:	cbf2eae3          	bltu	x5,x31,20c <.L662>
 55c:	00000eb7          	lui	x29,0x0
 560:	000ea083          	lw	x1,0(x29) # 0 <_Z19tensorlib_copy_implIfxEiP11hb_tensor_tS1_>
 564:	0045d613          	srli	x12,x11,0x4
 568:	00160393          	addi	x7,x12,1 # 20040001 <.L1103+0x2003f805>
 56c:	02138bb3          	mul	x23,x7,x1
 570:	01738c33          	add	x24,x7,x23
 574:	1385e463          	bltu	x11,x24,69c <.L740>

00000578 <.L661>:
 578:	c98bfae3          	bgeu	x23,x24,20c <.L662>
 57c:	000aa503          	lw	x10,0(x21)
 580:	000a2a03          	lw	x20,0(x20)
 584:	417c0ab3          	sub	x21,x24,x23
 588:	00351d13          	slli	x26,x10,0x3
 58c:	002a1c93          	slli	x25,x20,0x2
 590:	03ab85b3          	mul	x11,x23,x26
 594:	00400713          	li	x14,4
 598:	037c86b3          	mul	x13,x25,x23
 59c:	00b989b3          	add	x19,x19,x11
 5a0:	00d90933          	add	x18,x18,x13
 5a4:	0d577863          	bgeu	x14,x21,674 <.L667>
 5a8:	ffcc0d93          	addi	x27,x24,-4 # ffffc <.L1103+0xff800>
 5ac:	01b12823          	sw	x27,16(x2)
 5b0:	0dbbf263          	bgeu	x23,x27,674 <.L667>
 5b4:	00098a93          	mv	x21,x19
 5b8:	003a1313          	slli	x6,x20,0x3
 5bc:	00451993          	slli	x19,x10,0x4
 5c0:	004a1f13          	slli	x30,x20,0x4
 5c4:	00551e13          	slli	x28,x10,0x5
 5c8:	00690db3          	add	x27,x18,x6
 5cc:	013a8a33          	add	x20,x21,x19

000005d0 <.L666>:
 5d0:	00092507          	flw	f10,0(x18)
 5d4:	019907b3          	add	x15,x18,x25
 5d8:	0007a487          	flw	f9,0(x15)
 5dc:	019d8833          	add	x16,x27,x25
 5e0:	00082407          	flw	f8,0(x16) # 4000000 <.L1103+0x3fff804>
 5e4:	01c12623          	sw	x28,12(x2)
 5e8:	01e12423          	sw	x30,8(x2)
 5ec:	00000097          	auipc	x1,0x0
 5f0:	000080e7          	jalr	x1 # 5ec <.L666+0x1c>
 5f4:	20948553          	fmv.s	f10,f9
 5f8:	000da487          	flw	f9,0(x27)
 5fc:	00aaa023          	sw	x10,0(x21)
 600:	00baa223          	sw	x11,4(x21)
 604:	00000097          	auipc	x1,0x0
 608:	000080e7          	jalr	x1 # 604 <.L666+0x34>
 60c:	20948553          	fmv.s	f10,f9
 610:	01aa88b3          	add	x17,x21,x26
 614:	00a8a023          	sw	x10,0(x17) # 1000000 <.L1103+0xfff804>
 618:	00b8a223          	sw	x11,4(x17)
 61c:	00000097          	auipc	x1,0x0
 620:	000080e7          	jalr	x1 # 61c <.L666+0x4c>
 624:	20840553          	fmv.s	f10,f8
 628:	00aa2023          	sw	x10,0(x20)
 62c:	00ba2223          	sw	x11,4(x20)
 630:	00000097          	auipc	x1,0x0
 634:	000080e7          	jalr	x1 # 630 <.L666+0x60>
 638:	00c12e03          	lw	x28,12(x2)
 63c:	00812f03          	lw	x30,8(x2)
 640:	01012f83          	lw	x31,16(x2)
 644:	000a8993          	mv	x19,x21
 648:	01aa0ab3          	add	x21,x20,x26
 64c:	01c989b3          	add	x19,x19,x28
 650:	00aaa023          	sw	x10,0(x21)
 654:	00baa223          	sw	x11,4(x21)
 658:	004b8b93          	addi	x23,x23,4
 65c:	00098a93          	mv	x21,x19
 660:	01e90933          	add	x18,x18,x30
 664:	01ed8db3          	add	x27,x27,x30
 668:	01ca0a33          	add	x20,x20,x28
 66c:	f7fbe2e3          	bltu	x23,x31,5d0 <.L666>
 670:	b98bfee3          	bgeu	x23,x24,20c <.L662>

00000674 <.L667>:
 674:	00092507          	flw	f10,0(x18)
 678:	001b8b93          	addi	x23,x23,1
 67c:	01990933          	add	x18,x18,x25
 680:	00000097          	auipc	x1,0x0
 684:	000080e7          	jalr	x1 # 680 <.L667+0xc>
 688:	00a9a023          	sw	x10,0(x19)
 68c:	00b9a223          	sw	x11,4(x19)
 690:	01a989b3          	add	x19,x19,x26
 694:	ff8be0e3          	bltu	x23,x24,674 <.L667>
 698:	b75ff06f          	j	20c <.L662>

0000069c <.L740>:
 69c:	00058c13          	mv	x24,x11
 6a0:	ed9ff06f          	j	578 <.L661>

000006a4 <.L703>:
 6a4:	00090e13          	mv	x28,x18
 6a8:	b41ff06f          	j	1e8 <.L683>

000006ac <.L702>:
 6ac:	00098d13          	mv	x26,x19
 6b0:	af1ff06f          	j	1a0 <.L681>

000006b4 <.L735>:
 6b4:	00432d03          	lw	x26,4(x6) # 20000004 <.L1103+0x1ffff808>
 6b8:	00032d83          	lw	x27,0(x6)
 6bc:	ffd00b93          	li	x23,-3
 6c0:	03bd07b3          	mul	x15,x26,x27
 6c4:	fff78513          	addi	x10,x15,-1
 6c8:	b4abe2e3          	bltu	x23,x10,20c <.L662>
 6cc:	00000837          	lui	x16,0x0
 6d0:	00082883          	lw	x17,0(x16) # 0 <_Z19tensorlib_copy_implIfxEiP11hb_tensor_tS1_>
 6d4:	0047de13          	srli	x28,x15,0x4
 6d8:	001e0f13          	addi	x30,x28,1
 6dc:	031f0db3          	mul	x27,x30,x17
 6e0:	01bf0fb3          	add	x31,x30,x27
 6e4:	01f12c23          	sw	x31,24(x2)
 6e8:	0ff7ee63          	bltu	x15,x31,7e4 <.L741>

000006ec <.L675>:
 6ec:	01812283          	lw	x5,24(x2)
 6f0:	b05dfee3          	bgeu	x27,x5,20c <.L662>
 6f4:	004c2c83          	lw	x25,4(x24)
 6f8:	004a2c03          	lw	x24,4(x20)
 6fc:	004aae83          	lw	x29,4(x21)
 700:	000aa083          	lw	x1,0(x21)
 704:	000a2703          	lw	x14,0(x20)
 708:	03812223          	sw	x24,36(x2)
 70c:	00832c03          	lw	x24,8(x6)
 710:	01d12e23          	sw	x29,28(x2)
 714:	02112023          	sw	x1,32(x2)
 718:	02e12423          	sw	x14,40(x2)

0000071c <.L677>:
 71c:	03adf633          	remu	x12,x27,x26
 720:	01c12683          	lw	x13,28(x2)
 724:	02012783          	lw	x15,32(x2)
 728:	02412803          	lw	x16,36(x2)
 72c:	02812f83          	lw	x31,40(x2)
 730:	03add3b3          	divu	x7,x27,x26
 734:	039df333          	remu	x6,x27,x25
 738:	039dd5b3          	divu	x11,x27,x25
 73c:	02d60bb3          	mul	x23,x12,x13
 740:	02f38533          	mul	x10,x7,x15
 744:	030308b3          	mul	x17,x6,x16
 748:	00ab8e33          	add	x28,x23,x10
 74c:	003e1f13          	slli	x30,x28,0x3
 750:	01e986b3          	add	x13,x19,x30
 754:	03f582b3          	mul	x5,x11,x31
 758:	00588eb3          	add	x29,x17,x5
 75c:	002e9093          	slli	x1,x29,0x2
 760:	001907b3          	add	x15,x18,x1
 764:	060c0063          	beqz	x24,7c4 <.L679>
 768:	008aa603          	lw	x12,8(x21)
 76c:	008a2383          	lw	x7,8(x20)
 770:	00000b93          	li	x23,0
 774:	00361593          	slli	x11,x12,0x3
 778:	00239513          	slli	x10,x7,0x2

0000077c <.L678>:
 77c:	0007a507          	flw	f10,0(x15)
 780:	00a78733          	add	x14,x15,x10
 784:	00d12a23          	sw	x13,20(x2)
 788:	00b12823          	sw	x11,16(x2)
 78c:	00a12623          	sw	x10,12(x2)
 790:	00e12423          	sw	x14,8(x2)
 794:	02e12623          	sw	x14,44(x2)
 798:	00000097          	auipc	x1,0x0
 79c:	000080e7          	jalr	x1 # 798 <.L678+0x1c>
 7a0:	01412303          	lw	x6,20(x2)
 7a4:	001b8b93          	addi	x23,x23,1
 7a8:	00812783          	lw	x15,8(x2)
 7ac:	00b32223          	sw	x11,4(x6)
 7b0:	01012583          	lw	x11,16(x2)
 7b4:	00a32023          	sw	x10,0(x6)
 7b8:	00c12503          	lw	x10,12(x2)
 7bc:	00b306b3          	add	x13,x6,x11
 7c0:	fb7c1ee3          	bne	x24,x23,77c <.L678>

000007c4 <.L679>:
 7c4:	01812803          	lw	x16,24(x2)
 7c8:	001d8d93          	addi	x27,x27,1
 7cc:	f5b818e3          	bne	x16,x27,71c <.L677>
 7d0:	a3dff06f          	j	20c <.L662>

000007d4 <.L736>:
 7d4:	00058b93          	mv	x23,x11
 7d8:	961ff06f          	j	138 <.L680>

000007dc <.L738>:
 7dc:	01a12823          	sw	x26,16(x2)
 7e0:	b65ff06f          	j	344 <.L669>

000007e4 <.L741>:
 7e4:	00f12c23          	sw	x15,24(x2)
 7e8:	f05ff06f          	j	6ec <.L675>

Disassembly of section .text._Z19tensorlib_copy_implIffEiP11hb_tensor_tS1_:

00000000 <_Z19tensorlib_copy_implIffEiP11hb_tensor_tS1_>:
   0:	f5010113          	addi	x2,x2,-176
   4:	00050793          	mv	x15,x10
   8:	0a812423          	sw	x8,168(x2)
   c:	00810513          	addi	x10,x2,8
  10:	00058413          	mv	x8,x11
  14:	00078593          	mv	x11,x15
  18:	0a112623          	sw	x1,172(x2)
  1c:	0a912223          	sw	x9,164(x2)
  20:	0b212023          	sw	x18,160(x2)
  24:	09312e23          	sw	x19,156(x2)
  28:	09412c23          	sw	x20,152(x2)
  2c:	09512a23          	sw	x21,148(x2)
  30:	09612823          	sw	x22,144(x2)
  34:	09712623          	sw	x23,140(x2)
  38:	09812423          	sw	x24,136(x2)
  3c:	09912223          	sw	x25,132(x2)
  40:	00000097          	auipc	x1,0x0
  44:	000080e7          	jalr	x1 # 40 <_Z19tensorlib_copy_implIffEiP11hb_tensor_tS1_+0x40>
  48:	00040593          	mv	x11,x8
  4c:	04410513          	addi	x10,x2,68
  50:	00000097          	auipc	x1,0x0
  54:	000080e7          	jalr	x1 # 50 <_Z19tensorlib_copy_implIffEiP11hb_tensor_tS1_+0x50>
  58:	00000fb7          	lui	x31,0x0
  5c:	000006b7          	lui	x13,0x0
  60:	00000f37          	lui	x30,0x0
  64:	00000637          	lui	x12,0x0
  68:	000fa283          	lw	x5,0(x31) # 0 <_Z19tensorlib_copy_implIffEiP11hb_tensor_tS1_>
  6c:	0006a803          	lw	x16,0(x13) # 0 <_Z19tensorlib_copy_implIffEiP11hb_tensor_tS1_>
  70:	000f2703          	lw	x14,0(x30) # 0 <_Z19tensorlib_copy_implIffEiP11hb_tensor_tS1_>
  74:	00062503          	lw	x10,0(x12) # 0 <_Z19tensorlib_copy_implIffEiP11hb_tensor_tS1_>
  78:	00000eb7          	lui	x29,0x0
  7c:	000ea583          	lw	x11,0(x29) # 0 <_Z19tensorlib_copy_implIffEiP11hb_tensor_tS1_>
  80:	01028333          	add	x6,x5,x16
  84:	00a703b3          	add	x7,x14,x10
  88:	01831493          	slli	x9,x6,0x18
  8c:	01239893          	slli	x17,x7,0x12
  90:	3f000937          	lui	x18,0x3f000
  94:	00fc0a37          	lui	x20,0xfc0
  98:	00040c37          	lui	x24,0x40
  9c:	0124f9b3          	and	x19,x9,x18
  a0:	0148fab3          	and	x21,x17,x20
  a4:	00459b13          	slli	x22,x11,0x4
  a8:	ff0c0c93          	addi	x25,x24,-16 # 3fff0 <.L1103+0x3f7f4>
  ac:	019b7e33          	and	x28,x22,x25
  b0:	0159ebb3          	or	x23,x19,x21
  b4:	01cbe7b3          	or	x15,x23,x28
  b8:	00c12283          	lw	x5,12(x2)
  bc:	80000437          	lui	x8,0x80000
  c0:	0087e833          	or	x16,x15,x8
  c4:	41001737          	lui	x14,0x41001
  c8:	d1072623          	sw	x16,-756(x14) # 41000d0c <.L1103+0x41000510>
  cc:	00100513          	li	x10,1
  d0:	00812483          	lw	x9,8(x2)
  d4:	01012883          	lw	x17,16(x2)
  d8:	01812e03          	lw	x28,24(x2)
  dc:	04c12803          	lw	x16,76(x2)
  e0:	05412303          	lw	x6,84(x2)
  e4:	3ca28e63          	beq	x5,x10,4c0 <.L820>
  e8:	00200093          	li	x1,2
  ec:	01412383          	lw	x7,20(x2)
  f0:	1c128863          	beq	x5,x1,2c0 <.L821>
  f4:	00300593          	li	x11,3
  f8:	05012903          	lw	x18,80(x2)
  fc:	4cb28263          	beq	x5,x11,5c0 <.L822>
 100:	fff48993          	addi	x19,x9,-1
 104:	ffd00a13          	li	x20,-3
 108:	0d3a6463          	bltu	x20,x19,1d0 <.L749>
 10c:	00000ab7          	lui	x21,0x0
 110:	000aab03          	lw	x22,0(x21) # 0 <_Z19tensorlib_copy_implIffEiP11hb_tensor_tS1_>
 114:	0044db93          	srli	x23,x9,0x4
 118:	001b8c13          	addi	x24,x23,1
 11c:	036c05b3          	mul	x11,x24,x22
 120:	00bc00b3          	add	x1,x24,x11
 124:	5614e063          	bltu	x9,x1,684 <.L823>

00000128 <.L767>:
 128:	0a15f463          	bgeu	x11,x1,1d0 <.L749>
 12c:	04812983          	lw	x19,72(x2)
 130:	00229c93          	slli	x25,x5,0x2
 134:	01938ab3          	add	x21,x7,x25
 138:	00299793          	slli	x15,x19,0x2
 13c:	00f90a33          	add	x20,x18,x15

00000140 <.L772>:
 140:	46028c63          	beqz	x5,5b8 <.L789>
 144:	00088413          	mv	x8,x17
 148:	00038c13          	mv	x24,x7
 14c:	00058513          	mv	x10,x11
 150:	00000793          	li	x15,0

00000154 <.L769>:
 154:	000c2b03          	lw	x22,0(x24)
 158:	00042b83          	lw	x23,0(x8) # 80000000 <.L1103+0x7ffff804>
 15c:	004c0c13          	addi	x24,x24,4
 160:	036574b3          	remu	x9,x10,x22
 164:	00440413          	addi	x8,x8,4
 168:	03748cb3          	mul	x25,x9,x23
 16c:	03655533          	divu	x10,x10,x22
 170:	019787b3          	add	x15,x15,x25
 174:	ff8a90e3          	bne	x21,x24,154 <.L769>
 178:	00279713          	slli	x14,x15,0x2
 17c:	00ee0733          	add	x14,x28,x14

00000180 <.L768>:
 180:	42098863          	beqz	x19,5b0 <.L790>
 184:	00080493          	mv	x9,x16
 188:	00090513          	mv	x10,x18
 18c:	00058413          	mv	x8,x11
 190:	00000793          	li	x15,0

00000194 <.L771>:
 194:	00052c03          	lw	x24,0(x10)
 198:	0004ac83          	lw	x25,0(x9)
 19c:	00450513          	addi	x10,x10,4
 1a0:	00448493          	addi	x9,x9,4
 1a4:	03847bb3          	remu	x23,x8,x24
 1a8:	039b8b33          	mul	x22,x23,x25
 1ac:	03845433          	divu	x8,x8,x24
 1b0:	016787b3          	add	x15,x15,x22
 1b4:	feaa10e3          	bne	x20,x10,194 <.L771>
 1b8:	00279c13          	slli	x24,x15,0x2
 1bc:	01830b33          	add	x22,x6,x24

000001c0 <.L770>:
 1c0:	000b2787          	flw	f15,0(x22) # 0 <_Z19tensorlib_copy_implIffEiP11hb_tensor_tS1_>
 1c4:	00158593          	addi	x11,x11,1
 1c8:	00f72027          	fsw	f15,0(x14)
 1cc:	f6b09ae3          	bne	x1,x11,140 <.L772>

000001d0 <.L749>:
 1d0:	000faf83          	lw	x31,0(x31)
 1d4:	0006aa83          	lw	x21,0(x13)
 1d8:	000f2f03          	lw	x30,0(x30)
 1dc:	00062883          	lw	x17,0(x12)
 1e0:	000eae83          	lw	x29,0(x29)
 1e4:	015f85b3          	add	x11,x31,x21
 1e8:	011f0833          	add	x16,x30,x17
 1ec:	01859993          	slli	x19,x11,0x18
 1f0:	01281493          	slli	x9,x16,0x12
 1f4:	3f000437          	lui	x8,0x3f000
 1f8:	00fc0537          	lui	x10,0xfc0
 1fc:	00040cb7          	lui	x25,0x40
 200:	0089f933          	and	x18,x19,x8
 204:	00a4fb33          	and	x22,x9,x10
 208:	004e9293          	slli	x5,x29,0x4
 20c:	ff0c8393          	addi	x7,x25,-16 # 3fff0 <.L1103+0x3f7f4>
 210:	01696a33          	or	x20,x18,x22
 214:	0072fbb3          	and	x23,x5,x7
 218:	017a6e33          	or	x28,x20,x23
 21c:	c0000c37          	lui	x24,0xc0000
 220:	410017b7          	lui	x15,0x41001
 224:	018e60b3          	or	x1,x28,x24
 228:	d017a623          	sw	x1,-756(x15) # 41000d0c <.L1103+0x41000510>
 22c:	00062303          	lw	x6,0(x12)
 230:	0006af83          	lw	x31,0(x13)
 234:	00000ab7          	lui	x21,0x0
 238:	00430713          	addi	x14,x6,4
 23c:	000a8793          	mv	x15,x21
 240:	00e78f33          	add	x30,x15,x14
 244:	018f9893          	slli	x17,x31,0x18
 248:	011f6eb3          	or	x29,x30,x17
 24c:	200405b7          	lui	x11,0x20040
 250:	00bee833          	or	x16,x29,x11
 254:	00100993          	li	x19,1
 258:	01380023          	sb	x19,0(x16)
 25c:	00062483          	lw	x9,0(x12)
 260:	11348063          	beq	x9,x19,360 <.L773>

00000264 <.L784>:
 264:	00100393          	li	x7,1
 268:	0100006f          	j	278 <.L788>

0000026c <.L824>:
 26c:	000a8e13          	mv	x28,x21
 270:	140e2c2f          	lr.w.aq	x24,(x28)
 274:	007c0863          	beq	x24,x7,284 <.L787>

00000278 <.L788>:
 278:	000a8693          	mv	x13,x21
 27c:	1006abaf          	lr.w	x23,(x13)
 280:	fe7b96e3          	bne	x23,x7,26c <.L824>

00000284 <.L787>:
 284:	0ac12083          	lw	x1,172(x2)
 288:	0a812403          	lw	x8,168(x2)
 28c:	0007a023          	sw	x0,0(x15)
 290:	0a412483          	lw	x9,164(x2)
 294:	0a012903          	lw	x18,160(x2)
 298:	09c12983          	lw	x19,156(x2)
 29c:	09812a03          	lw	x20,152(x2)
 2a0:	09412a83          	lw	x21,148(x2)
 2a4:	09012b03          	lw	x22,144(x2)
 2a8:	08c12b83          	lw	x23,140(x2)
 2ac:	08812c03          	lw	x24,136(x2)
 2b0:	08412c83          	lw	x25,132(x2)
 2b4:	00000513          	li	x10,0
 2b8:	0b010113          	addi	x2,x2,176
 2bc:	00008067          	ret

000002c0 <.L821>:
 2c0:	0003a283          	lw	x5,0(x7) # 40000 <.L1103+0x3f804>
 2c4:	ffd00493          	li	x9,-3
 2c8:	fff28c13          	addi	x24,x5,-1
 2cc:	f184e2e3          	bltu	x9,x24,1d0 <.L749>
 2d0:	000000b7          	lui	x1,0x0
 2d4:	0000a403          	lw	x8,0(x1) # 0 <_Z19tensorlib_copy_implIffEiP11hb_tensor_tS1_>
 2d8:	0042d993          	srli	x19,x5,0x4
 2dc:	00198913          	addi	x18,x19,1
 2e0:	02890433          	mul	x8,x18,x8
 2e4:	00890b33          	add	x22,x18,x8
 2e8:	3b62e263          	bltu	x5,x22,68c <.L825>
 2ec:	ef6472e3          	bgeu	x8,x22,1d0 <.L749>

000002f0 <.L829>:
 2f0:	00082a03          	lw	x20,0(x16)
 2f4:	0008ac83          	lw	x25,0(x17)
 2f8:	0043a383          	lw	x7,4(x7)
 2fc:	002a1b93          	slli	x23,x20,0x2
 300:	002c9a93          	slli	x21,x25,0x2
 304:	037405b3          	mul	x11,x8,x23
 308:	035407b3          	mul	x15,x8,x21
 30c:	00b30333          	add	x6,x6,x11
 310:	00fe0e33          	add	x28,x28,x15

00000314 <.L758>:
 314:	00030293          	mv	x5,x6
 318:	02038a63          	beqz	x7,34c <.L760>
 31c:	0048a483          	lw	x9,4(x17)
 320:	00482703          	lw	x14,4(x16)
 324:	000e0513          	mv	x10,x28
 328:	00249c13          	slli	x24,x9,0x2
 32c:	00271093          	slli	x1,x14,0x2
 330:	00000993          	li	x19,0

00000334 <.L759>:
 334:	0002a087          	flw	f1,0(x5)
 338:	00198993          	addi	x19,x19,1
 33c:	001282b3          	add	x5,x5,x1
 340:	00152027          	fsw	f1,0(x10) # fc0000 <.L1103+0xfbf804>
 344:	01850533          	add	x10,x10,x24
 348:	ff3396e3          	bne	x7,x19,334 <.L759>

0000034c <.L760>:
 34c:	00140413          	addi	x8,x8,1 # 3f000001 <.L1103+0x3efff805>
 350:	01730333          	add	x6,x6,x23
 354:	015e0e33          	add	x28,x28,x21
 358:	fa8b1ee3          	bne	x22,x8,314 <.L758>
 35c:	e75ff06f          	j	1d0 <.L749>

00000360 <.L773>:
 360:	0047c403          	lbu	x8,4(x15)
 364:	0ff47913          	andi	x18,x8,255
 368:	fe090ce3          	beqz	x18,360 <.L773>
 36c:	0057c503          	lbu	x10,5(x15)
 370:	0ff57b13          	andi	x22,x10,255
 374:	fe0b06e3          	beqz	x22,360 <.L773>
 378:	0067c283          	lbu	x5,6(x15)
 37c:	0ff2fa13          	andi	x20,x5,255
 380:	fe0a00e3          	beqz	x20,360 <.L773>
 384:	0077cc83          	lbu	x25,7(x15)
 388:	0ffcf393          	andi	x7,x25,255
 38c:	fc038ae3          	beqz	x7,360 <.L773>
 390:	0006ab83          	lw	x23,0(x13)
 394:	21040337          	lui	x6,0x21040
 398:	00100e13          	li	x28,1
 39c:	00cb8c13          	addi	x24,x23,12
 3a0:	018780b3          	add	x1,x15,x24
 3a4:	0060efb3          	or	x31,x1,x6
 3a8:	01cf8023          	sb	x28,0(x31)
 3ac:	00062f03          	lw	x30,0(x12)
 3b0:	ebcf1ae3          	bne	x30,x28,264 <.L784>
 3b4:	0006a703          	lw	x14,0(x13)
 3b8:	07e70c63          	beq	x14,x30,430 <.L778>

000003bc <.L783>:
 3bc:	00100f13          	li	x30,1
 3c0:	0100006f          	j	3d0 <.L777>

000003c4 <.L826>:
 3c4:	00878e93          	addi	x29,x15,8
 3c8:	140ea5af          	lr.w.aq	x11,(x29)
 3cc:	01e58863          	beq	x11,x30,3dc <.L785>

000003d0 <.L777>:
 3d0:	00878613          	addi	x12,x15,8
 3d4:	100628af          	lr.w	x17,(x12)
 3d8:	ffe896e3          	bne	x17,x30,3c4 <.L826>

000003dc <.L785>:
 3dc:	0007a423          	sw	x0,8(x15)
 3e0:	00078223          	sb	x0,4(x15)
 3e4:	000782a3          	sb	x0,5(x15)
 3e8:	00078323          	sb	x0,6(x15)
 3ec:	000783a3          	sb	x0,7(x15)
 3f0:	0007a023          	sw	x0,0(x15)
 3f4:	00000b13          	li	x22,0
 3f8:	000a8793          	mv	x15,x21
 3fc:	200009b7          	lui	x19,0x20000
 400:	00100493          	li	x9,1
 404:	00040437          	lui	x8,0x40
 408:	00100837          	lui	x16,0x100

0000040c <.L786>:
 40c:	0006a903          	lw	x18,0(x13)
 410:	0167e533          	or	x10,x15,x22
 414:	008b0b33          	add	x22,x22,x8
 418:	01891293          	slli	x5,x18,0x18
 41c:	00a2ea33          	or	x20,x5,x10
 420:	013a6cb3          	or	x25,x20,x19
 424:	009ca023          	sw	x9,0(x25)
 428:	ff0b12e3          	bne	x22,x16,40c <.L786>
 42c:	e39ff06f          	j	264 <.L784>

00000430 <.L778>:
 430:	00c7c883          	lbu	x17,12(x15)
 434:	0ff8fe93          	andi	x29,x17,255
 438:	fe0e8ce3          	beqz	x29,430 <.L778>
 43c:	00d7c583          	lbu	x11,13(x15)
 440:	0ff5f813          	andi	x16,x11,255
 444:	fe0806e3          	beqz	x16,430 <.L778>
 448:	00e7c983          	lbu	x19,14(x15)
 44c:	0ff9f493          	andi	x9,x19,255
 450:	fe0480e3          	beqz	x9,430 <.L778>
 454:	00f7c403          	lbu	x8,15(x15)
 458:	0ff47913          	andi	x18,x8,255
 45c:	fc090ae3          	beqz	x18,430 <.L778>
 460:	00078623          	sb	x0,12(x15)
 464:	000786a3          	sb	x0,13(x15)
 468:	00078723          	sb	x0,14(x15)
 46c:	000787a3          	sb	x0,15(x15)
 470:	00000537          	lui	x10,0x0
 474:	0007a423          	sw	x0,8(x15)
 478:	00000f93          	li	x31,0
 47c:	00850b13          	addi	x22,x10,8 # 8 <_Z19tensorlib_copy_implIffEiP11hb_tensor_tS1_+0x8>
 480:	03fc02b7          	lui	x5,0x3fc0
 484:	20000a37          	lui	x20,0x20000
 488:	00100c93          	li	x25,1
 48c:	010003b7          	lui	x7,0x1000
 490:	04000bb7          	lui	x23,0x4000

00000494 <.L782>:
 494:	01271713          	slli	x14,x14,0x12
 498:	01fb6e33          	or	x28,x22,x31
 49c:	00577c33          	and	x24,x14,x5
 4a0:	01cc60b3          	or	x1,x24,x28
 4a4:	0140e333          	or	x6,x1,x20
 4a8:	01932023          	sw	x25,0(x6) # 21040000 <.L1103+0x2103f804>
 4ac:	007f8fb3          	add	x31,x31,x7
 4b0:	00062703          	lw	x14,0(x12)
 4b4:	ff7f90e3          	bne	x31,x23,494 <.L782>
 4b8:	f19702e3          	beq	x14,x25,3bc <.L783>
 4bc:	da9ff06f          	j	264 <.L784>

000004c0 <.L820>:
 4c0:	fff48913          	addi	x18,x9,-1
 4c4:	ffd00b13          	li	x22,-3
 4c8:	d12b64e3          	bltu	x22,x18,1d0 <.L749>
 4cc:	00000a37          	lui	x20,0x0
 4d0:	000a2c83          	lw	x25,0(x20) # 0 <_Z19tensorlib_copy_implIffEiP11hb_tensor_tS1_>
 4d4:	0044d393          	srli	x7,x9,0x4
 4d8:	00138b93          	addi	x23,x7,1 # 1000001 <.L1103+0xfff805>
 4dc:	039b87b3          	mul	x15,x23,x25
 4e0:	00fb8ab3          	add	x21,x23,x15
 4e4:	0d54e263          	bltu	x9,x21,5a8 <.L827>

000004e8 <.L748>:
 4e8:	cf57f4e3          	bgeu	x15,x21,1d0 <.L749>
 4ec:	0008ac03          	lw	x24,0(x17)
 4f0:	00082083          	lw	x1,0(x16) # 100000 <.L1103+0xff804>
 4f4:	40fa85b3          	sub	x11,x21,x15
 4f8:	002c1893          	slli	x17,x24,0x2
 4fc:	00209813          	slli	x16,x1,0x2
 500:	03178733          	mul	x14,x15,x17
 504:	00400993          	li	x19,4
 508:	02f804b3          	mul	x9,x16,x15
 50c:	00ee0733          	add	x14,x28,x14
 510:	00930333          	add	x6,x6,x9
 514:	06b9fc63          	bgeu	x19,x11,58c <.L754>
 518:	ffca8413          	addi	x8,x21,-4 # fffffffc <.L1103+0xfffff800>
 51c:	0687f863          	bgeu	x15,x8,58c <.L754>
 520:	00309513          	slli	x10,x1,0x3
 524:	003c1913          	slli	x18,x24,0x3
 528:	004c1b13          	slli	x22,x24,0x4
 52c:	00409293          	slli	x5,x1,0x4
 530:	00070e13          	mv	x28,x14
 534:	00a30c33          	add	x24,x6,x10
 538:	012700b3          	add	x1,x14,x18

0000053c <.L753>:
 53c:	00032607          	flw	f12,0(x6)
 540:	01030a33          	add	x20,x6,x16
 544:	000a2687          	flw	f13,0(x20)
 548:	000c2707          	flw	f14,0(x24) # c0000000 <.L1103+0xbffff804>
 54c:	010c0cb3          	add	x25,x24,x16
 550:	000ca107          	flw	f2,0(x25)
 554:	011e03b3          	add	x7,x28,x17
 558:	00ce2027          	fsw	f12,0(x28)
 55c:	00d3a027          	fsw	f13,0(x7)
 560:	00e0a027          	fsw	f14,0(x1)
 564:	01108bb3          	add	x23,x1,x17
 568:	016e0733          	add	x14,x28,x22
 56c:	002ba027          	fsw	f2,0(x23) # 4000000 <.L1103+0x3fff804>
 570:	00478793          	addi	x15,x15,4
 574:	00070e13          	mv	x28,x14
 578:	00530333          	add	x6,x6,x5
 57c:	005c0c33          	add	x24,x24,x5
 580:	016080b3          	add	x1,x1,x22
 584:	fa87ece3          	bltu	x15,x8,53c <.L753>
 588:	c557f4e3          	bgeu	x15,x21,1d0 <.L749>

0000058c <.L754>:
 58c:	00032187          	flw	f3,0(x6)
 590:	00178793          	addi	x15,x15,1
 594:	01030333          	add	x6,x6,x16
 598:	00372027          	fsw	f3,0(x14)
 59c:	01170733          	add	x14,x14,x17
 5a0:	ff57e6e3          	bltu	x15,x21,58c <.L754>
 5a4:	c2dff06f          	j	1d0 <.L749>

000005a8 <.L827>:
 5a8:	00048a93          	mv	x21,x9
 5ac:	f3dff06f          	j	4e8 <.L748>

000005b0 <.L790>:
 5b0:	00030b13          	mv	x22,x6
 5b4:	c0dff06f          	j	1c0 <.L770>

000005b8 <.L789>:
 5b8:	000e0713          	mv	x14,x28
 5bc:	bc5ff06f          	j	180 <.L768>

000005c0 <.L822>:
 5c0:	0043a283          	lw	x5,4(x7)
 5c4:	0003a083          	lw	x1,0(x7)
 5c8:	ffd00993          	li	x19,-3
 5cc:	02128ab3          	mul	x21,x5,x1
 5d0:	fffa8a13          	addi	x20,x21,-1
 5d4:	bf49eee3          	bltu	x19,x20,1d0 <.L749>
 5d8:	00000737          	lui	x14,0x0
 5dc:	00072c83          	lw	x25,0(x14) # 0 <_Z19tensorlib_copy_implIffEiP11hb_tensor_tS1_>
 5e0:	004ad513          	srli	x10,x21,0x4
 5e4:	00150b93          	addi	x23,x10,1
 5e8:	039b8533          	mul	x10,x23,x25
 5ec:	00ab84b3          	add	x9,x23,x10
 5f0:	0a9ae463          	bltu	x21,x9,698 <.L828>

000005f4 <.L762>:
 5f4:	bc957ee3          	bgeu	x10,x9,1d0 <.L749>
 5f8:	00492403          	lw	x8,4(x18) # 3f000004 <.L1103+0x3efff808>
 5fc:	0048ac03          	lw	x24,4(x17)
 600:	0008a083          	lw	x1,0(x17)
 604:	00482983          	lw	x19,4(x16)
 608:	00082903          	lw	x18,0(x16)
 60c:	0083a383          	lw	x7,8(x7)

00000610 <.L764>:
 610:	025575b3          	remu	x11,x10,x5
 614:	02555ab3          	divu	x21,x10,x5
 618:	028577b3          	remu	x15,x10,x8
 61c:	02855b33          	divu	x22,x10,x8
 620:	021a8733          	mul	x14,x21,x1
 624:	03858a33          	mul	x20,x11,x24
 628:	032b0ab3          	mul	x21,x22,x18
 62c:	00ea0bb3          	add	x23,x20,x14
 630:	002b9593          	slli	x11,x23,0x2
 634:	00be0733          	add	x14,x28,x11
 638:	03378cb3          	mul	x25,x15,x19
 63c:	015c87b3          	add	x15,x25,x21
 640:	00279b13          	slli	x22,x15,0x2
 644:	016307b3          	add	x15,x6,x22
 648:	02038863          	beqz	x7,678 <.L766>
 64c:	0088aa03          	lw	x20,8(x17)
 650:	00882c83          	lw	x25,8(x16)
 654:	00000593          	li	x11,0
 658:	002a1b93          	slli	x23,x20,0x2
 65c:	002c9a93          	slli	x21,x25,0x2

00000660 <.L765>:
 660:	0007a007          	flw	f0,0(x15)
 664:	00158593          	addi	x11,x11,1 # 20040001 <.L1103+0x2003f805>
 668:	015787b3          	add	x15,x15,x21
 66c:	00072027          	fsw	f0,0(x14)
 670:	01770733          	add	x14,x14,x23
 674:	feb396e3          	bne	x7,x11,660 <.L765>

00000678 <.L766>:
 678:	00150513          	addi	x10,x10,1
 67c:	f8a49ae3          	bne	x9,x10,610 <.L764>
 680:	b51ff06f          	j	1d0 <.L749>

00000684 <.L823>:
 684:	00048093          	mv	x1,x9
 688:	aa1ff06f          	j	128 <.L767>

0000068c <.L825>:
 68c:	00028b13          	mv	x22,x5
 690:	c76460e3          	bltu	x8,x22,2f0 <.L829>
 694:	b3dff06f          	j	1d0 <.L749>

00000698 <.L828>:
 698:	000a8493          	mv	x9,x21
 69c:	f59ff06f          	j	5f4 <.L762>

Disassembly of section .text._ZN8HBTensorIdLln1EEC2EP11hb_tensor_t:

00000000 <_ZN8HBTensorIdLln1EEC1EP11hb_tensor_t>:
   0:	00058713          	mv	x14,x11
   4:	0045a683          	lw	x13,4(x11)
   8:	00072803          	lw	x16,0(x14)
   c:	0105a583          	lw	x11,16(x11)
  10:	00050793          	mv	x15,x10
  14:	02850613          	addi	x12,x10,40
  18:	01450513          	addi	x10,x10,20
  1c:	0107a023          	sw	x16,0(x15)
  20:	00d7a223          	sw	x13,4(x15)
  24:	00a7a423          	sw	x10,8(x15)
  28:	00c7a623          	sw	x12,12(x15)
  2c:	00b7a823          	sw	x11,16(x15)
  30:	00060613          	mv	x12,x12
  34:	00500293          	li	x5,5
  38:	04d2e463          	bltu	x5,x13,80 <.L843>
  3c:	00872303          	lw	x6,8(x14)
  40:	00c72383          	lw	x7,12(x14)
  44:	02068c63          	beqz	x13,7c <.L831>
  48:	00269893          	slli	x17,x13,0x2
  4c:	00078713          	mv	x14,x15
  50:	01178e33          	add	x28,x15,x17
  54:	40f30eb3          	sub	x29,x6,x15
  58:	40f38f33          	sub	x30,x7,x15

0000005c <.L835>:
  5c:	00ee8fb3          	add	x31,x29,x14
  60:	000fa683          	lw	x13,0(x31)
  64:	00ef05b3          	add	x11,x30,x14
  68:	00470713          	addi	x14,x14,4
  6c:	00d72823          	sw	x13,16(x14)
  70:	0005a803          	lw	x16,0(x11)
  74:	03072223          	sw	x16,36(x14)
  78:	ffc712e3          	bne	x14,x28,5c <.L835>

0000007c <.L831>:
  7c:	00008067          	ret

00000080 <.L843>:
  80:	ff010113          	addi	x2,x2,-16
  84:	000007b7          	lui	x15,0x0
  88:	00112623          	sw	x1,12(x2)
  8c:	000000b7          	lui	x1,0x0
  90:	0cb00613          	li	x12,203
  94:	00008593          	mv	x11,x1
  98:	00078513          	mv	x10,x15
  9c:	00000097          	auipc	x1,0x0
  a0:	000080e7          	jalr	x1 # 9c <.L843+0x1c>
  a4:	00000637          	lui	x12,0x0
  a8:	00060513          	mv	x10,x12
  ac:	00000097          	auipc	x1,0x0
  b0:	000080e7          	jalr	x1 # ac <.L843+0x2c>
  b4:	00000537          	lui	x10,0x0
  b8:	00052283          	lw	x5,0(x10) # 0 <_ZN8HBTensorIdLln1EEC1EP11hb_tensor_t>
  bc:	00000337          	lui	x6,0x0
  c0:	00032383          	lw	x7,0(x6) # 0 <_ZN8HBTensorIdLln1EEC1EP11hb_tensor_t>
  c4:	01029893          	slli	x17,x5,0x10
  c8:	4100feb7          	lui	x29,0x4100f
  cc:	00788e33          	add	x28,x17,x7
  d0:	adceac23          	sw	x28,-1320(x29) # 4100ead8 <.L1103+0x4100e2dc>

000000d4 <.L833>:
  d4:	0000006f          	j	d4 <.L833>

Disassembly of section .text._Z19tensorlib_copy_implIidEiP11hb_tensor_tS1_:

00000000 <_Z19tensorlib_copy_implIidEiP11hb_tensor_tS1_>:
   0:	f1010113          	addi	x2,x2,-240
   4:	00050793          	mv	x15,x10
   8:	0e812423          	sw	x8,232(x2)
   c:	03810513          	addi	x10,x2,56
  10:	00058413          	mv	x8,x11
  14:	00078593          	mv	x11,x15
  18:	0e112623          	sw	x1,236(x2)
  1c:	0e912223          	sw	x9,228(x2)
  20:	0f212023          	sw	x18,224(x2)
  24:	0d312e23          	sw	x19,220(x2)
  28:	0d412c23          	sw	x20,216(x2)
  2c:	0d512a23          	sw	x21,212(x2)
  30:	0d612823          	sw	x22,208(x2)
  34:	0d712623          	sw	x23,204(x2)
  38:	0d812423          	sw	x24,200(x2)
  3c:	0d912223          	sw	x25,196(x2)
  40:	0da12023          	sw	x26,192(x2)
  44:	0bb12e23          	sw	x27,188(x2)
  48:	00000097          	auipc	x1,0x0
  4c:	000080e7          	jalr	x1 # 48 <_Z19tensorlib_copy_implIidEiP11hb_tensor_tS1_+0x48>
  50:	00040593          	mv	x11,x8
  54:	07410513          	addi	x10,x2,116
  58:	00000097          	auipc	x1,0x0
  5c:	000080e7          	jalr	x1 # 58 <_Z19tensorlib_copy_implIidEiP11hb_tensor_tS1_+0x58>
  60:	00000b37          	lui	x22,0x0
  64:	00000437          	lui	x8,0x0
  68:	000004b7          	lui	x9,0x0
  6c:	00000737          	lui	x14,0x0
  70:	000b2283          	lw	x5,0(x22) # 0 <_Z19tensorlib_copy_implIidEiP11hb_tensor_tS1_>
  74:	00042583          	lw	x11,0(x8) # 0 <_Z19tensorlib_copy_implIidEiP11hb_tensor_tS1_>
  78:	00072303          	lw	x6,0(x14) # 0 <_Z19tensorlib_copy_implIidEiP11hb_tensor_tS1_>
  7c:	0004a603          	lw	x12,0(x9) # 0 <_Z19tensorlib_copy_implIidEiP11hb_tensor_tS1_>
  80:	000006b7          	lui	x13,0x0
  84:	0006a383          	lw	x7,0(x13) # 0 <_Z19tensorlib_copy_implIidEiP11hb_tensor_tS1_>
  88:	00b28533          	add	x10,x5,x11
  8c:	00c30833          	add	x16,x6,x12
  90:	01281913          	slli	x18,x16,0x12
  94:	3f0009b7          	lui	x19,0x3f000
  98:	00fc0ab7          	lui	x21,0xfc0
  9c:	01851893          	slli	x17,x10,0x18
  a0:	00040d37          	lui	x26,0x40
  a4:	0138fa33          	and	x20,x17,x19
  a8:	01597bb3          	and	x23,x18,x21
  ac:	ff0d0d93          	addi	x27,x26,-16 # 3fff0 <.L1103+0x3f7f4>
  b0:	00439c13          	slli	x24,x7,0x4
  b4:	017a6cb3          	or	x25,x20,x23
  b8:	01bc7e33          	and	x28,x24,x27
  bc:	01cceeb3          	or	x29,x25,x28
  c0:	03c12d83          	lw	x27,60(x2)
  c4:	80000f37          	lui	x30,0x80000
  c8:	01eeefb3          	or	x31,x29,x30
  cc:	410017b7          	lui	x15,0x41001
  d0:	d1f7a623          	sw	x31,-756(x15) # 41000d0c <.L1103+0x41000510>
  d4:	00100293          	li	x5,1
  d8:	03812583          	lw	x11,56(x2)
  dc:	04012a83          	lw	x21,64(x2)
  e0:	04812983          	lw	x19,72(x2)
  e4:	07c12a03          	lw	x20,124(x2)
  e8:	08412903          	lw	x18,132(x2)
  ec:	445d8a63          	beq	x27,x5,540 <.L921>
  f0:	00200093          	li	x1,2
  f4:	04412303          	lw	x6,68(x2)
  f8:	201d8663          	beq	x27,x1,304 <.L922>
  fc:	00300713          	li	x14,3
 100:	08012c03          	lw	x24,128(x2)
 104:	5aed8663          	beq	x27,x14,6b0 <.L923>
 108:	fff58613          	addi	x12,x11,-1
 10c:	ffd00693          	li	x13,-3
 110:	0ec6ea63          	bltu	x13,x12,204 <.L850>
 114:	000003b7          	lui	x7,0x0
 118:	0003a503          	lw	x10,0(x7) # 0 <_Z19tensorlib_copy_implIidEiP11hb_tensor_tS1_>
 11c:	0045d813          	srli	x16,x11,0x4
 120:	00180893          	addi	x17,x16,1
 124:	02a88cb3          	mul	x25,x17,x10
 128:	01988bb3          	add	x23,x17,x25
 12c:	6b75e263          	bltu	x11,x23,7d0 <.L924>

00000130 <.L868>:
 130:	0d7cfa63          	bgeu	x25,x23,204 <.L850>
 134:	07812e03          	lw	x28,120(x2)
 138:	002d9d13          	slli	x26,x27,0x2
 13c:	01a30eb3          	add	x29,x6,x26
 140:	002e1f13          	slli	x30,x28,0x2
 144:	01ec0fb3          	add	x31,x24,x30
 148:	01c12a23          	sw	x28,20(x2)
 14c:	01d12623          	sw	x29,12(x2)
 150:	01f12823          	sw	x31,16(x2)

00000154 <.L873>:
 154:	540d8a63          	beqz	x27,6a8 <.L890>
 158:	000a8393          	mv	x7,x21
 15c:	00030713          	mv	x14,x6
 160:	000c8593          	mv	x11,x25
 164:	00000793          	li	x15,0

00000168 <.L870>:
 168:	00072283          	lw	x5,0(x14)
 16c:	0003a083          	lw	x1,0(x7)
 170:	00c12503          	lw	x10,12(x2)
 174:	0255f633          	remu	x12,x11,x5
 178:	00470713          	addi	x14,x14,4
 17c:	00438393          	addi	x7,x7,4
 180:	021606b3          	mul	x13,x12,x1
 184:	0255d5b3          	divu	x11,x11,x5
 188:	00d787b3          	add	x15,x15,x13
 18c:	fce51ee3          	bne	x10,x14,168 <.L870>
 190:	00379813          	slli	x16,x15,0x3
 194:	01098d33          	add	x26,x19,x16

00000198 <.L869>:
 198:	01412883          	lw	x17,20(x2)
 19c:	50088263          	beqz	x17,6a0 <.L891>
 1a0:	000a0093          	mv	x1,x20
 1a4:	000c0293          	mv	x5,x24
 1a8:	000c8613          	mv	x12,x25
 1ac:	00000393          	li	x7,0

000001b0 <.L872>:
 1b0:	0002af03          	lw	x30,0(x5) # 3fc0000 <.L1103+0x3fbf804>
 1b4:	0000af83          	lw	x31,0(x1)
 1b8:	01012683          	lw	x13,16(x2)
 1bc:	00428293          	addi	x5,x5,4
 1c0:	00408093          	addi	x1,x1,4
 1c4:	03e67eb3          	remu	x29,x12,x30
 1c8:	03fe8733          	mul	x14,x29,x31
 1cc:	03e65633          	divu	x12,x12,x30
 1d0:	00e383b3          	add	x7,x7,x14
 1d4:	fc569ee3          	bne	x13,x5,1b0 <.L872>
 1d8:	00239593          	slli	x11,x7,0x2
 1dc:	00b90e33          	add	x28,x18,x11

000001e0 <.L871>:
 1e0:	000e2503          	lw	x10,0(x28)
 1e4:	00612423          	sw	x6,8(x2)
 1e8:	001c8c93          	addi	x25,x25,1
 1ec:	00000097          	auipc	x1,0x0
 1f0:	000080e7          	jalr	x1 # 1ec <.L871+0xc>
 1f4:	00ad2023          	sw	x10,0(x26)
 1f8:	00bd2223          	sw	x11,4(x26)
 1fc:	00812303          	lw	x6,8(x2)
 200:	f59b9ae3          	bne	x23,x25,154 <.L873>

00000204 <.L850>:
 204:	00000c37          	lui	x24,0x0
 208:	000c2703          	lw	x14,0(x24) # 0 <_Z19tensorlib_copy_implIidEiP11hb_tensor_tS1_>
 20c:	000b2b03          	lw	x22,0(x22)
 210:	00042083          	lw	x1,0(x8)
 214:	0004ad03          	lw	x26,0(x9)
 218:	00000cb7          	lui	x25,0x0
 21c:	000ca683          	lw	x13,0(x25) # 0 <_Z19tensorlib_copy_implIidEiP11hb_tensor_tS1_>
 220:	001b05b3          	add	x11,x22,x1
 224:	01a70833          	add	x16,x14,x26
 228:	01859313          	slli	x6,x11,0x18
 22c:	01281893          	slli	x17,x16,0x12
 230:	3f0007b7          	lui	x15,0x3f000
 234:	00fc0f37          	lui	x30,0xfc0
 238:	00040eb7          	lui	x29,0x40
 23c:	00f37e33          	and	x28,x6,x15
 240:	00469513          	slli	x10,x13,0x4
 244:	01e8ffb3          	and	x31,x17,x30
 248:	ff0e8993          	addi	x19,x29,-16 # 3fff0 <.L1103+0x3f7f4>
 24c:	01fe62b3          	or	x5,x28,x31
 250:	01357633          	and	x12,x10,x19
 254:	00c2edb3          	or	x27,x5,x12
 258:	c0000ab7          	lui	x21,0xc0000
 25c:	015de3b3          	or	x7,x27,x21
 260:	41001bb7          	lui	x23,0x41001
 264:	d07ba623          	sw	x7,-756(x23) # 41000d0c <.L1103+0x41000510>
 268:	0004a903          	lw	x18,0(x9)
 26c:	00042a03          	lw	x20,0(x8)
 270:	00000b37          	lui	x22,0x0
 274:	00490093          	addi	x1,x18,4
 278:	000b0793          	mv	x15,x22
 27c:	00178c33          	add	x24,x15,x1
 280:	018a1713          	slli	x14,x20,0x18
 284:	00ec6d33          	or	x26,x24,x14
 288:	20040cb7          	lui	x25,0x20040
 28c:	019d66b3          	or	x13,x26,x25
 290:	00100593          	li	x11,1
 294:	00b68023          	sb	x11,0(x13)
 298:	0004a803          	lw	x16,0(x9)
 29c:	14b80263          	beq	x16,x11,3e0 <.L874>

000002a0 <.L885>:
 2a0:	00100413          	li	x8,1
 2a4:	0100006f          	j	2b4 <.L889>

000002a8 <.L925>:
 2a8:	000b0293          	mv	x5,x22
 2ac:	1402a72f          	lr.w.aq	x14,(x5)
 2b0:	00870863          	beq	x14,x8,2c0 <.L888>

000002b4 <.L889>:
 2b4:	000b0513          	mv	x10,x22
 2b8:	100528af          	lr.w	x17,(x10)
 2bc:	fe8896e3          	bne	x17,x8,2a8 <.L925>

000002c0 <.L888>:
 2c0:	0ec12083          	lw	x1,236(x2)
 2c4:	0e812403          	lw	x8,232(x2)
 2c8:	0007a023          	sw	x0,0(x15) # 3f000000 <.L1103+0x3efff804>
 2cc:	0e412483          	lw	x9,228(x2)
 2d0:	0e012903          	lw	x18,224(x2)
 2d4:	0dc12983          	lw	x19,220(x2)
 2d8:	0d812a03          	lw	x20,216(x2)
 2dc:	0d412a83          	lw	x21,212(x2)
 2e0:	0d012b03          	lw	x22,208(x2)
 2e4:	0cc12b83          	lw	x23,204(x2)
 2e8:	0c812c03          	lw	x24,200(x2)
 2ec:	0c412c83          	lw	x25,196(x2)
 2f0:	0c012d03          	lw	x26,192(x2)
 2f4:	0bc12d83          	lw	x27,188(x2)
 2f8:	00000513          	li	x10,0
 2fc:	0f010113          	addi	x2,x2,240
 300:	00008067          	ret

00000304 <.L922>:
 304:	00032d03          	lw	x26,0(x6)
 308:	ffd00c93          	li	x25,-3
 30c:	fffd0c13          	addi	x24,x26,-1
 310:	ef8ceae3          	bltu	x25,x24,204 <.L850>
 314:	000008b7          	lui	x17,0x0
 318:	0008ae03          	lw	x28,0(x17) # 0 <_Z19tensorlib_copy_implIidEiP11hb_tensor_tS1_>
 31c:	004d5f13          	srli	x30,x26,0x4
 320:	001f0f93          	addi	x31,x30,1 # fc0001 <.L1103+0xfbf805>
 324:	03cf8bb3          	mul	x23,x31,x28
 328:	017f82b3          	add	x5,x31,x23
 32c:	00512823          	sw	x5,16(x2)
 330:	4a5d6463          	bltu	x26,x5,7d8 <.L926>

00000334 <.L857>:
 334:	01012e83          	lw	x29,16(x2)
 338:	eddbf6e3          	bgeu	x23,x29,204 <.L850>
 33c:	000a2083          	lw	x1,0(x20)
 340:	000aa603          	lw	x12,0(x21) # c0000000 <.L1103+0xbffff804>
 344:	00432503          	lw	x10,4(x6)
 348:	00209393          	slli	x7,x1,0x2
 34c:	00361713          	slli	x14,x12,0x3
 350:	027b85b3          	mul	x11,x23,x7
 354:	00712c23          	sw	x7,24(x2)
 358:	00e12a23          	sw	x14,20(x2)
 35c:	02eb86b3          	mul	x13,x23,x14
 360:	00b90cb3          	add	x25,x18,x11
 364:	00d98c33          	add	x24,x19,x13

00000368 <.L859>:
 368:	000c8793          	mv	x15,x25
 36c:	04050a63          	beqz	x10,3c0 <.L861>
 370:	004aa903          	lw	x18,4(x21)
 374:	004a2803          	lw	x16,4(x20)
 378:	000c0993          	mv	x19,x24
 37c:	00391913          	slli	x18,x18,0x3
 380:	00281d93          	slli	x27,x16,0x2
 384:	00000d13          	li	x26,0

00000388 <.L860>:
 388:	00a12623          	sw	x10,12(x2)
 38c:	0007a503          	lw	x10,0(x15)
 390:	01b78333          	add	x6,x15,x27
 394:	00612423          	sw	x6,8(x2)
 398:	00612e23          	sw	x6,28(x2)
 39c:	00000097          	auipc	x1,0x0
 3a0:	000080e7          	jalr	x1 # 39c <.L860+0x14>
 3a4:	00a9a023          	sw	x10,0(x19) # 3f000000 <.L1103+0x3efff804>
 3a8:	00c12503          	lw	x10,12(x2)
 3ac:	00b9a223          	sw	x11,4(x19)
 3b0:	001d0d13          	addi	x26,x26,1
 3b4:	00812783          	lw	x15,8(x2)
 3b8:	012989b3          	add	x19,x19,x18
 3bc:	fda516e3          	bne	x10,x26,388 <.L860>

000003c0 <.L861>:
 3c0:	01812883          	lw	x17,24(x2)
 3c4:	01412e03          	lw	x28,20(x2)
 3c8:	01012f03          	lw	x30,16(x2)
 3cc:	001b8b93          	addi	x23,x23,1
 3d0:	011c8cb3          	add	x25,x25,x17
 3d4:	01cc0c33          	add	x24,x24,x28
 3d8:	f97f18e3          	bne	x30,x23,368 <.L859>
 3dc:	e29ff06f          	j	204 <.L850>

000003e0 <.L874>:
 3e0:	0047c303          	lbu	x6,4(x15)
 3e4:	0ff37893          	andi	x17,x6,255
 3e8:	fe088ce3          	beqz	x17,3e0 <.L874>
 3ec:	0057ce03          	lbu	x28,5(x15)
 3f0:	0ffe7f13          	andi	x30,x28,255
 3f4:	fe0f06e3          	beqz	x30,3e0 <.L874>
 3f8:	0067cf83          	lbu	x31,6(x15)
 3fc:	0ffff513          	andi	x10,x31,255
 400:	fe0500e3          	beqz	x10,3e0 <.L874>
 404:	0077c283          	lbu	x5,7(x15)
 408:	0ff2fe93          	andi	x29,x5,255
 40c:	fc0e8ae3          	beqz	x29,3e0 <.L874>
 410:	00042983          	lw	x19,0(x8)
 414:	210403b7          	lui	x7,0x21040
 418:	00100613          	li	x12,1
 41c:	00c98d93          	addi	x27,x19,12
 420:	01b78ab3          	add	x21,x15,x27
 424:	007aebb3          	or	x23,x21,x7
 428:	00cb8023          	sb	x12,0(x23)
 42c:	0004a903          	lw	x18,0(x9)
 430:	e6c918e3          	bne	x18,x12,2a0 <.L885>
 434:	00042383          	lw	x7,0(x8)
 438:	07238c63          	beq	x7,x18,4b0 <.L879>

0000043c <.L884>:
 43c:	00100493          	li	x9,1
 440:	0100006f          	j	450 <.L878>

00000444 <.L927>:
 444:	00878a13          	addi	x20,x15,8
 448:	140a20af          	lr.w.aq	x1,(x20)
 44c:	00908863          	beq	x1,x9,45c <.L886>

00000450 <.L878>:
 450:	00878b93          	addi	x23,x15,8
 454:	100ba92f          	lr.w	x18,(x23)
 458:	fe9916e3          	bne	x18,x9,444 <.L927>

0000045c <.L886>:
 45c:	0007a423          	sw	x0,8(x15)
 460:	00078223          	sb	x0,4(x15)
 464:	000782a3          	sb	x0,5(x15)
 468:	00078323          	sb	x0,6(x15)
 46c:	000783a3          	sb	x0,7(x15)
 470:	0007a023          	sw	x0,0(x15)
 474:	00000313          	li	x6,0
 478:	000b0793          	mv	x15,x22
 47c:	20000c37          	lui	x24,0x20000
 480:	00100d13          	li	x26,1
 484:	00040cb7          	lui	x25,0x40
 488:	001006b7          	lui	x13,0x100

0000048c <.L887>:
 48c:	00042803          	lw	x16,0(x8)
 490:	0067e5b3          	or	x11,x15,x6
 494:	01930333          	add	x6,x6,x25
 498:	01881f13          	slli	x30,x16,0x18
 49c:	00bf6e33          	or	x28,x30,x11
 4a0:	018e6fb3          	or	x31,x28,x24
 4a4:	01afa023          	sw	x26,0(x31)
 4a8:	fed312e3          	bne	x6,x13,48c <.L887>
 4ac:	df5ff06f          	j	2a0 <.L885>

000004b0 <.L879>:
 4b0:	00c7ca03          	lbu	x20,12(x15)
 4b4:	0ffa7093          	andi	x1,x20,255
 4b8:	fe008ce3          	beqz	x1,4b0 <.L879>
 4bc:	00d7cc03          	lbu	x24,13(x15)
 4c0:	0ffc7d13          	andi	x26,x24,255
 4c4:	fe0d06e3          	beqz	x26,4b0 <.L879>
 4c8:	00e7cc83          	lbu	x25,14(x15)
 4cc:	0ffcf693          	andi	x13,x25,255
 4d0:	fe0680e3          	beqz	x13,4b0 <.L879>
 4d4:	00f7c583          	lbu	x11,15(x15)
 4d8:	0ff5f813          	andi	x16,x11,255
 4dc:	fc080ae3          	beqz	x16,4b0 <.L879>
 4e0:	00078623          	sb	x0,12(x15)
 4e4:	000786a3          	sb	x0,13(x15)
 4e8:	00078723          	sb	x0,14(x15)
 4ec:	000787a3          	sb	x0,15(x15)
 4f0:	00000337          	lui	x6,0x0
 4f4:	0007a423          	sw	x0,8(x15)
 4f8:	00000a93          	li	x21,0
 4fc:	00830f13          	addi	x30,x6,8 # 8 <_Z19tensorlib_copy_implIidEiP11hb_tensor_tS1_+0x8>
 500:	03fc0e37          	lui	x28,0x3fc0
 504:	20000fb7          	lui	x31,0x20000
 508:	00100513          	li	x10,1
 50c:	010008b7          	lui	x17,0x1000
 510:	040002b7          	lui	x5,0x4000

00000514 <.L883>:
 514:	01239713          	slli	x14,x7,0x12
 518:	015f6eb3          	or	x29,x30,x21
 51c:	01c779b3          	and	x19,x14,x28
 520:	01d9e633          	or	x12,x19,x29
 524:	01f66db3          	or	x27,x12,x31
 528:	00ada023          	sw	x10,0(x27)
 52c:	011a8ab3          	add	x21,x21,x17
 530:	0004a383          	lw	x7,0(x9)
 534:	fe5a90e3          	bne	x21,x5,514 <.L883>
 538:	f0a382e3          	beq	x7,x10,43c <.L884>
 53c:	d65ff06f          	j	2a0 <.L885>

00000540 <.L921>:
 540:	fff58f93          	addi	x31,x11,-1
 544:	ffd00293          	li	x5,-3
 548:	cbf2eee3          	bltu	x5,x31,204 <.L850>
 54c:	00000eb7          	lui	x29,0x0
 550:	000ea083          	lw	x1,0(x29) # 0 <_Z19tensorlib_copy_implIidEiP11hb_tensor_tS1_>
 554:	0045d613          	srli	x12,x11,0x4
 558:	00160393          	addi	x7,x12,1 # 1 <_Z19tensorlib_copy_implIidEiP11hb_tensor_tS1_+0x1>
 55c:	02138bb3          	mul	x23,x7,x1
 560:	01738c33          	add	x24,x7,x23
 564:	1385ea63          	bltu	x11,x24,698 <.L928>

00000568 <.L849>:
 568:	c98bfee3          	bgeu	x23,x24,204 <.L850>
 56c:	000a2d83          	lw	x27,0(x20)
 570:	000aaa83          	lw	x21,0(x21)
 574:	417c0733          	sub	x14,x24,x23
 578:	002d9c93          	slli	x25,x27,0x2
 57c:	003a9d13          	slli	x26,x21,0x3
 580:	03ab8a33          	mul	x20,x23,x26
 584:	00400693          	li	x13,4
 588:	037c85b3          	mul	x11,x25,x23
 58c:	01498a33          	add	x20,x19,x20
 590:	00b90933          	add	x18,x18,x11
 594:	0ce6fe63          	bgeu	x13,x14,670 <.L855>
 598:	ffcc0813          	addi	x16,x24,-4 # 1ffffffc <.L1103+0x1ffff800>
 59c:	01012c23          	sw	x16,24(x2)
 5a0:	0d0bf863          	bgeu	x23,x16,670 <.L855>
 5a4:	003d9313          	slli	x6,x27,0x3
 5a8:	004a9793          	slli	x15,x21,0x4
 5ac:	005a9e93          	slli	x29,x21,0x5
 5b0:	004d9613          	slli	x12,x27,0x4
 5b4:	000a0993          	mv	x19,x20
 5b8:	00690db3          	add	x27,x18,x6
 5bc:	00fa0ab3          	add	x21,x20,x15

000005c0 <.L854>:
 5c0:	01990533          	add	x10,x18,x25
 5c4:	00052883          	lw	x17,0(x10)
 5c8:	000daf03          	lw	x30,0(x27)
 5cc:	00092503          	lw	x10,0(x18)
 5d0:	019d8e33          	add	x28,x27,x25
 5d4:	000e2a03          	lw	x20,0(x28) # 3fc0000 <.L1103+0x3fbf804>
 5d8:	01d12a23          	sw	x29,20(x2)
 5dc:	00c12823          	sw	x12,16(x2)
 5e0:	01112623          	sw	x17,12(x2)
 5e4:	01e12423          	sw	x30,8(x2)
 5e8:	00000097          	auipc	x1,0x0
 5ec:	000080e7          	jalr	x1 # 5e8 <.L854+0x28>
 5f0:	00a9a023          	sw	x10,0(x19)
 5f4:	00c12503          	lw	x10,12(x2)
 5f8:	00b9a223          	sw	x11,4(x19)
 5fc:	004b8b93          	addi	x23,x23,4
 600:	00000097          	auipc	x1,0x0
 604:	000080e7          	jalr	x1 # 600 <.L854+0x40>
 608:	01a98fb3          	add	x31,x19,x26
 60c:	00afa023          	sw	x10,0(x31) # 20000000 <.L1103+0x1ffff804>
 610:	00812503          	lw	x10,8(x2)
 614:	00bfa223          	sw	x11,4(x31)
 618:	00000097          	auipc	x1,0x0
 61c:	000080e7          	jalr	x1 # 618 <.L854+0x58>
 620:	00aaa023          	sw	x10,0(x21)
 624:	01aa82b3          	add	x5,x21,x26
 628:	00baa223          	sw	x11,4(x21)
 62c:	000a0513          	mv	x10,x20
 630:	00512423          	sw	x5,8(x2)
 634:	00000097          	auipc	x1,0x0
 638:	000080e7          	jalr	x1 # 634 <.L854+0x74>
 63c:	01412e83          	lw	x29,20(x2)
 640:	01012603          	lw	x12,16(x2)
 644:	01812383          	lw	x7,24(x2)
 648:	01d98a33          	add	x20,x19,x29
 64c:	00812983          	lw	x19,8(x2)
 650:	00c90933          	add	x18,x18,x12
 654:	00cd8db3          	add	x27,x27,x12
 658:	00a9a023          	sw	x10,0(x19)
 65c:	00b9a223          	sw	x11,4(x19)
 660:	01da8ab3          	add	x21,x21,x29
 664:	000a0993          	mv	x19,x20
 668:	f47bece3          	bltu	x23,x7,5c0 <.L854>
 66c:	b98bfce3          	bgeu	x23,x24,204 <.L850>

00000670 <.L855>:
 670:	00092503          	lw	x10,0(x18)
 674:	001b8b93          	addi	x23,x23,1
 678:	01990933          	add	x18,x18,x25
 67c:	00000097          	auipc	x1,0x0
 680:	000080e7          	jalr	x1 # 67c <.L855+0xc>
 684:	00aa2023          	sw	x10,0(x20)
 688:	00ba2223          	sw	x11,4(x20)
 68c:	01aa0a33          	add	x20,x20,x26
 690:	ff8be0e3          	bltu	x23,x24,670 <.L855>
 694:	b71ff06f          	j	204 <.L850>

00000698 <.L928>:
 698:	00058c13          	mv	x24,x11
 69c:	ecdff06f          	j	568 <.L849>

000006a0 <.L891>:
 6a0:	00090e13          	mv	x28,x18
 6a4:	b3dff06f          	j	1e0 <.L871>

000006a8 <.L890>:
 6a8:	00098d13          	mv	x26,x19
 6ac:	aedff06f          	j	198 <.L869>

000006b0 <.L923>:
 6b0:	00432d03          	lw	x26,4(x6)
 6b4:	00032d83          	lw	x27,0(x6)
 6b8:	ffd00b93          	li	x23,-3
 6bc:	03bd07b3          	mul	x15,x26,x27
 6c0:	fff78513          	addi	x10,x15,-1
 6c4:	b4abe0e3          	bltu	x23,x10,204 <.L850>
 6c8:	00000837          	lui	x16,0x0
 6cc:	00082883          	lw	x17,0(x16) # 0 <_Z19tensorlib_copy_implIidEiP11hb_tensor_tS1_>
 6d0:	0047de13          	srli	x28,x15,0x4
 6d4:	001e0f13          	addi	x30,x28,1
 6d8:	031f0db3          	mul	x27,x30,x17
 6dc:	01bf0fb3          	add	x31,x30,x27
 6e0:	01f12c23          	sw	x31,24(x2)
 6e4:	0ff7ee63          	bltu	x15,x31,7e0 <.L929>

000006e8 <.L863>:
 6e8:	01812283          	lw	x5,24(x2)
 6ec:	b05dfce3          	bgeu	x27,x5,204 <.L850>
 6f0:	004c2c83          	lw	x25,4(x24)
 6f4:	004a2c03          	lw	x24,4(x20)
 6f8:	004aae83          	lw	x29,4(x21)
 6fc:	000aa083          	lw	x1,0(x21)
 700:	000a2703          	lw	x14,0(x20)
 704:	03812223          	sw	x24,36(x2)
 708:	00832c03          	lw	x24,8(x6)
 70c:	01d12e23          	sw	x29,28(x2)
 710:	02112023          	sw	x1,32(x2)
 714:	02e12423          	sw	x14,40(x2)

00000718 <.L865>:
 718:	03adf633          	remu	x12,x27,x26
 71c:	01c12683          	lw	x13,28(x2)
 720:	02012783          	lw	x15,32(x2)
 724:	02412803          	lw	x16,36(x2)
 728:	02812f83          	lw	x31,40(x2)
 72c:	03add3b3          	divu	x7,x27,x26
 730:	039df333          	remu	x6,x27,x25
 734:	039dd5b3          	divu	x11,x27,x25
 738:	02d60bb3          	mul	x23,x12,x13
 73c:	02f38533          	mul	x10,x7,x15
 740:	030308b3          	mul	x17,x6,x16
 744:	00ab8e33          	add	x28,x23,x10
 748:	003e1f13          	slli	x30,x28,0x3
 74c:	01e986b3          	add	x13,x19,x30
 750:	03f582b3          	mul	x5,x11,x31
 754:	00588eb3          	add	x29,x17,x5
 758:	002e9093          	slli	x1,x29,0x2
 75c:	001907b3          	add	x15,x18,x1
 760:	060c0063          	beqz	x24,7c0 <.L867>
 764:	008aa603          	lw	x12,8(x21)
 768:	008a2383          	lw	x7,8(x20)
 76c:	00000b93          	li	x23,0
 770:	00361593          	slli	x11,x12,0x3
 774:	00239813          	slli	x16,x7,0x2

00000778 <.L866>:
 778:	0007a503          	lw	x10,0(x15)
 77c:	01078733          	add	x14,x15,x16
 780:	00d12a23          	sw	x13,20(x2)
 784:	01012623          	sw	x16,12(x2)
 788:	00b12823          	sw	x11,16(x2)
 78c:	00e12423          	sw	x14,8(x2)
 790:	02e12623          	sw	x14,44(x2)
 794:	00000097          	auipc	x1,0x0
 798:	000080e7          	jalr	x1 # 794 <.L866+0x1c>
 79c:	01412303          	lw	x6,20(x2)
 7a0:	001b8b93          	addi	x23,x23,1
 7a4:	00812783          	lw	x15,8(x2)
 7a8:	00b32223          	sw	x11,4(x6)
 7ac:	01012583          	lw	x11,16(x2)
 7b0:	00a32023          	sw	x10,0(x6)
 7b4:	00c12803          	lw	x16,12(x2)
 7b8:	00b306b3          	add	x13,x6,x11
 7bc:	fb7c1ee3          	bne	x24,x23,778 <.L866>

000007c0 <.L867>:
 7c0:	01812503          	lw	x10,24(x2)
 7c4:	001d8d93          	addi	x27,x27,1
 7c8:	f5b518e3          	bne	x10,x27,718 <.L865>
 7cc:	a39ff06f          	j	204 <.L850>

000007d0 <.L924>:
 7d0:	00058b93          	mv	x23,x11
 7d4:	95dff06f          	j	130 <.L868>

000007d8 <.L926>:
 7d8:	01a12823          	sw	x26,16(x2)
 7dc:	b59ff06f          	j	334 <.L857>

000007e0 <.L929>:
 7e0:	00f12c23          	sw	x15,24(x2)
 7e4:	f05ff06f          	j	6e8 <.L863>

Disassembly of section .text._Z19tensorlib_copy_implIfdEiP11hb_tensor_tS1_:

00000000 <_Z19tensorlib_copy_implIfdEiP11hb_tensor_tS1_>:
   0:	f0010113          	addi	x2,x2,-256
   4:	00050793          	mv	x15,x10
   8:	0e812c23          	sw	x8,248(x2)
   c:	03810513          	addi	x10,x2,56
  10:	00058413          	mv	x8,x11
  14:	00078593          	mv	x11,x15
  18:	0e112e23          	sw	x1,252(x2)
  1c:	0e912a23          	sw	x9,244(x2)
  20:	0f212823          	sw	x18,240(x2)
  24:	0f312623          	sw	x19,236(x2)
  28:	0f412423          	sw	x20,232(x2)
  2c:	0f512223          	sw	x21,228(x2)
  30:	0f612023          	sw	x22,224(x2)
  34:	0d712e23          	sw	x23,220(x2)
  38:	0d812c23          	sw	x24,216(x2)
  3c:	0d912a23          	sw	x25,212(x2)
  40:	0da12823          	sw	x26,208(x2)
  44:	0db12623          	sw	x27,204(x2)
  48:	0a812e27          	fsw	f8,188(x2)
  4c:	0a912c27          	fsw	f9,184(x2)
  50:	00000097          	auipc	x1,0x0
  54:	000080e7          	jalr	x1 # 50 <_Z19tensorlib_copy_implIfdEiP11hb_tensor_tS1_+0x50>
  58:	00040593          	mv	x11,x8
  5c:	07410513          	addi	x10,x2,116
  60:	00000097          	auipc	x1,0x0
  64:	000080e7          	jalr	x1 # 60 <_Z19tensorlib_copy_implIfdEiP11hb_tensor_tS1_+0x60>
  68:	00000b37          	lui	x22,0x0
  6c:	00000437          	lui	x8,0x0
  70:	000004b7          	lui	x9,0x0
  74:	00000737          	lui	x14,0x0
  78:	000b2283          	lw	x5,0(x22) # 0 <_Z19tensorlib_copy_implIfdEiP11hb_tensor_tS1_>
  7c:	00042583          	lw	x11,0(x8) # 0 <_Z19tensorlib_copy_implIfdEiP11hb_tensor_tS1_>
  80:	00072303          	lw	x6,0(x14) # 0 <_Z19tensorlib_copy_implIfdEiP11hb_tensor_tS1_>
  84:	0004a603          	lw	x12,0(x9) # 0 <_Z19tensorlib_copy_implIfdEiP11hb_tensor_tS1_>
  88:	000006b7          	lui	x13,0x0
  8c:	0006a383          	lw	x7,0(x13) # 0 <_Z19tensorlib_copy_implIfdEiP11hb_tensor_tS1_>
  90:	00b28533          	add	x10,x5,x11
  94:	00c30833          	add	x16,x6,x12
  98:	01281913          	slli	x18,x16,0x12
  9c:	3f0009b7          	lui	x19,0x3f000
  a0:	00fc0ab7          	lui	x21,0xfc0
  a4:	01851893          	slli	x17,x10,0x18
  a8:	00040d37          	lui	x26,0x40
  ac:	0138fa33          	and	x20,x17,x19
  b0:	01597bb3          	and	x23,x18,x21
  b4:	ff0d0d93          	addi	x27,x26,-16 # 3fff0 <.L1103+0x3f7f4>
  b8:	00439c13          	slli	x24,x7,0x4
  bc:	017a6cb3          	or	x25,x20,x23
  c0:	01bc7e33          	and	x28,x24,x27
  c4:	01cceeb3          	or	x29,x25,x28
  c8:	03c12d83          	lw	x27,60(x2)
  cc:	80000f37          	lui	x30,0x80000
  d0:	01eeefb3          	or	x31,x29,x30
  d4:	410017b7          	lui	x15,0x41001
  d8:	d1f7a623          	sw	x31,-756(x15) # 41000d0c <.L1103+0x41000510>
  dc:	00100293          	li	x5,1
  e0:	03812583          	lw	x11,56(x2)
  e4:	04012a83          	lw	x21,64(x2)
  e8:	04812983          	lw	x19,72(x2)
  ec:	07c12a03          	lw	x20,124(x2)
  f0:	08412903          	lw	x18,132(x2)
  f4:	445d8e63          	beq	x27,x5,550 <.L1008>
  f8:	00200093          	li	x1,2
  fc:	04412303          	lw	x6,68(x2)
 100:	201d8a63          	beq	x27,x1,314 <.L1009>
 104:	00300713          	li	x14,3
 108:	08012c03          	lw	x24,128(x2)
 10c:	5aed8463          	beq	x27,x14,6b4 <.L1010>
 110:	fff58613          	addi	x12,x11,-1
 114:	ffd00693          	li	x13,-3
 118:	0ec6ea63          	bltu	x13,x12,20c <.L937>
 11c:	000003b7          	lui	x7,0x0
 120:	0003a503          	lw	x10,0(x7) # 0 <_Z19tensorlib_copy_implIfdEiP11hb_tensor_tS1_>
 124:	0045d813          	srli	x16,x11,0x4
 128:	00180893          	addi	x17,x16,1
 12c:	02a88cb3          	mul	x25,x17,x10
 130:	01988bb3          	add	x23,x17,x25
 134:	6b75e063          	bltu	x11,x23,7d4 <.L1011>

00000138 <.L955>:
 138:	0d7cfa63          	bgeu	x25,x23,20c <.L937>
 13c:	07812e03          	lw	x28,120(x2)
 140:	002d9d13          	slli	x26,x27,0x2
 144:	01a30eb3          	add	x29,x6,x26
 148:	002e1f13          	slli	x30,x28,0x2
 14c:	01ec0fb3          	add	x31,x24,x30
 150:	01c12a23          	sw	x28,20(x2)
 154:	01d12623          	sw	x29,12(x2)
 158:	01f12823          	sw	x31,16(x2)

0000015c <.L960>:
 15c:	540d8863          	beqz	x27,6ac <.L977>
 160:	000a8393          	mv	x7,x21
 164:	00030713          	mv	x14,x6
 168:	000c8593          	mv	x11,x25
 16c:	00000793          	li	x15,0

00000170 <.L957>:
 170:	00072283          	lw	x5,0(x14)
 174:	0003a083          	lw	x1,0(x7)
 178:	00c12503          	lw	x10,12(x2)
 17c:	0255f633          	remu	x12,x11,x5
 180:	00470713          	addi	x14,x14,4
 184:	00438393          	addi	x7,x7,4
 188:	021606b3          	mul	x13,x12,x1
 18c:	0255d5b3          	divu	x11,x11,x5
 190:	00d787b3          	add	x15,x15,x13
 194:	fce51ee3          	bne	x10,x14,170 <.L957>
 198:	00379813          	slli	x16,x15,0x3
 19c:	01098d33          	add	x26,x19,x16

000001a0 <.L956>:
 1a0:	01412883          	lw	x17,20(x2)
 1a4:	50088063          	beqz	x17,6a4 <.L978>
 1a8:	000a0093          	mv	x1,x20
 1ac:	000c0293          	mv	x5,x24
 1b0:	000c8613          	mv	x12,x25
 1b4:	00000393          	li	x7,0

000001b8 <.L959>:
 1b8:	0002af03          	lw	x30,0(x5) # 4000000 <.L1103+0x3fff804>
 1bc:	0000af83          	lw	x31,0(x1)
 1c0:	01012683          	lw	x13,16(x2)
 1c4:	00428293          	addi	x5,x5,4
 1c8:	00408093          	addi	x1,x1,4
 1cc:	03e67eb3          	remu	x29,x12,x30
 1d0:	03fe8733          	mul	x14,x29,x31
 1d4:	03e65633          	divu	x12,x12,x30
 1d8:	00e383b3          	add	x7,x7,x14
 1dc:	fc569ee3          	bne	x13,x5,1b8 <.L959>
 1e0:	00239593          	slli	x11,x7,0x2
 1e4:	00b90e33          	add	x28,x18,x11

000001e8 <.L958>:
 1e8:	000e2507          	flw	f10,0(x28)
 1ec:	00612423          	sw	x6,8(x2)
 1f0:	001c8c93          	addi	x25,x25,1 # 40001 <.L1103+0x3f805>
 1f4:	00000097          	auipc	x1,0x0
 1f8:	000080e7          	jalr	x1 # 1f4 <.L958+0xc>
 1fc:	00ad2023          	sw	x10,0(x26)
 200:	00bd2223          	sw	x11,4(x26)
 204:	00812303          	lw	x6,8(x2)
 208:	f59b9ae3          	bne	x23,x25,15c <.L960>

0000020c <.L937>:
 20c:	00000eb7          	lui	x29,0x0
 210:	000ea083          	lw	x1,0(x29) # 0 <_Z19tensorlib_copy_implIfdEiP11hb_tensor_tS1_>
 214:	000b2b03          	lw	x22,0(x22)
 218:	00042283          	lw	x5,0(x8)
 21c:	0004a603          	lw	x12,0(x9)
 220:	000003b7          	lui	x7,0x0
 224:	0003ac03          	lw	x24,0(x7) # 0 <_Z19tensorlib_copy_implIfdEiP11hb_tensor_tS1_>
 228:	005b0533          	add	x10,x22,x5
 22c:	00c08d33          	add	x26,x1,x12
 230:	01851c93          	slli	x25,x10,0x18
 234:	012d1593          	slli	x11,x26,0x12
 238:	3f000737          	lui	x14,0x3f000
 23c:	00fc06b7          	lui	x13,0xfc0
 240:	00040e37          	lui	x28,0x40
 244:	00d5f7b3          	and	x15,x11,x13
 248:	004c1813          	slli	x16,x24,0x4
 24c:	00ecf333          	and	x6,x25,x14
 250:	ff0e0a93          	addi	x21,x28,-16 # 3fff0 <.L1103+0x3f7f4>
 254:	00f368b3          	or	x17,x6,x15
 258:	01587f33          	and	x30,x16,x21
 25c:	01e8edb3          	or	x27,x17,x30
 260:	c0000a37          	lui	x20,0xc0000
 264:	014defb3          	or	x31,x27,x20
 268:	41001bb7          	lui	x23,0x41001
 26c:	d1fba623          	sw	x31,-756(x23) # 41000d0c <.L1103+0x41000510>
 270:	0004a903          	lw	x18,0(x9)
 274:	00042983          	lw	x19,0(x8)
 278:	00000b37          	lui	x22,0x0
 27c:	00490293          	addi	x5,x18,4
 280:	000b0793          	mv	x15,x22
 284:	00578eb3          	add	x29,x15,x5
 288:	01899093          	slli	x1,x19,0x18
 28c:	001ee3b3          	or	x7,x29,x1
 290:	20040637          	lui	x12,0x20040
 294:	00c3ec33          	or	x24,x7,x12
 298:	00100513          	li	x10,1
 29c:	00ac0023          	sb	x10,0(x24)
 2a0:	0004ad03          	lw	x26,0(x9)
 2a4:	14ad0663          	beq	x26,x10,3f0 <.L961>

000002a8 <.L972>:
 2a8:	00100413          	li	x8,1
 2ac:	0100006f          	j	2bc <.L976>

000002b0 <.L1012>:
 2b0:	000b0813          	mv	x16,x22
 2b4:	1408272f          	lr.w.aq	x14,(x16)
 2b8:	00870863          	beq	x14,x8,2c8 <.L975>

000002bc <.L976>:
 2bc:	000b0e13          	mv	x28,x22
 2c0:	100e28af          	lr.w	x17,(x28)
 2c4:	fe8896e3          	bne	x17,x8,2b0 <.L1012>

000002c8 <.L975>:
 2c8:	0fc12083          	lw	x1,252(x2)
 2cc:	0f812403          	lw	x8,248(x2)
 2d0:	0007a023          	sw	x0,0(x15)
 2d4:	0f412483          	lw	x9,244(x2)
 2d8:	0f012903          	lw	x18,240(x2)
 2dc:	0ec12983          	lw	x19,236(x2)
 2e0:	0e812a03          	lw	x20,232(x2)
 2e4:	0e412a83          	lw	x21,228(x2)
 2e8:	0e012b03          	lw	x22,224(x2)
 2ec:	0dc12b83          	lw	x23,220(x2)
 2f0:	0d812c03          	lw	x24,216(x2)
 2f4:	0d412c83          	lw	x25,212(x2)
 2f8:	0d012d03          	lw	x26,208(x2)
 2fc:	0cc12d83          	lw	x27,204(x2)
 300:	0bc12407          	flw	f8,188(x2)
 304:	0b812487          	flw	f9,184(x2)
 308:	00000513          	li	x10,0
 30c:	10010113          	addi	x2,x2,256
 310:	00008067          	ret

00000314 <.L1009>:
 314:	00032d03          	lw	x26,0(x6)
 318:	ffd00c93          	li	x25,-3
 31c:	fffd0c13          	addi	x24,x26,-1
 320:	ef8ce6e3          	bltu	x25,x24,20c <.L937>
 324:	000008b7          	lui	x17,0x0
 328:	0008ae03          	lw	x28,0(x17) # 0 <_Z19tensorlib_copy_implIfdEiP11hb_tensor_tS1_>
 32c:	004d5f13          	srli	x30,x26,0x4
 330:	001f0f93          	addi	x31,x30,1 # 80000001 <.L1103+0x7ffff805>
 334:	03cf8bb3          	mul	x23,x31,x28
 338:	017f82b3          	add	x5,x31,x23
 33c:	00512823          	sw	x5,16(x2)
 340:	485d6e63          	bltu	x26,x5,7dc <.L1013>

00000344 <.L944>:
 344:	01012e83          	lw	x29,16(x2)
 348:	eddbf2e3          	bgeu	x23,x29,20c <.L937>
 34c:	000a2083          	lw	x1,0(x20) # c0000000 <.L1103+0xbffff804>
 350:	000aa603          	lw	x12,0(x21) # fc0000 <.L1103+0xfbf804>
 354:	00432803          	lw	x16,4(x6)
 358:	00209393          	slli	x7,x1,0x2
 35c:	00361713          	slli	x14,x12,0x3
 360:	027b85b3          	mul	x11,x23,x7
 364:	00712c23          	sw	x7,24(x2)
 368:	00e12a23          	sw	x14,20(x2)
 36c:	02eb86b3          	mul	x13,x23,x14
 370:	00b90cb3          	add	x25,x18,x11
 374:	00d98c33          	add	x24,x19,x13

00000378 <.L946>:
 378:	000c8793          	mv	x15,x25
 37c:	04080a63          	beqz	x16,3d0 <.L948>
 380:	004aa903          	lw	x18,4(x21)
 384:	004a2503          	lw	x10,4(x20)
 388:	000c0993          	mv	x19,x24
 38c:	00391913          	slli	x18,x18,0x3
 390:	00251d93          	slli	x27,x10,0x2
 394:	00000d13          	li	x26,0

00000398 <.L947>:
 398:	0007a507          	flw	f10,0(x15)
 39c:	01b78333          	add	x6,x15,x27
 3a0:	01012623          	sw	x16,12(x2)
 3a4:	00612423          	sw	x6,8(x2)
 3a8:	00612e23          	sw	x6,28(x2)
 3ac:	00000097          	auipc	x1,0x0
 3b0:	000080e7          	jalr	x1 # 3ac <.L947+0x14>
 3b4:	00c12803          	lw	x16,12(x2)
 3b8:	00a9a023          	sw	x10,0(x19) # 3f000000 <.L1103+0x3efff804>
 3bc:	00b9a223          	sw	x11,4(x19)
 3c0:	001d0d13          	addi	x26,x26,1
 3c4:	00812783          	lw	x15,8(x2)
 3c8:	012989b3          	add	x19,x19,x18
 3cc:	fda816e3          	bne	x16,x26,398 <.L947>

000003d0 <.L948>:
 3d0:	01812883          	lw	x17,24(x2)
 3d4:	01412e03          	lw	x28,20(x2)
 3d8:	01012f03          	lw	x30,16(x2)
 3dc:	001b8b93          	addi	x23,x23,1
 3e0:	011c8cb3          	add	x25,x25,x17
 3e4:	01cc0c33          	add	x24,x24,x28
 3e8:	f97f18e3          	bne	x30,x23,378 <.L946>
 3ec:	e21ff06f          	j	20c <.L937>

000003f0 <.L961>:
 3f0:	0047cc83          	lbu	x25,4(x15)
 3f4:	0ffcf593          	andi	x11,x25,255
 3f8:	fe058ce3          	beqz	x11,3f0 <.L961>
 3fc:	0057c703          	lbu	x14,5(x15)
 400:	0ff77313          	andi	x6,x14,255
 404:	fe0306e3          	beqz	x6,3f0 <.L961>
 408:	0067c683          	lbu	x13,6(x15)
 40c:	0ff6f813          	andi	x16,x13,255
 410:	fe0800e3          	beqz	x16,3f0 <.L961>
 414:	0077c883          	lbu	x17,7(x15)
 418:	0ff8fe13          	andi	x28,x17,255
 41c:	fc0e0ae3          	beqz	x28,3f0 <.L961>
 420:	00042a83          	lw	x21,0(x8)
 424:	21040fb7          	lui	x31,0x21040
 428:	00100f13          	li	x30,1
 42c:	00ca8d93          	addi	x27,x21,12
 430:	01b78a33          	add	x20,x15,x27
 434:	01fa6bb3          	or	x23,x20,x31
 438:	01eb8023          	sb	x30,0(x23)
 43c:	0004a903          	lw	x18,0(x9)
 440:	e7e914e3          	bne	x18,x30,2a8 <.L972>
 444:	00042f83          	lw	x31,0(x8)
 448:	072f8c63          	beq	x31,x18,4c0 <.L966>

0000044c <.L971>:
 44c:	00100493          	li	x9,1
 450:	0100006f          	j	460 <.L965>

00000454 <.L1014>:
 454:	00878993          	addi	x19,x15,8
 458:	1409a2af          	lr.w.aq	x5,(x19)
 45c:	00928863          	beq	x5,x9,46c <.L973>

00000460 <.L965>:
 460:	00878b93          	addi	x23,x15,8
 464:	100ba92f          	lr.w	x18,(x23)
 468:	fe9916e3          	bne	x18,x9,454 <.L1014>

0000046c <.L973>:
 46c:	0007a423          	sw	x0,8(x15)
 470:	00078223          	sb	x0,4(x15)
 474:	000782a3          	sb	x0,5(x15)
 478:	00078323          	sb	x0,6(x15)
 47c:	000783a3          	sb	x0,7(x15)
 480:	0007a023          	sw	x0,0(x15)
 484:	00000613          	li	x12,0
 488:	000b0793          	mv	x15,x22
 48c:	20000eb7          	lui	x29,0x20000
 490:	00100093          	li	x1,1
 494:	000403b7          	lui	x7,0x40
 498:	00100c37          	lui	x24,0x100

0000049c <.L974>:
 49c:	00042503          	lw	x10,0(x8)
 4a0:	00c7ed33          	or	x26,x15,x12
 4a4:	00760633          	add	x12,x12,x7
 4a8:	01851c93          	slli	x25,x10,0x18
 4ac:	01ace6b3          	or	x13,x25,x26
 4b0:	01d6e333          	or	x6,x13,x29
 4b4:	00132023          	sw	x1,0(x6)
 4b8:	ff8612e3          	bne	x12,x24,49c <.L974>
 4bc:	dedff06f          	j	2a8 <.L972>

000004c0 <.L966>:
 4c0:	00c7c983          	lbu	x19,12(x15)
 4c4:	0ff9f293          	andi	x5,x19,255
 4c8:	fe028ce3          	beqz	x5,4c0 <.L966>
 4cc:	00d7ce83          	lbu	x29,13(x15)
 4d0:	0ffef093          	andi	x1,x29,255
 4d4:	fe0086e3          	beqz	x1,4c0 <.L966>
 4d8:	00e7c383          	lbu	x7,14(x15)
 4dc:	0ff3f613          	andi	x12,x7,255
 4e0:	fe0600e3          	beqz	x12,4c0 <.L966>
 4e4:	00f7cc03          	lbu	x24,15(x15)
 4e8:	0ffc7513          	andi	x10,x24,255
 4ec:	fc050ae3          	beqz	x10,4c0 <.L966>
 4f0:	00078623          	sb	x0,12(x15)
 4f4:	000786a3          	sb	x0,13(x15)
 4f8:	00078723          	sb	x0,14(x15)
 4fc:	000787a3          	sb	x0,15(x15)
 500:	00000d37          	lui	x26,0x0
 504:	0007a423          	sw	x0,8(x15)
 508:	00000593          	li	x11,0
 50c:	008d0c93          	addi	x25,x26,8 # 8 <_Z19tensorlib_copy_implIfdEiP11hb_tensor_tS1_+0x8>
 510:	03fc06b7          	lui	x13,0x3fc0
 514:	20000337          	lui	x6,0x20000
 518:	00100e13          	li	x28,1
 51c:	010008b7          	lui	x17,0x1000
 520:	04000837          	lui	x16,0x4000

00000524 <.L970>:
 524:	012f9713          	slli	x14,x31,0x12
 528:	00bceab3          	or	x21,x25,x11
 52c:	00d77f33          	and	x30,x14,x13
 530:	015f6db3          	or	x27,x30,x21
 534:	006dea33          	or	x20,x27,x6
 538:	01ca2023          	sw	x28,0(x20)
 53c:	011585b3          	add	x11,x11,x17
 540:	0004af83          	lw	x31,0(x9)
 544:	ff0590e3          	bne	x11,x16,524 <.L970>
 548:	f1cf82e3          	beq	x31,x28,44c <.L971>
 54c:	d5dff06f          	j	2a8 <.L972>

00000550 <.L1008>:
 550:	fff58f93          	addi	x31,x11,-1
 554:	ffd00293          	li	x5,-3
 558:	cbf2eae3          	bltu	x5,x31,20c <.L937>
 55c:	00000eb7          	lui	x29,0x0
 560:	000ea083          	lw	x1,0(x29) # 0 <_Z19tensorlib_copy_implIfdEiP11hb_tensor_tS1_>
 564:	0045d613          	srli	x12,x11,0x4
 568:	00160393          	addi	x7,x12,1 # 20040001 <.L1103+0x2003f805>
 56c:	02138bb3          	mul	x23,x7,x1
 570:	01738c33          	add	x24,x7,x23
 574:	1385e463          	bltu	x11,x24,69c <.L1015>

00000578 <.L936>:
 578:	c98bfae3          	bgeu	x23,x24,20c <.L937>
 57c:	000aa503          	lw	x10,0(x21)
 580:	000a2a03          	lw	x20,0(x20)
 584:	417c0ab3          	sub	x21,x24,x23
 588:	00351d13          	slli	x26,x10,0x3
 58c:	002a1c93          	slli	x25,x20,0x2
 590:	03ab85b3          	mul	x11,x23,x26
 594:	00400713          	li	x14,4
 598:	037c86b3          	mul	x13,x25,x23
 59c:	00b989b3          	add	x19,x19,x11
 5a0:	00d90933          	add	x18,x18,x13
 5a4:	0d577863          	bgeu	x14,x21,674 <.L942>
 5a8:	ffcc0d93          	addi	x27,x24,-4 # ffffc <.L1103+0xff800>
 5ac:	01b12823          	sw	x27,16(x2)
 5b0:	0dbbf263          	bgeu	x23,x27,674 <.L942>
 5b4:	00098a93          	mv	x21,x19
 5b8:	003a1313          	slli	x6,x20,0x3
 5bc:	00451993          	slli	x19,x10,0x4
 5c0:	004a1f13          	slli	x30,x20,0x4
 5c4:	00551e13          	slli	x28,x10,0x5
 5c8:	00690db3          	add	x27,x18,x6
 5cc:	013a8a33          	add	x20,x21,x19

000005d0 <.L941>:
 5d0:	00092507          	flw	f10,0(x18)
 5d4:	019907b3          	add	x15,x18,x25
 5d8:	0007a487          	flw	f9,0(x15)
 5dc:	019d8833          	add	x16,x27,x25
 5e0:	00082407          	flw	f8,0(x16) # 4000000 <.L1103+0x3fff804>
 5e4:	01c12623          	sw	x28,12(x2)
 5e8:	01e12423          	sw	x30,8(x2)
 5ec:	00000097          	auipc	x1,0x0
 5f0:	000080e7          	jalr	x1 # 5ec <.L941+0x1c>
 5f4:	20948553          	fmv.s	f10,f9
 5f8:	000da487          	flw	f9,0(x27)
 5fc:	00aaa023          	sw	x10,0(x21)
 600:	00baa223          	sw	x11,4(x21)
 604:	00000097          	auipc	x1,0x0
 608:	000080e7          	jalr	x1 # 604 <.L941+0x34>
 60c:	20948553          	fmv.s	f10,f9
 610:	01aa88b3          	add	x17,x21,x26
 614:	00a8a023          	sw	x10,0(x17) # 1000000 <.L1103+0xfff804>
 618:	00b8a223          	sw	x11,4(x17)
 61c:	00000097          	auipc	x1,0x0
 620:	000080e7          	jalr	x1 # 61c <.L941+0x4c>
 624:	20840553          	fmv.s	f10,f8
 628:	00aa2023          	sw	x10,0(x20)
 62c:	00ba2223          	sw	x11,4(x20)
 630:	00000097          	auipc	x1,0x0
 634:	000080e7          	jalr	x1 # 630 <.L941+0x60>
 638:	00c12e03          	lw	x28,12(x2)
 63c:	00812f03          	lw	x30,8(x2)
 640:	01012f83          	lw	x31,16(x2)
 644:	000a8993          	mv	x19,x21
 648:	01aa0ab3          	add	x21,x20,x26
 64c:	01c989b3          	add	x19,x19,x28
 650:	00aaa023          	sw	x10,0(x21)
 654:	00baa223          	sw	x11,4(x21)
 658:	004b8b93          	addi	x23,x23,4
 65c:	00098a93          	mv	x21,x19
 660:	01e90933          	add	x18,x18,x30
 664:	01ed8db3          	add	x27,x27,x30
 668:	01ca0a33          	add	x20,x20,x28
 66c:	f7fbe2e3          	bltu	x23,x31,5d0 <.L941>
 670:	b98bfee3          	bgeu	x23,x24,20c <.L937>

00000674 <.L942>:
 674:	00092507          	flw	f10,0(x18)
 678:	001b8b93          	addi	x23,x23,1
 67c:	01990933          	add	x18,x18,x25
 680:	00000097          	auipc	x1,0x0
 684:	000080e7          	jalr	x1 # 680 <.L942+0xc>
 688:	00a9a023          	sw	x10,0(x19)
 68c:	00b9a223          	sw	x11,4(x19)
 690:	01a989b3          	add	x19,x19,x26
 694:	ff8be0e3          	bltu	x23,x24,674 <.L942>
 698:	b75ff06f          	j	20c <.L937>

0000069c <.L1015>:
 69c:	00058c13          	mv	x24,x11
 6a0:	ed9ff06f          	j	578 <.L936>

000006a4 <.L978>:
 6a4:	00090e13          	mv	x28,x18
 6a8:	b41ff06f          	j	1e8 <.L958>

000006ac <.L977>:
 6ac:	00098d13          	mv	x26,x19
 6b0:	af1ff06f          	j	1a0 <.L956>

000006b4 <.L1010>:
 6b4:	00432d03          	lw	x26,4(x6) # 20000004 <.L1103+0x1ffff808>
 6b8:	00032d83          	lw	x27,0(x6)
 6bc:	ffd00b93          	li	x23,-3
 6c0:	03bd07b3          	mul	x15,x26,x27
 6c4:	fff78513          	addi	x10,x15,-1
 6c8:	b4abe2e3          	bltu	x23,x10,20c <.L937>
 6cc:	00000837          	lui	x16,0x0
 6d0:	00082883          	lw	x17,0(x16) # 0 <_Z19tensorlib_copy_implIfdEiP11hb_tensor_tS1_>
 6d4:	0047de13          	srli	x28,x15,0x4
 6d8:	001e0f13          	addi	x30,x28,1
 6dc:	031f0db3          	mul	x27,x30,x17
 6e0:	01bf0fb3          	add	x31,x30,x27
 6e4:	01f12c23          	sw	x31,24(x2)
 6e8:	0ff7ee63          	bltu	x15,x31,7e4 <.L1016>

000006ec <.L950>:
 6ec:	01812283          	lw	x5,24(x2)
 6f0:	b05dfee3          	bgeu	x27,x5,20c <.L937>
 6f4:	004c2c83          	lw	x25,4(x24)
 6f8:	004a2c03          	lw	x24,4(x20)
 6fc:	004aae83          	lw	x29,4(x21)
 700:	000aa083          	lw	x1,0(x21)
 704:	000a2703          	lw	x14,0(x20)
 708:	03812223          	sw	x24,36(x2)
 70c:	00832c03          	lw	x24,8(x6)
 710:	01d12e23          	sw	x29,28(x2)
 714:	02112023          	sw	x1,32(x2)
 718:	02e12423          	sw	x14,40(x2)

0000071c <.L952>:
 71c:	03adf633          	remu	x12,x27,x26
 720:	01c12683          	lw	x13,28(x2)
 724:	02012783          	lw	x15,32(x2)
 728:	02412803          	lw	x16,36(x2)
 72c:	02812f83          	lw	x31,40(x2)
 730:	03add3b3          	divu	x7,x27,x26
 734:	039df333          	remu	x6,x27,x25
 738:	039dd5b3          	divu	x11,x27,x25
 73c:	02d60bb3          	mul	x23,x12,x13
 740:	02f38533          	mul	x10,x7,x15
 744:	030308b3          	mul	x17,x6,x16
 748:	00ab8e33          	add	x28,x23,x10
 74c:	003e1f13          	slli	x30,x28,0x3
 750:	01e986b3          	add	x13,x19,x30
 754:	03f582b3          	mul	x5,x11,x31
 758:	00588eb3          	add	x29,x17,x5
 75c:	002e9093          	slli	x1,x29,0x2
 760:	001907b3          	add	x15,x18,x1
 764:	060c0063          	beqz	x24,7c4 <.L954>
 768:	008aa603          	lw	x12,8(x21)
 76c:	008a2383          	lw	x7,8(x20)
 770:	00000b93          	li	x23,0
 774:	00361593          	slli	x11,x12,0x3
 778:	00239513          	slli	x10,x7,0x2

0000077c <.L953>:
 77c:	0007a507          	flw	f10,0(x15)
 780:	00a78733          	add	x14,x15,x10
 784:	00d12a23          	sw	x13,20(x2)
 788:	00b12823          	sw	x11,16(x2)
 78c:	00a12623          	sw	x10,12(x2)
 790:	00e12423          	sw	x14,8(x2)
 794:	02e12623          	sw	x14,44(x2)
 798:	00000097          	auipc	x1,0x0
 79c:	000080e7          	jalr	x1 # 798 <.L953+0x1c>
 7a0:	01412303          	lw	x6,20(x2)
 7a4:	001b8b93          	addi	x23,x23,1
 7a8:	00812783          	lw	x15,8(x2)
 7ac:	00b32223          	sw	x11,4(x6)
 7b0:	01012583          	lw	x11,16(x2)
 7b4:	00a32023          	sw	x10,0(x6)
 7b8:	00c12503          	lw	x10,12(x2)
 7bc:	00b306b3          	add	x13,x6,x11
 7c0:	fb7c1ee3          	bne	x24,x23,77c <.L953>

000007c4 <.L954>:
 7c4:	01812803          	lw	x16,24(x2)
 7c8:	001d8d93          	addi	x27,x27,1
 7cc:	f5b818e3          	bne	x16,x27,71c <.L952>
 7d0:	a3dff06f          	j	20c <.L937>

000007d4 <.L1011>:
 7d4:	00058b93          	mv	x23,x11
 7d8:	961ff06f          	j	138 <.L955>

000007dc <.L1013>:
 7dc:	01a12823          	sw	x26,16(x2)
 7e0:	b65ff06f          	j	344 <.L944>

000007e4 <.L1016>:
 7e4:	00f12c23          	sw	x15,24(x2)
 7e8:	f05ff06f          	j	6ec <.L950>

Disassembly of section .text._Z19tensorlib_copy_implIdiEiP11hb_tensor_tS1_:

00000000 <_Z19tensorlib_copy_implIdiEiP11hb_tensor_tS1_>:
   0:	f0010113          	addi	x2,x2,-256
   4:	00050793          	mv	x15,x10
   8:	0e812c23          	sw	x8,248(x2)
   c:	04810513          	addi	x10,x2,72
  10:	00058413          	mv	x8,x11
  14:	00078593          	mv	x11,x15
  18:	0e112e23          	sw	x1,252(x2)
  1c:	0e912a23          	sw	x9,244(x2)
  20:	0f212823          	sw	x18,240(x2)
  24:	0f312623          	sw	x19,236(x2)
  28:	0f412423          	sw	x20,232(x2)
  2c:	0f512223          	sw	x21,228(x2)
  30:	0f612023          	sw	x22,224(x2)
  34:	0d712e23          	sw	x23,220(x2)
  38:	0d812c23          	sw	x24,216(x2)
  3c:	0d912a23          	sw	x25,212(x2)
  40:	0da12823          	sw	x26,208(x2)
  44:	0db12623          	sw	x27,204(x2)
  48:	00000097          	auipc	x1,0x0
  4c:	000080e7          	jalr	x1 # 48 <_Z19tensorlib_copy_implIdiEiP11hb_tensor_tS1_+0x48>
  50:	00040593          	mv	x11,x8
  54:	08410513          	addi	x10,x2,132
  58:	00000097          	auipc	x1,0x0
  5c:	000080e7          	jalr	x1 # 58 <_Z19tensorlib_copy_implIdiEiP11hb_tensor_tS1_+0x58>
  60:	00000b37          	lui	x22,0x0
  64:	00000437          	lui	x8,0x0
  68:	000004b7          	lui	x9,0x0
  6c:	00000737          	lui	x14,0x0
  70:	000b2283          	lw	x5,0(x22) # 0 <_Z19tensorlib_copy_implIdiEiP11hb_tensor_tS1_>
  74:	00042583          	lw	x11,0(x8) # 0 <_Z19tensorlib_copy_implIdiEiP11hb_tensor_tS1_>
  78:	00072303          	lw	x6,0(x14) # 0 <_Z19tensorlib_copy_implIdiEiP11hb_tensor_tS1_>
  7c:	0004a603          	lw	x12,0(x9) # 0 <_Z19tensorlib_copy_implIdiEiP11hb_tensor_tS1_>
  80:	000006b7          	lui	x13,0x0
  84:	0006a383          	lw	x7,0(x13) # 0 <_Z19tensorlib_copy_implIdiEiP11hb_tensor_tS1_>
  88:	00b28533          	add	x10,x5,x11
  8c:	00c30833          	add	x16,x6,x12
  90:	01281913          	slli	x18,x16,0x12
  94:	3f0009b7          	lui	x19,0x3f000
  98:	00fc0ab7          	lui	x21,0xfc0
  9c:	01851893          	slli	x17,x10,0x18
  a0:	00040d37          	lui	x26,0x40
  a4:	0138fa33          	and	x20,x17,x19
  a8:	01597bb3          	and	x23,x18,x21
  ac:	ff0d0d93          	addi	x27,x26,-16 # 3fff0 <.L1103+0x3f7f4>
  b0:	00439c13          	slli	x24,x7,0x4
  b4:	017a6cb3          	or	x25,x20,x23
  b8:	01bc7e33          	and	x28,x24,x27
  bc:	01cceeb3          	or	x29,x25,x28
  c0:	04c12d83          	lw	x27,76(x2)
  c4:	80000f37          	lui	x30,0x80000
  c8:	01eeefb3          	or	x31,x29,x30
  cc:	410017b7          	lui	x15,0x41001
  d0:	d1f7a623          	sw	x31,-756(x15) # 41000d0c <.L1103+0x41000510>
  d4:	00100293          	li	x5,1
  d8:	04812583          	lw	x11,72(x2)
  dc:	05012a83          	lw	x21,80(x2)
  e0:	05812983          	lw	x19,88(x2)
  e4:	08c12a03          	lw	x20,140(x2)
  e8:	09412903          	lw	x18,148(x2)
  ec:	445d8a63          	beq	x27,x5,540 <.L1095>
  f0:	00200093          	li	x1,2
  f4:	05412303          	lw	x6,84(x2)
  f8:	201d8663          	beq	x27,x1,304 <.L1096>
  fc:	00300713          	li	x14,3
 100:	09012c03          	lw	x24,144(x2)
 104:	5ced8463          	beq	x27,x14,6cc <.L1097>
 108:	fff58613          	addi	x12,x11,-1
 10c:	ffd00693          	li	x13,-3
 110:	0ec6ea63          	bltu	x13,x12,204 <.L1024>
 114:	000003b7          	lui	x7,0x0
 118:	0003a503          	lw	x10,0(x7) # 0 <_Z19tensorlib_copy_implIdiEiP11hb_tensor_tS1_>
 11c:	0045d813          	srli	x16,x11,0x4
 120:	00180893          	addi	x17,x16,1
 124:	02a88cb3          	mul	x25,x17,x10
 128:	01988bb3          	add	x23,x17,x25
 12c:	6d75e063          	bltu	x11,x23,7ec <.L1098>

00000130 <.L1042>:
 130:	0d7cfa63          	bgeu	x25,x23,204 <.L1024>
 134:	08812e03          	lw	x28,136(x2)
 138:	002d9d13          	slli	x26,x27,0x2
 13c:	01a30eb3          	add	x29,x6,x26
 140:	002e1f13          	slli	x30,x28,0x2
 144:	01ec0fb3          	add	x31,x24,x30
 148:	01c12823          	sw	x28,16(x2)
 14c:	01d12c23          	sw	x29,24(x2)
 150:	03f12223          	sw	x31,36(x2)

00000154 <.L1047>:
 154:	560d8863          	beqz	x27,6c4 <.L1064>
 158:	000a8393          	mv	x7,x21
 15c:	00030713          	mv	x14,x6
 160:	000c8593          	mv	x11,x25
 164:	00000793          	li	x15,0

00000168 <.L1044>:
 168:	00072283          	lw	x5,0(x14)
 16c:	0003a083          	lw	x1,0(x7)
 170:	01812503          	lw	x10,24(x2)
 174:	0255f633          	remu	x12,x11,x5
 178:	00470713          	addi	x14,x14,4
 17c:	00438393          	addi	x7,x7,4
 180:	021606b3          	mul	x13,x12,x1
 184:	0255d5b3          	divu	x11,x11,x5
 188:	00d787b3          	add	x15,x15,x13
 18c:	fce51ee3          	bne	x10,x14,168 <.L1044>
 190:	00279813          	slli	x16,x15,0x2
 194:	01098d33          	add	x26,x19,x16

00000198 <.L1043>:
 198:	01012883          	lw	x17,16(x2)
 19c:	52088063          	beqz	x17,6bc <.L1065>
 1a0:	000a0093          	mv	x1,x20
 1a4:	000c0293          	mv	x5,x24
 1a8:	000c8613          	mv	x12,x25
 1ac:	00000393          	li	x7,0

000001b0 <.L1046>:
 1b0:	0002af03          	lw	x30,0(x5)
 1b4:	0000af83          	lw	x31,0(x1)
 1b8:	02412683          	lw	x13,36(x2)
 1bc:	00428293          	addi	x5,x5,4
 1c0:	00408093          	addi	x1,x1,4
 1c4:	03e67eb3          	remu	x29,x12,x30
 1c8:	03fe8733          	mul	x14,x29,x31
 1cc:	03e65633          	divu	x12,x12,x30
 1d0:	00e383b3          	add	x7,x7,x14
 1d4:	fc569ee3          	bne	x13,x5,1b0 <.L1046>
 1d8:	00339593          	slli	x11,x7,0x3
 1dc:	00b90e33          	add	x28,x18,x11

000001e0 <.L1045>:
 1e0:	000e2503          	lw	x10,0(x28)
 1e4:	004e2583          	lw	x11,4(x28)
 1e8:	00612423          	sw	x6,8(x2)
 1ec:	001c8c93          	addi	x25,x25,1
 1f0:	00000097          	auipc	x1,0x0
 1f4:	000080e7          	jalr	x1 # 1f0 <.L1045+0x10>
 1f8:	00ad2023          	sw	x10,0(x26)
 1fc:	00812303          	lw	x6,8(x2)
 200:	f59b9ae3          	bne	x23,x25,154 <.L1047>

00000204 <.L1024>:
 204:	00000d37          	lui	x26,0x0
 208:	000d2c83          	lw	x25,0(x26) # 0 <_Z19tensorlib_copy_implIdiEiP11hb_tensor_tS1_>
 20c:	000b2b03          	lw	x22,0(x22)
 210:	00042c03          	lw	x24,0(x8)
 214:	0004ad83          	lw	x27,0(x9)
 218:	000007b7          	lui	x15,0x0
 21c:	0007a883          	lw	x17,0(x15) # 0 <_Z19tensorlib_copy_implIdiEiP11hb_tensor_tS1_>
 220:	018b0e33          	add	x28,x22,x24
 224:	01bc8f33          	add	x30,x25,x27
 228:	018e1293          	slli	x5,x28,0x18
 22c:	012f1e93          	slli	x29,x30,0x12
 230:	3f0000b7          	lui	x1,0x3f000
 234:	00fc03b7          	lui	x7,0xfc0
 238:	00040837          	lui	x16,0x40
 23c:	0012ffb3          	and	x31,x5,x1
 240:	00489593          	slli	x11,x17,0x4
 244:	007ef533          	and	x10,x29,x7
 248:	ff080713          	addi	x14,x16,-16 # 3fff0 <.L1103+0x3f7f4>
 24c:	00afe633          	or	x12,x31,x10
 250:	00e5f6b3          	and	x13,x11,x14
 254:	00d66ab3          	or	x21,x12,x13
 258:	c0000a37          	lui	x20,0xc0000
 25c:	014ae333          	or	x6,x21,x20
 260:	41001bb7          	lui	x23,0x41001
 264:	d06ba623          	sw	x6,-756(x23) # 41000d0c <.L1103+0x41000510>
 268:	0004a903          	lw	x18,0(x9)
 26c:	00042983          	lw	x19,0(x8)
 270:	00000b37          	lui	x22,0x0
 274:	00490c13          	addi	x24,x18,4
 278:	000b0793          	mv	x15,x22
 27c:	01878d33          	add	x26,x15,x24
 280:	01899c93          	slli	x25,x19,0x18
 284:	019d6db3          	or	x27,x26,x25
 288:	200408b7          	lui	x17,0x20040
 28c:	011dee33          	or	x28,x27,x17
 290:	00100f13          	li	x30,1
 294:	01ee0023          	sb	x30,0(x28)
 298:	0004a283          	lw	x5,0(x9)
 29c:	15e28263          	beq	x5,x30,3e0 <.L1048>

000002a0 <.L1059>:
 2a0:	00100413          	li	x8,1
 2a4:	0100006f          	j	2b4 <.L1063>

000002a8 <.L1099>:
 2a8:	000b0813          	mv	x16,x22
 2ac:	1408272f          	lr.w.aq	x14,(x16)
 2b0:	00870863          	beq	x14,x8,2c0 <.L1062>

000002b4 <.L1063>:
 2b4:	000b0513          	mv	x10,x22
 2b8:	1005262f          	lr.w	x12,(x10)
 2bc:	fe8616e3          	bne	x12,x8,2a8 <.L1099>

000002c0 <.L1062>:
 2c0:	0fc12083          	lw	x1,252(x2)
 2c4:	0f812403          	lw	x8,248(x2)
 2c8:	0007a023          	sw	x0,0(x15)
 2cc:	0f412483          	lw	x9,244(x2)
 2d0:	0f012903          	lw	x18,240(x2)
 2d4:	0ec12983          	lw	x19,236(x2)
 2d8:	0e812a03          	lw	x20,232(x2)
 2dc:	0e412a83          	lw	x21,228(x2)
 2e0:	0e012b03          	lw	x22,224(x2)
 2e4:	0dc12b83          	lw	x23,220(x2)
 2e8:	0d812c03          	lw	x24,216(x2)
 2ec:	0d412c83          	lw	x25,212(x2)
 2f0:	0d012d03          	lw	x26,208(x2)
 2f4:	0cc12d83          	lw	x27,204(x2)
 2f8:	00000513          	li	x10,0
 2fc:	10010113          	addi	x2,x2,256
 300:	00008067          	ret

00000304 <.L1096>:
 304:	00032d03          	lw	x26,0(x6)
 308:	ffd00c93          	li	x25,-3
 30c:	fffd0c13          	addi	x24,x26,-1
 310:	ef8ceae3          	bltu	x25,x24,204 <.L1024>
 314:	000008b7          	lui	x17,0x0
 318:	0008ae03          	lw	x28,0(x17) # 0 <_Z19tensorlib_copy_implIdiEiP11hb_tensor_tS1_>
 31c:	004d5f13          	srli	x30,x26,0x4
 320:	001f0f93          	addi	x31,x30,1 # 80000001 <.L1103+0x7ffff805>
 324:	03cf8bb3          	mul	x23,x31,x28
 328:	017f82b3          	add	x5,x31,x23
 32c:	00512c23          	sw	x5,24(x2)
 330:	4c5d6263          	bltu	x26,x5,7f4 <.L1100>

00000334 <.L1031>:
 334:	01812e83          	lw	x29,24(x2)
 338:	eddbf6e3          	bgeu	x23,x29,204 <.L1024>
 33c:	000a2083          	lw	x1,0(x20) # c0000000 <.L1103+0xbffff804>
 340:	000aa603          	lw	x12,0(x21) # fc0000 <.L1103+0xfbf804>
 344:	00432503          	lw	x10,4(x6)
 348:	00309393          	slli	x7,x1,0x3
 34c:	00261713          	slli	x14,x12,0x2
 350:	027b85b3          	mul	x11,x23,x7
 354:	02712423          	sw	x7,40(x2)
 358:	02e12223          	sw	x14,36(x2)
 35c:	02eb86b3          	mul	x13,x23,x14
 360:	00b90cb3          	add	x25,x18,x11
 364:	00d98c33          	add	x24,x19,x13

00000368 <.L1033>:
 368:	000c8793          	mv	x15,x25
 36c:	04050a63          	beqz	x10,3c0 <.L1035>
 370:	004aa903          	lw	x18,4(x21)
 374:	004a2803          	lw	x16,4(x20)
 378:	000c0993          	mv	x19,x24
 37c:	00291913          	slli	x18,x18,0x2
 380:	00381d93          	slli	x27,x16,0x3
 384:	00000d13          	li	x26,0

00000388 <.L1034>:
 388:	0047a583          	lw	x11,4(x15)
 38c:	00a12823          	sw	x10,16(x2)
 390:	0007a503          	lw	x10,0(x15)
 394:	01b78333          	add	x6,x15,x27
 398:	00612423          	sw	x6,8(x2)
 39c:	02612623          	sw	x6,44(x2)
 3a0:	00000097          	auipc	x1,0x0
 3a4:	000080e7          	jalr	x1 # 3a0 <.L1034+0x18>
 3a8:	00a9a023          	sw	x10,0(x19) # 3f000000 <.L1103+0x3efff804>
 3ac:	01012503          	lw	x10,16(x2)
 3b0:	001d0d13          	addi	x26,x26,1
 3b4:	00812783          	lw	x15,8(x2)
 3b8:	012989b3          	add	x19,x19,x18
 3bc:	fda516e3          	bne	x10,x26,388 <.L1034>

000003c0 <.L1035>:
 3c0:	02812883          	lw	x17,40(x2)
 3c4:	02412e03          	lw	x28,36(x2)
 3c8:	01812f03          	lw	x30,24(x2)
 3cc:	001b8b93          	addi	x23,x23,1
 3d0:	011c8cb3          	add	x25,x25,x17
 3d4:	01cc0c33          	add	x24,x24,x28
 3d8:	f97f18e3          	bne	x30,x23,368 <.L1033>
 3dc:	e29ff06f          	j	204 <.L1024>

000003e0 <.L1048>:
 3e0:	0047ce83          	lbu	x29,4(x15)
 3e4:	0ffef093          	andi	x1,x29,255
 3e8:	fe008ce3          	beqz	x1,3e0 <.L1048>
 3ec:	0057cf83          	lbu	x31,5(x15)
 3f0:	0ffff393          	andi	x7,x31,255
 3f4:	fe0386e3          	beqz	x7,3e0 <.L1048>
 3f8:	0067c503          	lbu	x10,6(x15)
 3fc:	0ff57593          	andi	x11,x10,255
 400:	fe0580e3          	beqz	x11,3e0 <.L1048>
 404:	0077c603          	lbu	x12,7(x15)
 408:	0ff67813          	andi	x16,x12,255
 40c:	fc080ae3          	beqz	x16,3e0 <.L1048>
 410:	00042703          	lw	x14,0(x8)
 414:	21040337          	lui	x6,0x21040
 418:	00100693          	li	x13,1
 41c:	00c70a93          	addi	x21,x14,12
 420:	01578a33          	add	x20,x15,x21
 424:	006a6bb3          	or	x23,x20,x6
 428:	00db8023          	sb	x13,0(x23)
 42c:	0004a903          	lw	x18,0(x9)
 430:	e6d918e3          	bne	x18,x13,2a0 <.L1059>
 434:	00042303          	lw	x6,0(x8)
 438:	07230c63          	beq	x6,x18,4b0 <.L1053>

0000043c <.L1058>:
 43c:	00100493          	li	x9,1
 440:	0100006f          	j	450 <.L1052>

00000444 <.L1101>:
 444:	00878993          	addi	x19,x15,8
 448:	1409ac2f          	lr.w.aq	x24,(x19)
 44c:	009c0863          	beq	x24,x9,45c <.L1060>

00000450 <.L1052>:
 450:	00878b93          	addi	x23,x15,8
 454:	100ba92f          	lr.w	x18,(x23)
 458:	fe9916e3          	bne	x18,x9,444 <.L1101>

0000045c <.L1060>:
 45c:	0007a423          	sw	x0,8(x15)
 460:	00078223          	sb	x0,4(x15)
 464:	000782a3          	sb	x0,5(x15)
 468:	00078323          	sb	x0,6(x15)
 46c:	000783a3          	sb	x0,7(x15)
 470:	0007a023          	sw	x0,0(x15)
 474:	00000293          	li	x5,0
 478:	000b0793          	mv	x15,x22
 47c:	20000d37          	lui	x26,0x20000
 480:	00100c93          	li	x25,1
 484:	00040db7          	lui	x27,0x40
 488:	001008b7          	lui	x17,0x100

0000048c <.L1061>:
 48c:	00042e03          	lw	x28,0(x8)
 490:	0057ef33          	or	x30,x15,x5
 494:	01b282b3          	add	x5,x5,x27
 498:	018e1093          	slli	x1,x28,0x18
 49c:	01e0efb3          	or	x31,x1,x30
 4a0:	01afe3b3          	or	x7,x31,x26
 4a4:	0193a023          	sw	x25,0(x7) # fc0000 <.L1103+0xfbf804>
 4a8:	ff1292e3          	bne	x5,x17,48c <.L1061>
 4ac:	df5ff06f          	j	2a0 <.L1059>

000004b0 <.L1053>:
 4b0:	00c7c983          	lbu	x19,12(x15)
 4b4:	0ff9fc13          	andi	x24,x19,255
 4b8:	fe0c0ce3          	beqz	x24,4b0 <.L1053>
 4bc:	00d7cd03          	lbu	x26,13(x15)
 4c0:	0ffd7c93          	andi	x25,x26,255
 4c4:	fe0c86e3          	beqz	x25,4b0 <.L1053>
 4c8:	00e7cd83          	lbu	x27,14(x15)
 4cc:	0ffdf893          	andi	x17,x27,255
 4d0:	fe0880e3          	beqz	x17,4b0 <.L1053>
 4d4:	00f7ce03          	lbu	x28,15(x15)
 4d8:	0ffe7f13          	andi	x30,x28,255
 4dc:	fc0f0ae3          	beqz	x30,4b0 <.L1053>
 4e0:	00078623          	sb	x0,12(x15)
 4e4:	000786a3          	sb	x0,13(x15)
 4e8:	00078723          	sb	x0,14(x15)
 4ec:	000787a3          	sb	x0,15(x15)
 4f0:	000002b7          	lui	x5,0x0
 4f4:	0007a423          	sw	x0,8(x15)
 4f8:	00000593          	li	x11,0
 4fc:	00828093          	addi	x1,x5,8 # 8 <_Z19tensorlib_copy_implIdiEiP11hb_tensor_tS1_+0x8>
 500:	03fc0fb7          	lui	x31,0x3fc0
 504:	200003b7          	lui	x7,0x20000
 508:	00100513          	li	x10,1
 50c:	01000637          	lui	x12,0x1000
 510:	04000837          	lui	x16,0x4000

00000514 <.L1057>:
 514:	01231713          	slli	x14,x6,0x12
 518:	00b0eeb3          	or	x29,x1,x11
 51c:	01f776b3          	and	x13,x14,x31
 520:	01d6eab3          	or	x21,x13,x29
 524:	007aea33          	or	x20,x21,x7
 528:	00aa2023          	sw	x10,0(x20)
 52c:	00c585b3          	add	x11,x11,x12
 530:	0004a303          	lw	x6,0(x9)
 534:	ff0590e3          	bne	x11,x16,514 <.L1057>
 538:	f0a302e3          	beq	x6,x10,43c <.L1058>
 53c:	d65ff06f          	j	2a0 <.L1059>

00000540 <.L1095>:
 540:	fff58f93          	addi	x31,x11,-1
 544:	ffd00293          	li	x5,-3
 548:	cbf2eee3          	bltu	x5,x31,204 <.L1024>
 54c:	00000eb7          	lui	x29,0x0
 550:	000ea083          	lw	x1,0(x29) # 0 <_Z19tensorlib_copy_implIdiEiP11hb_tensor_tS1_>
 554:	0045d613          	srli	x12,x11,0x4
 558:	00160393          	addi	x7,x12,1 # 1000001 <.L1103+0xfff805>
 55c:	02138bb3          	mul	x23,x7,x1
 560:	01738c33          	add	x24,x7,x23
 564:	1585e863          	bltu	x11,x24,6b4 <.L1102>

00000568 <.L1023>:
 568:	c98bfee3          	bgeu	x23,x24,204 <.L1024>
 56c:	000aaa83          	lw	x21,0(x21)
 570:	000a2a03          	lw	x20,0(x20)
 574:	417c05b3          	sub	x11,x24,x23
 578:	002a9d13          	slli	x26,x21,0x2
 57c:	003a1c93          	slli	x25,x20,0x3
 580:	03ab8833          	mul	x16,x23,x26
 584:	00400713          	li	x14,4
 588:	037c86b3          	mul	x13,x25,x23
 58c:	010989b3          	add	x19,x19,x16
 590:	00d90933          	add	x18,x18,x13
 594:	0eb77c63          	bgeu	x14,x11,68c <.L1029>
 598:	ffcc0d93          	addi	x27,x24,-4
 59c:	03b12423          	sw	x27,40(x2)
 5a0:	0fbbf663          	bgeu	x23,x27,68c <.L1029>
 5a4:	00098693          	mv	x13,x19
 5a8:	003a9313          	slli	x6,x21,0x3
 5ac:	004a1993          	slli	x19,x20,0x4
 5b0:	004a9813          	slli	x16,x21,0x4
 5b4:	005a1d93          	slli	x27,x20,0x5
 5b8:	01390ab3          	add	x21,x18,x19
 5bc:	00668a33          	add	x20,x13,x6

000005c0 <.L1028>:
 5c0:	019907b3          	add	x15,x18,x25
 5c4:	0007a503          	lw	x10,0(x15)
 5c8:	019a8e33          	add	x28,x21,x25
 5cc:	000aaf03          	lw	x30,0(x21)
 5d0:	004aa283          	lw	x5,4(x21)
 5d4:	0047a883          	lw	x17,4(x15)
 5d8:	000e2e83          	lw	x29,0(x28)
 5dc:	004e2083          	lw	x1,4(x28)
 5e0:	00492583          	lw	x11,4(x18)
 5e4:	00a12c23          	sw	x10,24(x2)
 5e8:	00092503          	lw	x10,0(x18)
 5ec:	00068993          	mv	x19,x13
 5f0:	03012223          	sw	x16,36(x2)
 5f4:	01112e23          	sw	x17,28(x2)
 5f8:	01e12823          	sw	x30,16(x2)
 5fc:	00512a23          	sw	x5,20(x2)
 600:	01d12423          	sw	x29,8(x2)
 604:	00112623          	sw	x1,12(x2)
 608:	00000097          	auipc	x1,0x0
 60c:	000080e7          	jalr	x1 # 608 <.L1028+0x48>
 610:	00a9a023          	sw	x10,0(x19)
 614:	01c12583          	lw	x11,28(x2)
 618:	01812503          	lw	x10,24(x2)
 61c:	004b8b93          	addi	x23,x23,4
 620:	01b90933          	add	x18,x18,x27
 624:	00000097          	auipc	x1,0x0
 628:	000080e7          	jalr	x1 # 624 <.L1028+0x64>
 62c:	00050f93          	mv	x31,x10
 630:	01412583          	lw	x11,20(x2)
 634:	01012503          	lw	x10,16(x2)
 638:	01a983b3          	add	x7,x19,x26
 63c:	01f3a023          	sw	x31,0(x7) # 20000000 <.L1103+0x1ffff804>
 640:	00000097          	auipc	x1,0x0
 644:	000080e7          	jalr	x1 # 640 <.L1028+0x80>
 648:	00aa2023          	sw	x10,0(x20)
 64c:	00c12583          	lw	x11,12(x2)
 650:	00812503          	lw	x10,8(x2)
 654:	01aa0633          	add	x12,x20,x26
 658:	00c12423          	sw	x12,8(x2)
 65c:	00000097          	auipc	x1,0x0
 660:	000080e7          	jalr	x1 # 65c <.L1028+0x9c>
 664:	02412803          	lw	x16,36(x2)
 668:	00812703          	lw	x14,8(x2)
 66c:	02812303          	lw	x6,40(x2)
 670:	010989b3          	add	x19,x19,x16
 674:	00a72023          	sw	x10,0(x14)
 678:	00098693          	mv	x13,x19
 67c:	01ba8ab3          	add	x21,x21,x27
 680:	010a0a33          	add	x20,x20,x16
 684:	f26beee3          	bltu	x23,x6,5c0 <.L1028>
 688:	b78bfee3          	bgeu	x23,x24,204 <.L1024>

0000068c <.L1029>:
 68c:	00092503          	lw	x10,0(x18)
 690:	00492583          	lw	x11,4(x18)
 694:	001b8b93          	addi	x23,x23,1
 698:	01990933          	add	x18,x18,x25
 69c:	00000097          	auipc	x1,0x0
 6a0:	000080e7          	jalr	x1 # 69c <.L1029+0x10>
 6a4:	00a9a023          	sw	x10,0(x19)
 6a8:	01a989b3          	add	x19,x19,x26
 6ac:	ff8be0e3          	bltu	x23,x24,68c <.L1029>
 6b0:	b55ff06f          	j	204 <.L1024>

000006b4 <.L1102>:
 6b4:	00058c13          	mv	x24,x11
 6b8:	eb1ff06f          	j	568 <.L1023>

000006bc <.L1065>:
 6bc:	00090e13          	mv	x28,x18
 6c0:	b21ff06f          	j	1e0 <.L1045>

000006c4 <.L1064>:
 6c4:	00098d13          	mv	x26,x19
 6c8:	ad1ff06f          	j	198 <.L1043>

000006cc <.L1097>:
 6cc:	00432d03          	lw	x26,4(x6) # 21040004 <.L1103+0x2103f808>
 6d0:	00032d83          	lw	x27,0(x6)
 6d4:	ffd00b93          	li	x23,-3
 6d8:	03bd07b3          	mul	x15,x26,x27
 6dc:	fff78513          	addi	x10,x15,-1
 6e0:	b2abe2e3          	bltu	x23,x10,204 <.L1024>
 6e4:	00000837          	lui	x16,0x0
 6e8:	00082883          	lw	x17,0(x16) # 0 <_Z19tensorlib_copy_implIdiEiP11hb_tensor_tS1_>
 6ec:	0047de13          	srli	x28,x15,0x4
 6f0:	001e0f13          	addi	x30,x28,1
 6f4:	031f0db3          	mul	x27,x30,x17
 6f8:	01bf0fb3          	add	x31,x30,x27
 6fc:	03f12423          	sw	x31,40(x2)
 700:	0ff7ee63          	bltu	x15,x31,7fc <.L1103>

00000704 <.L1037>:
 704:	02812283          	lw	x5,40(x2)
 708:	ae5dfee3          	bgeu	x27,x5,204 <.L1024>
 70c:	004c2c83          	lw	x25,4(x24)
 710:	004a2c03          	lw	x24,4(x20)
 714:	004aae83          	lw	x29,4(x21)
 718:	000aa083          	lw	x1,0(x21)
 71c:	000a2703          	lw	x14,0(x20)
 720:	03812a23          	sw	x24,52(x2)
 724:	00832c03          	lw	x24,8(x6)
 728:	03d12623          	sw	x29,44(x2)
 72c:	02112823          	sw	x1,48(x2)
 730:	02e12c23          	sw	x14,56(x2)

00000734 <.L1039>:
 734:	03adf633          	remu	x12,x27,x26
 738:	02c12683          	lw	x13,44(x2)
 73c:	03012783          	lw	x15,48(x2)
 740:	03412803          	lw	x16,52(x2)
 744:	03812f83          	lw	x31,56(x2)
 748:	03add3b3          	divu	x7,x27,x26
 74c:	039df333          	remu	x6,x27,x25
 750:	039dd5b3          	divu	x11,x27,x25
 754:	02d60bb3          	mul	x23,x12,x13
 758:	02f38533          	mul	x10,x7,x15
 75c:	030308b3          	mul	x17,x6,x16
 760:	00ab8e33          	add	x28,x23,x10
 764:	002e1f13          	slli	x30,x28,0x2
 768:	01e986b3          	add	x13,x19,x30
 76c:	03f582b3          	mul	x5,x11,x31
 770:	00588eb3          	add	x29,x17,x5
 774:	003e9093          	slli	x1,x29,0x3
 778:	001907b3          	add	x15,x18,x1
 77c:	060c0063          	beqz	x24,7dc <.L1041>
 780:	008aa603          	lw	x12,8(x21)
 784:	008a2383          	lw	x7,8(x20)
 788:	00000b93          	li	x23,0
 78c:	00261593          	slli	x11,x12,0x2
 790:	00339813          	slli	x16,x7,0x3

00000794 <.L1040>:
 794:	0007a503          	lw	x10,0(x15)
 798:	00b12c23          	sw	x11,24(x2)
 79c:	0047a583          	lw	x11,4(x15)
 7a0:	01078733          	add	x14,x15,x16
 7a4:	02d12223          	sw	x13,36(x2)
 7a8:	01012823          	sw	x16,16(x2)
 7ac:	00e12423          	sw	x14,8(x2)
 7b0:	02e12e23          	sw	x14,60(x2)
 7b4:	00000097          	auipc	x1,0x0
 7b8:	000080e7          	jalr	x1 # 7b4 <.L1040+0x20>
 7bc:	02412303          	lw	x6,36(x2)
 7c0:	01812583          	lw	x11,24(x2)
 7c4:	001b8b93          	addi	x23,x23,1
 7c8:	00a32023          	sw	x10,0(x6)
 7cc:	00812783          	lw	x15,8(x2)
 7d0:	01012803          	lw	x16,16(x2)
 7d4:	00b306b3          	add	x13,x6,x11
 7d8:	fb7c1ee3          	bne	x24,x23,794 <.L1040>

000007dc <.L1041>:
 7dc:	02812503          	lw	x10,40(x2)
 7e0:	001d8d93          	addi	x27,x27,1 # 40001 <.L1103+0x3f805>
 7e4:	f5b518e3          	bne	x10,x27,734 <.L1039>
 7e8:	a1dff06f          	j	204 <.L1024>

000007ec <.L1098>:
 7ec:	00058b93          	mv	x23,x11
 7f0:	941ff06f          	j	130 <.L1042>

000007f4 <.L1100>:
 7f4:	01a12c23          	sw	x26,24(x2)
 7f8:	b3dff06f          	j	334 <.L1031>

000007fc <.L1103>:
 7fc:	02f12423          	sw	x15,40(x2)
 800:	f05ff06f          	j	704 <.L1037>

Disassembly of section .text._Z19tensorlib_copy_implIdfEiP11hb_tensor_tS1_:

00000000 <_Z19tensorlib_copy_implIdfEiP11hb_tensor_tS1_>:
   0:	f0010113          	addi	x2,x2,-256
   4:	00050793          	mv	x15,x10
   8:	0e812c23          	sw	x8,248(x2)
   c:	04810513          	addi	x10,x2,72
  10:	00058413          	mv	x8,x11
  14:	00078593          	mv	x11,x15
  18:	0e112e23          	sw	x1,252(x2)
  1c:	0e912a23          	sw	x9,244(x2)
  20:	0f212823          	sw	x18,240(x2)
  24:	0f312623          	sw	x19,236(x2)
  28:	0f412423          	sw	x20,232(x2)
  2c:	0f512223          	sw	x21,228(x2)
  30:	0f612023          	sw	x22,224(x2)
  34:	0d712e23          	sw	x23,220(x2)
  38:	0d812c23          	sw	x24,216(x2)
  3c:	0d912a23          	sw	x25,212(x2)
  40:	0da12823          	sw	x26,208(x2)
  44:	0db12623          	sw	x27,204(x2)
  48:	00000097          	auipc	x1,0x0
  4c:	000080e7          	jalr	x1 # 48 <_Z19tensorlib_copy_implIdfEiP11hb_tensor_tS1_+0x48>
  50:	00040593          	mv	x11,x8
  54:	08410513          	addi	x10,x2,132
  58:	00000097          	auipc	x1,0x0
  5c:	000080e7          	jalr	x1 # 58 <_Z19tensorlib_copy_implIdfEiP11hb_tensor_tS1_+0x58>
  60:	00000b37          	lui	x22,0x0
  64:	00000437          	lui	x8,0x0
  68:	000004b7          	lui	x9,0x0
  6c:	00000737          	lui	x14,0x0
  70:	000b2283          	lw	x5,0(x22) # 0 <_Z19tensorlib_copy_implIdfEiP11hb_tensor_tS1_>
  74:	00042583          	lw	x11,0(x8) # 0 <_Z19tensorlib_copy_implIdfEiP11hb_tensor_tS1_>
  78:	00072303          	lw	x6,0(x14) # 0 <_Z19tensorlib_copy_implIdfEiP11hb_tensor_tS1_>
  7c:	0004a603          	lw	x12,0(x9) # 0 <_Z19tensorlib_copy_implIdfEiP11hb_tensor_tS1_>
  80:	000006b7          	lui	x13,0x0
  84:	0006a383          	lw	x7,0(x13) # 0 <_Z19tensorlib_copy_implIdfEiP11hb_tensor_tS1_>
  88:	00b28533          	add	x10,x5,x11
  8c:	00c30833          	add	x16,x6,x12
  90:	01281913          	slli	x18,x16,0x12
  94:	3f0009b7          	lui	x19,0x3f000
  98:	00fc0ab7          	lui	x21,0xfc0
  9c:	01851893          	slli	x17,x10,0x18
  a0:	00040d37          	lui	x26,0x40
  a4:	0138fa33          	and	x20,x17,x19
  a8:	01597bb3          	and	x23,x18,x21
  ac:	ff0d0d93          	addi	x27,x26,-16 # 3fff0 <.L1103+0x3f7f4>
  b0:	00439c13          	slli	x24,x7,0x4
  b4:	017a6cb3          	or	x25,x20,x23
  b8:	01bc7e33          	and	x28,x24,x27
  bc:	01cceeb3          	or	x29,x25,x28
  c0:	04c12d83          	lw	x27,76(x2)
  c4:	80000f37          	lui	x30,0x80000
  c8:	01eeefb3          	or	x31,x29,x30
  cc:	410017b7          	lui	x15,0x41001
  d0:	d1f7a623          	sw	x31,-756(x15) # 41000d0c <.L1103+0x41000510>
  d4:	00100293          	li	x5,1
  d8:	04812583          	lw	x11,72(x2)
  dc:	05012a83          	lw	x21,80(x2)
  e0:	05812983          	lw	x19,88(x2)
  e4:	08c12a03          	lw	x20,140(x2)
  e8:	09412903          	lw	x18,148(x2)
  ec:	445d8a63          	beq	x27,x5,540 <.L1182>
  f0:	00200093          	li	x1,2
  f4:	05412303          	lw	x6,84(x2)
  f8:	201d8663          	beq	x27,x1,304 <.L1183>
  fc:	00300713          	li	x14,3
 100:	09012c03          	lw	x24,144(x2)
 104:	5ced8263          	beq	x27,x14,6c8 <.L1184>
 108:	fff58613          	addi	x12,x11,-1
 10c:	ffd00693          	li	x13,-3
 110:	0ec6ea63          	bltu	x13,x12,204 <.L1111>
 114:	000003b7          	lui	x7,0x0
 118:	0003a503          	lw	x10,0(x7) # 0 <_Z19tensorlib_copy_implIdfEiP11hb_tensor_tS1_>
 11c:	0045d813          	srli	x16,x11,0x4
 120:	00180893          	addi	x17,x16,1
 124:	02a88cb3          	mul	x25,x17,x10
 128:	01988bb3          	add	x23,x17,x25
 12c:	6b75ee63          	bltu	x11,x23,7e8 <.L1185>

00000130 <.L1129>:
 130:	0d7cfa63          	bgeu	x25,x23,204 <.L1111>
 134:	08812e03          	lw	x28,136(x2)
 138:	002d9d13          	slli	x26,x27,0x2
 13c:	01a30eb3          	add	x29,x6,x26
 140:	002e1f13          	slli	x30,x28,0x2
 144:	01ec0fb3          	add	x31,x24,x30
 148:	03c12223          	sw	x28,36(x2)
 14c:	01d12823          	sw	x29,16(x2)
 150:	01f12c23          	sw	x31,24(x2)

00000154 <.L1134>:
 154:	560d8663          	beqz	x27,6c0 <.L1151>
 158:	000a8393          	mv	x7,x21
 15c:	00030713          	mv	x14,x6
 160:	000c8593          	mv	x11,x25
 164:	00000793          	li	x15,0

00000168 <.L1131>:
 168:	00072283          	lw	x5,0(x14)
 16c:	0003a083          	lw	x1,0(x7)
 170:	01012503          	lw	x10,16(x2)
 174:	0255f633          	remu	x12,x11,x5
 178:	00470713          	addi	x14,x14,4
 17c:	00438393          	addi	x7,x7,4
 180:	021606b3          	mul	x13,x12,x1
 184:	0255d5b3          	divu	x11,x11,x5
 188:	00d787b3          	add	x15,x15,x13
 18c:	fce51ee3          	bne	x10,x14,168 <.L1131>
 190:	00279813          	slli	x16,x15,0x2
 194:	01098d33          	add	x26,x19,x16

00000198 <.L1130>:
 198:	02412883          	lw	x17,36(x2)
 19c:	50088e63          	beqz	x17,6b8 <.L1152>
 1a0:	000a0093          	mv	x1,x20
 1a4:	000c0293          	mv	x5,x24
 1a8:	000c8613          	mv	x12,x25
 1ac:	00000393          	li	x7,0

000001b0 <.L1133>:
 1b0:	0002af03          	lw	x30,0(x5)
 1b4:	0000af83          	lw	x31,0(x1)
 1b8:	01812683          	lw	x13,24(x2)
 1bc:	00428293          	addi	x5,x5,4
 1c0:	00408093          	addi	x1,x1,4
 1c4:	03e67eb3          	remu	x29,x12,x30
 1c8:	03fe8733          	mul	x14,x29,x31
 1cc:	03e65633          	divu	x12,x12,x30
 1d0:	00e383b3          	add	x7,x7,x14
 1d4:	fc569ee3          	bne	x13,x5,1b0 <.L1133>
 1d8:	00339593          	slli	x11,x7,0x3
 1dc:	00b90e33          	add	x28,x18,x11

000001e0 <.L1132>:
 1e0:	000e2503          	lw	x10,0(x28)
 1e4:	004e2583          	lw	x11,4(x28)
 1e8:	00612423          	sw	x6,8(x2)
 1ec:	001c8c93          	addi	x25,x25,1
 1f0:	00000097          	auipc	x1,0x0
 1f4:	000080e7          	jalr	x1 # 1f0 <.L1132+0x10>
 1f8:	00ad2027          	fsw	f10,0(x26)
 1fc:	00812303          	lw	x6,8(x2)
 200:	f59b9ae3          	bne	x23,x25,154 <.L1134>

00000204 <.L1111>:
 204:	00000c37          	lui	x24,0x0
 208:	000c2d03          	lw	x26,0(x24) # 0 <_Z19tensorlib_copy_implIdfEiP11hb_tensor_tS1_>
 20c:	000b2b03          	lw	x22,0(x22)
 210:	00042083          	lw	x1,0(x8)
 214:	0004ac83          	lw	x25,0(x9)
 218:	000006b7          	lui	x13,0x0
 21c:	0006a303          	lw	x6,0(x13) # 0 <_Z19tensorlib_copy_implIdfEiP11hb_tensor_tS1_>
 220:	001b08b3          	add	x17,x22,x1
 224:	019d0e33          	add	x28,x26,x25
 228:	01889793          	slli	x15,x17,0x18
 22c:	012e1f13          	slli	x30,x28,0x12
 230:	3f000fb7          	lui	x31,0x3f000
 234:	00fc0eb7          	lui	x29,0xfc0
 238:	00040637          	lui	x12,0x40
 23c:	01f7f2b3          	and	x5,x15,x31
 240:	00431513          	slli	x10,x6,0x4
 244:	01df73b3          	and	x7,x30,x29
 248:	ff060a93          	addi	x21,x12,-16 # 3fff0 <.L1103+0x3f7f4>
 24c:	0072e5b3          	or	x11,x5,x7
 250:	01557833          	and	x16,x10,x21
 254:	0105edb3          	or	x27,x11,x16
 258:	c0000a37          	lui	x20,0xc0000
 25c:	014debb3          	or	x23,x27,x20
 260:	41001737          	lui	x14,0x41001
 264:	d1772623          	sw	x23,-756(x14) # 41000d0c <.L1103+0x41000510>
 268:	0004a903          	lw	x18,0(x9)
 26c:	00042983          	lw	x19,0(x8)
 270:	00000b37          	lui	x22,0x0
 274:	00490093          	addi	x1,x18,4
 278:	000b0793          	mv	x15,x22
 27c:	00178c33          	add	x24,x15,x1
 280:	01899d13          	slli	x26,x19,0x18
 284:	01ac6cb3          	or	x25,x24,x26
 288:	200406b7          	lui	x13,0x20040
 28c:	00dce333          	or	x6,x25,x13
 290:	00100893          	li	x17,1
 294:	01130023          	sb	x17,0(x6)
 298:	0004ae03          	lw	x28,0(x9)
 29c:	151e0263          	beq	x28,x17,3e0 <.L1135>

000002a0 <.L1146>:
 2a0:	00100413          	li	x8,1
 2a4:	0100006f          	j	2b4 <.L1150>

000002a8 <.L1186>:
 2a8:	000b0613          	mv	x12,x22
 2ac:	14062aaf          	lr.w.aq	x21,(x12)
 2b0:	008a8863          	beq	x21,x8,2c0 <.L1149>

000002b4 <.L1150>:
 2b4:	000b0393          	mv	x7,x22
 2b8:	1003a52f          	lr.w	x10,(x7)
 2bc:	fe8516e3          	bne	x10,x8,2a8 <.L1186>

000002c0 <.L1149>:
 2c0:	0fc12083          	lw	x1,252(x2)
 2c4:	0f812403          	lw	x8,248(x2)
 2c8:	0007a023          	sw	x0,0(x15)
 2cc:	0f412483          	lw	x9,244(x2)
 2d0:	0f012903          	lw	x18,240(x2)
 2d4:	0ec12983          	lw	x19,236(x2)
 2d8:	0e812a03          	lw	x20,232(x2)
 2dc:	0e412a83          	lw	x21,228(x2)
 2e0:	0e012b03          	lw	x22,224(x2)
 2e4:	0dc12b83          	lw	x23,220(x2)
 2e8:	0d812c03          	lw	x24,216(x2)
 2ec:	0d412c83          	lw	x25,212(x2)
 2f0:	0d012d03          	lw	x26,208(x2)
 2f4:	0cc12d83          	lw	x27,204(x2)
 2f8:	00000513          	li	x10,0
 2fc:	10010113          	addi	x2,x2,256
 300:	00008067          	ret

00000304 <.L1183>:
 304:	00032d03          	lw	x26,0(x6)
 308:	ffd00c93          	li	x25,-3
 30c:	fffd0c13          	addi	x24,x26,-1
 310:	ef8ceae3          	bltu	x25,x24,204 <.L1111>
 314:	000008b7          	lui	x17,0x0
 318:	0008ae03          	lw	x28,0(x17) # 0 <_Z19tensorlib_copy_implIdfEiP11hb_tensor_tS1_>
 31c:	004d5f13          	srli	x30,x26,0x4
 320:	001f0f93          	addi	x31,x30,1 # 80000001 <.L1103+0x7ffff805>
 324:	03cf8bb3          	mul	x23,x31,x28
 328:	017f82b3          	add	x5,x31,x23
 32c:	00512c23          	sw	x5,24(x2)
 330:	4c5d6063          	bltu	x26,x5,7f0 <.L1187>

00000334 <.L1118>:
 334:	01812e83          	lw	x29,24(x2)
 338:	eddbf6e3          	bgeu	x23,x29,204 <.L1111>
 33c:	000a2083          	lw	x1,0(x20) # c0000000 <.L1103+0xbffff804>
 340:	000aa603          	lw	x12,0(x21) # fc0000 <.L1103+0xfbf804>
 344:	00432503          	lw	x10,4(x6)
 348:	00309393          	slli	x7,x1,0x3
 34c:	00261713          	slli	x14,x12,0x2
 350:	027b85b3          	mul	x11,x23,x7
 354:	02712423          	sw	x7,40(x2)
 358:	02e12223          	sw	x14,36(x2)
 35c:	02eb86b3          	mul	x13,x23,x14
 360:	00b90cb3          	add	x25,x18,x11
 364:	00d98c33          	add	x24,x19,x13

00000368 <.L1120>:
 368:	000c8793          	mv	x15,x25
 36c:	04050a63          	beqz	x10,3c0 <.L1122>
 370:	004aa903          	lw	x18,4(x21)
 374:	004a2803          	lw	x16,4(x20)
 378:	000c0993          	mv	x19,x24
 37c:	00291913          	slli	x18,x18,0x2
 380:	00381d93          	slli	x27,x16,0x3
 384:	00000d13          	li	x26,0

00000388 <.L1121>:
 388:	0047a583          	lw	x11,4(x15)
 38c:	00a12823          	sw	x10,16(x2)
 390:	0007a503          	lw	x10,0(x15)
 394:	01b78333          	add	x6,x15,x27
 398:	00612423          	sw	x6,8(x2)
 39c:	02612623          	sw	x6,44(x2)
 3a0:	00000097          	auipc	x1,0x0
 3a4:	000080e7          	jalr	x1 # 3a0 <.L1121+0x18>
 3a8:	01012503          	lw	x10,16(x2)
 3ac:	00a9a027          	fsw	f10,0(x19) # 3f000000 <.L1103+0x3efff804>
 3b0:	001d0d13          	addi	x26,x26,1
 3b4:	00812783          	lw	x15,8(x2)
 3b8:	012989b3          	add	x19,x19,x18
 3bc:	fda516e3          	bne	x10,x26,388 <.L1121>

000003c0 <.L1122>:
 3c0:	02812883          	lw	x17,40(x2)
 3c4:	02412e03          	lw	x28,36(x2)
 3c8:	01812f03          	lw	x30,24(x2)
 3cc:	001b8b93          	addi	x23,x23,1
 3d0:	011c8cb3          	add	x25,x25,x17
 3d4:	01cc0c33          	add	x24,x24,x28
 3d8:	f97f18e3          	bne	x30,x23,368 <.L1120>
 3dc:	e29ff06f          	j	204 <.L1111>

000003e0 <.L1135>:
 3e0:	0047cf03          	lbu	x30,4(x15)
 3e4:	0fff7f93          	andi	x31,x30,255
 3e8:	fe0f8ce3          	beqz	x31,3e0 <.L1135>
 3ec:	0057c283          	lbu	x5,5(x15)
 3f0:	0ff2fe93          	andi	x29,x5,255
 3f4:	fe0e86e3          	beqz	x29,3e0 <.L1135>
 3f8:	0067c383          	lbu	x7,6(x15)
 3fc:	0ff3f513          	andi	x10,x7,255
 400:	fe0500e3          	beqz	x10,3e0 <.L1135>
 404:	0077c583          	lbu	x11,7(x15)
 408:	0ff5f613          	andi	x12,x11,255
 40c:	fc060ae3          	beqz	x12,3e0 <.L1135>
 410:	00042a83          	lw	x21,0(x8)
 414:	21040bb7          	lui	x23,0x21040
 418:	00100813          	li	x16,1
 41c:	00ca8d93          	addi	x27,x21,12
 420:	01b78a33          	add	x20,x15,x27
 424:	017a6733          	or	x14,x20,x23
 428:	01070023          	sb	x16,0(x14)
 42c:	0004a903          	lw	x18,0(x9)
 430:	e70918e3          	bne	x18,x16,2a0 <.L1146>
 434:	00042b83          	lw	x23,0(x8)
 438:	072b8c63          	beq	x23,x18,4b0 <.L1140>

0000043c <.L1145>:
 43c:	00100493          	li	x9,1
 440:	0100006f          	j	450 <.L1139>

00000444 <.L1188>:
 444:	00878993          	addi	x19,x15,8
 448:	1409a0af          	lr.w.aq	x1,(x19)
 44c:	00908863          	beq	x1,x9,45c <.L1147>

00000450 <.L1139>:
 450:	00878713          	addi	x14,x15,8
 454:	1007292f          	lr.w	x18,(x14)
 458:	fe9916e3          	bne	x18,x9,444 <.L1188>

0000045c <.L1147>:
 45c:	0007a423          	sw	x0,8(x15)
 460:	00078223          	sb	x0,4(x15)
 464:	000782a3          	sb	x0,5(x15)
 468:	00078323          	sb	x0,6(x15)
 46c:	000783a3          	sb	x0,7(x15)
 470:	0007a023          	sw	x0,0(x15)
 474:	00000e13          	li	x28,0
 478:	000b0793          	mv	x15,x22
 47c:	20000c37          	lui	x24,0x20000
 480:	00100d13          	li	x26,1
 484:	00040cb7          	lui	x25,0x40
 488:	001006b7          	lui	x13,0x100

0000048c <.L1148>:
 48c:	00042303          	lw	x6,0(x8)
 490:	01c7e8b3          	or	x17,x15,x28
 494:	019e0e33          	add	x28,x28,x25
 498:	01831f13          	slli	x30,x6,0x18
 49c:	011f6fb3          	or	x31,x30,x17
 4a0:	018fe2b3          	or	x5,x31,x24
 4a4:	01a2a023          	sw	x26,0(x5)
 4a8:	fede12e3          	bne	x28,x13,48c <.L1148>
 4ac:	df5ff06f          	j	2a0 <.L1146>

000004b0 <.L1140>:
 4b0:	00c7c983          	lbu	x19,12(x15)
 4b4:	0ff9f093          	andi	x1,x19,255
 4b8:	fe008ce3          	beqz	x1,4b0 <.L1140>
 4bc:	00d7cc03          	lbu	x24,13(x15)
 4c0:	0ffc7d13          	andi	x26,x24,255
 4c4:	fe0d06e3          	beqz	x26,4b0 <.L1140>
 4c8:	00e7cc83          	lbu	x25,14(x15)
 4cc:	0ffcf693          	andi	x13,x25,255
 4d0:	fe0680e3          	beqz	x13,4b0 <.L1140>
 4d4:	00f7c303          	lbu	x6,15(x15)
 4d8:	0ff37893          	andi	x17,x6,255
 4dc:	fc088ae3          	beqz	x17,4b0 <.L1140>
 4e0:	00078623          	sb	x0,12(x15)
 4e4:	000786a3          	sb	x0,13(x15)
 4e8:	00078723          	sb	x0,14(x15)
 4ec:	000787a3          	sb	x0,15(x15)
 4f0:	00000e37          	lui	x28,0x0
 4f4:	0007a423          	sw	x0,8(x15)
 4f8:	00000593          	li	x11,0
 4fc:	008e0f13          	addi	x30,x28,8 # 8 <_Z19tensorlib_copy_implIdfEiP11hb_tensor_tS1_+0x8>
 500:	03fc0fb7          	lui	x31,0x3fc0
 504:	200002b7          	lui	x5,0x20000
 508:	00100393          	li	x7,1
 50c:	01000537          	lui	x10,0x1000
 510:	04000637          	lui	x12,0x4000

00000514 <.L1144>:
 514:	012b9a93          	slli	x21,x23,0x12
 518:	00bf6eb3          	or	x29,x30,x11
 51c:	01faf833          	and	x16,x21,x31
 520:	01d86db3          	or	x27,x16,x29
 524:	005dea33          	or	x20,x27,x5
 528:	007a2023          	sw	x7,0(x20)
 52c:	00a585b3          	add	x11,x11,x10
 530:	0004ab83          	lw	x23,0(x9)
 534:	fec590e3          	bne	x11,x12,514 <.L1144>
 538:	f07b82e3          	beq	x23,x7,43c <.L1145>
 53c:	d65ff06f          	j	2a0 <.L1146>

00000540 <.L1182>:
 540:	fff58f93          	addi	x31,x11,-1
 544:	ffd00293          	li	x5,-3
 548:	cbf2eee3          	bltu	x5,x31,204 <.L1111>
 54c:	00000eb7          	lui	x29,0x0
 550:	000ea083          	lw	x1,0(x29) # 0 <_Z19tensorlib_copy_implIdfEiP11hb_tensor_tS1_>
 554:	0045d613          	srli	x12,x11,0x4
 558:	00160393          	addi	x7,x12,1 # 4000001 <.L1103+0x3fff805>
 55c:	02138bb3          	mul	x23,x7,x1
 560:	01738c33          	add	x24,x7,x23
 564:	1585e663          	bltu	x11,x24,6b0 <.L1189>

00000568 <.L1110>:
 568:	c98bfee3          	bgeu	x23,x24,204 <.L1111>
 56c:	000aa583          	lw	x11,0(x21)
 570:	000a2a03          	lw	x20,0(x20)
 574:	417c0ab3          	sub	x21,x24,x23
 578:	00259d13          	slli	x26,x11,0x2
 57c:	003a1c93          	slli	x25,x20,0x3
 580:	03ab8833          	mul	x16,x23,x26
 584:	00400713          	li	x14,4
 588:	037c86b3          	mul	x13,x25,x23
 58c:	010989b3          	add	x19,x19,x16
 590:	00d90933          	add	x18,x18,x13
 594:	0f577a63          	bgeu	x14,x21,688 <.L1116>
 598:	ffcc0d93          	addi	x27,x24,-4 # 1ffffffc <.L1103+0x1ffff800>
 59c:	03b12623          	sw	x27,44(x2)
 5a0:	0fbbf463          	bgeu	x23,x27,688 <.L1116>
 5a4:	00098a93          	mv	x21,x19
 5a8:	00359313          	slli	x6,x11,0x3
 5ac:	004a1993          	slli	x19,x20,0x4
 5b0:	005a1813          	slli	x16,x20,0x5
 5b4:	00459613          	slli	x12,x11,0x4
 5b8:	01390db3          	add	x27,x18,x19
 5bc:	006a8a33          	add	x20,x21,x6

000005c0 <.L1115>:
 5c0:	019908b3          	add	x17,x18,x25
 5c4:	019d87b3          	add	x15,x27,x25
 5c8:	0008ae03          	lw	x28,0(x17)
 5cc:	0048af03          	lw	x30,4(x17)
 5d0:	0007af83          	lw	x31,0(x15)
 5d4:	0047a283          	lw	x5,4(x15)
 5d8:	00092503          	lw	x10,0(x18)
 5dc:	00492583          	lw	x11,4(x18)
 5e0:	02c12423          	sw	x12,40(x2)
 5e4:	03012223          	sw	x16,36(x2)
 5e8:	01c12c23          	sw	x28,24(x2)
 5ec:	01e12e23          	sw	x30,28(x2)
 5f0:	01f12823          	sw	x31,16(x2)
 5f4:	00512a23          	sw	x5,20(x2)
 5f8:	00000097          	auipc	x1,0x0
 5fc:	000080e7          	jalr	x1 # 5f8 <.L1115+0x38>
 600:	000da503          	lw	x10,0(x27)
 604:	004dae83          	lw	x29,4(x27)
 608:	01c12583          	lw	x11,28(x2)
 60c:	00a12423          	sw	x10,8(x2)
 610:	01812503          	lw	x10,24(x2)
 614:	00aaa027          	fsw	f10,0(x21)
 618:	01d12623          	sw	x29,12(x2)
 61c:	00000097          	auipc	x1,0x0
 620:	000080e7          	jalr	x1 # 61c <.L1115+0x5c>
 624:	00812503          	lw	x10,8(x2)
 628:	00c12583          	lw	x11,12(x2)
 62c:	01aa83b3          	add	x7,x21,x26
 630:	00a3a027          	fsw	f10,0(x7)
 634:	00000097          	auipc	x1,0x0
 638:	000080e7          	jalr	x1 # 634 <.L1115+0x74>
 63c:	01012503          	lw	x10,16(x2)
 640:	01412583          	lw	x11,20(x2)
 644:	00aa2027          	fsw	f10,0(x20)
 648:	000a8993          	mv	x19,x21
 64c:	00000097          	auipc	x1,0x0
 650:	000080e7          	jalr	x1 # 64c <.L1115+0x8c>
 654:	02812603          	lw	x12,40(x2)
 658:	02412803          	lw	x16,36(x2)
 65c:	02c12703          	lw	x14,44(x2)
 660:	01aa0ab3          	add	x21,x20,x26
 664:	00c989b3          	add	x19,x19,x12
 668:	00aaa027          	fsw	f10,0(x21)
 66c:	004b8b93          	addi	x23,x23,4 # 21040004 <.L1103+0x2103f808>
 670:	00098a93          	mv	x21,x19
 674:	01090933          	add	x18,x18,x16
 678:	010d8db3          	add	x27,x27,x16
 67c:	00ca0a33          	add	x20,x20,x12
 680:	f4ebe0e3          	bltu	x23,x14,5c0 <.L1115>
 684:	b98bf0e3          	bgeu	x23,x24,204 <.L1111>

00000688 <.L1116>:
 688:	00092503          	lw	x10,0(x18)
 68c:	00492583          	lw	x11,4(x18)
 690:	001b8b93          	addi	x23,x23,1
 694:	01990933          	add	x18,x18,x25
 698:	00000097          	auipc	x1,0x0
 69c:	000080e7          	jalr	x1 # 698 <.L1116+0x10>
 6a0:	00a9a027          	fsw	f10,0(x19)
 6a4:	01a989b3          	add	x19,x19,x26
 6a8:	ff8be0e3          	bltu	x23,x24,688 <.L1116>
 6ac:	b59ff06f          	j	204 <.L1111>

000006b0 <.L1189>:
 6b0:	00058c13          	mv	x24,x11
 6b4:	eb5ff06f          	j	568 <.L1110>

000006b8 <.L1152>:
 6b8:	00090e13          	mv	x28,x18
 6bc:	b25ff06f          	j	1e0 <.L1132>

000006c0 <.L1151>:
 6c0:	00098d13          	mv	x26,x19
 6c4:	ad5ff06f          	j	198 <.L1130>

000006c8 <.L1184>:
 6c8:	00432d03          	lw	x26,4(x6)
 6cc:	00032d83          	lw	x27,0(x6)
 6d0:	ffd00b93          	li	x23,-3
 6d4:	03bd07b3          	mul	x15,x26,x27
 6d8:	fff78513          	addi	x10,x15,-1
 6dc:	b2abe4e3          	bltu	x23,x10,204 <.L1111>
 6e0:	00000837          	lui	x16,0x0
 6e4:	00082883          	lw	x17,0(x16) # 0 <_Z19tensorlib_copy_implIdfEiP11hb_tensor_tS1_>
 6e8:	0047de13          	srli	x28,x15,0x4
 6ec:	001e0f13          	addi	x30,x28,1
 6f0:	031f0db3          	mul	x27,x30,x17
 6f4:	01bf0fb3          	add	x31,x30,x27
 6f8:	03f12423          	sw	x31,40(x2)
 6fc:	0ff7ee63          	bltu	x15,x31,7f8 <.L1190>

00000700 <.L1124>:
 700:	02812283          	lw	x5,40(x2)
 704:	b05df0e3          	bgeu	x27,x5,204 <.L1111>
 708:	004c2c83          	lw	x25,4(x24)
 70c:	004a2c03          	lw	x24,4(x20)
 710:	004aae83          	lw	x29,4(x21)
 714:	000aa083          	lw	x1,0(x21)
 718:	000a2703          	lw	x14,0(x20)
 71c:	03812a23          	sw	x24,52(x2)
 720:	00832c03          	lw	x24,8(x6)
 724:	03d12623          	sw	x29,44(x2)
 728:	02112823          	sw	x1,48(x2)
 72c:	02e12c23          	sw	x14,56(x2)

00000730 <.L1126>:
 730:	03adf633          	remu	x12,x27,x26
 734:	02c12683          	lw	x13,44(x2)
 738:	03012783          	lw	x15,48(x2)
 73c:	03412803          	lw	x16,52(x2)
 740:	03812f83          	lw	x31,56(x2)
 744:	03add3b3          	divu	x7,x27,x26
 748:	039df333          	remu	x6,x27,x25
 74c:	039dd5b3          	divu	x11,x27,x25
 750:	02d60bb3          	mul	x23,x12,x13
 754:	02f38533          	mul	x10,x7,x15
 758:	030308b3          	mul	x17,x6,x16
 75c:	00ab8e33          	add	x28,x23,x10
 760:	002e1f13          	slli	x30,x28,0x2
 764:	01e986b3          	add	x13,x19,x30
 768:	03f582b3          	mul	x5,x11,x31
 76c:	00588eb3          	add	x29,x17,x5
 770:	003e9093          	slli	x1,x29,0x3
 774:	001907b3          	add	x15,x18,x1
 778:	060c0063          	beqz	x24,7d8 <.L1128>
 77c:	008aa603          	lw	x12,8(x21)
 780:	008a2383          	lw	x7,8(x20)
 784:	00000b93          	li	x23,0
 788:	00261593          	slli	x11,x12,0x2
 78c:	00339813          	slli	x16,x7,0x3

00000790 <.L1127>:
 790:	0007a503          	lw	x10,0(x15)
 794:	00b12c23          	sw	x11,24(x2)
 798:	0047a583          	lw	x11,4(x15)
 79c:	01078733          	add	x14,x15,x16
 7a0:	02d12223          	sw	x13,36(x2)
 7a4:	01012823          	sw	x16,16(x2)
 7a8:	00e12423          	sw	x14,8(x2)
 7ac:	02e12e23          	sw	x14,60(x2)
 7b0:	00000097          	auipc	x1,0x0
 7b4:	000080e7          	jalr	x1 # 7b0 <.L1127+0x20>
 7b8:	02412303          	lw	x6,36(x2)
 7bc:	01812583          	lw	x11,24(x2)
 7c0:	001b8b93          	addi	x23,x23,1
 7c4:	00a32027          	fsw	f10,0(x6)
 7c8:	00812783          	lw	x15,8(x2)
 7cc:	01012803          	lw	x16,16(x2)
 7d0:	00b306b3          	add	x13,x6,x11
 7d4:	fb7c1ee3          	bne	x24,x23,790 <.L1127>

000007d8 <.L1128>:
 7d8:	02812503          	lw	x10,40(x2)
 7dc:	001d8d93          	addi	x27,x27,1
 7e0:	f5b518e3          	bne	x10,x27,730 <.L1126>
 7e4:	a21ff06f          	j	204 <.L1111>

000007e8 <.L1185>:
 7e8:	00058b93          	mv	x23,x11
 7ec:	945ff06f          	j	130 <.L1129>

000007f0 <.L1187>:
 7f0:	01a12c23          	sw	x26,24(x2)
 7f4:	b41ff06f          	j	334 <.L1118>

000007f8 <.L1190>:
 7f8:	02f12423          	sw	x15,40(x2)
 7fc:	f05ff06f          	j	700 <.L1124>

Disassembly of section .text._Z19tensorlib_copy_implIddEiP11hb_tensor_tS1_:

00000000 <_Z19tensorlib_copy_implIddEiP11hb_tensor_tS1_>:
   0:	f5010113          	addi	x2,x2,-176
   4:	00050793          	mv	x15,x10
   8:	0a812423          	sw	x8,168(x2)
   c:	00810513          	addi	x10,x2,8
  10:	00058413          	mv	x8,x11
  14:	00078593          	mv	x11,x15
  18:	0a112623          	sw	x1,172(x2)
  1c:	0a912223          	sw	x9,164(x2)
  20:	0b212023          	sw	x18,160(x2)
  24:	09312e23          	sw	x19,156(x2)
  28:	09412c23          	sw	x20,152(x2)
  2c:	09512a23          	sw	x21,148(x2)
  30:	09612823          	sw	x22,144(x2)
  34:	09712623          	sw	x23,140(x2)
  38:	09812423          	sw	x24,136(x2)
  3c:	09912223          	sw	x25,132(x2)
  40:	00000097          	auipc	x1,0x0
  44:	000080e7          	jalr	x1 # 40 <_Z19tensorlib_copy_implIddEiP11hb_tensor_tS1_+0x40>
  48:	00040593          	mv	x11,x8
  4c:	04410513          	addi	x10,x2,68
  50:	00000097          	auipc	x1,0x0
  54:	000080e7          	jalr	x1 # 50 <_Z19tensorlib_copy_implIddEiP11hb_tensor_tS1_+0x50>
  58:	00000eb7          	lui	x29,0x0
  5c:	000006b7          	lui	x13,0x0
  60:	00000e37          	lui	x28,0x0
  64:	00000637          	lui	x12,0x0
  68:	000ea283          	lw	x5,0(x29) # 0 <_Z19tensorlib_copy_implIddEiP11hb_tensor_tS1_>
  6c:	0006a803          	lw	x16,0(x13) # 0 <_Z19tensorlib_copy_implIddEiP11hb_tensor_tS1_>
  70:	000e2703          	lw	x14,0(x28) # 0 <_Z19tensorlib_copy_implIddEiP11hb_tensor_tS1_>
  74:	00062503          	lw	x10,0(x12) # 0 <_Z19tensorlib_copy_implIddEiP11hb_tensor_tS1_>
  78:	00000337          	lui	x6,0x0
  7c:	00032583          	lw	x11,0(x6) # 0 <_Z19tensorlib_copy_implIddEiP11hb_tensor_tS1_>
  80:	010283b3          	add	x7,x5,x16
  84:	00a704b3          	add	x9,x14,x10
  88:	01839893          	slli	x17,x7,0x18
  8c:	01249913          	slli	x18,x9,0x12
  90:	3f0009b7          	lui	x19,0x3f000
  94:	00fc0ab7          	lui	x21,0xfc0
  98:	00040cb7          	lui	x25,0x40
  9c:	00459b93          	slli	x23,x11,0x4
  a0:	ff0c8f13          	addi	x30,x25,-16 # 3fff0 <.L1103+0x3f7f4>
  a4:	0138fa33          	and	x20,x17,x19
  a8:	01597b33          	and	x22,x18,x21
  ac:	01ebffb3          	and	x31,x23,x30
  b0:	016a6c33          	or	x24,x20,x22
  b4:	01fc67b3          	or	x15,x24,x31
  b8:	00c12383          	lw	x7,12(x2)
  bc:	80000437          	lui	x8,0x80000
  c0:	0087e2b3          	or	x5,x15,x8
  c4:	41001837          	lui	x16,0x41001
  c8:	d0582623          	sw	x5,-756(x16) # 41000d0c <.L1103+0x41000510>
  cc:	00100593          	li	x11,1
  d0:	00812703          	lw	x14,8(x2)
  d4:	01012f03          	lw	x30,16(x2)
  d8:	01812283          	lw	x5,24(x2)
  dc:	04c12503          	lw	x10,76(x2)
  e0:	05412f83          	lw	x31,84(x2)
  e4:	3eb38663          	beq	x7,x11,4d0 <.L1269>
  e8:	00200093          	li	x1,2
  ec:	01412883          	lw	x17,20(x2)
  f0:	1c138c63          	beq	x7,x1,2c8 <.L1270>
  f4:	00300493          	li	x9,3
  f8:	05012403          	lw	x8,80(x2)
  fc:	4e938e63          	beq	x7,x9,5f8 <.L1271>
 100:	fff70913          	addi	x18,x14,-1
 104:	ffd00993          	li	x19,-3
 108:	0d29e863          	bltu	x19,x18,1d8 <.L1198>
 10c:	00000a37          	lui	x20,0x0
 110:	000a2a83          	lw	x21,0(x20) # 0 <_Z19tensorlib_copy_implIddEiP11hb_tensor_tS1_>
 114:	00475b13          	srli	x22,x14,0x4
 118:	001b0b93          	addi	x23,x22,1 # 1 <_Z19tensorlib_copy_implIddEiP11hb_tensor_tS1_+0x1>
 11c:	035b8833          	mul	x16,x23,x21
 120:	010b80b3          	add	x1,x23,x16
 124:	5a176063          	bltu	x14,x1,6c4 <.L1272>

00000128 <.L1216>:
 128:	0a187863          	bgeu	x16,x1,1d8 <.L1198>
 12c:	04812483          	lw	x9,72(x2)
 130:	00239c13          	slli	x24,x7,0x2
 134:	018889b3          	add	x19,x17,x24
 138:	00249c93          	slli	x25,x9,0x2
 13c:	01940933          	add	x18,x8,x25

00000140 <.L1221>:
 140:	4a038863          	beqz	x7,5f0 <.L1238>
 144:	000f0a93          	mv	x21,x30
 148:	00088713          	mv	x14,x17
 14c:	00080c93          	mv	x25,x16
 150:	00000793          	li	x15,0

00000154 <.L1218>:
 154:	00072a03          	lw	x20,0(x14)
 158:	000aab83          	lw	x23,0(x21) # fc0000 <.L1103+0xfbf804>
 15c:	00470713          	addi	x14,x14,4
 160:	034cfb33          	remu	x22,x25,x20
 164:	004a8a93          	addi	x21,x21,4
 168:	037b0c33          	mul	x24,x22,x23
 16c:	034cdcb3          	divu	x25,x25,x20
 170:	018787b3          	add	x15,x15,x24
 174:	fee990e3          	bne	x19,x14,154 <.L1218>
 178:	00379593          	slli	x11,x15,0x3
 17c:	00b285b3          	add	x11,x5,x11

00000180 <.L1217>:
 180:	46048463          	beqz	x9,5e8 <.L1239>
 184:	00050b13          	mv	x22,x10
 188:	00040713          	mv	x14,x8
 18c:	00080a93          	mv	x21,x16
 190:	00000793          	li	x15,0

00000194 <.L1220>:
 194:	00072c03          	lw	x24,0(x14)
 198:	000b2c83          	lw	x25,0(x22)
 19c:	00470713          	addi	x14,x14,4
 1a0:	004b0b13          	addi	x22,x22,4
 1a4:	038afbb3          	remu	x23,x21,x24
 1a8:	039b8a33          	mul	x20,x23,x25
 1ac:	038adab3          	divu	x21,x21,x24
 1b0:	014787b3          	add	x15,x15,x20
 1b4:	fee910e3          	bne	x18,x14,194 <.L1220>
 1b8:	00379c13          	slli	x24,x15,0x3
 1bc:	018f8a33          	add	x20,x31,x24

000001c0 <.L1219>:
 1c0:	000a2c83          	lw	x25,0(x20)
 1c4:	004a2703          	lw	x14,4(x20)
 1c8:	00180813          	addi	x16,x16,1
 1cc:	0195a023          	sw	x25,0(x11)
 1d0:	00e5a223          	sw	x14,4(x11)
 1d4:	f70096e3          	bne	x1,x16,140 <.L1221>

000001d8 <.L1198>:
 1d8:	000eae83          	lw	x29,0(x29)
 1dc:	0006aa03          	lw	x20,0(x13)
 1e0:	000e2e03          	lw	x28,0(x28)
 1e4:	00062b03          	lw	x22,0(x12)
 1e8:	00032303          	lw	x6,0(x6)
 1ec:	014e8ab3          	add	x21,x29,x20
 1f0:	016e0bb3          	add	x23,x28,x22
 1f4:	018a9793          	slli	x15,x21,0x18
 1f8:	012b9413          	slli	x8,x23,0x12
 1fc:	3f000837          	lui	x16,0x3f000
 200:	00fc09b7          	lui	x19,0xfc0
 204:	000400b7          	lui	x1,0x40
 208:	0107f8b3          	and	x17,x15,x16
 20c:	01347933          	and	x18,x8,x19
 210:	00431493          	slli	x9,x6,0x4
 214:	ff008293          	addi	x5,x1,-16 # 3fff0 <.L1103+0x3f7f4>
 218:	0128e533          	or	x10,x17,x18
 21c:	0054f3b3          	and	x7,x9,x5
 220:	00756f33          	or	x30,x10,x7
 224:	c0000cb7          	lui	x25,0xc0000
 228:	019f6c33          	or	x24,x30,x25
 22c:	410015b7          	lui	x11,0x41001
 230:	d185a623          	sw	x24,-756(x11) # 41000d0c <.L1103+0x41000510>
 234:	00062f83          	lw	x31,0(x12)
 238:	0006ae83          	lw	x29,0(x13)
 23c:	00000a37          	lui	x20,0x0
 240:	004f8713          	addi	x14,x31,4 # 3fc0004 <.L1103+0x3fbf808>
 244:	000a0793          	mv	x15,x20
 248:	00e78e33          	add	x28,x15,x14
 24c:	018e9b13          	slli	x22,x29,0x18
 250:	016e6333          	or	x6,x28,x22
 254:	20040ab7          	lui	x21,0x20040
 258:	01536bb3          	or	x23,x6,x21
 25c:	00100413          	li	x8,1
 260:	008b8023          	sb	x8,0(x23)
 264:	00062803          	lw	x16,0(x12)
 268:	10880463          	beq	x16,x8,370 <.L1222>

0000026c <.L1233>:
 26c:	00100393          	li	x7,1
 270:	0100006f          	j	280 <.L1237>

00000274 <.L1273>:
 274:	000a0c93          	mv	x25,x20
 278:	140cac2f          	lr.w.aq	x24,(x25)
 27c:	007c0863          	beq	x24,x7,28c <.L1236>

00000280 <.L1237>:
 280:	000a0693          	mv	x13,x20
 284:	1006af2f          	lr.w	x30,(x13)
 288:	fe7f16e3          	bne	x30,x7,274 <.L1273>

0000028c <.L1236>:
 28c:	0ac12083          	lw	x1,172(x2)
 290:	0a812403          	lw	x8,168(x2)
 294:	0007a023          	sw	x0,0(x15)
 298:	0a412483          	lw	x9,164(x2)
 29c:	0a012903          	lw	x18,160(x2)
 2a0:	09c12983          	lw	x19,156(x2)
 2a4:	09812a03          	lw	x20,152(x2)
 2a8:	09412a83          	lw	x21,148(x2)
 2ac:	09012b03          	lw	x22,144(x2)
 2b0:	08c12b83          	lw	x23,140(x2)
 2b4:	08812c03          	lw	x24,136(x2)
 2b8:	08412c83          	lw	x25,132(x2)
 2bc:	00000513          	li	x10,0
 2c0:	0b010113          	addi	x2,x2,176
 2c4:	00008067          	ret

000002c8 <.L1270>:
 2c8:	0008a383          	lw	x7,0(x17)
 2cc:	ffd00093          	li	x1,-3
 2d0:	fff38913          	addi	x18,x7,-1
 2d4:	f120e2e3          	bltu	x1,x18,1d8 <.L1198>
 2d8:	00000ab7          	lui	x21,0x0
 2dc:	000aa483          	lw	x9,0(x21) # 0 <_Z19tensorlib_copy_implIddEiP11hb_tensor_tS1_>
 2e0:	0043db13          	srli	x22,x7,0x4
 2e4:	001b0993          	addi	x19,x22,1
 2e8:	029984b3          	mul	x9,x19,x9
 2ec:	00998bb3          	add	x23,x19,x9
 2f0:	3d73ee63          	bltu	x7,x23,6cc <.L1274>
 2f4:	ef74f2e3          	bgeu	x9,x23,1d8 <.L1198>

000002f8 <.L1278>:
 2f8:	00052403          	lw	x8,0(x10) # 1000000 <.L1103+0xfff804>
 2fc:	000f2a03          	lw	x20,0(x30)
 300:	0048ac03          	lw	x24,4(x17)
 304:	00341c93          	slli	x25,x8,0x3
 308:	003a1093          	slli	x1,x20,0x3
 30c:	039488b3          	mul	x17,x9,x25
 310:	02148833          	mul	x16,x9,x1
 314:	011f8fb3          	add	x31,x31,x17
 318:	010282b3          	add	x5,x5,x16

0000031c <.L1207>:
 31c:	000f8413          	mv	x8,x31
 320:	020c0e63          	beqz	x24,35c <.L1209>
 324:	004f2783          	lw	x15,4(x30)
 328:	00452703          	lw	x14,4(x10)
 32c:	00028393          	mv	x7,x5
 330:	00379913          	slli	x18,x15,0x3
 334:	00371a93          	slli	x21,x14,0x3
 338:	00000593          	li	x11,0

0000033c <.L1208>:
 33c:	00042b03          	lw	x22,0(x8) # 80000000 <.L1103+0x7ffff804>
 340:	00442983          	lw	x19,4(x8)
 344:	00158593          	addi	x11,x11,1
 348:	0163a023          	sw	x22,0(x7)
 34c:	0133a223          	sw	x19,4(x7)
 350:	01540433          	add	x8,x8,x21
 354:	012383b3          	add	x7,x7,x18
 358:	febc12e3          	bne	x24,x11,33c <.L1208>

0000035c <.L1209>:
 35c:	00148493          	addi	x9,x9,1
 360:	019f8fb3          	add	x31,x31,x25
 364:	001282b3          	add	x5,x5,x1
 368:	fa9b9ae3          	bne	x23,x9,31c <.L1207>
 36c:	e6dff06f          	j	1d8 <.L1198>

00000370 <.L1222>:
 370:	0047c883          	lbu	x17,4(x15)
 374:	0ff8f993          	andi	x19,x17,255
 378:	fe098ce3          	beqz	x19,370 <.L1222>
 37c:	0057c903          	lbu	x18,5(x15)
 380:	0ff97493          	andi	x9,x18,255
 384:	fe0486e3          	beqz	x9,370 <.L1222>
 388:	0067c503          	lbu	x10,6(x15)
 38c:	0ff57093          	andi	x1,x10,255
 390:	fe0080e3          	beqz	x1,370 <.L1222>
 394:	0077c283          	lbu	x5,7(x15)
 398:	0ff2f393          	andi	x7,x5,255
 39c:	fc038ae3          	beqz	x7,370 <.L1222>
 3a0:	0006af03          	lw	x30,0(x13)
 3a4:	21040fb7          	lui	x31,0x21040
 3a8:	00100c93          	li	x25,1
 3ac:	00cf0c13          	addi	x24,x30,12
 3b0:	018785b3          	add	x11,x15,x24
 3b4:	01f5eeb3          	or	x29,x11,x31
 3b8:	019e8023          	sb	x25,0(x29)
 3bc:	00062e03          	lw	x28,0(x12)
 3c0:	eb9e16e3          	bne	x28,x25,26c <.L1233>
 3c4:	0006a703          	lw	x14,0(x13)
 3c8:	07c70c63          	beq	x14,x28,440 <.L1227>

000003cc <.L1232>:
 3cc:	00100e13          	li	x28,1
 3d0:	0100006f          	j	3e0 <.L1226>

000003d4 <.L1275>:
 3d4:	00878313          	addi	x6,x15,8
 3d8:	14032aaf          	lr.w.aq	x21,(x6)
 3dc:	01ca8863          	beq	x21,x28,3ec <.L1234>

000003e0 <.L1226>:
 3e0:	00878613          	addi	x12,x15,8
 3e4:	10062b2f          	lr.w	x22,(x12)
 3e8:	ffcb16e3          	bne	x22,x28,3d4 <.L1275>

000003ec <.L1234>:
 3ec:	0007a423          	sw	x0,8(x15)
 3f0:	00078223          	sb	x0,4(x15)
 3f4:	000782a3          	sb	x0,5(x15)
 3f8:	00078323          	sb	x0,6(x15)
 3fc:	000783a3          	sb	x0,7(x15)
 400:	0007a023          	sw	x0,0(x15)
 404:	00000493          	li	x9,0
 408:	000a0793          	mv	x15,x20
 40c:	20000bb7          	lui	x23,0x20000
 410:	00100413          	li	x8,1
 414:	000408b7          	lui	x17,0x40
 418:	00100837          	lui	x16,0x100

0000041c <.L1235>:
 41c:	0006a983          	lw	x19,0(x13)
 420:	0097e933          	or	x18,x15,x9
 424:	011484b3          	add	x9,x9,x17
 428:	01899513          	slli	x10,x19,0x18
 42c:	012560b3          	or	x1,x10,x18
 430:	0170e2b3          	or	x5,x1,x23
 434:	0082a023          	sw	x8,0(x5) # 20000000 <.L1103+0x1ffff804>
 438:	ff0492e3          	bne	x9,x16,41c <.L1235>
 43c:	e31ff06f          	j	26c <.L1233>

00000440 <.L1227>:
 440:	00c7cb03          	lbu	x22,12(x15)
 444:	0ffb7313          	andi	x6,x22,255
 448:	fe030ce3          	beqz	x6,440 <.L1227>
 44c:	00d7ca83          	lbu	x21,13(x15)
 450:	0ffafb93          	andi	x23,x21,255
 454:	fe0b86e3          	beqz	x23,440 <.L1227>
 458:	00e7c403          	lbu	x8,14(x15)
 45c:	0ff47813          	andi	x16,x8,255
 460:	fe0800e3          	beqz	x16,440 <.L1227>
 464:	00f7c883          	lbu	x17,15(x15)
 468:	0ff8f993          	andi	x19,x17,255
 46c:	fc098ae3          	beqz	x19,440 <.L1227>
 470:	00078623          	sb	x0,12(x15)
 474:	000786a3          	sb	x0,13(x15)
 478:	00078723          	sb	x0,14(x15)
 47c:	000787a3          	sb	x0,15(x15)
 480:	00000937          	lui	x18,0x0
 484:	0007a423          	sw	x0,8(x15)
 488:	00000e93          	li	x29,0
 48c:	00890493          	addi	x9,x18,8 # 8 <_Z19tensorlib_copy_implIddEiP11hb_tensor_tS1_+0x8>
 490:	03fc0537          	lui	x10,0x3fc0
 494:	200000b7          	lui	x1,0x20000
 498:	00100293          	li	x5,1
 49c:	010003b7          	lui	x7,0x1000
 4a0:	04000f37          	lui	x30,0x4000

000004a4 <.L1231>:
 4a4:	01271713          	slli	x14,x14,0x12
 4a8:	01d4ecb3          	or	x25,x9,x29
 4ac:	00a77c33          	and	x24,x14,x10
 4b0:	019c65b3          	or	x11,x24,x25
 4b4:	0015efb3          	or	x31,x11,x1
 4b8:	005fa023          	sw	x5,0(x31) # 21040000 <.L1103+0x2103f804>
 4bc:	007e8eb3          	add	x29,x29,x7
 4c0:	00062703          	lw	x14,0(x12)
 4c4:	ffee90e3          	bne	x29,x30,4a4 <.L1231>
 4c8:	f05702e3          	beq	x14,x5,3cc <.L1232>
 4cc:	da1ff06f          	j	26c <.L1233>

000004d0 <.L1269>:
 4d0:	fff70b93          	addi	x23,x14,-1
 4d4:	ffd00a13          	li	x20,-3
 4d8:	d17a60e3          	bltu	x20,x23,1d8 <.L1198>
 4dc:	00000c37          	lui	x24,0x0
 4e0:	000c2c83          	lw	x25,0(x24) # 0 <_Z19tensorlib_copy_implIddEiP11hb_tensor_tS1_>
 4e4:	00475093          	srli	x1,x14,0x4
 4e8:	00108893          	addi	x17,x1,1 # 20000001 <.L1103+0x1ffff805>
 4ec:	039885b3          	mul	x11,x17,x25
 4f0:	00b88a33          	add	x20,x17,x11
 4f4:	0f476663          	bltu	x14,x20,5e0 <.L1276>

000004f8 <.L1197>:
 4f8:	cf45f0e3          	bgeu	x11,x20,1d8 <.L1198>
 4fc:	000f2903          	lw	x18,0(x30) # 4000000 <.L1103+0x3fff804>
 500:	00052983          	lw	x19,0(x10) # 3fc0000 <.L1103+0x3fbf804>
 504:	40ba0f33          	sub	x30,x20,x11
 508:	00391b13          	slli	x22,x18,0x3
 50c:	00399a93          	slli	x21,x19,0x3
 510:	03658533          	mul	x10,x11,x22
 514:	00400793          	li	x15,4
 518:	02ba8833          	mul	x16,x21,x11
 51c:	00a28733          	add	x14,x5,x10
 520:	010f8fb3          	add	x31,x31,x16
 524:	09e7fc63          	bgeu	x15,x30,5bc <.L1203>
 528:	ffca0c93          	addi	x25,x20,-4 # fffffffc <.L1103+0xfffff800>
 52c:	0995f863          	bgeu	x11,x25,5bc <.L1203>
 530:	00070293          	mv	x5,x14
 534:	00491413          	slli	x8,x18,0x4
 538:	00499713          	slli	x14,x19,0x4
 53c:	00591c13          	slli	x24,x18,0x5
 540:	00599b93          	slli	x23,x19,0x5
 544:	00ef83b3          	add	x7,x31,x14
 548:	00828f33          	add	x30,x5,x8

0000054c <.L1202>:
 54c:	000fa083          	lw	x1,0(x31)
 550:	004fa783          	lw	x15,4(x31)
 554:	015f84b3          	add	x9,x31,x21
 558:	0004a703          	lw	x14,0(x9)
 55c:	0044a403          	lw	x8,4(x9)
 560:	0003a803          	lw	x16,0(x7) # 1000000 <.L1103+0xfff804>
 564:	0043a883          	lw	x17,4(x7)
 568:	015389b3          	add	x19,x7,x21
 56c:	0009a903          	lw	x18,0(x19) # fc0000 <.L1103+0xfbf804>
 570:	0049a483          	lw	x9,4(x19)
 574:	01628533          	add	x10,x5,x22
 578:	0012a023          	sw	x1,0(x5)
 57c:	00f2a223          	sw	x15,4(x5)
 580:	00e52023          	sw	x14,0(x10)
 584:	00852223          	sw	x8,4(x10)
 588:	010f2023          	sw	x16,0(x30)
 58c:	011f2223          	sw	x17,4(x30)
 590:	016f00b3          	add	x1,x30,x22
 594:	01828733          	add	x14,x5,x24
 598:	0120a023          	sw	x18,0(x1)
 59c:	0090a223          	sw	x9,4(x1)
 5a0:	00458593          	addi	x11,x11,4
 5a4:	00070293          	mv	x5,x14
 5a8:	017f8fb3          	add	x31,x31,x23
 5ac:	017383b3          	add	x7,x7,x23
 5b0:	018f0f33          	add	x30,x30,x24
 5b4:	f995ece3          	bltu	x11,x25,54c <.L1202>
 5b8:	c345f0e3          	bgeu	x11,x20,1d8 <.L1198>

000005bc <.L1203>:
 5bc:	000fac83          	lw	x25,0(x31)
 5c0:	004fac03          	lw	x24,4(x31)
 5c4:	00158593          	addi	x11,x11,1
 5c8:	01972023          	sw	x25,0(x14)
 5cc:	01872223          	sw	x24,4(x14)
 5d0:	015f8fb3          	add	x31,x31,x21
 5d4:	01670733          	add	x14,x14,x22
 5d8:	ff45e2e3          	bltu	x11,x20,5bc <.L1203>
 5dc:	bfdff06f          	j	1d8 <.L1198>

000005e0 <.L1276>:
 5e0:	00070a13          	mv	x20,x14
 5e4:	f15ff06f          	j	4f8 <.L1197>

000005e8 <.L1239>:
 5e8:	000f8a13          	mv	x20,x31
 5ec:	bd5ff06f          	j	1c0 <.L1219>

000005f0 <.L1238>:
 5f0:	00028593          	mv	x11,x5
 5f4:	b8dff06f          	j	180 <.L1217>

000005f8 <.L1271>:
 5f8:	0048a383          	lw	x7,4(x17) # 40004 <.L1103+0x3f808>
 5fc:	0008a083          	lw	x1,0(x17)
 600:	ffd00493          	li	x9,-3
 604:	021389b3          	mul	x19,x7,x1
 608:	fff98913          	addi	x18,x19,-1
 60c:	bd24e6e3          	bltu	x9,x18,1d8 <.L1198>
 610:	000005b7          	lui	x11,0x0
 614:	0005ab83          	lw	x23,0(x11) # 0 <_Z19tensorlib_copy_implIddEiP11hb_tensor_tS1_>
 618:	0049db13          	srli	x22,x19,0x4
 61c:	001b0a13          	addi	x20,x22,1
 620:	037a05b3          	mul	x11,x20,x23
 624:	00ba00b3          	add	x1,x20,x11
 628:	0a19e863          	bltu	x19,x1,6d8 <.L1277>

0000062c <.L1211>:
 62c:	ba15f6e3          	bgeu	x11,x1,1d8 <.L1198>
 630:	00442483          	lw	x9,4(x8)
 634:	004f2903          	lw	x18,4(x30)
 638:	000f2a83          	lw	x21,0(x30)
 63c:	00452b03          	lw	x22,4(x10)
 640:	00052983          	lw	x19,0(x10)
 644:	0088a403          	lw	x8,8(x17)

00000648 <.L1213>:
 648:	0275fc33          	remu	x24,x11,x7
 64c:	0275dcb3          	divu	x25,x11,x7
 650:	0295f7b3          	remu	x15,x11,x9
 654:	0295d8b3          	divu	x17,x11,x9
 658:	035c8733          	mul	x14,x25,x21
 65c:	032c0833          	mul	x16,x24,x18
 660:	03388cb3          	mul	x25,x17,x19
 664:	00e80a33          	add	x20,x16,x14
 668:	003a1c13          	slli	x24,x20,0x3
 66c:	01828733          	add	x14,x5,x24
 670:	03678bb3          	mul	x23,x15,x22
 674:	019b87b3          	add	x15,x23,x25
 678:	00379893          	slli	x17,x15,0x3
 67c:	011f87b3          	add	x15,x31,x17
 680:	02040c63          	beqz	x8,6b8 <.L1215>
 684:	008f2803          	lw	x16,8(x30)
 688:	00852b83          	lw	x23,8(x10)
 68c:	00381a13          	slli	x20,x16,0x3
 690:	003b9c13          	slli	x24,x23,0x3
 694:	00000813          	li	x16,0

00000698 <.L1214>:
 698:	0007ac83          	lw	x25,0(x15)
 69c:	0047a883          	lw	x17,4(x15)
 6a0:	00180813          	addi	x16,x16,1 # 100001 <.L1103+0xff805>
 6a4:	01972023          	sw	x25,0(x14)
 6a8:	01172223          	sw	x17,4(x14)
 6ac:	018787b3          	add	x15,x15,x24
 6b0:	01470733          	add	x14,x14,x20
 6b4:	ff0412e3          	bne	x8,x16,698 <.L1214>

000006b8 <.L1215>:
 6b8:	00158593          	addi	x11,x11,1
 6bc:	f8b096e3          	bne	x1,x11,648 <.L1213>
 6c0:	b19ff06f          	j	1d8 <.L1198>

000006c4 <.L1272>:
 6c4:	00070093          	mv	x1,x14
 6c8:	a61ff06f          	j	128 <.L1216>

000006cc <.L1274>:
 6cc:	00038b93          	mv	x23,x7
 6d0:	c374e4e3          	bltu	x9,x23,2f8 <.L1278>
 6d4:	b05ff06f          	j	1d8 <.L1198>

000006d8 <.L1277>:
 6d8:	00098093          	mv	x1,x19
 6dc:	f51ff06f          	j	62c <.L1211>

Disassembly of section .text._Z27hb_tiled_foreach_conversionIxdZ19tensorlib_copy_implIxdEiP11hb_tensor_tS2_EUlxE_Ev8HBTensorIT0_Lln1EES4_IT_Lln1EET1_:

00000000 <_Z27hb_tiled_foreach_conversionIxdZ19tensorlib_copy_implIxdEiP11hb_tensor_tS2_EUlxE_Ev8HBTensorIT0_Lln1EES4_IT_Lln1EET1_>:
   0:	fa010113          	addi	x2,x2,-96
   4:	05312623          	sw	x19,76(x2)
   8:	00452983          	lw	x19,4(x10)
   c:	05412423          	sw	x20,72(x2)
  10:	05512223          	sw	x21,68(x2)
  14:	05612023          	sw	x22,64(x2)
  18:	03712e23          	sw	x23,60(x2)
  1c:	04112e23          	sw	x1,92(x2)
  20:	04812c23          	sw	x8,88(x2)
  24:	04912a23          	sw	x9,84(x2)
  28:	05212823          	sw	x18,80(x2)
  2c:	03812c23          	sw	x24,56(x2)
  30:	03912a23          	sw	x25,52(x2)
  34:	03a12823          	sw	x26,48(x2)
  38:	03b12623          	sw	x27,44(x2)
  3c:	00100793          	li	x15,1
  40:	00052703          	lw	x14,0(x10)
  44:	00852a83          	lw	x21,8(x10)
  48:	0085aa03          	lw	x20,8(x11)
  4c:	01052b83          	lw	x23,16(x10)
  50:	0105ab03          	lw	x22,16(x11)
  54:	20f98063          	beq	x19,x15,254 <.L1317>
  58:	00200093          	li	x1,2
  5c:	00c52403          	lw	x8,12(x10)
  60:	12198a63          	beq	x19,x1,194 <.L1318>
  64:	00300293          	li	x5,3
  68:	00c5a483          	lw	x9,12(x11)
  6c:	36598c63          	beq	x19,x5,3e4 <.L1319>
  70:	fff70313          	addi	x6,x14,-1
  74:	ffd00693          	li	x13,-3
  78:	0e66e063          	bltu	x13,x6,158 <.L1280>
  7c:	000003b7          	lui	x7,0x0
  80:	0003ad83          	lw	x27,0(x7) # 0 <_Z27hb_tiled_foreach_conversionIxdZ19tensorlib_copy_implIxdEiP11hb_tensor_tS2_EUlxE_Ev8HBTensorIT0_Lln1EES4_IT_Lln1EET1_>
  84:	00475913          	srli	x18,x14,0x4
  88:	00190513          	addi	x10,x18,1
  8c:	03b50db3          	mul	x27,x10,x27
  90:	01b50933          	add	x18,x10,x27
  94:	45276e63          	bltu	x14,x18,4f0 <.L1320>

00000098 <.L1302>:
  98:	0d2df063          	bgeu	x27,x18,158 <.L1280>
  9c:	0045a583          	lw	x11,4(x11)
  a0:	00299d13          	slli	x26,x19,0x2
  a4:	01a40d33          	add	x26,x8,x26
  a8:	00259c93          	slli	x25,x11,0x2
  ac:	00b12223          	sw	x11,4(x2)
  b0:	01948cb3          	add	x25,x9,x25

000000b4 <.L1307>:
  b4:	32098463          	beqz	x19,3dc <.L1308>
  b8:	000a8613          	mv	x12,x21
  bc:	00040e13          	mv	x28,x8
  c0:	000d8f93          	mv	x31,x27
  c4:	00000793          	li	x15,0

000000c8 <.L1304>:
  c8:	000e2803          	lw	x16,0(x28)
  cc:	00062883          	lw	x17,0(x12)
  d0:	004e0e13          	addi	x28,x28,4
  d4:	030ffeb3          	remu	x29,x31,x16
  d8:	00460613          	addi	x12,x12,4
  dc:	031e8f33          	mul	x30,x29,x17
  e0:	030fdfb3          	divu	x31,x31,x16
  e4:	01e787b3          	add	x15,x15,x30
  e8:	ffcd10e3          	bne	x26,x28,c8 <.L1304>
  ec:	00379713          	slli	x14,x15,0x3
  f0:	00eb8c33          	add	x24,x23,x14

000000f4 <.L1303>:
  f4:	00412083          	lw	x1,4(x2)
  f8:	2c008e63          	beqz	x1,3d4 <.L1309>
  fc:	000a0893          	mv	x17,x20
 100:	00048593          	mv	x11,x9
 104:	000d8693          	mv	x13,x27
 108:	00000513          	li	x10,0

0000010c <.L1306>:
 10c:	0005a303          	lw	x6,0(x11)
 110:	0008a383          	lw	x7,0(x17)
 114:	00458593          	addi	x11,x11,4
 118:	00488893          	addi	x17,x17,4
 11c:	0266f833          	remu	x16,x13,x6
 120:	02780e33          	mul	x28,x16,x7
 124:	0266d6b3          	divu	x13,x13,x6
 128:	01c50533          	add	x10,x10,x28
 12c:	febc90e3          	bne	x25,x11,10c <.L1306>
 130:	00351e93          	slli	x29,x10,0x3
 134:	01db02b3          	add	x5,x22,x29

00000138 <.L1305>:
 138:	0042a583          	lw	x11,4(x5)
 13c:	0002a503          	lw	x10,0(x5)
 140:	001d8d93          	addi	x27,x27,1
 144:	00000097          	auipc	x1,0x0
 148:	000080e7          	jalr	x1 # 144 <.L1305+0xc>
 14c:	00ac2023          	sw	x10,0(x24)
 150:	00bc2223          	sw	x11,4(x24)
 154:	f72d90e3          	bne	x27,x18,b4 <.L1307>

00000158 <.L1280>:
 158:	05c12083          	lw	x1,92(x2)
 15c:	05812403          	lw	x8,88(x2)
 160:	05412483          	lw	x9,84(x2)
 164:	05012903          	lw	x18,80(x2)
 168:	04c12983          	lw	x19,76(x2)
 16c:	04812a03          	lw	x20,72(x2)
 170:	04412a83          	lw	x21,68(x2)
 174:	04012b03          	lw	x22,64(x2)
 178:	03c12b83          	lw	x23,60(x2)
 17c:	03812c03          	lw	x24,56(x2)
 180:	03412c83          	lw	x25,52(x2)
 184:	03012d03          	lw	x26,48(x2)
 188:	02c12d83          	lw	x27,44(x2)
 18c:	06010113          	addi	x2,x2,96
 190:	00008067          	ret

00000194 <.L1318>:
 194:	00042903          	lw	x18,0(x8)
 198:	ffd00c13          	li	x24,-3
 19c:	fff90813          	addi	x16,x18,-1
 1a0:	fb0c6ce3          	bltu	x24,x16,158 <.L1280>
 1a4:	000008b7          	lui	x17,0x0
 1a8:	0008ae03          	lw	x28,0(x17) # 0 <_Z27hb_tiled_foreach_conversionIxdZ19tensorlib_copy_implIxdEiP11hb_tensor_tS2_EUlxE_Ev8HBTensorIT0_Lln1EES4_IT_Lln1EET1_>
 1ac:	00495693          	srli	x13,x18,0x4
 1b0:	00168513          	addi	x10,x13,1
 1b4:	03c50c33          	mul	x24,x10,x28
 1b8:	01850cb3          	add	x25,x10,x24
 1bc:	33996e63          	bltu	x18,x25,4f8 <.L1321>
 1c0:	f99c7ce3          	bgeu	x24,x25,158 <.L1280>

000001c4 <.L1324>:
 1c4:	000aae83          	lw	x29,0(x21)
 1c8:	000a2f03          	lw	x30,0(x20)
 1cc:	00442983          	lw	x19,4(x8)
 1d0:	003e9613          	slli	x12,x29,0x3
 1d4:	003f1f93          	slli	x31,x30,0x3
 1d8:	02cc0733          	mul	x14,x24,x12
 1dc:	00c12423          	sw	x12,8(x2)
 1e0:	01f12223          	sw	x31,4(x2)
 1e4:	03fc07b3          	mul	x15,x24,x31
 1e8:	00eb8bb3          	add	x23,x23,x14
 1ec:	00fb0b33          	add	x22,x22,x15

000001f0 <.L1293>:
 1f0:	000b0413          	mv	x8,x22
 1f4:	04098263          	beqz	x19,238 <.L1295>
 1f8:	004aa083          	lw	x1,4(x21)
 1fc:	004a2283          	lw	x5,4(x20)
 200:	000b8d93          	mv	x27,x23
 204:	00309913          	slli	x18,x1,0x3
 208:	00329493          	slli	x9,x5,0x3
 20c:	00000d13          	li	x26,0

00000210 <.L1294>:
 210:	00042503          	lw	x10,0(x8)
 214:	00442583          	lw	x11,4(x8)
 218:	001d0d13          	addi	x26,x26,1
 21c:	00940433          	add	x8,x8,x9
 220:	00000097          	auipc	x1,0x0
 224:	000080e7          	jalr	x1 # 220 <.L1294+0x10>
 228:	00ada023          	sw	x10,0(x27)
 22c:	00bda223          	sw	x11,4(x27)
 230:	012d8db3          	add	x27,x27,x18
 234:	fd3d1ee3          	bne	x26,x19,210 <.L1294>

00000238 <.L1295>:
 238:	00812303          	lw	x6,8(x2)
 23c:	00412383          	lw	x7,4(x2)
 240:	001c0c13          	addi	x24,x24,1
 244:	006b8bb3          	add	x23,x23,x6
 248:	007b0b33          	add	x22,x22,x7
 24c:	fb9c12e3          	bne	x24,x25,1f0 <.L1293>
 250:	f09ff06f          	j	158 <.L1280>

00000254 <.L1317>:
 254:	fff70593          	addi	x11,x14,-1
 258:	ffd00813          	li	x16,-3
 25c:	eeb86ee3          	bltu	x16,x11,158 <.L1280>
 260:	000008b7          	lui	x17,0x0
 264:	0008ae03          	lw	x28,0(x17) # 0 <_Z27hb_tiled_foreach_conversionIxdZ19tensorlib_copy_implIxdEiP11hb_tensor_tS2_EUlxE_Ev8HBTensorIT0_Lln1EES4_IT_Lln1EET1_>
 268:	00475693          	srli	x13,x14,0x4
 26c:	00168513          	addi	x10,x13,1
 270:	03c50433          	mul	x8,x10,x28
 274:	00a409b3          	add	x19,x8,x10
 278:	15376a63          	bltu	x14,x19,3cc <.L1322>

0000027c <.L1283>:
 27c:	ed347ee3          	bgeu	x8,x19,158 <.L1280>
 280:	000a2c83          	lw	x25,0(x20)
 284:	000aaa83          	lw	x21,0(x21)
 288:	40898eb3          	sub	x29,x19,x8
 28c:	003c9913          	slli	x18,x25,0x3
 290:	003a9a13          	slli	x20,x21,0x3
 294:	03440f33          	mul	x30,x8,x20
 298:	00400613          	li	x12,4
 29c:	03240fb3          	mul	x31,x8,x18
 2a0:	01eb84b3          	add	x9,x23,x30
 2a4:	01fb0b33          	add	x22,x22,x31
 2a8:	0fd67c63          	bgeu	x12,x29,3a0 <.L1289>
 2ac:	ffc98713          	addi	x14,x19,-4
 2b0:	00e12c23          	sw	x14,24(x2)
 2b4:	0ee47663          	bgeu	x8,x14,3a0 <.L1289>
 2b8:	004c9793          	slli	x15,x25,0x4
 2bc:	004a9093          	slli	x1,x21,0x4
 2c0:	005a9893          	slli	x17,x21,0x5
 2c4:	00048b93          	mv	x23,x9
 2c8:	005c9813          	slli	x16,x25,0x5
 2cc:	00fb06b3          	add	x13,x22,x15
 2d0:	00148ab3          	add	x21,x9,x1

000002d4 <.L1288>:
 2d4:	012b02b3          	add	x5,x22,x18
 2d8:	0002a483          	lw	x9,0(x5)
 2dc:	0042ad03          	lw	x26,4(x5)
 2e0:	000b2503          	lw	x10,0(x22)
 2e4:	004b2583          	lw	x11,4(x22)
 2e8:	01268333          	add	x6,x13,x18
 2ec:	0046ad83          	lw	x27,4(x13)
 2f0:	00032c03          	lw	x24,0(x6)
 2f4:	00432c83          	lw	x25,4(x6)
 2f8:	01112a23          	sw	x17,20(x2)
 2fc:	01012823          	sw	x16,16(x2)
 300:	00d12223          	sw	x13,4(x2)
 304:	00912423          	sw	x9,8(x2)
 308:	01a12623          	sw	x26,12(x2)
 30c:	0006a483          	lw	x9,0(x13)
 310:	00000097          	auipc	x1,0x0
 314:	000080e7          	jalr	x1 # 310 <.L1288+0x3c>
 318:	00aba023          	sw	x10,0(x23) # 20000000 <.L1103+0x1ffff804>
 31c:	00bba223          	sw	x11,4(x23)
 320:	00812503          	lw	x10,8(x2)
 324:	00c12583          	lw	x11,12(x2)
 328:	014a8d33          	add	x26,x21,x20
 32c:	00440413          	addi	x8,x8,4
 330:	00000097          	auipc	x1,0x0
 334:	000080e7          	jalr	x1 # 330 <.L1288+0x5c>
 338:	014b83b3          	add	x7,x23,x20
 33c:	00a3a023          	sw	x10,0(x7)
 340:	00b3a223          	sw	x11,4(x7)
 344:	00048513          	mv	x10,x9
 348:	000d8593          	mv	x11,x27
 34c:	00000097          	auipc	x1,0x0
 350:	000080e7          	jalr	x1 # 34c <.L1288+0x78>
 354:	00aaa023          	sw	x10,0(x21)
 358:	00baa223          	sw	x11,4(x21)
 35c:	000c0513          	mv	x10,x24
 360:	000c8593          	mv	x11,x25
 364:	00000097          	auipc	x1,0x0
 368:	000080e7          	jalr	x1 # 364 <.L1288+0x90>
 36c:	01412883          	lw	x17,20(x2)
 370:	01012803          	lw	x16,16(x2)
 374:	00412e03          	lw	x28,4(x2)
 378:	01812e83          	lw	x29,24(x2)
 37c:	011b84b3          	add	x9,x23,x17
 380:	00ad2023          	sw	x10,0(x26)
 384:	00bd2223          	sw	x11,4(x26)
 388:	00048b93          	mv	x23,x9
 38c:	010b0b33          	add	x22,x22,x16
 390:	010e06b3          	add	x13,x28,x16
 394:	011a8ab3          	add	x21,x21,x17
 398:	f3d46ee3          	bltu	x8,x29,2d4 <.L1288>
 39c:	db347ee3          	bgeu	x8,x19,158 <.L1280>

000003a0 <.L1289>:
 3a0:	000b2503          	lw	x10,0(x22)
 3a4:	004b2583          	lw	x11,4(x22)
 3a8:	00140413          	addi	x8,x8,1
 3ac:	012b0b33          	add	x22,x22,x18
 3b0:	00000097          	auipc	x1,0x0
 3b4:	000080e7          	jalr	x1 # 3b0 <.L1289+0x10>
 3b8:	00a4a023          	sw	x10,0(x9)
 3bc:	00b4a223          	sw	x11,4(x9)
 3c0:	014484b3          	add	x9,x9,x20
 3c4:	fd346ee3          	bltu	x8,x19,3a0 <.L1289>
 3c8:	d91ff06f          	j	158 <.L1280>

000003cc <.L1322>:
 3cc:	00070993          	mv	x19,x14
 3d0:	eadff06f          	j	27c <.L1283>

000003d4 <.L1309>:
 3d4:	000b0293          	mv	x5,x22
 3d8:	d61ff06f          	j	138 <.L1305>

000003dc <.L1308>:
 3dc:	000b8c13          	mv	x24,x23
 3e0:	d15ff06f          	j	f4 <.L1303>

000003e4 <.L1319>:
 3e4:	00442c03          	lw	x24,4(x8)
 3e8:	00042983          	lw	x19,0(x8)
 3ec:	ffd00913          	li	x18,-3
 3f0:	033c0cb3          	mul	x25,x24,x19
 3f4:	fffc8d13          	addi	x26,x25,-1 # bfffffff <.L1103+0xbffff803>
 3f8:	d7a960e3          	bltu	x18,x26,158 <.L1280>
 3fc:	00000637          	lui	x12,0x0
 400:	00062f03          	lw	x30,0(x12) # 0 <_Z27hb_tiled_foreach_conversionIxdZ19tensorlib_copy_implIxdEiP11hb_tensor_tS2_EUlxE_Ev8HBTensorIT0_Lln1EES4_IT_Lln1EET1_>
 404:	004cdf93          	srli	x31,x25,0x4
 408:	001f8793          	addi	x15,x31,1
 40c:	03e789b3          	mul	x19,x15,x30
 410:	01378733          	add	x14,x15,x19
 414:	00e12223          	sw	x14,4(x2)
 418:	0eece663          	bltu	x25,x14,504 <.L1323>

0000041c <.L1297>:
 41c:	00412083          	lw	x1,4(x2)
 420:	d219fce3          	bgeu	x19,x1,158 <.L1280>
 424:	004aa283          	lw	x5,4(x21)
 428:	000aa303          	lw	x6,0(x21)
 42c:	0044a483          	lw	x9,4(x9)
 430:	004a2383          	lw	x7,4(x20)
 434:	000a2583          	lw	x11,0(x20)
 438:	00842903          	lw	x18,8(x8)
 43c:	00512423          	sw	x5,8(x2)
 440:	00612823          	sw	x6,16(x2)
 444:	00912a23          	sw	x9,20(x2)
 448:	00712c23          	sw	x7,24(x2)
 44c:	00b12e23          	sw	x11,28(x2)

00000450 <.L1299>:
 450:	01412883          	lw	x17,20(x2)
 454:	0389f433          	remu	x8,x19,x24
 458:	00812503          	lw	x10,8(x2)
 45c:	01012d83          	lw	x27,16(x2)
 460:	01812d03          	lw	x26,24(x2)
 464:	01c12703          	lw	x14,28(x2)
 468:	0389d833          	divu	x16,x19,x24
 46c:	0319fe33          	remu	x28,x19,x17
 470:	0319d6b3          	divu	x13,x19,x17
 474:	03b80cb3          	mul	x25,x16,x27
 478:	02a40eb3          	mul	x29,x8,x10
 47c:	03ae0f33          	mul	x30,x28,x26
 480:	019e8633          	add	x12,x29,x25
 484:	00361f93          	slli	x31,x12,0x3
 488:	01fb87b3          	add	x15,x23,x31
 48c:	02e680b3          	mul	x1,x13,x14
 490:	001f02b3          	add	x5,x30,x1
 494:	00329313          	slli	x6,x5,0x3
 498:	006b0cb3          	add	x25,x22,x6
 49c:	04090263          	beqz	x18,4e0 <.L1301>
 4a0:	008aa483          	lw	x9,8(x21)
 4a4:	008a2383          	lw	x7,8(x20)
 4a8:	00078d13          	mv	x26,x15
 4ac:	00349493          	slli	x9,x9,0x3
 4b0:	00339413          	slli	x8,x7,0x3
 4b4:	00000d93          	li	x27,0

000004b8 <.L1300>:
 4b8:	000ca503          	lw	x10,0(x25)
 4bc:	004ca583          	lw	x11,4(x25)
 4c0:	001d8d93          	addi	x27,x27,1
 4c4:	008c8cb3          	add	x25,x25,x8
 4c8:	00000097          	auipc	x1,0x0
 4cc:	000080e7          	jalr	x1 # 4c8 <.L1300+0x10>
 4d0:	00ad2023          	sw	x10,0(x26)
 4d4:	00bd2223          	sw	x11,4(x26)
 4d8:	009d0d33          	add	x26,x26,x9
 4dc:	fd2d9ee3          	bne	x27,x18,4b8 <.L1300>

000004e0 <.L1301>:
 4e0:	00412583          	lw	x11,4(x2)
 4e4:	00198993          	addi	x19,x19,1
 4e8:	f6b994e3          	bne	x19,x11,450 <.L1299>
 4ec:	c6dff06f          	j	158 <.L1280>

000004f0 <.L1320>:
 4f0:	00070913          	mv	x18,x14
 4f4:	ba5ff06f          	j	98 <.L1302>

000004f8 <.L1321>:
 4f8:	00090c93          	mv	x25,x18
 4fc:	cd9c64e3          	bltu	x24,x25,1c4 <.L1324>
 500:	c59ff06f          	j	158 <.L1280>

00000504 <.L1323>:
 504:	01912223          	sw	x25,4(x2)
 508:	f15ff06f          	j	41c <.L1297>

Disassembly of section .text._Z19tensorlib_copy_implIxdEiP11hb_tensor_tS1_:

00000000 <_Z19tensorlib_copy_implIxdEiP11hb_tensor_tS1_>:
   0:	ee010113          	addi	x2,x2,-288
   4:	00050793          	mv	x15,x10
   8:	10812c23          	sw	x8,280(x2)
   c:	08810513          	addi	x10,x2,136
  10:	00058413          	mv	x8,x11
  14:	00078593          	mv	x11,x15
  18:	10112e23          	sw	x1,284(x2)
  1c:	10912a23          	sw	x9,276(x2)
  20:	11212823          	sw	x18,272(x2)
  24:	11312623          	sw	x19,268(x2)
  28:	11412423          	sw	x20,264(x2)
  2c:	11512223          	sw	x21,260(x2)
  30:	0c410913          	addi	x18,x2,196
  34:	00000097          	auipc	x1,0x0
  38:	000080e7          	jalr	x1 # 34 <_Z19tensorlib_copy_implIxdEiP11hb_tensor_tS1_+0x34>
  3c:	00040593          	mv	x11,x8
  40:	00090513          	mv	x10,x18
  44:	00000097          	auipc	x1,0x0
  48:	000080e7          	jalr	x1 # 44 <_Z19tensorlib_copy_implIxdEiP11hb_tensor_tS1_+0x44>
  4c:	00000ab7          	lui	x21,0x0
  50:	00000437          	lui	x8,0x0
  54:	00000a37          	lui	x20,0x0
  58:	000004b7          	lui	x9,0x0
  5c:	000aa283          	lw	x5,0(x21) # 0 <_Z19tensorlib_copy_implIxdEiP11hb_tensor_tS1_>
  60:	00042583          	lw	x11,0(x8) # 0 <_Z19tensorlib_copy_implIxdEiP11hb_tensor_tS1_>
  64:	000a2703          	lw	x14,0(x20) # 0 <_Z19tensorlib_copy_implIxdEiP11hb_tensor_tS1_>
  68:	0004a603          	lw	x12,0(x9) # 0 <_Z19tensorlib_copy_implIxdEiP11hb_tensor_tS1_>
  6c:	000009b7          	lui	x19,0x0
  70:	0009a683          	lw	x13,0(x19) # 0 <_Z19tensorlib_copy_implIxdEiP11hb_tensor_tS1_>
  74:	00b28333          	add	x6,x5,x11
  78:	00c703b3          	add	x7,x14,x12
  7c:	01831513          	slli	x10,x6,0x18
  80:	01239813          	slli	x16,x7,0x12
  84:	00fc0eb7          	lui	x29,0xfc0
  88:	3f0008b7          	lui	x17,0x3f000
  8c:	000402b7          	lui	x5,0x40
  90:	01d87f33          	and	x30,x16,x29
  94:	00469f93          	slli	x31,x13,0x4
  98:	01157e33          	and	x28,x10,x17
  9c:	ff028593          	addi	x11,x5,-16 # 3fff0 <.L1103+0x3f7f4>
  a0:	01ee67b3          	or	x15,x28,x30
  a4:	00bff733          	and	x14,x31,x11
  a8:	00e7e633          	or	x12,x15,x14
  ac:	800006b7          	lui	x13,0x80000
  b0:	00d66333          	or	x6,x12,x13
  b4:	410013b7          	lui	x7,0x41001
  b8:	d063a623          	sw	x6,-756(x7) # 41000d0c <.L1103+0x41000510>
  bc:	08810793          	addi	x15,x2,136
  c0:	04010e93          	addi	x29,x2,64

000000c4 <.L1326>:
  c4:	0007a083          	lw	x1,0(x15)
  c8:	0047a503          	lw	x10,4(x15)
  cc:	0087a803          	lw	x16,8(x15)
  d0:	00c7a883          	lw	x17,12(x15)
  d4:	0107ae03          	lw	x28,16(x15)
  d8:	001ea023          	sw	x1,0(x29) # fc0000 <.L1103+0xfbf804>
  dc:	00aea223          	sw	x10,4(x29)
  e0:	010ea423          	sw	x16,8(x29)
  e4:	011ea623          	sw	x17,12(x29)
  e8:	01cea823          	sw	x28,16(x29)
  ec:	01478793          	addi	x15,x15,20
  f0:	014e8e93          	addi	x29,x29,20
  f4:	fd2798e3          	bne	x15,x18,c4 <.L1326>
  f8:	00010713          	mv	x14,x2

000000fc <.L1327>:
  fc:	0007a903          	lw	x18,0(x15)
 100:	0047af03          	lw	x30,4(x15)
 104:	0087af83          	lw	x31,8(x15)
 108:	00c7a283          	lw	x5,12(x15)
 10c:	0107a583          	lw	x11,16(x15)
 110:	10010613          	addi	x12,x2,256
 114:	01272023          	sw	x18,0(x14)
 118:	01e72223          	sw	x30,4(x14)
 11c:	01f72423          	sw	x31,8(x14)
 120:	00572623          	sw	x5,12(x14)
 124:	00b72823          	sw	x11,16(x14)
 128:	01478793          	addi	x15,x15,20
 12c:	01470713          	addi	x14,x14,20
 130:	fcc796e3          	bne	x15,x12,fc <.L1327>
 134:	00000613          	li	x12,0
 138:	00010593          	mv	x11,x2
 13c:	04010513          	addi	x10,x2,64
 140:	00000097          	auipc	x1,0x0
 144:	000080e7          	jalr	x1 # 140 <.L1327+0x44>
 148:	00042303          	lw	x6,0(x8)
 14c:	000aaa83          	lw	x21,0(x21)
 150:	000a2a03          	lw	x20,0(x20)
 154:	0004a383          	lw	x7,0(x9)
 158:	0009a983          	lw	x19,0(x19)
 15c:	006a86b3          	add	x13,x21,x6
 160:	007a0533          	add	x10,x20,x7
 164:	01869813          	slli	x16,x13,0x18
 168:	01251893          	slli	x17,x10,0x12
 16c:	3f000e37          	lui	x28,0x3f000
 170:	00fc0937          	lui	x18,0xfc0
 174:	000405b7          	lui	x11,0x40
 178:	01c87eb3          	and	x29,x16,x28
 17c:	0128ff33          	and	x30,x17,x18
 180:	00499f93          	slli	x31,x19,0x4
 184:	ff058793          	addi	x15,x11,-16 # 3fff0 <.L1103+0x3f7f4>
 188:	01eee2b3          	or	x5,x29,x30
 18c:	00fff733          	and	x14,x31,x15
 190:	00e2e633          	or	x12,x5,x14
 194:	c0000ab7          	lui	x21,0xc0000
 198:	01566333          	or	x6,x12,x21
 19c:	41001a37          	lui	x20,0x41001
 1a0:	d06a2623          	sw	x6,-756(x20) # 41000d0c <.L1103+0x41000510>
 1a4:	0004a383          	lw	x7,0(x9)
 1a8:	00042983          	lw	x19,0(x8)
 1ac:	000006b7          	lui	x13,0x0
 1b0:	00438513          	addi	x10,x7,4
 1b4:	00068793          	mv	x15,x13
 1b8:	00a78833          	add	x16,x15,x10
 1bc:	01899893          	slli	x17,x19,0x18
 1c0:	01186e33          	or	x28,x16,x17
 1c4:	20040eb7          	lui	x29,0x20040
 1c8:	01de6933          	or	x18,x28,x29
 1cc:	00100f13          	li	x30,1
 1d0:	01e90023          	sb	x30,0(x18) # fc0000 <.L1103+0xfbf804>
 1d4:	0004af83          	lw	x31,0(x9)
 1d8:	05ef8863          	beq	x31,x30,228 <.L1329>

000001dc <.L1341>:
 1dc:	00100413          	li	x8,1
 1e0:	0100006f          	j	1f0 <.L1345>

000001e4 <.L1369>:
 1e4:	00068f93          	mv	x31,x13
 1e8:	140fa72f          	lr.w.aq	x14,(x31)
 1ec:	00870863          	beq	x14,x8,1fc <.L1344>

000001f0 <.L1345>:
 1f0:	00068913          	mv	x18,x13
 1f4:	10092f2f          	lr.w	x30,(x18)
 1f8:	fe8f16e3          	bne	x30,x8,1e4 <.L1369>

000001fc <.L1344>:
 1fc:	11c12083          	lw	x1,284(x2)
 200:	11812403          	lw	x8,280(x2)
 204:	0007a023          	sw	x0,0(x15)
 208:	11412483          	lw	x9,276(x2)
 20c:	11012903          	lw	x18,272(x2)
 210:	10c12983          	lw	x19,268(x2)
 214:	10812a03          	lw	x20,264(x2)
 218:	10412a83          	lw	x21,260(x2)
 21c:	00000513          	li	x10,0
 220:	12010113          	addi	x2,x2,288
 224:	00008067          	ret

00000228 <.L1329>:
 228:	0047c083          	lbu	x1,4(x15)
 22c:	0ff0f293          	andi	x5,x1,255
 230:	fe028ce3          	beqz	x5,228 <.L1329>
 234:	0057c583          	lbu	x11,5(x15)
 238:	0ff5f713          	andi	x14,x11,255
 23c:	fe0706e3          	beqz	x14,228 <.L1329>
 240:	0067c603          	lbu	x12,6(x15)
 244:	0ff67a93          	andi	x21,x12,255
 248:	fe0a80e3          	beqz	x21,228 <.L1329>
 24c:	0077c303          	lbu	x6,7(x15)
 250:	0ff37a13          	andi	x20,x6,255
 254:	fc0a0ae3          	beqz	x20,228 <.L1329>
 258:	00042383          	lw	x7,0(x8)
 25c:	210408b7          	lui	x17,0x21040
 260:	00100993          	li	x19,1
 264:	00c38513          	addi	x10,x7,12
 268:	00a78833          	add	x16,x15,x10
 26c:	01186e33          	or	x28,x16,x17
 270:	013e0023          	sb	x19,0(x28) # 3f000000 <.L1103+0x3efff804>
 274:	0004ae83          	lw	x29,0(x9)
 278:	f73e92e3          	bne	x29,x19,1dc <.L1341>
 27c:	00042703          	lw	x14,0(x8)
 280:	07d70c63          	beq	x14,x29,2f8 <.L1335>

00000284 <.L1340>:
 284:	00100493          	li	x9,1
 288:	0100006f          	j	298 <.L1334>

0000028c <.L1370>:
 28c:	00878593          	addi	x11,x15,8
 290:	1405a62f          	lr.w.aq	x12,(x11)
 294:	00960863          	beq	x12,x9,2a4 <.L1342>

00000298 <.L1334>:
 298:	00878093          	addi	x1,x15,8
 29c:	1000a2af          	lr.w	x5,(x1)
 2a0:	fe9296e3          	bne	x5,x9,28c <.L1370>

000002a4 <.L1342>:
 2a4:	0007a423          	sw	x0,8(x15)
 2a8:	00078223          	sb	x0,4(x15)
 2ac:	000782a3          	sb	x0,5(x15)
 2b0:	00078323          	sb	x0,6(x15)
 2b4:	000783a3          	sb	x0,7(x15)
 2b8:	0007a023          	sw	x0,0(x15)
 2bc:	00000893          	li	x17,0
 2c0:	00068793          	mv	x15,x13
 2c4:	20000ab7          	lui	x21,0x20000
 2c8:	00100313          	li	x6,1
 2cc:	00040a37          	lui	x20,0x40
 2d0:	001003b7          	lui	x7,0x100

000002d4 <.L1343>:
 2d4:	00042983          	lw	x19,0(x8)
 2d8:	0117e533          	or	x10,x15,x17
 2dc:	014888b3          	add	x17,x17,x20
 2e0:	01899813          	slli	x16,x19,0x18
 2e4:	00a86e33          	or	x28,x16,x10
 2e8:	015e6eb3          	or	x29,x28,x21
 2ec:	006ea023          	sw	x6,0(x29) # 20040000 <.L1103+0x2003f804>
 2f0:	fe7892e3          	bne	x17,x7,2d4 <.L1343>
 2f4:	ee9ff06f          	j	1dc <.L1341>

000002f8 <.L1335>:
 2f8:	00c7c903          	lbu	x18,12(x15)
 2fc:	0ff97f13          	andi	x30,x18,255
 300:	fe0f0ce3          	beqz	x30,2f8 <.L1335>
 304:	00d7cf83          	lbu	x31,13(x15)
 308:	0ffff093          	andi	x1,x31,255
 30c:	fe0086e3          	beqz	x1,2f8 <.L1335>
 310:	00e7c283          	lbu	x5,14(x15)
 314:	0ff2f593          	andi	x11,x5,255
 318:	fe0580e3          	beqz	x11,2f8 <.L1335>
 31c:	00f7c603          	lbu	x12,15(x15)
 320:	0ff67a93          	andi	x21,x12,255
 324:	fc0a8ae3          	beqz	x21,2f8 <.L1335>
 328:	00078623          	sb	x0,12(x15)
 32c:	000786a3          	sb	x0,13(x15)
 330:	00078723          	sb	x0,14(x15)
 334:	000787a3          	sb	x0,15(x15)
 338:	00000337          	lui	x6,0x0
 33c:	0007a423          	sw	x0,8(x15)
 340:	00000f93          	li	x31,0
 344:	00830a13          	addi	x20,x6,8 # 8 <_Z19tensorlib_copy_implIxdEiP11hb_tensor_tS1_+0x8>
 348:	03fc03b7          	lui	x7,0x3fc0
 34c:	200009b7          	lui	x19,0x20000
 350:	00100513          	li	x10,1
 354:	010008b7          	lui	x17,0x1000
 358:	04000837          	lui	x16,0x4000

0000035c <.L1339>:
 35c:	01271713          	slli	x14,x14,0x12
 360:	01fa6e33          	or	x28,x20,x31
 364:	00777eb3          	and	x29,x14,x7
 368:	01cee933          	or	x18,x29,x28
 36c:	01396f33          	or	x30,x18,x19
 370:	00af2023          	sw	x10,0(x30)
 374:	011f8fb3          	add	x31,x31,x17
 378:	0004a703          	lw	x14,0(x9)
 37c:	ff0f90e3          	bne	x31,x16,35c <.L1339>
 380:	f0a702e3          	beq	x14,x10,284 <.L1340>
 384:	e59ff06f          	j	1dc <.L1341>

Disassembly of section .text._Z27hb_tiled_foreach_conversionIdxZ19tensorlib_copy_implIdxEiP11hb_tensor_tS2_EUldE_Ev8HBTensorIT0_Lln1EES4_IT_Lln1EET1_:

00000000 <_Z27hb_tiled_foreach_conversionIdxZ19tensorlib_copy_implIdxEiP11hb_tensor_tS2_EUldE_Ev8HBTensorIT0_Lln1EES4_IT_Lln1EET1_>:
   0:	fa010113          	addi	x2,x2,-96
   4:	05312623          	sw	x19,76(x2)
   8:	00452983          	lw	x19,4(x10)
   c:	05412423          	sw	x20,72(x2)
  10:	05512223          	sw	x21,68(x2)
  14:	05612023          	sw	x22,64(x2)
  18:	03712e23          	sw	x23,60(x2)
  1c:	04112e23          	sw	x1,92(x2)
  20:	04812c23          	sw	x8,88(x2)
  24:	04912a23          	sw	x9,84(x2)
  28:	05212823          	sw	x18,80(x2)
  2c:	03812c23          	sw	x24,56(x2)
  30:	03912a23          	sw	x25,52(x2)
  34:	03a12823          	sw	x26,48(x2)
  38:	03b12623          	sw	x27,44(x2)
  3c:	00100793          	li	x15,1
  40:	00052703          	lw	x14,0(x10)
  44:	00852a83          	lw	x21,8(x10)
  48:	0085aa03          	lw	x20,8(x11)
  4c:	01052b03          	lw	x22,16(x10)
  50:	0105ab83          	lw	x23,16(x11)
  54:	20f98063          	beq	x19,x15,254 <.L1409>
  58:	00200093          	li	x1,2
  5c:	00c52403          	lw	x8,12(x10)
  60:	12198a63          	beq	x19,x1,194 <.L1410>
  64:	00300293          	li	x5,3
  68:	00c5a483          	lw	x9,12(x11)
  6c:	36598c63          	beq	x19,x5,3e4 <.L1411>
  70:	fff70313          	addi	x6,x14,-1
  74:	ffd00693          	li	x13,-3
  78:	0e66e063          	bltu	x13,x6,158 <.L1372>
  7c:	000003b7          	lui	x7,0x0
  80:	0003ad83          	lw	x27,0(x7) # 0 <_Z27hb_tiled_foreach_conversionIdxZ19tensorlib_copy_implIdxEiP11hb_tensor_tS2_EUldE_Ev8HBTensorIT0_Lln1EES4_IT_Lln1EET1_>
  84:	00475913          	srli	x18,x14,0x4
  88:	00190513          	addi	x10,x18,1
  8c:	03b50db3          	mul	x27,x10,x27
  90:	01b50933          	add	x18,x10,x27
  94:	45276e63          	bltu	x14,x18,4f0 <.L1412>

00000098 <.L1394>:
  98:	0d2df063          	bgeu	x27,x18,158 <.L1372>
  9c:	0045a583          	lw	x11,4(x11)
  a0:	00299d13          	slli	x26,x19,0x2
  a4:	01a40d33          	add	x26,x8,x26
  a8:	00259c93          	slli	x25,x11,0x2
  ac:	00b12223          	sw	x11,4(x2)
  b0:	01948cb3          	add	x25,x9,x25

000000b4 <.L1399>:
  b4:	32098463          	beqz	x19,3dc <.L1400>
  b8:	000a8613          	mv	x12,x21
  bc:	00040e13          	mv	x28,x8
  c0:	000d8f93          	mv	x31,x27
  c4:	00000793          	li	x15,0

000000c8 <.L1396>:
  c8:	000e2803          	lw	x16,0(x28)
  cc:	00062883          	lw	x17,0(x12)
  d0:	004e0e13          	addi	x28,x28,4
  d4:	030ffeb3          	remu	x29,x31,x16
  d8:	00460613          	addi	x12,x12,4
  dc:	031e8f33          	mul	x30,x29,x17
  e0:	030fdfb3          	divu	x31,x31,x16
  e4:	01e787b3          	add	x15,x15,x30
  e8:	ffcd10e3          	bne	x26,x28,c8 <.L1396>
  ec:	00379713          	slli	x14,x15,0x3
  f0:	00eb0c33          	add	x24,x22,x14

000000f4 <.L1395>:
  f4:	00412083          	lw	x1,4(x2)
  f8:	2c008e63          	beqz	x1,3d4 <.L1401>
  fc:	000a0893          	mv	x17,x20
 100:	00048593          	mv	x11,x9
 104:	000d8693          	mv	x13,x27
 108:	00000513          	li	x10,0

0000010c <.L1398>:
 10c:	0005a303          	lw	x6,0(x11)
 110:	0008a383          	lw	x7,0(x17) # 1000000 <.L1103+0xfff804>
 114:	00458593          	addi	x11,x11,4
 118:	00488893          	addi	x17,x17,4
 11c:	0266f833          	remu	x16,x13,x6
 120:	02780e33          	mul	x28,x16,x7
 124:	0266d6b3          	divu	x13,x13,x6
 128:	01c50533          	add	x10,x10,x28
 12c:	febc90e3          	bne	x25,x11,10c <.L1398>
 130:	00351e93          	slli	x29,x10,0x3
 134:	01db82b3          	add	x5,x23,x29

00000138 <.L1397>:
 138:	0042a583          	lw	x11,4(x5)
 13c:	0002a503          	lw	x10,0(x5)
 140:	001d8d93          	addi	x27,x27,1
 144:	00000097          	auipc	x1,0x0
 148:	000080e7          	jalr	x1 # 144 <.L1397+0xc>
 14c:	00ac2023          	sw	x10,0(x24)
 150:	00bc2223          	sw	x11,4(x24)
 154:	f72d90e3          	bne	x27,x18,b4 <.L1399>

00000158 <.L1372>:
 158:	05c12083          	lw	x1,92(x2)
 15c:	05812403          	lw	x8,88(x2)
 160:	05412483          	lw	x9,84(x2)
 164:	05012903          	lw	x18,80(x2)
 168:	04c12983          	lw	x19,76(x2)
 16c:	04812a03          	lw	x20,72(x2)
 170:	04412a83          	lw	x21,68(x2)
 174:	04012b03          	lw	x22,64(x2)
 178:	03c12b83          	lw	x23,60(x2)
 17c:	03812c03          	lw	x24,56(x2)
 180:	03412c83          	lw	x25,52(x2)
 184:	03012d03          	lw	x26,48(x2)
 188:	02c12d83          	lw	x27,44(x2)
 18c:	06010113          	addi	x2,x2,96
 190:	00008067          	ret

00000194 <.L1410>:
 194:	00042903          	lw	x18,0(x8)
 198:	ffd00c13          	li	x24,-3
 19c:	fff90813          	addi	x16,x18,-1
 1a0:	fb0c6ce3          	bltu	x24,x16,158 <.L1372>
 1a4:	000008b7          	lui	x17,0x0
 1a8:	0008ae03          	lw	x28,0(x17) # 0 <_Z27hb_tiled_foreach_conversionIdxZ19tensorlib_copy_implIdxEiP11hb_tensor_tS2_EUldE_Ev8HBTensorIT0_Lln1EES4_IT_Lln1EET1_>
 1ac:	00495693          	srli	x13,x18,0x4
 1b0:	00168513          	addi	x10,x13,1 # 1 <_Z27hb_tiled_foreach_conversionIdxZ19tensorlib_copy_implIdxEiP11hb_tensor_tS2_EUldE_Ev8HBTensorIT0_Lln1EES4_IT_Lln1EET1_+0x1>
 1b4:	03c50c33          	mul	x24,x10,x28
 1b8:	01850cb3          	add	x25,x10,x24
 1bc:	33996e63          	bltu	x18,x25,4f8 <.L1413>
 1c0:	f99c7ce3          	bgeu	x24,x25,158 <.L1372>

000001c4 <.L1416>:
 1c4:	000aae83          	lw	x29,0(x21) # 20000000 <.L1103+0x1ffff804>
 1c8:	000a2f03          	lw	x30,0(x20) # 40000 <.L1103+0x3f804>
 1cc:	00442983          	lw	x19,4(x8)
 1d0:	003e9613          	slli	x12,x29,0x3
 1d4:	003f1f93          	slli	x31,x30,0x3
 1d8:	02cc0733          	mul	x14,x24,x12
 1dc:	00c12423          	sw	x12,8(x2)
 1e0:	01f12223          	sw	x31,4(x2)
 1e4:	03fc07b3          	mul	x15,x24,x31
 1e8:	00eb0b33          	add	x22,x22,x14
 1ec:	00fb8bb3          	add	x23,x23,x15

000001f0 <.L1385>:
 1f0:	000b8413          	mv	x8,x23
 1f4:	04098263          	beqz	x19,238 <.L1387>
 1f8:	004aa083          	lw	x1,4(x21)
 1fc:	004a2283          	lw	x5,4(x20)
 200:	000b0d93          	mv	x27,x22
 204:	00309913          	slli	x18,x1,0x3
 208:	00329493          	slli	x9,x5,0x3
 20c:	00000d13          	li	x26,0

00000210 <.L1386>:
 210:	00042503          	lw	x10,0(x8)
 214:	00442583          	lw	x11,4(x8)
 218:	001d0d13          	addi	x26,x26,1
 21c:	00940433          	add	x8,x8,x9
 220:	00000097          	auipc	x1,0x0
 224:	000080e7          	jalr	x1 # 220 <.L1386+0x10>
 228:	00ada023          	sw	x10,0(x27)
 22c:	00bda223          	sw	x11,4(x27)
 230:	012d8db3          	add	x27,x27,x18
 234:	fd3d1ee3          	bne	x26,x19,210 <.L1386>

00000238 <.L1387>:
 238:	00812303          	lw	x6,8(x2)
 23c:	00412383          	lw	x7,4(x2)
 240:	001c0c13          	addi	x24,x24,1
 244:	006b0b33          	add	x22,x22,x6
 248:	007b8bb3          	add	x23,x23,x7
 24c:	fb9c12e3          	bne	x24,x25,1f0 <.L1385>
 250:	f09ff06f          	j	158 <.L1372>

00000254 <.L1409>:
 254:	fff70593          	addi	x11,x14,-1
 258:	ffd00813          	li	x16,-3
 25c:	eeb86ee3          	bltu	x16,x11,158 <.L1372>
 260:	000008b7          	lui	x17,0x0
 264:	0008ae03          	lw	x28,0(x17) # 0 <_Z27hb_tiled_foreach_conversionIdxZ19tensorlib_copy_implIdxEiP11hb_tensor_tS2_EUldE_Ev8HBTensorIT0_Lln1EES4_IT_Lln1EET1_>
 268:	00475693          	srli	x13,x14,0x4
 26c:	00168513          	addi	x10,x13,1
 270:	03c50433          	mul	x8,x10,x28
 274:	00a409b3          	add	x19,x8,x10
 278:	15376a63          	bltu	x14,x19,3cc <.L1414>

0000027c <.L1375>:
 27c:	ed347ee3          	bgeu	x8,x19,158 <.L1372>
 280:	000a2c83          	lw	x25,0(x20)
 284:	000aaa83          	lw	x21,0(x21)
 288:	40898eb3          	sub	x29,x19,x8
 28c:	003c9913          	slli	x18,x25,0x3
 290:	003a9a13          	slli	x20,x21,0x3
 294:	03440f33          	mul	x30,x8,x20
 298:	00400613          	li	x12,4
 29c:	03240fb3          	mul	x31,x8,x18
 2a0:	01eb04b3          	add	x9,x22,x30
 2a4:	01fb8bb3          	add	x23,x23,x31
 2a8:	0fd67c63          	bgeu	x12,x29,3a0 <.L1381>
 2ac:	ffc98713          	addi	x14,x19,-4 # 1ffffffc <.L1103+0x1ffff800>
 2b0:	00e12c23          	sw	x14,24(x2)
 2b4:	0ee47663          	bgeu	x8,x14,3a0 <.L1381>
 2b8:	004c9793          	slli	x15,x25,0x4
 2bc:	004a9093          	slli	x1,x21,0x4
 2c0:	005a9893          	slli	x17,x21,0x5
 2c4:	00048b13          	mv	x22,x9
 2c8:	005c9813          	slli	x16,x25,0x5
 2cc:	00fb86b3          	add	x13,x23,x15
 2d0:	00148ab3          	add	x21,x9,x1

000002d4 <.L1380>:
 2d4:	012b82b3          	add	x5,x23,x18
 2d8:	0002a483          	lw	x9,0(x5)
 2dc:	0042ad03          	lw	x26,4(x5)
 2e0:	000ba503          	lw	x10,0(x23)
 2e4:	004ba583          	lw	x11,4(x23)
 2e8:	01268333          	add	x6,x13,x18
 2ec:	0046ad83          	lw	x27,4(x13)
 2f0:	00032c03          	lw	x24,0(x6)
 2f4:	00432c83          	lw	x25,4(x6)
 2f8:	01112a23          	sw	x17,20(x2)
 2fc:	01012823          	sw	x16,16(x2)
 300:	00d12223          	sw	x13,4(x2)
 304:	00912423          	sw	x9,8(x2)
 308:	01a12623          	sw	x26,12(x2)
 30c:	0006a483          	lw	x9,0(x13)
 310:	00000097          	auipc	x1,0x0
 314:	000080e7          	jalr	x1 # 310 <.L1380+0x3c>
 318:	00ab2023          	sw	x10,0(x22)
 31c:	00bb2223          	sw	x11,4(x22)
 320:	00812503          	lw	x10,8(x2)
 324:	00c12583          	lw	x11,12(x2)
 328:	014a8d33          	add	x26,x21,x20
 32c:	00440413          	addi	x8,x8,4
 330:	00000097          	auipc	x1,0x0
 334:	000080e7          	jalr	x1 # 330 <.L1380+0x5c>
 338:	014b03b3          	add	x7,x22,x20
 33c:	00a3a023          	sw	x10,0(x7)
 340:	00b3a223          	sw	x11,4(x7)
 344:	00048513          	mv	x10,x9
 348:	000d8593          	mv	x11,x27
 34c:	00000097          	auipc	x1,0x0
 350:	000080e7          	jalr	x1 # 34c <.L1380+0x78>
 354:	00aaa023          	sw	x10,0(x21)
 358:	00baa223          	sw	x11,4(x21)
 35c:	000c0513          	mv	x10,x24
 360:	000c8593          	mv	x11,x25
 364:	00000097          	auipc	x1,0x0
 368:	000080e7          	jalr	x1 # 364 <.L1380+0x90>
 36c:	01412883          	lw	x17,20(x2)
 370:	01012803          	lw	x16,16(x2)
 374:	00412e03          	lw	x28,4(x2)
 378:	01812e83          	lw	x29,24(x2)
 37c:	011b04b3          	add	x9,x22,x17
 380:	00ad2023          	sw	x10,0(x26)
 384:	00bd2223          	sw	x11,4(x26)
 388:	00048b13          	mv	x22,x9
 38c:	010b8bb3          	add	x23,x23,x16
 390:	010e06b3          	add	x13,x28,x16
 394:	011a8ab3          	add	x21,x21,x17
 398:	f3d46ee3          	bltu	x8,x29,2d4 <.L1380>
 39c:	db347ee3          	bgeu	x8,x19,158 <.L1372>

000003a0 <.L1381>:
 3a0:	000ba503          	lw	x10,0(x23)
 3a4:	004ba583          	lw	x11,4(x23)
 3a8:	00140413          	addi	x8,x8,1
 3ac:	012b8bb3          	add	x23,x23,x18
 3b0:	00000097          	auipc	x1,0x0
 3b4:	000080e7          	jalr	x1 # 3b0 <.L1381+0x10>
 3b8:	00a4a023          	sw	x10,0(x9)
 3bc:	00b4a223          	sw	x11,4(x9)
 3c0:	014484b3          	add	x9,x9,x20
 3c4:	fd346ee3          	bltu	x8,x19,3a0 <.L1381>
 3c8:	d91ff06f          	j	158 <.L1372>

000003cc <.L1414>:
 3cc:	00070993          	mv	x19,x14
 3d0:	eadff06f          	j	27c <.L1375>

000003d4 <.L1401>:
 3d4:	000b8293          	mv	x5,x23
 3d8:	d61ff06f          	j	138 <.L1397>

000003dc <.L1400>:
 3dc:	000b0c13          	mv	x24,x22
 3e0:	d15ff06f          	j	f4 <.L1395>

000003e4 <.L1411>:
 3e4:	00442c03          	lw	x24,4(x8)
 3e8:	00042983          	lw	x19,0(x8)
 3ec:	ffd00913          	li	x18,-3
 3f0:	033c0cb3          	mul	x25,x24,x19
 3f4:	fffc8d13          	addi	x26,x25,-1
 3f8:	d7a960e3          	bltu	x18,x26,158 <.L1372>
 3fc:	00000637          	lui	x12,0x0
 400:	00062f03          	lw	x30,0(x12) # 0 <_Z27hb_tiled_foreach_conversionIdxZ19tensorlib_copy_implIdxEiP11hb_tensor_tS2_EUldE_Ev8HBTensorIT0_Lln1EES4_IT_Lln1EET1_>
 404:	004cdf93          	srli	x31,x25,0x4
 408:	001f8793          	addi	x15,x31,1
 40c:	03e789b3          	mul	x19,x15,x30
 410:	01378733          	add	x14,x15,x19
 414:	00e12223          	sw	x14,4(x2)
 418:	0eece663          	bltu	x25,x14,504 <.L1415>

0000041c <.L1389>:
 41c:	00412083          	lw	x1,4(x2)
 420:	d219fce3          	bgeu	x19,x1,158 <.L1372>
 424:	004aa283          	lw	x5,4(x21)
 428:	000aa303          	lw	x6,0(x21)
 42c:	0044a483          	lw	x9,4(x9)
 430:	004a2383          	lw	x7,4(x20)
 434:	000a2583          	lw	x11,0(x20)
 438:	00842903          	lw	x18,8(x8)
 43c:	00512423          	sw	x5,8(x2)
 440:	00612823          	sw	x6,16(x2)
 444:	00912a23          	sw	x9,20(x2)
 448:	00712c23          	sw	x7,24(x2)
 44c:	00b12e23          	sw	x11,28(x2)

00000450 <.L1391>:
 450:	01412883          	lw	x17,20(x2)
 454:	0389f433          	remu	x8,x19,x24
 458:	00812503          	lw	x10,8(x2)
 45c:	01012d83          	lw	x27,16(x2)
 460:	01812d03          	lw	x26,24(x2)
 464:	01c12703          	lw	x14,28(x2)
 468:	0389d833          	divu	x16,x19,x24
 46c:	0319fe33          	remu	x28,x19,x17
 470:	0319d6b3          	divu	x13,x19,x17
 474:	03b80cb3          	mul	x25,x16,x27
 478:	02a40eb3          	mul	x29,x8,x10
 47c:	03ae0f33          	mul	x30,x28,x26
 480:	019e8633          	add	x12,x29,x25
 484:	00361f93          	slli	x31,x12,0x3
 488:	01fb07b3          	add	x15,x22,x31
 48c:	02e680b3          	mul	x1,x13,x14
 490:	001f02b3          	add	x5,x30,x1
 494:	00329313          	slli	x6,x5,0x3
 498:	006b8cb3          	add	x25,x23,x6
 49c:	04090263          	beqz	x18,4e0 <.L1393>
 4a0:	008aa483          	lw	x9,8(x21)
 4a4:	008a2383          	lw	x7,8(x20)
 4a8:	00078d13          	mv	x26,x15
 4ac:	00349493          	slli	x9,x9,0x3
 4b0:	00339413          	slli	x8,x7,0x3
 4b4:	00000d93          	li	x27,0

000004b8 <.L1392>:
 4b8:	000ca503          	lw	x10,0(x25)
 4bc:	004ca583          	lw	x11,4(x25)
 4c0:	001d8d93          	addi	x27,x27,1
 4c4:	008c8cb3          	add	x25,x25,x8
 4c8:	00000097          	auipc	x1,0x0
 4cc:	000080e7          	jalr	x1 # 4c8 <.L1392+0x10>
 4d0:	00ad2023          	sw	x10,0(x26)
 4d4:	00bd2223          	sw	x11,4(x26)
 4d8:	009d0d33          	add	x26,x26,x9
 4dc:	fd2d9ee3          	bne	x27,x18,4b8 <.L1392>

000004e0 <.L1393>:
 4e0:	00412583          	lw	x11,4(x2)
 4e4:	00198993          	addi	x19,x19,1
 4e8:	f6b994e3          	bne	x19,x11,450 <.L1391>
 4ec:	c6dff06f          	j	158 <.L1372>

000004f0 <.L1412>:
 4f0:	00070913          	mv	x18,x14
 4f4:	ba5ff06f          	j	98 <.L1394>

000004f8 <.L1413>:
 4f8:	00090c93          	mv	x25,x18
 4fc:	cd9c64e3          	bltu	x24,x25,1c4 <.L1416>
 500:	c59ff06f          	j	158 <.L1372>

00000504 <.L1415>:
 504:	01912223          	sw	x25,4(x2)
 508:	f15ff06f          	j	41c <.L1389>

Disassembly of section .text._Z19tensorlib_copy_implIdxEiP11hb_tensor_tS1_:

00000000 <_Z19tensorlib_copy_implIdxEiP11hb_tensor_tS1_>:
   0:	ee010113          	addi	x2,x2,-288
   4:	00050793          	mv	x15,x10
   8:	10812c23          	sw	x8,280(x2)
   c:	08810513          	addi	x10,x2,136
  10:	00058413          	mv	x8,x11
  14:	00078593          	mv	x11,x15
  18:	10112e23          	sw	x1,284(x2)
  1c:	10912a23          	sw	x9,276(x2)
  20:	11212823          	sw	x18,272(x2)
  24:	11312623          	sw	x19,268(x2)
  28:	11412423          	sw	x20,264(x2)
  2c:	11512223          	sw	x21,260(x2)
  30:	0c410913          	addi	x18,x2,196
  34:	00000097          	auipc	x1,0x0
  38:	000080e7          	jalr	x1 # 34 <_Z19tensorlib_copy_implIdxEiP11hb_tensor_tS1_+0x34>
  3c:	00040593          	mv	x11,x8
  40:	00090513          	mv	x10,x18
  44:	00000097          	auipc	x1,0x0
  48:	000080e7          	jalr	x1 # 44 <_Z19tensorlib_copy_implIdxEiP11hb_tensor_tS1_+0x44>
  4c:	00000ab7          	lui	x21,0x0
  50:	00000437          	lui	x8,0x0
  54:	00000a37          	lui	x20,0x0
  58:	000004b7          	lui	x9,0x0
  5c:	000aa283          	lw	x5,0(x21) # 0 <_Z19tensorlib_copy_implIdxEiP11hb_tensor_tS1_>
  60:	00042583          	lw	x11,0(x8) # 0 <_Z19tensorlib_copy_implIdxEiP11hb_tensor_tS1_>
  64:	000a2703          	lw	x14,0(x20) # 0 <_Z19tensorlib_copy_implIdxEiP11hb_tensor_tS1_>
  68:	0004a603          	lw	x12,0(x9) # 0 <_Z19tensorlib_copy_implIdxEiP11hb_tensor_tS1_>
  6c:	000009b7          	lui	x19,0x0
  70:	0009a683          	lw	x13,0(x19) # 0 <_Z19tensorlib_copy_implIdxEiP11hb_tensor_tS1_>
  74:	00b28333          	add	x6,x5,x11
  78:	00c703b3          	add	x7,x14,x12
  7c:	01831513          	slli	x10,x6,0x18
  80:	01239813          	slli	x16,x7,0x12
  84:	00fc0eb7          	lui	x29,0xfc0
  88:	3f0008b7          	lui	x17,0x3f000
  8c:	000402b7          	lui	x5,0x40
  90:	01d87f33          	and	x30,x16,x29
  94:	00469f93          	slli	x31,x13,0x4
  98:	01157e33          	and	x28,x10,x17
  9c:	ff028593          	addi	x11,x5,-16 # 3fff0 <.L1103+0x3f7f4>
  a0:	01ee67b3          	or	x15,x28,x30
  a4:	00bff733          	and	x14,x31,x11
  a8:	00e7e633          	or	x12,x15,x14
  ac:	800006b7          	lui	x13,0x80000
  b0:	00d66333          	or	x6,x12,x13
  b4:	410013b7          	lui	x7,0x41001
  b8:	d063a623          	sw	x6,-756(x7) # 41000d0c <.L1103+0x41000510>
  bc:	08810793          	addi	x15,x2,136
  c0:	04010e93          	addi	x29,x2,64

000000c4 <.L1418>:
  c4:	0007a083          	lw	x1,0(x15)
  c8:	0047a503          	lw	x10,4(x15)
  cc:	0087a803          	lw	x16,8(x15)
  d0:	00c7a883          	lw	x17,12(x15)
  d4:	0107ae03          	lw	x28,16(x15)
  d8:	001ea023          	sw	x1,0(x29) # fc0000 <.L1103+0xfbf804>
  dc:	00aea223          	sw	x10,4(x29)
  e0:	010ea423          	sw	x16,8(x29)
  e4:	011ea623          	sw	x17,12(x29)
  e8:	01cea823          	sw	x28,16(x29)
  ec:	01478793          	addi	x15,x15,20
  f0:	014e8e93          	addi	x29,x29,20
  f4:	fd2798e3          	bne	x15,x18,c4 <.L1418>
  f8:	00010713          	mv	x14,x2

000000fc <.L1419>:
  fc:	0007a903          	lw	x18,0(x15)
 100:	0047af03          	lw	x30,4(x15)
 104:	0087af83          	lw	x31,8(x15)
 108:	00c7a283          	lw	x5,12(x15)
 10c:	0107a583          	lw	x11,16(x15)
 110:	10010613          	addi	x12,x2,256
 114:	01272023          	sw	x18,0(x14)
 118:	01e72223          	sw	x30,4(x14)
 11c:	01f72423          	sw	x31,8(x14)
 120:	00572623          	sw	x5,12(x14)
 124:	00b72823          	sw	x11,16(x14)
 128:	01478793          	addi	x15,x15,20
 12c:	01470713          	addi	x14,x14,20
 130:	fcc796e3          	bne	x15,x12,fc <.L1419>
 134:	00000613          	li	x12,0
 138:	00010593          	mv	x11,x2
 13c:	04010513          	addi	x10,x2,64
 140:	00000097          	auipc	x1,0x0
 144:	000080e7          	jalr	x1 # 140 <.L1419+0x44>
 148:	00042303          	lw	x6,0(x8)
 14c:	000aaa83          	lw	x21,0(x21)
 150:	000a2a03          	lw	x20,0(x20)
 154:	0004a383          	lw	x7,0(x9)
 158:	0009a983          	lw	x19,0(x19)
 15c:	006a86b3          	add	x13,x21,x6
 160:	007a0533          	add	x10,x20,x7
 164:	01869813          	slli	x16,x13,0x18
 168:	01251893          	slli	x17,x10,0x12
 16c:	3f000e37          	lui	x28,0x3f000
 170:	00fc0937          	lui	x18,0xfc0
 174:	000405b7          	lui	x11,0x40
 178:	01c87eb3          	and	x29,x16,x28
 17c:	0128ff33          	and	x30,x17,x18
 180:	00499f93          	slli	x31,x19,0x4
 184:	ff058793          	addi	x15,x11,-16 # 3fff0 <.L1103+0x3f7f4>
 188:	01eee2b3          	or	x5,x29,x30
 18c:	00fff733          	and	x14,x31,x15
 190:	00e2e633          	or	x12,x5,x14
 194:	c0000ab7          	lui	x21,0xc0000
 198:	01566333          	or	x6,x12,x21
 19c:	41001a37          	lui	x20,0x41001
 1a0:	d06a2623          	sw	x6,-756(x20) # 41000d0c <.L1103+0x41000510>
 1a4:	0004a383          	lw	x7,0(x9)
 1a8:	00042983          	lw	x19,0(x8)
 1ac:	000006b7          	lui	x13,0x0
 1b0:	00438513          	addi	x10,x7,4
 1b4:	00068793          	mv	x15,x13
 1b8:	00a78833          	add	x16,x15,x10
 1bc:	01899893          	slli	x17,x19,0x18
 1c0:	01186e33          	or	x28,x16,x17
 1c4:	20040eb7          	lui	x29,0x20040
 1c8:	01de6933          	or	x18,x28,x29
 1cc:	00100f13          	li	x30,1
 1d0:	01e90023          	sb	x30,0(x18) # fc0000 <.L1103+0xfbf804>
 1d4:	0004af83          	lw	x31,0(x9)
 1d8:	05ef8863          	beq	x31,x30,228 <.L1421>

000001dc <.L1433>:
 1dc:	00100413          	li	x8,1
 1e0:	0100006f          	j	1f0 <.L1437>

000001e4 <.L1461>:
 1e4:	00068f93          	mv	x31,x13
 1e8:	140fa72f          	lr.w.aq	x14,(x31)
 1ec:	00870863          	beq	x14,x8,1fc <.L1436>

000001f0 <.L1437>:
 1f0:	00068913          	mv	x18,x13
 1f4:	10092f2f          	lr.w	x30,(x18)
 1f8:	fe8f16e3          	bne	x30,x8,1e4 <.L1461>

000001fc <.L1436>:
 1fc:	11c12083          	lw	x1,284(x2)
 200:	11812403          	lw	x8,280(x2)
 204:	0007a023          	sw	x0,0(x15)
 208:	11412483          	lw	x9,276(x2)
 20c:	11012903          	lw	x18,272(x2)
 210:	10c12983          	lw	x19,268(x2)
 214:	10812a03          	lw	x20,264(x2)
 218:	10412a83          	lw	x21,260(x2)
 21c:	00000513          	li	x10,0
 220:	12010113          	addi	x2,x2,288
 224:	00008067          	ret

00000228 <.L1421>:
 228:	0047c083          	lbu	x1,4(x15)
 22c:	0ff0f293          	andi	x5,x1,255
 230:	fe028ce3          	beqz	x5,228 <.L1421>
 234:	0057c583          	lbu	x11,5(x15)
 238:	0ff5f713          	andi	x14,x11,255
 23c:	fe0706e3          	beqz	x14,228 <.L1421>
 240:	0067c603          	lbu	x12,6(x15)
 244:	0ff67a93          	andi	x21,x12,255
 248:	fe0a80e3          	beqz	x21,228 <.L1421>
 24c:	0077c303          	lbu	x6,7(x15)
 250:	0ff37a13          	andi	x20,x6,255
 254:	fc0a0ae3          	beqz	x20,228 <.L1421>
 258:	00042383          	lw	x7,0(x8)
 25c:	210408b7          	lui	x17,0x21040
 260:	00100993          	li	x19,1
 264:	00c38513          	addi	x10,x7,12
 268:	00a78833          	add	x16,x15,x10
 26c:	01186e33          	or	x28,x16,x17
 270:	013e0023          	sb	x19,0(x28) # 3f000000 <.L1103+0x3efff804>
 274:	0004ae83          	lw	x29,0(x9)
 278:	f73e92e3          	bne	x29,x19,1dc <.L1433>
 27c:	00042703          	lw	x14,0(x8)
 280:	07d70c63          	beq	x14,x29,2f8 <.L1427>

00000284 <.L1432>:
 284:	00100493          	li	x9,1
 288:	0100006f          	j	298 <.L1426>

0000028c <.L1462>:
 28c:	00878593          	addi	x11,x15,8
 290:	1405a62f          	lr.w.aq	x12,(x11)
 294:	00960863          	beq	x12,x9,2a4 <.L1434>

00000298 <.L1426>:
 298:	00878093          	addi	x1,x15,8
 29c:	1000a2af          	lr.w	x5,(x1)
 2a0:	fe9296e3          	bne	x5,x9,28c <.L1462>

000002a4 <.L1434>:
 2a4:	0007a423          	sw	x0,8(x15)
 2a8:	00078223          	sb	x0,4(x15)
 2ac:	000782a3          	sb	x0,5(x15)
 2b0:	00078323          	sb	x0,6(x15)
 2b4:	000783a3          	sb	x0,7(x15)
 2b8:	0007a023          	sw	x0,0(x15)
 2bc:	00000893          	li	x17,0
 2c0:	00068793          	mv	x15,x13
 2c4:	20000ab7          	lui	x21,0x20000
 2c8:	00100313          	li	x6,1
 2cc:	00040a37          	lui	x20,0x40
 2d0:	001003b7          	lui	x7,0x100

000002d4 <.L1435>:
 2d4:	00042983          	lw	x19,0(x8)
 2d8:	0117e533          	or	x10,x15,x17
 2dc:	014888b3          	add	x17,x17,x20
 2e0:	01899813          	slli	x16,x19,0x18
 2e4:	00a86e33          	or	x28,x16,x10
 2e8:	015e6eb3          	or	x29,x28,x21
 2ec:	006ea023          	sw	x6,0(x29) # 20040000 <.L1103+0x2003f804>
 2f0:	fe7892e3          	bne	x17,x7,2d4 <.L1435>
 2f4:	ee9ff06f          	j	1dc <.L1433>

000002f8 <.L1427>:
 2f8:	00c7c903          	lbu	x18,12(x15)
 2fc:	0ff97f13          	andi	x30,x18,255
 300:	fe0f0ce3          	beqz	x30,2f8 <.L1427>
 304:	00d7cf83          	lbu	x31,13(x15)
 308:	0ffff093          	andi	x1,x31,255
 30c:	fe0086e3          	beqz	x1,2f8 <.L1427>
 310:	00e7c283          	lbu	x5,14(x15)
 314:	0ff2f593          	andi	x11,x5,255
 318:	fe0580e3          	beqz	x11,2f8 <.L1427>
 31c:	00f7c603          	lbu	x12,15(x15)
 320:	0ff67a93          	andi	x21,x12,255
 324:	fc0a8ae3          	beqz	x21,2f8 <.L1427>
 328:	00078623          	sb	x0,12(x15)
 32c:	000786a3          	sb	x0,13(x15)
 330:	00078723          	sb	x0,14(x15)
 334:	000787a3          	sb	x0,15(x15)
 338:	00000337          	lui	x6,0x0
 33c:	0007a423          	sw	x0,8(x15)
 340:	00000f93          	li	x31,0
 344:	00830a13          	addi	x20,x6,8 # 8 <_Z19tensorlib_copy_implIdxEiP11hb_tensor_tS1_+0x8>
 348:	03fc03b7          	lui	x7,0x3fc0
 34c:	200009b7          	lui	x19,0x20000
 350:	00100513          	li	x10,1
 354:	010008b7          	lui	x17,0x1000
 358:	04000837          	lui	x16,0x4000

0000035c <.L1431>:
 35c:	01271713          	slli	x14,x14,0x12
 360:	01fa6e33          	or	x28,x20,x31
 364:	00777eb3          	and	x29,x14,x7
 368:	01cee933          	or	x18,x29,x28
 36c:	01396f33          	or	x30,x18,x19
 370:	00af2023          	sw	x10,0(x30)
 374:	011f8fb3          	add	x31,x31,x17
 378:	0004a703          	lw	x14,0(x9)
 37c:	ff0f90e3          	bne	x31,x16,35c <.L1431>
 380:	f0a702e3          	beq	x14,x10,284 <.L1432>
 384:	e59ff06f          	j	1dc <.L1433>

Disassembly of section .comment:

00000000 <.comment>:
   0:	4700                	lw	x8,8(x14)
   2:	203a4343          	fmadd.s	f6,f20,f3,f4,rmm
   6:	4728                	lw	x10,72(x14)
   8:	554e                	lw	x10,240(x2)
   a:	2029                	jal	14 <tensorlib_copy_Long_to_Int+0x4>
   c:	2e39                	jal	32a <.L131+0xe>
   e:	2e32                	fld	f28,264(x2)
  10:	0030                	addi	x12,x2,8

Disassembly of section .eh_frame:

00000000 <.eh_frame>:
   0:	0010                	0x10
   2:	0000                	unimp
   4:	0000                	unimp
   6:	0000                	unimp
   8:	7a01                	lui	x20,0xfffe0
   a:	0052                	c.slli	x0,0x14
   c:	7c01                	lui	x24,0xfffe0
   e:	0101                	addi	x2,x2,0
  10:	00020d1b          	0x20d1b
  14:	0014                	0x14
  16:	0000                	unimp
  18:	0018                	0x18
	...
  22:	0000                	unimp
  24:	0200                	addi	x8,x2,256
  26:	0e84                	addi	x9,x2,848
  28:	4810                	lw	x12,16(x8)
  2a:	0181                	addi	x3,x3,0
  2c:	0048                	addi	x10,x2,4
  2e:	0000                	unimp
  30:	0030                	addi	x12,x2,8
	...
  3a:	0000                	unimp
  3c:	4400                	lw	x8,8(x8)
  3e:	b00e                	fsd	f3,32(x2)
  40:	4c01                	li	x24,0
  42:	0288                	addi	x10,x2,320
  44:	8170                	0x8170
  46:	8901                	andi	x10,x10,0
  48:	93049203          	lh	x4,-1744(x9)
  4c:	9405                	srai	x8,x8,0x21
  4e:	9506                	add	x10,x10,x1
  50:	97089607          	0x97089607
  54:	9809                	andi	x8,x8,-30
  56:	990a                	add	x18,x18,x2
  58:	0248030b          	0x248030b
  5c:	c10a                	sw	x2,128(x2)
  5e:	c844                	sw	x9,20(x8)
  60:	c948                	sw	x10,20(x10)
  62:	d244                	sw	x9,36(x12)
  64:	d344                	sw	x9,36(x14)
  66:	d444                	sw	x9,44(x8)
  68:	d544                	sw	x9,44(x10)
  6a:	d644                	sw	x9,44(x12)
  6c:	d744                	sw	x9,44(x14)
  6e:	d844                	sw	x9,52(x8)
  70:	d944                	sw	x9,52(x10)
  72:	0e48                	addi	x10,x2,788
  74:	4400                	lw	x8,8(x8)
  76:	0010000b          	0x10000b
  7a:	0000                	unimp
  7c:	007c                	addi	x15,x2,12
	...
  8a:	0000                	unimp
  8c:	0014                	0x14
  8e:	0000                	unimp
  90:	0090                	addi	x12,x2,64
	...
  9a:	0000                	unimp
  9c:	0200                	addi	x8,x2,256
  9e:	0e84                	addi	x9,x2,848
  a0:	4810                	lw	x12,16(x8)
  a2:	0181                	addi	x3,x3,0
  a4:	0048                	addi	x10,x2,4
  a6:	0000                	unimp
  a8:	00a8                	addi	x10,x2,72
	...
  b2:	0000                	unimp
  b4:	4400                	lw	x8,8(x8)
  b6:	b00e                	fsd	f3,32(x2)
  b8:	4c01                	li	x24,0
  ba:	0288                	addi	x10,x2,320
  bc:	8170                	0x8170
  be:	8901                	andi	x10,x10,0
  c0:	93049203          	lh	x4,-1744(x9)
  c4:	9405                	srai	x8,x8,0x21
  c6:	9506                	add	x10,x10,x1
  c8:	97089607          	0x97089607
  cc:	9809                	andi	x8,x8,-30
  ce:	990a                	add	x18,x18,x2
  d0:	0250030b          	0x250030b
  d4:	c10a                	sw	x2,128(x2)
  d6:	c844                	sw	x9,20(x8)
  d8:	c948                	sw	x10,20(x10)
  da:	d244                	sw	x9,36(x12)
  dc:	d344                	sw	x9,36(x14)
  de:	d444                	sw	x9,44(x8)
  e0:	d544                	sw	x9,44(x10)
  e2:	d644                	sw	x9,44(x12)
  e4:	d744                	sw	x9,44(x14)
  e6:	d844                	sw	x9,52(x8)
  e8:	d944                	sw	x9,52(x10)
  ea:	0e48                	addi	x10,x2,788
  ec:	4400                	lw	x8,8(x8)
  ee:	0010000b          	0x10000b
  f2:	0000                	unimp
  f4:	00f4                	addi	x13,x2,76
	...
 102:	0000                	unimp
 104:	0048                	addi	x10,x2,4
 106:	0000                	unimp
 108:	0108                	addi	x10,x2,128
	...
 112:	0000                	unimp
 114:	4400                	lw	x8,8(x8)
 116:	b00e                	fsd	f3,32(x2)
 118:	4c01                	li	x24,0
 11a:	0288                	addi	x10,x2,320
 11c:	8170                	0x8170
 11e:	8901                	andi	x10,x10,0
 120:	93049203          	lh	x4,-1744(x9)
 124:	9405                	srai	x8,x8,0x21
 126:	9506                	add	x10,x10,x1
 128:	97089607          	0x97089607
 12c:	9809                	andi	x8,x8,-30
 12e:	990a                	add	x18,x18,x2
 130:	0248030b          	0x248030b
 134:	c10a                	sw	x2,128(x2)
 136:	c844                	sw	x9,20(x8)
 138:	c948                	sw	x10,20(x10)
 13a:	d244                	sw	x9,36(x12)
 13c:	d344                	sw	x9,36(x14)
 13e:	d444                	sw	x9,44(x8)
 140:	d544                	sw	x9,44(x10)
 142:	d644                	sw	x9,44(x12)
 144:	d744                	sw	x9,44(x14)
 146:	d844                	sw	x9,52(x8)
 148:	d944                	sw	x9,52(x10)
 14a:	0e48                	addi	x10,x2,788
 14c:	4400                	lw	x8,8(x8)
 14e:	0010000b          	0x10000b
 152:	0000                	unimp
 154:	0154                	addi	x13,x2,132
	...
 162:	0000                	unimp
 164:	0048                	addi	x10,x2,4
 166:	0000                	unimp
 168:	0168                	addi	x10,x2,140
	...
 172:	0000                	unimp
 174:	4400                	lw	x8,8(x8)
 176:	b00e                	fsd	f3,32(x2)
 178:	4c01                	li	x24,0
 17a:	0288                	addi	x10,x2,320
 17c:	8170                	0x8170
 17e:	8901                	andi	x10,x10,0
 180:	93049203          	lh	x4,-1744(x9)
 184:	9405                	srai	x8,x8,0x21
 186:	9506                	add	x10,x10,x1
 188:	97089607          	0x97089607
 18c:	9809                	andi	x8,x8,-30
 18e:	990a                	add	x18,x18,x2
 190:	0250030b          	0x250030b
 194:	c10a                	sw	x2,128(x2)
 196:	c844                	sw	x9,20(x8)
 198:	c948                	sw	x10,20(x10)
 19a:	d244                	sw	x9,36(x12)
 19c:	d344                	sw	x9,36(x14)
 19e:	d444                	sw	x9,44(x8)
 1a0:	d544                	sw	x9,44(x10)
 1a2:	d644                	sw	x9,44(x12)
 1a4:	d744                	sw	x9,44(x14)
 1a6:	d844                	sw	x9,52(x8)
 1a8:	d944                	sw	x9,52(x10)
 1aa:	0e48                	addi	x10,x2,788
 1ac:	4400                	lw	x8,8(x8)
 1ae:	0010000b          	0x10000b
 1b2:	0000                	unimp
 1b4:	01b4                	addi	x13,x2,200
	...
 1c2:	0000                	unimp
 1c4:	0014                	0x14
 1c6:	0000                	unimp
 1c8:	01c8                	addi	x10,x2,196
	...
 1d2:	0000                	unimp
 1d4:	0200                	addi	x8,x2,256
 1d6:	0e84                	addi	x9,x2,848
 1d8:	4810                	lw	x12,16(x8)
 1da:	0181                	addi	x3,x3,0
 1dc:	0048                	addi	x10,x2,4
 1de:	0000                	unimp
 1e0:	01e0                	addi	x8,x2,204
	...
 1ea:	0000                	unimp
 1ec:	4400                	lw	x8,8(x8)
 1ee:	b00e                	fsd	f3,32(x2)
 1f0:	4c01                	li	x24,0
 1f2:	0288                	addi	x10,x2,320
 1f4:	8170                	0x8170
 1f6:	8901                	andi	x10,x10,0
 1f8:	93049203          	lh	x4,-1744(x9)
 1fc:	9405                	srai	x8,x8,0x21
 1fe:	9506                	add	x10,x10,x1
 200:	97089607          	0x97089607
 204:	9809                	andi	x8,x8,-30
 206:	990a                	add	x18,x18,x2
 208:	024c030b          	0x24c030b
 20c:	c10a                	sw	x2,128(x2)
 20e:	c844                	sw	x9,20(x8)
 210:	c948                	sw	x10,20(x10)
 212:	d244                	sw	x9,36(x12)
 214:	d344                	sw	x9,36(x14)
 216:	d444                	sw	x9,44(x8)
 218:	d544                	sw	x9,44(x10)
 21a:	d644                	sw	x9,44(x12)
 21c:	d744                	sw	x9,44(x14)
 21e:	d844                	sw	x9,52(x8)
 220:	d944                	sw	x9,52(x10)
 222:	0e48                	addi	x10,x2,788
 224:	4400                	lw	x8,8(x8)
 226:	0010000b          	0x10000b
 22a:	0000                	unimp
 22c:	022c                	addi	x11,x2,264
	...
 23a:	0000                	unimp
 23c:	0050                	addi	x12,x2,4
 23e:	0000                	unimp
 240:	0240                	addi	x8,x2,260
	...
 24a:	0000                	unimp
 24c:	4400                	lw	x8,8(x8)
 24e:	800e                	c.mv	x0,x3
 250:	4c02                	lw	x24,0(x2)
 252:	0288                	addi	x10,x2,320
 254:	8178                	0x8178
 256:	8901                	andi	x10,x10,0
 258:	93049203          	lh	x4,-1744(x9)
 25c:	9405                	srai	x8,x8,0x21
 25e:	9506                	add	x10,x10,x1
 260:	97089607          	0x97089607
 264:	9809                	andi	x8,x8,-30
 266:	990a                	add	x18,x18,x2
 268:	9b0c9a0b          	0x9b0c9a0b
 26c:	030d                	addi	x6,x6,3
 26e:	027c                	addi	x15,x2,268
 270:	c10a                	sw	x2,128(x2)
 272:	c844                	sw	x9,20(x8)
 274:	c948                	sw	x10,20(x10)
 276:	d244                	sw	x9,36(x12)
 278:	d344                	sw	x9,36(x14)
 27a:	d444                	sw	x9,44(x8)
 27c:	d544                	sw	x9,44(x10)
 27e:	d644                	sw	x9,44(x12)
 280:	d744                	sw	x9,44(x14)
 282:	d844                	sw	x9,52(x8)
 284:	d944                	sw	x9,52(x10)
 286:	da44                	sw	x9,52(x12)
 288:	db44                	sw	x9,52(x14)
 28a:	0e48                	addi	x10,x2,788
 28c:	4400                	lw	x8,8(x8)
 28e:	0010000b          	0x10000b
 292:	0000                	unimp
 294:	0294                	addi	x13,x2,320
	...
 2a2:	0000                	unimp
 2a4:	0048                	addi	x10,x2,4
 2a6:	0000                	unimp
 2a8:	02a8                	addi	x10,x2,328
	...
 2b2:	0000                	unimp
 2b4:	4400                	lw	x8,8(x8)
 2b6:	b00e                	fsd	f3,32(x2)
 2b8:	4c01                	li	x24,0
 2ba:	0288                	addi	x10,x2,320
 2bc:	8170                	0x8170
 2be:	8901                	andi	x10,x10,0
 2c0:	93049203          	lh	x4,-1744(x9)
 2c4:	9405                	srai	x8,x8,0x21
 2c6:	9506                	add	x10,x10,x1
 2c8:	97089607          	0x97089607
 2cc:	9809                	andi	x8,x8,-30
 2ce:	990a                	add	x18,x18,x2
 2d0:	024c030b          	0x24c030b
 2d4:	c10a                	sw	x2,128(x2)
 2d6:	c844                	sw	x9,20(x8)
 2d8:	c948                	sw	x10,20(x10)
 2da:	d244                	sw	x9,36(x12)
 2dc:	d344                	sw	x9,36(x14)
 2de:	d444                	sw	x9,44(x8)
 2e0:	d544                	sw	x9,44(x10)
 2e2:	d644                	sw	x9,44(x12)
 2e4:	d744                	sw	x9,44(x14)
 2e6:	d844                	sw	x9,52(x8)
 2e8:	d944                	sw	x9,52(x10)
 2ea:	0e48                	addi	x10,x2,788
 2ec:	4400                	lw	x8,8(x8)
 2ee:	0010000b          	0x10000b
 2f2:	0000                	unimp
 2f4:	02f4                	addi	x13,x2,332
	...
 302:	0000                	unimp
 304:	0058                	addi	x14,x2,4
 306:	0000                	unimp
 308:	0308                	addi	x10,x2,384
	...
 312:	0000                	unimp
 314:	4400                	lw	x8,8(x8)
 316:	800e                	c.mv	x0,x3
 318:	4c02                	lw	x24,0(x2)
 31a:	0288                	addi	x10,x2,320
 31c:	4002                	0x4002
 31e:	0181                	addi	x3,x3,0
 320:	0389                	addi	x7,x7,2
 322:	0492                	slli	x9,x9,0x4
 324:	06940593          	addi	x11,x8,105
 328:	0795                	addi	x15,x15,5
 32a:	0896                	slli	x17,x17,0x5
 32c:	0a980997          	auipc	x19,0xa980
 330:	0b99                	addi	x23,x23,6
 332:	0c9a                	slli	x25,x25,0x6
 334:	11a80d9b          	0x11a80d9b
 338:	12a9                	addi	x5,x5,-22
 33a:	0a027c03          	0xa027c03
 33e:	44c1                	li	x9,16
 340:	48c8                	lw	x10,20(x9)
 342:	44c9                	li	x9,18
 344:	44d2                	lw	x9,20(x2)
 346:	44d444d3          	0x44d444d3
 34a:	44d5                	li	x9,21
 34c:	44d6                	lw	x9,84(x2)
 34e:	44d844d7          	0x44d844d7
 352:	44d9                	li	x9,22
 354:	44da                	lw	x9,148(x2)
 356:	44e844db          	0x44e844db
 35a:	48e9                	li	x17,26
 35c:	000e                	c.slli	x0,0x3
 35e:	0b44                	addi	x9,x2,404
 360:	0010                	0x10
 362:	0000                	unimp
 364:	0364                	addi	x9,x2,396
	...
 372:	0000                	unimp
 374:	0048                	addi	x10,x2,4
 376:	0000                	unimp
 378:	0378                	addi	x14,x2,396
	...
 382:	0000                	unimp
 384:	4400                	lw	x8,8(x8)
 386:	b00e                	fsd	f3,32(x2)
 388:	4c01                	li	x24,0
 38a:	0288                	addi	x10,x2,320
 38c:	8170                	0x8170
 38e:	8901                	andi	x10,x10,0
 390:	93049203          	lh	x4,-1744(x9)
 394:	9405                	srai	x8,x8,0x21
 396:	9506                	add	x10,x10,x1
 398:	97089607          	0x97089607
 39c:	9809                	andi	x8,x8,-30
 39e:	990a                	add	x18,x18,x2
 3a0:	0248030b          	0x248030b
 3a4:	c10a                	sw	x2,128(x2)
 3a6:	c844                	sw	x9,20(x8)
 3a8:	c948                	sw	x10,20(x10)
 3aa:	d244                	sw	x9,36(x12)
 3ac:	d344                	sw	x9,36(x14)
 3ae:	d444                	sw	x9,44(x8)
 3b0:	d544                	sw	x9,44(x10)
 3b2:	d644                	sw	x9,44(x12)
 3b4:	d744                	sw	x9,44(x14)
 3b6:	d844                	sw	x9,52(x8)
 3b8:	d944                	sw	x9,52(x10)
 3ba:	0e48                	addi	x10,x2,788
 3bc:	4400                	lw	x8,8(x8)
 3be:	0010000b          	0x10000b
 3c2:	0000                	unimp
 3c4:	03c4                	addi	x9,x2,452
	...
 3d2:	0000                	unimp
 3d4:	0014                	0x14
 3d6:	0000                	unimp
 3d8:	03d8                	addi	x14,x2,452
	...
 3e2:	0000                	unimp
 3e4:	0200                	addi	x8,x2,256
 3e6:	0e84                	addi	x9,x2,848
 3e8:	4810                	lw	x12,16(x8)
 3ea:	0181                	addi	x3,x3,0
 3ec:	0050                	addi	x12,x2,4
 3ee:	0000                	unimp
 3f0:	03f0                	addi	x12,x2,460
	...
 3fa:	0000                	unimp
 3fc:	4400                	lw	x8,8(x8)
 3fe:	f00e                	fsw	f3,32(x2)
 400:	4c01                	li	x24,0
 402:	0288                	addi	x10,x2,320
 404:	8178                	0x8178
 406:	8901                	andi	x10,x10,0
 408:	93049203          	lh	x4,-1744(x9)
 40c:	9405                	srai	x8,x8,0x21
 40e:	9506                	add	x10,x10,x1
 410:	97089607          	0x97089607
 414:	9809                	andi	x8,x8,-30
 416:	990a                	add	x18,x18,x2
 418:	9b0c9a0b          	0x9b0c9a0b
 41c:	030d                	addi	x6,x6,3
 41e:	027c                	addi	x15,x2,268
 420:	c10a                	sw	x2,128(x2)
 422:	c844                	sw	x9,20(x8)
 424:	c948                	sw	x10,20(x10)
 426:	d244                	sw	x9,36(x12)
 428:	d344                	sw	x9,36(x14)
 42a:	d444                	sw	x9,44(x8)
 42c:	d544                	sw	x9,44(x10)
 42e:	d644                	sw	x9,44(x12)
 430:	d744                	sw	x9,44(x14)
 432:	d844                	sw	x9,52(x8)
 434:	d944                	sw	x9,52(x10)
 436:	da44                	sw	x9,52(x12)
 438:	db44                	sw	x9,52(x14)
 43a:	0e48                	addi	x10,x2,788
 43c:	4400                	lw	x8,8(x8)
 43e:	0010000b          	0x10000b
 442:	0000                	unimp
 444:	0444                	addi	x9,x2,516
	...
 452:	0000                	unimp
 454:	0058                	addi	x14,x2,4
 456:	0000                	unimp
 458:	0458                	addi	x14,x2,516
	...
 462:	0000                	unimp
 464:	4400                	lw	x8,8(x8)
 466:	800e                	c.mv	x0,x3
 468:	4c02                	lw	x24,0(x2)
 46a:	0288                	addi	x10,x2,320
 46c:	4002                	0x4002
 46e:	0181                	addi	x3,x3,0
 470:	0389                	addi	x7,x7,2
 472:	0492                	slli	x9,x9,0x4
 474:	06940593          	addi	x11,x8,105
 478:	0795                	addi	x15,x15,5
 47a:	0896                	slli	x17,x17,0x5
 47c:	0a980997          	auipc	x19,0xa980
 480:	0b99                	addi	x23,x23,6
 482:	0c9a                	slli	x25,x25,0x6
 484:	11a80d9b          	0x11a80d9b
 488:	12a9                	addi	x5,x5,-22
 48a:	0a027c03          	0xa027c03
 48e:	44c1                	li	x9,16
 490:	48c8                	lw	x10,20(x9)
 492:	44c9                	li	x9,18
 494:	44d2                	lw	x9,20(x2)
 496:	44d444d3          	0x44d444d3
 49a:	44d5                	li	x9,21
 49c:	44d6                	lw	x9,84(x2)
 49e:	44d844d7          	0x44d844d7
 4a2:	44d9                	li	x9,22
 4a4:	44da                	lw	x9,148(x2)
 4a6:	44e844db          	0x44e844db
 4aa:	48e9                	li	x17,26
 4ac:	000e                	c.slli	x0,0x3
 4ae:	0b44                	addi	x9,x2,404
 4b0:	0010                	0x10
 4b2:	0000                	unimp
 4b4:	04b4                	addi	x13,x2,584
	...
 4c2:	0000                	unimp
 4c4:	0050                	addi	x12,x2,4
 4c6:	0000                	unimp
 4c8:	04c8                	addi	x10,x2,580
	...
 4d2:	0000                	unimp
 4d4:	4400                	lw	x8,8(x8)
 4d6:	800e                	c.mv	x0,x3
 4d8:	4c02                	lw	x24,0(x2)
 4da:	0288                	addi	x10,x2,320
 4dc:	8178                	0x8178
 4de:	8901                	andi	x10,x10,0
 4e0:	93049203          	lh	x4,-1744(x9)
 4e4:	9405                	srai	x8,x8,0x21
 4e6:	9506                	add	x10,x10,x1
 4e8:	97089607          	0x97089607
 4ec:	9809                	andi	x8,x8,-30
 4ee:	990a                	add	x18,x18,x2
 4f0:	9b0c9a0b          	0x9b0c9a0b
 4f4:	030d                	addi	x6,x6,3
 4f6:	027c                	addi	x15,x2,268
 4f8:	c10a                	sw	x2,128(x2)
 4fa:	c844                	sw	x9,20(x8)
 4fc:	c948                	sw	x10,20(x10)
 4fe:	d244                	sw	x9,36(x12)
 500:	d344                	sw	x9,36(x14)
 502:	d444                	sw	x9,44(x8)
 504:	d544                	sw	x9,44(x10)
 506:	d644                	sw	x9,44(x12)
 508:	d744                	sw	x9,44(x14)
 50a:	d844                	sw	x9,52(x8)
 50c:	d944                	sw	x9,52(x10)
 50e:	da44                	sw	x9,52(x12)
 510:	db44                	sw	x9,52(x14)
 512:	0e48                	addi	x10,x2,788
 514:	4400                	lw	x8,8(x8)
 516:	0010000b          	0x10000b
 51a:	0000                	unimp
 51c:	051c                	addi	x15,x2,640
	...
 52a:	0000                	unimp
 52c:	0050                	addi	x12,x2,4
 52e:	0000                	unimp
 530:	0530                	addi	x12,x2,648
	...
 53a:	0000                	unimp
 53c:	4400                	lw	x8,8(x8)
 53e:	800e                	c.mv	x0,x3
 540:	4c02                	lw	x24,0(x2)
 542:	0288                	addi	x10,x2,320
 544:	8178                	0x8178
 546:	8901                	andi	x10,x10,0
 548:	93049203          	lh	x4,-1744(x9)
 54c:	9405                	srai	x8,x8,0x21
 54e:	9506                	add	x10,x10,x1
 550:	97089607          	0x97089607
 554:	9809                	andi	x8,x8,-30
 556:	990a                	add	x18,x18,x2
 558:	9b0c9a0b          	0x9b0c9a0b
 55c:	030d                	addi	x6,x6,3
 55e:	027c                	addi	x15,x2,268
 560:	c10a                	sw	x2,128(x2)
 562:	c844                	sw	x9,20(x8)
 564:	c948                	sw	x10,20(x10)
 566:	d244                	sw	x9,36(x12)
 568:	d344                	sw	x9,36(x14)
 56a:	d444                	sw	x9,44(x8)
 56c:	d544                	sw	x9,44(x10)
 56e:	d644                	sw	x9,44(x12)
 570:	d744                	sw	x9,44(x14)
 572:	d844                	sw	x9,52(x8)
 574:	d944                	sw	x9,52(x10)
 576:	da44                	sw	x9,52(x12)
 578:	db44                	sw	x9,52(x14)
 57a:	0e48                	addi	x10,x2,788
 57c:	4400                	lw	x8,8(x8)
 57e:	0010000b          	0x10000b
 582:	0000                	unimp
 584:	0584                	addi	x9,x2,704
	...
 592:	0000                	unimp
 594:	0048                	addi	x10,x2,4
 596:	0000                	unimp
 598:	0598                	addi	x14,x2,704
	...
 5a2:	0000                	unimp
 5a4:	4400                	lw	x8,8(x8)
 5a6:	b00e                	fsd	f3,32(x2)
 5a8:	4c01                	li	x24,0
 5aa:	0288                	addi	x10,x2,320
 5ac:	8170                	0x8170
 5ae:	8901                	andi	x10,x10,0
 5b0:	93049203          	lh	x4,-1744(x9)
 5b4:	9405                	srai	x8,x8,0x21
 5b6:	9506                	add	x10,x10,x1
 5b8:	97089607          	0x97089607
 5bc:	9809                	andi	x8,x8,-30
 5be:	990a                	add	x18,x18,x2
 5c0:	0250030b          	0x250030b
 5c4:	c10a                	sw	x2,128(x2)
 5c6:	c844                	sw	x9,20(x8)
 5c8:	c948                	sw	x10,20(x10)
 5ca:	d244                	sw	x9,36(x12)
 5cc:	d344                	sw	x9,36(x14)
 5ce:	d444                	sw	x9,44(x8)
 5d0:	d544                	sw	x9,44(x10)
 5d2:	d644                	sw	x9,44(x12)
 5d4:	d744                	sw	x9,44(x14)
 5d6:	d844                	sw	x9,52(x8)
 5d8:	d944                	sw	x9,52(x10)
 5da:	0e48                	addi	x10,x2,788
 5dc:	4400                	lw	x8,8(x8)
 5de:	0010000b          	0x10000b
 5e2:	0000                	unimp
 5e4:	05e4                	addi	x9,x2,716
	...
 5f2:	0000                	unimp
 5f4:	0050                	addi	x12,x2,4
 5f6:	0000                	unimp
 5f8:	05f8                	addi	x14,x2,716
	...
 602:	0000                	unimp
 604:	4400                	lw	x8,8(x8)
 606:	600e                	flw	f0,192(x2)
 608:	9344                	0x9344
 60a:	7405                	lui	x8,0xfffe1
 60c:	0694                	addi	x13,x2,832
 60e:	0795                	addi	x15,x15,5
 610:	0896                	slli	x17,x17,0x5
 612:	01810997          	auipc	x19,0x1810
 616:	0288                	addi	x10,x2,320
 618:	0389                	addi	x7,x7,2
 61a:	0492                	slli	x9,x9,0x4
 61c:	0a98                	addi	x14,x2,336
 61e:	0b99                	addi	x23,x23,6
 620:	0c9a                	slli	x25,x25,0x6
 622:	20030d9b          	0x20030d9b
 626:	0a01                	addi	x20,x20,0
 628:	44c1                	li	x9,16
 62a:	44c8                	lw	x10,12(x9)
 62c:	44c9                	li	x9,18
 62e:	44d2                	lw	x9,20(x2)
 630:	44d444d3          	0x44d444d3
 634:	44d5                	li	x9,21
 636:	44d6                	lw	x9,84(x2)
 638:	44d844d7          	0x44d844d7
 63c:	44d9                	li	x9,22
 63e:	44da                	lw	x9,148(x2)
 640:	000e44db          	0xe44db
 644:	0b44                	addi	x9,x2,404
 646:	0000                	unimp
 648:	0038                	addi	x14,x2,8
 64a:	0000                	unimp
 64c:	064c                	addi	x11,x2,772
	...
 656:	0000                	unimp
 658:	4400                	lw	x8,8(x8)
 65a:	a00e                	fsd	f3,0(x2)
 65c:	4c02                	lw	x24,0(x2)
 65e:	0288                	addi	x10,x2,320
 660:	8160                	0x8160
 662:	8901                	andi	x10,x10,0
 664:	93049203          	lh	x4,-1744(x9)
 668:	9405                	srai	x8,x8,0x21
 66a:	9506                	add	x10,x10,x1
 66c:	01d00307          	0x1d00307
 670:	c10a                	sw	x2,128(x2)
 672:	c844                	sw	x9,20(x8)
 674:	c948                	sw	x10,20(x10)
 676:	d244                	sw	x9,36(x12)
 678:	d344                	sw	x9,36(x14)
 67a:	d444                	sw	x9,44(x8)
 67c:	d544                	sw	x9,44(x10)
 67e:	0e48                	addi	x10,x2,788
 680:	4400                	lw	x8,8(x8)
 682:	0010000b          	0x10000b
 686:	0000                	unimp
 688:	0688                	addi	x10,x2,832
	...
 696:	0000                	unimp
 698:	0050                	addi	x12,x2,4
 69a:	0000                	unimp
 69c:	069c                	addi	x15,x2,832
	...
 6a6:	0000                	unimp
 6a8:	4400                	lw	x8,8(x8)
 6aa:	600e                	flw	f0,192(x2)
 6ac:	9344                	0x9344
 6ae:	7405                	lui	x8,0xfffe1
 6b0:	0694                	addi	x13,x2,832
 6b2:	0795                	addi	x15,x15,5
 6b4:	0896                	slli	x17,x17,0x5
 6b6:	01810997          	auipc	x19,0x1810
 6ba:	0288                	addi	x10,x2,320
 6bc:	0389                	addi	x7,x7,2
 6be:	0492                	slli	x9,x9,0x4
 6c0:	0a98                	addi	x14,x2,336
 6c2:	0b99                	addi	x23,x23,6
 6c4:	0c9a                	slli	x25,x25,0x6
 6c6:	20030d9b          	0x20030d9b
 6ca:	0a01                	addi	x20,x20,0
 6cc:	44c1                	li	x9,16
 6ce:	44c8                	lw	x10,12(x9)
 6d0:	44c9                	li	x9,18
 6d2:	44d2                	lw	x9,20(x2)
 6d4:	44d444d3          	0x44d444d3
 6d8:	44d5                	li	x9,21
 6da:	44d6                	lw	x9,84(x2)
 6dc:	44d844d7          	0x44d844d7
 6e0:	44d9                	li	x9,22
 6e2:	44da                	lw	x9,148(x2)
 6e4:	000e44db          	0xe44db
 6e8:	0b44                	addi	x9,x2,404
 6ea:	0000                	unimp
 6ec:	0038                	addi	x14,x2,8
 6ee:	0000                	unimp
 6f0:	06f0                	addi	x12,x2,844
	...
 6fa:	0000                	unimp
 6fc:	4400                	lw	x8,8(x8)
 6fe:	a00e                	fsd	f3,0(x2)
 700:	4c02                	lw	x24,0(x2)
 702:	0288                	addi	x10,x2,320
 704:	8160                	0x8160
 706:	8901                	andi	x10,x10,0
 708:	93049203          	lh	x4,-1744(x9)
 70c:	9405                	srai	x8,x8,0x21
 70e:	9506                	add	x10,x10,x1
 710:	01d00307          	0x1d00307
 714:	c10a                	sw	x2,128(x2)
 716:	c844                	sw	x9,20(x8)
 718:	c948                	sw	x10,20(x10)
 71a:	d244                	sw	x9,36(x12)
 71c:	d344                	sw	x9,36(x14)
 71e:	d444                	sw	x9,44(x8)
 720:	d544                	sw	x9,44(x10)
 722:	0e48                	addi	x10,x2,788
 724:	4400                	lw	x8,8(x8)
 726:	0010000b          	0x10000b
 72a:	0000                	unimp
 72c:	072c                	addi	x11,x2,904
	...

Disassembly of section .riscv.attributes:

00000000 <.riscv.attributes>:
   0:	2a41                	jal	190 <.L40+0x10>
   2:	0000                	unimp
   4:	7200                	flw	f8,32(x12)
   6:	7369                	lui	x6,0xffffa
   8:	01007663          	bgeu	x0,x16,14 <.riscv.attributes+0x14>
   c:	0020                	addi	x8,x2,8
   e:	0000                	unimp
  10:	1004                	addi	x9,x2,32
  12:	7205                	lui	x4,0xfffe1
  14:	3376                	fld	f6,376(x2)
  16:	6932                	flw	f18,12(x2)
  18:	7032                	flw	f0,44(x2)
  1a:	5f30                	lw	x12,120(x14)
  1c:	326d                	jal	fffff9c6 <.L1103+0xfffff1ca>
  1e:	3070                	fld	f12,224(x8)
  20:	615f 7032 5f30      	0x5f307032615f
  26:	3266                	fld	f4,120(x2)
  28:	3070                	fld	f12,224(x8)
	...
