
kernel_threshold.o:     file format elf32-littleriscv


Disassembly of section .group:

00000000 <_ZN8HBTensorIfLln1EEC5EP11hb_tensor_t>:
   0:	0001                	nop
   2:	0000                	unimp
   4:	00000007          	0x7
   8:	0008                	0x8
	...

Disassembly of section .text:

00000000 <tensorlib_threshold>:
   0:	ef010113          	addi	x2,x2,-272
   4:	00050793          	mv	x15,x10
   8:	11212023          	sw	x18,256(x2)
   c:	01c10513          	addi	x10,x2,28
  10:	00058913          	mv	x18,x11
  14:	00078593          	mv	x11,x15
  18:	10112623          	sw	x1,268(x2)
  1c:	10812423          	sw	x8,264(x2)
  20:	10912223          	sw	x9,260(x2)
  24:	00070413          	mv	x8,x14
  28:	00060493          	mv	x9,x12
  2c:	0f312e23          	sw	x19,252(x2)
  30:	0f412c23          	sw	x20,248(x2)
  34:	0f512a23          	sw	x21,244(x2)
  38:	00068a13          	mv	x20,x13
  3c:	0f612823          	sw	x22,240(x2)
  40:	0f712623          	sw	x23,236(x2)
  44:	0f812423          	sw	x24,232(x2)
  48:	0f912223          	sw	x25,228(x2)
  4c:	0fa12023          	sw	x26,224(x2)
  50:	0db12e23          	sw	x27,220(x2)
  54:	00000097          	auipc	x1,0x0
  58:	000080e7          	jalr	x1 # 54 <tensorlib_threshold+0x54>
  5c:	00090593          	mv	x11,x18
  60:	05810513          	addi	x10,x2,88
  64:	00000097          	auipc	x1,0x0
  68:	000080e7          	jalr	x1 # 64 <tensorlib_threshold+0x64>
  6c:	00048593          	mv	x11,x9
  70:	09410513          	addi	x10,x2,148
  74:	00000097          	auipc	x1,0x0
  78:	000080e7          	jalr	x1 # 74 <tensorlib_threshold+0x74>
  7c:	00000937          	lui	x18,0x0
  80:	00000837          	lui	x16,0x0
  84:	000004b7          	lui	x9,0x0
  88:	000008b7          	lui	x17,0x0
  8c:	00092283          	lw	x5,0(x18) # 0 <tensorlib_threshold>
  90:	0008a703          	lw	x14,0(x17) # 0 <tensorlib_threshold>
  94:	00082683          	lw	x13,0(x16) # 0 <tensorlib_threshold>
  98:	0004a603          	lw	x12,0(x9) # 0 <tensorlib_threshold>
  9c:	000009b7          	lui	x19,0x0
  a0:	0009a583          	lw	x11,0(x19) # 0 <tensorlib_threshold>
  a4:	00e603b3          	add	x7,x12,x14
  a8:	00d28333          	add	x6,x5,x13
  ac:	01831513          	slli	x10,x6,0x18
  b0:	01239a93          	slli	x21,x7,0x12
  b4:	00040e37          	lui	x28,0x40
  b8:	3f000b37          	lui	x22,0x3f000
  bc:	00fc0c37          	lui	x24,0xfc0
  c0:	ff0e0e93          	addi	x29,x28,-16 # 3fff0 <.L122+0x3f8cc>
  c4:	01657bb3          	and	x23,x10,x22
  c8:	00459d13          	slli	x26,x11,0x4
  cc:	018afcb3          	and	x25,x21,x24
  d0:	01dd7f33          	and	x30,x26,x29
  d4:	019bedb3          	or	x27,x23,x25
  d8:	01edefb3          	or	x31,x27,x30
  dc:	01c12703          	lw	x14,28(x2)
  e0:	800007b7          	lui	x15,0x80000
  e4:	00ffe2b3          	or	x5,x31,x15
  e8:	00042707          	flw	f14,0(x8)
  ec:	41001437          	lui	x8,0x41001
  f0:	000a2787          	flw	f15,0(x20)
  f4:	d0542623          	sw	x5,-756(x8) # 41000d0c <.L122+0x410005e8>
  f8:	fff00a13          	li	x20,-1
  fc:	02012583          	lw	x11,32(x2)
 100:	02412503          	lw	x10,36(x2)
 104:	02c12f83          	lw	x31,44(x2)
 108:	06012e03          	lw	x28,96(x2)
 10c:	06812283          	lw	x5,104(x2)
 110:	09c12e83          	lw	x29,156(x2)
 114:	0a412383          	lw	x7,164(x2)
 118:	15470663          	beq	x14,x20,264 <.L22>
 11c:	14070463          	beqz	x14,264 <.L22>
 120:	000000b7          	lui	x1,0x0
 124:	0000a683          	lw	x13,0(x1) # 0 <tensorlib_threshold>
 128:	00475613          	srli	x12,x14,0x4
 12c:	00160313          	addi	x6,x12,1
 130:	02d307b3          	mul	x15,x6,x13
 134:	00f300b3          	add	x1,x6,x15
 138:	38176e63          	bltu	x14,x1,4d4 <.L118>

0000013c <.L17>:
 13c:	1217f463          	bgeu	x15,x1,264 <.L22>
 140:	00100a93          	li	x21,1
 144:	39558c63          	beq	x11,x21,4dc <.L119>
 148:	09812b03          	lw	x22,152(x2)
 14c:	05c12b83          	lw	x23,92(x2)
 150:	0a012a03          	lw	x20,160(x2)
 154:	02812403          	lw	x8,40(x2)
 158:	06412303          	lw	x6,100(x2)
 15c:	002b1c93          	slli	x25,x22,0x2
 160:	00259d13          	slli	x26,x11,0x2
 164:	002b9c13          	slli	x24,x23,0x2
 168:	014c8db3          	add	x27,x25,x20
 16c:	008d0733          	add	x14,x26,x8
 170:	006c0f33          	add	x30,x24,x6
 174:	01b12223          	sw	x27,4(x2)
 178:	00e12423          	sw	x14,8(x2)

0000017c <.L53>:
 17c:	340b8863          	beqz	x23,4cc <.L76>
 180:	000e0c13          	mv	x24,x28
 184:	00030d93          	mv	x27,x6
 188:	00078613          	mv	x12,x15
 18c:	00000713          	li	x14,0

00000190 <.L46>:
 190:	000daa83          	lw	x21,0(x27)
 194:	000c2d03          	lw	x26,0(x24) # fc0000 <.L122+0xfbf8dc>
 198:	004d8d93          	addi	x27,x27,4
 19c:	03567cb3          	remu	x25,x12,x21
 1a0:	004c0c13          	addi	x24,x24,4
 1a4:	03ac86b3          	mul	x13,x25,x26
 1a8:	03565633          	divu	x12,x12,x21
 1ac:	00d70733          	add	x14,x14,x13
 1b0:	ffbf10e3          	bne	x30,x27,190 <.L46>
 1b4:	00271a93          	slli	x21,x14,0x2
 1b8:	015286b3          	add	x13,x5,x21

000001bc <.L45>:
 1bc:	0006a687          	flw	f13,0(x13)
 1c0:	300b0263          	beqz	x22,4c4 <.L77>
 1c4:	000e8c13          	mv	x24,x29
 1c8:	000a0693          	mv	x13,x20
 1cc:	00078613          	mv	x12,x15
 1d0:	00000713          	li	x14,0

000001d4 <.L48>:
 1d4:	0006aa83          	lw	x21,0(x13)
 1d8:	000c2d83          	lw	x27,0(x24)
 1dc:	00468693          	addi	x13,x13,4
 1e0:	004c0c13          	addi	x24,x24,4
 1e4:	03567cb3          	remu	x25,x12,x21
 1e8:	03bc8d33          	mul	x26,x25,x27
 1ec:	03565633          	divu	x12,x12,x21
 1f0:	00412a83          	lw	x21,4(x2)
 1f4:	01a70733          	add	x14,x14,x26
 1f8:	fcda9ee3          	bne	x21,x13,1d4 <.L48>
 1fc:	00271d93          	slli	x27,x14,0x2
 200:	01b38d33          	add	x26,x7,x27

00000204 <.L47>:
 204:	a0f686d3          	fle.s	x13,f13,f15
 208:	000d2007          	flw	f0,0(x26)
 20c:	00068463          	beqz	x13,214 <.L49>
 210:	20e70053          	fmv.s	f0,f14

00000214 <.L49>:
 214:	2a058463          	beqz	x11,4bc <.L78>
 218:	00050c13          	mv	x24,x10
 21c:	00040d93          	mv	x27,x8
 220:	00078613          	mv	x12,x15
 224:	00000713          	li	x14,0

00000228 <.L52>:
 228:	000dad03          	lw	x26,0(x27)
 22c:	000c2a83          	lw	x21,0(x24)
 230:	004d8d93          	addi	x27,x27,4
 234:	004c0c13          	addi	x24,x24,4
 238:	03a676b3          	remu	x13,x12,x26
 23c:	03568cb3          	mul	x25,x13,x21
 240:	03a65633          	divu	x12,x12,x26
 244:	00812d03          	lw	x26,8(x2)
 248:	01970733          	add	x14,x14,x25
 24c:	fdbd1ee3          	bne	x26,x27,228 <.L52>
 250:	00271a93          	slli	x21,x14,0x2
 254:	015f8cb3          	add	x25,x31,x21

00000258 <.L51>:
 258:	000ca027          	fsw	f0,0(x25)
 25c:	00178793          	addi	x15,x15,1 # 80000001 <.L122+0x7ffff8dd>
 260:	f0f09ee3          	bne	x1,x15,17c <.L53>

00000264 <.L22>:
 264:	00092083          	lw	x1,0(x18)
 268:	0004a483          	lw	x9,0(x9)
 26c:	00082903          	lw	x18,0(x16)
 270:	0008a403          	lw	x8,0(x17)
 274:	0009a983          	lw	x19,0(x19)
 278:	01208633          	add	x12,x1,x18
 27c:	008486b3          	add	x13,x9,x8
 280:	01861e13          	slli	x28,x12,0x18
 284:	01269713          	slli	x14,x13,0x12
 288:	3f000eb7          	lui	x29,0x3f000
 28c:	00fc0337          	lui	x6,0xfc0
 290:	00040b37          	lui	x22,0x40
 294:	00499d13          	slli	x26,x19,0x4
 298:	01de7f33          	and	x30,x28,x29
 29c:	00677cb3          	and	x25,x14,x6
 2a0:	ff0b0a13          	addi	x20,x22,-16 # 3fff0 <.L122+0x3f8cc>
 2a4:	019f6c33          	or	x24,x30,x25
 2a8:	014d7db3          	and	x27,x26,x20
 2ac:	c00007b7          	lui	x15,0xc0000
 2b0:	01bc6533          	or	x10,x24,x27
 2b4:	00f56ab3          	or	x21,x10,x15
 2b8:	410015b7          	lui	x11,0x41001
 2bc:	d155a623          	sw	x21,-756(x11) # 41000d0c <.L122+0x410005e8>
 2c0:	0008ab83          	lw	x23,0(x17)
 2c4:	00082283          	lw	x5,0(x16)
 2c8:	000003b7          	lui	x7,0x0
 2cc:	004b8f93          	addi	x31,x23,4
 2d0:	00038793          	mv	x15,x7
 2d4:	01f780b3          	add	x1,x15,x31
 2d8:	01829913          	slli	x18,x5,0x18
 2dc:	0120e4b3          	or	x9,x1,x18
 2e0:	20040437          	lui	x8,0x20040
 2e4:	0084e9b3          	or	x19,x9,x8
 2e8:	00100613          	li	x12,1
 2ec:	00c98023          	sb	x12,0(x19)
 2f0:	0008a683          	lw	x13,0(x17)
 2f4:	06c68463          	beq	x13,x12,35c <.L55>

000002f8 <.L67>:
 2f8:	00100813          	li	x16,1
 2fc:	0100006f          	j	30c <.L71>

00000300 <.L120>:
 300:	00038313          	mv	x6,x7
 304:	1403272f          	lr.w.aq	x14,(x6)
 308:	01070863          	beq	x14,x16,318 <.L70>

0000030c <.L71>:
 30c:	00038d13          	mv	x26,x7
 310:	100d2e2f          	lr.w	x28,(x26)
 314:	ff0e16e3          	bne	x28,x16,300 <.L120>

00000318 <.L70>:
 318:	10c12083          	lw	x1,268(x2)
 31c:	10812403          	lw	x8,264(x2)
 320:	0007a023          	sw	x0,0(x15) # c0000000 <.L122+0xbffff8dc>
 324:	10412483          	lw	x9,260(x2)
 328:	10012903          	lw	x18,256(x2)
 32c:	0fc12983          	lw	x19,252(x2)
 330:	0f812a03          	lw	x20,248(x2)
 334:	0f412a83          	lw	x21,244(x2)
 338:	0f012b03          	lw	x22,240(x2)
 33c:	0ec12b83          	lw	x23,236(x2)
 340:	0e812c03          	lw	x24,232(x2)
 344:	0e412c83          	lw	x25,228(x2)
 348:	0e012d03          	lw	x26,224(x2)
 34c:	0dc12d83          	lw	x27,220(x2)
 350:	00000513          	li	x10,0
 354:	11010113          	addi	x2,x2,272
 358:	00008067          	ret

0000035c <.L55>:
 35c:	0047ce03          	lbu	x28,4(x15)
 360:	0ffe7713          	andi	x14,x28,255
 364:	fe070ce3          	beqz	x14,35c <.L55>
 368:	0057ce83          	lbu	x29,5(x15)
 36c:	0ffeff13          	andi	x30,x29,255
 370:	fe0f06e3          	beqz	x30,35c <.L55>
 374:	0067c303          	lbu	x6,6(x15)
 378:	0ff37c93          	andi	x25,x6,255
 37c:	fe0c80e3          	beqz	x25,35c <.L55>
 380:	0077cd03          	lbu	x26,7(x15)
 384:	0ffd7c13          	andi	x24,x26,255
 388:	fc0c0ae3          	beqz	x24,35c <.L55>
 38c:	00082b03          	lw	x22,0(x16)
 390:	21040ab7          	lui	x21,0x21040
 394:	00100a13          	li	x20,1
 398:	00cb0d93          	addi	x27,x22,12
 39c:	01b78533          	add	x10,x15,x27
 3a0:	015565b3          	or	x11,x10,x21
 3a4:	01458023          	sb	x20,0(x11)
 3a8:	0008ab83          	lw	x23,0(x17)
 3ac:	f54b96e3          	bne	x23,x20,2f8 <.L67>
 3b0:	00082a83          	lw	x21,0(x16)
 3b4:	077a8c63          	beq	x21,x23,42c <.L61>

000003b8 <.L66>:
 3b8:	00100893          	li	x17,1
 3bc:	0100006f          	j	3cc <.L60>

000003c0 <.L121>:
 3c0:	00878293          	addi	x5,x15,8
 3c4:	1402afaf          	lr.w.aq	x31,(x5)
 3c8:	011f8863          	beq	x31,x17,3d8 <.L68>

000003cc <.L60>:
 3cc:	00878593          	addi	x11,x15,8
 3d0:	1005abaf          	lr.w	x23,(x11)
 3d4:	ff1b96e3          	bne	x23,x17,3c0 <.L121>

000003d8 <.L68>:
 3d8:	0007a423          	sw	x0,8(x15)
 3dc:	00078223          	sb	x0,4(x15)
 3e0:	000782a3          	sb	x0,5(x15)
 3e4:	00078323          	sb	x0,6(x15)
 3e8:	000783a3          	sb	x0,7(x15)
 3ec:	0007a023          	sw	x0,0(x15)
 3f0:	00000613          	li	x12,0
 3f4:	00038793          	mv	x15,x7
 3f8:	200000b7          	lui	x1,0x20000
 3fc:	00100913          	li	x18,1
 400:	000404b7          	lui	x9,0x40
 404:	00100437          	lui	x8,0x100

00000408 <.L69>:
 408:	00082983          	lw	x19,0(x16)
 40c:	00c7e6b3          	or	x13,x15,x12
 410:	00960633          	add	x12,x12,x9
 414:	01899c93          	slli	x25,x19,0x18
 418:	00dcef33          	or	x30,x25,x13
 41c:	001f6eb3          	or	x29,x30,x1
 420:	012ea023          	sw	x18,0(x29) # 3f000000 <.L122+0x3efff8dc>
 424:	fe8612e3          	bne	x12,x8,408 <.L69>
 428:	ed1ff06f          	j	2f8 <.L67>

0000042c <.L61>:
 42c:	00c7c283          	lbu	x5,12(x15)
 430:	0ff2ff93          	andi	x31,x5,255
 434:	fe0f8ce3          	beqz	x31,42c <.L61>
 438:	00d7c083          	lbu	x1,13(x15)
 43c:	0ff0f913          	andi	x18,x1,255
 440:	fe0906e3          	beqz	x18,42c <.L61>
 444:	00e7c483          	lbu	x9,14(x15)
 448:	0ff4f413          	andi	x8,x9,255
 44c:	fe0400e3          	beqz	x8,42c <.L61>
 450:	00f7c983          	lbu	x19,15(x15)
 454:	0ff9f613          	andi	x12,x19,255
 458:	fc060ae3          	beqz	x12,42c <.L61>
 45c:	00078623          	sb	x0,12(x15)
 460:	000786a3          	sb	x0,13(x15)
 464:	00078723          	sb	x0,14(x15)
 468:	000787a3          	sb	x0,15(x15)
 46c:	000006b7          	lui	x13,0x0
 470:	0007a423          	sw	x0,8(x15)
 474:	00000513          	li	x10,0
 478:	00868c93          	addi	x25,x13,8 # 8 <tensorlib_threshold+0x8>
 47c:	03fc0f37          	lui	x30,0x3fc0
 480:	20000eb7          	lui	x29,0x20000
 484:	00100d13          	li	x26,1
 488:	01000e37          	lui	x28,0x1000
 48c:	04000337          	lui	x6,0x4000

00000490 <.L65>:
 490:	012a9713          	slli	x14,x21,0x12
 494:	00acec33          	or	x24,x25,x10
 498:	01e77b33          	and	x22,x14,x30
 49c:	018b6a33          	or	x20,x22,x24
 4a0:	01da6db3          	or	x27,x20,x29
 4a4:	01ada023          	sw	x26,0(x27)
 4a8:	01c50533          	add	x10,x10,x28
 4ac:	0008aa83          	lw	x21,0(x17)
 4b0:	fe6510e3          	bne	x10,x6,490 <.L65>
 4b4:	f1aa82e3          	beq	x21,x26,3b8 <.L66>
 4b8:	e41ff06f          	j	2f8 <.L67>

000004bc <.L78>:
 4bc:	000f8c93          	mv	x25,x31
 4c0:	d99ff06f          	j	258 <.L51>

000004c4 <.L77>:
 4c4:	00038d13          	mv	x26,x7
 4c8:	d3dff06f          	j	204 <.L47>

000004cc <.L76>:
 4cc:	00028693          	mv	x13,x5
 4d0:	cedff06f          	j	1bc <.L45>

000004d4 <.L118>:
 4d4:	00070093          	mv	x1,x14
 4d8:	c65ff06f          	j	13c <.L17>

000004dc <.L119>:
 4dc:	00678593          	addi	x11,x15,6
 4e0:	00052703          	lw	x14,0(x10)
 4e4:	000e2603          	lw	x12,0(x28) # 1000000 <.L122+0xfff8dc>
 4e8:	000ea683          	lw	x13,0(x29) # 20000000 <.L122+0x1ffff8dc>
 4ec:	2215fc63          	bgeu	x11,x1,724 <.L122>
 4f0:	00261c93          	slli	x25,x12,0x2
 4f4:	00269d13          	slli	x26,x13,0x2
 4f8:	00271c13          	slli	x24,x14,0x2
 4fc:	00cc8bb3          	add	x23,x25,x12
 500:	00dd0b33          	add	x22,x26,x13
 504:	00ec0533          	add	x10,x24,x14
 508:	002b1413          	slli	x8,x22,0x2
 50c:	00251f13          	slli	x30,x10,0x2
 510:	002b9a13          	slli	x20,x23,0x2
 514:	40c00333          	neg	x6,x12
 518:	40d00eb3          	neg	x29,x13
 51c:	40e00e33          	neg	x28,x14
 520:	00812423          	sw	x8,8(x2)
 524:	01e12623          	sw	x30,12(x2)
 528:	01412223          	sw	x20,4(x2)
 52c:	00100413          	li	x8,1
 530:	00231f13          	slli	x30,x6,0x2
 534:	002e9e93          	slli	x29,x29,0x2
 538:	002e1e13          	slli	x28,x28,0x2
 53c:	0c861463          	bne	x12,x8,604 <.L23>

00000540 <.L124>:
 540:	00279513          	slli	x10,x15,0x2
 544:	00a28bb3          	add	x23,x5,x10
 548:	014ba387          	flw	f7,20(x23)
 54c:	010ba307          	flw	f6,16(x23)
 550:	00cba287          	flw	f5,12(x23)
 554:	008ba207          	flw	f4,8(x23)
 558:	004ba187          	flw	f3,4(x23)
 55c:	000ba107          	flw	f2,0(x23)
 560:	0e869263          	bne	x13,x8,644 <.L25>

00000564 <.L125>:
 564:	00279513          	slli	x10,x15,0x2
 568:	00a38ab3          	add	x21,x7,x10
 56c:	014aa087          	flw	f1,20(x21) # 21040014 <.L122+0x2103f8f0>
 570:	010aa807          	flw	f16,16(x21)
 574:	00caa507          	flw	f10,12(x21)
 578:	008aa587          	flw	f11,8(x21)
 57c:	004aa607          	flw	f12,4(x21)
 580:	000aa887          	flw	f17,0(x21)

00000584 <.L26>:
 584:	a0f38bd3          	fle.s	x23,f7,f15
 588:	000b8463          	beqz	x23,590 <.L27>
 58c:	20e700d3          	fmv.s	f1,f14

00000590 <.L27>:
 590:	a0f30353          	fle.s	x6,f6,f15
 594:	00030463          	beqz	x6,59c <.L29>
 598:	20e70853          	fmv.s	f16,f14

0000059c <.L29>:
 59c:	a0f28b53          	fle.s	x22,f5,f15
 5a0:	000b0463          	beqz	x22,5a8 <.L31>
 5a4:	20e70553          	fmv.s	f10,f14

000005a8 <.L31>:
 5a8:	a0f20a53          	fle.s	x20,f4,f15
 5ac:	000a0463          	beqz	x20,5b4 <.L33>
 5b0:	20e705d3          	fmv.s	f11,f14

000005b4 <.L33>:
 5b4:	a0f18dd3          	fle.s	x27,f3,f15
 5b8:	000d8463          	beqz	x27,5c0 <.L35>
 5bc:	20e70653          	fmv.s	f12,f14

000005c0 <.L35>:
 5c0:	a0f10553          	fle.s	x10,f2,f15
 5c4:	00050463          	beqz	x10,5cc <.L37>
 5c8:	20e708d3          	fmv.s	f17,f14

000005cc <.L37>:
 5cc:	0a871c63          	bne	x14,x8,684 <.L39>
 5d0:	00279a93          	slli	x21,x15,0x2
 5d4:	015f8bb3          	add	x23,x31,x21
 5d8:	001baa27          	fsw	f1,20(x23)
 5dc:	010ba827          	fsw	f16,16(x23)
 5e0:	00aba627          	fsw	f10,12(x23)
 5e4:	00bba427          	fsw	f11,8(x23)
 5e8:	00cba227          	fsw	f12,4(x23)
 5ec:	011ba027          	fsw	f17,0(x23)
 5f0:	00658313          	addi	x6,x11,6
 5f4:	00058793          	mv	x15,x11
 5f8:	0c137a63          	bgeu	x6,x1,6cc <.L123>

000005fc <.L75>:
 5fc:	00030593          	mv	x11,x6
 600:	f48600e3          	beq	x12,x8,540 <.L124>

00000604 <.L23>:
 604:	02f60db3          	mul	x27,x12,x15
 608:	00412b83          	lw	x23,4(x2)
 60c:	002d9a93          	slli	x21,x27,0x2
 610:	01528533          	add	x10,x5,x21
 614:	01750333          	add	x6,x10,x23
 618:	01e30b33          	add	x22,x6,x30
 61c:	01eb0ab3          	add	x21,x22,x30
 620:	01ea8a33          	add	x20,x21,x30
 624:	01ea0db3          	add	x27,x20,x30
 628:	00032387          	flw	f7,0(x6) # 4000000 <.L122+0x3fff8dc>
 62c:	000b2307          	flw	f6,0(x22)
 630:	000aa287          	flw	f5,0(x21)
 634:	000a2207          	flw	f4,0(x20)
 638:	000da187          	flw	f3,0(x27)
 63c:	00052107          	flw	f2,0(x10)
 640:	f28682e3          	beq	x13,x8,564 <.L125>

00000644 <.L25>:
 644:	02f68333          	mul	x6,x13,x15
 648:	00812a83          	lw	x21,8(x2)
 64c:	00231b13          	slli	x22,x6,0x2
 650:	01638533          	add	x10,x7,x22
 654:	01550bb3          	add	x23,x10,x21
 658:	01db8333          	add	x6,x23,x29
 65c:	01d30b33          	add	x22,x6,x29
 660:	01db0a33          	add	x20,x22,x29
 664:	01da0db3          	add	x27,x20,x29
 668:	000ba087          	flw	f1,0(x23)
 66c:	00032807          	flw	f16,0(x6)
 670:	000b2507          	flw	f10,0(x22)
 674:	000a2587          	flw	f11,0(x20)
 678:	000da607          	flw	f12,0(x27)
 67c:	00052887          	flw	f17,0(x10)
 680:	f05ff06f          	j	584 <.L26>

00000684 <.L39>:
 684:	02f707b3          	mul	x15,x14,x15
 688:	00c12303          	lw	x6,12(x2)
 68c:	00279a93          	slli	x21,x15,0x2
 690:	015f8bb3          	add	x23,x31,x21
 694:	006b8b33          	add	x22,x23,x6
 698:	001b2027          	fsw	f1,0(x22)
 69c:	01cb0a33          	add	x20,x22,x28
 6a0:	010a2027          	fsw	f16,0(x20)
 6a4:	01ca0db3          	add	x27,x20,x28
 6a8:	00ada027          	fsw	f10,0(x27)
 6ac:	01cd8533          	add	x10,x27,x28
 6b0:	00b52027          	fsw	f11,0(x10)
 6b4:	01c507b3          	add	x15,x10,x28
 6b8:	00c7a027          	fsw	f12,0(x15)
 6bc:	011ba027          	fsw	f17,0(x23)
 6c0:	00658313          	addi	x6,x11,6
 6c4:	00058793          	mv	x15,x11
 6c8:	f2136ae3          	bltu	x6,x1,5fc <.L75>

000006cc <.L123>:
 6cc:	b815fce3          	bgeu	x11,x1,264 <.L22>

000006d0 <.L19>:
 6d0:	02b60b33          	mul	x22,x12,x11
 6d4:	02b68a33          	mul	x20,x13,x11
 6d8:	002b1d93          	slli	x27,x22,0x2
 6dc:	01b282b3          	add	x5,x5,x27
 6e0:	02b70533          	mul	x10,x14,x11
 6e4:	002a1793          	slli	x15,x20,0x2
 6e8:	00f383b3          	add	x7,x7,x15
 6ec:	00251a93          	slli	x21,x10,0x2
 6f0:	015f8fb3          	add	x31,x31,x21

000006f4 <.L44>:
 6f4:	0002ae07          	flw	f28,0(x5)
 6f8:	0003ae87          	flw	f29,0(x7) # 0 <tensorlib_threshold>
 6fc:	00158593          	addi	x11,x11,1
 700:	a0fe0bd3          	fle.s	x23,f28,f15
 704:	019282b3          	add	x5,x5,x25
 708:	01a383b3          	add	x7,x7,x26
 70c:	000b8463          	beqz	x23,714 <.L41>
 710:	20e70ed3          	fmv.s	f29,f14

00000714 <.L41>:
 714:	01dfa027          	fsw	f29,0(x31)
 718:	018f8fb3          	add	x31,x31,x24
 71c:	fcb09ce3          	bne	x1,x11,6f4 <.L44>
 720:	b45ff06f          	j	264 <.L22>

00000724 <.L122>:
 724:	00078593          	mv	x11,x15
 728:	00261c93          	slli	x25,x12,0x2
 72c:	00269d13          	slli	x26,x13,0x2
 730:	00271c13          	slli	x24,x14,0x2
 734:	f9dff06f          	j	6d0 <.L19>

Disassembly of section .text._ZN8HBTensorIfLln1EEC2EP11hb_tensor_t:

00000000 <_ZN8HBTensorIfLln1EEC1EP11hb_tensor_t>:
   0:	00058713          	mv	x14,x11
   4:	0045a683          	lw	x13,4(x11)
   8:	00072803          	lw	x16,0(x14)
   c:	0105a583          	lw	x11,16(x11)
  10:	00050793          	mv	x15,x10
  14:	02850613          	addi	x12,x10,40
  18:	01450513          	addi	x10,x10,20
  1c:	0107a023          	sw	x16,0(x15)
  20:	00d7a223          	sw	x13,4(x15)
  24:	00a7a423          	sw	x10,8(x15)
  28:	00c7a623          	sw	x12,12(x15)
  2c:	00b7a823          	sw	x11,16(x15)
  30:	00060613          	mv	x12,x12
  34:	00500293          	li	x5,5
  38:	04d2e463          	bltu	x5,x13,80 <.L14>
  3c:	00872303          	lw	x6,8(x14)
  40:	00c72383          	lw	x7,12(x14)
  44:	02068c63          	beqz	x13,7c <.L1>
  48:	00269893          	slli	x17,x13,0x2
  4c:	00078713          	mv	x14,x15
  50:	01178e33          	add	x28,x15,x17
  54:	40f30eb3          	sub	x29,x6,x15
  58:	40f38f33          	sub	x30,x7,x15

0000005c <.L5>:
  5c:	00ee8fb3          	add	x31,x29,x14
  60:	000fa683          	lw	x13,0(x31)
  64:	00ef05b3          	add	x11,x30,x14
  68:	00470713          	addi	x14,x14,4
  6c:	00d72823          	sw	x13,16(x14)
  70:	0005a803          	lw	x16,0(x11)
  74:	03072223          	sw	x16,36(x14)
  78:	ffc712e3          	bne	x14,x28,5c <.L5>

0000007c <.L1>:
  7c:	00008067          	ret

00000080 <.L14>:
  80:	ff010113          	addi	x2,x2,-16
  84:	000007b7          	lui	x15,0x0
  88:	00112623          	sw	x1,12(x2)
  8c:	000000b7          	lui	x1,0x0
  90:	0c700613          	li	x12,199
  94:	00008593          	mv	x11,x1
  98:	00078513          	mv	x10,x15
  9c:	00000097          	auipc	x1,0x0
  a0:	000080e7          	jalr	x1 # 9c <.L14+0x1c>
  a4:	00000637          	lui	x12,0x0
  a8:	00060513          	mv	x10,x12
  ac:	00000097          	auipc	x1,0x0
  b0:	000080e7          	jalr	x1 # ac <.L14+0x2c>
  b4:	00000537          	lui	x10,0x0
  b8:	00052283          	lw	x5,0(x10) # 0 <_ZN8HBTensorIfLln1EEC1EP11hb_tensor_t>
  bc:	00000337          	lui	x6,0x0
  c0:	00032383          	lw	x7,0(x6) # 0 <_ZN8HBTensorIfLln1EEC1EP11hb_tensor_t>
  c4:	01029893          	slli	x17,x5,0x10
  c8:	4100feb7          	lui	x29,0x4100f
  cc:	00788e33          	add	x28,x17,x7
  d0:	adceac23          	sw	x28,-1320(x29) # 4100ead8 <.L122+0x4100e3b4>

000000d4 <.L3>:
  d4:	0000006f          	j	d4 <.L3>
