
kernel_conv.o:     file format elf32-littleriscv


Disassembly of section .group:

00000000 <_ZN8HBTensorIfLl4EEC5EP11hb_tensor_t>:
   0:	0001                	nop
   2:	0000                	unimp
   4:	0008                	0x8
   6:	0000                	unimp
   8:	0009                	c.nop	2
	...

Disassembly of section .group:

00000000 <_ZN8HBTensorIfLln1EEC5EP11hb_tensor_t>:
   0:	0001                	nop
   2:	0000                	unimp
   4:	000c                	0xc
   6:	0000                	unimp
   8:	000d                	c.nop	3
	...

Disassembly of section .text:

00000000 <tensorlib_convolution_add_bias>:
       0:	00052783          	lw	x15,0(x10)
       4:	00000737          	lui	x14,0x0
       8:	00072283          	lw	x5,0(x14) # 0 <tensorlib_convolution_add_bias>
       c:	0047d613          	srli	x12,x15,0x4
      10:	ff010113          	addi	x2,x2,-16
      14:	00812623          	sw	x8,12(x2)
      18:	00160413          	addi	x8,x12,1
      1c:	02540733          	mul	x14,x8,x5
      20:	00852683          	lw	x13,8(x10)
      24:	01052383          	lw	x7,16(x10)
      28:	0105a803          	lw	x16,16(x11)
      2c:	0046a883          	lw	x17,4(x13)
      30:	0005a303          	lw	x6,0(x11)
      34:	00e40633          	add	x12,x8,x14
      38:	00c7f463          	bgeu	x15,x12,40 <.L2>
      3c:	00078613          	mv	x12,x15

00000040 <.L2>:
      40:	00000f37          	lui	x30,0x0
      44:	000005b7          	lui	x11,0x0
      48:	0005a403          	lw	x8,0(x11) # 0 <tensorlib_convolution_add_bias>
      4c:	000f2783          	lw	x15,0(x30) # 0 <tensorlib_convolution_add_bias>
      50:	00000eb7          	lui	x29,0x0
      54:	00000537          	lui	x10,0x0
      58:	00052683          	lw	x13,0(x10) # 0 <tensorlib_convolution_add_bias>
      5c:	000eaf83          	lw	x31,0(x29) # 0 <tensorlib_convolution_add_bias>
      60:	008787b3          	add	x15,x15,x8
      64:	01879413          	slli	x8,x15,0x18
      68:	00df8fb3          	add	x31,x31,x13
      6c:	00000e37          	lui	x28,0x0
      70:	3f0006b7          	lui	x13,0x3f000
      74:	00d477b3          	and	x15,x8,x13
      78:	000e2283          	lw	x5,0(x28) # 0 <tensorlib_convolution_add_bias>
      7c:	00fc0437          	lui	x8,0xfc0
      80:	012f9f93          	slli	x31,x31,0x12
      84:	008fffb3          	and	x31,x31,x8
      88:	01f7e6b3          	or	x13,x15,x31
      8c:	000407b7          	lui	x15,0x40
      90:	ff078413          	addi	x8,x15,-16 # 3fff0 <.L527+0x3d608>
      94:	00429293          	slli	x5,x5,0x4
      98:	0082ffb3          	and	x31,x5,x8
      9c:	01f6e2b3          	or	x5,x13,x31
      a0:	800006b7          	lui	x13,0x80000
      a4:	00d2e7b3          	or	x15,x5,x13
      a8:	41001fb7          	lui	x31,0x41001
      ac:	00271413          	slli	x8,x14,0x2
      b0:	d0ffa623          	sw	x15,-756(x31) # 41000d0c <.L527+0x40ffe324>
      b4:	007402b3          	add	x5,x8,x7
      b8:	02c77863          	bgeu	x14,x12,e8 <.L6>

000000bc <.L7>:
      bc:	031753b3          	divu	x7,x14,x17
      c0:	0002a787          	flw	f15,0(x5)
      c4:	00428293          	addi	x5,x5,4
      c8:	00170713          	addi	x14,x14,1
      cc:	0263f6b3          	remu	x13,x7,x6
      d0:	00269793          	slli	x15,x13,0x2
      d4:	00f80433          	add	x8,x16,x15
      d8:	00042707          	flw	f14,0(x8) # fc0000 <.L527+0xfbd618>
      dc:	00e7f053          	fadd.s	f0,f15,f14
      e0:	fe02ae27          	fsw	f0,-4(x5)
      e4:	fcc76ce3          	bltu	x14,x12,bc <.L7>

000000e8 <.L6>:
      e8:	000f2883          	lw	x17,0(x30)
      ec:	000ea303          	lw	x6,0(x29)
      f0:	0005a803          	lw	x16,0(x11)
      f4:	00052603          	lw	x12,0(x10)
      f8:	000e2f03          	lw	x30,0(x28)
      fc:	01088eb3          	add	x29,x17,x16
     100:	00c30e33          	add	x28,x6,x12
     104:	018e9f93          	slli	x31,x29,0x18
     108:	012e1393          	slli	x7,x28,0x12
     10c:	3f000737          	lui	x14,0x3f000
     110:	00fc06b7          	lui	x13,0xfc0
     114:	00040837          	lui	x16,0x40
     118:	00eff2b3          	and	x5,x31,x14
     11c:	00d3f7b3          	and	x15,x7,x13
     120:	004f1413          	slli	x8,x30,0x4
     124:	ff080313          	addi	x6,x16,-16 # 3fff0 <.L527+0x3d608>
     128:	00f2e8b3          	or	x17,x5,x15
     12c:	00647633          	and	x12,x8,x6
     130:	00c8ef33          	or	x30,x17,x12
     134:	c0000eb7          	lui	x29,0xc0000
     138:	01df6e33          	or	x28,x30,x29
     13c:	41001fb7          	lui	x31,0x41001
     140:	d1cfa623          	sw	x28,-756(x31) # 41000d0c <.L527+0x40ffe324>
     144:	00052383          	lw	x7,0(x10)
     148:	0005a283          	lw	x5,0(x11)
     14c:	00000737          	lui	x14,0x0
     150:	00438693          	addi	x13,x7,4
     154:	00070793          	mv	x15,x14
     158:	00d78433          	add	x8,x15,x13
     15c:	01829893          	slli	x17,x5,0x18
     160:	01146833          	or	x16,x8,x17
     164:	20040337          	lui	x6,0x20040
     168:	00686f33          	or	x30,x16,x6
     16c:	00100613          	li	x12,1
     170:	00cf0023          	sb	x12,0(x30)
     174:	00052e83          	lw	x29,0(x10)
     178:	02ce8c63          	beq	x29,x12,1b0 <.L8>

0000017c <.L19>:
     17c:	00100593          	li	x11,1
     180:	0100006f          	j	190 <.L23>

00000184 <.L48>:
     184:	00070813          	mv	x16,x14
     188:	14082f2f          	lr.w.aq	x30,(x16)
     18c:	00bf0863          	beq	x30,x11,19c <.L22>

00000190 <.L23>:
     190:	00070293          	mv	x5,x14
     194:	1002a42f          	lr.w	x8,(x5)
     198:	feb416e3          	bne	x8,x11,184 <.L48>

0000019c <.L22>:
     19c:	00c12403          	lw	x8,12(x2)
     1a0:	0007a023          	sw	x0,0(x15)
     1a4:	00000513          	li	x10,0
     1a8:	01010113          	addi	x2,x2,16
     1ac:	00008067          	ret

000001b0 <.L8>:
     1b0:	0047ce03          	lbu	x28,4(x15)
     1b4:	0ffe7f93          	andi	x31,x28,255
     1b8:	fe0f8ce3          	beqz	x31,1b0 <.L8>
     1bc:	0057c383          	lbu	x7,5(x15)
     1c0:	0ff3f293          	andi	x5,x7,255
     1c4:	fe0286e3          	beqz	x5,1b0 <.L8>
     1c8:	0067c683          	lbu	x13,6(x15)
     1cc:	0ff6f413          	andi	x8,x13,255
     1d0:	fe0400e3          	beqz	x8,1b0 <.L8>
     1d4:	0077c883          	lbu	x17,7(x15)
     1d8:	0ff8f813          	andi	x16,x17,255
     1dc:	fc080ae3          	beqz	x16,1b0 <.L8>
     1e0:	0005a303          	lw	x6,0(x11)
     1e4:	21040e37          	lui	x28,0x21040
     1e8:	00100f13          	li	x30,1
     1ec:	00c30613          	addi	x12,x6,12 # 2004000c <.L527+0x2003d624>
     1f0:	00c78eb3          	add	x29,x15,x12
     1f4:	01ceefb3          	or	x31,x29,x28
     1f8:	01ef8023          	sb	x30,0(x31)
     1fc:	00052383          	lw	x7,0(x10)
     200:	f7e39ee3          	bne	x7,x30,17c <.L19>
     204:	0005a603          	lw	x12,0(x11)
     208:	06760c63          	beq	x12,x7,280 <.L13>

0000020c <.L18>:
     20c:	00100393          	li	x7,1
     210:	0100006f          	j	220 <.L12>

00000214 <.L49>:
     214:	00878413          	addi	x8,x15,8
     218:	1404282f          	lr.w.aq	x16,(x8)
     21c:	00780863          	beq	x16,x7,22c <.L20>

00000220 <.L12>:
     220:	00878f93          	addi	x31,x15,8
     224:	100fa2af          	lr.w	x5,(x31)
     228:	fe7296e3          	bne	x5,x7,214 <.L49>

0000022c <.L20>:
     22c:	0007a423          	sw	x0,8(x15)
     230:	00078223          	sb	x0,4(x15)
     234:	000782a3          	sb	x0,5(x15)
     238:	00078323          	sb	x0,6(x15)
     23c:	000783a3          	sb	x0,7(x15)
     240:	0007a023          	sw	x0,0(x15)
     244:	00000613          	li	x12,0
     248:	00070793          	mv	x15,x14
     24c:	20000f37          	lui	x30,0x20000
     250:	00100313          	li	x6,1
     254:	00040eb7          	lui	x29,0x40
     258:	00100e37          	lui	x28,0x100

0000025c <.L21>:
     25c:	0005a683          	lw	x13,0(x11)
     260:	00c7e8b3          	or	x17,x15,x12
     264:	01d60633          	add	x12,x12,x29
     268:	01869513          	slli	x10,x13,0x18
     26c:	011563b3          	or	x7,x10,x17
     270:	01e3efb3          	or	x31,x7,x30
     274:	006fa023          	sw	x6,0(x31)
     278:	ffc612e3          	bne	x12,x28,25c <.L21>
     27c:	f01ff06f          	j	17c <.L19>

00000280 <.L13>:
     280:	00c7c283          	lbu	x5,12(x15)
     284:	0ff2f693          	andi	x13,x5,255
     288:	fe068ce3          	beqz	x13,280 <.L13>
     28c:	00d7c403          	lbu	x8,13(x15)
     290:	0ff47893          	andi	x17,x8,255
     294:	fe0886e3          	beqz	x17,280 <.L13>
     298:	00e7c803          	lbu	x16,14(x15)
     29c:	0ff87313          	andi	x6,x16,255
     2a0:	fe0300e3          	beqz	x6,280 <.L13>
     2a4:	00f7cf03          	lbu	x30,15(x15)
     2a8:	0fff7e93          	andi	x29,x30,255
     2ac:	fc0e8ae3          	beqz	x29,280 <.L13>
     2b0:	00078623          	sb	x0,12(x15)
     2b4:	000786a3          	sb	x0,13(x15)
     2b8:	00078723          	sb	x0,14(x15)
     2bc:	000787a3          	sb	x0,15(x15)
     2c0:	00000e37          	lui	x28,0x0
     2c4:	0007a423          	sw	x0,8(x15)
     2c8:	00000893          	li	x17,0
     2cc:	008e0393          	addi	x7,x28,8 # 8 <tensorlib_convolution_add_bias+0x8>
     2d0:	03fc0fb7          	lui	x31,0x3fc0
     2d4:	200002b7          	lui	x5,0x20000
     2d8:	00100413          	li	x8,1
     2dc:	01000837          	lui	x16,0x1000
     2e0:	04000337          	lui	x6,0x4000

000002e4 <.L17>:
     2e4:	01261693          	slli	x13,x12,0x12
     2e8:	01f6ff33          	and	x30,x13,x31
     2ec:	0113e633          	or	x12,x7,x17
     2f0:	00cf6eb3          	or	x29,x30,x12
     2f4:	005eee33          	or	x28,x29,x5
     2f8:	008e2023          	sw	x8,0(x28)
     2fc:	010888b3          	add	x17,x17,x16
     300:	00689863          	bne	x17,x6,310 <.L50>
     304:	00052503          	lw	x10,0(x10)
     308:	f08502e3          	beq	x10,x8,20c <.L18>
     30c:	e71ff06f          	j	17c <.L19>

00000310 <.L50>:
     310:	00052603          	lw	x12,0(x10)
     314:	fd1ff06f          	j	2e4 <.L17>

00000318 <tensorlib_convolution_forward>:
     318:	ee010113          	addi	x2,x2,-288
     31c:	00050793          	mv	x15,x10
     320:	10912a23          	sw	x9,276(x2)
     324:	04410513          	addi	x10,x2,68
     328:	00058493          	mv	x9,x11
     32c:	00078593          	mv	x11,x15
     330:	10112e23          	sw	x1,284(x2)
     334:	10812c23          	sw	x8,280(x2)
     338:	11212823          	sw	x18,272(x2)
     33c:	00060413          	mv	x8,x12
     340:	00070913          	mv	x18,x14
     344:	11312623          	sw	x19,268(x2)
     348:	11412423          	sw	x20,264(x2)
     34c:	00068993          	mv	x19,x13
     350:	11512223          	sw	x21,260(x2)
     354:	11612023          	sw	x22,256(x2)
     358:	0f712e23          	sw	x23,252(x2)
     35c:	0f812c23          	sw	x24,248(x2)
     360:	0f912a23          	sw	x25,244(x2)
     364:	0fa12823          	sw	x26,240(x2)
     368:	0fb12623          	sw	x27,236(x2)
     36c:	00000097          	auipc	x1,0x0
     370:	000080e7          	jalr	x1 # 36c <tensorlib_convolution_forward+0x54>
     374:	00048593          	mv	x11,x9
     378:	07810513          	addi	x10,x2,120
     37c:	00000097          	auipc	x1,0x0
     380:	000080e7          	jalr	x1 # 37c <tensorlib_convolution_forward+0x64>
     384:	00040593          	mv	x11,x8
     388:	0ac10513          	addi	x10,x2,172
     38c:	00000097          	auipc	x1,0x0
     390:	000080e7          	jalr	x1 # 38c <tensorlib_convolution_forward+0x74>
     394:	04812283          	lw	x5,72(x2)
     398:	48028e63          	beqz	x5,834 <.L139>
     39c:	00100713          	li	x14,1
     3a0:	44577063          	bgeu	x14,x5,7e0 <.L140>
     3a4:	00200693          	li	x13,2
     3a8:	52d28a63          	beq	x5,x13,8dc <.L141>
     3ac:	00300613          	li	x12,3
     3b0:	58c28063          	beq	x5,x12,930 <.L142>
     3b4:	07c12083          	lw	x1,124(x2)
     3b8:	4c177863          	bgeu	x14,x1,888 <.L143>
     3bc:	78d08663          	beq	x1,x13,b48 <.L144>
     3c0:	7cc08e63          	beq	x1,x12,b9c <.L145>
     3c4:	0b012303          	lw	x6,176(x2)
     3c8:	5a66fe63          	bgeu	x13,x6,984 <.L146>
     3cc:	02c302e3          	beq	x6,x12,bf0 <.L147>
     3d0:	000003b7          	lui	x7,0x0
     3d4:	000005b7          	lui	x11,0x0
     3d8:	000008b7          	lui	x17,0x0
     3dc:	00000ab7          	lui	x21,0x0
     3e0:	0003a503          	lw	x10,0(x7) # 0 <tensorlib_convolution_add_bias>
     3e4:	0005a803          	lw	x16,0(x11) # 0 <tensorlib_convolution_add_bias>
     3e8:	0008aa03          	lw	x20,0(x17) # 0 <tensorlib_convolution_add_bias>
     3ec:	000aab03          	lw	x22,0(x21) # 0 <tensorlib_convolution_add_bias>
     3f0:	00000bb7          	lui	x23,0x0
     3f4:	000bac03          	lw	x24,0(x23) # 0 <tensorlib_convolution_add_bias>
     3f8:	05012d83          	lw	x27,80(x2)
     3fc:	08412283          	lw	x5,132(x2)
     400:	0049a603          	lw	x12,4(x19)
     404:	01050cb3          	add	x25,x10,x16
     408:	016a0d33          	add	x26,x20,x22
     40c:	00492903          	lw	x18,4(x18)
     410:	018c9e13          	slli	x28,x25,0x18
     414:	012d1e93          	slli	x29,x26,0x12
     418:	3f000f37          	lui	x30,0x3f000
     41c:	00fc07b7          	lui	x15,0xfc0
     420:	00040737          	lui	x14,0x40
     424:	01ee7fb3          	and	x31,x28,x30
     428:	004c1413          	slli	x8,x24,0x4
     42c:	00fef4b3          	and	x9,x29,x15
     430:	ff070693          	addi	x13,x14,-16 # 3fff0 <.L527+0x3d608>
     434:	000da383          	lw	x7,0(x27)
     438:	004da883          	lw	x17,4(x27)
     43c:	008daa03          	lw	x20,8(x27)
     440:	0042aa83          	lw	x21,4(x5) # 20000004 <.L527+0x1fffd61c>
     444:	0082ab03          	lw	x22,8(x5)
     448:	00c2ab83          	lw	x23,12(x5)
     44c:	00092c03          	lw	x24,0(x18)
     450:	00492c83          	lw	x25,4(x18)
     454:	00062d03          	lw	x26,0(x12)
     458:	009fe9b3          	or	x19,x31,x9
     45c:	00d47333          	and	x6,x8,x13
     460:	0b812083          	lw	x1,184(x2)
     464:	0069e533          	or	x10,x19,x6
     468:	00cda983          	lw	x19,12(x27)
     46c:	00462d83          	lw	x27,4(x12)
     470:	800005b7          	lui	x11,0x80000
     474:	03512023          	sw	x21,32(x2)
     478:	02712e23          	sw	x7,60(x2)
     47c:	00b56833          	or	x16,x10,x11
     480:	01112423          	sw	x17,8(x2)
     484:	01412623          	sw	x20,12(x2)
     488:	03612223          	sw	x22,36(x2)
     48c:	03712423          	sw	x23,40(x2)
     490:	01812823          	sw	x24,16(x2)
     494:	01912a23          	sw	x25,20(x2)
     498:	01a12c23          	sw	x26,24(x2)
     49c:	41001e37          	lui	x28,0x41001
     4a0:	0080aa83          	lw	x21,8(x1)
     4a4:	00c0a083          	lw	x1,12(x1)
     4a8:	01b12e23          	sw	x27,28(x2)
     4ac:	d10e2623          	sw	x16,-756(x28) # 41000d0c <.L527+0x40ffe324>
     4b0:	22038263          	beqz	x7,6d4 <.L83>
     4b4:	00c12f03          	lw	x30,12(x2)
     4b8:	00812e83          	lw	x29,8(x2)
     4bc:	00000493          	li	x9,0
     4c0:	033f0433          	mul	x8,x30,x19
     4c4:	03ee8fb3          	mul	x31,x29,x30
     4c8:	02812623          	sw	x8,44(x2)
     4cc:	033f87b3          	mul	x15,x31,x19
     4d0:	0047d613          	srli	x12,x15,0x4
     4d4:	fff78913          	addi	x18,x15,-1 # fbffff <.L527+0xfbd617>
     4d8:	00160713          	addi	x14,x12,1
     4dc:	02f12a23          	sw	x15,52(x2)
     4e0:	03212823          	sw	x18,48(x2)
     4e4:	02e12c23          	sw	x14,56(x2)

000004e8 <.L84>:
     4e8:	02012683          	lw	x13,32(x2)
     4ec:	00000f93          	li	x31,0
     4f0:	1c068c63          	beqz	x13,6c8 <.L86>

000004f4 <.L82>:
     4f4:	03012303          	lw	x6,48(x2)
     4f8:	ffd00393          	li	x7,-3
     4fc:	1c63e063          	bltu	x7,x6,6bc <.L88>
     500:	00000537          	lui	x10,0x0
     504:	03812803          	lw	x16,56(x2)
     508:	00052583          	lw	x11,0(x10) # 0 <tensorlib_convolution_add_bias>
     50c:	03412b03          	lw	x22,52(x2)
     510:	02b808b3          	mul	x17,x16,x11
     514:	01180a33          	add	x20,x16,x17
     518:	014b7463          	bgeu	x22,x20,520 <.L87>
     51c:	000b0a13          	mv	x20,x22

00000520 <.L87>:
     520:	1948fe63          	bgeu	x17,x20,6bc <.L88>
     524:	04c12583          	lw	x11,76(x2)
     528:	05412903          	lw	x18,84(x2)
     52c:	08012383          	lw	x7,128(x2)
     530:	08812d03          	lw	x26,136(x2)
     534:	0b412283          	lw	x5,180(x2)
     538:	0bc12c83          	lw	x25,188(x2)

0000053c <.L90>:
     53c:	02c12b83          	lw	x23,44(x2)
     540:	0338ddb3          	divu	x27,x17,x19
     544:	00812e03          	lw	x28,8(x2)
     548:	00c12e83          	lw	x29,12(x2)
     54c:	0378dc33          	divu	x24,x17,x23
     550:	03ddf533          	remu	x10,x27,x29
     554:	03cc7833          	remu	x16,x24,x28
     558:	0338f433          	remu	x8,x17,x19
     55c:	140a8c63          	beqz	x21,6b4 <.L92>
     560:	01012f03          	lw	x30,16(x2)
     564:	01412783          	lw	x15,20(x2)
     568:	01812683          	lw	x13,24(x2)
     56c:	01c12303          	lw	x6,28(x2)
     570:	00000e13          	li	x28,0
     574:	02af0633          	mul	x12,x30,x10
     578:	02878733          	mul	x14,x15,x8
     57c:	40d60633          	sub	x12,x12,x13
     580:	40670b33          	sub	x22,x14,x6

00000584 <.L93>:
     584:	01cf8bb3          	add	x23,x31,x28
     588:	000b0f13          	mv	x30,x22
     58c:	00000e93          	li	x29,0
     590:	10008c63          	beqz	x1,6a8 <.L96>

00000594 <.L97>:
     594:	01db8c33          	add	x24,x23,x29
     598:	020c1e63          	bnez	x24,5d4 <.L94>
     59c:	0005a783          	lw	x15,0(x11) # 80000000 <.L527+0x7fffd618>
     5a0:	00c5a703          	lw	x14,12(x11)
     5a4:	0045a303          	lw	x6,4(x11)
     5a8:	0085ad83          	lw	x27,8(x11)
     5ac:	02e40c33          	mul	x24,x8,x14
     5b0:	02f486b3          	mul	x13,x9,x15
     5b4:	02680733          	mul	x14,x16,x6
     5b8:	018687b3          	add	x15,x13,x24
     5bc:	03b50333          	mul	x6,x10,x27
     5c0:	00e78db3          	add	x27,x15,x14
     5c4:	006d86b3          	add	x13,x27,x6
     5c8:	00269c13          	slli	x24,x13,0x2
     5cc:	01890733          	add	x14,x18,x24
     5d0:	00072023          	sw	x0,0(x14)

000005d4 <.L94>:
     5d4:	0c064463          	bltz	x12,69c <.L95>
     5d8:	02412783          	lw	x15,36(x2)
     5dc:	0cf67063          	bgeu	x12,x15,69c <.L95>
     5e0:	0a0f4e63          	bltz	x30,69c <.L95>
     5e4:	02812303          	lw	x6,40(x2)
     5e8:	0a6f7a63          	bgeu	x30,x6,69c <.L95>
     5ec:	0005a783          	lw	x15,0(x11)
     5f0:	00c5a703          	lw	x14,12(x11)
     5f4:	0003a683          	lw	x13,0(x7)
     5f8:	02f48333          	mul	x6,x9,x15
     5fc:	0002ac03          	lw	x24,0(x5)
     600:	0045ad83          	lw	x27,4(x11)
     604:	02e407b3          	mul	x15,x8,x14
     608:	0043a703          	lw	x14,4(x7)
     60c:	00f30333          	add	x6,x6,x15
     610:	02d486b3          	mul	x13,x9,x13
     614:	02ef87b3          	mul	x15,x31,x14
     618:	0042a703          	lw	x14,4(x5)
     61c:	03880c33          	mul	x24,x16,x24
     620:	00f686b3          	add	x13,x13,x15
     624:	02ef87b3          	mul	x15,x31,x14
     628:	00fc0733          	add	x14,x24,x15
     62c:	0083ac03          	lw	x24,8(x7)
     630:	03b80db3          	mul	x27,x16,x27
     634:	0082a783          	lw	x15,8(x5)
     638:	03860c33          	mul	x24,x12,x24
     63c:	01b30333          	add	x6,x6,x27
     640:	018686b3          	add	x13,x13,x24
     644:	00c3ac03          	lw	x24,12(x7)
     648:	02fe0db3          	mul	x27,x28,x15
     64c:	038f07b3          	mul	x15,x30,x24
     650:	01b70733          	add	x14,x14,x27
     654:	00c2ad83          	lw	x27,12(x5)
     658:	00f686b3          	add	x13,x13,x15
     65c:	00269793          	slli	x15,x13,0x2
     660:	0085a683          	lw	x13,8(x11)
     664:	03be8c33          	mul	x24,x29,x27
     668:	00fd0db3          	add	x27,x26,x15
     66c:	000da787          	flw	f15,0(x27)
     670:	02d507b3          	mul	x15,x10,x13
     674:	01870733          	add	x14,x14,x24
     678:	00271c13          	slli	x24,x14,0x2
     67c:	018c8db3          	add	x27,x25,x24
     680:	000da687          	flw	f13,0(x27)
     684:	00f30333          	add	x6,x6,x15
     688:	00231693          	slli	x13,x6,0x2
     68c:	00d907b3          	add	x15,x18,x13
     690:	0007a707          	flw	f14,0(x15)
     694:	70d7f043          	fmadd.s	f0,f15,f13,f14
     698:	0007a027          	fsw	f0,0(x15)

0000069c <.L95>:
     69c:	001e8e93          	addi	x29,x29,1 # 40001 <.L527+0x3d619>
     6a0:	001f0f13          	addi	x30,x30,1 # 3f000001 <.L527+0x3effd619>
     6a4:	efd098e3          	bne	x1,x29,594 <.L97>

000006a8 <.L96>:
     6a8:	001e0e13          	addi	x28,x28,1
     6ac:	00160613          	addi	x12,x12,1
     6b0:	edca9ae3          	bne	x21,x28,584 <.L93>

000006b4 <.L92>:
     6b4:	00188893          	addi	x17,x17,1
     6b8:	e91a12e3          	bne	x20,x17,53c <.L90>

000006bc <.L88>:
     6bc:	02012a03          	lw	x20,32(x2)
     6c0:	001f8f93          	addi	x31,x31,1 # 3fc0001 <.L527+0x3fbd619>
     6c4:	e3fa18e3          	bne	x20,x31,4f4 <.L82>

000006c8 <.L86>:
     6c8:	03c12583          	lw	x11,60(x2)
     6cc:	00148493          	addi	x9,x9,1
     6d0:	e0959ce3          	bne	x11,x9,4e8 <.L84>

000006d4 <.L83>:
     6d4:	000000b7          	lui	x1,0x0
     6d8:	000002b7          	lui	x5,0x0
     6dc:	000009b7          	lui	x19,0x0
     6e0:	000003b7          	lui	x7,0x0
     6e4:	0009aa83          	lw	x21,0(x19) # 0 <tensorlib_convolution_add_bias>
     6e8:	0000a903          	lw	x18,0(x1) # 0 <tensorlib_convolution_add_bias>
     6ec:	0003ad03          	lw	x26,0(x7) # 0 <tensorlib_convolution_add_bias>
     6f0:	0002ac83          	lw	x25,0(x5) # 0 <tensorlib_convolution_add_bias>
     6f4:	00000837          	lui	x16,0x0
     6f8:	00082503          	lw	x10,0(x16) # 0 <tensorlib_convolution_add_bias>
     6fc:	012a8433          	add	x8,x21,x18
     700:	019d0b33          	add	x22,x26,x25
     704:	01841b93          	slli	x23,x8,0x18
     708:	012b1713          	slli	x14,x22,0x12
     70c:	3f000c37          	lui	x24,0x3f000
     710:	00fc0337          	lui	x6,0xfc0
     714:	00040f37          	lui	x30,0x40
     718:	006777b3          	and	x15,x14,x6
     71c:	00451693          	slli	x13,x10,0x4
     720:	018bfdb3          	and	x27,x23,x24
     724:	ff0f0e13          	addi	x28,x30,-16 # 3fff0 <.L527+0x3d608>
     728:	00fdeeb3          	or	x29,x27,x15
     72c:	01c6f633          	and	x12,x13,x28
     730:	00cee8b3          	or	x17,x29,x12
     734:	c0000fb7          	lui	x31,0xc0000
     738:	01f8ea33          	or	x20,x17,x31
     73c:	410014b7          	lui	x9,0x41001
     740:	d144a623          	sw	x20,-756(x9) # 41000d0c <.L527+0x40ffe324>
     744:	0002a583          	lw	x11,0(x5)
     748:	0000a983          	lw	x19,0(x1)
     74c:	00000ab7          	lui	x21,0x0
     750:	00458093          	addi	x1,x11,4
     754:	000a8793          	mv	x15,x21
     758:	00178933          	add	x18,x15,x1
     75c:	01899393          	slli	x7,x19,0x18
     760:	00796d33          	or	x26,x18,x7
     764:	20040cb7          	lui	x25,0x20040
     768:	019d6833          	or	x16,x26,x25
     76c:	00100513          	li	x10,1
     770:	00a80023          	sb	x10,0(x16)
     774:	0002a283          	lw	x5,0(x5)
     778:	26a28063          	beq	x5,x10,9d8 <.L98>

0000077c <.L109>:
     77c:	00100d93          	li	x27,1
     780:	0100006f          	j	790 <.L113>

00000784 <.L148>:
     784:	000a8693          	mv	x13,x21
     788:	1406af2f          	lr.w.aq	x30,(x13)
     78c:	01bf0863          	beq	x30,x27,79c <.L112>

00000790 <.L113>:
     790:	000a8313          	mv	x6,x21
     794:	10032eaf          	lr.w	x29,(x6)
     798:	ffbe96e3          	bne	x29,x27,784 <.L148>

0000079c <.L112>:
     79c:	11c12083          	lw	x1,284(x2)
     7a0:	11812403          	lw	x8,280(x2)
     7a4:	0007a023          	sw	x0,0(x15)
     7a8:	11412483          	lw	x9,276(x2)
     7ac:	11012903          	lw	x18,272(x2)
     7b0:	10c12983          	lw	x19,268(x2)
     7b4:	10812a03          	lw	x20,264(x2)
     7b8:	10412a83          	lw	x21,260(x2)
     7bc:	10012b03          	lw	x22,256(x2)
     7c0:	0fc12b83          	lw	x23,252(x2)
     7c4:	0f812c03          	lw	x24,248(x2)
     7c8:	0f412c83          	lw	x25,244(x2)
     7cc:	0f012d03          	lw	x26,240(x2)
     7d0:	0ec12d83          	lw	x27,236(x2)
     7d4:	00000513          	li	x10,0
     7d8:	12010113          	addi	x2,x2,288
     7dc:	00008067          	ret

000007e0 <.L140>:
     7e0:	000000b7          	lui	x1,0x0
     7e4:	00000837          	lui	x16,0x0
     7e8:	00008593          	mv	x11,x1
     7ec:	06b00613          	li	x12,107
     7f0:	00080513          	mv	x10,x16
     7f4:	00000097          	auipc	x1,0x0
     7f8:	000080e7          	jalr	x1 # 7f4 <.L140+0x14>
     7fc:	04812583          	lw	x11,72(x2)
     800:	00000537          	lui	x10,0x0
     804:	00050513          	mv	x10,x10
     808:	00000097          	auipc	x1,0x0
     80c:	000080e7          	jalr	x1 # 808 <.L140+0x28>
     810:	000002b7          	lui	x5,0x0
     814:	0002a403          	lw	x8,0(x5) # 0 <tensorlib_convolution_add_bias>
     818:	00000b37          	lui	x22,0x0
     81c:	000b2b83          	lw	x23,0(x22) # 0 <tensorlib_convolution_add_bias>
     820:	01041713          	slli	x14,x8,0x10
     824:	4100fdb7          	lui	x27,0x4100f
     828:	01770c33          	add	x24,x14,x23
     82c:	ad8dac23          	sw	x24,-1320(x27) # 4100ead8 <.L527+0x4100c0f0>

00000830 <.L64>:
     830:	0000006f          	j	830 <.L64>

00000834 <.L139>:
     834:	00000337          	lui	x6,0x0
     838:	00000eb7          	lui	x29,0x0
     83c:	00030593          	mv	x11,x6
     840:	06b00613          	li	x12,107
     844:	000e8513          	mv	x10,x29
     848:	00000097          	auipc	x1,0x0
     84c:	000080e7          	jalr	x1 # 848 <.L139+0x14>
     850:	04812583          	lw	x11,72(x2)
     854:	000006b7          	lui	x13,0x0
     858:	00068513          	mv	x10,x13
     85c:	00000097          	auipc	x1,0x0
     860:	000080e7          	jalr	x1 # 85c <.L139+0x28>
     864:	00000f37          	lui	x30,0x0
     868:	000f2a83          	lw	x21,0(x30) # 0 <tensorlib_convolution_add_bias>
     86c:	00000e37          	lui	x28,0x0
     870:	000e2883          	lw	x17,0(x28) # 0 <tensorlib_convolution_add_bias>
     874:	010a9f93          	slli	x31,x21,0x10
     878:	4100f4b7          	lui	x9,0x4100f
     87c:	011f8a33          	add	x20,x31,x17
     880:	ad44ac23          	sw	x20,-1320(x9) # 4100ead8 <.L527+0x4100c0f0>

00000884 <.L62>:
     884:	0000006f          	j	884 <.L62>

00000888 <.L143>:
     888:	000000b7          	lui	x1,0x0
     88c:	00000d37          	lui	x26,0x0
     890:	00008593          	mv	x11,x1
     894:	06b00613          	li	x12,107
     898:	000d0513          	mv	x10,x26
     89c:	00000097          	auipc	x1,0x0
     8a0:	000080e7          	jalr	x1 # 89c <.L143+0x14>
     8a4:	07c12583          	lw	x11,124(x2)
     8a8:	00000cb7          	lui	x25,0x0
     8ac:	000c8513          	mv	x10,x25
     8b0:	00000097          	auipc	x1,0x0
     8b4:	000080e7          	jalr	x1 # 8b0 <.L143+0x28>
     8b8:	00000837          	lui	x16,0x0
     8bc:	00082503          	lw	x10,0(x16) # 0 <tensorlib_convolution_add_bias>
     8c0:	000002b7          	lui	x5,0x0
     8c4:	0002a403          	lw	x8,0(x5) # 0 <tensorlib_convolution_add_bias>
     8c8:	01051b13          	slli	x22,x10,0x10
     8cc:	4100f737          	lui	x14,0x4100f
     8d0:	008b0bb3          	add	x23,x22,x8
     8d4:	ad772c23          	sw	x23,-1320(x14) # 4100ead8 <.L527+0x4100c0f0>

000008d8 <.L70>:
     8d8:	0000006f          	j	8d8 <.L70>

000008dc <.L141>:
     8dc:	00000a37          	lui	x20,0x0
     8e0:	000004b7          	lui	x9,0x0
     8e4:	06b00613          	li	x12,107
     8e8:	000a0593          	mv	x11,x20
     8ec:	00048513          	mv	x10,x9
     8f0:	00000097          	auipc	x1,0x0
     8f4:	000080e7          	jalr	x1 # 8f0 <.L141+0x14>
     8f8:	04812583          	lw	x11,72(x2)
     8fc:	00000637          	lui	x12,0x0
     900:	00060513          	mv	x10,x12
     904:	00000097          	auipc	x1,0x0
     908:	000080e7          	jalr	x1 # 904 <.L141+0x28>
     90c:	000005b7          	lui	x11,0x0
     910:	0005a983          	lw	x19,0(x11) # 0 <tensorlib_convolution_add_bias>
     914:	00000937          	lui	x18,0x0
     918:	00092383          	lw	x7,0(x18) # 0 <tensorlib_convolution_add_bias>
     91c:	01099793          	slli	x15,x19,0x10
     920:	4100fcb7          	lui	x25,0x4100f
     924:	00778d33          	add	x26,x15,x7
     928:	adacac23          	sw	x26,-1320(x25) # 4100ead8 <.L527+0x4100c0f0>

0000092c <.L66>:
     92c:	0000006f          	j	92c <.L66>

00000930 <.L142>:
     930:	00000c37          	lui	x24,0x0
     934:	00000db7          	lui	x27,0x0
     938:	06b00613          	li	x12,107
     93c:	000c0593          	mv	x11,x24
     940:	000d8513          	mv	x10,x27
     944:	00000097          	auipc	x1,0x0
     948:	000080e7          	jalr	x1 # 944 <.L142+0x14>
     94c:	04812583          	lw	x11,72(x2)
     950:	00000337          	lui	x6,0x0
     954:	00030513          	mv	x10,x6
     958:	00000097          	auipc	x1,0x0
     95c:	000080e7          	jalr	x1 # 958 <.L142+0x28>
     960:	00000eb7          	lui	x29,0x0
     964:	000ea683          	lw	x13,0(x29) # 0 <tensorlib_convolution_add_bias>
     968:	00000f37          	lui	x30,0x0
     96c:	000f2a83          	lw	x21,0(x30) # 0 <tensorlib_convolution_add_bias>
     970:	01069e13          	slli	x28,x13,0x10
     974:	4100ffb7          	lui	x31,0x4100f
     978:	015e08b3          	add	x17,x28,x21
     97c:	ad1fac23          	sw	x17,-1320(x31) # 4100ead8 <.L527+0x4100c0f0>

00000980 <.L68>:
     980:	0000006f          	j	980 <.L68>

00000984 <.L146>:
     984:	000000b7          	lui	x1,0x0
     988:	000007b7          	lui	x15,0x0
     98c:	00008593          	mv	x11,x1
     990:	06b00613          	li	x12,107
     994:	00078513          	mv	x10,x15
     998:	00000097          	auipc	x1,0x0
     99c:	000080e7          	jalr	x1 # 998 <.L146+0x14>
     9a0:	0b012583          	lw	x11,176(x2)
     9a4:	000003b7          	lui	x7,0x0
     9a8:	00038513          	mv	x10,x7
     9ac:	00000097          	auipc	x1,0x0
     9b0:	000080e7          	jalr	x1 # 9ac <.L146+0x28>
     9b4:	00000d37          	lui	x26,0x0
     9b8:	000d2c83          	lw	x25,0(x26) # 0 <tensorlib_convolution_add_bias>
     9bc:	00000837          	lui	x16,0x0
     9c0:	00082503          	lw	x10,0(x16) # 0 <tensorlib_convolution_add_bias>
     9c4:	010c9293          	slli	x5,x25,0x10
     9c8:	4100fb37          	lui	x22,0x4100f
     9cc:	00a28433          	add	x8,x5,x10
     9d0:	ac8b2c23          	sw	x8,-1320(x22) # 4100ead8 <.L527+0x4100c0f0>

000009d4 <.L76>:
     9d4:	0000006f          	j	9d4 <.L76>

000009d8 <.L98>:
     9d8:	0047c403          	lbu	x8,4(x15) # 4 <tensorlib_convolution_add_bias+0x4>
     9dc:	0ff47b13          	andi	x22,x8,255
     9e0:	fe0b0ce3          	beqz	x22,9d8 <.L98>
     9e4:	0057cb83          	lbu	x23,5(x15)
     9e8:	0ffbf713          	andi	x14,x23,255
     9ec:	fe0706e3          	beqz	x14,9d8 <.L98>
     9f0:	0067cc03          	lbu	x24,6(x15)
     9f4:	0ffc7d93          	andi	x27,x24,255
     9f8:	fe0d80e3          	beqz	x27,9d8 <.L98>
     9fc:	0077c303          	lbu	x6,7(x15)
     a00:	0ff37693          	andi	x13,x6,255
     a04:	fc068ae3          	beqz	x13,9d8 <.L98>
     a08:	00000eb7          	lui	x29,0x0
     a0c:	000eaf03          	lw	x30,0(x29) # 0 <tensorlib_convolution_add_bias>
     a10:	21040fb7          	lui	x31,0x21040
     a14:	00100e13          	li	x28,1
     a18:	00cf0613          	addi	x12,x30,12
     a1c:	00c788b3          	add	x17,x15,x12
     a20:	01f8ea33          	or	x20,x17,x31
     a24:	01ca0023          	sb	x28,0(x20) # 0 <tensorlib_convolution_add_bias>
     a28:	000004b7          	lui	x9,0x0
     a2c:	0004a583          	lw	x11,0(x9) # 0 <tensorlib_convolution_add_bias>
     a30:	d5c596e3          	bne	x11,x28,77c <.L109>
     a34:	000eaf83          	lw	x31,0(x29)
     a38:	06bf8e63          	beq	x31,x11,ab4 <.L103>

00000a3c <.L108>:
     a3c:	00100493          	li	x9,1
     a40:	0100006f          	j	a50 <.L102>

00000a44 <.L149>:
     a44:	00878093          	addi	x1,x15,8
     a48:	1400a92f          	lr.w.aq	x18,(x1)
     a4c:	00990863          	beq	x18,x9,a5c <.L110>

00000a50 <.L102>:
     a50:	00878593          	addi	x11,x15,8
     a54:	1005a9af          	lr.w	x19,(x11)
     a58:	fe9996e3          	bne	x19,x9,a44 <.L149>

00000a5c <.L110>:
     a5c:	0007a423          	sw	x0,8(x15)
     a60:	00078223          	sb	x0,4(x15)
     a64:	000782a3          	sb	x0,5(x15)
     a68:	00078323          	sb	x0,6(x15)
     a6c:	000783a3          	sb	x0,7(x15)
     a70:	0007a023          	sw	x0,0(x15)
     a74:	00000b13          	li	x22,0
     a78:	000a8793          	mv	x15,x21
     a7c:	200003b7          	lui	x7,0x20000
     a80:	00100d13          	li	x26,1
     a84:	00040cb7          	lui	x25,0x40
     a88:	00100837          	lui	x16,0x100

00000a8c <.L111>:
     a8c:	00000537          	lui	x10,0x0
     a90:	00052283          	lw	x5,0(x10) # 0 <tensorlib_convolution_add_bias>
     a94:	0167e433          	or	x8,x15,x22
     a98:	019b0b33          	add	x22,x22,x25
     a9c:	01829b93          	slli	x23,x5,0x18
     aa0:	008be733          	or	x14,x23,x8
     aa4:	00776c33          	or	x24,x14,x7
     aa8:	01ac2023          	sw	x26,0(x24) # 0 <tensorlib_convolution_add_bias>
     aac:	ff0b10e3          	bne	x22,x16,a8c <.L111>
     ab0:	ccdff06f          	j	77c <.L109>

00000ab4 <.L103>:
     ab4:	00c7c983          	lbu	x19,12(x15)
     ab8:	0ff9f093          	andi	x1,x19,255
     abc:	fe008ce3          	beqz	x1,ab4 <.L103>
     ac0:	00d7c903          	lbu	x18,13(x15)
     ac4:	0ff97393          	andi	x7,x18,255
     ac8:	fe0386e3          	beqz	x7,ab4 <.L103>
     acc:	00e7cd03          	lbu	x26,14(x15)
     ad0:	0ffd7c93          	andi	x25,x26,255
     ad4:	fe0c80e3          	beqz	x25,ab4 <.L103>
     ad8:	00f7c803          	lbu	x16,15(x15)
     adc:	0ff87513          	andi	x10,x16,255
     ae0:	fc050ae3          	beqz	x10,ab4 <.L103>
     ae4:	00078623          	sb	x0,12(x15)
     ae8:	000786a3          	sb	x0,13(x15)
     aec:	00078723          	sb	x0,14(x15)
     af0:	000787a3          	sb	x0,15(x15)
     af4:	000002b7          	lui	x5,0x0
     af8:	0007a423          	sw	x0,8(x15)
     afc:	00000893          	li	x17,0
     b00:	00828413          	addi	x8,x5,8 # 8 <tensorlib_convolution_add_bias+0x8>
     b04:	03fc0b37          	lui	x22,0x3fc0
     b08:	20000bb7          	lui	x23,0x20000
     b0c:	00100713          	li	x14,1
     b10:	01000c37          	lui	x24,0x1000
     b14:	04000db7          	lui	x27,0x4000

00000b18 <.L107>:
     b18:	012f9313          	slli	x6,x31,0x12
     b1c:	01146eb3          	or	x29,x8,x17
     b20:	016376b3          	and	x13,x6,x22
     b24:	01d6ef33          	or	x30,x13,x29
     b28:	017f6e33          	or	x28,x30,x23
     b2c:	00ee2023          	sw	x14,0(x28)
     b30:	018888b3          	add	x17,x17,x24
     b34:	00000637          	lui	x12,0x0
     b38:	11b89663          	bne	x17,x27,c44 <.L150>
     b3c:	00062a03          	lw	x20,0(x12) # 0 <tensorlib_convolution_add_bias>
     b40:	eeea0ee3          	beq	x20,x14,a3c <.L108>
     b44:	c39ff06f          	j	77c <.L109>

00000b48 <.L144>:
     b48:	000008b7          	lui	x17,0x0
     b4c:	00000fb7          	lui	x31,0x0
     b50:	00088593          	mv	x11,x17
     b54:	06b00613          	li	x12,107
     b58:	000f8513          	mv	x10,x31
     b5c:	00000097          	auipc	x1,0x0
     b60:	000080e7          	jalr	x1 # b5c <.L144+0x14>
     b64:	07c12583          	lw	x11,124(x2)
     b68:	00000637          	lui	x12,0x0
     b6c:	00060513          	mv	x10,x12
     b70:	00000097          	auipc	x1,0x0
     b74:	000080e7          	jalr	x1 # b70 <.L144+0x28>
     b78:	00000a37          	lui	x20,0x0
     b7c:	000a2483          	lw	x9,0(x20) # 0 <tensorlib_convolution_add_bias>
     b80:	000005b7          	lui	x11,0x0
     b84:	0005a983          	lw	x19,0(x11) # 0 <tensorlib_convolution_add_bias>
     b88:	01049913          	slli	x18,x9,0x10
     b8c:	4100f3b7          	lui	x7,0x4100f
     b90:	013907b3          	add	x15,x18,x19
     b94:	acf3ac23          	sw	x15,-1320(x7) # 4100ead8 <.L527+0x4100c0f0>

00000b98 <.L72>:
     b98:	0000006f          	j	b98 <.L72>

00000b9c <.L145>:
     b9c:	00000737          	lui	x14,0x0
     ba0:	00000bb7          	lui	x23,0x0
     ba4:	06b00613          	li	x12,107
     ba8:	000b8593          	mv	x11,x23
     bac:	00070513          	mv	x10,x14
     bb0:	00000097          	auipc	x1,0x0
     bb4:	000080e7          	jalr	x1 # bb0 <.L145+0x14>
     bb8:	07c12583          	lw	x11,124(x2)
     bbc:	00000c37          	lui	x24,0x0
     bc0:	000c0513          	mv	x10,x24
     bc4:	00000097          	auipc	x1,0x0
     bc8:	000080e7          	jalr	x1 # bc4 <.L145+0x28>
     bcc:	00000db7          	lui	x27,0x0
     bd0:	000da303          	lw	x6,0(x27) # 0 <tensorlib_convolution_add_bias>
     bd4:	00000eb7          	lui	x29,0x0
     bd8:	000ea683          	lw	x13,0(x29) # 0 <tensorlib_convolution_add_bias>
     bdc:	01031f13          	slli	x30,x6,0x10
     be0:	4100fe37          	lui	x28,0x4100f
     be4:	00df0ab3          	add	x21,x30,x13
     be8:	ad5e2c23          	sw	x21,-1320(x28) # 4100ead8 <.L527+0x4100c0f0>

00000bec <.L74>:
     bec:	0000006f          	j	bec <.L74>

00000bf0 <.L147>:
     bf0:	00000e37          	lui	x28,0x0
     bf4:	00000ab7          	lui	x21,0x0
     bf8:	06b00613          	li	x12,107
     bfc:	000a8593          	mv	x11,x21
     c00:	000e0513          	mv	x10,x28
     c04:	00000097          	auipc	x1,0x0
     c08:	000080e7          	jalr	x1 # c04 <.L147+0x14>
     c0c:	0b012583          	lw	x11,176(x2)
     c10:	000008b7          	lui	x17,0x0
     c14:	00088513          	mv	x10,x17
     c18:	00000097          	auipc	x1,0x0
     c1c:	000080e7          	jalr	x1 # c18 <.L147+0x28>
     c20:	00000637          	lui	x12,0x0
     c24:	00062f83          	lw	x31,0(x12) # 0 <tensorlib_convolution_add_bias>
     c28:	00000a37          	lui	x20,0x0
     c2c:	000a2483          	lw	x9,0(x20) # 0 <tensorlib_convolution_add_bias>
     c30:	010f9593          	slli	x11,x31,0x10
     c34:	4100f937          	lui	x18,0x4100f
     c38:	009589b3          	add	x19,x11,x9
     c3c:	ad392c23          	sw	x19,-1320(x18) # 4100ead8 <.L527+0x4100c0f0>

00000c40 <.L78>:
     c40:	0000006f          	j	c40 <.L78>

00000c44 <.L150>:
     c44:	00062f83          	lw	x31,0(x12)
     c48:	ed1ff06f          	j	b18 <.L107>

00000c4c <tensorlib_convolution_backward_bias>:
     c4c:	f5010113          	addi	x2,x2,-176
     c50:	00050793          	mv	x15,x10
     c54:	0a812423          	sw	x8,168(x2)
     c58:	00810513          	addi	x10,x2,8
     c5c:	00058413          	mv	x8,x11
     c60:	00078593          	mv	x11,x15
     c64:	0a112623          	sw	x1,172(x2)
     c68:	0a912223          	sw	x9,164(x2)
     c6c:	0b212023          	sw	x18,160(x2)
     c70:	09312e23          	sw	x19,156(x2)
     c74:	09412c23          	sw	x20,152(x2)
     c78:	09512a23          	sw	x21,148(x2)
     c7c:	09612823          	sw	x22,144(x2)
     c80:	09712623          	sw	x23,140(x2)
     c84:	09812423          	sw	x24,136(x2)
     c88:	09912223          	sw	x25,132(x2)
     c8c:	09a12023          	sw	x26,128(x2)
     c90:	00000097          	auipc	x1,0x0
     c94:	000080e7          	jalr	x1 # c90 <tensorlib_convolution_backward_bias+0x44>
     c98:	00040593          	mv	x11,x8
     c9c:	04410513          	addi	x10,x2,68
     ca0:	00000097          	auipc	x1,0x0
     ca4:	000080e7          	jalr	x1 # ca0 <tensorlib_convolution_backward_bias+0x54>
     ca8:	04812283          	lw	x5,72(x2)
     cac:	2c028e63          	beqz	x5,f88 <.L238>
     cb0:	00100713          	li	x14,1
     cb4:	28577063          	bgeu	x14,x5,f34 <.L239>
     cb8:	00200093          	li	x1,2
     cbc:	3e128863          	beq	x5,x1,10ac <.L240>
     cc0:	00300313          	li	x6,3
     cc4:	42628e63          	beq	x5,x6,1100 <.L241>
     cc8:	00000f37          	lui	x30,0x0
     ccc:	00000937          	lui	x18,0x0
     cd0:	00000eb7          	lui	x29,0x0
     cd4:	000004b7          	lui	x9,0x0
     cd8:	000f2383          	lw	x7,0(x30) # 0 <tensorlib_convolution_add_bias>
     cdc:	00092503          	lw	x10,0(x18) # 0 <tensorlib_convolution_add_bias>
     ce0:	000ea803          	lw	x16,0(x29) # 0 <tensorlib_convolution_add_bias>
     ce4:	0004a583          	lw	x11,0(x9) # 0 <tensorlib_convolution_add_bias>
     ce8:	00000fb7          	lui	x31,0x0
     cec:	000fa683          	lw	x13,0(x31) # 0 <tensorlib_convolution_add_bias>
     cf0:	05012603          	lw	x12,80(x2)
     cf4:	00b809b3          	add	x19,x16,x11
     cf8:	00a388b3          	add	x17,x7,x10
     cfc:	01299a93          	slli	x21,x19,0x12
     d00:	01889a13          	slli	x20,x17,0x18
     d04:	3f000b37          	lui	x22,0x3f000
     d08:	00fc0c37          	lui	x24,0xfc0
     d0c:	00040437          	lui	x8,0x40
     d10:	00469d13          	slli	x26,x13,0x4
     d14:	016a7bb3          	and	x23,x20,x22
     d18:	018afcb3          	and	x25,x21,x24
     d1c:	ff040293          	addi	x5,x8,-16 # 3fff0 <.L527+0x3d608>
     d20:	00462e03          	lw	x28,4(x12)
     d24:	019be7b3          	or	x15,x23,x25
     d28:	005d7733          	and	x14,x26,x5
     d2c:	00e7e0b3          	or	x1,x15,x14
     d30:	80000337          	lui	x6,0x80000
     d34:	0060e533          	or	x10,x1,x6
     d38:	410015b7          	lui	x11,0x41001
     d3c:	00062983          	lw	x19,0(x12)
     d40:	00862383          	lw	x7,8(x12)
     d44:	00c62083          	lw	x1,12(x12)
     d48:	fffe0813          	addi	x16,x28,-1
     d4c:	d0a5a623          	sw	x10,-756(x11) # 41000d0c <.L527+0x40ffe324>
     d50:	ffd00693          	li	x13,-3
     d54:	0f06e663          	bltu	x13,x16,e40 <.L177>
     d58:	00000637          	lui	x12,0x0
     d5c:	00062a03          	lw	x20,0(x12) # 0 <tensorlib_convolution_add_bias>
     d60:	004e5893          	srli	x17,x28,0x4
     d64:	00188a93          	addi	x21,x17,1 # 1 <tensorlib_convolution_add_bias+0x1>
     d68:	034a8433          	mul	x8,x21,x20
     d6c:	008a8333          	add	x6,x21,x8
     d70:	3e6e6263          	bltu	x28,x6,1154 <.L242>
     d74:	0c647663          	bgeu	x8,x6,e40 <.L177>

00000d78 <.L247>:
     d78:	00812283          	lw	x5,8(x2)
     d7c:	00c12883          	lw	x17,12(x2)
     d80:	01812b03          	lw	x22,24(x2)
     d84:	01012c03          	lw	x24,16(x2)
     d88:	04c12603          	lw	x12,76(x2)
     d8c:	05412b83          	lw	x23,84(x2)
     d90:	00100a13          	li	x20,1

00000d94 <.L179>:
     d94:	00241c93          	slli	x25,x8,0x2
     d98:	019b05b3          	add	x11,x22,x25
     d9c:	00000813          	li	x16,0
     da0:	08098c63          	beqz	x19,e38 <.L181>

00000da4 <.L182>:
     da4:	00000513          	li	x10,0
     da8:	08038463          	beqz	x7,e30 <.L184>

00000dac <.L180>:
     dac:	01050e33          	add	x28,x10,x16
     db0:	00000713          	li	x14,0
     db4:	06008a63          	beqz	x1,e28 <.L192>

00000db8 <.L193>:
     db8:	01c70d33          	add	x26,x14,x28
     dbc:	420d0a63          	beqz	x26,11f0 <.L243>
     dc0:	44547e63          	bgeu	x8,x5,121c <.L244>

00000dc4 <.L189>:
     dc4:	00058693          	mv	x13,x11
     dc8:	01489a63          	bne	x17,x20,ddc <.L191>
     dcc:	000c2783          	lw	x15,0(x24) # fc0000 <.L527+0xfbd618>
     dd0:	02f406b3          	mul	x13,x8,x15
     dd4:	00269a93          	slli	x21,x13,0x2
     dd8:	015b06b3          	add	x13,x22,x21

00000ddc <.L191>:
     ddc:	00062c83          	lw	x25,0(x12)
     de0:	00462783          	lw	x15,4(x12)
     de4:	00862d03          	lw	x26,8(x12)
     de8:	03980ab3          	mul	x21,x16,x25
     dec:	0006a787          	flw	f15,0(x13) # 0 <tensorlib_convolution_add_bias>
     df0:	02f40cb3          	mul	x25,x8,x15
     df4:	019a87b3          	add	x15,x21,x25
     df8:	00c62a83          	lw	x21,12(x12)
     dfc:	03a50d33          	mul	x26,x10,x26
     e00:	03570cb3          	mul	x25,x14,x21
     e04:	01a78d33          	add	x26,x15,x26
     e08:	00170713          	addi	x14,x14,1 # 1 <tensorlib_convolution_add_bias+0x1>
     e0c:	019d07b3          	add	x15,x26,x25
     e10:	00279a93          	slli	x21,x15,0x2
     e14:	015b8cb3          	add	x25,x23,x21
     e18:	000ca707          	flw	f14,0(x25) # 40000 <.L527+0x3d618>
     e1c:	00e7f053          	fadd.s	f0,f15,f14
     e20:	0006a027          	fsw	f0,0(x13)
     e24:	f8e09ae3          	bne	x1,x14,db8 <.L193>

00000e28 <.L192>:
     e28:	00150513          	addi	x10,x10,1
     e2c:	f8a390e3          	bne	x7,x10,dac <.L180>

00000e30 <.L184>:
     e30:	00180813          	addi	x16,x16,1 # 100001 <.L527+0xfd619>
     e34:	f70998e3          	bne	x19,x16,da4 <.L182>

00000e38 <.L181>:
     e38:	00140413          	addi	x8,x8,1
     e3c:	f4831ce3          	bne	x6,x8,d94 <.L179>

00000e40 <.L177>:
     e40:	000f2083          	lw	x1,0(x30)
     e44:	000eab83          	lw	x23,0(x29)
     e48:	00092c03          	lw	x24,0(x18)
     e4c:	0004a603          	lw	x12,0(x9)
     e50:	000faa03          	lw	x20,0(x31)
     e54:	018085b3          	add	x11,x1,x24
     e58:	00cb8e33          	add	x28,x23,x12
     e5c:	01859f13          	slli	x30,x11,0x18
     e60:	012e1e93          	slli	x29,x28,0x12
     e64:	3f000fb7          	lui	x31,0x3f000
     e68:	00fc06b7          	lui	x13,0xfc0
     e6c:	00040cb7          	lui	x25,0x40
     e70:	01ff7d33          	and	x26,x30,x31
     e74:	004a1a93          	slli	x21,x20,0x4
     e78:	00def733          	and	x14,x29,x13
     e7c:	ff0c8993          	addi	x19,x25,-16 # 3fff0 <.L527+0x3d608>
     e80:	00ed67b3          	or	x15,x26,x14
     e84:	013af3b3          	and	x7,x21,x19
     e88:	0077e333          	or	x6,x15,x7
     e8c:	c00002b7          	lui	x5,0xc0000
     e90:	005368b3          	or	x17,x6,x5
     e94:	41001b37          	lui	x22,0x41001
     e98:	d11b2623          	sw	x17,-756(x22) # 41000d0c <.L527+0x40ffe324>
     e9c:	0004a503          	lw	x10,0(x9)
     ea0:	00092803          	lw	x16,0(x18)
     ea4:	00000437          	lui	x8,0x0
     ea8:	00450093          	addi	x1,x10,4
     eac:	00040793          	mv	x15,x8
     eb0:	00178c33          	add	x24,x15,x1
     eb4:	01881b93          	slli	x23,x16,0x18
     eb8:	017c6a33          	or	x20,x24,x23
     ebc:	20040637          	lui	x12,0x20040
     ec0:	00ca65b3          	or	x11,x20,x12
     ec4:	00100e13          	li	x28,1
     ec8:	01c58023          	sb	x28,0(x11)
     ecc:	0004af03          	lw	x30,0(x9)
     ed0:	11cf0663          	beq	x30,x28,fdc <.L194>

00000ed4 <.L205>:
     ed4:	00100913          	li	x18,1
     ed8:	0100006f          	j	ee8 <.L209>

00000edc <.L245>:
     edc:	00040613          	mv	x12,x8
     ee0:	1406232f          	lr.w.aq	x6,(x12)
     ee4:	01230863          	beq	x6,x18,ef4 <.L208>

00000ee8 <.L209>:
     ee8:	00040393          	mv	x7,x8
     eec:	1003a72f          	lr.w	x14,(x7)
     ef0:	ff2716e3          	bne	x14,x18,edc <.L245>

00000ef4 <.L208>:
     ef4:	0ac12083          	lw	x1,172(x2)
     ef8:	0a812403          	lw	x8,168(x2)
     efc:	0007a023          	sw	x0,0(x15)
     f00:	0a412483          	lw	x9,164(x2)
     f04:	0a012903          	lw	x18,160(x2)
     f08:	09c12983          	lw	x19,156(x2)
     f0c:	09812a03          	lw	x20,152(x2)
     f10:	09412a83          	lw	x21,148(x2)
     f14:	09012b03          	lw	x22,144(x2)
     f18:	08c12b83          	lw	x23,140(x2)
     f1c:	08812c03          	lw	x24,136(x2)
     f20:	08412c83          	lw	x25,132(x2)
     f24:	08012d03          	lw	x26,128(x2)
     f28:	00000513          	li	x10,0
     f2c:	0b010113          	addi	x2,x2,176
     f30:	00008067          	ret

00000f34 <.L239>:
     f34:	00000cb7          	lui	x25,0x0
     f38:	000009b7          	lui	x19,0x0
     f3c:	06b00613          	li	x12,107
     f40:	000c8593          	mv	x11,x25
     f44:	00098513          	mv	x10,x19
     f48:	00000097          	auipc	x1,0x0
     f4c:	000080e7          	jalr	x1 # f48 <.L239+0x14>
     f50:	04812583          	lw	x11,72(x2)
     f54:	00000937          	lui	x18,0x0
     f58:	00090513          	mv	x10,x18
     f5c:	00000097          	auipc	x1,0x0
     f60:	000080e7          	jalr	x1 # f5c <.L239+0x28>
     f64:	000003b7          	lui	x7,0x0
     f68:	0003a603          	lw	x12,0(x7) # 0 <tensorlib_convolution_add_bias>
     f6c:	00000737          	lui	x14,0x0
     f70:	00072303          	lw	x6,0(x14) # 0 <tensorlib_convolution_add_bias>
     f74:	01061413          	slli	x8,x12,0x10
     f78:	4100f8b7          	lui	x17,0x4100f
     f7c:	006402b3          	add	x5,x8,x6
     f80:	ac58ac23          	sw	x5,-1320(x17) # 4100ead8 <.L527+0x4100c0f0>

00000f84 <.L168>:
     f84:	0000006f          	j	f84 <.L168>

00000f88 <.L238>:
     f88:	00000b37          	lui	x22,0x0
     f8c:	00000537          	lui	x10,0x0
     f90:	06b00613          	li	x12,107
     f94:	000b0593          	mv	x11,x22
     f98:	00050513          	mv	x10,x10
     f9c:	00000097          	auipc	x1,0x0
     fa0:	000080e7          	jalr	x1 # f9c <.L238+0x14>
     fa4:	04812583          	lw	x11,72(x2)
     fa8:	000004b7          	lui	x9,0x0
     fac:	00048513          	mv	x10,x9
     fb0:	00000097          	auipc	x1,0x0
     fb4:	000080e7          	jalr	x1 # fb0 <.L238+0x28>
     fb8:	00000837          	lui	x16,0x0
     fbc:	00082c03          	lw	x24,0(x16) # 0 <tensorlib_convolution_add_bias>
     fc0:	00000bb7          	lui	x23,0x0
     fc4:	000baa03          	lw	x20,0(x23) # 0 <tensorlib_convolution_add_bias>
     fc8:	010c1793          	slli	x15,x24,0x10
     fcc:	4100ff37          	lui	x30,0x4100f
     fd0:	01478e33          	add	x28,x15,x20
     fd4:	adcf2c23          	sw	x28,-1320(x30) # 4100ead8 <.L527+0x4100c0f0>

00000fd8 <.L166>:
     fd8:	0000006f          	j	fd8 <.L166>

00000fdc <.L194>:
     fdc:	0047ce83          	lbu	x29,4(x15)
     fe0:	0ffeff93          	andi	x31,x29,255
     fe4:	fe0f8ce3          	beqz	x31,fdc <.L194>
     fe8:	0057cd03          	lbu	x26,5(x15)
     fec:	0ffd7693          	andi	x13,x26,255
     ff0:	fe0686e3          	beqz	x13,fdc <.L194>
     ff4:	0067c703          	lbu	x14,6(x15)
     ff8:	0ff77a93          	andi	x21,x14,255
     ffc:	fe0a80e3          	beqz	x21,fdc <.L194>
    1000:	0077cc83          	lbu	x25,7(x15)
    1004:	0ffcf993          	andi	x19,x25,255
    1008:	fc098ae3          	beqz	x19,fdc <.L194>
    100c:	00092383          	lw	x7,0(x18) # 0 <tensorlib_convolution_add_bias>
    1010:	21040b37          	lui	x22,0x21040
    1014:	00100313          	li	x6,1
    1018:	00c38293          	addi	x5,x7,12
    101c:	005788b3          	add	x17,x15,x5
    1020:	0168e533          	or	x10,x17,x22
    1024:	00650023          	sb	x6,0(x10) # 0 <tensorlib_convolution_add_bias>
    1028:	0004a803          	lw	x16,0(x9) # 0 <tensorlib_convolution_add_bias>
    102c:	ea6814e3          	bne	x16,x6,ed4 <.L205>
    1030:	00092503          	lw	x10,0(x18)
    1034:	13050663          	beq	x10,x16,1160 <.L199>

00001038 <.L204>:
    1038:	00100813          	li	x16,1
    103c:	0100006f          	j	104c <.L198>

00001040 <.L246>:
    1040:	00878b93          	addi	x23,x15,8
    1044:	140baa2f          	lr.w.aq	x20,(x23)
    1048:	010a0863          	beq	x20,x16,1058 <.L206>

0000104c <.L198>:
    104c:	00878093          	addi	x1,x15,8
    1050:	1000ac2f          	lr.w	x24,(x1)
    1054:	ff0c16e3          	bne	x24,x16,1040 <.L246>

00001058 <.L206>:
    1058:	0007a423          	sw	x0,8(x15)
    105c:	00078223          	sb	x0,4(x15)
    1060:	000782a3          	sb	x0,5(x15)
    1064:	00078323          	sb	x0,6(x15)
    1068:	000783a3          	sb	x0,7(x15)
    106c:	0007a023          	sw	x0,0(x15)
    1070:	00000693          	li	x13,0
    1074:	00040793          	mv	x15,x8
    1078:	20000e37          	lui	x28,0x20000
    107c:	00100f13          	li	x30,1
    1080:	00040eb7          	lui	x29,0x40
    1084:	00100fb7          	lui	x31,0x100

00001088 <.L207>:
    1088:	00092d03          	lw	x26,0(x18)
    108c:	00d7e5b3          	or	x11,x15,x13
    1090:	01d686b3          	add	x13,x13,x29
    1094:	018d1a93          	slli	x21,x26,0x18
    1098:	00baecb3          	or	x25,x21,x11
    109c:	01cce9b3          	or	x19,x25,x28
    10a0:	01e9a023          	sw	x30,0(x19) # 0 <tensorlib_convolution_add_bias>
    10a4:	fff692e3          	bne	x13,x31,1088 <.L207>
    10a8:	e2dff06f          	j	ed4 <.L205>

000010ac <.L240>:
    10ac:	000000b7          	lui	x1,0x0
    10b0:	000007b7          	lui	x15,0x0
    10b4:	00008593          	mv	x11,x1
    10b8:	06b00613          	li	x12,107
    10bc:	00078513          	mv	x10,x15
    10c0:	00000097          	auipc	x1,0x0
    10c4:	000080e7          	jalr	x1 # 10c0 <.L240+0x14>
    10c8:	04812583          	lw	x11,72(x2)
    10cc:	00000e37          	lui	x28,0x0
    10d0:	000e0513          	mv	x10,x28
    10d4:	00000097          	auipc	x1,0x0
    10d8:	000080e7          	jalr	x1 # 10d4 <.L240+0x28>
    10dc:	00000f37          	lui	x30,0x0
    10e0:	000f2e83          	lw	x29,0(x30) # 0 <tensorlib_convolution_add_bias>
    10e4:	00000fb7          	lui	x31,0x0
    10e8:	000fad03          	lw	x26,0(x31) # 0 <tensorlib_convolution_add_bias>
    10ec:	010e9593          	slli	x11,x29,0x10
    10f0:	4100fab7          	lui	x21,0x4100f
    10f4:	01a586b3          	add	x13,x11,x26
    10f8:	acdaac23          	sw	x13,-1320(x21) # 4100ead8 <.L527+0x4100c0f0>

000010fc <.L170>:
    10fc:	0000006f          	j	10fc <.L170>

00001100 <.L241>:
    1100:	000002b7          	lui	x5,0x0
    1104:	00000437          	lui	x8,0x0
    1108:	06b00613          	li	x12,107
    110c:	00040593          	mv	x11,x8
    1110:	00028513          	mv	x10,x5
    1114:	00000097          	auipc	x1,0x0
    1118:	000080e7          	jalr	x1 # 1114 <.L241+0x14>
    111c:	04812583          	lw	x11,72(x2)
    1120:	000008b7          	lui	x17,0x0
    1124:	00088513          	mv	x10,x17
    1128:	00000097          	auipc	x1,0x0
    112c:	000080e7          	jalr	x1 # 1128 <.L241+0x28>
    1130:	00000b37          	lui	x22,0x0
    1134:	000b2503          	lw	x10,0(x22) # 0 <tensorlib_convolution_add_bias>
    1138:	000004b7          	lui	x9,0x0
    113c:	0004a803          	lw	x16,0(x9) # 0 <tensorlib_convolution_add_bias>
    1140:	01051c13          	slli	x24,x10,0x10
    1144:	4100fa37          	lui	x20,0x4100f
    1148:	010c0bb3          	add	x23,x24,x16
    114c:	ad7a2c23          	sw	x23,-1320(x20) # 4100ead8 <.L527+0x4100c0f0>

00001150 <.L172>:
    1150:	0000006f          	j	1150 <.L172>

00001154 <.L242>:
    1154:	000e0313          	mv	x6,x28
    1158:	c26460e3          	bltu	x8,x6,d78 <.L247>
    115c:	ce5ff06f          	j	e40 <.L177>

00001160 <.L199>:
    1160:	00c7c083          	lbu	x1,12(x15) # c <tensorlib_convolution_add_bias+0xc>
    1164:	0ff0fc13          	andi	x24,x1,255
    1168:	fe0c0ce3          	beqz	x24,1160 <.L199>
    116c:	00d7cb83          	lbu	x23,13(x15)
    1170:	0ffbfa13          	andi	x20,x23,255
    1174:	fe0a06e3          	beqz	x20,1160 <.L199>
    1178:	00e7c583          	lbu	x11,14(x15)
    117c:	0ff5fe13          	andi	x28,x11,255
    1180:	fe0e00e3          	beqz	x28,1160 <.L199>
    1184:	00f7cf03          	lbu	x30,15(x15)
    1188:	0fff7e93          	andi	x29,x30,255
    118c:	fc0e8ae3          	beqz	x29,1160 <.L199>
    1190:	00078623          	sb	x0,12(x15)
    1194:	000786a3          	sb	x0,13(x15)
    1198:	00078723          	sb	x0,14(x15)
    119c:	000787a3          	sb	x0,15(x15)
    11a0:	00000fb7          	lui	x31,0x0
    11a4:	0007a423          	sw	x0,8(x15)
    11a8:	00000b13          	li	x22,0
    11ac:	008f8d13          	addi	x26,x31,8 # 8 <tensorlib_convolution_add_bias+0x8>
    11b0:	03fc06b7          	lui	x13,0x3fc0
    11b4:	20000ab7          	lui	x21,0x20000
    11b8:	00100c93          	li	x25,1
    11bc:	010009b7          	lui	x19,0x1000
    11c0:	040003b7          	lui	x7,0x4000

000011c4 <.L203>:
    11c4:	01251713          	slli	x14,x10,0x12
    11c8:	016d6633          	or	x12,x26,x22
    11cc:	00d77333          	and	x6,x14,x13
    11d0:	00c362b3          	or	x5,x6,x12
    11d4:	0152e8b3          	or	x17,x5,x21
    11d8:	0198a023          	sw	x25,0(x17) # 0 <tensorlib_convolution_add_bias>
    11dc:	013b0b33          	add	x22,x22,x19
    11e0:	0c7b1e63          	bne	x22,x7,12bc <.L248>
    11e4:	0004a483          	lw	x9,0(x9)
    11e8:	e59488e3          	beq	x9,x25,1038 <.L204>
    11ec:	ce9ff06f          	j	ed4 <.L205>

000011f0 <.L243>:
    11f0:	06547e63          	bgeu	x8,x5,126c <.L249>
    11f4:	00058d13          	mv	x26,x11
    11f8:	01488663          	beq	x17,x20,1204 <.L250>
    11fc:	000d2023          	sw	x0,0(x26)
    1200:	bc5ff06f          	j	dc4 <.L189>

00001204 <.L250>:
    1204:	000c2683          	lw	x13,0(x24)
    1208:	02d40ab3          	mul	x21,x8,x13
    120c:	002a9c93          	slli	x25,x21,0x2
    1210:	019b0d33          	add	x26,x22,x25
    1214:	000d2023          	sw	x0,0(x26)
    1218:	badff06f          	j	dc4 <.L189>

0000121c <.L244>:
    121c:	00000f37          	lui	x30,0x0
    1220:	00000eb7          	lui	x29,0x0
    1224:	000f0593          	mv	x11,x30
    1228:	07b00613          	li	x12,123
    122c:	000e8513          	mv	x10,x29
    1230:	00000097          	auipc	x1,0x0
    1234:	000080e7          	jalr	x1 # 1230 <.L244+0x14>
    1238:	00812583          	lw	x11,8(x2)
    123c:	00000fb7          	lui	x31,0x0
    1240:	00040613          	mv	x12,x8
    1244:	000f8513          	mv	x10,x31
    1248:	00000097          	auipc	x1,0x0
    124c:	000080e7          	jalr	x1 # 1248 <.L244+0x2c>
    1250:	00092903          	lw	x18,0(x18)
    1254:	0004a483          	lw	x9,0(x9)
    1258:	4100f737          	lui	x14,0x4100f
    125c:	01091793          	slli	x15,x18,0x10
    1260:	00978433          	add	x8,x15,x9
    1264:	ac872c23          	sw	x8,-1320(x14) # 4100ead8 <.L527+0x4100c0f0>

00001268 <.L190>:
    1268:	0000006f          	j	1268 <.L190>

0000126c <.L249>:
    126c:	00000537          	lui	x10,0x0
    1270:	000009b7          	lui	x19,0x0
    1274:	00050593          	mv	x11,x10
    1278:	07b00613          	li	x12,123
    127c:	00098513          	mv	x10,x19
    1280:	00000097          	auipc	x1,0x0
    1284:	000080e7          	jalr	x1 # 1280 <.L249+0x14>
    1288:	00812583          	lw	x11,8(x2)
    128c:	000003b7          	lui	x7,0x0
    1290:	00040613          	mv	x12,x8
    1294:	00038513          	mv	x10,x7
    1298:	00000097          	auipc	x1,0x0
    129c:	000080e7          	jalr	x1 # 1298 <.L249+0x2c>
    12a0:	00092803          	lw	x16,0(x18)
    12a4:	0004a303          	lw	x6,0(x9)
    12a8:	4100fb37          	lui	x22,0x4100f
    12ac:	01081293          	slli	x5,x16,0x10
    12b0:	006288b3          	add	x17,x5,x6
    12b4:	ad1b2c23          	sw	x17,-1320(x22) # 4100ead8 <.L527+0x4100c0f0>

000012b8 <.L187>:
    12b8:	0000006f          	j	12b8 <.L187>

000012bc <.L248>:
    12bc:	0004a503          	lw	x10,0(x9)
    12c0:	f05ff06f          	j	11c4 <.L203>

000012c4 <tensorlib_convolution_backward_input>:
    12c4:	eb010113          	addi	x2,x2,-336
    12c8:	00050793          	mv	x15,x10
    12cc:	14912223          	sw	x9,324(x2)
    12d0:	05c10513          	addi	x10,x2,92
    12d4:	00058493          	mv	x9,x11
    12d8:	00078593          	mv	x11,x15
    12dc:	14112623          	sw	x1,332(x2)
    12e0:	14812423          	sw	x8,328(x2)
    12e4:	15212023          	sw	x18,320(x2)
    12e8:	00060413          	mv	x8,x12
    12ec:	00070913          	mv	x18,x14
    12f0:	13312e23          	sw	x19,316(x2)
    12f4:	13412c23          	sw	x20,312(x2)
    12f8:	00068993          	mv	x19,x13
    12fc:	13512a23          	sw	x21,308(x2)
    1300:	13612823          	sw	x22,304(x2)
    1304:	13712623          	sw	x23,300(x2)
    1308:	13812423          	sw	x24,296(x2)
    130c:	13912223          	sw	x25,292(x2)
    1310:	13a12023          	sw	x26,288(x2)
    1314:	11b12e23          	sw	x27,284(x2)
    1318:	00000097          	auipc	x1,0x0
    131c:	000080e7          	jalr	x1 # 1318 <tensorlib_convolution_backward_input+0x54>
    1320:	00048593          	mv	x11,x9
    1324:	09810513          	addi	x10,x2,152
    1328:	00000097          	auipc	x1,0x0
    132c:	000080e7          	jalr	x1 # 1328 <tensorlib_convolution_backward_input+0x64>
    1330:	00040593          	mv	x11,x8
    1334:	0d410513          	addi	x10,x2,212
    1338:	00000097          	auipc	x1,0x0
    133c:	000080e7          	jalr	x1 # 1338 <tensorlib_convolution_backward_input+0x74>
    1340:	09c12283          	lw	x5,156(x2)
    1344:	56028e63          	beqz	x5,18c0 <.L378>
    1348:	00100713          	li	x14,1
    134c:	52577063          	bgeu	x14,x5,186c <.L379>
    1350:	00200693          	li	x13,2
    1354:	60d28a63          	beq	x5,x13,1968 <.L380>
    1358:	00300613          	li	x12,3
    135c:	66c28063          	beq	x5,x12,19bc <.L381>
    1360:	06012083          	lw	x1,96(x2)
    1364:	5a177863          	bgeu	x14,x1,1914 <.L382>
    1368:	0ed08ae3          	beq	x1,x13,1c5c <.L383>
    136c:	14c082e3          	beq	x1,x12,1cb0 <.L384>
    1370:	0d812303          	lw	x6,216(x2)
    1374:	6866fe63          	bgeu	x13,x6,1a10 <.L385>
    1378:	18c306e3          	beq	x6,x12,1d04 <.L386>
    137c:	000003b7          	lui	x7,0x0
    1380:	00000537          	lui	x10,0x0
    1384:	000008b7          	lui	x17,0x0
    1388:	00000ab7          	lui	x21,0x0
    138c:	0003a803          	lw	x16,0(x7) # 0 <tensorlib_convolution_add_bias>
    1390:	00052583          	lw	x11,0(x10) # 0 <tensorlib_convolution_add_bias>
    1394:	0008aa03          	lw	x20,0(x17) # 0 <tensorlib_convolution_add_bias>
    1398:	000aab03          	lw	x22,0(x21) # 0 <tensorlib_convolution_add_bias>
    139c:	00000bb7          	lui	x23,0x0
    13a0:	0a412403          	lw	x8,164(x2)
    13a4:	000bac03          	lw	x24,0(x23) # 0 <tensorlib_convolution_add_bias>
    13a8:	06812283          	lw	x5,104(x2)
    13ac:	00b80cb3          	add	x25,x16,x11
    13b0:	016a0d33          	add	x26,x20,x22
    13b4:	0049a983          	lw	x19,4(x19) # 4 <tensorlib_convolution_add_bias+0x4>
    13b8:	018c9d93          	slli	x27,x25,0x18
    13bc:	012d1e13          	slli	x28,x26,0x12
    13c0:	3f000eb7          	lui	x29,0x3f000
    13c4:	00fc0fb7          	lui	x31,0xfc0
    13c8:	01ddff33          	and	x30,x27,x29
    13cc:	01fe77b3          	and	x15,x28,x31
    13d0:	00040637          	lui	x12,0x40
    13d4:	00842b03          	lw	x22,8(x8) # 8 <tensorlib_convolution_add_bias+0x8>
    13d8:	0082ac83          	lw	x25,8(x5) # 8 <tensorlib_convolution_add_bias+0x8>
    13dc:	004c1493          	slli	x9,x24,0x4
    13e0:	00ff6733          	or	x14,x30,x15
    13e4:	05c12683          	lw	x13,92(x2)
    13e8:	00042a03          	lw	x20,0(x8)
    13ec:	00442a83          	lw	x21,4(x8)
    13f0:	00c42b83          	lw	x23,12(x8)
    13f4:	0042ac03          	lw	x24,4(x5)
    13f8:	0009ae83          	lw	x29,0(x19)
    13fc:	0049af03          	lw	x30,4(x19)
    1400:	ff060393          	addi	x7,x12,-16 # 3fff0 <.L527+0x3d608>
    1404:	00492903          	lw	x18,4(x18)
    1408:	0e012303          	lw	x6,224(x2)
    140c:	0074f833          	and	x16,x9,x7
    1410:	01076533          	or	x10,x14,x16
    1414:	800005b7          	lui	x11,0x80000
    1418:	03612423          	sw	x22,40(x2)
    141c:	01912e23          	sw	x25,28(x2)
    1420:	00b568b3          	or	x17,x10,x11
    1424:	05412423          	sw	x20,72(x2)
    1428:	03512823          	sw	x21,48(x2)
    142c:	03712623          	sw	x23,44(x2)
    1430:	01812c23          	sw	x24,24(x2)
    1434:	03d12023          	sw	x29,32(x2)
    1438:	03e12223          	sw	x30,36(x2)
    143c:	410017b7          	lui	x15,0x41001
    1440:	fff68f93          	addi	x31,x13,-1 # 3fbffff <.L527+0x3fbd617>
    1444:	ffd00493          	li	x9,-3
    1448:	00c2ae03          	lw	x28,12(x5)
    144c:	00832d83          	lw	x27,8(x6) # 80000008 <.L527+0x7fffd620>
    1450:	00c32b03          	lw	x22,12(x6)
    1454:	00092c83          	lw	x25,0(x18)
    1458:	00492d03          	lw	x26,4(x18)
    145c:	d117a623          	sw	x17,-756(x15) # 41000d0c <.L527+0x40ffe324>
    1460:	09f4e063          	bltu	x9,x31,14e0 <.L274>
    1464:	00000437          	lui	x8,0x0
    1468:	00042983          	lw	x19,0(x8) # 0 <tensorlib_convolution_add_bias>
    146c:	0046d913          	srli	x18,x13,0x4
    1470:	00190713          	addi	x14,x18,1
    1474:	03370333          	mul	x6,x14,x19
    1478:	006703b3          	add	x7,x14,x6
    147c:	0076f463          	bgeu	x13,x7,1484 <.L273>
    1480:	00068393          	mv	x7,x13

00001484 <.L273>:
    1484:	04737e63          	bgeu	x6,x7,14e0 <.L274>
    1488:	06412a03          	lw	x20,100(x2)
    148c:	06c12a83          	lw	x21,108(x2)
    1490:	00209093          	slli	x1,x1,0x2
    1494:	001288b3          	add	x17,x5,x1

00001498 <.L276>:
    1498:	000a0613          	mv	x12,x20
    149c:	00028b93          	mv	x23,x5
    14a0:	00030693          	mv	x13,x6
    14a4:	00000513          	li	x10,0

000014a8 <.L275>:
    14a8:	000ba583          	lw	x11,0(x23)
    14ac:	00062803          	lw	x16,0(x12)
    14b0:	004b8b93          	addi	x23,x23,4
    14b4:	02b6fc33          	remu	x24,x13,x11
    14b8:	00460613          	addi	x12,x12,4
    14bc:	030c0eb3          	mul	x29,x24,x16
    14c0:	02b6d6b3          	divu	x13,x13,x11
    14c4:	01d50533          	add	x10,x10,x29
    14c8:	ff7890e3          	bne	x17,x23,14a8 <.L275>
    14cc:	00251f13          	slli	x30,x10,0x2
    14d0:	01ea8fb3          	add	x31,x21,x30
    14d4:	000fa023          	sw	x0,0(x31) # fc0000 <.L527+0xfbd618>
    14d8:	00130313          	addi	x6,x6,1
    14dc:	fa639ee3          	bne	x7,x6,1498 <.L276>

000014e0 <.L274>:
    14e0:	000002b7          	lui	x5,0x0
    14e4:	0002a783          	lw	x15,0(x5) # 0 <tensorlib_convolution_add_bias>
    14e8:	000004b7          	lui	x9,0x0
    14ec:	0004a403          	lw	x8,0(x9) # 0 <tensorlib_convolution_add_bias>
    14f0:	00000937          	lui	x18,0x0
    14f4:	00090393          	mv	x7,x18
    14f8:	00478993          	addi	x19,x15,4
    14fc:	01338a33          	add	x20,x7,x19
    1500:	01841713          	slli	x14,x8,0x18
    1504:	00ea6ab3          	or	x21,x20,x14
    1508:	200400b7          	lui	x1,0x20040
    150c:	001ae8b3          	or	x17,x21,x1
    1510:	00100593          	li	x11,1
    1514:	00b88023          	sb	x11,0(x17)
    1518:	0002a803          	lw	x16,0(x5)
    151c:	04712223          	sw	x7,68(x2)
    1520:	05012623          	sw	x16,76(x2)
    1524:	62b80a63          	beq	x16,x11,1b58 <.L387>

00001528 <.L288>:
    1528:	00100793          	li	x15,1
    152c:	0100006f          	j	153c <.L292>

00001530 <.L388>:
    1530:	00088613          	mv	x12,x17
    1534:	14062baf          	lr.w.aq	x23,(x12)
    1538:	00fb8a63          	beq	x23,x15,154c <.L291>

0000153c <.L292>:
    153c:	000008b7          	lui	x17,0x0
    1540:	00088593          	mv	x11,x17
    1544:	1005a82f          	lr.w	x16,(x11)
    1548:	fef814e3          	bne	x16,x15,1530 <.L388>

0000154c <.L291>:
    154c:	04412c03          	lw	x24,68(x2)
    1550:	04812e83          	lw	x29,72(x2)
    1554:	000c2023          	sw	x0,0(x24)
    1558:	200e8263          	beqz	x29,175c <.L297>
    155c:	01c12f03          	lw	x30,28(x2)
    1560:	01812683          	lw	x13,24(x2)
    1564:	000d8a93          	mv	x21,x27
    1568:	03cf02b3          	mul	x5,x30,x28
    156c:	00000993          	li	x19,0
    1570:	000e0d93          	mv	x27,x28
    1574:	03e68533          	mul	x10,x13,x30
    1578:	02512a23          	sw	x5,52(x2)
    157c:	03c50fb3          	mul	x31,x10,x28
    1580:	004fd413          	srli	x8,x31,0x4
    1584:	ffff8913          	addi	x18,x31,-1
    1588:	00140313          	addi	x6,x8,1
    158c:	03f12e23          	sw	x31,60(x2)
    1590:	03212c23          	sw	x18,56(x2)
    1594:	04612023          	sw	x6,64(x2)

00001598 <.L298>:
    1598:	03012e03          	lw	x28,48(x2)
    159c:	00000f13          	li	x30,0
    15a0:	1a0e0863          	beqz	x28,1750 <.L300>

000015a4 <.L296>:
    15a4:	03812383          	lw	x7,56(x2)
    15a8:	ffd00a13          	li	x20,-3
    15ac:	187a6c63          	bltu	x20,x7,1744 <.L302>
    15b0:	00000737          	lui	x14,0x0
    15b4:	04012783          	lw	x15,64(x2)
    15b8:	00072083          	lw	x1,0(x14) # 0 <tensorlib_convolution_add_bias>
    15bc:	03c12883          	lw	x17,60(x2)
    15c0:	021785b3          	mul	x11,x15,x1
    15c4:	00b78833          	add	x16,x15,x11
    15c8:	0108f463          	bgeu	x17,x16,15d0 <.L301>
    15cc:	00088813          	mv	x16,x17

000015d0 <.L301>:
    15d0:	1705fa63          	bgeu	x11,x16,1744 <.L302>
    15d4:	0a812603          	lw	x12,168(x2)
    15d8:	0e412b83          	lw	x23,228(x2)
    15dc:	06c12c03          	lw	x24,108(x2)
    15e0:	0a012383          	lw	x7,160(x2)
    15e4:	0dc12283          	lw	x5,220(x2)
    15e8:	06412f83          	lw	x31,100(x2)
    15ec:	00c12423          	sw	x12,8(x2)
    15f0:	01712623          	sw	x23,12(x2)
    15f4:	01812823          	sw	x24,16(x2)
    15f8:	01012a23          	sw	x16,20(x2)

000015fc <.L304>:
    15fc:	03b5deb3          	divu	x29,x11,x27
    1600:	03412683          	lw	x13,52(x2)
    1604:	01c12483          	lw	x9,28(x2)
    1608:	02012403          	lw	x8,32(x2)
    160c:	01812903          	lw	x18,24(x2)
    1610:	02412303          	lw	x6,36(x2)
    1614:	00000893          	li	x17,0
    1618:	02d5d533          	divu	x10,x11,x13
    161c:	029ef0b3          	remu	x1,x29,x9
    1620:	03b5f833          	remu	x16,x11,x27
    1624:	00140bb3          	add	x23,x8,x1
    1628:	03257533          	remu	x10,x10,x18
    162c:	01030a33          	add	x20,x6,x16
    1630:	100a8463          	beqz	x21,1738 <.L306>

00001634 <.L303>:
    1634:	0e0b0e63          	beqz	x22,1730 <.L308>
    1638:	411b84b3          	sub	x9,x23,x17
    163c:	00000693          	li	x13,0
    1640:	0394fc33          	remu	x24,x9,x25

00001644 <.L309>:
    1644:	40da0e33          	sub	x28,x20,x13
    1648:	0e0c1063          	bnez	x24,1728 <.L307>
    164c:	03ae7733          	remu	x14,x28,x26
    1650:	0c071c63          	bnez	x14,1728 <.L307>
    1654:	0394d7b3          	divu	x15,x9,x25
    1658:	02812603          	lw	x12,40(x2)
    165c:	0cc7f663          	bgeu	x15,x12,1728 <.L307>
    1660:	03ae5933          	divu	x18,x28,x26
    1664:	02c12e83          	lw	x29,44(x2)
    1668:	0dd97063          	bgeu	x18,x29,1728 <.L307>
    166c:	000fa403          	lw	x8,0(x31)
    1670:	00cfae03          	lw	x28,12(x31)
    1674:	0003a703          	lw	x14,0(x7)
    1678:	02898433          	mul	x8,x19,x8
    167c:	0043a303          	lw	x6,4(x7)
    1680:	0002a603          	lw	x12,0(x5)
    1684:	03c80e33          	mul	x28,x16,x28
    1688:	02e98eb3          	mul	x29,x19,x14
    168c:	01c40733          	add	x14,x8,x28
    1690:	0042a403          	lw	x8,4(x5)
    1694:	026f0333          	mul	x6,x30,x6
    1698:	02850e33          	mul	x28,x10,x8
    169c:	006e8333          	add	x6,x29,x6
    16a0:	004fae83          	lw	x29,4(x31)
    16a4:	02cf0633          	mul	x12,x30,x12
    16a8:	03d50433          	mul	x8,x10,x29
    16ac:	01c60633          	add	x12,x12,x28
    16b0:	0083ae03          	lw	x28,8(x7)
    16b4:	03c787b3          	mul	x15,x15,x28
    16b8:	00870e33          	add	x28,x14,x8
    16bc:	0082a703          	lw	x14,8(x5)
    16c0:	00c2a403          	lw	x8,12(x5)
    16c4:	02e88eb3          	mul	x29,x17,x14
    16c8:	00f30333          	add	x6,x6,x15
    16cc:	008fa703          	lw	x14,8(x31)
    16d0:	028687b3          	mul	x15,x13,x8
    16d4:	01d60633          	add	x12,x12,x29
    16d8:	00f60433          	add	x8,x12,x15
    16dc:	00241613          	slli	x12,x8,0x2
    16e0:	00c3a403          	lw	x8,12(x7)
    16e4:	02e08eb3          	mul	x29,x1,x14
    16e8:	00c12783          	lw	x15,12(x2)
    16ec:	00c78733          	add	x14,x15,x12
    16f0:	01012603          	lw	x12,16(x2)
    16f4:	00812783          	lw	x15,8(x2)
    16f8:	00072687          	flw	f13,0(x14)
    16fc:	02890933          	mul	x18,x18,x8
    1700:	01de0e33          	add	x28,x28,x29
    1704:	002e1e93          	slli	x29,x28,0x2
    1708:	01d60733          	add	x14,x12,x29
    170c:	00072707          	flw	f14,0(x14)
    1710:	01230333          	add	x6,x6,x18
    1714:	00231413          	slli	x8,x6,0x2
    1718:	00878933          	add	x18,x15,x8
    171c:	00092787          	flw	f15,0(x18) # 0 <tensorlib_convolution_add_bias>
    1720:	70d7f043          	fmadd.s	f0,f15,f13,f14
    1724:	00072027          	fsw	f0,0(x14)

00001728 <.L307>:
    1728:	00168693          	addi	x13,x13,1
    172c:	f0db1ce3          	bne	x22,x13,1644 <.L309>

00001730 <.L308>:
    1730:	00188893          	addi	x17,x17,1 # 1 <tensorlib_convolution_add_bias+0x1>
    1734:	f11a90e3          	bne	x21,x17,1634 <.L303>

00001738 <.L306>:
    1738:	01412083          	lw	x1,20(x2)
    173c:	00158593          	addi	x11,x11,1 # 80000001 <.L527+0x7fffd619>
    1740:	eab09ee3          	bne	x1,x11,15fc <.L304>

00001744 <.L302>:
    1744:	03012383          	lw	x7,48(x2)
    1748:	001f0f13          	addi	x30,x30,1 # 1 <tensorlib_convolution_add_bias+0x1>
    174c:	e5e39ce3          	bne	x7,x30,15a4 <.L296>

00001750 <.L300>:
    1750:	04812283          	lw	x5,72(x2)
    1754:	00198993          	addi	x19,x19,1
    1758:	e53290e3          	bne	x5,x19,1598 <.L298>

0000175c <.L297>:
    175c:	00000b37          	lui	x22,0x0
    1760:	000b2c83          	lw	x25,0(x22) # 0 <tensorlib_convolution_add_bias>
    1764:	04c12503          	lw	x10,76(x2)
    1768:	00000837          	lui	x16,0x0
    176c:	00000d37          	lui	x26,0x0
    1770:	00000db7          	lui	x27,0x0
    1774:	000d2a83          	lw	x21,0(x26) # 0 <tensorlib_convolution_add_bias>
    1778:	000daf83          	lw	x31,0(x27) # 0 <tensorlib_convolution_add_bias>
    177c:	00082b83          	lw	x23,0(x16) # 0 <tensorlib_convolution_add_bias>
    1780:	01950a33          	add	x20,x10,x25
    1784:	00040637          	lui	x12,0x40
    1788:	017f8e33          	add	x28,x31,x23
    178c:	012a1493          	slli	x9,x20,0x12
    1790:	004a9c13          	slli	x24,x21,0x4
    1794:	00fc0eb7          	lui	x29,0xfc0
    1798:	ff060713          	addi	x14,x12,-16 # 3fff0 <.L527+0x3d608>
    179c:	01d4f333          	and	x6,x9,x29
    17a0:	00ec7433          	and	x8,x24,x14
    17a4:	018e1913          	slli	x18,x28,0x18
    17a8:	3f0006b7          	lui	x13,0x3f000
    17ac:	008367b3          	or	x15,x6,x8
    17b0:	00d978b3          	and	x17,x18,x13
    17b4:	0117e5b3          	or	x11,x15,x17
    17b8:	c00000b7          	lui	x1,0xc0000
    17bc:	0015ef33          	or	x30,x11,x1
    17c0:	410013b7          	lui	x7,0x41001
    17c4:	d1e3a623          	sw	x30,-756(x7) # 41000d0c <.L527+0x40ffe324>
    17c8:	000009b7          	lui	x19,0x0
    17cc:	0009a283          	lw	x5,0(x19) # 0 <tensorlib_convolution_add_bias>
    17d0:	00082b03          	lw	x22,0(x16)
    17d4:	04412d03          	lw	x26,68(x2)
    17d8:	00428c93          	addi	x25,x5,4
    17dc:	018b1d93          	slli	x27,x22,0x18
    17e0:	019d0ab3          	add	x21,x26,x25
    17e4:	01baefb3          	or	x31,x21,x27
    17e8:	20040837          	lui	x16,0x20040
    17ec:	010febb3          	or	x23,x31,x16
    17f0:	00100513          	li	x10,1
    17f4:	00ab8023          	sb	x10,0(x23)
    17f8:	0009aa03          	lw	x20,0(x19)
    17fc:	26aa0463          	beq	x20,x10,1a64 <.L389>

00001800 <.L321>:
    1800:	00100793          	li	x15,1
    1804:	0100006f          	j	1814 <.L325>

00001808 <.L390>:
    1808:	00058693          	mv	x13,x11
    180c:	1406af2f          	lr.w.aq	x30,(x13)
    1810:	00ff0a63          	beq	x30,x15,1824 <.L324>

00001814 <.L325>:
    1814:	000005b7          	lui	x11,0x0
    1818:	00058713          	mv	x14,x11
    181c:	100720af          	lr.w	x1,(x14)
    1820:	fef094e3          	bne	x1,x15,1808 <.L390>

00001824 <.L324>:
    1824:	04412383          	lw	x7,68(x2)
    1828:	14c12083          	lw	x1,332(x2)
    182c:	14812403          	lw	x8,328(x2)
    1830:	0003a023          	sw	x0,0(x7)
    1834:	14412483          	lw	x9,324(x2)
    1838:	14012903          	lw	x18,320(x2)
    183c:	13c12983          	lw	x19,316(x2)
    1840:	13812a03          	lw	x20,312(x2)
    1844:	13412a83          	lw	x21,308(x2)
    1848:	13012b03          	lw	x22,304(x2)
    184c:	12c12b83          	lw	x23,300(x2)
    1850:	12812c03          	lw	x24,296(x2)
    1854:	12412c83          	lw	x25,292(x2)
    1858:	12012d03          	lw	x26,288(x2)
    185c:	11c12d83          	lw	x27,284(x2)
    1860:	00000513          	li	x10,0
    1864:	15010113          	addi	x2,x2,336
    1868:	00008067          	ret

0000186c <.L379>:
    186c:	00000e37          	lui	x28,0x0
    1870:	00000eb7          	lui	x29,0x0
    1874:	000e0593          	mv	x11,x28
    1878:	06b00613          	li	x12,107
    187c:	000e8513          	mv	x10,x29
    1880:	00000097          	auipc	x1,0x0
    1884:	000080e7          	jalr	x1 # 1880 <.L379+0x14>
    1888:	09c12583          	lw	x11,156(x2)
    188c:	00000637          	lui	x12,0x0
    1890:	00060513          	mv	x10,x12
    1894:	00000097          	auipc	x1,0x0
    1898:	000080e7          	jalr	x1 # 1894 <.L379+0x28>
    189c:	00000337          	lui	x6,0x0
    18a0:	00032403          	lw	x8,0(x6) # 0 <tensorlib_convolution_add_bias>
    18a4:	00000937          	lui	x18,0x0
    18a8:	00092883          	lw	x17,0(x18) # 0 <tensorlib_convolution_add_bias>
    18ac:	01041793          	slli	x15,x8,0x10
    18b0:	4100f737          	lui	x14,0x4100f
    18b4:	011786b3          	add	x13,x15,x17
    18b8:	acd72c23          	sw	x13,-1320(x14) # 4100ead8 <.L527+0x4100c0f0>

000018bc <.L255>:
    18bc:	0000006f          	j	18bc <.L255>

000018c0 <.L378>:
    18c0:	00000f37          	lui	x30,0x0
    18c4:	000003b7          	lui	x7,0x0
    18c8:	000f0593          	mv	x11,x30
    18cc:	06b00613          	li	x12,107
    18d0:	00038513          	mv	x10,x7
    18d4:	00000097          	auipc	x1,0x0
    18d8:	000080e7          	jalr	x1 # 18d4 <.L378+0x14>
    18dc:	09c12583          	lw	x11,156(x2)
    18e0:	000009b7          	lui	x19,0x0
    18e4:	00098513          	mv	x10,x19
    18e8:	00000097          	auipc	x1,0x0
    18ec:	000080e7          	jalr	x1 # 18e8 <.L378+0x28>
    18f0:	000005b7          	lui	x11,0x0
    18f4:	0005a283          	lw	x5,0(x11) # 0 <tensorlib_convolution_add_bias>
    18f8:	00000b37          	lui	x22,0x0
    18fc:	000b2c83          	lw	x25,0(x22) # 0 <tensorlib_convolution_add_bias>
    1900:	01029d13          	slli	x26,x5,0x10
    1904:	4100fdb7          	lui	x27,0x4100f
    1908:	019d0ab3          	add	x21,x26,x25
    190c:	ad5dac23          	sw	x21,-1320(x27) # 4100ead8 <.L527+0x4100c0f0>

00001910 <.L253>:
    1910:	0000006f          	j	1910 <.L253>

00001914 <.L382>:
    1914:	000004b7          	lui	x9,0x0
    1918:	00000c37          	lui	x24,0x0
    191c:	06b00613          	li	x12,107
    1920:	00048593          	mv	x11,x9
    1924:	000c0513          	mv	x10,x24
    1928:	00000097          	auipc	x1,0x0
    192c:	000080e7          	jalr	x1 # 1928 <.L382+0x14>
    1930:	06012583          	lw	x11,96(x2)
    1934:	00000637          	lui	x12,0x0
    1938:	00060513          	mv	x10,x12
    193c:	00000097          	auipc	x1,0x0
    1940:	000080e7          	jalr	x1 # 193c <.L382+0x28>
    1944:	00000e37          	lui	x28,0x0
    1948:	000e2e83          	lw	x29,0(x28) # 0 <tensorlib_convolution_add_bias>
    194c:	00000337          	lui	x6,0x0
    1950:	00032403          	lw	x8,0(x6) # 0 <tensorlib_convolution_add_bias>
    1954:	010e9913          	slli	x18,x29,0x10
    1958:	4100f7b7          	lui	x15,0x4100f
    195c:	008908b3          	add	x17,x18,x8
    1960:	ad17ac23          	sw	x17,-1320(x15) # 4100ead8 <.L527+0x4100c0f0>

00001964 <.L261>:
    1964:	0000006f          	j	1964 <.L261>

00001968 <.L380>:
    1968:	000000b7          	lui	x1,0x0
    196c:	00000ab7          	lui	x21,0x0
    1970:	00008593          	mv	x11,x1
    1974:	06b00613          	li	x12,107
    1978:	000a8513          	mv	x10,x21
    197c:	00000097          	auipc	x1,0x0
    1980:	000080e7          	jalr	x1 # 197c <.L380+0x14>
    1984:	09c12583          	lw	x11,156(x2)
    1988:	00000db7          	lui	x27,0x0
    198c:	000d8513          	mv	x10,x27
    1990:	00000097          	auipc	x1,0x0
    1994:	000080e7          	jalr	x1 # 1990 <.L380+0x28>
    1998:	00000fb7          	lui	x31,0x0
    199c:	000fa803          	lw	x16,0(x31) # 0 <tensorlib_convolution_add_bias>
    19a0:	00000bb7          	lui	x23,0x0
    19a4:	000baa03          	lw	x20,0(x23) # 0 <tensorlib_convolution_add_bias>
    19a8:	01081513          	slli	x10,x16,0x10
    19ac:	4100fc37          	lui	x24,0x4100f
    19b0:	014504b3          	add	x9,x10,x20
    19b4:	ac9c2c23          	sw	x9,-1320(x24) # 4100ead8 <.L527+0x4100c0f0>

000019b8 <.L257>:
    19b8:	0000006f          	j	19b8 <.L257>

000019bc <.L381>:
    19bc:	00000737          	lui	x14,0x0
    19c0:	000006b7          	lui	x13,0x0
    19c4:	00070593          	mv	x11,x14
    19c8:	06b00613          	li	x12,107
    19cc:	00068513          	mv	x10,x13
    19d0:	00000097          	auipc	x1,0x0
    19d4:	000080e7          	jalr	x1 # 19d0 <.L381+0x14>
    19d8:	09c12583          	lw	x11,156(x2)
    19dc:	00000f37          	lui	x30,0x0
    19e0:	000f0513          	mv	x10,x30
    19e4:	00000097          	auipc	x1,0x0
    19e8:	000080e7          	jalr	x1 # 19e4 <.L381+0x28>
    19ec:	000005b7          	lui	x11,0x0
    19f0:	0005a383          	lw	x7,0(x11) # 0 <tensorlib_convolution_add_bias>
    19f4:	000009b7          	lui	x19,0x0
    19f8:	0009a283          	lw	x5,0(x19) # 0 <tensorlib_convolution_add_bias>
    19fc:	01039b13          	slli	x22,x7,0x10
    1a00:	4100fd37          	lui	x26,0x4100f
    1a04:	005b0cb3          	add	x25,x22,x5
    1a08:	ad9d2c23          	sw	x25,-1320(x26) # 4100ead8 <.L527+0x4100c0f0>

00001a0c <.L259>:
    1a0c:	0000006f          	j	1a0c <.L259>

00001a10 <.L385>:
    1a10:	00000a37          	lui	x20,0x0
    1a14:	00000537          	lui	x10,0x0
    1a18:	06b00613          	li	x12,107
    1a1c:	000a0593          	mv	x11,x20
    1a20:	00050513          	mv	x10,x10
    1a24:	00000097          	auipc	x1,0x0
    1a28:	000080e7          	jalr	x1 # 1a24 <.L385+0x14>
    1a2c:	0d812583          	lw	x11,216(x2)
    1a30:	000004b7          	lui	x9,0x0
    1a34:	00048513          	mv	x10,x9
    1a38:	00000097          	auipc	x1,0x0
    1a3c:	000080e7          	jalr	x1 # 1a38 <.L385+0x28>
    1a40:	00000637          	lui	x12,0x0
    1a44:	00062c03          	lw	x24,0(x12) # 0 <tensorlib_convolution_add_bias>
    1a48:	00000e37          	lui	x28,0x0
    1a4c:	000e2e83          	lw	x29,0(x28) # 0 <tensorlib_convolution_add_bias>
    1a50:	010c1313          	slli	x6,x24,0x10
    1a54:	4100f937          	lui	x18,0x4100f
    1a58:	01d30433          	add	x8,x6,x29
    1a5c:	ac892c23          	sw	x8,-1320(x18) # 4100ead8 <.L527+0x4100c0f0>

00001a60 <.L267>:
    1a60:	0000006f          	j	1a60 <.L267>

00001a64 <.L389>:
    1a64:	000d0613          	mv	x12,x26

00001a68 <.L310>:
    1a68:	00464483          	lbu	x9,4(x12)
    1a6c:	0ff4fc13          	andi	x24,x9,255
    1a70:	fe0c0ce3          	beqz	x24,1a68 <.L310>
    1a74:	00564e03          	lbu	x28,5(x12)
    1a78:	0ffe7e93          	andi	x29,x28,255
    1a7c:	fe0e86e3          	beqz	x29,1a68 <.L310>
    1a80:	00664303          	lbu	x6,6(x12)
    1a84:	0ff37713          	andi	x14,x6,255
    1a88:	fe0700e3          	beqz	x14,1a68 <.L310>
    1a8c:	00764403          	lbu	x8,7(x12)
    1a90:	0ff47913          	andi	x18,x8,255
    1a94:	fc090ae3          	beqz	x18,1a68 <.L310>
    1a98:	000008b7          	lui	x17,0x0
    1a9c:	0008a783          	lw	x15,0(x17) # 0 <tensorlib_convolution_add_bias>
    1aa0:	04412683          	lw	x13,68(x2)
    1aa4:	210403b7          	lui	x7,0x21040
    1aa8:	00c78093          	addi	x1,x15,12
    1aac:	00168f33          	add	x30,x13,x1
    1ab0:	00100593          	li	x11,1
    1ab4:	007f69b3          	or	x19,x30,x7
    1ab8:	00b98023          	sb	x11,0(x19)
    1abc:	000002b7          	lui	x5,0x0
    1ac0:	0002ab03          	lw	x22,0(x5) # 0 <tensorlib_convolution_add_bias>
    1ac4:	d2bb1ee3          	bne	x22,x11,1800 <.L321>
    1ac8:	0008a383          	lw	x7,0(x17)
    1acc:	29638663          	beq	x7,x22,1d58 <.L376>

00001ad0 <.L320>:
    1ad0:	04412b03          	lw	x22,68(x2)
    1ad4:	00100293          	li	x5,1
    1ad8:	0100006f          	j	1ae8 <.L314>

00001adc <.L391>:
    1adc:	008b0a93          	addi	x21,x22,8
    1ae0:	140aadaf          	lr.w.aq	x27,(x21)
    1ae4:	005d8863          	beq	x27,x5,1af4 <.L322>

00001ae8 <.L314>:
    1ae8:	008b0c93          	addi	x25,x22,8
    1aec:	100cad2f          	lr.w	x26,(x25)
    1af0:	fe5d16e3          	bne	x26,x5,1adc <.L391>

00001af4 <.L322>:
    1af4:	04412f83          	lw	x31,68(x2)
    1af8:	00000837          	lui	x16,0x0
    1afc:	00080b93          	mv	x23,x16
    1b00:	000fa423          	sw	x0,8(x31)
    1b04:	000f8223          	sb	x0,4(x31)
    1b08:	000f82a3          	sb	x0,5(x31)
    1b0c:	000f8323          	sb	x0,6(x31)
    1b10:	000f83a3          	sb	x0,7(x31)
    1b14:	000fa023          	sw	x0,0(x31)
    1b18:	00000313          	li	x6,0
    1b1c:	05712223          	sw	x23,68(x2)
    1b20:	20000a37          	lui	x20,0x20000
    1b24:	00100513          	li	x10,1
    1b28:	000404b7          	lui	x9,0x40
    1b2c:	00100637          	lui	x12,0x100

00001b30 <.L323>:
    1b30:	00000c37          	lui	x24,0x0
    1b34:	000c2e03          	lw	x28,0(x24) # 0 <tensorlib_convolution_add_bias>
    1b38:	006beeb3          	or	x29,x23,x6
    1b3c:	00930333          	add	x6,x6,x9
    1b40:	018e1413          	slli	x8,x28,0x18
    1b44:	01d46933          	or	x18,x8,x29
    1b48:	014968b3          	or	x17,x18,x20
    1b4c:	00a8a023          	sw	x10,0(x17)
    1b50:	fec310e3          	bne	x6,x12,1b30 <.L323>
    1b54:	cadff06f          	j	1800 <.L321>

00001b58 <.L387>:
    1b58:	00038613          	mv	x12,x7

00001b5c <.L277>:
    1b5c:	00464b83          	lbu	x23,4(x12) # 100004 <.L527+0xfd61c>
    1b60:	0ffbfc13          	andi	x24,x23,255
    1b64:	fe0c0ce3          	beqz	x24,1b5c <.L277>
    1b68:	00564e83          	lbu	x29,5(x12)
    1b6c:	0ffef693          	andi	x13,x29,255
    1b70:	fe0686e3          	beqz	x13,1b5c <.L277>
    1b74:	00664503          	lbu	x10,6(x12)
    1b78:	0ff57f13          	andi	x30,x10,255
    1b7c:	fe0f00e3          	beqz	x30,1b5c <.L277>
    1b80:	00764f83          	lbu	x31,7(x12)
    1b84:	0ffff313          	andi	x6,x31,255
    1b88:	fc030ae3          	beqz	x6,1b5c <.L277>
    1b8c:	000002b7          	lui	x5,0x0
    1b90:	0002a783          	lw	x15,0(x5) # 0 <tensorlib_convolution_add_bias>
    1b94:	04412983          	lw	x19,68(x2)
    1b98:	210403b7          	lui	x7,0x21040
    1b9c:	00c78413          	addi	x8,x15,12
    1ba0:	00898933          	add	x18,x19,x8
    1ba4:	00100493          	li	x9,1
    1ba8:	00796a33          	or	x20,x18,x7
    1bac:	009a0023          	sb	x9,0(x20) # 20000000 <.L527+0x1fffd618>
    1bb0:	00000737          	lui	x14,0x0
    1bb4:	00072a83          	lw	x21,0(x14) # 0 <tensorlib_convolution_add_bias>
    1bb8:	05512623          	sw	x21,76(x2)
    1bbc:	969a96e3          	bne	x21,x9,1528 <.L288>
    1bc0:	0002a783          	lw	x15,0(x5)
    1bc4:	23578863          	beq	x15,x21,1df4 <.L373>

00001bc8 <.L287>:
    1bc8:	04412583          	lw	x11,68(x2)
    1bcc:	00100893          	li	x17,1
    1bd0:	0100006f          	j	1be0 <.L281>

00001bd4 <.L392>:
    1bd4:	00858b93          	addi	x23,x11,8
    1bd8:	140bac2f          	lr.w.aq	x24,(x23)
    1bdc:	011c0863          	beq	x24,x17,1bec <.L289>

00001be0 <.L281>:
    1be0:	00858813          	addi	x16,x11,8
    1be4:	1008262f          	lr.w	x12,(x16)
    1be8:	ff1616e3          	bne	x12,x17,1bd4 <.L392>

00001bec <.L289>:
    1bec:	04412e83          	lw	x29,68(x2)
    1bf0:	000006b7          	lui	x13,0x0
    1bf4:	00068f13          	mv	x30,x13
    1bf8:	000ea423          	sw	x0,8(x29) # 8 <tensorlib_convolution_add_bias+0x8>
    1bfc:	000e8223          	sb	x0,4(x29)
    1c00:	000e82a3          	sb	x0,5(x29)
    1c04:	000e8323          	sb	x0,6(x29)
    1c08:	000e83a3          	sb	x0,7(x29)
    1c0c:	000ea023          	sw	x0,0(x29)
    1c10:	00000313          	li	x6,0
    1c14:	05e12223          	sw	x30,68(x2)
    1c18:	20000537          	lui	x10,0x20000
    1c1c:	00100f93          	li	x31,1
    1c20:	000402b7          	lui	x5,0x40
    1c24:	001004b7          	lui	x9,0x100

00001c28 <.L290>:
    1c28:	00000437          	lui	x8,0x0
    1c2c:	00042983          	lw	x19,0(x8) # 0 <tensorlib_convolution_add_bias>
    1c30:	006f6933          	or	x18,x30,x6
    1c34:	00530333          	add	x6,x6,x5
    1c38:	01899393          	slli	x7,x19,0x18
    1c3c:	0123ea33          	or	x20,x7,x18
    1c40:	00aa6733          	or	x14,x20,x10
    1c44:	01f72023          	sw	x31,0(x14)
    1c48:	fe9310e3          	bne	x6,x9,1c28 <.L290>
    1c4c:	00000ab7          	lui	x21,0x0
    1c50:	000aa083          	lw	x1,0(x21) # 0 <tensorlib_convolution_add_bias>
    1c54:	04112623          	sw	x1,76(x2)
    1c58:	8d1ff06f          	j	1528 <.L288>

00001c5c <.L383>:
    1c5c:	000000b7          	lui	x1,0x0
    1c60:	00000cb7          	lui	x25,0x0
    1c64:	00008593          	mv	x11,x1
    1c68:	06b00613          	li	x12,107
    1c6c:	000c8513          	mv	x10,x25
    1c70:	00000097          	auipc	x1,0x0
    1c74:	000080e7          	jalr	x1 # 1c70 <.L383+0x14>
    1c78:	06012583          	lw	x11,96(x2)
    1c7c:	00000d37          	lui	x26,0x0
    1c80:	000d0513          	mv	x10,x26
    1c84:	00000097          	auipc	x1,0x0
    1c88:	000080e7          	jalr	x1 # 1c84 <.L383+0x28>
    1c8c:	00000ab7          	lui	x21,0x0
    1c90:	000aad83          	lw	x27,0(x21) # 0 <tensorlib_convolution_add_bias>
    1c94:	00000fb7          	lui	x31,0x0
    1c98:	000fa803          	lw	x16,0(x31) # 0 <tensorlib_convolution_add_bias>
    1c9c:	010d9b93          	slli	x23,x27,0x10
    1ca0:	4100f537          	lui	x10,0x4100f
    1ca4:	010b8a33          	add	x20,x23,x16
    1ca8:	ad452c23          	sw	x20,-1320(x10) # 4100ead8 <.L527+0x4100c0f0>

00001cac <.L263>:
    1cac:	0000006f          	j	1cac <.L263>

00001cb0 <.L384>:
    1cb0:	000008b7          	lui	x17,0x0
    1cb4:	000007b7          	lui	x15,0x0
    1cb8:	00088593          	mv	x11,x17
    1cbc:	06b00613          	li	x12,107
    1cc0:	00078513          	mv	x10,x15
    1cc4:	00000097          	auipc	x1,0x0
    1cc8:	000080e7          	jalr	x1 # 1cc4 <.L384+0x14>
    1ccc:	06012583          	lw	x11,96(x2)
    1cd0:	00000737          	lui	x14,0x0
    1cd4:	00070513          	mv	x10,x14
    1cd8:	00000097          	auipc	x1,0x0
    1cdc:	000080e7          	jalr	x1 # 1cd8 <.L384+0x28>
    1ce0:	000005b7          	lui	x11,0x0
    1ce4:	0005a683          	lw	x13,0(x11) # 0 <tensorlib_convolution_add_bias>
    1ce8:	00000f37          	lui	x30,0x0
    1cec:	000f2383          	lw	x7,0(x30) # 0 <tensorlib_convolution_add_bias>
    1cf0:	01069993          	slli	x19,x13,0x10
    1cf4:	4100fb37          	lui	x22,0x4100f
    1cf8:	007982b3          	add	x5,x19,x7
    1cfc:	ac5b2c23          	sw	x5,-1320(x22) # 4100ead8 <.L527+0x4100c0f0>

00001d00 <.L265>:
    1d00:	0000006f          	j	1d00 <.L265>

00001d04 <.L386>:
    1d04:	000002b7          	lui	x5,0x0
    1d08:	000009b7          	lui	x19,0x0
    1d0c:	06b00613          	li	x12,107
    1d10:	00098593          	mv	x11,x19
    1d14:	00028513          	mv	x10,x5
    1d18:	00000097          	auipc	x1,0x0
    1d1c:	000080e7          	jalr	x1 # 1d18 <.L386+0x14>
    1d20:	0d812583          	lw	x11,216(x2)
    1d24:	00000b37          	lui	x22,0x0
    1d28:	000b0513          	mv	x10,x22
    1d2c:	00000cb7          	lui	x25,0x0
    1d30:	00000097          	auipc	x1,0x0
    1d34:	000080e7          	jalr	x1 # 1d30 <.L386+0x2c>
    1d38:	00000ab7          	lui	x21,0x0
    1d3c:	000cad03          	lw	x26,0(x25) # 0 <tensorlib_convolution_add_bias>
    1d40:	000aad83          	lw	x27,0(x21) # 0 <tensorlib_convolution_add_bias>
    1d44:	4100fbb7          	lui	x23,0x4100f
    1d48:	010d1f93          	slli	x31,x26,0x10
    1d4c:	01bf8833          	add	x16,x31,x27
    1d50:	ad0bac23          	sw	x16,-1320(x23) # 4100ead8 <.L527+0x4100c0f0>

00001d54 <.L269>:
    1d54:	0000006f          	j	1d54 <.L269>

00001d58 <.L376>:
    1d58:	04412c83          	lw	x25,68(x2)

00001d5c <.L315>:
    1d5c:	00cccd03          	lbu	x26,12(x25)
    1d60:	0ffd7a93          	andi	x21,x26,255
    1d64:	fe0a8ce3          	beqz	x21,1d5c <.L315>
    1d68:	00dccd83          	lbu	x27,13(x25)
    1d6c:	0ffdff93          	andi	x31,x27,255
    1d70:	fe0f86e3          	beqz	x31,1d5c <.L315>
    1d74:	00ecc803          	lbu	x16,14(x25)
    1d78:	0ff87b93          	andi	x23,x16,255
    1d7c:	fe0b80e3          	beqz	x23,1d5c <.L315>
    1d80:	00fcc503          	lbu	x10,15(x25)
    1d84:	0ff57a13          	andi	x20,x10,255
    1d88:	fc0a0ae3          	beqz	x20,1d5c <.L315>
    1d8c:	04412603          	lw	x12,68(x2)
    1d90:	000004b7          	lui	x9,0x0
    1d94:	00000693          	li	x13,0
    1d98:	00060623          	sb	x0,12(x12)
    1d9c:	000606a3          	sb	x0,13(x12)
    1da0:	00060723          	sb	x0,14(x12)
    1da4:	000607a3          	sb	x0,15(x12)
    1da8:	00062423          	sw	x0,8(x12)
    1dac:	00848c13          	addi	x24,x9,8 # 8 <tensorlib_convolution_add_bias+0x8>
    1db0:	03fc0e37          	lui	x28,0x3fc0
    1db4:	20000eb7          	lui	x29,0x20000
    1db8:	00100313          	li	x6,1
    1dbc:	01000437          	lui	x8,0x1000
    1dc0:	04000937          	lui	x18,0x4000

00001dc4 <.L319>:
    1dc4:	01239893          	slli	x17,x7,0x12
    1dc8:	00dc6733          	or	x14,x24,x13
    1dcc:	01c8f7b3          	and	x15,x17,x28
    1dd0:	00e7e5b3          	or	x11,x15,x14
    1dd4:	01d5e0b3          	or	x1,x11,x29
    1dd8:	0060a023          	sw	x6,0(x1)
    1ddc:	008686b3          	add	x13,x13,x8
    1de0:	00000f37          	lui	x30,0x0
    1de4:	0b269863          	bne	x13,x18,1e94 <.L393>
    1de8:	000f2983          	lw	x19,0(x30) # 0 <tensorlib_convolution_add_bias>
    1dec:	ce6982e3          	beq	x19,x6,1ad0 <.L320>
    1df0:	a11ff06f          	j	1800 <.L321>

00001df4 <.L373>:
    1df4:	04412083          	lw	x1,68(x2)

00001df8 <.L282>:
    1df8:	00c0c883          	lbu	x17,12(x1)
    1dfc:	0ff8f593          	andi	x11,x17,255
    1e00:	fe058ce3          	beqz	x11,1df8 <.L282>
    1e04:	00d0c803          	lbu	x16,13(x1)
    1e08:	0ff87613          	andi	x12,x16,255
    1e0c:	fe0606e3          	beqz	x12,1df8 <.L282>
    1e10:	00e0cb83          	lbu	x23,14(x1)
    1e14:	0ffbfc13          	andi	x24,x23,255
    1e18:	fe0c00e3          	beqz	x24,1df8 <.L282>
    1e1c:	00f0ce83          	lbu	x29,15(x1)
    1e20:	0ffef693          	andi	x13,x29,255
    1e24:	fc068ae3          	beqz	x13,1df8 <.L282>
    1e28:	04412503          	lw	x10,68(x2)
    1e2c:	00000f37          	lui	x30,0x0
    1e30:	00000a93          	li	x21,0
    1e34:	00050623          	sb	x0,12(x10)
    1e38:	000506a3          	sb	x0,13(x10)
    1e3c:	00050723          	sb	x0,14(x10)
    1e40:	000507a3          	sb	x0,15(x10)
    1e44:	00052423          	sw	x0,8(x10)
    1e48:	008f0f93          	addi	x31,x30,8 # 8 <tensorlib_convolution_add_bias+0x8>
    1e4c:	03fc02b7          	lui	x5,0x3fc0
    1e50:	200004b7          	lui	x9,0x20000
    1e54:	00100413          	li	x8,1
    1e58:	010009b7          	lui	x19,0x1000
    1e5c:	04000937          	lui	x18,0x4000

00001e60 <.L286>:
    1e60:	01279793          	slli	x15,x15,0x12
    1e64:	015fe333          	or	x6,x31,x21
    1e68:	0057f3b3          	and	x7,x15,x5
    1e6c:	0063ea33          	or	x20,x7,x6
    1e70:	009a6733          	or	x14,x20,x9
    1e74:	00872023          	sw	x8,0(x14) # 0 <tensorlib_convolution_add_bias>
    1e78:	000000b7          	lui	x1,0x0
    1e7c:	013a8ab3          	add	x21,x21,x19
    1e80:	0000a783          	lw	x15,0(x1) # 0 <tensorlib_convolution_add_bias>
    1e84:	fd2a9ee3          	bne	x21,x18,1e60 <.L286>
    1e88:	04f12623          	sw	x15,76(x2)
    1e8c:	d2878ee3          	beq	x15,x8,1bc8 <.L287>
    1e90:	e98ff06f          	j	1528 <.L288>

00001e94 <.L393>:
    1e94:	000f2383          	lw	x7,0(x30)
    1e98:	f2dff06f          	j	1dc4 <.L319>

00001e9c <tensorlib_convolution_backward_weight>:
    1e9c:	ec010113          	addi	x2,x2,-320
    1ea0:	12812c23          	sw	x8,312(x2)
    1ea4:	12912a23          	sw	x9,308(x2)
    1ea8:	00050413          	mv	x8,x10
    1eac:	00058493          	mv	x9,x11
    1eb0:	04c10513          	addi	x10,x2,76
    1eb4:	00060593          	mv	x11,x12
    1eb8:	12112e23          	sw	x1,316(x2)
    1ebc:	13212823          	sw	x18,304(x2)
    1ec0:	13312623          	sw	x19,300(x2)
    1ec4:	00070913          	mv	x18,x14
    1ec8:	00068993          	mv	x19,x13
    1ecc:	13412423          	sw	x20,296(x2)
    1ed0:	13512223          	sw	x21,292(x2)
    1ed4:	13612023          	sw	x22,288(x2)
    1ed8:	11712e23          	sw	x23,284(x2)
    1edc:	11812c23          	sw	x24,280(x2)
    1ee0:	11912a23          	sw	x25,276(x2)
    1ee4:	11a12823          	sw	x26,272(x2)
    1ee8:	11b12623          	sw	x27,268(x2)
    1eec:	00000097          	auipc	x1,0x0
    1ef0:	000080e7          	jalr	x1 # 1eec <tensorlib_convolution_backward_weight+0x50>
    1ef4:	00048593          	mv	x11,x9
    1ef8:	08810513          	addi	x10,x2,136
    1efc:	00000097          	auipc	x1,0x0
    1f00:	000080e7          	jalr	x1 # 1efc <tensorlib_convolution_backward_weight+0x60>
    1f04:	00040593          	mv	x11,x8
    1f08:	0c410513          	addi	x10,x2,196
    1f0c:	00000097          	auipc	x1,0x0
    1f10:	000080e7          	jalr	x1 # 1f0c <tensorlib_convolution_backward_weight+0x70>
    1f14:	08c12783          	lw	x15,140(x2)
    1f18:	52078e63          	beqz	x15,2454 <.L514>
    1f1c:	00100713          	li	x14,1
    1f20:	4ef77063          	bgeu	x14,x15,2400 <.L515>
    1f24:	00200693          	li	x13,2
    1f28:	5cd78a63          	beq	x15,x13,24fc <.L516>
    1f2c:	00300613          	li	x12,3
    1f30:	62c78063          	beq	x15,x12,2550 <.L517>
    1f34:	05012083          	lw	x1,80(x2)
    1f38:	56177863          	bgeu	x14,x1,24a8 <.L518>
    1f3c:	1ad088e3          	beq	x1,x13,28ec <.L519>
    1f40:	20c080e3          	beq	x1,x12,2940 <.L520>
    1f44:	0c812283          	lw	x5,200(x2)
    1f48:	6456fe63          	bgeu	x13,x5,25a4 <.L521>
    1f4c:	24c284e3          	beq	x5,x12,2994 <.L522>
    1f50:	00000337          	lui	x6,0x0
    1f54:	00000537          	lui	x10,0x0
    1f58:	00000837          	lui	x16,0x0
    1f5c:	00000a37          	lui	x20,0x0
    1f60:	00032383          	lw	x7,0(x6) # 0 <tensorlib_convolution_add_bias>
    1f64:	00052583          	lw	x11,0(x10) # 0 <tensorlib_convolution_add_bias>
    1f68:	00082883          	lw	x17,0(x16) # 0 <tensorlib_convolution_add_bias>
    1f6c:	000a2a83          	lw	x21,0(x20) # 0 <tensorlib_convolution_add_bias>
    1f70:	00000b37          	lui	x22,0x0
    1f74:	09412483          	lw	x9,148(x2)
    1f78:	000b2b83          	lw	x23,0(x22) # 0 <tensorlib_convolution_add_bias>
    1f7c:	05812783          	lw	x15,88(x2)
    1f80:	0049a083          	lw	x1,4(x19) # 1000004 <.L527+0xffd61c>
    1f84:	00492303          	lw	x6,4(x18) # 4000004 <.L527+0x3ffd61c>
    1f88:	00b38c33          	add	x24,x7,x11
    1f8c:	01588cb3          	add	x25,x17,x21
    1f90:	018c1d13          	slli	x26,x24,0x18
    1f94:	012c9d93          	slli	x27,x25,0x12
    1f98:	3f000e37          	lui	x28,0x3f000
    1f9c:	00fc0f37          	lui	x30,0xfc0
    1fa0:	00040937          	lui	x18,0x40
    1fa4:	01cd7eb3          	and	x29,x26,x28
    1fa8:	01edffb3          	and	x31,x27,x30
    1fac:	0004a883          	lw	x17,0(x9) # 20000000 <.L527+0x1fffd618>
    1fb0:	0087aa03          	lw	x20,8(x15) # 8 <tensorlib_convolution_add_bias+0x8>
    1fb4:	00c7aa83          	lw	x21,12(x15)
    1fb8:	00032b03          	lw	x22,0(x6)
    1fbc:	00432c83          	lw	x25,4(x6)
    1fc0:	0000ad83          	lw	x27,0(x1)
    1fc4:	0040ae03          	lw	x28,4(x1)
    1fc8:	004b9413          	slli	x8,x23,0x4
    1fcc:	ff090713          	addi	x14,x18,-16 # 3fff0 <.L527+0x3d608>
    1fd0:	01fee9b3          	or	x19,x29,x31
    1fd4:	0d012383          	lw	x7,208(x2)
    1fd8:	0c412683          	lw	x13,196(x2)
    1fdc:	00e47633          	and	x12,x8,x14
    1fe0:	00c9e533          	or	x10,x19,x12
    1fe4:	800005b7          	lui	x11,0x80000
    1fe8:	00b56833          	or	x16,x10,x11
    1fec:	03112623          	sw	x17,44(x2)
    1ff0:	01412e23          	sw	x20,28(x2)
    1ff4:	03512023          	sw	x21,32(x2)
    1ff8:	01612623          	sw	x22,12(x2)
    1ffc:	01912823          	sw	x25,16(x2)
    2000:	01b12a23          	sw	x27,20(x2)
    2004:	01c12c23          	sw	x28,24(x2)
    2008:	41001f37          	lui	x30,0x41001
    200c:	0044ad03          	lw	x26,4(x9)
    2010:	0084a903          	lw	x18,8(x9)
    2014:	00c4a983          	lw	x19,12(x9)
    2018:	0047ac03          	lw	x24,4(x15)
    201c:	0083ab83          	lw	x23,8(x7) # 21040008 <.L527+0x2103d620>
    2020:	00c3a483          	lw	x9,12(x7)
    2024:	fff68e93          	addi	x29,x13,-1
    2028:	d10f2623          	sw	x16,-756(x30) # 41000d0c <.L527+0x40ffe324>
    202c:	ffd00f93          	li	x31,-3
    2030:	09dfe063          	bltu	x31,x29,20b0 <.L417>
    2034:	00000437          	lui	x8,0x0
    2038:	00042783          	lw	x15,0(x8) # 0 <tensorlib_convolution_add_bias>
    203c:	0046d093          	srli	x1,x13,0x4
    2040:	00108713          	addi	x14,x1,1
    2044:	02f70333          	mul	x6,x14,x15
    2048:	00670a33          	add	x20,x14,x6
    204c:	0146f463          	bgeu	x13,x20,2054 <.L416>
    2050:	00068a13          	mv	x20,x13

00002054 <.L416>:
    2054:	05437e63          	bgeu	x6,x20,20b0 <.L417>
    2058:	0cc12a83          	lw	x21,204(x2)
    205c:	0d412b03          	lw	x22,212(x2)
    2060:	00229293          	slli	x5,x5,0x2
    2064:	005388b3          	add	x17,x7,x5

00002068 <.L419>:
    2068:	000a8613          	mv	x12,x21
    206c:	00038c93          	mv	x25,x7
    2070:	00030693          	mv	x13,x6
    2074:	00000513          	li	x10,0

00002078 <.L418>:
    2078:	000ca583          	lw	x11,0(x25)
    207c:	00062803          	lw	x16,0(x12)
    2080:	004c8c93          	addi	x25,x25,4
    2084:	02b6fdb3          	remu	x27,x13,x11
    2088:	00460613          	addi	x12,x12,4
    208c:	030d8e33          	mul	x28,x27,x16
    2090:	02b6d6b3          	divu	x13,x13,x11
    2094:	01c50533          	add	x10,x10,x28
    2098:	ff9890e3          	bne	x17,x25,2078 <.L418>
    209c:	00251e93          	slli	x29,x10,0x2
    20a0:	01db0f33          	add	x30,x22,x29
    20a4:	000f2023          	sw	x0,0(x30)
    20a8:	00130313          	addi	x6,x6,1
    20ac:	fa6a1ee3          	bne	x20,x6,2068 <.L419>

000020b0 <.L417>:
    20b0:	000003b7          	lui	x7,0x0
    20b4:	0003af83          	lw	x31,0(x7) # 0 <tensorlib_convolution_add_bias>
    20b8:	00000437          	lui	x8,0x0
    20bc:	00042083          	lw	x1,0(x8) # 0 <tensorlib_convolution_add_bias>
    20c0:	00000cb7          	lui	x25,0x0
    20c4:	004f8793          	addi	x15,x31,4
    20c8:	000c8a93          	mv	x21,x25
    20cc:	00fa8a33          	add	x20,x21,x15
    20d0:	01809713          	slli	x14,x1,0x18
    20d4:	00ea6b33          	or	x22,x20,x14
    20d8:	200402b7          	lui	x5,0x20040
    20dc:	005b68b3          	or	x17,x22,x5
    20e0:	00100593          	li	x11,1
    20e4:	00b88023          	sb	x11,0(x17) # 0 <tensorlib_convolution_add_bias>
    20e8:	0003a803          	lw	x16,0(x7)
    20ec:	03012a23          	sw	x16,52(x2)
    20f0:	5eb80263          	beq	x16,x11,26d4 <.L420>

000020f4 <.L431>:
    20f4:	00100593          	li	x11,1
    20f8:	0100006f          	j	2108 <.L435>

000020fc <.L523>:
    20fc:	000c8d93          	mv	x27,x25
    2100:	140da62f          	lr.w.aq	x12,(x27)
    2104:	00b60863          	beq	x12,x11,2114 <.L434>

00002108 <.L435>:
    2108:	000c8793          	mv	x15,x25
    210c:	1007a82f          	lr.w	x16,(x15)
    2110:	feb816e3          	bne	x16,x11,20fc <.L523>

00002114 <.L434>:
    2114:	02c12e03          	lw	x28,44(x2)
    2118:	000aa023          	sw	x0,0(x21)
    211c:	1e0e0063          	beqz	x28,22fc <.L440>
    2120:	038d06b3          	mul	x13,x26,x24
    2124:	00000413          	li	x8,0
    2128:	03768533          	mul	x10,x13,x23
    212c:	037c07b3          	mul	x15,x24,x23
    2130:	02950eb3          	mul	x29,x10,x9
    2134:	029783b3          	mul	x7,x15,x9
    2138:	004edf93          	srli	x31,x29,0x4
    213c:	fffe8093          	addi	x1,x29,-1 # 1fffffff <.L527+0x1fffd617>
    2140:	001f8a13          	addi	x20,x31,1
    2144:	03d12c23          	sw	x29,56(x2)
    2148:	02112823          	sw	x1,48(x2)
    214c:	03412e23          	sw	x20,60(x2)
    2150:	029b8333          	mul	x6,x23,x9
    2154:	02712223          	sw	x7,36(x2)
    2158:	02612423          	sw	x6,40(x2)

0000215c <.L441>:
    215c:	03012b03          	lw	x22,48(x2)
    2160:	ffd00713          	li	x14,-3
    2164:	19676663          	bltu	x14,x22,22f0 <.L443>
    2168:	000002b7          	lui	x5,0x0
    216c:	03c12583          	lw	x11,60(x2)
    2170:	0002a883          	lw	x17,0(x5) # 0 <tensorlib_convolution_add_bias>
    2174:	03812803          	lw	x16,56(x2)
    2178:	03158633          	mul	x12,x11,x17
    217c:	00c580b3          	add	x1,x11,x12
    2180:	00187463          	bgeu	x16,x1,2188 <.L442>
    2184:	00080093          	mv	x1,x16

00002188 <.L442>:
    2188:	16167463          	bgeu	x12,x1,22f0 <.L443>
    218c:	09812d83          	lw	x27,152(x2)
    2190:	05c12e03          	lw	x28,92(x2)
    2194:	0d412683          	lw	x13,212(x2)
    2198:	09012b03          	lw	x22,144(x2)
    219c:	05412f83          	lw	x31,84(x2)
    21a0:	0cc12f03          	lw	x30,204(x2)
    21a4:	01b12023          	sw	x27,0(x2)
    21a8:	01c12223          	sw	x28,4(x2)
    21ac:	00d12423          	sw	x13,8(x2)

000021b0 <.L445>:
    21b0:	02965533          	divu	x10,x12,x9
    21b4:	02412783          	lw	x15,36(x2)
    21b8:	02812383          	lw	x7,40(x2)
    21bc:	01412303          	lw	x6,20(x2)
    21c0:	00000e13          	li	x28,0
    21c4:	037572b3          	remu	x5,x10,x23
    21c8:	02f65eb3          	divu	x29,x12,x15
    21cc:	406288b3          	sub	x17,x5,x6
    21d0:	02765a33          	divu	x20,x12,x7
    21d4:	03aef833          	remu	x16,x29,x26
    21d8:	038a75b3          	remu	x11,x20,x24
    21dc:	02967533          	remu	x10,x12,x9
    21e0:	10090463          	beqz	x18,22e8 <.L447>

000021e4 <.L448>:
    21e4:	01812703          	lw	x14,24(x2)
    21e8:	00000e93          	li	x29,0
    21ec:	40e50333          	sub	x6,x10,x14
    21f0:	0e098463          	beqz	x19,22d8 <.L450>

000021f4 <.L451>:
    21f4:	0c08ca63          	bltz	x17,22c8 <.L449>
    21f8:	01c12d83          	lw	x27,28(x2)
    21fc:	0db8f663          	bgeu	x17,x27,22c8 <.L449>
    2200:	0c034463          	bltz	x6,22c8 <.L449>
    2204:	02012683          	lw	x13,32(x2)
    2208:	0cd37063          	bgeu	x6,x13,22c8 <.L449>
    220c:	004f2383          	lw	x7,4(x30)
    2210:	000f2783          	lw	x15,0(x30)
    2214:	000b2683          	lw	x13,0(x22)
    2218:	000faa03          	lw	x20,0(x31)
    221c:	00cf2d83          	lw	x27,12(x30)
    2220:	02758733          	mul	x14,x11,x7
    2224:	02f807b3          	mul	x15,x16,x15
    2228:	02d403b3          	mul	x7,x8,x13
    222c:	004b2683          	lw	x13,4(x22)
    2230:	00e787b3          	add	x15,x15,x14
    2234:	02d80733          	mul	x14,x16,x13
    2238:	004fa683          	lw	x13,4(x31)
    223c:	03440a33          	mul	x20,x8,x20
    2240:	00e383b3          	add	x7,x7,x14
    2244:	02d58733          	mul	x14,x11,x13
    2248:	03b50db3          	mul	x27,x10,x27
    224c:	00ea0733          	add	x14,x20,x14
    2250:	008b2a03          	lw	x20,8(x22)
    2254:	034e06b3          	mul	x13,x28,x20
    2258:	01b787b3          	add	x15,x15,x27
    225c:	00cb2a03          	lw	x20,12(x22)
    2260:	008fad83          	lw	x27,8(x31)
    2264:	00d383b3          	add	x7,x7,x13
    2268:	03b88db3          	mul	x27,x17,x27
    226c:	034e86b3          	mul	x13,x29,x20
    2270:	00012a03          	lw	x20,0(x2)
    2274:	01b70733          	add	x14,x14,x27
    2278:	00cfad83          	lw	x27,12(x31)
    227c:	00d383b3          	add	x7,x7,x13
    2280:	00239693          	slli	x13,x7,0x2
    2284:	00da03b3          	add	x7,x20,x13
    2288:	008f2683          	lw	x13,8(x30)
    228c:	03b30db3          	mul	x27,x6,x27
    2290:	0003a787          	flw	f15,0(x7)
    2294:	00412a03          	lw	x20,4(x2)
    2298:	02d283b3          	mul	x7,x5,x13
    229c:	01b70733          	add	x14,x14,x27
    22a0:	00271d93          	slli	x27,x14,0x2
    22a4:	00812703          	lw	x14,8(x2)
    22a8:	01ba06b3          	add	x13,x20,x27
    22ac:	0006a687          	flw	f13,0(x13)
    22b0:	007787b3          	add	x15,x15,x7
    22b4:	00279393          	slli	x7,x15,0x2
    22b8:	00770db3          	add	x27,x14,x7
    22bc:	000da707          	flw	f14,0(x27) # 0 <tensorlib_convolution_add_bias>
    22c0:	70d7f043          	fmadd.s	f0,f15,f13,f14
    22c4:	000da027          	fsw	f0,0(x27)

000022c8 <.L449>:
    22c8:	01012a03          	lw	x20,16(x2)
    22cc:	001e8e93          	addi	x29,x29,1
    22d0:	01430333          	add	x6,x6,x20
    22d4:	f3d990e3          	bne	x19,x29,21f4 <.L451>

000022d8 <.L450>:
    22d8:	00c12683          	lw	x13,12(x2)
    22dc:	001e0e13          	addi	x28,x28,1 # 3f000001 <.L527+0x3effd619>
    22e0:	00d888b3          	add	x17,x17,x13
    22e4:	f1c910e3          	bne	x18,x28,21e4 <.L448>

000022e8 <.L447>:
    22e8:	00160613          	addi	x12,x12,1
    22ec:	ecc092e3          	bne	x1,x12,21b0 <.L445>

000022f0 <.L443>:
    22f0:	02c12083          	lw	x1,44(x2)
    22f4:	00140413          	addi	x8,x8,1
    22f8:	e68092e3          	bne	x1,x8,215c <.L441>

000022fc <.L440>:
    22fc:	00000d37          	lui	x26,0x0
    2300:	000d2903          	lw	x18,0(x26) # 0 <tensorlib_convolution_add_bias>
    2304:	03412f03          	lw	x30,52(x2)
    2308:	00000b37          	lui	x22,0x0
    230c:	000009b7          	lui	x19,0x0
    2310:	00000bb7          	lui	x23,0x0
    2314:	0009ac03          	lw	x24,0(x19) # 0 <tensorlib_convolution_add_bias>
    2318:	000ba483          	lw	x9,0(x23) # 0 <tensorlib_convolution_add_bias>
    231c:	000b2f83          	lw	x31,0(x22) # 0 <tensorlib_convolution_add_bias>
    2320:	012f02b3          	add	x5,x30,x18
    2324:	00040737          	lui	x14,0x40
    2328:	01229813          	slli	x16,x5,0x12
    232c:	01f48533          	add	x10,x9,x31
    2330:	004c1593          	slli	x11,x24,0x4
    2334:	00fc07b7          	lui	x15,0xfc0
    2338:	ff070d93          	addi	x27,x14,-16 # 3fff0 <.L527+0x3d608>
    233c:	00f873b3          	and	x7,x16,x15
    2340:	01b5feb3          	and	x29,x11,x27
    2344:	01851a13          	slli	x20,x10,0x18
    2348:	3f000e37          	lui	x28,0x3f000
    234c:	01d3e333          	or	x6,x7,x29
    2350:	01ca76b3          	and	x13,x20,x28
    2354:	00d368b3          	or	x17,x6,x13
    2358:	c0000637          	lui	x12,0xc0000
    235c:	00c8e433          	or	x8,x17,x12
    2360:	410010b7          	lui	x1,0x41001
    2364:	d080a623          	sw	x8,-756(x1) # 41000d0c <.L527+0x40ffe324>
    2368:	00000d37          	lui	x26,0x0
    236c:	000d2903          	lw	x18,0(x26) # 0 <tensorlib_convolution_add_bias>
    2370:	000b2983          	lw	x19,0(x22)
    2374:	20040fb7          	lui	x31,0x20040
    2378:	00490c13          	addi	x24,x18,4
    237c:	018a8bb3          	add	x23,x21,x24
    2380:	01899493          	slli	x9,x19,0x18
    2384:	009beb33          	or	x22,x23,x9
    2388:	01fb6f33          	or	x30,x22,x31
    238c:	00100293          	li	x5,1
    2390:	005f0023          	sb	x5,0(x30)
    2394:	000d2803          	lw	x16,0(x26)
    2398:	26580063          	beq	x16,x5,25f8 <.L452>

0000239c <.L463>:
    239c:	00100513          	li	x10,1
    23a0:	0100006f          	j	23b0 <.L467>

000023a4 <.L524>:
    23a4:	000c8313          	mv	x6,x25
    23a8:	14032e2f          	lr.w.aq	x28,(x6)
    23ac:	00ae0863          	beq	x28,x10,23bc <.L466>

000023b0 <.L467>:
    23b0:	000c8793          	mv	x15,x25
    23b4:	1007a72f          	lr.w	x14,(x15)
    23b8:	fea716e3          	bne	x14,x10,23a4 <.L524>

000023bc <.L466>:
    23bc:	13c12083          	lw	x1,316(x2)
    23c0:	13812403          	lw	x8,312(x2)
    23c4:	000aa023          	sw	x0,0(x21)
    23c8:	13412483          	lw	x9,308(x2)
    23cc:	13012903          	lw	x18,304(x2)
    23d0:	12c12983          	lw	x19,300(x2)
    23d4:	12812a03          	lw	x20,296(x2)
    23d8:	12412a83          	lw	x21,292(x2)
    23dc:	12012b03          	lw	x22,288(x2)
    23e0:	11c12b83          	lw	x23,284(x2)
    23e4:	11812c03          	lw	x24,280(x2)
    23e8:	11412c83          	lw	x25,276(x2)
    23ec:	11012d03          	lw	x26,272(x2)
    23f0:	10c12d83          	lw	x27,268(x2)
    23f4:	00000513          	li	x10,0
    23f8:	14010113          	addi	x2,x2,320
    23fc:	00008067          	ret

00002400 <.L515>:
    2400:	000000b7          	lui	x1,0x0
    2404:	00000f37          	lui	x30,0x0
    2408:	00008593          	mv	x11,x1
    240c:	06b00613          	li	x12,107
    2410:	000f0513          	mv	x10,x30
    2414:	00000097          	auipc	x1,0x0
    2418:	000080e7          	jalr	x1 # 2414 <.L515+0x14>
    241c:	08c12583          	lw	x11,140(x2)
    2420:	000002b7          	lui	x5,0x0
    2424:	00028513          	mv	x10,x5
    2428:	00000097          	auipc	x1,0x0
    242c:	000080e7          	jalr	x1 # 2428 <.L515+0x28>
    2430:	00000837          	lui	x16,0x0
    2434:	00082383          	lw	x7,0(x16) # 0 <tensorlib_convolution_add_bias>
    2438:	00000db7          	lui	x27,0x0
    243c:	000dae83          	lw	x29,0(x27) # 0 <tensorlib_convolution_add_bias>
    2440:	01039a13          	slli	x20,x7,0x10
    2444:	4100f7b7          	lui	x15,0x4100f
    2448:	01da0533          	add	x10,x20,x29
    244c:	aca7ac23          	sw	x10,-1320(x15) # 4100ead8 <.L527+0x4100c0f0>

00002450 <.L398>:
    2450:	0000006f          	j	2450 <.L398>

00002454 <.L514>:
    2454:	00000737          	lui	x14,0x0
    2458:	00000337          	lui	x6,0x0
    245c:	00070593          	mv	x11,x14
    2460:	06b00613          	li	x12,107
    2464:	00030513          	mv	x10,x6
    2468:	00000097          	auipc	x1,0x0
    246c:	000080e7          	jalr	x1 # 2468 <.L514+0x14>
    2470:	08c12583          	lw	x11,140(x2)
    2474:	00000e37          	lui	x28,0x0
    2478:	000e0513          	mv	x10,x28
    247c:	00000097          	auipc	x1,0x0
    2480:	000080e7          	jalr	x1 # 247c <.L514+0x28>
    2484:	000005b7          	lui	x11,0x0
    2488:	0005ac83          	lw	x25,0(x11) # 0 <tensorlib_convolution_add_bias>
    248c:	000008b7          	lui	x17,0x0
    2490:	0008a683          	lw	x13,0(x17) # 0 <tensorlib_convolution_add_bias>
    2494:	010c9413          	slli	x8,x25,0x10
    2498:	4100f937          	lui	x18,0x4100f
    249c:	00d40d33          	add	x26,x8,x13
    24a0:	ada92c23          	sw	x26,-1320(x18) # 4100ead8 <.L527+0x4100c0f0>

000024a4 <.L396>:
    24a4:	0000006f          	j	24a4 <.L396>

000024a8 <.L518>:
    24a8:	000000b7          	lui	x1,0x0
    24ac:	00000b37          	lui	x22,0x0
    24b0:	00008593          	mv	x11,x1
    24b4:	06b00613          	li	x12,107
    24b8:	000b0513          	mv	x10,x22
    24bc:	00000097          	auipc	x1,0x0
    24c0:	000080e7          	jalr	x1 # 24bc <.L518+0x14>
    24c4:	05012583          	lw	x11,80(x2)
    24c8:	00000fb7          	lui	x31,0x0
    24cc:	000f8513          	mv	x10,x31
    24d0:	00000097          	auipc	x1,0x0
    24d4:	000080e7          	jalr	x1 # 24d0 <.L518+0x28>
    24d8:	00000f37          	lui	x30,0x0
    24dc:	000f2283          	lw	x5,0(x30) # 0 <tensorlib_convolution_add_bias>
    24e0:	00000837          	lui	x16,0x0
    24e4:	00082383          	lw	x7,0(x16) # 0 <tensorlib_convolution_add_bias>
    24e8:	01029d93          	slli	x27,x5,0x10
    24ec:	4100fa37          	lui	x20,0x4100f
    24f0:	007d8eb3          	add	x29,x27,x7
    24f4:	adda2c23          	sw	x29,-1320(x20) # 4100ead8 <.L527+0x4100c0f0>

000024f8 <.L404>:
    24f8:	0000006f          	j	24f8 <.L404>

000024fc <.L516>:
    24fc:	00000d37          	lui	x26,0x0
    2500:	00000937          	lui	x18,0x0
    2504:	06b00613          	li	x12,107
    2508:	000d0593          	mv	x11,x26
    250c:	00090513          	mv	x10,x18
    2510:	00000097          	auipc	x1,0x0
    2514:	000080e7          	jalr	x1 # 2510 <.L516+0x14>
    2518:	08c12583          	lw	x11,140(x2)
    251c:	00000637          	lui	x12,0x0
    2520:	00060513          	mv	x10,x12
    2524:	000009b7          	lui	x19,0x0
    2528:	00000097          	auipc	x1,0x0
    252c:	000080e7          	jalr	x1 # 2528 <.L516+0x2c>
    2530:	00000bb7          	lui	x23,0x0
    2534:	0009ac03          	lw	x24,0(x19) # 0 <tensorlib_convolution_add_bias>
    2538:	000baa83          	lw	x21,0(x23) # 0 <tensorlib_convolution_add_bias>
    253c:	4100ffb7          	lui	x31,0x4100f
    2540:	010c1493          	slli	x9,x24,0x10
    2544:	01548b33          	add	x22,x9,x21
    2548:	ad6fac23          	sw	x22,-1320(x31) # 4100ead8 <.L527+0x4100c0f0>

0000254c <.L400>:
    254c:	0000006f          	j	254c <.L400>

00002550 <.L517>:
    2550:	000007b7          	lui	x15,0x0
    2554:	00000537          	lui	x10,0x0
    2558:	00050593          	mv	x11,x10
    255c:	06b00613          	li	x12,107
    2560:	00078513          	mv	x10,x15
    2564:	00000097          	auipc	x1,0x0
    2568:	000080e7          	jalr	x1 # 2564 <.L517+0x14>
    256c:	08c12583          	lw	x11,140(x2)
    2570:	00000737          	lui	x14,0x0
    2574:	00070513          	mv	x10,x14
    2578:	00000097          	auipc	x1,0x0
    257c:	000080e7          	jalr	x1 # 2578 <.L517+0x28>
    2580:	000005b7          	lui	x11,0x0
    2584:	0005a303          	lw	x6,0(x11) # 0 <tensorlib_convolution_add_bias>
    2588:	00000e37          	lui	x28,0x0
    258c:	000e2c83          	lw	x25,0(x28) # 0 <tensorlib_convolution_add_bias>
    2590:	01031893          	slli	x17,x6,0x10
    2594:	4100f437          	lui	x8,0x4100f
    2598:	019886b3          	add	x13,x17,x25
    259c:	acd42c23          	sw	x13,-1320(x8) # 4100ead8 <.L527+0x4100c0f0>

000025a0 <.L402>:
    25a0:	0000006f          	j	25a0 <.L402>

000025a4 <.L521>:
    25a4:	000000b7          	lui	x1,0x0
    25a8:	00000ab7          	lui	x21,0x0
    25ac:	00008593          	mv	x11,x1
    25b0:	06b00613          	li	x12,107
    25b4:	000a8513          	mv	x10,x21
    25b8:	00000097          	auipc	x1,0x0
    25bc:	000080e7          	jalr	x1 # 25b8 <.L521+0x14>
    25c0:	0c812583          	lw	x11,200(x2)
    25c4:	000004b7          	lui	x9,0x0
    25c8:	00048513          	mv	x10,x9
    25cc:	00000097          	auipc	x1,0x0
    25d0:	000080e7          	jalr	x1 # 25cc <.L521+0x28>
    25d4:	00000b37          	lui	x22,0x0
    25d8:	000b2f83          	lw	x31,0(x22) # 0 <tensorlib_convolution_add_bias>
    25dc:	00000f37          	lui	x30,0x0
    25e0:	000f2283          	lw	x5,0(x30) # 0 <tensorlib_convolution_add_bias>
    25e4:	010f9813          	slli	x16,x31,0x10
    25e8:	4100fdb7          	lui	x27,0x4100f
    25ec:	005803b3          	add	x7,x16,x5
    25f0:	ac7dac23          	sw	x7,-1320(x27) # 4100ead8 <.L527+0x4100c0f0>

000025f4 <.L410>:
    25f4:	0000006f          	j	25f4 <.L410>

000025f8 <.L452>:
    25f8:	004ac583          	lbu	x11,4(x21) # 4 <tensorlib_convolution_add_bias+0x4>
    25fc:	0ff5f513          	andi	x10,x11,255
    2600:	fe050ce3          	beqz	x10,25f8 <.L452>
    2604:	005ac783          	lbu	x15,5(x21)
    2608:	0ff7f393          	andi	x7,x15,255
    260c:	fe0386e3          	beqz	x7,25f8 <.L452>
    2610:	006ac703          	lbu	x14,6(x21)
    2614:	0ff77d93          	andi	x27,x14,255
    2618:	fe0d80e3          	beqz	x27,25f8 <.L452>
    261c:	007ace83          	lbu	x29,7(x21)
    2620:	0ffefa13          	andi	x20,x29,255
    2624:	fc0a0ae3          	beqz	x20,25f8 <.L452>
    2628:	00000337          	lui	x6,0x0
    262c:	00032e03          	lw	x28,0(x6) # 0 <tensorlib_convolution_add_bias>
    2630:	21040437          	lui	x8,0x21040
    2634:	00100893          	li	x17,1
    2638:	00ce0693          	addi	x13,x28,12
    263c:	00da8633          	add	x12,x21,x13
    2640:	008660b3          	or	x1,x12,x8
    2644:	01108023          	sb	x17,0(x1)
    2648:	00000d37          	lui	x26,0x0
    264c:	000d2903          	lw	x18,0(x26) # 0 <tensorlib_convolution_add_bias>
    2650:	d51916e3          	bne	x18,x17,239c <.L463>
    2654:	00032403          	lw	x8,0(x6)
    2658:	17240463          	beq	x8,x18,27c0 <.L457>

0000265c <.L462>:
    265c:	00100d13          	li	x26,1
    2660:	0100006f          	j	2670 <.L456>

00002664 <.L525>:
    2664:	008a8c13          	addi	x24,x21,8
    2668:	140c2baf          	lr.w.aq	x23,(x24)
    266c:	01ab8863          	beq	x23,x26,267c <.L464>

00002670 <.L456>:
    2670:	008a8913          	addi	x18,x21,8
    2674:	100929af          	lr.w	x19,(x18)
    2678:	ffa996e3          	bne	x19,x26,2664 <.L525>

0000267c <.L464>:
    267c:	000aa423          	sw	x0,8(x21)
    2680:	000a8223          	sb	x0,4(x21)
    2684:	000a82a3          	sb	x0,5(x21)
    2688:	000a8323          	sb	x0,6(x21)
    268c:	000a83a3          	sb	x0,7(x21)
    2690:	000aa023          	sw	x0,0(x21)
    2694:	00000d93          	li	x27,0
    2698:	000c8a93          	mv	x21,x25
    269c:	200004b7          	lui	x9,0x20000
    26a0:	00100b13          	li	x22,1
    26a4:	00040fb7          	lui	x31,0x40
    26a8:	00100f37          	lui	x30,0x100

000026ac <.L465>:
    26ac:	000002b7          	lui	x5,0x0
    26b0:	0002a803          	lw	x16,0(x5) # 0 <tensorlib_convolution_add_bias>
    26b4:	01bae3b3          	or	x7,x21,x27
    26b8:	01fd8db3          	add	x27,x27,x31
    26bc:	01881e93          	slli	x29,x16,0x18
    26c0:	007ee5b3          	or	x11,x29,x7
    26c4:	0095ea33          	or	x20,x11,x9
    26c8:	016a2023          	sw	x22,0(x20)
    26cc:	ffed90e3          	bne	x27,x30,26ac <.L465>
    26d0:	ccdff06f          	j	239c <.L463>

000026d4 <.L420>:
    26d4:	004acd83          	lbu	x27,4(x21)
    26d8:	0ffdf613          	andi	x12,x27,255
    26dc:	fe060ce3          	beqz	x12,26d4 <.L420>
    26e0:	005ace03          	lbu	x28,5(x21)
    26e4:	0ffe7693          	andi	x13,x28,255
    26e8:	fe0686e3          	beqz	x13,26d4 <.L420>
    26ec:	006ac503          	lbu	x10,6(x21)
    26f0:	0ff57e93          	andi	x29,x10,255
    26f4:	fe0e80e3          	beqz	x29,26d4 <.L420>
    26f8:	007acf03          	lbu	x30,7(x21)
    26fc:	0fff7313          	andi	x6,x30,255
    2700:	fc030ae3          	beqz	x6,26d4 <.L420>
    2704:	000003b7          	lui	x7,0x0
    2708:	0003af83          	lw	x31,0(x7) # 0 <tensorlib_convolution_add_bias>
    270c:	21040a37          	lui	x20,0x21040
    2710:	00100413          	li	x8,1
    2714:	00cf8093          	addi	x1,x31,12 # 4000c <.L527+0x3d624>
    2718:	001a87b3          	add	x15,x21,x1
    271c:	0147e733          	or	x14,x15,x20
    2720:	00870023          	sb	x8,0(x14) # 0 <tensorlib_convolution_add_bias>
    2724:	00000b37          	lui	x22,0x0
    2728:	000b2283          	lw	x5,0(x22) # 0 <tensorlib_convolution_add_bias>
    272c:	02512a23          	sw	x5,52(x2)
    2730:	9c8292e3          	bne	x5,x8,20f4 <.L431>
    2734:	0003a783          	lw	x15,0(x7)
    2738:	10578e63          	beq	x15,x5,2854 <.L425>

0000273c <.L430>:
    273c:	00100813          	li	x16,1
    2740:	0100006f          	j	2750 <.L424>

00002744 <.L526>:
    2744:	008a8e13          	addi	x28,x21,8
    2748:	140e26af          	lr.w.aq	x13,(x28)
    274c:	01068863          	beq	x13,x16,275c <.L432>

00002750 <.L424>:
    2750:	008a8d93          	addi	x27,x21,8
    2754:	100da62f          	lr.w	x12,(x27)
    2758:	ff0616e3          	bne	x12,x16,2744 <.L526>

0000275c <.L432>:
    275c:	000aa423          	sw	x0,8(x21)
    2760:	000a8223          	sb	x0,4(x21)
    2764:	000a82a3          	sb	x0,5(x21)
    2768:	000a8323          	sb	x0,6(x21)
    276c:	000a83a3          	sb	x0,7(x21)
    2770:	000aa023          	sw	x0,0(x21)
    2774:	00000a13          	li	x20,0
    2778:	000c8a93          	mv	x21,x25
    277c:	20000537          	lui	x10,0x20000
    2780:	00100e93          	li	x29,1
    2784:	00040f37          	lui	x30,0x40
    2788:	001003b7          	lui	x7,0x100

0000278c <.L433>:
    278c:	00000fb7          	lui	x31,0x0
    2790:	000fa403          	lw	x8,0(x31) # 0 <tensorlib_convolution_add_bias>
    2794:	014ae0b3          	or	x1,x21,x20
    2798:	01ea0a33          	add	x20,x20,x30
    279c:	01841313          	slli	x6,x8,0x18
    27a0:	00136733          	or	x14,x6,x1
    27a4:	00a76b33          	or	x22,x14,x10
    27a8:	01db2023          	sw	x29,0(x22)
    27ac:	fe7a10e3          	bne	x20,x7,278c <.L433>
    27b0:	000002b7          	lui	x5,0x0
    27b4:	0002a883          	lw	x17,0(x5) # 0 <tensorlib_convolution_add_bias>
    27b8:	03112a23          	sw	x17,52(x2)
    27bc:	939ff06f          	j	20f4 <.L431>

000027c0 <.L457>:
    27c0:	00cac983          	lbu	x19,12(x21)
    27c4:	0ff9fc13          	andi	x24,x19,255
    27c8:	fe0c0ce3          	beqz	x24,27c0 <.L457>
    27cc:	00dacb83          	lbu	x23,13(x21)
    27d0:	0ffbf493          	andi	x9,x23,255
    27d4:	fe0486e3          	beqz	x9,27c0 <.L457>
    27d8:	00eacb03          	lbu	x22,14(x21)
    27dc:	0ffb7f93          	andi	x31,x22,255
    27e0:	fe0f80e3          	beqz	x31,27c0 <.L457>
    27e4:	00facf03          	lbu	x30,15(x21)
    27e8:	0fff7293          	andi	x5,x30,255
    27ec:	fc028ae3          	beqz	x5,27c0 <.L457>
    27f0:	000a8623          	sb	x0,12(x21)
    27f4:	000a86a3          	sb	x0,13(x21)
    27f8:	000a8723          	sb	x0,14(x21)
    27fc:	000a87a3          	sb	x0,15(x21)
    2800:	00000837          	lui	x16,0x0
    2804:	000aa423          	sw	x0,8(x21)
    2808:	00000693          	li	x13,0
    280c:	00880393          	addi	x7,x16,8 # 8 <tensorlib_convolution_add_bias+0x8>
    2810:	03fc0db7          	lui	x27,0x3fc0
    2814:	20000eb7          	lui	x29,0x20000
    2818:	00100593          	li	x11,1
    281c:	01000a37          	lui	x20,0x1000
    2820:	04000537          	lui	x10,0x4000

00002824 <.L461>:
    2824:	01241793          	slli	x15,x8,0x12
    2828:	00d3e733          	or	x14,x7,x13
    282c:	01b7f333          	and	x6,x15,x27
    2830:	00e36e33          	or	x28,x6,x14
    2834:	01de68b3          	or	x17,x28,x29
    2838:	00b8a023          	sw	x11,0(x17)
    283c:	014686b3          	add	x13,x13,x20
    2840:	00000637          	lui	x12,0x0
    2844:	1aa69263          	bne	x13,x10,29e8 <.L527>
    2848:	00062083          	lw	x1,0(x12) # 0 <tensorlib_convolution_add_bias>
    284c:	e0b088e3          	beq	x1,x11,265c <.L462>
    2850:	b4dff06f          	j	239c <.L463>

00002854 <.L425>:
    2854:	00cac883          	lbu	x17,12(x21)
    2858:	0ff8f593          	andi	x11,x17,255
    285c:	fe058ce3          	beqz	x11,2854 <.L425>
    2860:	00dac803          	lbu	x16,13(x21)
    2864:	0ff87d93          	andi	x27,x16,255
    2868:	fe0d86e3          	beqz	x27,2854 <.L425>
    286c:	00eac603          	lbu	x12,14(x21)
    2870:	0ff67e13          	andi	x28,x12,255
    2874:	fe0e00e3          	beqz	x28,2854 <.L425>
    2878:	00fac683          	lbu	x13,15(x21)
    287c:	0ff6f513          	andi	x10,x13,255
    2880:	fc050ae3          	beqz	x10,2854 <.L425>
    2884:	000a8623          	sb	x0,12(x21)
    2888:	000a86a3          	sb	x0,13(x21)
    288c:	000a8723          	sb	x0,14(x21)
    2890:	000a87a3          	sb	x0,15(x21)
    2894:	00000eb7          	lui	x29,0x0
    2898:	000aa423          	sw	x0,8(x21)
    289c:	00000893          	li	x17,0
    28a0:	008e8f13          	addi	x30,x29,8 # 8 <tensorlib_convolution_add_bias+0x8>
    28a4:	03fc03b7          	lui	x7,0x3fc0
    28a8:	20000fb7          	lui	x31,0x20000
    28ac:	00100413          	li	x8,1
    28b0:	010000b7          	lui	x1,0x1000
    28b4:	04000a37          	lui	x20,0x4000

000028b8 <.L429>:
    28b8:	01279793          	slli	x15,x15,0x12
    28bc:	011f6333          	or	x6,x30,x17
    28c0:	0077f733          	and	x14,x15,x7
    28c4:	00676b33          	or	x22,x14,x6
    28c8:	01fb62b3          	or	x5,x22,x31
    28cc:	0082a023          	sw	x8,0(x5)
    28d0:	000005b7          	lui	x11,0x0
    28d4:	001888b3          	add	x17,x17,x1
    28d8:	0005a783          	lw	x15,0(x11) # 0 <tensorlib_convolution_add_bias>
    28dc:	fd489ee3          	bne	x17,x20,28b8 <.L429>
    28e0:	02f12a23          	sw	x15,52(x2)
    28e4:	e4878ce3          	beq	x15,x8,273c <.L430>
    28e8:	80dff06f          	j	20f4 <.L431>

000028ec <.L519>:
    28ec:	000006b7          	lui	x13,0x0
    28f0:	00000437          	lui	x8,0x0
    28f4:	00068593          	mv	x11,x13
    28f8:	06b00613          	li	x12,107
    28fc:	00040513          	mv	x10,x8
    2900:	00000097          	auipc	x1,0x0
    2904:	000080e7          	jalr	x1 # 2900 <.L519+0x14>
    2908:	05012583          	lw	x11,80(x2)
    290c:	00000637          	lui	x12,0x0
    2910:	00060513          	mv	x10,x12
    2914:	00000d37          	lui	x26,0x0
    2918:	00000097          	auipc	x1,0x0
    291c:	000080e7          	jalr	x1 # 2918 <.L519+0x2c>
    2920:	000009b7          	lui	x19,0x0
    2924:	000d2903          	lw	x18,0(x26) # 0 <tensorlib_convolution_add_bias>
    2928:	0009ac03          	lw	x24,0(x19) # 0 <tensorlib_convolution_add_bias>
    292c:	4100f4b7          	lui	x9,0x4100f
    2930:	01091b93          	slli	x23,x18,0x10
    2934:	018b8ab3          	add	x21,x23,x24
    2938:	ad54ac23          	sw	x21,-1320(x9) # 4100ead8 <.L527+0x4100c0f0>

0000293c <.L406>:
    293c:	0000006f          	j	293c <.L406>

00002940 <.L520>:
    2940:	00000eb7          	lui	x29,0x0
    2944:	00000a37          	lui	x20,0x0
    2948:	000e8593          	mv	x11,x29
    294c:	06b00613          	li	x12,107
    2950:	000a0513          	mv	x10,x20
    2954:	00000097          	auipc	x1,0x0
    2958:	000080e7          	jalr	x1 # 2954 <.L520+0x14>
    295c:	05012583          	lw	x11,80(x2)
    2960:	00000537          	lui	x10,0x0
    2964:	00050513          	mv	x10,x10
    2968:	00000097          	auipc	x1,0x0
    296c:	000080e7          	jalr	x1 # 2968 <.L520+0x28>
    2970:	000005b7          	lui	x11,0x0
    2974:	0005a783          	lw	x15,0(x11) # 0 <tensorlib_convolution_add_bias>
    2978:	00000737          	lui	x14,0x0
    297c:	00072303          	lw	x6,0(x14) # 0 <tensorlib_convolution_add_bias>
    2980:	01079e13          	slli	x28,x15,0x10
    2984:	4100f8b7          	lui	x17,0x4100f
    2988:	006e0cb3          	add	x25,x28,x6
    298c:	ad98ac23          	sw	x25,-1320(x17) # 4100ead8 <.L527+0x4100c0f0>

00002990 <.L408>:
    2990:	0000006f          	j	2990 <.L408>

00002994 <.L522>:
    2994:	000008b7          	lui	x17,0x0
    2998:	00000cb7          	lui	x25,0x0
    299c:	06b00613          	li	x12,107
    29a0:	000c8593          	mv	x11,x25
    29a4:	00088513          	mv	x10,x17
    29a8:	00000097          	auipc	x1,0x0
    29ac:	000080e7          	jalr	x1 # 29a8 <.L522+0x14>
    29b0:	0c812583          	lw	x11,200(x2)
    29b4:	000006b7          	lui	x13,0x0
    29b8:	00068513          	mv	x10,x13
    29bc:	00000097          	auipc	x1,0x0
    29c0:	000080e7          	jalr	x1 # 29bc <.L522+0x28>
    29c4:	00000637          	lui	x12,0x0
    29c8:	00062403          	lw	x8,0(x12) # 0 <tensorlib_convolution_add_bias>
    29cc:	00000d37          	lui	x26,0x0
    29d0:	000d2903          	lw	x18,0(x26) # 0 <tensorlib_convolution_add_bias>
    29d4:	01041993          	slli	x19,x8,0x10
    29d8:	4100fbb7          	lui	x23,0x4100f
    29dc:	01298c33          	add	x24,x19,x18
    29e0:	ad8bac23          	sw	x24,-1320(x23) # 4100ead8 <.L527+0x4100c0f0>

000029e4 <.L412>:
    29e4:	0000006f          	j	29e4 <.L412>

000029e8 <.L527>:
    29e8:	00062403          	lw	x8,0(x12)
    29ec:	e39ff06f          	j	2824 <.L461>

Disassembly of section .rodata._ZN8HBTensorIfLl4EEC2EP11hb_tensor_t.str1.4:

00000000 <.LC0>:
   0:	726f772f          	0x726f772f
   4:	6c672f6b          	0x6c672f6b
   8:	6c61626f          	jal	x4,166ce <.L527+0x13ce6>
   c:	33726b2f          	0x33726b2f
  10:	3739                	jal	ffffff1e <.L527+0xffffd536>
  12:	2d62682f          	0x2d62682f
  16:	7970                	flw	f12,116(x10)
  18:	6f74                	flw	f13,92(x14)
  1a:	6372                	flw	f6,28(x2)
  1c:	2f68                	fld	f10,216(x14)
  1e:	6168                	flw	f10,68(x10)
  20:	6d6d                	lui	x26,0x1b
  22:	7265                	lui	x4,0xffff9
  24:	6c62                	flw	f24,24(x2)
  26:	6461                	lui	x8,0x18
  28:	2f65                	jal	7e0 <.L140>
  2a:	6f74                	flw	f13,92(x14)
  2c:	6372                	flw	f6,28(x2)
  2e:	2f68                	fld	f10,216(x14)
  30:	6e72656b          	0x6e72656b
  34:	6c65                	lui	x24,0x19
  36:	5f62682f          	0x5f62682f
  3a:	6574                	flw	f13,76(x10)
  3c:	736e                	flw	f6,248(x2)
  3e:	682e726f          	jal	x4,e76c0 <.L527+0xe4cd8>
  42:	7070                	flw	f12,100(x8)
  44:	0000                	unimp
	...

00000048 <.LC1>:
  48:	7361                	lui	x6,0xffff8
  4a:	74726573          	csrrsi	x10,0x747,4
  4e:	6620                	flw	f8,72(x12)
  50:	6961                	lui	x18,0x18
  52:	656c                	flw	f11,76(x10)
  54:	2064                	fld	f9,192(x8)
  56:	7461                	lui	x8,0xffff8
  58:	2520                	fld	f8,72(x10)
  5a:	64253a73          	csrrc	x20,0x642,x10
  5e:	0020                	addi	x8,x2,8

00000060 <.LC2>:
  60:	7265                	lui	x4,0xffff9
  62:	6f72                	flw	f30,28(x2)
  64:	3a72                	fld	f20,312(x2)
  66:	4820                	lw	x8,80(x8)
  68:	5442                	lw	x8,48(x2)
  6a:	6e65                	lui	x28,0x19
  6c:	20726f73          	csrrsi	x30,0x207,4
  70:	6964                	flw	f9,84(x10)
  72:	736d                	lui	x6,0xffffb
  74:	6420                	flw	f8,72(x8)
  76:	74276e6f          	jal	x28,767b8 <.L527+0x73dd0>
  7a:	6d20                	flw	f8,88(x10)
  7c:	7461                	lui	x8,0xffff8
  7e:	6f206863          	bltu	x0,x18,76e <.L83+0x9a>
  82:	6666                	flw	f12,88(x2)
  84:	6f6c                	flw	f11,92(x14)
  86:	6561                	lui	x10,0x18
  88:	2064                	fld	f9,192(x8)
  8a:	6574                	flw	f13,76(x10)
  8c:	736e                	flw	f6,248(x2)
  8e:	6420726f          	jal	x4,76d0 <.L527+0x4ce8>
  92:	6d69                	lui	x26,0x1a
  94:	          	ecall

Disassembly of section .text._ZN8HBTensorIfLl4EEC2EP11hb_tensor_t:

00000000 <_ZN8HBTensorIfLl4EEC1EP11hb_tensor_t>:
   0:	00058713          	mv	x14,x11
   4:	00072803          	lw	x16,0(x14)
   8:	0105a583          	lw	x11,16(x11)
   c:	00050793          	mv	x15,x10
  10:	02450693          	addi	x13,x10,36 # 18024 <.L527+0x1563c>
  14:	00400613          	li	x12,4
  18:	01450513          	addi	x10,x10,20
  1c:	0107a023          	sw	x16,0(x15) # 0 <_ZN8HBTensorIfLl4EEC1EP11hb_tensor_t>
  20:	00c7a223          	sw	x12,4(x15)
  24:	00a7a423          	sw	x10,8(x15)
  28:	00d7a623          	sw	x13,12(x15)
  2c:	00b7a823          	sw	x11,16(x15)
  30:	00068693          	mv	x13,x13
  34:	00472283          	lw	x5,4(x14)
  38:	04c29063          	bne	x5,x12,78 <.L59>
  3c:	00872303          	lw	x6,8(x14)
  40:	00c72383          	lw	x7,12(x14)
  44:	01078893          	addi	x17,x15,16
  48:	00078713          	mv	x14,x15
  4c:	40f30e33          	sub	x28,x6,x15
  50:	40f38eb3          	sub	x29,x7,x15

00000054 <.L54>:
  54:	00ee0f33          	add	x30,x28,x14
  58:	000f2f83          	lw	x31,0(x30) # 40000 <.L527+0x3d618>
  5c:	00ee85b3          	add	x11,x29,x14
  60:	00470713          	addi	x14,x14,4
  64:	01f72823          	sw	x31,16(x14)
  68:	0005a803          	lw	x16,0(x11)
  6c:	03072023          	sw	x16,32(x14)
  70:	ff1712e3          	bne	x14,x17,54 <.L54>
  74:	00008067          	ret

00000078 <.L59>:
  78:	ff010113          	addi	x2,x2,-16
  7c:	000007b7          	lui	x15,0x0
  80:	00112623          	sw	x1,12(x2)
  84:	000000b7          	lui	x1,0x0
  88:	0a900613          	li	x12,169
  8c:	00008593          	mv	x11,x1
  90:	00078513          	mv	x10,x15
  94:	00000097          	auipc	x1,0x0
  98:	000080e7          	jalr	x1 # 94 <.L59+0x1c>
  9c:	000006b7          	lui	x13,0x0
  a0:	00068513          	mv	x10,x13
  a4:	00000097          	auipc	x1,0x0
  a8:	000080e7          	jalr	x1 # a4 <.L59+0x2c>
  ac:	00000637          	lui	x12,0x0
  b0:	00062503          	lw	x10,0(x12) # 0 <_ZN8HBTensorIfLl4EEC1EP11hb_tensor_t>
  b4:	000002b7          	lui	x5,0x0
  b8:	0002a303          	lw	x6,0(x5) # 0 <_ZN8HBTensorIfLl4EEC1EP11hb_tensor_t>
  bc:	01051393          	slli	x7,x10,0x10
  c0:	4100fe37          	lui	x28,0x4100f
  c4:	006388b3          	add	x17,x7,x6
  c8:	ad1e2c23          	sw	x17,-1320(x28) # 4100ead8 <.L527+0x4100c0f0>

000000cc <.L53>:
  cc:	0000006f          	j	cc <.L53>

Disassembly of section .rodata.str1.4:

00000000 <.LC3>:
   0:	7265                	lui	x4,0xffff9
   2:	6f72                	flw	f30,28(x2)
   4:	3a72                	fld	f20,312(x2)
   6:	6420                	flw	f8,72(x8)
   8:	6d69                	lui	x26,0x1a
   a:	7365                	lui	x6,0xffff9
   c:	696e                	flw	f18,216(x2)
   e:	6d206e6f          	jal	x28,66e0 <.L527+0x3cf8>
  12:	7375                	lui	x6,0xffffd
  14:	2074                	fld	f13,192(x8)
  16:	6562                	flw	f10,24(x2)
  18:	6c20                	flw	f8,88(x8)
  1a:	7365                	lui	x6,0xffff9
  1c:	68742073          	csrs	0x687,x8
  20:	6e61                	lui	x28,0x18
  22:	2520                	fld	f8,72(x10)
  24:	0a64                	addi	x9,x2,284
	...

00000028 <.LC5>:
  28:	7265                	lui	x4,0xffff9
  2a:	6f72                	flw	f30,28(x2)
  2c:	3a72                	fld	f20,312(x2)
  2e:	4e20                	lw	x8,88(x12)
  30:	253d                	jal	65e <.L94+0x8a>
  32:	2064                	fld	f9,192(x8)
  34:	7562                	flw	f10,56(x2)
  36:	2074                	fld	f13,192(x8)
  38:	6361                	lui	x6,0x18
  3a:	73736563          	bltu	x6,x23,764 <.L83+0x90>
  3e:	6465                	lui	x8,0x19
  40:	2520                	fld	f8,72(x10)
  42:	0a64                	addi	x9,x2,284
	...

Disassembly of section .rodata._ZN8HBTensorIfLln1EEC2EP11hb_tensor_t.str1.4:

00000000 <.LC4>:
   0:	7265                	lui	x4,0xffff9
   2:	6f72                	flw	f30,28(x2)
   4:	3a72                	fld	f20,312(x2)
   6:	7420                	flw	f8,104(x8)
   8:	6e65                	lui	x28,0x19
   a:	20726f73          	csrrsi	x30,0x207,4
   e:	6964                	flw	f9,84(x10)
  10:	736d                	lui	x6,0xffffb
  12:	6920                	flw	f8,80(x10)
  14:	6f742073          	csrs	0x6f7,x8
  18:	616c206f          	j	c262e <.L527+0xbfc46>
  1c:	6772                	flw	f14,28(x2)
  1e:	0065                	c.nop	25

Disassembly of section .text._ZN8HBTensorIfLln1EEC2EP11hb_tensor_t:

00000000 <_ZN8HBTensorIfLln1EEC1EP11hb_tensor_t>:
   0:	00058713          	mv	x14,x11
   4:	0045a683          	lw	x13,4(x11)
   8:	00072803          	lw	x16,0(x14)
   c:	0105a583          	lw	x11,16(x11)
  10:	00050793          	mv	x15,x10
  14:	02850613          	addi	x12,x10,40
  18:	01450513          	addi	x10,x10,20
  1c:	0107a023          	sw	x16,0(x15) # 0 <_ZN8HBTensorIfLln1EEC1EP11hb_tensor_t>
  20:	00d7a223          	sw	x13,4(x15)
  24:	00a7a423          	sw	x10,8(x15)
  28:	00c7a623          	sw	x12,12(x15)
  2c:	00b7a823          	sw	x11,16(x15)
  30:	00060613          	mv	x12,x12
  34:	00500293          	li	x5,5
  38:	04d2e463          	bltu	x5,x13,80 <.L163>
  3c:	00872303          	lw	x6,8(x14)
  40:	00c72383          	lw	x7,12(x14)
  44:	02068c63          	beqz	x13,7c <.L151>
  48:	00269893          	slli	x17,x13,0x2
  4c:	00078713          	mv	x14,x15
  50:	01178e33          	add	x28,x15,x17
  54:	40f30eb3          	sub	x29,x6,x15
  58:	40f38f33          	sub	x30,x7,x15

0000005c <.L155>:
  5c:	00ee8fb3          	add	x31,x29,x14
  60:	000fa683          	lw	x13,0(x31) # 20000000 <.L527+0x1fffd618>
  64:	00ef05b3          	add	x11,x30,x14
  68:	00470713          	addi	x14,x14,4
  6c:	00d72823          	sw	x13,16(x14)
  70:	0005a803          	lw	x16,0(x11)
  74:	03072223          	sw	x16,36(x14)
  78:	ffc712e3          	bne	x14,x28,5c <.L155>

0000007c <.L151>:
  7c:	00008067          	ret

00000080 <.L163>:
  80:	ff010113          	addi	x2,x2,-16
  84:	000007b7          	lui	x15,0x0
  88:	00112623          	sw	x1,12(x2)
  8c:	000000b7          	lui	x1,0x0
  90:	0c700613          	li	x12,199
  94:	00008593          	mv	x11,x1
  98:	00078513          	mv	x10,x15
  9c:	00000097          	auipc	x1,0x0
  a0:	000080e7          	jalr	x1 # 9c <.L163+0x1c>
  a4:	00000637          	lui	x12,0x0
  a8:	00060513          	mv	x10,x12
  ac:	00000097          	auipc	x1,0x0
  b0:	000080e7          	jalr	x1 # ac <.L163+0x2c>
  b4:	00000537          	lui	x10,0x0
  b8:	00052283          	lw	x5,0(x10) # 0 <_ZN8HBTensorIfLln1EEC1EP11hb_tensor_t>
  bc:	00000337          	lui	x6,0x0
  c0:	00032383          	lw	x7,0(x6) # 0 <_ZN8HBTensorIfLln1EEC1EP11hb_tensor_t>
  c4:	01029893          	slli	x17,x5,0x10
  c8:	4100feb7          	lui	x29,0x4100f
  cc:	00788e33          	add	x28,x17,x7
  d0:	adceac23          	sw	x28,-1320(x29) # 4100ead8 <.L527+0x4100c0f0>

000000d4 <.L153>:
  d4:	0000006f          	j	d4 <.L153>

Disassembly of section .comment:

00000000 <.comment>:
   0:	4700                	lw	x8,8(x14)
   2:	203a4343          	fmadd.s	f6,f20,f3,f4,rmm
   6:	4728                	lw	x10,72(x14)
   8:	554e                	lw	x10,240(x2)
   a:	2029                	jal	14 <_ZN8HBTensorIfLl4EEC5EP11hb_tensor_t+0x14>
   c:	2e39                	jal	32a <tensorlib_convolution_forward+0x12>
   e:	2e32                	fld	f28,264(x2)
  10:	0030                	addi	x12,x2,8

Disassembly of section .eh_frame:

00000000 <.eh_frame>:
   0:	0010                	0x10
   2:	0000                	unimp
   4:	0000                	unimp
   6:	0000                	unimp
   8:	7a01                	lui	x20,0xfffe0
   a:	0052                	c.slli	x0,0x14
   c:	7c01                	lui	x24,0xfffe0
   e:	0101                	addi	x2,x2,0
  10:	00020d1b          	0x20d1b
  14:	0020                	addi	x8,x2,8
  16:	0000                	unimp
  18:	0018                	0x18
	...
  22:	0000                	unimp
  24:	5400                	lw	x8,40(x8)
  26:	100e                	c.slli	x0,0x23
  28:	8844                	0x8844
  2a:	0301                	addi	x6,x6,0
  2c:	0188                	addi	x10,x2,192
  2e:	c80a                	sw	x2,16(x2)
  30:	0e4c                	addi	x11,x2,788
  32:	4400                	lw	x8,8(x8)
  34:	0000000b          	0xb
  38:	0014                	0x14
  3a:	0000                	unimp
  3c:	003c                	addi	x15,x2,8
	...
  46:	0000                	unimp
  48:	0200                	addi	x8,x2,256
  4a:	0e7c                	addi	x15,x2,796
  4c:	4810                	lw	x12,16(x8)
  4e:	0181                	addi	x3,x3,0
  50:	0054                	addi	x13,x2,4
  52:	0000                	unimp
  54:	0054                	addi	x13,x2,4
	...
  5e:	0000                	unimp
  60:	4400                	lw	x8,8(x8)
  62:	a00e                	fsd	f3,0(x2)
  64:	4c02                	lw	x24,0(x2)
  66:	0389                	addi	x7,x7,2
  68:	8154                	0x8154
  6a:	8801                	andi	x8,x8,0
  6c:	9202                	jalr	x4
  6e:	5004                	lw	x9,32(x8)
  70:	06940593          	addi	x11,x8,105 # 19069 <.L527+0x16681>
  74:	9560                	0x9560
  76:	97089607          	0x97089607
  7a:	9809                	andi	x8,x8,-30
  7c:	990a                	add	x18,x18,x2
  7e:	9b0c9a0b          	0x9b0c9a0b
  82:	030d                	addi	x6,x6,3
  84:	0434                	addi	x13,x2,520
  86:	c10a                	sw	x2,128(x2)
  88:	c844                	sw	x9,20(x8)
  8a:	c948                	sw	x10,20(x10)
  8c:	d244                	sw	x9,36(x12)
  8e:	d344                	sw	x9,36(x14)
  90:	d444                	sw	x9,44(x8)
  92:	d544                	sw	x9,44(x10)
  94:	d644                	sw	x9,44(x12)
  96:	d744                	sw	x9,44(x14)
  98:	d844                	sw	x9,52(x8)
  9a:	d944                	sw	x9,52(x10)
  9c:	da44                	sw	x9,52(x12)
  9e:	db44                	sw	x9,52(x14)
  a0:	0e48                	addi	x10,x2,788
  a2:	4400                	lw	x8,8(x8)
  a4:	0000000b          	0xb
  a8:	0014                	0x14
  aa:	0000                	unimp
  ac:	00ac                	addi	x11,x2,72
	...
  b6:	0000                	unimp
  b8:	0200                	addi	x8,x2,256
  ba:	0e84                	addi	x9,x2,848
  bc:	4810                	lw	x12,16(x8)
  be:	0181                	addi	x3,x3,0
  c0:	004c                	addi	x11,x2,4
  c2:	0000                	unimp
  c4:	00c4                	addi	x9,x2,68
	...
  ce:	0000                	unimp
  d0:	4400                	lw	x8,8(x8)
  d2:	b00e                	fsd	f3,32(x2)
  d4:	4c01                	li	x24,0
  d6:	0288                	addi	x10,x2,320
  d8:	8174                	0x8174
  da:	8901                	andi	x10,x10,0
  dc:	93049203          	lh	x4,-1744(x9)
  e0:	9405                	srai	x8,x8,0x21
  e2:	9506                	add	x10,x10,x1
  e4:	97089607          	0x97089607
  e8:	9809                	andi	x8,x8,-30
  ea:	990a                	add	x18,x18,x2
  ec:	030c9a0b          	0x30c9a0b
  f0:	0268                	addi	x10,x2,268
  f2:	c10a                	sw	x2,128(x2)
  f4:	c844                	sw	x9,20(x8)
  f6:	c948                	sw	x10,20(x10)
  f8:	d244                	sw	x9,36(x12)
  fa:	d344                	sw	x9,36(x14)
  fc:	d444                	sw	x9,44(x8)
  fe:	d544                	sw	x9,44(x10)
 100:	d644                	sw	x9,44(x12)
 102:	d744                	sw	x9,44(x14)
 104:	d844                	sw	x9,52(x8)
 106:	d944                	sw	x9,52(x10)
 108:	da44                	sw	x9,52(x12)
 10a:	0e48                	addi	x10,x2,788
 10c:	4400                	lw	x8,8(x8)
 10e:	0054000b          	0x54000b
 112:	0000                	unimp
 114:	0114                	addi	x13,x2,128
	...
 11e:	0000                	unimp
 120:	4400                	lw	x8,8(x8)
 122:	d00e                	sw	x3,32(x2)
 124:	4c02                	lw	x24,0(x2)
 126:	0389                	addi	x7,x7,2
 128:	8154                	0x8154
 12a:	8801                	andi	x8,x8,0
 12c:	9202                	jalr	x4
 12e:	5004                	lw	x9,32(x8)
 130:	06940593          	addi	x11,x8,105
 134:	9560                	0x9560
 136:	97089607          	0x97089607
 13a:	9809                	andi	x8,x8,-30
 13c:	990a                	add	x18,x18,x2
 13e:	9b0c9a0b          	0x9b0c9a0b
 142:	030d                	addi	x6,x6,3
 144:	0514                	addi	x13,x2,640
 146:	c10a                	sw	x2,128(x2)
 148:	c844                	sw	x9,20(x8)
 14a:	c948                	sw	x10,20(x10)
 14c:	d244                	sw	x9,36(x12)
 14e:	d344                	sw	x9,36(x14)
 150:	d444                	sw	x9,44(x8)
 152:	d544                	sw	x9,44(x10)
 154:	d644                	sw	x9,44(x12)
 156:	d744                	sw	x9,44(x14)
 158:	d844                	sw	x9,52(x8)
 15a:	d944                	sw	x9,52(x10)
 15c:	da44                	sw	x9,52(x12)
 15e:	db44                	sw	x9,52(x14)
 160:	0e48                	addi	x10,x2,788
 162:	4400                	lw	x8,8(x8)
 164:	0000000b          	0xb
 168:	0050                	addi	x12,x2,4
 16a:	0000                	unimp
 16c:	016c                	addi	x11,x2,140
	...
 176:	0000                	unimp
 178:	4400                	lw	x8,8(x8)
 17a:	c00e                	sw	x3,0(x2)
 17c:	4802                	lw	x16,0(x2)
 17e:	0288                	addi	x10,x2,320
 180:	0389                	addi	x7,x7,2
 182:	815c                	0x815c
 184:	9201                	srli	x12,x12,0x20
 186:	9304                	0x9304
 188:	6805                	lui	x16,0x1
 18a:	0694                	addi	x13,x2,832
 18c:	0795                	addi	x15,x15,5
 18e:	0896                	slli	x17,x17,0x5
 190:	0a980997          	auipc	x19,0xa980
 194:	0b99                	addi	x23,x23,6
 196:	0c9a                	slli	x25,x25,0x6
 198:	d4030d9b          	0xd4030d9b
 19c:	0a04                	addi	x9,x2,272
 19e:	44c1                	li	x9,16
 1a0:	48c8                	lw	x10,20(x9)
 1a2:	44c9                	li	x9,18
 1a4:	44d2                	lw	x9,20(x2)
 1a6:	44d444d3          	0x44d444d3
 1aa:	44d5                	li	x9,21
 1ac:	44d6                	lw	x9,84(x2)
 1ae:	44d844d7          	0x44d844d7
 1b2:	44d9                	li	x9,22
 1b4:	44da                	lw	x9,148(x2)
 1b6:	000e48db          	0xe48db
 1ba:	0b44                	addi	x9,x2,404

Disassembly of section .riscv.attributes:

00000000 <.riscv.attributes>:
   0:	2a41                	jal	190 <.L23>
   2:	0000                	unimp
   4:	7200                	flw	f8,32(x12)
   6:	7369                	lui	x6,0xffffa
   8:	01007663          	bgeu	x0,x16,14 <.riscv.attributes+0x14>
   c:	0020                	addi	x8,x2,8
   e:	0000                	unimp
  10:	1004                	addi	x9,x2,32
  12:	7205                	lui	x4,0xfffe1
  14:	3376                	fld	f6,376(x2)
  16:	6932                	flw	f18,12(x2)
  18:	7032                	flw	f0,44(x2)
  1a:	5f30                	lw	x12,120(x14)
  1c:	326d                	jal	fffff9c6 <.L527+0xffffcfde>
  1e:	3070                	fld	f12,224(x8)
  20:	615f 7032 5f30      	0x5f307032615f
  26:	3266                	fld	f4,120(x2)
  28:	3070                	fld	f12,224(x8)
	...
