
kernel_exp.o:     file format elf32-littleriscv


Disassembly of section .group:

00000000 <_ZN8HBTensorIfLln1EEC5EP11hb_tensor_t>:
   0:	0001                	nop
   2:	0000                	unimp
   4:	00000007          	0x7
   8:	0008                	0x8
	...

Disassembly of section .text:

00000000 <tensorlib_exp>:
   0:	ef010113          	addi	x2,x2,-272
   4:	00050793          	mv	x15,x10
   8:	10812423          	sw	x8,264(x2)
   c:	02810513          	addi	x10,x2,40
  10:	00058413          	mv	x8,x11
  14:	00078593          	mv	x11,x15
  18:	10112623          	sw	x1,268(x2)
  1c:	10912223          	sw	x9,260(x2)
  20:	11212023          	sw	x18,256(x2)
  24:	0f312e23          	sw	x19,252(x2)
  28:	0f412c23          	sw	x20,248(x2)
  2c:	0f512a23          	sw	x21,244(x2)
  30:	0f612823          	sw	x22,240(x2)
  34:	0f712623          	sw	x23,236(x2)
  38:	0f812423          	sw	x24,232(x2)
  3c:	0f912223          	sw	x25,228(x2)
  40:	0fa12023          	sw	x26,224(x2)
  44:	0db12e23          	sw	x27,220(x2)
  48:	0c812627          	fsw	f8,204(x2)
  4c:	0c912427          	fsw	f9,200(x2)
  50:	0d212227          	fsw	f18,196(x2)
  54:	0d312027          	fsw	f19,192(x2)
  58:	0b412e27          	fsw	f20,188(x2)
  5c:	0b512c27          	fsw	f21,184(x2)
  60:	0b612a27          	fsw	f22,180(x2)
  64:	0b712827          	fsw	f23,176(x2)
  68:	0b812627          	fsw	f24,172(x2)
  6c:	0b912427          	fsw	f25,168(x2)
  70:	00000097          	auipc	x1,0x0
  74:	000080e7          	jalr	x1 # 70 <tensorlib_exp+0x70>
  78:	00040593          	mv	x11,x8
  7c:	06410513          	addi	x10,x2,100
  80:	00000097          	auipc	x1,0x0
  84:	000080e7          	jalr	x1 # 80 <tensorlib_exp+0x80>
  88:	00000ab7          	lui	x21,0x0
  8c:	00000b37          	lui	x22,0x0
  90:	00000a37          	lui	x20,0x0
  94:	00000bb7          	lui	x23,0x0
  98:	000aa283          	lw	x5,0(x21) # 0 <tensorlib_exp>
  9c:	000b2583          	lw	x11,0(x22) # 0 <tensorlib_exp>
  a0:	000a2703          	lw	x14,0(x20) # 0 <tensorlib_exp>
  a4:	000ba603          	lw	x12,0(x23) # 0 <tensorlib_exp>
  a8:	000009b7          	lui	x19,0x0
  ac:	0009a683          	lw	x13,0(x19) # 0 <tensorlib_exp>
  b0:	00b28333          	add	x6,x5,x11
  b4:	00c703b3          	add	x7,x14,x12
  b8:	00040db7          	lui	x27,0x40
  bc:	01831493          	slli	x9,x6,0x18
  c0:	01239513          	slli	x10,x7,0x12
  c4:	3f000837          	lui	x16,0x3f000
  c8:	00fc0937          	lui	x18,0xfc0
  cc:	00469c93          	slli	x25,x13,0x4
  d0:	ff0d8e13          	addi	x28,x27,-16 # 3fff0 <.L90+0x3f8b4>
  d4:	0104f8b3          	and	x17,x9,x16
  d8:	01257c33          	and	x24,x10,x18
  dc:	0188ed33          	or	x26,x17,x24
  e0:	01ccfeb3          	and	x29,x25,x28
  e4:	01dd6f33          	or	x30,x26,x29
  e8:	02812f83          	lw	x31,40(x2)
  ec:	800007b7          	lui	x15,0x80000
  f0:	00ff6433          	or	x8,x30,x15
  f4:	410012b7          	lui	x5,0x41001
  f8:	d082a623          	sw	x8,-756(x5) # 41000d0c <.L90+0x410005d0>
  fc:	fff00593          	li	x11,-1
 100:	02c12d83          	lw	x27,44(x2)
 104:	03012d03          	lw	x26,48(x2)
 108:	03812703          	lw	x14,56(x2)
 10c:	06c12c83          	lw	x25,108(x2)
 110:	07412683          	lw	x13,116(x2)
 114:	10bf8263          	beq	x31,x11,218 <.L21>
 118:	100f8063          	beqz	x31,218 <.L21>
 11c:	000000b7          	lui	x1,0x0
 120:	0000a603          	lw	x12,0(x1) # 0 <tensorlib_exp>
 124:	004fd313          	srli	x6,x31,0x4
 128:	00130393          	addi	x7,x6,1
 12c:	02c38c33          	mul	x24,x7,x12
 130:	01838433          	add	x8,x7,x24
 134:	368fea63          	bltu	x31,x8,4a8 <.L86>

00000138 <.L17>:
 138:	0e8c7063          	bgeu	x24,x8,218 <.L21>
 13c:	00100493          	li	x9,1
 140:	369d8863          	beq	x27,x9,4b0 <.L87>
 144:	06812503          	lw	x10,104(x2)
 148:	07012803          	lw	x16,112(x2)
 14c:	03412883          	lw	x17,52(x2)
 150:	00251913          	slli	x18,x10,0x2
 154:	002d9e13          	slli	x28,x27,0x2
 158:	00a12a23          	sw	x10,20(x2)
 15c:	01012c23          	sw	x16,24(x2)
 160:	01112e23          	sw	x17,28(x2)
 164:	01090933          	add	x18,x18,x16
 168:	011e04b3          	add	x9,x28,x17

0000016c <.L32>:
 16c:	01412e83          	lw	x29,20(x2)
 170:	320e8863          	beqz	x29,4a0 <.L54>
 174:	01812583          	lw	x11,24(x2)
 178:	000c8613          	mv	x12,x25
 17c:	000c0393          	mv	x7,x24
 180:	00000793          	li	x15,0

00000184 <.L29>:
 184:	0005af83          	lw	x31,0(x11)
 188:	00062283          	lw	x5,0(x12)
 18c:	00458593          	addi	x11,x11,4
 190:	03f3f0b3          	remu	x1,x7,x31
 194:	00460613          	addi	x12,x12,4
 198:	02508333          	mul	x6,x1,x5
 19c:	03f3d3b3          	divu	x7,x7,x31
 1a0:	006787b3          	add	x15,x15,x6
 1a4:	feb910e3          	bne	x18,x11,184 <.L29>
 1a8:	00279513          	slli	x10,x15,0x2
 1ac:	00a68f33          	add	x30,x13,x10

000001b0 <.L28>:
 1b0:	000f2507          	flw	f10,0(x30)
 1b4:	00d12823          	sw	x13,16(x2)
 1b8:	00e12623          	sw	x14,12(x2)
 1bc:	00000097          	auipc	x1,0x0
 1c0:	000080e7          	jalr	x1 # 1bc <.L28+0xc>
 1c4:	00c12703          	lw	x14,12(x2)
 1c8:	01012683          	lw	x13,16(x2)
 1cc:	2c0d8663          	beqz	x27,498 <.L55>
 1d0:	01c12f83          	lw	x31,28(x2)
 1d4:	000d0293          	mv	x5,x26
 1d8:	000c0893          	mv	x17,x24
 1dc:	00000093          	li	x1,0

000001e0 <.L31>:
 1e0:	000fae83          	lw	x29,0(x31)
 1e4:	0002af03          	lw	x30,0(x5)
 1e8:	004f8f93          	addi	x31,x31,4
 1ec:	00428293          	addi	x5,x5,4
 1f0:	03d8fe33          	remu	x28,x17,x29
 1f4:	03ee05b3          	mul	x11,x28,x30
 1f8:	03d8d8b3          	divu	x17,x17,x29
 1fc:	00b080b3          	add	x1,x1,x11
 200:	fff490e3          	bne	x9,x31,1e0 <.L31>
 204:	00209613          	slli	x12,x1,0x2
 208:	00c70833          	add	x16,x14,x12

0000020c <.L30>:
 20c:	00a82027          	fsw	f10,0(x16) # 3f000000 <.L90+0x3efff8c4>
 210:	001c0c13          	addi	x24,x24,1
 214:	f5841ce3          	bne	x8,x24,16c <.L32>

00000218 <.L21>:
 218:	000aa403          	lw	x8,0(x21)
 21c:	000a2a03          	lw	x20,0(x20)
 220:	000b2a83          	lw	x21,0(x22)
 224:	000baf83          	lw	x31,0(x23)
 228:	0009a983          	lw	x19,0(x19)
 22c:	01540f33          	add	x30,x8,x21
 230:	01fa03b3          	add	x7,x20,x31
 234:	018f1e13          	slli	x28,x30,0x18
 238:	01239313          	slli	x6,x7,0x12
 23c:	3f0007b7          	lui	x15,0x3f000
 240:	00fc0837          	lui	x16,0xfc0
 244:	000400b7          	lui	x1,0x40
 248:	00fe78b3          	and	x17,x28,x15
 24c:	00499513          	slli	x10,x19,0x4
 250:	01037eb3          	and	x29,x6,x16
 254:	ff008293          	addi	x5,x1,-16 # 3fff0 <.L90+0x3f8b4>
 258:	01d8ed33          	or	x26,x17,x29
 25c:	00557933          	and	x18,x10,x5
 260:	012d64b3          	or	x9,x26,x18
 264:	c0000db7          	lui	x27,0xc0000
 268:	01b4e5b3          	or	x11,x9,x27
 26c:	410016b7          	lui	x13,0x41001
 270:	d0b6a623          	sw	x11,-756(x13) # 41000d0c <.L90+0x410005d0>
 274:	000ba703          	lw	x14,0(x23)
 278:	000b2c03          	lw	x24,0(x22)
 27c:	00000cb7          	lui	x25,0x0
 280:	00470613          	addi	x12,x14,4
 284:	000c8793          	mv	x15,x25
 288:	00c78433          	add	x8,x15,x12
 28c:	018c1a93          	slli	x21,x24,0x18
 290:	01546a33          	or	x20,x8,x21
 294:	20040fb7          	lui	x31,0x20040
 298:	01fa69b3          	or	x19,x20,x31
 29c:	00100f13          	li	x30,1
 2a0:	01e98023          	sb	x30,0(x19)
 2a4:	000ba383          	lw	x7,0(x23)
 2a8:	09e38863          	beq	x7,x30,338 <.L34>

000002ac <.L46>:
 2ac:	00100b13          	li	x22,1
 2b0:	0100006f          	j	2c0 <.L50>

000002b4 <.L88>:
 2b4:	000c8813          	mv	x16,x25
 2b8:	1408272f          	lr.w.aq	x14,(x16)
 2bc:	01670863          	beq	x14,x22,2cc <.L49>

000002c0 <.L50>:
 2c0:	000c8513          	mv	x10,x25
 2c4:	100528af          	lr.w	x17,(x10)
 2c8:	ff6896e3          	bne	x17,x22,2b4 <.L88>

000002cc <.L49>:
 2cc:	10c12083          	lw	x1,268(x2)
 2d0:	10812403          	lw	x8,264(x2)
 2d4:	0007a023          	sw	x0,0(x15) # 3f000000 <.L90+0x3efff8c4>
 2d8:	10412483          	lw	x9,260(x2)
 2dc:	10012903          	lw	x18,256(x2)
 2e0:	0fc12983          	lw	x19,252(x2)
 2e4:	0f812a03          	lw	x20,248(x2)
 2e8:	0f412a83          	lw	x21,244(x2)
 2ec:	0f012b03          	lw	x22,240(x2)
 2f0:	0ec12b83          	lw	x23,236(x2)
 2f4:	0e812c03          	lw	x24,232(x2)
 2f8:	0e412c83          	lw	x25,228(x2)
 2fc:	0e012d03          	lw	x26,224(x2)
 300:	0dc12d83          	lw	x27,220(x2)
 304:	0cc12407          	flw	f8,204(x2)
 308:	0c812487          	flw	f9,200(x2)
 30c:	0c412907          	flw	f18,196(x2)
 310:	0c012987          	flw	f19,192(x2)
 314:	0bc12a07          	flw	f20,188(x2)
 318:	0b812a87          	flw	f21,184(x2)
 31c:	0b412b07          	flw	f22,180(x2)
 320:	0b012b87          	flw	f23,176(x2)
 324:	0ac12c07          	flw	f24,172(x2)
 328:	0a812c87          	flw	f25,168(x2)
 32c:	00000513          	li	x10,0
 330:	11010113          	addi	x2,x2,272
 334:	00008067          	ret

00000338 <.L34>:
 338:	0047ce03          	lbu	x28,4(x15)
 33c:	0ffe7313          	andi	x6,x28,255
 340:	fe030ce3          	beqz	x6,338 <.L34>
 344:	0057c883          	lbu	x17,5(x15)
 348:	0ff8f813          	andi	x16,x17,255
 34c:	fe0806e3          	beqz	x16,338 <.L34>
 350:	0067ce83          	lbu	x29,6(x15)
 354:	0ffef513          	andi	x10,x29,255
 358:	fe0500e3          	beqz	x10,338 <.L34>
 35c:	0077cd03          	lbu	x26,7(x15)
 360:	0ffd7093          	andi	x1,x26,255
 364:	fc008ae3          	beqz	x1,338 <.L34>
 368:	000b2283          	lw	x5,0(x22)
 36c:	210405b7          	lui	x11,0x21040
 370:	00100913          	li	x18,1
 374:	00c28493          	addi	x9,x5,12
 378:	00978db3          	add	x27,x15,x9
 37c:	00bde6b3          	or	x13,x27,x11
 380:	01268023          	sb	x18,0(x13)
 384:	000bac03          	lw	x24,0(x23)
 388:	f32c12e3          	bne	x24,x18,2ac <.L46>
 38c:	000b2583          	lw	x11,0(x22)
 390:	07858c63          	beq	x11,x24,408 <.L40>

00000394 <.L45>:
 394:	00100b93          	li	x23,1
 398:	0100006f          	j	3a8 <.L39>

0000039c <.L89>:
 39c:	00878613          	addi	x12,x15,8
 3a0:	1406242f          	lr.w.aq	x8,(x12)
 3a4:	01740863          	beq	x8,x23,3b4 <.L47>

000003a8 <.L39>:
 3a8:	00878693          	addi	x13,x15,8
 3ac:	1006ac2f          	lr.w	x24,(x13)
 3b0:	ff7c16e3          	bne	x24,x23,39c <.L89>

000003b4 <.L47>:
 3b4:	0007a423          	sw	x0,8(x15)
 3b8:	00078223          	sb	x0,4(x15)
 3bc:	000782a3          	sb	x0,5(x15)
 3c0:	00078323          	sb	x0,6(x15)
 3c4:	000783a3          	sb	x0,7(x15)
 3c8:	0007a023          	sw	x0,0(x15)
 3cc:	00000e13          	li	x28,0
 3d0:	000c8793          	mv	x15,x25
 3d4:	20000ab7          	lui	x21,0x20000
 3d8:	00100a13          	li	x20,1
 3dc:	00040fb7          	lui	x31,0x40
 3e0:	001009b7          	lui	x19,0x100

000003e4 <.L48>:
 3e4:	000b2f03          	lw	x30,0(x22)
 3e8:	01c7e3b3          	or	x7,x15,x28
 3ec:	01fe0e33          	add	x28,x28,x31
 3f0:	018f1d13          	slli	x26,x30,0x18
 3f4:	007d60b3          	or	x1,x26,x7
 3f8:	0150e333          	or	x6,x1,x21
 3fc:	01432023          	sw	x20,0(x6)
 400:	ff3e12e3          	bne	x28,x19,3e4 <.L48>
 404:	ea9ff06f          	j	2ac <.L46>

00000408 <.L40>:
 408:	00c7c603          	lbu	x12,12(x15)
 40c:	0ff67413          	andi	x8,x12,255
 410:	fe040ce3          	beqz	x8,408 <.L40>
 414:	00d7ca83          	lbu	x21,13(x15)
 418:	0ffafa13          	andi	x20,x21,255
 41c:	fe0a06e3          	beqz	x20,408 <.L40>
 420:	00e7cf83          	lbu	x31,14(x15)
 424:	0ffff993          	andi	x19,x31,255
 428:	fe0980e3          	beqz	x19,408 <.L40>
 42c:	00f7cf03          	lbu	x30,15(x15)
 430:	0fff7393          	andi	x7,x30,255
 434:	fc038ae3          	beqz	x7,408 <.L40>
 438:	00078623          	sb	x0,12(x15)
 43c:	000786a3          	sb	x0,13(x15)
 440:	00078723          	sb	x0,14(x15)
 444:	000787a3          	sb	x0,15(x15)
 448:	00000e37          	lui	x28,0x0
 44c:	0007a423          	sw	x0,8(x15)
 450:	00000d93          	li	x27,0
 454:	008e0d13          	addi	x26,x28,8 # 8 <tensorlib_exp+0x8>
 458:	03fc00b7          	lui	x1,0x3fc0
 45c:	20000337          	lui	x6,0x20000
 460:	00100513          	li	x10,1
 464:	010008b7          	lui	x17,0x1000
 468:	04000837          	lui	x16,0x4000

0000046c <.L44>:
 46c:	01259713          	slli	x14,x11,0x12
 470:	01bd6eb3          	or	x29,x26,x27
 474:	001772b3          	and	x5,x14,x1
 478:	01d2e933          	or	x18,x5,x29
 47c:	006964b3          	or	x9,x18,x6
 480:	00a4a023          	sw	x10,0(x9)
 484:	011d8db3          	add	x27,x27,x17
 488:	000ba583          	lw	x11,0(x23)
 48c:	ff0d90e3          	bne	x27,x16,46c <.L44>
 490:	f0a582e3          	beq	x11,x10,394 <.L45>
 494:	e19ff06f          	j	2ac <.L46>

00000498 <.L55>:
 498:	00070813          	mv	x16,x14
 49c:	d71ff06f          	j	20c <.L30>

000004a0 <.L54>:
 4a0:	00068f13          	mv	x30,x13
 4a4:	d0dff06f          	j	1b0 <.L28>

000004a8 <.L86>:
 4a8:	000f8413          	mv	x8,x31
 4ac:	c8dff06f          	j	138 <.L17>

000004b0 <.L87>:
 4b0:	00ac0513          	addi	x10,x24,10
 4b4:	000d2d83          	lw	x27,0(x26)
 4b8:	000ca583          	lw	x11,0(x25) # 0 <tensorlib_exp>
 4bc:	28857063          	bgeu	x10,x8,73c <.L90>
 4c0:	003d9c93          	slli	x25,x27,0x3
 4c4:	01bc84b3          	add	x9,x25,x27
 4c8:	00359d13          	slli	x26,x11,0x3
 4cc:	00249793          	slli	x15,x9,0x2
 4d0:	00bd0933          	add	x18,x26,x11
 4d4:	40b00333          	neg	x6,x11
 4d8:	41b003b3          	neg	x7,x27
 4dc:	00f12e23          	sw	x15,28(x2)
 4e0:	00100493          	li	x9,1
 4e4:	00291913          	slli	x18,x18,0x2
 4e8:	00231d13          	slli	x26,x6,0x2
 4ec:	00239c93          	slli	x25,x7,0x2
 4f0:	12959a63          	bne	x11,x9,624 <.L22>

000004f4 <.L92>:
 4f4:	002c1813          	slli	x16,x24,0x2
 4f8:	01068eb3          	add	x29,x13,x16
 4fc:	024ea507          	flw	f10,36(x29)
 500:	020eab87          	flw	f23,32(x29)
 504:	01ceab07          	flw	f22,28(x29)
 508:	018eaa87          	flw	f21,24(x29)
 50c:	014eaa07          	flw	f20,20(x29)
 510:	010ea987          	flw	f19,16(x29)
 514:	00cea907          	flw	f18,12(x29)
 518:	008ea487          	flw	f9,8(x29)
 51c:	004ea407          	flw	f8,4(x29)
 520:	000eac87          	flw	f25,0(x29)

00000524 <.L23>:
 524:	00b12c23          	sw	x11,24(x2)
 528:	00d12823          	sw	x13,16(x2)
 52c:	00e12623          	sw	x14,12(x2)
 530:	00a12a23          	sw	x10,20(x2)
 534:	00000097          	auipc	x1,0x0
 538:	000080e7          	jalr	x1 # 534 <.L23+0x10>
 53c:	20a50c53          	fmv.s	f24,f10
 540:	217b8553          	fmv.s	f10,f23
 544:	00000097          	auipc	x1,0x0
 548:	000080e7          	jalr	x1 # 544 <.L23+0x20>
 54c:	20a50bd3          	fmv.s	f23,f10
 550:	216b0553          	fmv.s	f10,f22
 554:	00000097          	auipc	x1,0x0
 558:	000080e7          	jalr	x1 # 554 <.L23+0x30>
 55c:	20a50b53          	fmv.s	f22,f10
 560:	215a8553          	fmv.s	f10,f21
 564:	00000097          	auipc	x1,0x0
 568:	000080e7          	jalr	x1 # 564 <.L23+0x40>
 56c:	20a50ad3          	fmv.s	f21,f10
 570:	214a0553          	fmv.s	f10,f20
 574:	00000097          	auipc	x1,0x0
 578:	000080e7          	jalr	x1 # 574 <.L23+0x50>
 57c:	20a50a53          	fmv.s	f20,f10
 580:	21398553          	fmv.s	f10,f19
 584:	00000097          	auipc	x1,0x0
 588:	000080e7          	jalr	x1 # 584 <.L23+0x60>
 58c:	20a509d3          	fmv.s	f19,f10
 590:	21290553          	fmv.s	f10,f18
 594:	00000097          	auipc	x1,0x0
 598:	000080e7          	jalr	x1 # 594 <.L23+0x70>
 59c:	20a50953          	fmv.s	f18,f10
 5a0:	20948553          	fmv.s	f10,f9
 5a4:	00000097          	auipc	x1,0x0
 5a8:	000080e7          	jalr	x1 # 5a4 <.L23+0x80>
 5ac:	20a504d3          	fmv.s	f9,f10
 5b0:	20840553          	fmv.s	f10,f8
 5b4:	00000097          	auipc	x1,0x0
 5b8:	000080e7          	jalr	x1 # 5b4 <.L23+0x90>
 5bc:	20a50453          	fmv.s	f8,f10
 5c0:	219c8553          	fmv.s	f10,f25
 5c4:	00000097          	auipc	x1,0x0
 5c8:	000080e7          	jalr	x1 # 5c4 <.L23+0xa0>
 5cc:	00c12703          	lw	x14,12(x2)
 5d0:	01012683          	lw	x13,16(x2)
 5d4:	01412603          	lw	x12,20(x2)
 5d8:	01812583          	lw	x11,24(x2)
 5dc:	0a9d9263          	bne	x27,x9,680 <.L24>
 5e0:	002c1c13          	slli	x24,x24,0x2
 5e4:	01870533          	add	x10,x14,x24
 5e8:	03852227          	fsw	f24,36(x10)
 5ec:	03752027          	fsw	f23,32(x10)
 5f0:	01652e27          	fsw	f22,28(x10)
 5f4:	01552c27          	fsw	f21,24(x10)
 5f8:	01452a27          	fsw	f20,20(x10)
 5fc:	01352827          	fsw	f19,16(x10)
 600:	01252627          	fsw	f18,12(x10)
 604:	00952427          	fsw	f9,8(x10)
 608:	00852227          	fsw	f8,4(x10)
 60c:	00a52027          	fsw	f10,0(x10)
 610:	00a60093          	addi	x1,x12,10
 614:	00060c13          	mv	x24,x12
 618:	0c80f863          	bgeu	x1,x8,6e8 <.L91>

0000061c <.L53>:
 61c:	00008513          	mv	x10,x1
 620:	ec958ae3          	beq	x11,x9,4f4 <.L92>

00000624 <.L22>:
 624:	03858833          	mul	x16,x11,x24
 628:	00281e93          	slli	x29,x16,0x2
 62c:	01d680b3          	add	x1,x13,x29
 630:	01208633          	add	x12,x1,x18
 634:	01a602b3          	add	x5,x12,x26
 638:	01a28fb3          	add	x31,x5,x26
 63c:	01af8f33          	add	x30,x31,x26
 640:	01af03b3          	add	x7,x30,x26
 644:	01a38e33          	add	x28,x7,x26
 648:	01ae0333          	add	x6,x28,x26
 64c:	01a307b3          	add	x15,x6,x26
 650:	01a788b3          	add	x17,x15,x26
 654:	00062507          	flw	f10,0(x12)
 658:	0002ab87          	flw	f23,0(x5)
 65c:	000fab07          	flw	f22,0(x31) # 40000 <.L90+0x3f8c4>
 660:	000f2a87          	flw	f21,0(x30)
 664:	0003aa07          	flw	f20,0(x7)
 668:	000e2987          	flw	f19,0(x28)
 66c:	00032907          	flw	f18,0(x6) # 20000000 <.L90+0x1ffff8c4>
 670:	0007a487          	flw	f9,0(x15)
 674:	0008a407          	flw	f8,0(x17) # 1000000 <.L90+0xfff8c4>
 678:	0000ac87          	flw	f25,0(x1)
 67c:	ea9ff06f          	j	524 <.L23>

00000680 <.L24>:
 680:	038d8c33          	mul	x24,x27,x24
 684:	01c12283          	lw	x5,28(x2)
 688:	002c1513          	slli	x10,x24,0x2
 68c:	00a700b3          	add	x1,x14,x10
 690:	00508fb3          	add	x31,x1,x5
 694:	018fa027          	fsw	f24,0(x31)
 698:	019f8f33          	add	x30,x31,x25
 69c:	017f2027          	fsw	f23,0(x30)
 6a0:	019f03b3          	add	x7,x30,x25
 6a4:	0163a027          	fsw	f22,0(x7)
 6a8:	01938e33          	add	x28,x7,x25
 6ac:	015e2027          	fsw	f21,0(x28)
 6b0:	019e0333          	add	x6,x28,x25
 6b4:	01432027          	fsw	f20,0(x6)
 6b8:	019307b3          	add	x15,x6,x25
 6bc:	0137a027          	fsw	f19,0(x15)
 6c0:	019788b3          	add	x17,x15,x25
 6c4:	0128a027          	fsw	f18,0(x17)
 6c8:	01988833          	add	x16,x17,x25
 6cc:	00982027          	fsw	f9,0(x16) # 4000000 <.L90+0x3fff8c4>
 6d0:	01980eb3          	add	x29,x16,x25
 6d4:	008ea027          	fsw	f8,0(x29)
 6d8:	00a0a027          	fsw	f10,0(x1)
 6dc:	00a60093          	addi	x1,x12,10
 6e0:	00060c13          	mv	x24,x12
 6e4:	f280ece3          	bltu	x1,x8,61c <.L53>

000006e8 <.L91>:
 6e8:	b28678e3          	bgeu	x12,x8,218 <.L21>

000006ec <.L20>:
 6ec:	02c582b3          	mul	x5,x11,x12
 6f0:	002d9493          	slli	x9,x27,0x2
 6f4:	00259913          	slli	x18,x11,0x2
 6f8:	02cd8db3          	mul	x27,x27,x12
 6fc:	00229593          	slli	x11,x5,0x2
 700:	00b68c33          	add	x24,x13,x11
 704:	002d9693          	slli	x13,x27,0x2
 708:	00d70cb3          	add	x25,x14,x13

0000070c <.L27>:
 70c:	000c2507          	flw	f10,0(x24)
 710:	00160713          	addi	x14,x12,1
 714:	00e12623          	sw	x14,12(x2)
 718:	00e12823          	sw	x14,16(x2)
 71c:	00000097          	auipc	x1,0x0
 720:	000080e7          	jalr	x1 # 71c <.L27+0x10>
 724:	00c12603          	lw	x12,12(x2)
 728:	00aca027          	fsw	f10,0(x25)
 72c:	012c0c33          	add	x24,x24,x18
 730:	009c8cb3          	add	x25,x25,x9
 734:	fcc41ce3          	bne	x8,x12,70c <.L27>
 738:	ae1ff06f          	j	218 <.L21>

0000073c <.L90>:
 73c:	000c0613          	mv	x12,x24
 740:	fadff06f          	j	6ec <.L20>

Disassembly of section .rodata._ZN8HBTensorIfLln1EEC2EP11hb_tensor_t.str1.4:

00000000 <.LC0>:
   0:	726f772f          	0x726f772f
   4:	6c672f6b          	0x6c672f6b
   8:	6c61626f          	jal	x4,166ce <.L90+0x15f92>
   c:	33726b2f          	0x33726b2f
  10:	3739                	jal	ffffff1e <.L90+0xfffff7e2>
  12:	2d62682f          	0x2d62682f
  16:	7970                	flw	f12,116(x10)
  18:	6f74                	flw	f13,92(x14)
  1a:	6372                	flw	f6,28(x2)
  1c:	2f68                	fld	f10,216(x14)
  1e:	6168                	flw	f10,68(x10)
  20:	6d6d                	lui	x26,0x1b
  22:	7265                	lui	x4,0xffff9
  24:	6c62                	flw	f24,24(x2)
  26:	6461                	lui	x8,0x18
  28:	2f65                	jal	7e0 <.L90+0xa4>
  2a:	6f74                	flw	f13,92(x14)
  2c:	6372                	flw	f6,28(x2)
  2e:	2f68                	fld	f10,216(x14)
  30:	6e72656b          	0x6e72656b
  34:	6c65                	lui	x24,0x19
  36:	5f62682f          	0x5f62682f
  3a:	6574                	flw	f13,76(x10)
  3c:	736e                	flw	f6,248(x2)
  3e:	682e726f          	jal	x4,e76c0 <.L90+0xe6f84>
  42:	7070                	flw	f12,100(x8)
  44:	0000                	unimp
	...

00000048 <.LC1>:
  48:	7361                	lui	x6,0xffff8
  4a:	74726573          	csrrsi	x10,0x747,4
  4e:	6620                	flw	f8,72(x12)
  50:	6961                	lui	x18,0x18
  52:	656c                	flw	f11,76(x10)
  54:	2064                	fld	f9,192(x8)
  56:	7461                	lui	x8,0xffff8
  58:	2520                	fld	f8,72(x10)
  5a:	64253a73          	csrrc	x20,0x642,x10
  5e:	0020                	addi	x8,x2,8

00000060 <.LC2>:
  60:	7265                	lui	x4,0xffff9
  62:	6f72                	flw	f30,28(x2)
  64:	3a72                	fld	f20,312(x2)
  66:	7420                	flw	f8,104(x8)
  68:	6e65                	lui	x28,0x19
  6a:	20726f73          	csrrsi	x30,0x207,4
  6e:	6964                	flw	f9,84(x10)
  70:	736d                	lui	x6,0xffffb
  72:	6920                	flw	f8,80(x10)
  74:	6f742073          	csrs	0x6f7,x8
  78:	616c206f          	j	c268e <.L90+0xc1f52>
  7c:	6772                	flw	f14,28(x2)
  7e:	0065                	c.nop	25

Disassembly of section .text._ZN8HBTensorIfLln1EEC2EP11hb_tensor_t:

00000000 <_ZN8HBTensorIfLln1EEC1EP11hb_tensor_t>:
   0:	00058713          	mv	x14,x11
   4:	0045a683          	lw	x13,4(x11) # 21040004 <.L90+0x2103f8c8>
   8:	00072803          	lw	x16,0(x14)
   c:	0105a583          	lw	x11,16(x11)
  10:	00050793          	mv	x15,x10
  14:	02850613          	addi	x12,x10,40
  18:	01450513          	addi	x10,x10,20
  1c:	0107a023          	sw	x16,0(x15)
  20:	00d7a223          	sw	x13,4(x15)
  24:	00a7a423          	sw	x10,8(x15)
  28:	00c7a623          	sw	x12,12(x15)
  2c:	00b7a823          	sw	x11,16(x15)
  30:	00060613          	mv	x12,x12
  34:	00500293          	li	x5,5
  38:	04d2e463          	bltu	x5,x13,80 <.L14>
  3c:	00872303          	lw	x6,8(x14)
  40:	00c72383          	lw	x7,12(x14)
  44:	02068c63          	beqz	x13,7c <.L1>
  48:	00269893          	slli	x17,x13,0x2
  4c:	00078713          	mv	x14,x15
  50:	01178e33          	add	x28,x15,x17
  54:	40f30eb3          	sub	x29,x6,x15
  58:	40f38f33          	sub	x30,x7,x15

0000005c <.L5>:
  5c:	00ee8fb3          	add	x31,x29,x14
  60:	000fa683          	lw	x13,0(x31)
  64:	00ef05b3          	add	x11,x30,x14
  68:	00470713          	addi	x14,x14,4
  6c:	00d72823          	sw	x13,16(x14)
  70:	0005a803          	lw	x16,0(x11)
  74:	03072223          	sw	x16,36(x14)
  78:	ffc712e3          	bne	x14,x28,5c <.L5>

0000007c <.L1>:
  7c:	00008067          	ret

00000080 <.L14>:
  80:	ff010113          	addi	x2,x2,-16
  84:	000007b7          	lui	x15,0x0
  88:	00112623          	sw	x1,12(x2)
  8c:	000000b7          	lui	x1,0x0
  90:	0c700613          	li	x12,199
  94:	00008593          	mv	x11,x1
  98:	00078513          	mv	x10,x15
  9c:	00000097          	auipc	x1,0x0
  a0:	000080e7          	jalr	x1 # 9c <.L14+0x1c>
  a4:	00000637          	lui	x12,0x0
  a8:	00060513          	mv	x10,x12
  ac:	00000097          	auipc	x1,0x0
  b0:	000080e7          	jalr	x1 # ac <.L14+0x2c>
  b4:	00000537          	lui	x10,0x0
  b8:	00052283          	lw	x5,0(x10) # 0 <_ZN8HBTensorIfLln1EEC1EP11hb_tensor_t>
  bc:	00000337          	lui	x6,0x0
  c0:	00032383          	lw	x7,0(x6) # 0 <_ZN8HBTensorIfLln1EEC1EP11hb_tensor_t>
  c4:	01029893          	slli	x17,x5,0x10
  c8:	4100feb7          	lui	x29,0x4100f
  cc:	00788e33          	add	x28,x17,x7
  d0:	adceac23          	sw	x28,-1320(x29) # 4100ead8 <.L90+0x4100e39c>

000000d4 <.L3>:
  d4:	0000006f          	j	d4 <.L3>

Disassembly of section .comment:

00000000 <.comment>:
   0:	4700                	lw	x8,8(x14)
   2:	203a4343          	fmadd.s	f6,f20,f3,f4,rmm
   6:	4728                	lw	x10,72(x14)
   8:	554e                	lw	x10,240(x2)
   a:	2029                	jal	14 <_ZN8HBTensorIfLln1EEC5EP11hb_tensor_t+0x14>
   c:	2e39                	jal	32a <.L49+0x5e>
   e:	2e32                	fld	f28,264(x2)
  10:	0030                	addi	x12,x2,8

Disassembly of section .eh_frame:

00000000 <.eh_frame>:
   0:	0010                	0x10
   2:	0000                	unimp
   4:	0000                	unimp
   6:	0000                	unimp
   8:	7a01                	lui	x20,0xfffe0
   a:	0052                	c.slli	x0,0x14
   c:	7c01                	lui	x24,0xfffe0
   e:	0101                	addi	x2,x2,0
  10:	00020d1b          	0x20d1b
  14:	0014                	0x14
  16:	0000                	unimp
  18:	0018                	0x18
	...
  22:	0000                	unimp
  24:	0200                	addi	x8,x2,256
  26:	0e84                	addi	x9,x2,848
  28:	4810                	lw	x12,16(x8)
  2a:	0181                	addi	x3,x3,0
  2c:	0078                	addi	x14,x2,12
  2e:	0000                	unimp
  30:	0030                	addi	x12,x2,8
	...
  3a:	0000                	unimp
  3c:	4400                	lw	x8,8(x8)
  3e:	900e                	c.add	x0,x3
  40:	4c02                	lw	x24,0(x2)
  42:	0288                	addi	x10,x2,320
  44:	6002                	flw	f0,0(x2)
  46:	0181                	addi	x3,x3,0
  48:	0389                	addi	x7,x7,2
  4a:	0492                	slli	x9,x9,0x4
  4c:	06940593          	addi	x11,x8,105 # ffff8069 <.L90+0xffff792d>
  50:	0795                	addi	x15,x15,5
  52:	0896                	slli	x17,x17,0x5
  54:	0a980997          	auipc	x19,0xa980
  58:	0b99                	addi	x23,x23,6
  5a:	0c9a                	slli	x25,x25,0x6
  5c:	11a80d9b          	0x11a80d9b
  60:	12a9                	addi	x5,x5,-22
  62:	13b2                	slli	x7,x7,0x2c
  64:	15b414b3          	0x15b414b3
  68:	16b5                	addi	x13,x13,-19
  6a:	17b6                	slli	x15,x15,0x2d
  6c:	19b818b7          	lui	x17,0x19b81
  70:	1ab9                	addi	x21,x21,-18
  72:	0a026003          	0xa026003
  76:	44c1                	li	x9,16
  78:	48c8                	lw	x10,20(x9)
  7a:	44c9                	li	x9,18
  7c:	44d2                	lw	x9,20(x2)
  7e:	44d444d3          	0x44d444d3
  82:	44d5                	li	x9,21
  84:	44d6                	lw	x9,84(x2)
  86:	44d844d7          	0x44d844d7
  8a:	44d9                	li	x9,22
  8c:	44da                	lw	x9,148(x2)
  8e:	44e844db          	0x44e844db
  92:	44e9                	li	x9,26
  94:	44f2                	lw	x9,28(x2)
  96:	44f444f3          	0x44f444f3
  9a:	44f5                	li	x9,29
  9c:	44f6                	lw	x9,92(x2)
  9e:	44f844f7          	0x44f844f7
  a2:	48f9                	li	x17,30
  a4:	000e                	c.slli	x0,0x3
  a6:	0b44                	addi	x9,x2,404

Disassembly of section .riscv.attributes:

00000000 <.riscv.attributes>:
   0:	2a41                	jal	190 <.L29+0xc>
   2:	0000                	unimp
   4:	7200                	flw	f8,32(x12)
   6:	7369                	lui	x6,0xffffa
   8:	01007663          	bgeu	x0,x16,14 <.riscv.attributes+0x14>
   c:	0020                	addi	x8,x2,8
   e:	0000                	unimp
  10:	1004                	addi	x9,x2,32
  12:	7205                	lui	x4,0xfffe1
  14:	3376                	fld	f6,376(x2)
  16:	6932                	flw	f18,12(x2)
  18:	7032                	flw	f0,44(x2)
  1a:	5f30                	lw	x12,120(x14)
  1c:	326d                	jal	fffff9c6 <.L90+0xfffff28a>
  1e:	3070                	fld	f12,224(x8)
  20:	615f 7032 5f30      	0x5f307032615f
  26:	3266                	fld	f4,120(x2)
  28:	3070                	fld	f12,224(x8)
	...
