
kernel_sum.o:     file format elf32-littleriscv


Disassembly of section .group:

00000000 <_ZN8HBTensorIfLln1EEC5EP11hb_tensor_t>:
   0:	0001                	nop
   2:	0000                	unimp
   4:	00000007          	0x7
   8:	0008                	0x8
	...

Disassembly of section .text:

00000000 <tensorlib_sum>:
       0:	ee010113          	addi	x2,x2,-288
       4:	00050793          	mv	x15,x10
       8:	10912a23          	sw	x9,276(x2)
       c:	00010513          	mv	x10,x2
      10:	00058493          	mv	x9,x11
      14:	00078593          	mv	x11,x15
      18:	10112e23          	sw	x1,284(x2)
      1c:	10812c23          	sw	x8,280(x2)
      20:	11212823          	sw	x18,272(x2)
      24:	11312623          	sw	x19,268(x2)
      28:	11412423          	sw	x20,264(x2)
      2c:	11512223          	sw	x21,260(x2)
      30:	00060a13          	mv	x20,x12
      34:	11612023          	sw	x22,256(x2)
      38:	0f712e23          	sw	x23,252(x2)
      3c:	0f812c23          	sw	x24,248(x2)
      40:	0f912a23          	sw	x25,244(x2)
      44:	0fa12823          	sw	x26,240(x2)
      48:	03c10413          	addi	x8,x2,60
      4c:	00000097          	auipc	x1,0x0
      50:	000080e7          	jalr	x1 # 4c <tensorlib_sum+0x4c>
      54:	00048593          	mv	x11,x9
      58:	00040513          	mv	x10,x8
      5c:	00000097          	auipc	x1,0x0
      60:	000080e7          	jalr	x1 # 5c <tensorlib_sum+0x5c>
      64:	000004b7          	lui	x9,0x0
      68:	000005b7          	lui	x11,0x0
      6c:	000006b7          	lui	x13,0x0
      70:	00000937          	lui	x18,0x0
      74:	0005a283          	lw	x5,0(x11) # 0 <tensorlib_sum>
      78:	0004a883          	lw	x17,0(x9) # 0 <tensorlib_sum>
      7c:	0006a703          	lw	x14,0(x13) # 0 <tensorlib_sum>
      80:	00092603          	lw	x12,0(x18) # 0 <tensorlib_sum>
      84:	00000537          	lui	x10,0x0
      88:	00052803          	lw	x16,0(x10) # 0 <tensorlib_sum>
      8c:	01128333          	add	x6,x5,x17
      90:	00c703b3          	add	x7,x14,x12
      94:	01831993          	slli	x19,x6,0x18
      98:	01239a93          	slli	x21,x7,0x12
      9c:	3f000b37          	lui	x22,0x3f000
      a0:	00fc0c37          	lui	x24,0xfc0
      a4:	00040eb7          	lui	x29,0x40
      a8:	0169fbb3          	and	x23,x19,x22
      ac:	018afcb3          	and	x25,x21,x24
      b0:	00481d13          	slli	x26,x16,0x4
      b4:	ff0e8f13          	addi	x30,x29,-16 # 3fff0 <.L158+0x3ee7c>
      b8:	019bee33          	or	x28,x23,x25
      bc:	01ed7fb3          	and	x31,x26,x30
      c0:	04012983          	lw	x19,64(x2)
      c4:	01fe67b3          	or	x15,x28,x31
      c8:	800002b7          	lui	x5,0x80000
      cc:	0057e8b3          	or	x17,x15,x5
      d0:	41001637          	lui	x12,0x41001
      d4:	000a2a03          	lw	x20,0(x20)
      d8:	00100713          	li	x14,1
      dc:	d1162623          	sw	x17,-756(x12) # 41000d0c <.L158+0x40fffb98>
      e0:	04812303          	lw	x6,72(x2)
      e4:	0ce98463          	beq	x19,x14,1ac <.L228>
      e8:	06098c63          	beqz	x19,160 <.L229>
      ec:	00032803          	lw	x16,0(x6)
      f0:	31477ae3          	bgeu	x14,x20,c04 <.L21>
      f4:	00430a93          	addi	x21,x6,4
      f8:	00100393          	li	x7,1

000000fc <.L23>:
      fc:	000aa083          	lw	x1,0(x21)
     100:	00138393          	addi	x7,x7,1
     104:	004a8a93          	addi	x21,x21,4
     108:	02180833          	mul	x16,x16,x1
     10c:	2f438ce3          	beq	x7,x20,c04 <.L21>
     110:	ff3396e3          	bne	x7,x19,fc <.L23>

00000114 <.L144>:
     114:	00000737          	lui	x14,0x0
     118:	00000a37          	lui	x20,0x0
     11c:	06f00613          	li	x12,111
     120:	000a0593          	mv	x11,x20
     124:	00070513          	mv	x10,x14
     128:	00000097          	auipc	x1,0x0
     12c:	000080e7          	jalr	x1 # 128 <.L144+0x14>
     130:	00000b37          	lui	x22,0x0
     134:	00098593          	mv	x11,x19
     138:	000b0513          	mv	x10,x22
     13c:	00000097          	auipc	x1,0x0
     140:	000080e7          	jalr	x1 # 13c <.L144+0x28>
     144:	0004ac83          	lw	x25,0(x9)
     148:	00092303          	lw	x6,0(x18)
     14c:	4100feb7          	lui	x29,0x4100f
     150:	010c9993          	slli	x19,x25,0x10
     154:	00698bb3          	add	x23,x19,x6
     158:	ad7eac23          	sw	x23,-1320(x29) # 4100ead8 <.L158+0x4100d964>

0000015c <.L24>:
     15c:	0000006f          	j	15c <.L24>

00000160 <.L229>:
     160:	000002b7          	lui	x5,0x0
     164:	000007b7          	lui	x15,0x0
     168:	00028593          	mv	x11,x5
     16c:	06f00613          	li	x12,111
     170:	00078513          	mv	x10,x15
     174:	00000097          	auipc	x1,0x0
     178:	000080e7          	jalr	x1 # 174 <.L229+0x14>
     17c:	00000f37          	lui	x30,0x0
     180:	00000593          	li	x11,0
     184:	000f0513          	mv	x10,x30
     188:	00000097          	auipc	x1,0x0
     18c:	000080e7          	jalr	x1 # 188 <.L229+0x28>
     190:	0004a483          	lw	x9,0(x9)
     194:	00092503          	lw	x10,0(x18)
     198:	4100f937          	lui	x18,0x4100f
     19c:	01049593          	slli	x11,x9,0x10
     1a0:	00a586b3          	add	x13,x11,x10
     1a4:	acd92c23          	sw	x13,-1320(x18) # 4100ead8 <.L158+0x4100d964>

000001a8 <.L20>:
     1a8:	0000006f          	j	1a8 <.L20>

000001ac <.L228>:
     1ac:	03c12d03          	lw	x26,60(x2)
     1b0:	00012a83          	lw	x21,0(x2)
     1b4:	0f5d0a63          	beq	x26,x21,2a8 <.L230>
     1b8:	00032803          	lw	x16,0(x6)
     1bc:	f549ece3          	bltu	x19,x20,114 <.L144>
     1c0:	07810093          	addi	x1,x2,120
     1c4:	00010793          	mv	x15,x2
     1c8:	00008393          	mv	x7,x1

000001cc <.L151>:
     1cc:	0007a603          	lw	x12,0(x15) # 0 <tensorlib_sum>
     1d0:	0047af83          	lw	x31,4(x15)
     1d4:	0087ae03          	lw	x28,8(x15)
     1d8:	00c7ac03          	lw	x24,12(x15)
     1dc:	0107a883          	lw	x17,16(x15)
     1e0:	00c3a023          	sw	x12,0(x7)
     1e4:	01f3a223          	sw	x31,4(x7)
     1e8:	01c3a423          	sw	x28,8(x7)
     1ec:	0183a623          	sw	x24,12(x7)
     1f0:	0113a823          	sw	x17,16(x7)
     1f4:	01478793          	addi	x15,x15,20
     1f8:	01438393          	addi	x7,x7,20
     1fc:	fc8798e3          	bne	x15,x8,1cc <.L151>
     200:	0b410713          	addi	x14,x2,180

00000204 <.L152>:
     204:	0007a403          	lw	x8,0(x15)
     208:	0047a283          	lw	x5,4(x15)
     20c:	0087af03          	lw	x30,8(x15)
     210:	00c7ad03          	lw	x26,12(x15)
     214:	0107aa83          	lw	x21,16(x15)
     218:	00872023          	sw	x8,0(x14) # 0 <tensorlib_sum>
     21c:	00572223          	sw	x5,4(x14)
     220:	01e72423          	sw	x30,8(x14)
     224:	01a72623          	sw	x26,12(x14)
     228:	01572823          	sw	x21,16(x14)
     22c:	01478793          	addi	x15,x15,20
     230:	01470713          	addi	x14,x14,20
     234:	fc1798e3          	bne	x15,x1,204 <.L152>
     238:	07812403          	lw	x8,120(x2)
     23c:	00100b13          	li	x22,1
     240:	13640e63          	beq	x8,x22,37c <.L153>

00000244 <.L154>:
     244:	00300c93          	li	x25,3
     248:	173ceae3          	bltu	x25,x19,bbc <.L71>
     24c:	00100313          	li	x6,1
     250:	0c698e63          	beq	x19,x6,32c <.L72>
     254:	00200b93          	li	x23,2
     258:	177992e3          	bne	x19,x23,bbc <.L71>
     25c:	366a0663          	beq	x20,x6,5c8 <.L231>
     260:	000006b7          	lui	x13,0x0
     264:	00000537          	lui	x10,0x0
     268:	00050593          	mv	x11,x10
     26c:	0b600613          	li	x12,182
     270:	00068513          	mv	x10,x13
     274:	00000097          	auipc	x1,0x0
     278:	000080e7          	jalr	x1 # 274 <.L154+0x30>
     27c:	000005b7          	lui	x11,0x0
     280:	00058513          	mv	x10,x11
     284:	00000097          	auipc	x1,0x0
     288:	000080e7          	jalr	x1 # 284 <.L154+0x40>
     28c:	0004a483          	lw	x9,0(x9)
     290:	00092903          	lw	x18,0(x18)
     294:	4100f9b7          	lui	x19,0x4100f
     298:	01049813          	slli	x16,x9,0x10
     29c:	01280a33          	add	x20,x16,x18
     2a0:	ad49ac23          	sw	x20,-1320(x19) # 4100ead8 <.L158+0x4100d964>

000002a4 <.L98>:
     2a4:	0000006f          	j	2a4 <.L98>

000002a8 <.L230>:
     2a8:	07810f13          	addi	x30,x2,120
     2ac:	00010a13          	mv	x20,x2
     2b0:	000f0713          	mv	x14,x30

000002b4 <.L140>:
     2b4:	000a2e03          	lw	x28,0(x20) # 0 <tensorlib_sum>
     2b8:	004a2303          	lw	x6,4(x20)
     2bc:	008a2b03          	lw	x22,8(x20)
     2c0:	00ca2c03          	lw	x24,12(x20)
     2c4:	010a2b83          	lw	x23,16(x20)
     2c8:	01c72023          	sw	x28,0(x14)
     2cc:	00672223          	sw	x6,4(x14)
     2d0:	01672423          	sw	x22,8(x14)
     2d4:	01872623          	sw	x24,12(x14)
     2d8:	01772823          	sw	x23,16(x14)
     2dc:	014a0a13          	addi	x20,x20,20
     2e0:	01470713          	addi	x14,x14,20
     2e4:	fc8a18e3          	bne	x20,x8,2b4 <.L140>
     2e8:	0b410793          	addi	x15,x2,180

000002ec <.L141>:
     2ec:	000a2083          	lw	x1,0(x20)
     2f0:	004a2e83          	lw	x29,4(x20)
     2f4:	008a2403          	lw	x8,8(x20)
     2f8:	00ca2383          	lw	x7,12(x20)
     2fc:	010a2603          	lw	x12,16(x20)
     300:	0017a023          	sw	x1,0(x15)
     304:	01d7a223          	sw	x29,4(x15)
     308:	0087a423          	sw	x8,8(x15)
     30c:	0077a623          	sw	x7,12(x15)
     310:	00c7a823          	sw	x12,16(x15)
     314:	014a0a13          	addi	x20,x20,20
     318:	01478793          	addi	x15,x15,20
     31c:	fdea18e3          	bne	x20,x30,2ec <.L141>
     320:	07812403          	lw	x8,120(x2)
     324:	00100293          	li	x5,1
     328:	04540a63          	beq	x8,x5,37c <.L153>

0000032c <.L72>:
     32c:	0b412883          	lw	x17,180(x2)
     330:	348888e3          	beq	x17,x8,e80 <.L74>
     334:	00000b37          	lui	x22,0x0
     338:	00000c37          	lui	x24,0x0
     33c:	08d00613          	li	x12,141
     340:	000b0593          	mv	x11,x22
     344:	000c0513          	mv	x10,x24
     348:	00000097          	auipc	x1,0x0
     34c:	000080e7          	jalr	x1 # 348 <.L72+0x1c>
     350:	00000bb7          	lui	x23,0x0
     354:	000b8513          	mv	x10,x23
     358:	00000097          	auipc	x1,0x0
     35c:	000080e7          	jalr	x1 # 358 <.L72+0x2c>
     360:	0004ae03          	lw	x28,0(x9)
     364:	00092303          	lw	x6,0(x18)
     368:	4100f3b7          	lui	x7,0x4100f
     36c:	010e1713          	slli	x14,x28,0x10
     370:	00670eb3          	add	x29,x14,x6
     374:	add3ac23          	sw	x29,-1320(x7) # 4100ead8 <.L158+0x4100d964>

00000378 <.L75>:
     378:	0000006f          	j	378 <.L75>

0000037c <.L153>:
     37c:	0b412083          	lw	x1,180(x2)
     380:	0bc12a83          	lw	x21,188(x2)
     384:	00000a37          	lui	x20,0x0
     388:	000002b7          	lui	x5,0x0
     38c:	fff08613          	addi	x12,x1,-1
     390:	ffd00893          	li	x17,-3
     394:	000a2783          	lw	x15,0(x20) # 0 <tensorlib_sum>
     398:	08812f03          	lw	x30,136(x2)
     39c:	0c412f83          	lw	x31,196(x2)
     3a0:	0002aa03          	lw	x20,0(x5) # 0 <tensorlib_sum>
     3a4:	000aa803          	lw	x16,0(x21)
     3a8:	f0000fd3          	fmv.w.x	f31,x0
     3ac:	04c8e463          	bltu	x17,x12,3f4 <.L30>
     3b0:	0070d993          	srli	x19,x1,0x7
     3b4:	00198d13          	addi	x26,x19,1
     3b8:	07fa7413          	andi	x8,x20,127
     3bc:	03a40cb3          	mul	x25,x8,x26
     3c0:	019d0b33          	add	x22,x26,x25
     3c4:	0160f463          	bgeu	x1,x22,3cc <.L27>
     3c8:	00008b13          	mv	x22,x1

000003cc <.L27>:
     3cc:	f0000fd3          	fmv.w.x	f31,x0
     3d0:	036cf263          	bgeu	x25,x22,3f4 <.L30>
     3d4:	00281c13          	slli	x24,x16,0x2
     3d8:	038c8bb3          	mul	x23,x25,x24
     3dc:	017f8e33          	add	x28,x31,x23

000003e0 <.L29>:
     3e0:	000e2707          	flw	f14,0(x28)
     3e4:	001c8c93          	addi	x25,x25,1
     3e8:	018e0e33          	add	x28,x28,x24
     3ec:	00efffd3          	fadd.s	f31,f31,f14
     3f0:	ff9b18e3          	bne	x22,x25,3e0 <.L29>

000003f4 <.L30>:
     3f4:	00092303          	lw	x6,0(x18)
     3f8:	0004ae83          	lw	x29,0(x9)
     3fc:	000008b7          	lui	x17,0x0
     400:	00430713          	addi	x14,x6,4
     404:	00088813          	mv	x16,x17
     408:	002a1393          	slli	x7,x20,0x2
     40c:	00e800b3          	add	x1,x16,x14
     410:	018e9a93          	slli	x21,x29,0x18
     414:	00778fb3          	add	x31,x15,x7
     418:	0150ea33          	or	x20,x1,x21
     41c:	201c0637          	lui	x12,0x201c0
     420:	00100d13          	li	x26,1
     424:	01ffa027          	fsw	f31,0(x31)
     428:	00ca69b3          	or	x19,x20,x12
     42c:	01a98023          	sb	x26,0(x19)
     430:	00092d03          	lw	x26,0(x18)
     434:	00700413          	li	x8,7
     438:	3e8d0c63          	beq	x26,x8,830 <.L232>

0000043c <.L45>:
     43c:	00100e13          	li	x28,1
     440:	0100006f          	j	450 <.L50>

00000444 <.L233>:
     444:	00088713          	mv	x14,x17
     448:	140720af          	lr.w.aq	x1,(x14)
     44c:	01c08863          	beq	x1,x28,45c <.L49>

00000450 <.L50>:
     450:	00088313          	mv	x6,x17
     454:	10032eaf          	lr.w	x29,(x6)
     458:	ffce96e3          	bne	x29,x28,444 <.L233>

0000045c <.L49>:
     45c:	0002a283          	lw	x5,0(x5)
     460:	00082023          	sw	x0,0(x16)
     464:	02029063          	bnez	x5,484 <.L51>
     468:	f00007d3          	fmv.w.x	f15,x0
     46c:	20078a93          	addi	x21,x15,512

00000470 <.L52>:
     470:	0007af87          	flw	f31,0(x15)
     474:	00478793          	addi	x15,x15,4
     478:	01f7f7d3          	fadd.s	f15,f15,f31
     47c:	ff579ae3          	bne	x15,x21,470 <.L52>
     480:	00ff2027          	fsw	f15,0(x30) # 0 <tensorlib_sum>

00000484 <.L51>:
     484:	0004af03          	lw	x30,0(x9)
     488:	004d0793          	addi	x15,x26,4
     48c:	00f803b3          	add	x7,x16,x15
     490:	018f1a13          	slli	x20,x30,0x18
     494:	007a6fb3          	or	x31,x20,x7
     498:	201c0d37          	lui	x26,0x201c0
     49c:	01afe9b3          	or	x19,x31,x26
     4a0:	00100413          	li	x8,1
     4a4:	00898023          	sb	x8,0(x19)
     4a8:	00092c83          	lw	x25,0(x18)
     4ac:	00700b13          	li	x22,7
     4b0:	2b6c8663          	beq	x25,x22,75c <.L234>

000004b4 <.L63>:
     4b4:	00100093          	li	x1,1
     4b8:	0100006f          	j	4c8 <.L68>

000004bc <.L235>:
     4bc:	00088c93          	mv	x25,x17
     4c0:	140cab2f          	lr.w.aq	x22,(x25)
     4c4:	001b0863          	beq	x22,x1,4d4 <.L67>

000004c8 <.L68>:
     4c8:	00088993          	mv	x19,x17
     4cc:	1009a42f          	lr.w	x8,(x19)
     4d0:	fe1416e3          	bne	x8,x1,4bc <.L235>

000004d4 <.L67>:
     4d4:	00082023          	sw	x0,0(x16)

000004d8 <.L69>:
     4d8:	0005ab83          	lw	x23,0(x11) # 0 <tensorlib_sum>
     4dc:	0006ac03          	lw	x24,0(x13) # 0 <tensorlib_sum>
     4e0:	0004a583          	lw	x11,0(x9)
     4e4:	00092603          	lw	x12,0(x18)
     4e8:	00052503          	lw	x10,0(x10) # 0 <tensorlib_sum>
     4ec:	00bb86b3          	add	x13,x23,x11
     4f0:	00cc0e33          	add	x28,x24,x12
     4f4:	01869293          	slli	x5,x13,0x18
     4f8:	012e1a93          	slli	x21,x28,0x12
     4fc:	3f000f37          	lui	x30,0x3f000
     500:	00fc03b7          	lui	x7,0xfc0
     504:	00040fb7          	lui	x31,0x40
     508:	01e2feb3          	and	x29,x5,x30
     50c:	007af7b3          	and	x15,x21,x7
     510:	00451313          	slli	x6,x10,0x4
     514:	ff0f8d13          	addi	x26,x31,-16 # 3fff0 <.L158+0x3ee7c>
     518:	00feea33          	or	x20,x29,x15
     51c:	01a37733          	and	x14,x6,x26
     520:	00ea60b3          	or	x1,x20,x14
     524:	c00009b7          	lui	x19,0xc0000
     528:	0130e433          	or	x8,x1,x19
     52c:	41001cb7          	lui	x25,0x41001
     530:	d08ca623          	sw	x8,-756(x25) # 41000d0c <.L158+0x40fffb98>
     534:	00092b03          	lw	x22,0(x18)
     538:	0004ab83          	lw	x23,0(x9)
     53c:	201c06b7          	lui	x13,0x201c0
     540:	004b0593          	addi	x11,x22,4 # 4 <tensorlib_sum+0x4>
     544:	00b80c33          	add	x24,x16,x11
     548:	018b9613          	slli	x12,x23,0x18
     54c:	00cc6533          	or	x10,x24,x12
     550:	00d56e33          	or	x28,x10,x13
     554:	00100293          	li	x5,1
     558:	005e0023          	sb	x5,0(x28)
     55c:	00092a83          	lw	x21,0(x18)
     560:	00700f13          	li	x30,7
     564:	13ea8263          	beq	x21,x30,688 <.L236>

00000568 <.L131>:
     568:	00100493          	li	x9,1
     56c:	0100006f          	j	57c <.L136>

00000570 <.L237>:
     570:	00088b13          	mv	x22,x17
     574:	140b272f          	lr.w.aq	x14,(x22)
     578:	00970863          	beq	x14,x9,588 <.L135>

0000057c <.L136>:
     57c:	00088413          	mv	x8,x17
     580:	10042caf          	lr.w	x25,(x8)
     584:	fe9c96e3          	bne	x25,x9,570 <.L237>

00000588 <.L135>:
     588:	11c12083          	lw	x1,284(x2)
     58c:	11812403          	lw	x8,280(x2)
     590:	00082023          	sw	x0,0(x16)
     594:	11412483          	lw	x9,276(x2)
     598:	11012903          	lw	x18,272(x2)
     59c:	10c12983          	lw	x19,268(x2)
     5a0:	10812a03          	lw	x20,264(x2)
     5a4:	10412a83          	lw	x21,260(x2)
     5a8:	10012b03          	lw	x22,256(x2)
     5ac:	0fc12b83          	lw	x23,252(x2)
     5b0:	0f812c03          	lw	x24,248(x2)
     5b4:	0f412c83          	lw	x25,244(x2)
     5b8:	0f012d03          	lw	x26,240(x2)
     5bc:	00000513          	li	x10,0
     5c0:	12010113          	addi	x2,x2,288
     5c4:	00008067          	ret

000005c8 <.L231>:
     5c8:	fff40e93          	addi	x29,x8,-1
     5cc:	ffd00093          	li	x1,-3
     5d0:	0bd0e663          	bltu	x1,x29,67c <.L227>
     5d4:	00000637          	lui	x12,0x0
     5d8:	00062f83          	lw	x31,0(x12) # 0 <tensorlib_sum>
     5dc:	00745e13          	srli	x28,x8,0x7
     5e0:	001e0c13          	addi	x24,x28,1
     5e4:	07fff893          	andi	x17,x31,127
     5e8:	038888b3          	mul	x17,x17,x24
     5ec:	011c0d33          	add	x26,x24,x17
     5f0:	01a47463          	bgeu	x8,x26,5f8 <.L89>
     5f4:	00040d13          	mv	x26,x8

000005f8 <.L89>:
     5f8:	09a8f263          	bgeu	x17,x26,67c <.L227>
     5fc:	ff780393          	addi	x7,x16,-9
     600:	01000c93          	li	x25,16
     604:	ff880313          	addi	x6,x16,-8
     608:	ff83ff13          	andi	x30,x7,-8

0000060c <.L97>:
     60c:	f00006d3          	fmv.w.x	f13,x0
     610:	4d0ce263          	bltu	x25,x16,ad4 <.L91>
     614:	00000413          	li	x8,0

00000618 <.L95>:
     618:	05047063          	bgeu	x8,x16,658 <.L92>
     61c:	0bc12983          	lw	x19,188(x2)
     620:	0c412e83          	lw	x29,196(x2)
     624:	0009ae03          	lw	x28,0(x19) # c0000000 <.L158+0xbfffee8c>
     628:	0049ab03          	lw	x22,4(x19)
     62c:	028e0c33          	mul	x24,x28,x8
     630:	002e1b93          	slli	x23,x28,0x2
     634:	03688733          	mul	x14,x17,x22
     638:	01870633          	add	x12,x14,x24
     63c:	00261093          	slli	x1,x12,0x2
     640:	001e83b3          	add	x7,x29,x1

00000644 <.L96>:
     644:	0003ae87          	flw	f29,0(x7) # fc0000 <.L158+0xfbee8c>
     648:	00140413          	addi	x8,x8,1
     64c:	017383b3          	add	x7,x7,x23
     650:	01d6f6d3          	fadd.s	f13,f13,f29
     654:	ff0418e3          	bne	x8,x16,644 <.L96>

00000658 <.L92>:
     658:	08012a03          	lw	x20,128(x2)
     65c:	08812f83          	lw	x31,136(x2)
     660:	004a2783          	lw	x15,4(x20)
     664:	02f882b3          	mul	x5,x17,x15
     668:	00188893          	addi	x17,x17,1 # 1 <tensorlib_sum+0x1>
     66c:	00229a93          	slli	x21,x5,0x2
     670:	015f89b3          	add	x19,x31,x21
     674:	00d9a027          	fsw	f13,0(x19)
     678:	f91d1ae3          	bne	x26,x17,60c <.L97>

0000067c <.L227>:
     67c:	000008b7          	lui	x17,0x0
     680:	00088813          	mv	x16,x17
     684:	e55ff06f          	j	4d8 <.L69>

00000688 <.L236>:
     688:	00000eb7          	lui	x29,0x0
     68c:	000007b7          	lui	x15,0x0
     690:	004e8393          	addi	x7,x29,4 # 4 <tensorlib_sum+0x4>
     694:	01478a13          	addi	x20,x15,20 # 14 <tensorlib_sum+0x14>

00000698 <.L122>:
     698:	00038f93          	mv	x31,x7

0000069c <.L124>:
     69c:	000fc303          	lbu	x6,0(x31)
     6a0:	001f8f93          	addi	x31,x31,1
     6a4:	0ff37d13          	andi	x26,x6,255
     6a8:	fe0d08e3          	beqz	x26,698 <.L122>
     6ac:	fffa18e3          	bne	x20,x31,69c <.L124>
     6b0:	0004a703          	lw	x14,0(x9)
     6b4:	231c0437          	lui	x8,0x231c0
     6b8:	00100b13          	li	x22,1
     6bc:	01870093          	addi	x1,x14,24
     6c0:	001809b3          	add	x19,x16,x1
     6c4:	0089ecb3          	or	x25,x19,x8
     6c8:	016c8023          	sb	x22,0(x25)
     6cc:	00092b83          	lw	x23,0(x18)
     6d0:	00700593          	li	x11,7
     6d4:	e8bb9ae3          	bne	x23,x11,568 <.L131>
     6d8:	0004ac03          	lw	x24,0(x9)
     6dc:	00300613          	li	x12,3
     6e0:	22cc0463          	beq	x24,x12,908 <.L238>

000006e4 <.L130>:
     6e4:	00100b93          	li	x23,1
     6e8:	0100006f          	j	6f8 <.L126>

000006ec <.L239>:
     6ec:	01480613          	addi	x12,x16,20
     6f0:	1406252f          	lr.w.aq	x10,(x12)
     6f4:	01750863          	beq	x10,x23,704 <.L132>

000006f8 <.L126>:
     6f8:	01480593          	addi	x11,x16,20
     6fc:	1005ac2f          	lr.w	x24,(x11)
     700:	ff7c16e3          	bne	x24,x23,6ec <.L239>

00000704 <.L132>:
     704:	00082a23          	sw	x0,20(x16)
     708:	00000293          	li	x5,0
     70c:	01000693          	li	x13,16

00000710 <.L133>:
     710:	00580e33          	add	x28,x16,x5
     714:	000e0223          	sb	x0,4(x28)
     718:	00128293          	addi	x5,x5,1
     71c:	fed29ae3          	bne	x5,x13,710 <.L133>
     720:	00082023          	sw	x0,0(x16)
     724:	00000d13          	li	x26,0
     728:	20000ab7          	lui	x21,0x20000
     72c:	00100f13          	li	x30,1
     730:	00040eb7          	lui	x29,0x40
     734:	004003b7          	lui	x7,0x400

00000738 <.L134>:
     738:	0004af83          	lw	x31,0(x9)
     73c:	01a86333          	or	x6,x16,x26
     740:	01dd0d33          	add	x26,x26,x29
     744:	018f9093          	slli	x1,x31,0x18
     748:	0060e7b3          	or	x15,x1,x6
     74c:	0157e9b3          	or	x19,x15,x21
     750:	01e9a023          	sw	x30,0(x19)
     754:	fe7d12e3          	bne	x26,x7,738 <.L134>
     758:	e11ff06f          	j	568 <.L131>

0000075c <.L234>:
     75c:	00000637          	lui	x12,0x0
     760:	00000c37          	lui	x24,0x0
     764:	00460b93          	addi	x23,x12,4 # 4 <tensorlib_sum+0x4>
     768:	014c0093          	addi	x1,x24,20 # 14 <tensorlib_sum+0x14>

0000076c <.L54>:
     76c:	000b8313          	mv	x6,x23

00000770 <.L56>:
     770:	00034e03          	lbu	x28,0(x6)
     774:	00130313          	addi	x6,x6,1
     778:	0ffe7e93          	andi	x29,x28,255
     77c:	fe0e88e3          	beqz	x29,76c <.L54>
     780:	fe6098e3          	bne	x1,x6,770 <.L56>
     784:	0004a703          	lw	x14,0(x9)
     788:	231c0f37          	lui	x30,0x231c0
     78c:	00100393          	li	x7,1
     790:	01870293          	addi	x5,x14,24
     794:	00580ab3          	add	x21,x16,x5
     798:	01eae7b3          	or	x15,x21,x30
     79c:	00778023          	sb	x7,0(x15)
     7a0:	00092a03          	lw	x20,0(x18)
     7a4:	00700f93          	li	x31,7
     7a8:	d1fa16e3          	bne	x20,x31,4b4 <.L63>
     7ac:	0004ad03          	lw	x26,0(x9)
     7b0:	00300993          	li	x19,3
     7b4:	293d0263          	beq	x26,x19,a38 <.L240>

000007b8 <.L62>:
     7b8:	00100413          	li	x8,1
     7bc:	0100006f          	j	7cc <.L58>

000007c0 <.L241>:
     7c0:	01480613          	addi	x12,x16,20
     7c4:	14062baf          	lr.w.aq	x23,(x12)
     7c8:	008b8863          	beq	x23,x8,7d8 <.L64>

000007cc <.L58>:
     7cc:	01480c93          	addi	x25,x16,20
     7d0:	100cab2f          	lr.w	x22,(x25)
     7d4:	fe8b16e3          	bne	x22,x8,7c0 <.L241>

000007d8 <.L64>:
     7d8:	00082a23          	sw	x0,20(x16)
     7dc:	00000293          	li	x5,0
     7e0:	01000c13          	li	x24,16

000007e4 <.L65>:
     7e4:	00580e33          	add	x28,x16,x5
     7e8:	000e0223          	sb	x0,4(x28)
     7ec:	00128293          	addi	x5,x5,1
     7f0:	ff829ae3          	bne	x5,x24,7e4 <.L65>
     7f4:	00082023          	sw	x0,0(x16)
     7f8:	00000a13          	li	x20,0
     7fc:	20000ab7          	lui	x21,0x20000
     800:	00100f13          	li	x30,1
     804:	00040eb7          	lui	x29,0x40
     808:	004003b7          	lui	x7,0x400

0000080c <.L66>:
     80c:	0004a783          	lw	x15,0(x9)
     810:	01486333          	or	x6,x16,x20
     814:	01da0a33          	add	x20,x20,x29
     818:	01879f93          	slli	x31,x15,0x18
     81c:	006fed33          	or	x26,x31,x6
     820:	015d6733          	or	x14,x26,x21
     824:	01e72023          	sw	x30,0(x14)
     828:	fe7a12e3          	bne	x20,x7,80c <.L66>
     82c:	c89ff06f          	j	4b4 <.L63>

00000830 <.L232>:
     830:	00000cb7          	lui	x25,0x0
     834:	00000c37          	lui	x24,0x0
     838:	004c8b13          	addi	x22,x25,4 # 4 <tensorlib_sum+0x4>
     83c:	014c0b93          	addi	x23,x24,20 # 14 <tensorlib_sum+0x14>

00000840 <.L36>:
     840:	000b0313          	mv	x6,x22

00000844 <.L38>:
     844:	00034e03          	lbu	x28,0(x6)
     848:	00130313          	addi	x6,x6,1
     84c:	0ffe7e93          	andi	x29,x28,255
     850:	fe0e88e3          	beqz	x29,840 <.L36>
     854:	fe6b98e3          	bne	x23,x6,844 <.L38>
     858:	0004a703          	lw	x14,0(x9)
     85c:	231c0ab7          	lui	x21,0x231c0
     860:	00100a13          	li	x20,1
     864:	01870393          	addi	x7,x14,24
     868:	007800b3          	add	x1,x16,x7
     86c:	0150efb3          	or	x31,x1,x21
     870:	014f8023          	sb	x20,0(x31)
     874:	00092d03          	lw	x26,0(x18)
     878:	00700613          	li	x12,7
     87c:	bccd10e3          	bne	x26,x12,43c <.L45>
     880:	0004a983          	lw	x19,0(x9)
     884:	00300413          	li	x8,3
     888:	10898e63          	beq	x19,x8,9a4 <.L242>

0000088c <.L44>:
     88c:	00100c13          	li	x24,1
     890:	0100006f          	j	8a0 <.L40>

00000894 <.L243>:
     894:	01480e93          	addi	x29,x16,20
     898:	140ea72f          	lr.w.aq	x14,(x29)
     89c:	01870863          	beq	x14,x24,8ac <.L46>

000008a0 <.L40>:
     8a0:	01480e13          	addi	x28,x16,20
     8a4:	100e232f          	lr.w	x6,(x28)
     8a8:	ff8316e3          	bne	x6,x24,894 <.L243>

000008ac <.L46>:
     8ac:	00082a23          	sw	x0,20(x16)
     8b0:	00000393          	li	x7,0
     8b4:	01000093          	li	x1,16

000008b8 <.L47>:
     8b8:	00780ab3          	add	x21,x16,x7
     8bc:	000a8223          	sb	x0,4(x21) # 231c0004 <.L158+0x231bee90>
     8c0:	00138393          	addi	x7,x7,1 # 400001 <.L158+0x3fee8d>
     8c4:	fe139ae3          	bne	x7,x1,8b8 <.L47>
     8c8:	00082023          	sw	x0,0(x16)
     8cc:	00000b13          	li	x22,0
     8d0:	20000a37          	lui	x20,0x20000
     8d4:	00100f93          	li	x31,1
     8d8:	00040d37          	lui	x26,0x40
     8dc:	004009b7          	lui	x19,0x400

000008e0 <.L48>:
     8e0:	0004a403          	lw	x8,0(x9)
     8e4:	01686cb3          	or	x25,x16,x22
     8e8:	01ab0b33          	add	x22,x22,x26
     8ec:	01841613          	slli	x12,x8,0x18
     8f0:	01966bb3          	or	x23,x12,x25
     8f4:	014bec33          	or	x24,x23,x20
     8f8:	01fc2023          	sw	x31,0(x24)
     8fc:	ff3b12e3          	bne	x22,x19,8e0 <.L48>
     900:	00092d03          	lw	x26,0(x18)
     904:	b39ff06f          	j	43c <.L45>

00000908 <.L238>:
     908:	00000537          	lui	x10,0x0
     90c:	00000e37          	lui	x28,0x0
     910:	01850693          	addi	x13,x10,24 # 18 <tensorlib_sum+0x18>
     914:	020e0293          	addi	x5,x28,32 # 20 <tensorlib_sum+0x20>

00000918 <.L125>:
     918:	00068f13          	mv	x30,x13

0000091c <.L127>:
     91c:	000f4a83          	lbu	x21,0(x30) # 231c0000 <.L158+0x231bee8c>
     920:	001f0f13          	addi	x30,x30,1
     924:	0ffafe93          	andi	x29,x21,255
     928:	fe0e88e3          	beqz	x29,918 <.L125>
     92c:	ffe298e3          	bne	x5,x30,91c <.L127>
     930:	00080c23          	sb	x0,24(x16)
     934:	00080ca3          	sb	x0,25(x16)
     938:	00080d23          	sb	x0,26(x16)
     93c:	00080da3          	sb	x0,27(x16)
     940:	00080e23          	sb	x0,28(x16)
     944:	00080ea3          	sb	x0,29(x16)
     948:	00080f23          	sb	x0,30(x16)
     94c:	00080fa3          	sb	x0,31(x16)
     950:	00082a23          	sw	x0,20(x16)
     954:	00000713          	li	x14,0
     958:	03fc03b7          	lui	x7,0x3fc0
     95c:	20000fb7          	lui	x31,0x20000
     960:	00100313          	li	x6,1
     964:	01000d37          	lui	x26,0x1000
     968:	080000b7          	lui	x1,0x8000
     96c:	0080006f          	j	974 <.L129>

00000970 <.L244>:
     970:	00092b83          	lw	x23,0(x18)

00000974 <.L129>:
     974:	012b9793          	slli	x15,x23,0x12
     978:	00ea69b3          	or	x19,x20,x14
     97c:	0077f433          	and	x8,x15,x7
     980:	01346cb3          	or	x25,x8,x19
     984:	01fceb33          	or	x22,x25,x31
     988:	006b2023          	sw	x6,0(x22)
     98c:	01a70733          	add	x14,x14,x26
     990:	fe1710e3          	bne	x14,x1,970 <.L244>
     994:	00092903          	lw	x18,0(x18)
     998:	00700a13          	li	x20,7
     99c:	d54904e3          	beq	x18,x20,6e4 <.L130>
     9a0:	bc9ff06f          	j	568 <.L131>

000009a4 <.L242>:
     9a4:	00000cb7          	lui	x25,0x0
     9a8:	00000c37          	lui	x24,0x0
     9ac:	018c8b13          	addi	x22,x25,24 # 18 <tensorlib_sum+0x18>
     9b0:	020c0e13          	addi	x28,x24,32 # 20 <tensorlib_sum+0x20>

000009b4 <.L39>:
     9b4:	000b0e93          	mv	x29,x22

000009b8 <.L41>:
     9b8:	000ec303          	lbu	x6,0(x29) # 40000 <.L158+0x3ee8c>
     9bc:	001e8e93          	addi	x29,x29,1
     9c0:	0ff37713          	andi	x14,x6,255
     9c4:	fe0708e3          	beqz	x14,9b4 <.L39>
     9c8:	ffde18e3          	bne	x28,x29,9b8 <.L41>
     9cc:	00080c23          	sb	x0,24(x16)
     9d0:	00080ca3          	sb	x0,25(x16)
     9d4:	00080d23          	sb	x0,26(x16)
     9d8:	00080da3          	sb	x0,27(x16)
     9dc:	00080e23          	sb	x0,28(x16)
     9e0:	00080ea3          	sb	x0,29(x16)
     9e4:	00080f23          	sb	x0,30(x16)
     9e8:	00080fa3          	sb	x0,31(x16)
     9ec:	00082a23          	sw	x0,20(x16)
     9f0:	00000613          	li	x12,0
     9f4:	03fc00b7          	lui	x1,0x3fc0
     9f8:	20000ab7          	lui	x21,0x20000
     9fc:	00100393          	li	x7,1
     a00:	01000fb7          	lui	x31,0x1000
     a04:	08000a37          	lui	x20,0x8000

00000a08 <.L43>:
     a08:	012d1d13          	slli	x26,x26,0x12
     a0c:	00cbe9b3          	or	x19,x23,x12
     a10:	001d7433          	and	x8,x26,x1
     a14:	01346cb3          	or	x25,x8,x19
     a18:	015ceb33          	or	x22,x25,x21
     a1c:	007b2023          	sw	x7,0(x22)
     a20:	01f60633          	add	x12,x12,x31
     a24:	00092d03          	lw	x26,0(x18)
     a28:	ff4610e3          	bne	x12,x20,a08 <.L43>
     a2c:	00700b93          	li	x23,7
     a30:	e57d0ee3          	beq	x26,x23,88c <.L44>
     a34:	a09ff06f          	j	43c <.L45>

00000a38 <.L240>:
     a38:	00000437          	lui	x8,0x0
     a3c:	00000b37          	lui	x22,0x0
     a40:	01840c93          	addi	x25,x8,24 # 18 <tensorlib_sum+0x18>
     a44:	020b0613          	addi	x12,x22,32 # 20 <tensorlib_sum+0x20>

00000a48 <.L57>:
     a48:	000c8c13          	mv	x24,x25

00000a4c <.L59>:
     a4c:	000c4b83          	lbu	x23,0(x24)
     a50:	001c0c13          	addi	x24,x24,1
     a54:	0ffbfe13          	andi	x28,x23,255
     a58:	fe0e08e3          	beqz	x28,a48 <.L57>
     a5c:	ff8618e3          	bne	x12,x24,a4c <.L59>
     a60:	00080c23          	sb	x0,24(x16)
     a64:	00080ca3          	sb	x0,25(x16)
     a68:	00080d23          	sb	x0,26(x16)
     a6c:	00080da3          	sb	x0,27(x16)
     a70:	00080e23          	sb	x0,28(x16)
     a74:	00080ea3          	sb	x0,29(x16)
     a78:	00080f23          	sb	x0,30(x16)
     a7c:	00080fa3          	sb	x0,31(x16)
     a80:	00082a23          	sw	x0,20(x16)
     a84:	00000713          	li	x14,0
     a88:	03fc02b7          	lui	x5,0x3fc0
     a8c:	20000ab7          	lui	x21,0x20000
     a90:	00100f13          	li	x30,1
     a94:	01000eb7          	lui	x29,0x1000
     a98:	080003b7          	lui	x7,0x8000
     a9c:	0080006f          	j	aa4 <.L61>

00000aa0 <.L245>:
     aa0:	00092a03          	lw	x20,0(x18)

00000aa4 <.L61>:
     aa4:	012a1793          	slli	x15,x20,0x12
     aa8:	00e0e333          	or	x6,x1,x14
     aac:	0057fa33          	and	x20,x15,x5
     ab0:	006a6fb3          	or	x31,x20,x6
     ab4:	015fed33          	or	x26,x31,x21
     ab8:	01ed2023          	sw	x30,0(x26) # 1000000 <.L158+0xffee8c>
     abc:	01d70733          	add	x14,x14,x29
     ac0:	fe7710e3          	bne	x14,x7,aa0 <.L245>
     ac4:	00092083          	lw	x1,0(x18)
     ac8:	00700993          	li	x19,7
     acc:	cf3086e3          	beq	x1,x19,7b8 <.L62>
     ad0:	9e5ff06f          	j	4b4 <.L63>

00000ad4 <.L91>:
     ad4:	00000f93          	li	x31,0

00000ad8 <.L94>:
     ad8:	0bc12283          	lw	x5,188(x2)
     adc:	0c412a83          	lw	x21,196(x2)
     ae0:	0002ab83          	lw	x23,0(x5) # 3fc0000 <.L158+0x3fbee8c>
     ae4:	0042a783          	lw	x15,4(x5)
     ae8:	03fb8a33          	mul	x20,x23,x31
     aec:	02f88eb3          	mul	x29,x17,x15
     af0:	014b89b3          	add	x19,x23,x20
     af4:	013b8433          	add	x8,x23,x19
     af8:	008b80b3          	add	x1,x23,x8
     afc:	001b8733          	add	x14,x23,x1
     b00:	00eb8e33          	add	x28,x23,x14
     b04:	01cb8b33          	add	x22,x23,x28
     b08:	01db8633          	add	x12,x23,x29
     b0c:	001e83b3          	add	x7,x29,x1
     b10:	01ce87b3          	add	x15,x29,x28
     b14:	016e82b3          	add	x5,x29,x22
     b18:	01da0c33          	add	x24,x20,x29
     b1c:	013e8bb3          	add	x23,x29,x19
     b20:	008e8433          	add	x8,x29,x8
     b24:	00ee80b3          	add	x1,x29,x14
     b28:	01660eb3          	add	x29,x12,x22
     b2c:	002c1a13          	slli	x20,x24,0x2
     b30:	002b9993          	slli	x19,x23,0x2
     b34:	00209713          	slli	x14,x1,0x2
     b38:	002e9613          	slli	x12,x29,0x2
     b3c:	00241e13          	slli	x28,x8,0x2
     b40:	00239b13          	slli	x22,x7,0x2
     b44:	00279c13          	slli	x24,x15,0x2
     b48:	00229b93          	slli	x23,x5,0x2
     b4c:	014a80b3          	add	x1,x21,x20
     b50:	013a8eb3          	add	x29,x21,x19
     b54:	01ca8433          	add	x8,x21,x28
     b58:	016a83b3          	add	x7,x21,x22
     b5c:	00ea8a33          	add	x20,x21,x14
     b60:	018a87b3          	add	x15,x21,x24
     b64:	017a82b3          	add	x5,x21,x23
     b68:	00ca8ab3          	add	x21,x21,x12
     b6c:	0000a787          	flw	f15,0(x1) # 3fc0000 <.L158+0x3fbee8c>
     b70:	000ea187          	flw	f3,0(x29) # 1000000 <.L158+0xffee8c>
     b74:	00042107          	flw	f2,0(x8)
     b78:	0003a087          	flw	f1,0(x7) # 8000000 <.L158+0x7ffee8c>
     b7c:	000a2007          	flw	f0,0(x20) # 8000000 <.L158+0x7ffee8c>
     b80:	0007a507          	flw	f10,0(x15)
     b84:	0002a587          	flw	f11,0(x5)
     b88:	000aa607          	flw	f12,0(x21) # 20000000 <.L158+0x1fffee8c>
     b8c:	0021f253          	fadd.s	f4,f3,f2
     b90:	008f8f93          	addi	x31,x31,8 # 1000008 <.L158+0xffee94>
     b94:	00f272d3          	fadd.s	f5,f4,f15
     b98:	0012f353          	fadd.s	f6,f5,f1
     b9c:	000373d3          	fadd.s	f7,f6,f0
     ba0:	00a3f853          	fadd.s	f16,f7,f10
     ba4:	00b878d3          	fadd.s	f17,f16,f11
     ba8:	00c8fe53          	fadd.s	f28,f17,f12
     bac:	01c6f6d3          	fadd.s	f13,f13,f28
     bb0:	f26fe4e3          	bltu	x31,x6,ad8 <.L94>
     bb4:	008f0413          	addi	x8,x30,8
     bb8:	a61ff06f          	j	618 <.L95>

00000bbc <.L71>:
     bbc:	000006b7          	lui	x13,0x0
     bc0:	00000537          	lui	x10,0x0
     bc4:	00050593          	mv	x11,x10
     bc8:	0ef00613          	li	x12,239
     bcc:	00068513          	mv	x10,x13
     bd0:	00000097          	auipc	x1,0x0
     bd4:	000080e7          	jalr	x1 # bd0 <.L71+0x14>
     bd8:	000005b7          	lui	x11,0x0
     bdc:	00058513          	mv	x10,x11
     be0:	00000097          	auipc	x1,0x0
     be4:	000080e7          	jalr	x1 # be0 <.L71+0x24>
     be8:	0004a483          	lw	x9,0(x9)
     bec:	00092903          	lw	x18,0(x18)
     bf0:	4100fcb7          	lui	x25,0x4100f
     bf4:	01049813          	slli	x16,x9,0x10
     bf8:	01280d33          	add	x26,x16,x18
     bfc:	adacac23          	sw	x26,-1320(x25) # 4100ead8 <.L158+0x4100d964>

00000c00 <.L120>:
     c00:	0000006f          	j	c00 <.L120>

00000c04 <.L21>:
     c04:	07810b13          	addi	x22,x2,120
     c08:	00010793          	mv	x15,x2
     c0c:	000b0e93          	mv	x29,x22

00000c10 <.L147>:
     c10:	0007ab83          	lw	x23,0(x15)
     c14:	0047ac03          	lw	x24,4(x15)
     c18:	0087ac83          	lw	x25,8(x15)
     c1c:	00c7ad03          	lw	x26,12(x15)
     c20:	0107ae03          	lw	x28,16(x15)
     c24:	017ea023          	sw	x23,0(x29)
     c28:	018ea223          	sw	x24,4(x29)
     c2c:	019ea423          	sw	x25,8(x29)
     c30:	01aea623          	sw	x26,12(x29)
     c34:	01cea823          	sw	x28,16(x29)
     c38:	01478793          	addi	x15,x15,20
     c3c:	014e8e93          	addi	x29,x29,20
     c40:	fc8798e3          	bne	x15,x8,c10 <.L147>
     c44:	0b410713          	addi	x14,x2,180

00000c48 <.L148>:
     c48:	0007a403          	lw	x8,0(x15)
     c4c:	0047af03          	lw	x30,4(x15)
     c50:	0087af83          	lw	x31,8(x15)
     c54:	00c7a283          	lw	x5,12(x15)
     c58:	0107a883          	lw	x17,16(x15)
     c5c:	00872023          	sw	x8,0(x14)
     c60:	01e72223          	sw	x30,4(x14)
     c64:	01f72423          	sw	x31,8(x14)
     c68:	00572623          	sw	x5,12(x14)
     c6c:	01172823          	sw	x17,16(x14)
     c70:	01478793          	addi	x15,x15,20
     c74:	01470713          	addi	x14,x14,20
     c78:	fd6798e3          	bne	x15,x22,c48 <.L148>
     c7c:	07812403          	lw	x8,120(x2)
     c80:	00100613          	li	x12,1
     c84:	14c40663          	beq	x8,x12,dd0 <.L246>
     c88:	00300313          	li	x6,3
     c8c:	da699c63          	bne	x19,x6,244 <.L154>
     c90:	04ca0a63          	beq	x20,x12,ce4 <.L247>
     c94:	00200993          	li	x19,2
     c98:	433a0063          	beq	x20,x19,10b8 <.L248>
     c9c:	000005b7          	lui	x11,0x0
     ca0:	00000537          	lui	x10,0x0
     ca4:	0eb00613          	li	x12,235
     ca8:	00058593          	mv	x11,x11
     cac:	00050513          	mv	x10,x10
     cb0:	00000097          	auipc	x1,0x0
     cb4:	000080e7          	jalr	x1 # cb0 <.L148+0x68>
     cb8:	000006b7          	lui	x13,0x0
     cbc:	00068513          	mv	x10,x13
     cc0:	00000097          	auipc	x1,0x0
     cc4:	000080e7          	jalr	x1 # cc0 <.L148+0x78>
     cc8:	0004a483          	lw	x9,0(x9)
     ccc:	00092903          	lw	x18,0(x18)
     cd0:	4100f3b7          	lui	x7,0x4100f
     cd4:	01049813          	slli	x16,x9,0x10
     cd8:	01280a33          	add	x20,x16,x18
     cdc:	ad43ac23          	sw	x20,-1320(x7) # 4100ead8 <.L158+0x4100d964>

00000ce0 <.L119>:
     ce0:	0000006f          	j	ce0 <.L119>

00000ce4 <.L247>:
     ce4:	fff40e93          	addi	x29,x8,-1
     ce8:	ffd00a13          	li	x20,-3
     cec:	99da68e3          	bltu	x20,x29,67c <.L227>
     cf0:	00000fb7          	lui	x31,0x0
     cf4:	000fa983          	lw	x19,0(x31) # 0 <tensorlib_sum>
     cf8:	00745713          	srli	x14,x8,0x7
     cfc:	00170093          	addi	x1,x14,1
     d00:	07f9f393          	andi	x7,x19,127
     d04:	02138333          	mul	x6,x7,x1
     d08:	00608eb3          	add	x29,x1,x6
     d0c:	01d47463          	bgeu	x8,x29,d14 <.L101>
     d10:	00040e93          	mv	x29,x8

00000d14 <.L101>:
     d14:	97d374e3          	bgeu	x6,x29,67c <.L227>
     d18:	ff780413          	addi	x8,x16,-9
     d1c:	00100f13          	li	x30,1
     d20:	01000f93          	li	x31,16
     d24:	ff880e13          	addi	x28,x16,-8
     d28:	ff847293          	andi	x5,x8,-8

00000d2c <.L111>:
     d2c:	0b812a83          	lw	x21,184(x2)
     d30:	335f7e63          	bgeu	x30,x21,106c <.L249>
     d34:	0c012b03          	lw	x22,192(x2)
     d38:	f0000f53          	fmv.w.x	f30,x0
     d3c:	004b2b83          	lw	x23,4(x22)
     d40:	03737633          	remu	x12,x6,x23
     d44:	037358b3          	divu	x17,x6,x23
     d48:	230fe863          	bltu	x31,x16,f78 <.L105>
     d4c:	00000793          	li	x15,0

00000d50 <.L109>:
     d50:	0507f663          	bgeu	x15,x16,d9c <.L106>
     d54:	0bc12403          	lw	x8,188(x2)
     d58:	0c412383          	lw	x7,196(x2)
     d5c:	00442703          	lw	x14,4(x8)
     d60:	00842983          	lw	x19,8(x8)
     d64:	00042d03          	lw	x26,0(x8)
     d68:	002d1c93          	slli	x25,x26,0x2
     d6c:	02e60b33          	mul	x22,x12,x14
     d70:	03388bb3          	mul	x23,x17,x19
     d74:	02fd00b3          	mul	x1,x26,x15
     d78:	017b0ab3          	add	x21,x22,x23
     d7c:	001a8a33          	add	x20,x21,x1
     d80:	002a1c13          	slli	x24,x20,0x2
     d84:	01838433          	add	x8,x7,x24

00000d88 <.L110>:
     d88:	00042e87          	flw	f29,0(x8)
     d8c:	00178793          	addi	x15,x15,1
     d90:	01940433          	add	x8,x8,x25
     d94:	01df7f53          	fadd.s	f30,f30,f29
     d98:	ff0798e3          	bne	x15,x16,d88 <.L110>

00000d9c <.L106>:
     d9c:	08012703          	lw	x14,128(x2)
     da0:	08812b83          	lw	x23,136(x2)
     da4:	00130313          	addi	x6,x6,1
     da8:	00472983          	lw	x19,4(x14)
     dac:	00872d03          	lw	x26,8(x14)
     db0:	03360633          	mul	x12,x12,x19
     db4:	03a888b3          	mul	x17,x17,x26
     db8:	01160b33          	add	x22,x12,x17
     dbc:	002b1c93          	slli	x25,x22,0x2
     dc0:	019b80b3          	add	x1,x23,x25
     dc4:	01e0a027          	fsw	f30,0(x1)
     dc8:	f66e92e3          	bne	x29,x6,d2c <.L111>
     dcc:	8b1ff06f          	j	67c <.L227>

00000dd0 <.L246>:
     dd0:	0b412f83          	lw	x31,180(x2)
     dd4:	00000a37          	lui	x20,0x0
     dd8:	000002b7          	lui	x5,0x0
     ddc:	ffff8e13          	addi	x28,x31,-1
     de0:	ffd00c13          	li	x24,-3
     de4:	000a2783          	lw	x15,0(x20) # 0 <tensorlib_sum>
     de8:	08812f03          	lw	x30,136(x2)
     dec:	0bc12d03          	lw	x26,188(x2)
     df0:	0c412a83          	lw	x21,196(x2)
     df4:	0002aa03          	lw	x20,0(x5) # 0 <tensorlib_sum>
     df8:	f0000fd3          	fmv.w.x	f31,x0
     dfc:	dfcc6c63          	bltu	x24,x28,3f4 <.L30>
     e00:	007fd393          	srli	x7,x31,0x7
     e04:	00138413          	addi	x8,x7,1
     e08:	07fa7713          	andi	x14,x20,127
     e0c:	028703b3          	mul	x7,x14,x8
     e10:	00740b33          	add	x22,x8,x7
     e14:	016ff463          	bgeu	x31,x22,e1c <.L31>
     e18:	000f8b13          	mv	x22,x31

00000e1c <.L31>:
     e1c:	f0000fd3          	fmv.w.x	f31,x0
     e20:	dd63fa63          	bgeu	x7,x22,3f4 <.L30>
     e24:	0c012c83          	lw	x25,192(x2)
     e28:	00299313          	slli	x6,x19,0x2
     e2c:	019309b3          	add	x19,x6,x25

00000e30 <.L34>:
     e30:	000d0893          	mv	x17,x26
     e34:	000c8e93          	mv	x29,x25
     e38:	00038813          	mv	x16,x7
     e3c:	00000e13          	li	x28,0

00000e40 <.L33>:
     e40:	000eab83          	lw	x23,0(x29)
     e44:	0008a083          	lw	x1,0(x17) # 0 <tensorlib_sum>
     e48:	004e8e93          	addi	x29,x29,4
     e4c:	03787633          	remu	x12,x16,x23
     e50:	00488893          	addi	x17,x17,4
     e54:	02160fb3          	mul	x31,x12,x1
     e58:	03785833          	divu	x16,x16,x23
     e5c:	01fe0e33          	add	x28,x28,x31
     e60:	ffd990e3          	bne	x19,x29,e40 <.L33>
     e64:	002e1c13          	slli	x24,x28,0x2
     e68:	018a8433          	add	x8,x21,x24
     e6c:	00042707          	flw	f14,0(x8)
     e70:	00138393          	addi	x7,x7,1
     e74:	00efffd3          	fadd.s	f31,f31,f14
     e78:	fa7b1ce3          	bne	x22,x7,e30 <.L34>
     e7c:	d78ff06f          	j	3f4 <.L30>

00000e80 <.L74>:
     e80:	fff40a93          	addi	x21,x8,-1
     e84:	ffd00f93          	li	x31,-3
     e88:	ff5fea63          	bltu	x31,x21,67c <.L227>
     e8c:	000009b7          	lui	x19,0x0
     e90:	0009a803          	lw	x16,0(x19) # 0 <tensorlib_sum>
     e94:	00745d13          	srli	x26,x8,0x7
     e98:	001d0c93          	addi	x25,x26,1
     e9c:	07f87f13          	andi	x30,x16,127
     ea0:	039f0d33          	mul	x26,x30,x25
     ea4:	01ac8b33          	add	x22,x25,x26
     ea8:	01647463          	bgeu	x8,x22,eb0 <.L77>
     eac:	00040b13          	mv	x22,x8

00000eb0 <.L77>:
     eb0:	fd6d7663          	bgeu	x26,x22,67c <.L227>
     eb4:	068d7a63          	bgeu	x26,x8,f28 <.L79>
     eb8:	0bc12e03          	lw	x28,188(x2)
     ebc:	001d0c13          	addi	x24,x26,1
     ec0:	0c412b83          	lw	x23,196(x2)
     ec4:	000e2303          	lw	x6,0(x28)
     ec8:	07c12703          	lw	x14,124(x2)
     ecc:	08812083          	lw	x1,136(x2)
     ed0:	00231e93          	slli	x29,x6,0x2
     ed4:	03dd03b3          	mul	x7,x26,x29
     ed8:	08012a03          	lw	x20,128(x2)
     edc:	00100793          	li	x15,1
     ee0:	03dc02b3          	mul	x5,x24,x29
     ee4:	007b8633          	add	x12,x23,x7
     ee8:	00062f07          	flw	f30,0(x12)
     eec:	005b88b3          	add	x17,x23,x5
     ef0:	0100006f          	j	f00 <.L83>

00000ef4 <.L81>:
     ef4:	0008af07          	flw	f30,0(x17)
     ef8:	001c0c13          	addi	x24,x24,1
     efc:	01d888b3          	add	x17,x17,x29

00000f00 <.L83>:
     f00:	002d1813          	slli	x16,x26,0x2
     f04:	00f71863          	bne	x14,x15,f14 <.L226>
     f08:	000a2a83          	lw	x21,0(x20)
     f0c:	035d0fb3          	mul	x31,x26,x21
     f10:	002f9813          	slli	x16,x31,0x2

00000f14 <.L226>:
     f14:	010089b3          	add	x19,x1,x16
     f18:	01e9a027          	fsw	f30,0(x19)
     f1c:	000c0d13          	mv	x26,x24
     f20:	f58b0e63          	beq	x22,x24,67c <.L227>
     f24:	fc8c18e3          	bne	x24,x8,ef4 <.L81>

00000f28 <.L79>:
     f28:	000006b7          	lui	x13,0x0
     f2c:	00000537          	lui	x10,0x0
     f30:	00050593          	mv	x11,x10
     f34:	08c00613          	li	x12,140
     f38:	00068513          	mv	x10,x13
     f3c:	00000097          	auipc	x1,0x0
     f40:	000080e7          	jalr	x1 # f3c <.L79+0x14>
     f44:	00040593          	mv	x11,x8
     f48:	00000437          	lui	x8,0x0
     f4c:	000d0613          	mv	x12,x26
     f50:	00040513          	mv	x10,x8
     f54:	00000097          	auipc	x1,0x0
     f58:	000080e7          	jalr	x1 # f54 <.L79+0x2c>
     f5c:	0004a583          	lw	x11,0(x9)
     f60:	00092483          	lw	x9,0(x18)
     f64:	4100ff37          	lui	x30,0x4100f
     f68:	01059913          	slli	x18,x11,0x10
     f6c:	00990cb3          	add	x25,x18,x9
     f70:	ad9f2c23          	sw	x25,-1320(x30) # 4100ead8 <.L158+0x4100d964>

00000f74 <.L82>:
     f74:	0000006f          	j	f74 <.L82>

00000f78 <.L105>:
     f78:	00000393          	li	x7,0

00000f7c <.L108>:
     f7c:	0bc12c83          	lw	x25,188(x2)
     f80:	0c412c03          	lw	x24,196(x2)
     f84:	000ca703          	lw	x14,0(x25)
     f88:	004cad03          	lw	x26,4(x25)
     f8c:	008ca783          	lw	x15,8(x25)
     f90:	02e380b3          	mul	x1,x7,x14
     f94:	03a60bb3          	mul	x23,x12,x26
     f98:	00170b33          	add	x22,x14,x1
     f9c:	01670ab3          	add	x21,x14,x22
     fa0:	01570a33          	add	x20,x14,x21
     fa4:	014709b3          	add	x19,x14,x20
     fa8:	01370433          	add	x8,x14,x19
     fac:	00870cb3          	add	x25,x14,x8
     fb0:	02f88d33          	mul	x26,x17,x15
     fb4:	01ab87b3          	add	x15,x23,x26
     fb8:	00e78733          	add	x14,x15,x14
     fbc:	001780b3          	add	x1,x15,x1
     fc0:	01678b33          	add	x22,x15,x22
     fc4:	01978d33          	add	x26,x15,x25
     fc8:	01578ab3          	add	x21,x15,x21
     fcc:	01478a33          	add	x20,x15,x20
     fd0:	013789b3          	add	x19,x15,x19
     fd4:	00878433          	add	x8,x15,x8
     fd8:	01970cb3          	add	x25,x14,x25
     fdc:	00209b93          	slli	x23,x1,0x2
     fe0:	002d1793          	slli	x15,x26,0x2
     fe4:	002c9713          	slli	x14,x25,0x2
     fe8:	002b1093          	slli	x1,x22,0x2
     fec:	002a9a93          	slli	x21,x21,0x2
     ff0:	002a1a13          	slli	x20,x20,0x2
     ff4:	00299993          	slli	x19,x19,0x2
     ff8:	00241413          	slli	x8,x8,0x2
     ffc:	017c0d33          	add	x26,x24,x23
    1000:	001c0b33          	add	x22,x24,x1
    1004:	015c0cb3          	add	x25,x24,x21
    1008:	014c0bb3          	add	x23,x24,x20
    100c:	013c00b3          	add	x1,x24,x19
    1010:	008c0ab3          	add	x21,x24,x8
    1014:	00fc0a33          	add	x20,x24,x15
    1018:	00ec0c33          	add	x24,x24,x14
    101c:	000d2087          	flw	f1,0(x26)
    1020:	000b2187          	flw	f3,0(x22)
    1024:	000ca107          	flw	f2,0(x25)
    1028:	000ba007          	flw	f0,0(x23) # 0 <tensorlib_sum>
    102c:	0000a507          	flw	f10,0(x1)
    1030:	000aa587          	flw	f11,0(x21)
    1034:	000a2607          	flw	f12,0(x20)
    1038:	000c2687          	flw	f13,0(x24)
    103c:	0021f253          	fadd.s	f4,f3,f2
    1040:	00838393          	addi	x7,x7,8
    1044:	001272d3          	fadd.s	f5,f4,f1
    1048:	0002f353          	fadd.s	f6,f5,f0
    104c:	00a373d3          	fadd.s	f7,f6,f10
    1050:	00b3f853          	fadd.s	f16,f7,f11
    1054:	00c878d3          	fadd.s	f17,f16,f12
    1058:	00d8fe53          	fadd.s	f28,f17,f13
    105c:	01cf7f53          	fadd.s	f30,f30,f28
    1060:	f1c3eee3          	bltu	x7,x28,f7c <.L108>
    1064:	00828793          	addi	x15,x5,8
    1068:	ce9ff06f          	j	d50 <.L109>

0000106c <.L249>:
    106c:	000005b7          	lui	x11,0x0
    1070:	00000537          	lui	x10,0x0
    1074:	06f00613          	li	x12,111
    1078:	00058593          	mv	x11,x11
    107c:	00050513          	mv	x10,x10
    1080:	00000097          	auipc	x1,0x0
    1084:	000080e7          	jalr	x1 # 1080 <.L249+0x14>
    1088:	000006b7          	lui	x13,0x0
    108c:	000a8593          	mv	x11,x21
    1090:	00068513          	mv	x10,x13
    1094:	00000097          	auipc	x1,0x0
    1098:	000080e7          	jalr	x1 # 1094 <.L249+0x28>
    109c:	0004a483          	lw	x9,0(x9)
    10a0:	00092903          	lw	x18,0(x18)
    10a4:	4100ff37          	lui	x30,0x4100f
    10a8:	01049813          	slli	x16,x9,0x10
    10ac:	01280eb3          	add	x29,x16,x18
    10b0:	addf2c23          	sw	x29,-1320(x30) # 4100ead8 <.L158+0x4100d964>

000010b4 <.L104>:
    10b4:	0000006f          	j	10b4 <.L104>

000010b8 <.L248>:
    10b8:	fff40093          	addi	x1,x8,-1
    10bc:	ffd00a93          	li	x21,-3
    10c0:	da1aee63          	bltu	x21,x1,67c <.L227>
    10c4:	00000b37          	lui	x22,0x0
    10c8:	000b2b83          	lw	x23,0(x22) # 0 <tensorlib_sum>
    10cc:	00745c13          	srli	x24,x8,0x7
    10d0:	001c0c93          	addi	x25,x24,1
    10d4:	07fbfd13          	andi	x26,x23,127
    10d8:	039d08b3          	mul	x17,x26,x25
    10dc:	011c8eb3          	add	x29,x25,x17
    10e0:	01d47463          	bgeu	x8,x29,10e8 <.L114>
    10e4:	00040e93          	mv	x29,x8

000010e8 <.L114>:
    10e8:	d9d8fa63          	bgeu	x17,x29,67c <.L227>
    10ec:	08012e03          	lw	x28,128(x2)
    10f0:	08812783          	lw	x15,136(x2)
    10f4:	0c012a03          	lw	x20,192(x2)
    10f8:	008e2f03          	lw	x30,8(x28)
    10fc:	0bc12f83          	lw	x31,188(x2)
    1100:	0c412403          	lw	x8,196(x2)
    1104:	002f1993          	slli	x19,x30,0x2
    1108:	033882b3          	mul	x5,x17,x19
    110c:	00578f33          	add	x30,x15,x5

00001110 <.L118>:
    1110:	06080263          	beqz	x16,1174 <.L158>
    1114:	008fa703          	lw	x14,8(x31)
    1118:	000a2083          	lw	x1,0(x20)
    111c:	000fa383          	lw	x7,0(x31)
    1120:	02e88333          	mul	x6,x17,x14
    1124:	004faa83          	lw	x21,4(x31)
    1128:	f00007d3          	fmv.w.x	f15,x0
    112c:	00000b93          	li	x23,0

00001130 <.L117>:
    1130:	021bfb33          	remu	x22,x23,x1
    1134:	021bd633          	divu	x12,x23,x1
    1138:	001b8b93          	addi	x23,x23,1
    113c:	027b0c33          	mul	x24,x22,x7
    1140:	03560cb3          	mul	x25,x12,x21
    1144:	01830d33          	add	x26,x6,x24
    1148:	019d0e33          	add	x28,x26,x25
    114c:	002e1293          	slli	x5,x28,0x2
    1150:	005407b3          	add	x15,x8,x5
    1154:	0007a707          	flw	f14,0(x15)
    1158:	00e7f7d3          	fadd.s	f15,f15,f14
    115c:	fd0b9ae3          	bne	x23,x16,1130 <.L117>

00001160 <.L116>:
    1160:	00ff2027          	fsw	f15,0(x30)
    1164:	00188893          	addi	x17,x17,1
    1168:	013f0f33          	add	x30,x30,x19
    116c:	fb1e92e3          	bne	x29,x17,1110 <.L118>
    1170:	d0cff06f          	j	67c <.L227>

00001174 <.L158>:
    1174:	f00007d3          	fmv.w.x	f15,x0
    1178:	fe9ff06f          	j	1160 <.L116>

Disassembly of section .text._ZN8HBTensorIfLln1EEC2EP11hb_tensor_t:

00000000 <_ZN8HBTensorIfLln1EEC1EP11hb_tensor_t>:
   0:	00058713          	mv	x14,x11
   4:	0045a683          	lw	x13,4(x11) # 4 <_ZN8HBTensorIfLln1EEC1EP11hb_tensor_t+0x4>
   8:	00072803          	lw	x16,0(x14)
   c:	0105a583          	lw	x11,16(x11)
  10:	00050793          	mv	x15,x10
  14:	02850613          	addi	x12,x10,40 # 28 <_ZN8HBTensorIfLln1EEC1EP11hb_tensor_t+0x28>
  18:	01450513          	addi	x10,x10,20
  1c:	0107a023          	sw	x16,0(x15)
  20:	00d7a223          	sw	x13,4(x15)
  24:	00a7a423          	sw	x10,8(x15)
  28:	00c7a623          	sw	x12,12(x15)
  2c:	00b7a823          	sw	x11,16(x15)
  30:	00060613          	mv	x12,x12
  34:	00500293          	li	x5,5
  38:	04d2e463          	bltu	x5,x13,80 <.L14>
  3c:	00872303          	lw	x6,8(x14)
  40:	00c72383          	lw	x7,12(x14)
  44:	02068c63          	beqz	x13,7c <.L1>
  48:	00269893          	slli	x17,x13,0x2
  4c:	00078713          	mv	x14,x15
  50:	01178e33          	add	x28,x15,x17
  54:	40f30eb3          	sub	x29,x6,x15
  58:	40f38f33          	sub	x30,x7,x15

0000005c <.L5>:
  5c:	00ee8fb3          	add	x31,x29,x14
  60:	000fa683          	lw	x13,0(x31)
  64:	00ef05b3          	add	x11,x30,x14
  68:	00470713          	addi	x14,x14,4
  6c:	00d72823          	sw	x13,16(x14)
  70:	0005a803          	lw	x16,0(x11)
  74:	03072223          	sw	x16,36(x14)
  78:	ffc712e3          	bne	x14,x28,5c <.L5>

0000007c <.L1>:
  7c:	00008067          	ret

00000080 <.L14>:
  80:	ff010113          	addi	x2,x2,-16
  84:	000007b7          	lui	x15,0x0
  88:	00112623          	sw	x1,12(x2)
  8c:	000000b7          	lui	x1,0x0
  90:	0d800613          	li	x12,216
  94:	00008593          	mv	x11,x1
  98:	00078513          	mv	x10,x15
  9c:	00000097          	auipc	x1,0x0
  a0:	000080e7          	jalr	x1 # 9c <.L14+0x1c>
  a4:	00000637          	lui	x12,0x0
  a8:	00060513          	mv	x10,x12
  ac:	00000097          	auipc	x1,0x0
  b0:	000080e7          	jalr	x1 # ac <.L14+0x2c>
  b4:	00000537          	lui	x10,0x0
  b8:	00052283          	lw	x5,0(x10) # 0 <_ZN8HBTensorIfLln1EEC1EP11hb_tensor_t>
  bc:	00000337          	lui	x6,0x0
  c0:	00032383          	lw	x7,0(x6) # 0 <_ZN8HBTensorIfLln1EEC1EP11hb_tensor_t>
  c4:	01029893          	slli	x17,x5,0x10
  c8:	4100feb7          	lui	x29,0x4100f
  cc:	00788e33          	add	x28,x17,x7
  d0:	adceac23          	sw	x28,-1320(x29) # 4100ead8 <.L158+0x4100d964>

000000d4 <.L3>:
  d4:	0000006f          	j	d4 <.L3>
