
kernel_mean.o:     file format elf32-littleriscv


Disassembly of section .group:

00000000 <_ZN8HBTensorIfLln1EEC5EP11hb_tensor_t>:
   0:	0001                	nop
   2:	0000                	unimp
   4:	00000007          	0x7
   8:	0008                	0x8
	...

Disassembly of section .text:

00000000 <tensorlib_mean>:
       0:	ed010113          	addi	x2,x2,-304
       4:	00050793          	mv	x15,x10
       8:	12912223          	sw	x9,292(x2)
       c:	01010513          	addi	x10,x2,16
      10:	00058493          	mv	x9,x11
      14:	00078593          	mv	x11,x15
      18:	12112623          	sw	x1,300(x2)
      1c:	12812423          	sw	x8,296(x2)
      20:	13212023          	sw	x18,288(x2)
      24:	11312e23          	sw	x19,284(x2)
      28:	11412c23          	sw	x20,280(x2)
      2c:	11512a23          	sw	x21,276(x2)
      30:	00060a13          	mv	x20,x12
      34:	11612823          	sw	x22,272(x2)
      38:	11712623          	sw	x23,268(x2)
      3c:	11812423          	sw	x24,264(x2)
      40:	11912223          	sw	x25,260(x2)
      44:	11a12023          	sw	x26,256(x2)
      48:	04c10413          	addi	x8,x2,76
      4c:	00000097          	auipc	x1,0x0
      50:	000080e7          	jalr	x1 # 4c <tensorlib_mean+0x4c>
      54:	00048593          	mv	x11,x9
      58:	00040513          	mv	x10,x8
      5c:	00000097          	auipc	x1,0x0
      60:	000080e7          	jalr	x1 # 5c <tensorlib_mean+0x5c>
      64:	000004b7          	lui	x9,0x0
      68:	000005b7          	lui	x11,0x0
      6c:	000006b7          	lui	x13,0x0
      70:	00000937          	lui	x18,0x0
      74:	0005a283          	lw	x5,0(x11) # 0 <tensorlib_mean>
      78:	0004a883          	lw	x17,0(x9) # 0 <tensorlib_mean>
      7c:	0006a703          	lw	x14,0(x13) # 0 <tensorlib_mean>
      80:	00092603          	lw	x12,0(x18) # 0 <tensorlib_mean>
      84:	00000537          	lui	x10,0x0
      88:	00052803          	lw	x16,0(x10) # 0 <tensorlib_mean>
      8c:	01128333          	add	x6,x5,x17
      90:	00c703b3          	add	x7,x14,x12
      94:	01831993          	slli	x19,x6,0x18
      98:	01239a93          	slli	x21,x7,0x12
      9c:	3f000b37          	lui	x22,0x3f000
      a0:	00fc0c37          	lui	x24,0xfc0
      a4:	00040eb7          	lui	x29,0x40
      a8:	0169fbb3          	and	x23,x19,x22
      ac:	018afcb3          	and	x25,x21,x24
      b0:	00481d13          	slli	x26,x16,0x4
      b4:	ff0e8f13          	addi	x30,x29,-16 # 3fff0 <.L271+0x3ee24>
      b8:	019bee33          	or	x28,x23,x25
      bc:	01ed7fb3          	and	x31,x26,x30
      c0:	05012983          	lw	x19,80(x2)
      c4:	01fe67b3          	or	x15,x28,x31
      c8:	800002b7          	lui	x5,0x80000
      cc:	000a2603          	lw	x12,0(x20)
      d0:	0057e8b3          	or	x17,x15,x5
      d4:	41001a37          	lui	x20,0x41001
      d8:	00100713          	li	x14,1
      dc:	d11a2623          	sw	x17,-756(x20) # 41000d0c <.L271+0x40fffb40>
      e0:	05812303          	lw	x6,88(x2)
      e4:	0ce98463          	beq	x19,x14,1ac <.L261>
      e8:	06098c63          	beqz	x19,160 <.L262>
      ec:	00032a03          	lw	x20,0(x6)
      f0:	0cc774e3          	bgeu	x14,x12,9b8 <.L21>
      f4:	00430393          	addi	x7,x6,4
      f8:	00100813          	li	x16,1

000000fc <.L23>:
      fc:	0003a083          	lw	x1,0(x7)
     100:	00180813          	addi	x16,x16,1
     104:	00438393          	addi	x7,x7,4
     108:	021a0a33          	mul	x20,x20,x1
     10c:	0ac806e3          	beq	x16,x12,9b8 <.L21>
     110:	ff3816e3          	bne	x16,x19,fc <.L23>

00000114 <.L152>:
     114:	000006b7          	lui	x13,0x0
     118:	00000537          	lui	x10,0x0
     11c:	00050593          	mv	x11,x10
     120:	06b00613          	li	x12,107
     124:	00068513          	mv	x10,x13
     128:	00000097          	auipc	x1,0x0
     12c:	000080e7          	jalr	x1 # 128 <.L152+0x14>
     130:	00000437          	lui	x8,0x0
     134:	00098593          	mv	x11,x19
     138:	00040513          	mv	x10,x8
     13c:	00000097          	auipc	x1,0x0
     140:	000080e7          	jalr	x1 # 13c <.L152+0x28>
     144:	0004a483          	lw	x9,0(x9)
     148:	00092583          	lw	x11,0(x18)
     14c:	4100feb7          	lui	x29,0x4100f
     150:	01049913          	slli	x18,x9,0x10
     154:	00b907b3          	add	x15,x18,x11
     158:	acfeac23          	sw	x15,-1320(x29) # 4100ead8 <.L271+0x4100d90c>

0000015c <.L24>:
     15c:	0000006f          	j	15c <.L24>

00000160 <.L262>:
     160:	000009b7          	lui	x19,0x0
     164:	00000a37          	lui	x20,0x0
     168:	06b00613          	li	x12,107
     16c:	00098593          	mv	x11,x19
     170:	000a0513          	mv	x10,x20
     174:	00000097          	auipc	x1,0x0
     178:	000080e7          	jalr	x1 # 174 <.L262+0x14>
     17c:	00000cb7          	lui	x25,0x0
     180:	00000593          	li	x11,0
     184:	000c8513          	mv	x10,x25
     188:	00000097          	auipc	x1,0x0
     18c:	000080e7          	jalr	x1 # 188 <.L262+0x28>
     190:	0004a283          	lw	x5,0(x9)
     194:	00092b83          	lw	x23,0(x18)
     198:	4100ff37          	lui	x30,0x4100f
     19c:	01029b13          	slli	x22,x5,0x10
     1a0:	017b0d33          	add	x26,x22,x23
     1a4:	adaf2c23          	sw	x26,-1320(x30) # 4100ead8 <.L271+0x4100d90c>

000001a8 <.L20>:
     1a8:	0000006f          	j	1a8 <.L20>

000001ac <.L261>:
     1ac:	04c12383          	lw	x7,76(x2)
     1b0:	01012083          	lw	x1,16(x2)
     1b4:	0c138063          	beq	x7,x1,274 <.L263>
     1b8:	00032a83          	lw	x21,0(x6)
     1bc:	f4c9ece3          	bltu	x19,x12,114 <.L152>
     1c0:	08810c13          	addi	x24,x2,136
     1c4:	01512623          	sw	x21,12(x2)
     1c8:	01010b93          	addi	x23,x2,16
     1cc:	000c0713          	mv	x14,x24

000001d0 <.L154>:
     1d0:	000bae03          	lw	x28,0(x23)
     1d4:	004ba303          	lw	x6,4(x23)
     1d8:	008ba883          	lw	x17,8(x23)
     1dc:	00cba803          	lw	x16,12(x23)
     1e0:	010ba603          	lw	x12,16(x23)
     1e4:	01c72023          	sw	x28,0(x14)
     1e8:	00672223          	sw	x6,4(x14)
     1ec:	01172423          	sw	x17,8(x14)
     1f0:	01072623          	sw	x16,12(x14)
     1f4:	00c72823          	sw	x12,16(x14)
     1f8:	014b8b93          	addi	x23,x23,20
     1fc:	01470713          	addi	x14,x14,20
     200:	fc8b98e3          	bne	x23,x8,1d0 <.L154>
     204:	0c410b13          	addi	x22,x2,196

00000208 <.L155>:
     208:	000baf83          	lw	x31,0(x23)
     20c:	004ba983          	lw	x19,4(x23)
     210:	008baa03          	lw	x20,8(x23)
     214:	00cbac83          	lw	x25,12(x23)
     218:	010ba283          	lw	x5,16(x23)
     21c:	01fb2023          	sw	x31,0(x22) # 3f000000 <.L271+0x3effee34>
     220:	013b2223          	sw	x19,4(x22)
     224:	014b2423          	sw	x20,8(x22)
     228:	019b2623          	sw	x25,12(x22)
     22c:	005b2823          	sw	x5,16(x22)
     230:	014b8b93          	addi	x23,x23,20
     234:	014b0b13          	addi	x22,x22,20
     238:	fd8b98e3          	bne	x23,x24,208 <.L155>
     23c:	08812a03          	lw	x20,136(x2)
     240:	00100d13          	li	x26,1
     244:	77aa18e3          	bne	x20,x26,11b4 <.L162>
     248:	0c412383          	lw	x7,196(x2)
     24c:	00000f37          	lui	x30,0x0
     250:	00000cb7          	lui	x25,0x0
     254:	000f2d03          	lw	x26,0(x30) # 0 <tensorlib_mean>
     258:	09812283          	lw	x5,152(x2)
     25c:	0cc12083          	lw	x1,204(x2)
     260:	0d412403          	lw	x8,212(x2)
     264:	000caf03          	lw	x30,0(x25) # 0 <tensorlib_mean>
     268:	fff38793          	addi	x15,x7,-1
     26c:	000a8a13          	mv	x20,x21
     270:	1000006f          	j	370 <.L153>

00000274 <.L263>:
     274:	08810a93          	addi	x21,x2,136
     278:	01312623          	sw	x19,12(x2)
     27c:	01010b93          	addi	x23,x2,16
     280:	000a8813          	mv	x16,x21

00000284 <.L147>:
     284:	000bae83          	lw	x29,0(x23)
     288:	004bac03          	lw	x24,4(x23)
     28c:	008bae03          	lw	x28,8(x23)
     290:	00cba303          	lw	x6,12(x23)
     294:	010ba883          	lw	x17,16(x23)
     298:	01d82023          	sw	x29,0(x16)
     29c:	01882223          	sw	x24,4(x16)
     2a0:	01c82423          	sw	x28,8(x16)
     2a4:	00682623          	sw	x6,12(x16)
     2a8:	01182823          	sw	x17,16(x16)
     2ac:	014b8b93          	addi	x23,x23,20
     2b0:	01480813          	addi	x16,x16,20
     2b4:	fc8b98e3          	bne	x23,x8,284 <.L147>
     2b8:	0c410713          	addi	x14,x2,196

000002bc <.L148>:
     2bc:	000baf83          	lw	x31,0(x23)
     2c0:	004baa03          	lw	x20,4(x23)
     2c4:	008bac83          	lw	x25,8(x23)
     2c8:	00cba283          	lw	x5,12(x23)
     2cc:	010ba603          	lw	x12,16(x23)
     2d0:	01f72023          	sw	x31,0(x14)
     2d4:	01472223          	sw	x20,4(x14)
     2d8:	01972423          	sw	x25,8(x14)
     2dc:	00572623          	sw	x5,12(x14)
     2e0:	00c72823          	sw	x12,16(x14)
     2e4:	014b8b93          	addi	x23,x23,20
     2e8:	01470713          	addi	x14,x14,20
     2ec:	fd5b98e3          	bne	x23,x21,2bc <.L148>
     2f0:	08812a03          	lw	x20,136(x2)
     2f4:	00100b13          	li	x22,1
     2f8:	056a0a63          	beq	x20,x22,34c <.L264>

000002fc <.L150>:
     2fc:	0c412d03          	lw	x26,196(x2)
     300:	394d0ce3          	beq	x26,x20,e98 <.L82>
     304:	00000eb7          	lui	x29,0x0
     308:	000009b7          	lui	x19,0x0
     30c:	08d00613          	li	x12,141
     310:	00098593          	mv	x11,x19
     314:	000e8513          	mv	x10,x29
     318:	00000097          	auipc	x1,0x0
     31c:	000080e7          	jalr	x1 # 318 <.L150+0x1c>
     320:	00000e37          	lui	x28,0x0
     324:	000e0513          	mv	x10,x28
     328:	00000097          	auipc	x1,0x0
     32c:	000080e7          	jalr	x1 # 328 <.L150+0x2c>
     330:	0004a303          	lw	x6,0(x9)
     334:	00092803          	lw	x16,0(x18)
     338:	4100f2b7          	lui	x5,0x4100f
     33c:	01031c93          	slli	x25,x6,0x10
     340:	010c88b3          	add	x17,x25,x16
     344:	ad12ac23          	sw	x17,-1320(x5) # 4100ead8 <.L271+0x4100d90c>

00000348 <.L83>:
     348:	0000006f          	j	348 <.L83>

0000034c <.L264>:
     34c:	0c412383          	lw	x7,196(x2)
     350:	00000cb7          	lui	x25,0x0
     354:	00000bb7          	lui	x23,0x0
     358:	09812283          	lw	x5,152(x2)
     35c:	0cc12083          	lw	x1,204(x2)
     360:	0d412403          	lw	x8,212(x2)
     364:	000bad03          	lw	x26,0(x23) # 0 <tensorlib_mean>
     368:	000caf03          	lw	x30,0(x25) # 0 <tensorlib_mean>
     36c:	fff38793          	addi	x15,x7,-1

00000370 <.L153>:
     370:	ffd00713          	li	x14,-3
     374:	0000ab03          	lw	x22,0(x1)
     378:	f00000d3          	fmv.w.x	f1,x0
     37c:	04f76263          	bltu	x14,x15,3c0 <.L34>
     380:	0043df93          	srli	x31,x7,0x4
     384:	001f8613          	addi	x12,x31,1
     388:	03e600b3          	mul	x1,x12,x30
     38c:	00160ab3          	add	x21,x12,x1
     390:	0153f463          	bgeu	x7,x21,398 <.L31>
     394:	00038a93          	mv	x21,x7

00000398 <.L31>:
     398:	f00000d3          	fmv.w.x	f1,x0
     39c:	0350f263          	bgeu	x1,x21,3c0 <.L34>
     3a0:	002b1393          	slli	x7,x22,0x2
     3a4:	027087b3          	mul	x15,x1,x7
     3a8:	00f40433          	add	x8,x8,x15

000003ac <.L33>:
     3ac:	00042587          	flw	f11,0(x8) # 0 <tensorlib_mean>
     3b0:	00108093          	addi	x1,x1,1
     3b4:	00740433          	add	x8,x8,x7
     3b8:	00b0f0d3          	fadd.s	f1,f1,f11
     3bc:	fe1a98e3          	bne	x21,x1,3ac <.L33>

000003c0 <.L34>:
     3c0:	00092c03          	lw	x24,0(x18)
     3c4:	0004a983          	lw	x19,0(x9)
     3c8:	00000bb7          	lui	x23,0x0
     3cc:	004c0e93          	addi	x29,x24,4 # fc0004 <.L271+0xfbee38>
     3d0:	000b8793          	mv	x15,x23
     3d4:	002f1f13          	slli	x30,x30,0x2
     3d8:	01d78e33          	add	x28,x15,x29
     3dc:	01899313          	slli	x6,x19,0x18
     3e0:	01ed0833          	add	x16,x26,x30
     3e4:	006e68b3          	or	x17,x28,x6
     3e8:	20040737          	lui	x14,0x20040
     3ec:	00182027          	fsw	f1,0(x16)
     3f0:	00e8eb33          	or	x22,x17,x14
     3f4:	00100f93          	li	x31,1
     3f8:	01fb0023          	sb	x31,0(x22)
     3fc:	00092403          	lw	x8,0(x18)
     400:	33f40a63          	beq	x8,x31,734 <.L41>

00000404 <.L53>:
     404:	00100613          	li	x12,1
     408:	0100006f          	j	418 <.L57>

0000040c <.L265>:
     40c:	000b8e93          	mv	x29,x23
     410:	140eaf2f          	lr.w.aq	x30,(x29)
     414:	00cf0863          	beq	x30,x12,424 <.L56>

00000418 <.L57>:
     418:	000b8c13          	mv	x24,x23
     41c:	100c29af          	lr.w	x19,(x24)
     420:	fec996e3          	bne	x19,x12,40c <.L265>

00000424 <.L56>:
     424:	000cac83          	lw	x25,0(x25)
     428:	0007a023          	sw	x0,0(x15)
     42c:	020c9663          	bnez	x25,458 <.L58>
     430:	f00003d3          	fmv.w.x	f7,x0
     434:	000d0713          	mv	x14,x26
     438:	040d0d13          	addi	x26,x26,64

0000043c <.L59>:
     43c:	00072607          	flw	f12,0(x14) # 20040000 <.L271+0x2003ee34>
     440:	00470713          	addi	x14,x14,4
     444:	00c3f3d3          	fadd.s	f7,f7,f12
     448:	feed1ae3          	bne	x26,x14,43c <.L59>
     44c:	d01a7853          	fcvt.s.wu	f16,x20
     450:	1903f8d3          	fdiv.s	f17,f7,f16
     454:	0112a027          	fsw	f17,0(x5)

00000458 <.L58>:
     458:	0004aa03          	lw	x20,0(x9)
     45c:	00440293          	addi	x5,x8,4
     460:	00578b33          	add	x22,x15,x5
     464:	018a1e13          	slli	x28,x20,0x18
     468:	016e6333          	or	x6,x28,x22
     46c:	20040fb7          	lui	x31,0x20040
     470:	01f360b3          	or	x1,x6,x31
     474:	00100a93          	li	x21,1
     478:	01508023          	sb	x21,0(x1)
     47c:	00092803          	lw	x16,0(x18)
     480:	1f580263          	beq	x16,x21,664 <.L61>

00000484 <.L73>:
     484:	00100b13          	li	x22,1
     488:	0100006f          	j	498 <.L77>

0000048c <.L266>:
     48c:	000b8a13          	mv	x20,x23
     490:	140a2faf          	lr.w.aq	x31,(x20)
     494:	016f8863          	beq	x31,x22,4a4 <.L76>

00000498 <.L77>:
     498:	000b8e13          	mv	x28,x23
     49c:	100e232f          	lr.w	x6,(x28)
     4a0:	ff6316e3          	bne	x6,x22,48c <.L266>

000004a4 <.L76>:
     4a4:	0007a023          	sw	x0,0(x15)

000004a8 <.L78>:
     4a8:	0005a083          	lw	x1,0(x11)
     4ac:	0004aa83          	lw	x21,0(x9)
     4b0:	0006a583          	lw	x11,0(x13) # 0 <tensorlib_mean>
     4b4:	00092383          	lw	x7,0(x18)
     4b8:	00052503          	lw	x10,0(x10) # 0 <tensorlib_mean>
     4bc:	015086b3          	add	x13,x1,x21
     4c0:	007588b3          	add	x17,x11,x7
     4c4:	01869413          	slli	x8,x13,0x18
     4c8:	01289c13          	slli	x24,x17,0x12
     4cc:	3f0009b7          	lui	x19,0x3f000
     4d0:	00fc0d37          	lui	x26,0xfc0
     4d4:	00040eb7          	lui	x29,0x40
     4d8:	01347cb3          	and	x25,x8,x19
     4dc:	01ac7633          	and	x12,x24,x26
     4e0:	00451713          	slli	x14,x10,0x4
     4e4:	ff0e8813          	addi	x16,x29,-16 # 3fff0 <.L271+0x3ee24>
     4e8:	00ccef33          	or	x30,x25,x12
     4ec:	010772b3          	and	x5,x14,x16
     4f0:	005f6b33          	or	x22,x30,x5
     4f4:	c0000e37          	lui	x28,0xc0000
     4f8:	01cb6333          	or	x6,x22,x28
     4fc:	41001a37          	lui	x20,0x41001
     500:	d06a2623          	sw	x6,-756(x20) # 41000d0c <.L271+0x40fffb40>
     504:	00092f83          	lw	x31,0(x18)
     508:	0004a083          	lw	x1,0(x9)
     50c:	200406b7          	lui	x13,0x20040
     510:	004f8a93          	addi	x21,x31,4 # 20040004 <.L271+0x2003ee38>
     514:	015785b3          	add	x11,x15,x21
     518:	01809393          	slli	x7,x1,0x18
     51c:	0075e533          	or	x10,x11,x7
     520:	00d568b3          	or	x17,x10,x13
     524:	00100413          	li	x8,1
     528:	00888023          	sb	x8,0(x17)
     52c:	00092c03          	lw	x24,0(x18)
     530:	068c0263          	beq	x24,x8,594 <.L130>

00000534 <.L142>:
     534:	00100493          	li	x9,1
     538:	0100006f          	j	548 <.L146>

0000053c <.L267>:
     53c:	000b8613          	mv	x12,x23
     540:	14062b2f          	lr.w.aq	x22,(x12)
     544:	009b0863          	beq	x22,x9,554 <.L145>

00000548 <.L146>:
     548:	000b8813          	mv	x16,x23
     54c:	100822af          	lr.w	x5,(x16)
     550:	fe9296e3          	bne	x5,x9,53c <.L267>

00000554 <.L145>:
     554:	12c12083          	lw	x1,300(x2)
     558:	12812403          	lw	x8,296(x2)
     55c:	0007a023          	sw	x0,0(x15)
     560:	12412483          	lw	x9,292(x2)
     564:	12012903          	lw	x18,288(x2)
     568:	11c12983          	lw	x19,284(x2)
     56c:	11812a03          	lw	x20,280(x2)
     570:	11412a83          	lw	x21,276(x2)
     574:	11012b03          	lw	x22,272(x2)
     578:	10c12b83          	lw	x23,268(x2)
     57c:	10812c03          	lw	x24,264(x2)
     580:	10412c83          	lw	x25,260(x2)
     584:	10012d03          	lw	x26,256(x2)
     588:	00000513          	li	x10,0
     58c:	13010113          	addi	x2,x2,304
     590:	00008067          	ret

00000594 <.L130>:
     594:	0047c983          	lbu	x19,4(x15)
     598:	0ff9fc93          	andi	x25,x19,255
     59c:	fe0c8ce3          	beqz	x25,594 <.L130>
     5a0:	0057cd03          	lbu	x26,5(x15)
     5a4:	0ffd7613          	andi	x12,x26,255
     5a8:	fe0606e3          	beqz	x12,594 <.L130>
     5ac:	0067c703          	lbu	x14,6(x15)
     5b0:	0ff77f13          	andi	x30,x14,255
     5b4:	fe0f00e3          	beqz	x30,594 <.L130>
     5b8:	0077ce83          	lbu	x29,7(x15)
     5bc:	0ffef813          	andi	x16,x29,255
     5c0:	fc080ae3          	beqz	x16,594 <.L130>
     5c4:	0004a283          	lw	x5,0(x9)
     5c8:	21040a37          	lui	x20,0x21040
     5cc:	00100b13          	li	x22,1
     5d0:	00c28e13          	addi	x28,x5,12
     5d4:	01c78333          	add	x6,x15,x28
     5d8:	01436fb3          	or	x31,x6,x20
     5dc:	016f8023          	sb	x22,0(x31)
     5e0:	00092083          	lw	x1,0(x18)
     5e4:	f56098e3          	bne	x1,x22,534 <.L142>
     5e8:	0004af83          	lw	x31,0(x9)
     5ec:	201f8e63          	beq	x31,x1,808 <.L136>

000005f0 <.L141>:
     5f0:	00100093          	li	x1,1
     5f4:	0100006f          	j	604 <.L135>

000005f8 <.L268>:
     5f8:	00878393          	addi	x7,x15,8
     5fc:	1403a52f          	lr.w.aq	x10,(x7)
     600:	00150863          	beq	x10,x1,610 <.L143>

00000604 <.L135>:
     604:	00878a93          	addi	x21,x15,8
     608:	100aa5af          	lr.w	x11,(x21)
     60c:	fe1596e3          	bne	x11,x1,5f8 <.L268>

00000610 <.L143>:
     610:	0007a423          	sw	x0,8(x15)
     614:	00078223          	sb	x0,4(x15)
     618:	000782a3          	sb	x0,5(x15)
     61c:	00078323          	sb	x0,6(x15)
     620:	000783a3          	sb	x0,7(x15)
     624:	0007a023          	sw	x0,0(x15)
     628:	00000d13          	li	x26,0
     62c:	000b8793          	mv	x15,x23
     630:	20000437          	lui	x8,0x20000
     634:	00100893          	li	x17,1
     638:	00040c37          	lui	x24,0x40
     63c:	001009b7          	lui	x19,0x100

00000640 <.L144>:
     640:	0004a683          	lw	x13,0(x9)
     644:	01a7ecb3          	or	x25,x15,x26
     648:	018d0d33          	add	x26,x26,x24
     64c:	01869713          	slli	x14,x13,0x18
     650:	01976f33          	or	x30,x14,x25
     654:	008f6eb3          	or	x29,x30,x8
     658:	011ea023          	sw	x17,0(x29)
     65c:	ff3d12e3          	bne	x26,x19,640 <.L144>
     660:	ed5ff06f          	j	534 <.L142>

00000664 <.L61>:
     664:	0047c383          	lbu	x7,4(x15)
     668:	0ff3f893          	andi	x17,x7,255
     66c:	fe088ce3          	beqz	x17,664 <.L61>
     670:	0057c403          	lbu	x8,5(x15)
     674:	0ff47613          	andi	x12,x8,255
     678:	fe0606e3          	beqz	x12,664 <.L61>
     67c:	0067cc03          	lbu	x24,6(x15)
     680:	0ffc7993          	andi	x19,x24,255
     684:	fe0980e3          	beqz	x19,664 <.L61>
     688:	0077ce83          	lbu	x29,7(x15)
     68c:	0ffeff13          	andi	x30,x29,255
     690:	fc0f0ae3          	beqz	x30,664 <.L61>
     694:	0004ac83          	lw	x25,0(x9)
     698:	210402b7          	lui	x5,0x21040
     69c:	00100d13          	li	x26,1
     6a0:	00cc8713          	addi	x14,x25,12
     6a4:	00e78a33          	add	x20,x15,x14
     6a8:	005a6b33          	or	x22,x20,x5
     6ac:	01ab0023          	sb	x26,0(x22)
     6b0:	00092e03          	lw	x28,0(x18)
     6b4:	ddae18e3          	bne	x28,x26,484 <.L73>
     6b8:	0004aa03          	lw	x20,0(x9)
     6bc:	27ca0663          	beq	x20,x28,928 <.L67>

000006c0 <.L72>:
     6c0:	00100093          	li	x1,1
     6c4:	0100006f          	j	6d4 <.L66>

000006c8 <.L269>:
     6c8:	00878893          	addi	x17,x15,8
     6cc:	1408a42f          	lr.w.aq	x8,(x17)
     6d0:	00140863          	beq	x8,x1,6e0 <.L74>

000006d4 <.L66>:
     6d4:	00878a93          	addi	x21,x15,8
     6d8:	100aa3af          	lr.w	x7,(x21)
     6dc:	fe1396e3          	bne	x7,x1,6c8 <.L269>

000006e0 <.L74>:
     6e0:	0007a423          	sw	x0,8(x15)
     6e4:	00078223          	sb	x0,4(x15)
     6e8:	000782a3          	sb	x0,5(x15)
     6ec:	00078323          	sb	x0,6(x15)
     6f0:	000783a3          	sb	x0,7(x15)
     6f4:	0007a023          	sw	x0,0(x15)
     6f8:	00000f13          	li	x30,0
     6fc:	000b8793          	mv	x15,x23
     700:	20000c37          	lui	x24,0x20000
     704:	00100993          	li	x19,1
     708:	00040cb7          	lui	x25,0x40
     70c:	00100d37          	lui	x26,0x100

00000710 <.L75>:
     710:	0004a603          	lw	x12,0(x9)
     714:	01e7e733          	or	x14,x15,x30
     718:	019f0f33          	add	x30,x30,x25
     71c:	01861e93          	slli	x29,x12,0x18
     720:	00eee833          	or	x16,x29,x14
     724:	018862b3          	or	x5,x16,x24
     728:	0132a023          	sw	x19,0(x5) # 21040000 <.L271+0x2103ee34>
     72c:	ffaf12e3          	bne	x30,x26,710 <.L75>
     730:	d55ff06f          	j	484 <.L73>

00000734 <.L41>:
     734:	0047c603          	lbu	x12,4(x15)
     738:	0ff67093          	andi	x1,x12,255
     73c:	fe008ce3          	beqz	x1,734 <.L41>
     740:	0057ca83          	lbu	x21,5(x15)
     744:	0ffaf393          	andi	x7,x21,255
     748:	fe0386e3          	beqz	x7,734 <.L41>
     74c:	0067c403          	lbu	x8,6(x15)
     750:	0ff47c13          	andi	x24,x8,255
     754:	fe0c00e3          	beqz	x24,734 <.L41>
     758:	0077c983          	lbu	x19,7(x15)
     75c:	0ff9fe93          	andi	x29,x19,255
     760:	fc0e8ae3          	beqz	x29,734 <.L41>
     764:	0004af03          	lw	x30,0(x9)
     768:	210408b7          	lui	x17,0x21040
     76c:	00100e13          	li	x28,1
     770:	00cf0313          	addi	x6,x30,12
     774:	00678833          	add	x16,x15,x6
     778:	01186733          	or	x14,x16,x17
     77c:	01c70023          	sb	x28,0(x14)
     780:	00092403          	lw	x8,0(x18)
     784:	c9c410e3          	bne	x8,x28,404 <.L53>
     788:	0004a603          	lw	x12,0(x9)
     78c:	10860663          	beq	x12,x8,898 <.L47>

00000790 <.L52>:
     790:	00100413          	li	x8,1
     794:	0100006f          	j	7a4 <.L46>

00000798 <.L270>:
     798:	00878e93          	addi	x29,x15,8
     79c:	140eaf2f          	lr.w.aq	x30,(x29)
     7a0:	008f0863          	beq	x30,x8,7b0 <.L54>

000007a4 <.L46>:
     7a4:	00878c13          	addi	x24,x15,8
     7a8:	100c29af          	lr.w	x19,(x24)
     7ac:	fe8996e3          	bne	x19,x8,798 <.L270>

000007b0 <.L54>:
     7b0:	0007a423          	sw	x0,8(x15)
     7b4:	00078223          	sb	x0,4(x15)
     7b8:	000782a3          	sb	x0,5(x15)
     7bc:	00078323          	sb	x0,6(x15)
     7c0:	000783a3          	sb	x0,7(x15)
     7c4:	0007a023          	sw	x0,0(x15)
     7c8:	00000813          	li	x16,0
     7cc:	000b8793          	mv	x15,x23
     7d0:	20000737          	lui	x14,0x20000
     7d4:	00100b13          	li	x22,1
     7d8:	00040e37          	lui	x28,0x40
     7dc:	00100337          	lui	x6,0x100

000007e0 <.L55>:
     7e0:	0004af83          	lw	x31,0(x9)
     7e4:	0107e0b3          	or	x1,x15,x16
     7e8:	01c80833          	add	x16,x16,x28
     7ec:	018f9a93          	slli	x21,x31,0x18
     7f0:	001ae3b3          	or	x7,x21,x1
     7f4:	00e3e8b3          	or	x17,x7,x14
     7f8:	0168a023          	sw	x22,0(x17) # 21040000 <.L271+0x2103ee34>
     7fc:	fe6812e3          	bne	x16,x6,7e0 <.L55>
     800:	00092403          	lw	x8,0(x18)
     804:	c01ff06f          	j	404 <.L53>

00000808 <.L136>:
     808:	00c7ca83          	lbu	x21,12(x15)
     80c:	0ffaf593          	andi	x11,x21,255
     810:	fe058ce3          	beqz	x11,808 <.L136>
     814:	00d7c383          	lbu	x7,13(x15)
     818:	0ff3f513          	andi	x10,x7,255
     81c:	fe0506e3          	beqz	x10,808 <.L136>
     820:	00e7c683          	lbu	x13,14(x15)
     824:	0ff6f893          	andi	x17,x13,255
     828:	fe0880e3          	beqz	x17,808 <.L136>
     82c:	00f7c403          	lbu	x8,15(x15)
     830:	0ff47c13          	andi	x24,x8,255
     834:	fc0c0ae3          	beqz	x24,808 <.L136>
     838:	00078623          	sb	x0,12(x15)
     83c:	000786a3          	sb	x0,13(x15)
     840:	00078723          	sb	x0,14(x15)
     844:	000787a3          	sb	x0,15(x15)
     848:	000009b7          	lui	x19,0x0
     84c:	0007a423          	sw	x0,8(x15)
     850:	00000a13          	li	x20,0
     854:	00898c93          	addi	x25,x19,8 # 8 <tensorlib_mean+0x8>
     858:	03fc0d37          	lui	x26,0x3fc0
     85c:	20000737          	lui	x14,0x20000
     860:	00100f13          	li	x30,1
     864:	01000eb7          	lui	x29,0x1000
     868:	04000837          	lui	x16,0x4000

0000086c <.L140>:
     86c:	012f9293          	slli	x5,x31,0x12
     870:	014ce633          	or	x12,x25,x20
     874:	01a2fb33          	and	x22,x5,x26
     878:	00cb6e33          	or	x28,x22,x12
     87c:	00ee6333          	or	x6,x28,x14
     880:	01e32023          	sw	x30,0(x6) # 100000 <.L271+0xfee34>
     884:	01da0a33          	add	x20,x20,x29
     888:	150a12e3          	bne	x20,x16,11cc <.L271>
     88c:	00092903          	lw	x18,0(x18)
     890:	d7e900e3          	beq	x18,x30,5f0 <.L141>
     894:	ca1ff06f          	j	534 <.L142>

00000898 <.L47>:
     898:	00c7cb03          	lbu	x22,12(x15)
     89c:	0ffb7f93          	andi	x31,x22,255
     8a0:	fe0f8ce3          	beqz	x31,898 <.L47>
     8a4:	00d7c083          	lbu	x1,13(x15)
     8a8:	0ff0fa93          	andi	x21,x1,255
     8ac:	fe0a86e3          	beqz	x21,898 <.L47>
     8b0:	00e7c383          	lbu	x7,14(x15)
     8b4:	0ff3f413          	andi	x8,x7,255
     8b8:	fe0400e3          	beqz	x8,898 <.L47>
     8bc:	00f7cc03          	lbu	x24,15(x15)
     8c0:	0ffc7993          	andi	x19,x24,255
     8c4:	fc098ae3          	beqz	x19,898 <.L47>
     8c8:	00078623          	sb	x0,12(x15)
     8cc:	000786a3          	sb	x0,13(x15)
     8d0:	00078723          	sb	x0,14(x15)
     8d4:	000787a3          	sb	x0,15(x15)
     8d8:	00000eb7          	lui	x29,0x0
     8dc:	0007a423          	sw	x0,8(x15)
     8e0:	00000893          	li	x17,0
     8e4:	008e8f13          	addi	x30,x29,8 # 8 <tensorlib_mean+0x8>
     8e8:	03fc0837          	lui	x16,0x3fc0
     8ec:	20000737          	lui	x14,0x20000
     8f0:	00100313          	li	x6,1
     8f4:	01000b37          	lui	x22,0x1000
     8f8:	04000e37          	lui	x28,0x4000

000008fc <.L51>:
     8fc:	01261613          	slli	x12,x12,0x12
     900:	011f6fb3          	or	x31,x30,x17
     904:	010670b3          	and	x1,x12,x16
     908:	01f0eab3          	or	x21,x1,x31
     90c:	00eae3b3          	or	x7,x21,x14
     910:	0063a023          	sw	x6,0(x7)
     914:	016888b3          	add	x17,x17,x22
     918:	0bc896e3          	bne	x17,x28,11c4 <.L272>
     91c:	00092403          	lw	x8,0(x18)
     920:	e66408e3          	beq	x8,x6,790 <.L52>
     924:	ae1ff06f          	j	404 <.L53>

00000928 <.L67>:
     928:	00c7c303          	lbu	x6,12(x15)
     92c:	0ff37f93          	andi	x31,x6,255
     930:	fe0f8ce3          	beqz	x31,928 <.L67>
     934:	00d7c083          	lbu	x1,13(x15)
     938:	0ff0fa93          	andi	x21,x1,255
     93c:	fe0a86e3          	beqz	x21,928 <.L67>
     940:	00e7c383          	lbu	x7,14(x15)
     944:	0ff3f893          	andi	x17,x7,255
     948:	fe0880e3          	beqz	x17,928 <.L67>
     94c:	00f7c403          	lbu	x8,15(x15)
     950:	0ff47613          	andi	x12,x8,255
     954:	fc060ae3          	beqz	x12,928 <.L67>
     958:	00078623          	sb	x0,12(x15)
     95c:	000786a3          	sb	x0,13(x15)
     960:	00078723          	sb	x0,14(x15)
     964:	000787a3          	sb	x0,15(x15)
     968:	00000c37          	lui	x24,0x0
     96c:	0007a423          	sw	x0,8(x15)
     970:	00000313          	li	x6,0
     974:	008c0993          	addi	x19,x24,8 # 8 <tensorlib_mean+0x8>
     978:	03fc0cb7          	lui	x25,0x3fc0
     97c:	20000d37          	lui	x26,0x20000
     980:	00100713          	li	x14,1
     984:	01000f37          	lui	x30,0x1000
     988:	04000eb7          	lui	x29,0x4000

0000098c <.L71>:
     98c:	012a1a13          	slli	x20,x20,0x12
     990:	0069e833          	or	x16,x19,x6
     994:	019a72b3          	and	x5,x20,x25
     998:	0102eb33          	or	x22,x5,x16
     99c:	01ab6e33          	or	x28,x22,x26
     9a0:	00ee2023          	sw	x14,0(x28) # 4000000 <.L271+0x3ffee34>
     9a4:	01e30333          	add	x6,x6,x30
     9a8:	01d31ae3          	bne	x6,x29,11bc <.L273>
     9ac:	00092f83          	lw	x31,0(x18)
     9b0:	d0ef88e3          	beq	x31,x14,6c0 <.L72>
     9b4:	ad1ff06f          	j	484 <.L73>

000009b8 <.L21>:
     9b8:	08810a93          	addi	x21,x2,136
     9bc:	01412623          	sw	x20,12(x2)
     9c0:	01010793          	addi	x15,x2,16
     9c4:	000a8e13          	mv	x28,x21

000009c8 <.L26>:
     9c8:	0007ab03          	lw	x22,0(x15)
     9cc:	0047ab83          	lw	x23,4(x15)
     9d0:	0087ac03          	lw	x24,8(x15)
     9d4:	00c7ac83          	lw	x25,12(x15)
     9d8:	0107ad03          	lw	x26,16(x15)
     9dc:	016e2023          	sw	x22,0(x28)
     9e0:	017e2223          	sw	x23,4(x28)
     9e4:	018e2423          	sw	x24,8(x28)
     9e8:	019e2623          	sw	x25,12(x28)
     9ec:	01ae2823          	sw	x26,16(x28)
     9f0:	01478793          	addi	x15,x15,20
     9f4:	014e0e13          	addi	x28,x28,20
     9f8:	fc8798e3          	bne	x15,x8,9c8 <.L26>
     9fc:	0c410893          	addi	x17,x2,196

00000a00 <.L27>:
     a00:	0007a403          	lw	x8,0(x15)
     a04:	0047ae83          	lw	x29,4(x15)
     a08:	0087af03          	lw	x30,8(x15)
     a0c:	00c7af83          	lw	x31,12(x15)
     a10:	0107a283          	lw	x5,16(x15)
     a14:	0088a023          	sw	x8,0(x17)
     a18:	01d8a223          	sw	x29,4(x17)
     a1c:	01e8a423          	sw	x30,8(x17)
     a20:	01f8a623          	sw	x31,12(x17)
     a24:	0058a823          	sw	x5,16(x17)
     a28:	01478793          	addi	x15,x15,20
     a2c:	01488893          	addi	x17,x17,20
     a30:	fd5798e3          	bne	x15,x21,a00 <.L27>
     a34:	08812083          	lw	x1,136(x2)
     a38:	00100713          	li	x14,1
     a3c:	3ae08263          	beq	x1,x14,de0 <.L274>
     a40:	00300313          	li	x6,3
     a44:	0a698263          	beq	x19,x6,ae8 <.L79>
     a48:	05336c63          	bltu	x6,x19,aa0 <.L80>
     a4c:	00200f13          	li	x30,2
     a50:	05e99863          	bne	x19,x30,aa0 <.L80>
     a54:	0ee60463          	beq	x12,x14,b3c <.L275>
     a58:	00000337          	lui	x6,0x0
     a5c:	00000fb7          	lui	x31,0x0
     a60:	0b600613          	li	x12,182
     a64:	00030593          	mv	x11,x6
     a68:	000f8513          	mv	x10,x31
     a6c:	00000097          	auipc	x1,0x0
     a70:	000080e7          	jalr	x1 # a6c <.L27+0x6c>
     a74:	00000d37          	lui	x26,0x0
     a78:	000d0513          	mv	x10,x26
     a7c:	00000097          	auipc	x1,0x0
     a80:	000080e7          	jalr	x1 # a7c <.L27+0x7c>
     a84:	0004ab83          	lw	x23,0(x9)
     a88:	00092283          	lw	x5,0(x18)
     a8c:	4100f437          	lui	x8,0x4100f
     a90:	010b9793          	slli	x15,x23,0x10
     a94:	005783b3          	add	x7,x15,x5
     a98:	ac742c23          	sw	x7,-1320(x8) # 4100ead8 <.L271+0x4100d90c>

00000a9c <.L106>:
     a9c:	0000006f          	j	a9c <.L106>

00000aa0 <.L80>:
     aa0:	00000a37          	lui	x20,0x0
     aa4:	00000537          	lui	x10,0x0
     aa8:	000a0593          	mv	x11,x20
     aac:	0ef00613          	li	x12,239
     ab0:	00050513          	mv	x10,x10
     ab4:	00000097          	auipc	x1,0x0
     ab8:	000080e7          	jalr	x1 # ab4 <.L80+0x14>
     abc:	000006b7          	lui	x13,0x0
     ac0:	00068513          	mv	x10,x13
     ac4:	00000097          	auipc	x1,0x0
     ac8:	000080e7          	jalr	x1 # ac4 <.L80+0x24>
     acc:	0004a583          	lw	x11,0(x9)
     ad0:	00092483          	lw	x9,0(x18)
     ad4:	4100fe37          	lui	x28,0x4100f
     ad8:	01059913          	slli	x18,x11,0x10
     adc:	00990333          	add	x6,x18,x9
     ae0:	ac6e2c23          	sw	x6,-1320(x28) # 4100ead8 <.L271+0x4100d90c>

00000ae4 <.L128>:
     ae4:	0000006f          	j	ae4 <.L128>

00000ae8 <.L79>:
     ae8:	20e60263          	beq	x12,x14,cec <.L276>
     aec:	00200993          	li	x19,2
     af0:	5f360863          	beq	x12,x19,10e0 <.L277>
     af4:	000005b7          	lui	x11,0x0
     af8:	00000537          	lui	x10,0x0
     afc:	0eb00613          	li	x12,235
     b00:	00058593          	mv	x11,x11
     b04:	00050513          	mv	x10,x10
     b08:	00000097          	auipc	x1,0x0
     b0c:	000080e7          	jalr	x1 # b08 <.L79+0x20>
     b10:	000006b7          	lui	x13,0x0
     b14:	00068513          	mv	x10,x13
     b18:	00000097          	auipc	x1,0x0
     b1c:	000080e7          	jalr	x1 # b18 <.L79+0x30>
     b20:	0004a483          	lw	x9,0(x9)
     b24:	00092903          	lw	x18,0(x18)
     b28:	4100f3b7          	lui	x7,0x4100f
     b2c:	01049613          	slli	x12,x9,0x10
     b30:	01260833          	add	x16,x12,x18
     b34:	ad03ac23          	sw	x16,-1320(x7) # 4100ead8 <.L271+0x4100d90c>

00000b38 <.L127>:
     b38:	0000006f          	j	b38 <.L127>

00000b3c <.L275>:
     b3c:	fff08c93          	addi	x25,x1,-1
     b40:	ffd00713          	li	x14,-3
     b44:	0b976a63          	bltu	x14,x25,bf8 <.L260>
     b48:	00000c37          	lui	x24,0x0
     b4c:	000c2603          	lw	x12,0(x24) # 0 <tensorlib_mean>
     b50:	0040d893          	srli	x17,x1,0x4
     b54:	00188a93          	addi	x21,x17,1
     b58:	02ca8833          	mul	x16,x21,x12
     b5c:	010a8333          	add	x6,x21,x16
     b60:	0060f463          	bgeu	x1,x6,b68 <.L97>
     b64:	00008313          	mv	x6,x1

00000b68 <.L97>:
     b68:	08687863          	bgeu	x16,x6,bf8 <.L260>
     b6c:	ff7a0993          	addi	x19,x20,-9 # fffffff7 <.L271+0xffffee2b>
     b70:	01000093          	li	x1,16
     b74:	ff8a0e13          	addi	x28,x20,-8
     b78:	ff89fe93          	andi	x29,x19,-8

00000b7c <.L105>:
     b7c:	f00006d3          	fmv.w.x	f13,x0
     b80:	0940e263          	bltu	x1,x20,c04 <.L99>
     b84:	00000c13          	li	x24,0

00000b88 <.L103>:
     b88:	054c7063          	bgeu	x24,x20,bc8 <.L100>
     b8c:	0cc12403          	lw	x8,204(x2)
     b90:	0d412c83          	lw	x25,212(x2)
     b94:	00042383          	lw	x7,0(x8)
     b98:	00442283          	lw	x5,4(x8)
     b9c:	038388b3          	mul	x17,x7,x24
     ba0:	00239a93          	slli	x21,x7,0x2
     ba4:	02580b33          	mul	x22,x16,x5
     ba8:	011b0633          	add	x12,x22,x17
     bac:	00261b93          	slli	x23,x12,0x2
     bb0:	017c89b3          	add	x19,x25,x23

00000bb4 <.L104>:
     bb4:	0009a787          	flw	f15,0(x19)
     bb8:	001c0c13          	addi	x24,x24,1
     bbc:	015989b3          	add	x19,x19,x21
     bc0:	00f6f6d3          	fadd.s	f13,f13,f15
     bc4:	ff8a18e3          	bne	x20,x24,bb4 <.L104>

00000bc8 <.L100>:
     bc8:	00c12703          	lw	x14,12(x2)
     bcc:	09012783          	lw	x15,144(x2)
     bd0:	09812403          	lw	x8,152(x2)
     bd4:	d0177053          	fcvt.s.wu	f0,x14
     bd8:	0047af83          	lw	x31,4(x15)
     bdc:	1806f753          	fdiv.s	f14,f13,f0
     be0:	03f80d33          	mul	x26,x16,x31
     be4:	00180813          	addi	x16,x16,1 # 3fc0001 <.L271+0x3fbee35>
     be8:	002d1f13          	slli	x30,x26,0x2
     bec:	01e403b3          	add	x7,x8,x30
     bf0:	00e3a027          	fsw	f14,0(x7)
     bf4:	f90314e3          	bne	x6,x16,b7c <.L105>

00000bf8 <.L260>:
     bf8:	00000bb7          	lui	x23,0x0
     bfc:	000b8793          	mv	x15,x23
     c00:	8a9ff06f          	j	4a8 <.L78>

00000c04 <.L99>:
     c04:	00000f13          	li	x30,0

00000c08 <.L102>:
     c08:	0cc12b03          	lw	x22,204(x2)
     c0c:	0d412d03          	lw	x26,212(x2)
     c10:	000b2b83          	lw	x23,0(x22) # 1000000 <.L271+0xffee34>
     c14:	004b2f83          	lw	x31,4(x22)
     c18:	037f0cb3          	mul	x25,x30,x23
     c1c:	03f80c33          	mul	x24,x16,x31
     c20:	019b8433          	add	x8,x23,x25
     c24:	008b83b3          	add	x7,x23,x8
     c28:	007b82b3          	add	x5,x23,x7
     c2c:	005b8733          	add	x14,x23,x5
     c30:	00eb87b3          	add	x15,x23,x14
     c34:	00fb88b3          	add	x17,x23,x15
     c38:	018b8633          	add	x12,x23,x24
     c3c:	018c8ab3          	add	x21,x25,x24
     c40:	011c0fb3          	add	x31,x24,x17
     c44:	008c0b33          	add	x22,x24,x8
     c48:	007c0bb3          	add	x23,x24,x7
     c4c:	005c0cb3          	add	x25,x24,x5
     c50:	00ec0733          	add	x14,x24,x14
     c54:	00fc07b3          	add	x15,x24,x15
     c58:	01160c33          	add	x24,x12,x17
     c5c:	002a9993          	slli	x19,x21,0x2
     c60:	002b1413          	slli	x8,x22,0x2
     c64:	002b9393          	slli	x7,x23,0x2
     c68:	002c9293          	slli	x5,x25,0x2
     c6c:	002c1613          	slli	x12,x24,0x2
     c70:	00271893          	slli	x17,x14,0x2
     c74:	00279a93          	slli	x21,x15,0x2
     c78:	002f9b13          	slli	x22,x31,0x2
     c7c:	013d0bb3          	add	x23,x26,x19
     c80:	008d0cb3          	add	x25,x26,x8
     c84:	007d0c33          	add	x24,x26,x7
     c88:	005d09b3          	add	x19,x26,x5
     c8c:	011d0733          	add	x14,x26,x17
     c90:	015d07b3          	add	x15,x26,x21
     c94:	016d0fb3          	add	x31,x26,x22
     c98:	00cd0d33          	add	x26,x26,x12
     c9c:	000ba187          	flw	f3,0(x23) # 0 <tensorlib_mean>
     ca0:	000ca207          	flw	f4,0(x25) # 3fc0000 <.L271+0x3fbee34>
     ca4:	000c2107          	flw	f2,0(x24)
     ca8:	0009a287          	flw	f5,0(x19)
     cac:	00072307          	flw	f6,0(x14) # 20000000 <.L271+0x1fffee34>
     cb0:	0007a507          	flw	f10,0(x15)
     cb4:	000fa587          	flw	f11,0(x31) # 0 <tensorlib_mean>
     cb8:	000d2607          	flw	f12,0(x26) # 0 <tensorlib_mean>
     cbc:	002273d3          	fadd.s	f7,f4,f2
     cc0:	008f0f13          	addi	x30,x30,8 # 1000008 <.L271+0xffee3c>
     cc4:	0033f853          	fadd.s	f16,f7,f3
     cc8:	005878d3          	fadd.s	f17,f16,f5
     ccc:	0068fe53          	fadd.s	f28,f17,f6
     cd0:	00ae7ed3          	fadd.s	f29,f28,f10
     cd4:	00beff53          	fadd.s	f30,f29,f11
     cd8:	00cf7fd3          	fadd.s	f31,f30,f12
     cdc:	01f6f6d3          	fadd.s	f13,f13,f31
     ce0:	f3cf64e3          	bltu	x30,x28,c08 <.L102>
     ce4:	008e8c13          	addi	x24,x29,8 # 4000008 <.L271+0x3ffee3c>
     ce8:	ea1ff06f          	j	b88 <.L103>

00000cec <.L276>:
     cec:	fff08e13          	addi	x28,x1,-1
     cf0:	ffd00f13          	li	x30,-3
     cf4:	f1cf62e3          	bltu	x30,x28,bf8 <.L260>
     cf8:	000003b7          	lui	x7,0x0
     cfc:	0003a283          	lw	x5,0(x7) # 0 <tensorlib_mean>
     d00:	0040d713          	srli	x14,x1,0x4
     d04:	00170313          	addi	x6,x14,1
     d08:	025308b3          	mul	x17,x6,x5
     d0c:	01130e33          	add	x28,x6,x17
     d10:	01c0f463          	bgeu	x1,x28,d18 <.L109>
     d14:	00008e13          	mv	x28,x1

00000d18 <.L109>:
     d18:	efc8f0e3          	bgeu	x17,x28,bf8 <.L260>
     d1c:	ff7a0093          	addi	x1,x20,-9
     d20:	00100e93          	li	x29,1
     d24:	01000f13          	li	x30,16
     d28:	ff8a0313          	addi	x6,x20,-8
     d2c:	ff80ff93          	andi	x31,x1,-8

00000d30 <.L119>:
     d30:	0c812983          	lw	x19,200(x2)
     d34:	373ef063          	bgeu	x29,x19,1094 <.L278>
     d38:	0d012a83          	lw	x21,208(x2)
     d3c:	f0000053          	fmv.w.x	f0,x0
     d40:	004aab03          	lw	x22,4(x21)
     d44:	0368f633          	remu	x12,x17,x22
     d48:	0368d833          	divu	x16,x17,x22
     d4c:	254f6a63          	bltu	x30,x20,fa0 <.L113>
     d50:	00000793          	li	x15,0

00000d54 <.L117>:
     d54:	0547f663          	bgeu	x15,x20,da0 <.L114>
     d58:	0cc12383          	lw	x7,204(x2)
     d5c:	0d412283          	lw	x5,212(x2)
     d60:	0043a703          	lw	x14,4(x7)
     d64:	0083a403          	lw	x8,8(x7)
     d68:	0003ac83          	lw	x25,0(x7)
     d6c:	002c9a93          	slli	x21,x25,0x2
     d70:	02e60c33          	mul	x24,x12,x14
     d74:	028809b3          	mul	x19,x16,x8
     d78:	02fc8b33          	mul	x22,x25,x15
     d7c:	013c00b3          	add	x1,x24,x19
     d80:	01608d33          	add	x26,x1,x22
     d84:	002d1b93          	slli	x23,x26,0x2
     d88:	017283b3          	add	x7,x5,x23

00000d8c <.L118>:
     d8c:	0003a687          	flw	f13,0(x7)
     d90:	00178793          	addi	x15,x15,1
     d94:	015383b3          	add	x7,x7,x21
     d98:	00d07053          	fadd.s	f0,f0,f13
     d9c:	fefa18e3          	bne	x20,x15,d8c <.L118>

00000da0 <.L114>:
     da0:	00c12403          	lw	x8,12(x2)
     da4:	09012703          	lw	x14,144(x2)
     da8:	09812b03          	lw	x22,152(x2)
     dac:	d0147753          	fcvt.s.wu	f14,x8
     db0:	00472c83          	lw	x25,4(x14)
     db4:	00872c03          	lw	x24,8(x14)
     db8:	18e070d3          	fdiv.s	f1,f0,f14
     dbc:	03960633          	mul	x12,x12,x25
     dc0:	00188893          	addi	x17,x17,1
     dc4:	03880833          	mul	x16,x16,x24
     dc8:	01060ab3          	add	x21,x12,x16
     dcc:	002a9993          	slli	x19,x21,0x2
     dd0:	013b00b3          	add	x1,x22,x19
     dd4:	0010a027          	fsw	f1,0(x1)
     dd8:	f51e1ce3          	bne	x28,x17,d30 <.L119>
     ddc:	e1dff06f          	j	bf8 <.L260>

00000de0 <.L274>:
     de0:	0c412083          	lw	x1,196(x2)
     de4:	00000cb7          	lui	x25,0x0
     de8:	00000ab7          	lui	x21,0x0
     dec:	fff08e93          	addi	x29,x1,-1
     df0:	ffd00893          	li	x17,-3
     df4:	09812283          	lw	x5,152(x2)
     df8:	0cc12b83          	lw	x23,204(x2)
     dfc:	0d412b03          	lw	x22,212(x2)
     e00:	000aad03          	lw	x26,0(x21) # 0 <tensorlib_mean>
     e04:	000caf03          	lw	x30,0(x25) # 0 <tensorlib_mean>
     e08:	f00000d3          	fmv.w.x	f1,x0
     e0c:	dbd8ea63          	bltu	x17,x29,3c0 <.L34>
     e10:	0040d613          	srli	x12,x1,0x4
     e14:	00160c13          	addi	x24,x12,1
     e18:	03ec0fb3          	mul	x31,x24,x30
     e1c:	01fc0433          	add	x8,x24,x31
     e20:	0080f463          	bgeu	x1,x8,e28 <.L35>
     e24:	00008413          	mv	x8,x1

00000e28 <.L35>:
     e28:	f00000d3          	fmv.w.x	f1,x0
     e2c:	d88ffa63          	bgeu	x31,x8,3c0 <.L34>
     e30:	0d012383          	lw	x7,208(x2)
     e34:	00299713          	slli	x14,x19,0x2
     e38:	007700b3          	add	x1,x14,x7

00000e3c <.L39>:
     e3c:	04098a63          	beqz	x19,e90 <.L160>
     e40:	000b8813          	mv	x16,x23
     e44:	00038893          	mv	x17,x7
     e48:	000f8613          	mv	x12,x31
     e4c:	00000313          	li	x6,0

00000e50 <.L38>:
     e50:	0008ae83          	lw	x29,0(x17)
     e54:	00082e03          	lw	x28,0(x16)
     e58:	00488893          	addi	x17,x17,4
     e5c:	03d67ab3          	remu	x21,x12,x29
     e60:	00480813          	addi	x16,x16,4
     e64:	03ca8c33          	mul	x24,x21,x28
     e68:	03d65633          	divu	x12,x12,x29
     e6c:	01830333          	add	x6,x6,x24
     e70:	ff1090e3          	bne	x1,x17,e50 <.L38>
     e74:	00231713          	slli	x14,x6,0x2
     e78:	00eb07b3          	add	x15,x22,x14

00000e7c <.L37>:
     e7c:	0007a187          	flw	f3,0(x15)
     e80:	001f8f93          	addi	x31,x31,1
     e84:	0030f0d3          	fadd.s	f1,f1,f3
     e88:	fbf41ae3          	bne	x8,x31,e3c <.L39>
     e8c:	d34ff06f          	j	3c0 <.L34>

00000e90 <.L160>:
     e90:	000b0793          	mv	x15,x22
     e94:	fe9ff06f          	j	e7c <.L37>

00000e98 <.L82>:
     e98:	fffa0393          	addi	x7,x20,-1
     e9c:	ffd00093          	li	x1,-3
     ea0:	d470ece3          	bltu	x1,x7,bf8 <.L260>
     ea4:	00000437          	lui	x8,0x0
     ea8:	00042f03          	lw	x30,0(x8) # 0 <tensorlib_mean>
     eac:	004a5793          	srli	x15,x20,0x4
     eb0:	00178a93          	addi	x21,x15,1
     eb4:	03ea8433          	mul	x8,x21,x30
     eb8:	008a8c33          	add	x24,x21,x8
     ebc:	018a7463          	bgeu	x20,x24,ec4 <.L85>
     ec0:	000a0c13          	mv	x24,x20

00000ec4 <.L85>:
     ec4:	d3847ae3          	bgeu	x8,x24,bf8 <.L260>
     ec8:	09447463          	bgeu	x8,x20,f50 <.L87>
     ecc:	0cc12e03          	lw	x28,204(x2)
     ed0:	d019f253          	fcvt.s.wu	f4,x19
     ed4:	00140993          	addi	x19,x8,1
     ed8:	000e2303          	lw	x6,0(x28)
     edc:	0d412803          	lw	x16,212(x2)
     ee0:	00000eb7          	lui	x29,0x0
     ee4:	00231893          	slli	x17,x6,0x2
     ee8:	031402b3          	mul	x5,x8,x17
     eec:	000ea107          	flw	f2,0(x29) # 0 <tensorlib_mean>
     ef0:	08c12c83          	lw	x25,140(x2)
     ef4:	09812b83          	lw	x23,152(x2)
     ef8:	184172d3          	fdiv.s	f5,f2,f4
     efc:	09012703          	lw	x14,144(x2)
     f00:	00100b13          	li	x22,1
     f04:	03198fb3          	mul	x31,x19,x17
     f08:	00580633          	add	x12,x16,x5
     f0c:	00062307          	flw	f6,0(x12)
     f10:	01f80d33          	add	x26,x16,x31
     f14:	0100006f          	j	f24 <.L91>

00000f18 <.L89>:
     f18:	000d2307          	flw	f6,0(x26)
     f1c:	00198993          	addi	x19,x19,1
     f20:	011d0d33          	add	x26,x26,x17

00000f24 <.L91>:
     f24:	00241f13          	slli	x30,x8,0x2
     f28:	016c9863          	bne	x25,x22,f38 <.L259>
     f2c:	00072383          	lw	x7,0(x14)
     f30:	027400b3          	mul	x1,x8,x7
     f34:	00209f13          	slli	x30,x1,0x2

00000f38 <.L259>:
     f38:	10537553          	fmul.s	f10,f6,f5
     f3c:	01eb87b3          	add	x15,x23,x30
     f40:	00098413          	mv	x8,x19
     f44:	00a7a027          	fsw	f10,0(x15)
     f48:	cb3c08e3          	beq	x24,x19,bf8 <.L260>
     f4c:	fd4996e3          	bne	x19,x20,f18 <.L89>

00000f50 <.L87>:
     f50:	000006b7          	lui	x13,0x0
     f54:	00000537          	lui	x10,0x0
     f58:	00050593          	mv	x11,x10
     f5c:	07b00613          	li	x12,123
     f60:	00068513          	mv	x10,x13
     f64:	00000097          	auipc	x1,0x0
     f68:	000080e7          	jalr	x1 # f64 <.L87+0x14>
     f6c:	000a0593          	mv	x11,x20
     f70:	00000a37          	lui	x20,0x0
     f74:	00040613          	mv	x12,x8
     f78:	000a0513          	mv	x10,x20
     f7c:	00000097          	auipc	x1,0x0
     f80:	000080e7          	jalr	x1 # f7c <.L87+0x2c>
     f84:	0004a483          	lw	x9,0(x9)
     f88:	00092583          	lw	x11,0(x18)
     f8c:	4100fc37          	lui	x24,0x4100f
     f90:	01049913          	slli	x18,x9,0x10
     f94:	00b90ab3          	add	x21,x18,x11
     f98:	ad5c2c23          	sw	x21,-1320(x24) # 4100ead8 <.L271+0x4100d90c>

00000f9c <.L90>:
     f9c:	0000006f          	j	f9c <.L90>

00000fa0 <.L113>:
     fa0:	00000293          	li	x5,0

00000fa4 <.L116>:
     fa4:	0cc12c03          	lw	x24,204(x2)
     fa8:	0d412b83          	lw	x23,212(x2)
     fac:	000c2703          	lw	x14,0(x24)
     fb0:	004c2c83          	lw	x25,4(x24)
     fb4:	008c2783          	lw	x15,8(x24)
     fb8:	025700b3          	mul	x1,x14,x5
     fbc:	03960d33          	mul	x26,x12,x25
     fc0:	00170b33          	add	x22,x14,x1
     fc4:	01670ab3          	add	x21,x14,x22
     fc8:	015709b3          	add	x19,x14,x21
     fcc:	01370433          	add	x8,x14,x19
     fd0:	008703b3          	add	x7,x14,x8
     fd4:	00770cb3          	add	x25,x14,x7
     fd8:	02f80c33          	mul	x24,x16,x15
     fdc:	018d07b3          	add	x15,x26,x24
     fe0:	00e78733          	add	x14,x15,x14
     fe4:	001780b3          	add	x1,x15,x1
     fe8:	01678d33          	add	x26,x15,x22
     fec:	01578ab3          	add	x21,x15,x21
     ff0:	013789b3          	add	x19,x15,x19
     ff4:	00878433          	add	x8,x15,x8
     ff8:	007783b3          	add	x7,x15,x7
     ffc:	019787b3          	add	x15,x15,x25
    1000:	01970cb3          	add	x25,x14,x25
    1004:	00209c13          	slli	x24,x1,0x2
    1008:	002d1b13          	slli	x22,x26,0x2
    100c:	002c9713          	slli	x14,x25,0x2
    1010:	002a9093          	slli	x1,x21,0x2
    1014:	00299d13          	slli	x26,x19,0x2
    1018:	00241413          	slli	x8,x8,0x2
    101c:	00239393          	slli	x7,x7,0x2
    1020:	00279793          	slli	x15,x15,0x2
    1024:	018b8cb3          	add	x25,x23,x24
    1028:	001b8ab3          	add	x21,x23,x1
    102c:	016b8c33          	add	x24,x23,x22
    1030:	01ab89b3          	add	x19,x23,x26
    1034:	008b8b33          	add	x22,x23,x8
    1038:	007b80b3          	add	x1,x23,x7
    103c:	00fb8d33          	add	x26,x23,x15
    1040:	00eb8bb3          	add	x23,x23,x14
    1044:	000ca187          	flw	f3,0(x25)
    1048:	000c2207          	flw	f4,0(x24)
    104c:	000aa287          	flw	f5,0(x21)
    1050:	0009a307          	flw	f6,0(x19)
    1054:	000b2507          	flw	f10,0(x22)
    1058:	0000a587          	flw	f11,0(x1)
    105c:	000d2607          	flw	f12,0(x26)
    1060:	000ba387          	flw	f7,0(x23)
    1064:	00527853          	fadd.s	f16,f4,f5
    1068:	00828293          	addi	x5,x5,8
    106c:	003878d3          	fadd.s	f17,f16,f3
    1070:	0068fe53          	fadd.s	f28,f17,f6
    1074:	00ae7ed3          	fadd.s	f29,f28,f10
    1078:	00beff53          	fadd.s	f30,f29,f11
    107c:	00cf7fd3          	fadd.s	f31,f30,f12
    1080:	007ff7d3          	fadd.s	f15,f31,f7
    1084:	00f07053          	fadd.s	f0,f0,f15
    1088:	f062eee3          	bltu	x5,x6,fa4 <.L116>
    108c:	008f8793          	addi	x15,x31,8
    1090:	cc5ff06f          	j	d54 <.L117>

00001094 <.L278>:
    1094:	00000a37          	lui	x20,0x0
    1098:	00000537          	lui	x10,0x0
    109c:	06b00613          	li	x12,107
    10a0:	000a0593          	mv	x11,x20
    10a4:	00050513          	mv	x10,x10
    10a8:	00000097          	auipc	x1,0x0
    10ac:	000080e7          	jalr	x1 # 10a8 <.L278+0x14>
    10b0:	000006b7          	lui	x13,0x0
    10b4:	00098593          	mv	x11,x19
    10b8:	00068513          	mv	x10,x13
    10bc:	00000097          	auipc	x1,0x0
    10c0:	000080e7          	jalr	x1 # 10bc <.L278+0x28>
    10c4:	0004a583          	lw	x11,0(x9)
    10c8:	00092483          	lw	x9,0(x18)
    10cc:	4100feb7          	lui	x29,0x4100f
    10d0:	01059913          	slli	x18,x11,0x10
    10d4:	00990e33          	add	x28,x18,x9
    10d8:	adceac23          	sw	x28,-1320(x29) # 4100ead8 <.L271+0x4100d90c>

000010dc <.L112>:
    10dc:	0000006f          	j	10dc <.L112>

000010e0 <.L277>:
    10e0:	fff08a93          	addi	x21,x1,-1
    10e4:	ffd00b13          	li	x22,-3
    10e8:	b15b68e3          	bltu	x22,x21,bf8 <.L260>
    10ec:	00000bb7          	lui	x23,0x0
    10f0:	000bac03          	lw	x24,0(x23) # 0 <tensorlib_mean>
    10f4:	0040dc93          	srli	x25,x1,0x4
    10f8:	001c8d13          	addi	x26,x25,1
    10fc:	038d0833          	mul	x16,x26,x24
    1100:	010d0e33          	add	x28,x26,x16
    1104:	01c0f463          	bgeu	x1,x28,110c <.L122>
    1108:	00008e13          	mv	x28,x1

0000110c <.L122>:
    110c:	afc876e3          	bgeu	x16,x28,bf8 <.L260>
    1110:	00000437          	lui	x8,0x0
    1114:	d01a77d3          	fcvt.s.wu	f15,x20
    1118:	00042687          	flw	f13,0(x8) # 0 <tensorlib_mean>
    111c:	09012e83          	lw	x29,144(x2)
    1120:	09812883          	lw	x17,152(x2)
    1124:	18f6f053          	fdiv.s	f0,f13,f15
    1128:	008eaf83          	lw	x31,8(x29)
    112c:	0d012083          	lw	x1,208(x2)
    1130:	0cc12f03          	lw	x30,204(x2)
    1134:	002f9393          	slli	x7,x31,0x2
    1138:	027807b3          	mul	x15,x16,x7
    113c:	0d412283          	lw	x5,212(x2)
    1140:	00f88eb3          	add	x29,x17,x15

00001144 <.L126>:
    1144:	060a0463          	beqz	x20,11ac <.L161>
    1148:	008f2703          	lw	x14,8(x30)
    114c:	0000a303          	lw	x6,0(x1)
    1150:	000f2983          	lw	x19,0(x30)
    1154:	02e80ab3          	mul	x21,x16,x14
    1158:	004f2b03          	lw	x22,4(x30)
    115c:	f00000d3          	fmv.w.x	f1,x0
    1160:	00000c13          	li	x24,0

00001164 <.L125>:
    1164:	026c7bb3          	remu	x23,x24,x6
    1168:	026c5633          	divu	x12,x24,x6
    116c:	001c0c13          	addi	x24,x24,1
    1170:	033b8cb3          	mul	x25,x23,x19
    1174:	03660d33          	mul	x26,x12,x22
    1178:	019a8433          	add	x8,x21,x25
    117c:	01a40fb3          	add	x31,x8,x26
    1180:	002f9793          	slli	x15,x31,0x2
    1184:	00f288b3          	add	x17,x5,x15
    1188:	0008a707          	flw	f14,0(x17)
    118c:	00e0f0d3          	fadd.s	f1,f1,f14
    1190:	fd8a1ae3          	bne	x20,x24,1164 <.L125>

00001194 <.L124>:
    1194:	1000f153          	fmul.s	f2,f1,f0
    1198:	00180813          	addi	x16,x16,1
    119c:	002ea027          	fsw	f2,0(x29)
    11a0:	007e8eb3          	add	x29,x29,x7
    11a4:	fb0e10e3          	bne	x28,x16,1144 <.L126>
    11a8:	a51ff06f          	j	bf8 <.L260>

000011ac <.L161>:
    11ac:	f00000d3          	fmv.w.x	f1,x0
    11b0:	fe5ff06f          	j	1194 <.L124>

000011b4 <.L162>:
    11b4:	000a8993          	mv	x19,x21
    11b8:	944ff06f          	j	2fc <.L150>

000011bc <.L273>:
    11bc:	00092a03          	lw	x20,0(x18)
    11c0:	fccff06f          	j	98c <.L71>

000011c4 <.L272>:
    11c4:	00092603          	lw	x12,0(x18)
    11c8:	f34ff06f          	j	8fc <.L51>

000011cc <.L271>:
    11cc:	00092f83          	lw	x31,0(x18)
    11d0:	e9cff06f          	j	86c <.L140>

Disassembly of section .text._ZN8HBTensorIfLln1EEC2EP11hb_tensor_t:

00000000 <_ZN8HBTensorIfLln1EEC1EP11hb_tensor_t>:
   0:	00058713          	mv	x14,x11
   4:	0045a683          	lw	x13,4(x11) # 4 <_ZN8HBTensorIfLln1EEC1EP11hb_tensor_t+0x4>
   8:	00072803          	lw	x16,0(x14)
   c:	0105a583          	lw	x11,16(x11)
  10:	00050793          	mv	x15,x10
  14:	02850613          	addi	x12,x10,40 # 28 <_ZN8HBTensorIfLln1EEC1EP11hb_tensor_t+0x28>
  18:	01450513          	addi	x10,x10,20
  1c:	0107a023          	sw	x16,0(x15)
  20:	00d7a223          	sw	x13,4(x15)
  24:	00a7a423          	sw	x10,8(x15)
  28:	00c7a623          	sw	x12,12(x15)
  2c:	00b7a823          	sw	x11,16(x15)
  30:	00060613          	mv	x12,x12
  34:	00500293          	li	x5,5
  38:	04d2e463          	bltu	x5,x13,80 <.L14>
  3c:	00872303          	lw	x6,8(x14)
  40:	00c72383          	lw	x7,12(x14)
  44:	02068c63          	beqz	x13,7c <.L1>
  48:	00269893          	slli	x17,x13,0x2
  4c:	00078713          	mv	x14,x15
  50:	01178e33          	add	x28,x15,x17
  54:	40f30eb3          	sub	x29,x6,x15
  58:	40f38f33          	sub	x30,x7,x15

0000005c <.L5>:
  5c:	00ee8fb3          	add	x31,x29,x14
  60:	000fa683          	lw	x13,0(x31)
  64:	00ef05b3          	add	x11,x30,x14
  68:	00470713          	addi	x14,x14,4
  6c:	00d72823          	sw	x13,16(x14)
  70:	0005a803          	lw	x16,0(x11)
  74:	03072223          	sw	x16,36(x14)
  78:	ffc712e3          	bne	x14,x28,5c <.L5>

0000007c <.L1>:
  7c:	00008067          	ret

00000080 <.L14>:
  80:	ff010113          	addi	x2,x2,-16
  84:	000007b7          	lui	x15,0x0
  88:	00112623          	sw	x1,12(x2)
  8c:	000000b7          	lui	x1,0x0
  90:	0c700613          	li	x12,199
  94:	00008593          	mv	x11,x1
  98:	00078513          	mv	x10,x15
  9c:	00000097          	auipc	x1,0x0
  a0:	000080e7          	jalr	x1 # 9c <.L14+0x1c>
  a4:	00000637          	lui	x12,0x0
  a8:	00060513          	mv	x10,x12
  ac:	00000097          	auipc	x1,0x0
  b0:	000080e7          	jalr	x1 # ac <.L14+0x2c>
  b4:	00000537          	lui	x10,0x0
  b8:	00052283          	lw	x5,0(x10) # 0 <_ZN8HBTensorIfLln1EEC1EP11hb_tensor_t>
  bc:	00000337          	lui	x6,0x0
  c0:	00032383          	lw	x7,0(x6) # 0 <_ZN8HBTensorIfLln1EEC1EP11hb_tensor_t>
  c4:	01029893          	slli	x17,x5,0x10
  c8:	4100feb7          	lui	x29,0x4100f
  cc:	00788e33          	add	x28,x17,x7
  d0:	adceac23          	sw	x28,-1320(x29) # 4100ead8 <.L271+0x4100d90c>

000000d4 <.L3>:
  d4:	0000006f          	j	d4 <.L3>

Disassembly of section .srodata.cst4:

00000000 <.LC7>:
   0:	0000                	unimp
   2:	3f80                	fld	f8,56(x15)
