
kernel_index_select.o:     file format elf32-littleriscv


Disassembly of section .group:

00000000 <_ZN8HBTensorIfLln1EEC5EP11hb_tensor_t>:
   0:	0001                	nop
   2:	0000                	unimp
   4:	0008                	0x8
   6:	0000                	unimp
   8:	0009                	c.nop	2
	...

Disassembly of section .group:

00000000 <_ZN8HBTensorIlLln1EEC5EP11hb_tensor_t>:
   0:	0001                	nop
   2:	0000                	unimp
   4:	000a                	c.slli	x0,0x2
   6:	0000                	unimp
   8:	0000000b          	0xb

Disassembly of section .text:

00000000 <tensorlib_index_select>:
   0:	f1010113          	addi	x2,x2,-240
   4:	00050793          	mv	x15,x10
   8:	0e912223          	sw	x9,228(x2)
   c:	00c10513          	addi	x10,x2,12
  10:	00058493          	mv	x9,x11
  14:	00078593          	mv	x11,x15
  18:	0e112623          	sw	x1,236(x2)
  1c:	0e812423          	sw	x8,232(x2)
  20:	0f212023          	sw	x18,224(x2)
  24:	00060413          	mv	x8,x12
  28:	0d312e23          	sw	x19,220(x2)
  2c:	0d412c23          	sw	x20,216(x2)
  30:	0d512a23          	sw	x21,212(x2)
  34:	0d612823          	sw	x22,208(x2)
  38:	0d712623          	sw	x23,204(x2)
  3c:	0d812423          	sw	x24,200(x2)
  40:	0d912223          	sw	x25,196(x2)
  44:	00000097          	auipc	x1,0x0
  48:	000080e7          	jalr	x1 # 44 <tensorlib_index_select+0x44>
  4c:	00048593          	mv	x11,x9
  50:	04810513          	addi	x10,x2,72
  54:	00000097          	auipc	x1,0x0
  58:	000080e7          	jalr	x1 # 54 <tensorlib_index_select+0x54>
  5c:	00040593          	mv	x11,x8
  60:	08410513          	addi	x10,x2,132
  64:	00000097          	auipc	x1,0x0
  68:	000080e7          	jalr	x1 # 64 <tensorlib_index_select+0x64>
  6c:	000004b7          	lui	x9,0x0
  70:	00000937          	lui	x18,0x0
  74:	00000437          	lui	x8,0x0
  78:	000009b7          	lui	x19,0x0
  7c:	0004a283          	lw	x5,0(x9) # 0 <tensorlib_index_select>
  80:	00092583          	lw	x11,0(x18) # 0 <tensorlib_index_select>
  84:	00042703          	lw	x14,0(x8) # 0 <tensorlib_index_select>
  88:	0009a603          	lw	x12,0(x19) # 0 <tensorlib_index_select>
  8c:	00000ab7          	lui	x21,0x0
  90:	000aa683          	lw	x13,0(x21) # 0 <tensorlib_index_select>
  94:	00b28333          	add	x6,x5,x11
  98:	00c703b3          	add	x7,x14,x12
  9c:	01239813          	slli	x16,x7,0x12
  a0:	01831513          	slli	x10,x6,0x18
  a4:	3f0008b7          	lui	x17,0x3f000
  a8:	00fc0b37          	lui	x22,0xfc0
  ac:	00040e37          	lui	x28,0x40
  b0:	01687bb3          	and	x23,x16,x22
  b4:	01157a33          	and	x20,x10,x17
  b8:	00469c13          	slli	x24,x13,0x4
  bc:	ff0e0e93          	addi	x29,x28,-16 # 3fff0 <.L43+0x3fa20>
  c0:	017a6cb3          	or	x25,x20,x23
  c4:	01dc7f33          	and	x30,x24,x29
  c8:	01ecefb3          	or	x31,x25,x30
  cc:	01012283          	lw	x5,16(x2)
  d0:	800007b7          	lui	x15,0x80000
  d4:	00ffe5b3          	or	x11,x31,x15
  d8:	41001737          	lui	x14,0x41001
  dc:	01c12c83          	lw	x25,28(x2)
  e0:	05812383          	lw	x7,88(x2)
  e4:	09412b83          	lw	x23,148(x2)
  e8:	d0b72623          	sw	x11,-756(x14) # 41000d0c <.L43+0x4100073c>
  ec:	18028a63          	beqz	x5,280 <.L81>
  f0:	01812083          	lw	x1,24(x2)
  f4:	0000ae83          	lw	x29,0(x1)
  f8:	080e9663          	bnez	x29,184 <.L82>
  fc:	00100313          	li	x6,1

00000100 <.L31>:
 100:	08412683          	lw	x13,132(x2)
 104:	00100513          	li	x10,1
 108:	fff68813          	addi	x16,x13,-1
 10c:	32a28863          	beq	x5,x10,43c <.L83>
 110:	ffd00893          	li	x17,-3
 114:	0708ec63          	bltu	x17,x16,18c <.L32>
 118:	00000a37          	lui	x20,0x0
 11c:	000a2b03          	lw	x22,0(x20) # 0 <tensorlib_index_select>
 120:	0076dc13          	srli	x24,x13,0x7
 124:	001c0e13          	addi	x28,x24,1
 128:	07fb7f13          	andi	x30,x22,127
 12c:	03cf0fb3          	mul	x31,x30,x28
 130:	01fe02b3          	add	x5,x28,x31
 134:	3a56e063          	bltu	x13,x5,4d4 <.L84>
 138:	045ffa63          	bgeu	x31,x5,18c <.L32>

0000013c <.L92>:
 13c:	002f9593          	slli	x11,x31,0x2
 140:	02b30733          	mul	x14,x6,x11
 144:	00229793          	slli	x15,x5,0x2
 148:	00bb8a33          	add	x20,x23,x11
 14c:	00fb8c33          	add	x24,x23,x15
 150:	00231b13          	slli	x22,x6,0x2
 154:	00e38bb3          	add	x23,x7,x14

00000158 <.L50>:
 158:	000a2383          	lw	x7,0(x20)
 15c:	000b8513          	mv	x10,x23
 160:	004a0a13          	addi	x20,x20,4
 164:	027b00b3          	mul	x1,x22,x7
 168:	000b0613          	mv	x12,x22
 16c:	016b8bb3          	add	x23,x23,x22
 170:	001c85b3          	add	x11,x25,x1
 174:	00000097          	auipc	x1,0x0
 178:	000080e7          	jalr	x1 # 174 <.L50+0x1c>
 17c:	fd4c1ee3          	bne	x24,x20,158 <.L50>
 180:	00c0006f          	j	18c <.L32>

00000184 <.L82>:
 184:	00c12603          	lw	x12,12(x2)
 188:	35d67263          	bgeu	x12,x29,4cc <.L85>

0000018c <.L32>:
 18c:	0004a303          	lw	x6,0(x9)
 190:	00042c03          	lw	x24,0(x8)
 194:	00092a03          	lw	x20,0(x18)
 198:	0009a483          	lw	x9,0(x19)
 19c:	000aa403          	lw	x8,0(x21)
 1a0:	01430ab3          	add	x21,x6,x20
 1a4:	009c0cb3          	add	x25,x24,x9
 1a8:	018a9e93          	slli	x29,x21,0x18
 1ac:	012c9393          	slli	x7,x25,0x12
 1b0:	3f000f37          	lui	x30,0x3f000
 1b4:	00fc02b7          	lui	x5,0xfc0
 1b8:	00040b37          	lui	x22,0x40
 1bc:	0053f5b3          	and	x11,x7,x5
 1c0:	01eeffb3          	and	x31,x29,x30
 1c4:	00441b93          	slli	x23,x8,0x4
 1c8:	ff0b0713          	addi	x14,x22,-16 # 3fff0 <.L43+0x3fa20>
 1cc:	00bfe7b3          	or	x15,x31,x11
 1d0:	00ebf0b3          	and	x1,x23,x14
 1d4:	0017e533          	or	x10,x15,x1
 1d8:	c0000637          	lui	x12,0xc0000
 1dc:	00c56833          	or	x16,x10,x12
 1e0:	410018b7          	lui	x17,0x41001
 1e4:	d108a623          	sw	x16,-756(x17) # 41000d0c <.L43+0x4100073c>
 1e8:	0009ae03          	lw	x28,0(x19)
 1ec:	00092683          	lw	x13,0(x18)
 1f0:	000005b7          	lui	x11,0x0
 1f4:	004e0313          	addi	x6,x28,4
 1f8:	00058793          	mv	x15,x11
 1fc:	00678a33          	add	x20,x15,x6
 200:	01869c13          	slli	x24,x13,0x18
 204:	018a64b3          	or	x9,x20,x24
 208:	201c0437          	lui	x8,0x201c0
 20c:	0084eab3          	or	x21,x9,x8
 210:	00100c93          	li	x25,1
 214:	019a8023          	sb	x25,0(x21)
 218:	0009ae83          	lw	x29,0(x19)
 21c:	00700393          	li	x7,7
 220:	0a7e8663          	beq	x29,x7,2cc <.L86>

00000224 <.L52>:
 224:	00100913          	li	x18,1
 228:	0100006f          	j	238 <.L65>

0000022c <.L87>:
 22c:	00058693          	mv	x13,x11
 230:	1406a9af          	lr.w.aq	x19,(x13)
 234:	01298863          	beq	x19,x18,244 <.L64>

00000238 <.L65>:
 238:	00058e13          	mv	x28,x11
 23c:	100e2a2f          	lr.w	x20,(x28)
 240:	ff2a16e3          	bne	x20,x18,22c <.L87>

00000244 <.L64>:
 244:	0ec12083          	lw	x1,236(x2)
 248:	0e812403          	lw	x8,232(x2)
 24c:	0007a023          	sw	x0,0(x15) # 80000000 <.L43+0x7ffffa30>
 250:	0e412483          	lw	x9,228(x2)
 254:	0e012903          	lw	x18,224(x2)
 258:	0dc12983          	lw	x19,220(x2)
 25c:	0d812a03          	lw	x20,216(x2)
 260:	0d412a83          	lw	x21,212(x2)
 264:	0d012b03          	lw	x22,208(x2)
 268:	0cc12b83          	lw	x23,204(x2)
 26c:	0c812c03          	lw	x24,200(x2)
 270:	0c412c83          	lw	x25,196(x2)
 274:	00000513          	li	x10,0
 278:	0f010113          	addi	x2,x2,240
 27c:	00008067          	ret

00000280 <.L81>:
 280:	000007b7          	lui	x15,0x0
 284:	000005b7          	lui	x11,0x0
 288:	06f00613          	li	x12,111
 28c:	00058593          	mv	x11,x11
 290:	00078513          	mv	x10,x15
 294:	00000097          	auipc	x1,0x0
 298:	000080e7          	jalr	x1 # 294 <.L81+0x14>
 29c:	01012583          	lw	x11,16(x2)
 2a0:	00000bb7          	lui	x23,0x0
 2a4:	000b8513          	mv	x10,x23
 2a8:	00000097          	auipc	x1,0x0
 2ac:	000080e7          	jalr	x1 # 2a8 <.L81+0x28>
 2b0:	00092303          	lw	x6,0(x18)
 2b4:	0009ac03          	lw	x24,0(x19)
 2b8:	4100fab7          	lui	x21,0x4100f
 2bc:	01031493          	slli	x9,x6,0x10
 2c0:	01848433          	add	x8,x9,x24
 2c4:	ac8aac23          	sw	x8,-1320(x21) # 4100ead8 <.L43+0x4100e508>

000002c8 <.L30>:
 2c8:	0000006f          	j	2c8 <.L30>

000002cc <.L86>:
 2cc:	00000f37          	lui	x30,0x0
 2d0:	000002b7          	lui	x5,0x0
 2d4:	004f0f93          	addi	x31,x30,4 # 4 <tensorlib_index_select+0x4>
 2d8:	01428b93          	addi	x23,x5,20 # 14 <tensorlib_index_select+0x14>

000002dc <.L51>:
 2dc:	000f8713          	mv	x14,x31

000002e0 <.L54>:
 2e0:	00074b03          	lbu	x22,0(x14)
 2e4:	00170713          	addi	x14,x14,1
 2e8:	0ffb7093          	andi	x1,x22,255
 2ec:	fe0088e3          	beqz	x1,2dc <.L51>
 2f0:	feeb98e3          	bne	x23,x14,2e0 <.L54>
 2f4:	00092503          	lw	x10,0(x18)
 2f8:	231c08b7          	lui	x17,0x231c0
 2fc:	00100693          	li	x13,1
 300:	01850613          	addi	x12,x10,24
 304:	00c78833          	add	x16,x15,x12
 308:	01186e33          	or	x28,x16,x17
 30c:	00de0023          	sb	x13,0(x28)
 310:	0009aa03          	lw	x20,0(x19)
 314:	00700313          	li	x6,7
 318:	f06a16e3          	bne	x20,x6,224 <.L52>
 31c:	00092c03          	lw	x24,0(x18)
 320:	00300493          	li	x9,3
 324:	069c0e63          	beq	x24,x9,3a0 <.L88>

00000328 <.L60>:
 328:	00100313          	li	x6,1
 32c:	0100006f          	j	33c <.L56>

00000330 <.L89>:
 330:	01478413          	addi	x8,x15,20 # 14 <tensorlib_index_select+0x14>
 334:	14042aaf          	lr.w.aq	x21,(x8)
 338:	006a8863          	beq	x21,x6,348 <.L61>

0000033c <.L56>:
 33c:	01478c13          	addi	x24,x15,20
 340:	100c24af          	lr.w	x9,(x24)
 344:	fe6496e3          	bne	x9,x6,330 <.L89>

00000348 <.L61>:
 348:	0007aa23          	sw	x0,20(x15)
 34c:	00000393          	li	x7,0
 350:	01000c93          	li	x25,16

00000354 <.L62>:
 354:	00778eb3          	add	x29,x15,x7
 358:	000e8223          	sb	x0,4(x29)
 35c:	00138393          	addi	x7,x7,1
 360:	ff939ae3          	bne	x7,x25,354 <.L62>
 364:	0007a023          	sw	x0,0(x15)
 368:	00000813          	li	x16,0
 36c:	20000f37          	lui	x30,0x20000
 370:	00100f93          	li	x31,1
 374:	000402b7          	lui	x5,0x40
 378:	00400b37          	lui	x22,0x400

0000037c <.L63>:
 37c:	00092083          	lw	x1,0(x18)
 380:	0107e533          	or	x10,x15,x16
 384:	00580833          	add	x16,x16,x5
 388:	01809713          	slli	x14,x1,0x18
 38c:	00a76633          	or	x12,x14,x10
 390:	01e668b3          	or	x17,x12,x30
 394:	01f8a023          	sw	x31,0(x17) # 231c0000 <.L43+0x231bfa30>
 398:	ff6812e3          	bne	x16,x22,37c <.L63>
 39c:	e89ff06f          	j	224 <.L52>

000003a0 <.L88>:
 3a0:	00000437          	lui	x8,0x0
 3a4:	00000cb7          	lui	x25,0x0
 3a8:	01840a93          	addi	x21,x8,24 # 18 <tensorlib_index_select+0x18>
 3ac:	020c8e93          	addi	x29,x25,32 # 20 <tensorlib_index_select+0x20>

000003b0 <.L55>:
 3b0:	000a8f13          	mv	x30,x21

000003b4 <.L57>:
 3b4:	000f4383          	lbu	x7,0(x30) # 20000000 <.L43+0x1ffffa30>
 3b8:	001f0f13          	addi	x30,x30,1
 3bc:	0ff3ff93          	andi	x31,x7,255
 3c0:	fe0f88e3          	beqz	x31,3b0 <.L55>
 3c4:	ffee98e3          	bne	x29,x30,3b4 <.L57>
 3c8:	00078c23          	sb	x0,24(x15)
 3cc:	00078ca3          	sb	x0,25(x15)
 3d0:	00078d23          	sb	x0,26(x15)
 3d4:	00078da3          	sb	x0,27(x15)
 3d8:	00078e23          	sb	x0,28(x15)
 3dc:	00078ea3          	sb	x0,29(x15)
 3e0:	00078f23          	sb	x0,30(x15)
 3e4:	00078fa3          	sb	x0,31(x15)
 3e8:	0007aa23          	sw	x0,20(x15)
 3ec:	00000693          	li	x13,0
 3f0:	03fc02b7          	lui	x5,0x3fc0
 3f4:	20000b37          	lui	x22,0x20000
 3f8:	00100093          	li	x1,1
 3fc:	01000537          	lui	x10,0x1000
 400:	08000837          	lui	x16,0x8000
 404:	0080006f          	j	40c <.L59>

00000408 <.L90>:
 408:	0009aa03          	lw	x20,0(x19)

0000040c <.L59>:
 40c:	012a1713          	slli	x14,x20,0x12
 410:	00dbe633          	or	x12,x23,x13
 414:	005778b3          	and	x17,x14,x5
 418:	00c8ee33          	or	x28,x17,x12
 41c:	016e6a33          	or	x20,x28,x22
 420:	001a2023          	sw	x1,0(x20)
 424:	00a686b3          	add	x13,x13,x10
 428:	ff0690e3          	bne	x13,x16,408 <.L90>
 42c:	0009a983          	lw	x19,0(x19)
 430:	00700b93          	li	x23,7
 434:	ef798ae3          	beq	x19,x23,328 <.L60>
 438:	dedff06f          	j	224 <.L52>

0000043c <.L83>:
 43c:	ffd00313          	li	x6,-3
 440:	d50366e3          	bltu	x6,x16,18c <.L32>
 444:	00000637          	lui	x12,0x0
 448:	00062503          	lw	x10,0(x12) # 0 <tensorlib_index_select>
 44c:	0076d813          	srli	x16,x13,0x7
 450:	00180893          	addi	x17,x16,1 # 8000001 <.L43+0x7fffa31>
 454:	07f57e13          	andi	x28,x10,127
 458:	031e0a33          	mul	x20,x28,x17
 45c:	01488f33          	add	x30,x17,x20
 460:	09e6e063          	bltu	x13,x30,4e0 <.L91>

00000464 <.L35>:
 464:	d3ea74e3          	bgeu	x20,x30,18c <.L32>
 468:	00c12f83          	lw	x31,12(x2)
 46c:	01412283          	lw	x5,20(x2)
 470:	04812583          	lw	x11,72(x2)
 474:	04c12783          	lw	x15,76(x2)
 478:	05012083          	lw	x1,80(x2)
 47c:	002a1693          	slli	x13,x20,0x2
 480:	00db8c33          	add	x24,x23,x13
 484:	00100b93          	li	x23,1

00000488 <.L46>:
 488:	000c2b03          	lw	x22,0(x24)
 48c:	000b4463          	bltz	x22,494 <.L37>
 490:	05db6c63          	bltu	x22,x29,4e8 <.L38>

00000494 <.L37>:
 494:	000000b7          	lui	x1,0x0
 498:	00000537          	lui	x10,0x0
 49c:	01f00613          	li	x12,31
 4a0:	00008593          	mv	x11,x1
 4a4:	00050513          	mv	x10,x10
 4a8:	00000097          	auipc	x1,0x0
 4ac:	000080e7          	jalr	x1 # 4a8 <.L37+0x14>
 4b0:	00092603          	lw	x12,0(x18)
 4b4:	0009a803          	lw	x16,0(x19)
 4b8:	4100f6b7          	lui	x13,0x4100f
 4bc:	01061893          	slli	x17,x12,0x10
 4c0:	01088e33          	add	x28,x17,x16
 4c4:	adc6ac23          	sw	x28,-1320(x13) # 4100ead8 <.L43+0x4100e508>

000004c8 <.L39>:
 4c8:	0000006f          	j	4c8 <.L39>

000004cc <.L85>:
 4cc:	03d65333          	divu	x6,x12,x29
 4d0:	c31ff06f          	j	100 <.L31>

000004d4 <.L84>:
 4d4:	00068293          	mv	x5,x13
 4d8:	c65fe2e3          	bltu	x31,x5,13c <.L92>
 4dc:	cb1ff06f          	j	18c <.L32>

000004e0 <.L91>:
 4e0:	00068f13          	mv	x30,x13
 4e4:	f81ff06f          	j	464 <.L35>

000004e8 <.L38>:
 4e8:	05fb7663          	bgeu	x22,x31,534 <.L93>
 4ec:	0002a703          	lw	x14,0(x5) # 3fc0000 <.L43+0x3fbfa30>
 4f0:	002a1313          	slli	x6,x20,0x2
 4f4:	00638333          	add	x6,x7,x6
 4f8:	02eb0633          	mul	x12,x22,x14
 4fc:	00261513          	slli	x10,x12,0x2
 500:	00ac8833          	add	x16,x25,x10
 504:	08ba7063          	bgeu	x20,x11,584 <.L94>
 508:	01779a63          	bne	x15,x23,51c <.L45>
 50c:	0000a883          	lw	x17,0(x1)
 510:	031a0e33          	mul	x28,x20,x17
 514:	002e1693          	slli	x13,x28,0x2
 518:	00d38333          	add	x6,x7,x13

0000051c <.L45>:
 51c:	00082787          	flw	f15,0(x16)
 520:	001a0a13          	addi	x20,x20,1
 524:	004c0c13          	addi	x24,x24,4
 528:	00f32027          	fsw	f15,0(x6)
 52c:	f54f1ee3          	bne	x30,x20,488 <.L46>
 530:	c5dff06f          	j	18c <.L32>

00000534 <.L93>:
 534:	00000f37          	lui	x30,0x0
 538:	00000fb7          	lui	x31,0x0
 53c:	000f0593          	mv	x11,x30
 540:	08c00613          	li	x12,140
 544:	000f8513          	mv	x10,x31
 548:	00000097          	auipc	x1,0x0
 54c:	000080e7          	jalr	x1 # 548 <.L93+0x14>
 550:	00c12583          	lw	x11,12(x2)
 554:	000002b7          	lui	x5,0x0
 558:	000b0613          	mv	x12,x22
 55c:	00028513          	mv	x10,x5
 560:	00000097          	auipc	x1,0x0
 564:	000080e7          	jalr	x1 # 560 <.L93+0x2c>
 568:	00092583          	lw	x11,0(x18)
 56c:	0009ab83          	lw	x23,0(x19)
 570:	4100f737          	lui	x14,0x4100f
 574:	01059793          	slli	x15,x11,0x10
 578:	01778b33          	add	x22,x15,x23
 57c:	ad672c23          	sw	x22,-1320(x14) # 4100ead8 <.L43+0x4100e508>

00000580 <.L41>:
 580:	0000006f          	j	580 <.L41>

00000584 <.L94>:
 584:	000004b7          	lui	x9,0x0
 588:	00000437          	lui	x8,0x0
 58c:	00048593          	mv	x11,x9
 590:	08c00613          	li	x12,140
 594:	00040513          	mv	x10,x8
 598:	00000097          	auipc	x1,0x0
 59c:	000080e7          	jalr	x1 # 598 <.L94+0x14>
 5a0:	04812583          	lw	x11,72(x2)
 5a4:	00000ab7          	lui	x21,0x0
 5a8:	000a0613          	mv	x12,x20
 5ac:	000a8513          	mv	x10,x21
 5b0:	00000097          	auipc	x1,0x0
 5b4:	000080e7          	jalr	x1 # 5b0 <.L94+0x2c>
 5b8:	00092903          	lw	x18,0(x18)
 5bc:	0009a983          	lw	x19,0(x19)
 5c0:	4100f3b7          	lui	x7,0x4100f
 5c4:	01091c93          	slli	x25,x18,0x10
 5c8:	013c8eb3          	add	x29,x25,x19
 5cc:	add3ac23          	sw	x29,-1320(x7) # 4100ead8 <.L43+0x4100e508>

000005d0 <.L43>:
 5d0:	0000006f          	j	5d0 <.L43>

Disassembly of section .text._ZN8HBTensorIfLln1EEC2EP11hb_tensor_t:

00000000 <_ZN8HBTensorIfLln1EEC1EP11hb_tensor_t>:
   0:	00058713          	mv	x14,x11
   4:	0045a683          	lw	x13,4(x11) # 4 <_ZN8HBTensorIfLln1EEC1EP11hb_tensor_t+0x4>
   8:	00072803          	lw	x16,0(x14)
   c:	0105a583          	lw	x11,16(x11)
  10:	00050793          	mv	x15,x10
  14:	02850613          	addi	x12,x10,40 # 28 <_ZN8HBTensorIfLln1EEC1EP11hb_tensor_t+0x28>
  18:	01450513          	addi	x10,x10,20
  1c:	0107a023          	sw	x16,0(x15)
  20:	00d7a223          	sw	x13,4(x15)
  24:	00a7a423          	sw	x10,8(x15)
  28:	00c7a623          	sw	x12,12(x15)
  2c:	00b7a823          	sw	x11,16(x15)
  30:	00060613          	mv	x12,x12
  34:	00500293          	li	x5,5
  38:	04d2e463          	bltu	x5,x13,80 <.L14>
  3c:	00872303          	lw	x6,8(x14)
  40:	00c72383          	lw	x7,12(x14)
  44:	02068c63          	beqz	x13,7c <.L1>
  48:	00269893          	slli	x17,x13,0x2
  4c:	00078713          	mv	x14,x15
  50:	01178e33          	add	x28,x15,x17
  54:	40f30eb3          	sub	x29,x6,x15
  58:	40f38f33          	sub	x30,x7,x15

0000005c <.L5>:
  5c:	00ee8fb3          	add	x31,x29,x14
  60:	000fa683          	lw	x13,0(x31) # 0 <_ZN8HBTensorIfLln1EEC1EP11hb_tensor_t>
  64:	00ef05b3          	add	x11,x30,x14
  68:	00470713          	addi	x14,x14,4
  6c:	00d72823          	sw	x13,16(x14)
  70:	0005a803          	lw	x16,0(x11)
  74:	03072223          	sw	x16,36(x14)
  78:	ffc712e3          	bne	x14,x28,5c <.L5>

0000007c <.L1>:
  7c:	00008067          	ret

00000080 <.L14>:
  80:	ff010113          	addi	x2,x2,-16
  84:	000007b7          	lui	x15,0x0
  88:	00112623          	sw	x1,12(x2)
  8c:	000000b7          	lui	x1,0x0
  90:	0d800613          	li	x12,216
  94:	00008593          	mv	x11,x1
  98:	00078513          	mv	x10,x15
  9c:	00000097          	auipc	x1,0x0
  a0:	000080e7          	jalr	x1 # 9c <.L14+0x1c>
  a4:	00000637          	lui	x12,0x0
  a8:	00060513          	mv	x10,x12
  ac:	00000097          	auipc	x1,0x0
  b0:	000080e7          	jalr	x1 # ac <.L14+0x2c>
  b4:	00000537          	lui	x10,0x0
  b8:	00052283          	lw	x5,0(x10) # 0 <_ZN8HBTensorIfLln1EEC1EP11hb_tensor_t>
  bc:	00000337          	lui	x6,0x0
  c0:	00032383          	lw	x7,0(x6) # 0 <_ZN8HBTensorIfLln1EEC1EP11hb_tensor_t>
  c4:	01029893          	slli	x17,x5,0x10
  c8:	4100feb7          	lui	x29,0x4100f
  cc:	00788e33          	add	x28,x17,x7
  d0:	adceac23          	sw	x28,-1320(x29) # 4100ead8 <.L43+0x4100e508>

000000d4 <.L3>:
  d4:	0000006f          	j	d4 <.L3>

Disassembly of section .text._ZN8HBTensorIlLln1EEC2EP11hb_tensor_t:

00000000 <_ZN8HBTensorIlLln1EEC1EP11hb_tensor_t>:
   0:	00058713          	mv	x14,x11
   4:	0045a683          	lw	x13,4(x11)
   8:	00072803          	lw	x16,0(x14)
   c:	0105a583          	lw	x11,16(x11)
  10:	00050793          	mv	x15,x10
  14:	02850613          	addi	x12,x10,40
  18:	01450513          	addi	x10,x10,20
  1c:	0107a023          	sw	x16,0(x15) # 0 <_ZN8HBTensorIlLln1EEC1EP11hb_tensor_t>
  20:	00d7a223          	sw	x13,4(x15)
  24:	00a7a423          	sw	x10,8(x15)
  28:	00c7a623          	sw	x12,12(x15)
  2c:	00b7a823          	sw	x11,16(x15)
  30:	00060613          	mv	x12,x12
  34:	00500293          	li	x5,5
  38:	04d2e463          	bltu	x5,x13,80 <.L27>
  3c:	00872303          	lw	x6,8(x14)
  40:	00c72383          	lw	x7,12(x14)
  44:	02068c63          	beqz	x13,7c <.L15>
  48:	00269893          	slli	x17,x13,0x2
  4c:	00078713          	mv	x14,x15
  50:	01178e33          	add	x28,x15,x17
  54:	40f30eb3          	sub	x29,x6,x15
  58:	40f38f33          	sub	x30,x7,x15

0000005c <.L19>:
  5c:	00ee8fb3          	add	x31,x29,x14
  60:	000fa683          	lw	x13,0(x31)
  64:	00ef05b3          	add	x11,x30,x14
  68:	00470713          	addi	x14,x14,4
  6c:	00d72823          	sw	x13,16(x14)
  70:	0005a803          	lw	x16,0(x11)
  74:	03072223          	sw	x16,36(x14)
  78:	ffc712e3          	bne	x14,x28,5c <.L19>

0000007c <.L15>:
  7c:	00008067          	ret

00000080 <.L27>:
  80:	ff010113          	addi	x2,x2,-16
  84:	000007b7          	lui	x15,0x0
  88:	00112623          	sw	x1,12(x2)
  8c:	000000b7          	lui	x1,0x0
  90:	0d800613          	li	x12,216
  94:	00008593          	mv	x11,x1
  98:	00078513          	mv	x10,x15
  9c:	00000097          	auipc	x1,0x0
  a0:	000080e7          	jalr	x1 # 9c <.L27+0x1c>
  a4:	00000637          	lui	x12,0x0
  a8:	00060513          	mv	x10,x12
  ac:	00000097          	auipc	x1,0x0
  b0:	000080e7          	jalr	x1 # ac <.L27+0x2c>
  b4:	00000537          	lui	x10,0x0
  b8:	00052283          	lw	x5,0(x10) # 0 <_ZN8HBTensorIlLln1EEC1EP11hb_tensor_t>
  bc:	00000337          	lui	x6,0x0
  c0:	00032383          	lw	x7,0(x6) # 0 <_ZN8HBTensorIlLln1EEC1EP11hb_tensor_t>
  c4:	01029893          	slli	x17,x5,0x10
  c8:	4100feb7          	lui	x29,0x4100f
  cc:	00788e33          	add	x28,x17,x7
  d0:	adceac23          	sw	x28,-1320(x29) # 4100ead8 <.L43+0x4100e508>

000000d4 <.L17>:
  d4:	0000006f          	j	d4 <.L17>
