
kernel_fill.o:     file format elf32-littleriscv


Disassembly of section .group:

00000000 <_ZN8HBTensorIfLln1EEC5EP11hb_tensor_t>:
   0:	0001                	nop
   2:	0000                	unimp
   4:	00000007          	0x7
   8:	0008                	0x8
	...

Disassembly of section .text:

00000000 <tensorlib_fill>:
   0:	fa010113          	addi	x2,x2,-96
   4:	00050793          	mv	x15,x10
   8:	04812c23          	sw	x8,88(x2)
   c:	00410513          	addi	x10,x2,4
  10:	00058413          	mv	x8,x11
  14:	00078593          	mv	x11,x15
  18:	04912a23          	sw	x9,84(x2)
  1c:	05212823          	sw	x18,80(x2)
  20:	05312623          	sw	x19,76(x2)
  24:	04112e23          	sw	x1,92(x2)
  28:	00000097          	auipc	x1,0x0
  2c:	000080e7          	jalr	x1 # 28 <tensorlib_fill+0x28>
  30:	000008b7          	lui	x17,0x0
  34:	000006b7          	lui	x13,0x0
  38:	00000837          	lui	x16,0x0
  3c:	00000637          	lui	x12,0x0
  40:	0008a283          	lw	x5,0(x17) # 0 <tensorlib_fill>
  44:	0006ae03          	lw	x28,0(x13) # 0 <tensorlib_fill>
  48:	00082703          	lw	x14,0(x16) # 0 <tensorlib_fill>
  4c:	00062583          	lw	x11,0(x12) # 0 <tensorlib_fill>
  50:	00000537          	lui	x10,0x0
  54:	00052303          	lw	x6,0(x10) # 0 <tensorlib_fill>
  58:	01c283b3          	add	x7,x5,x28
  5c:	00b704b3          	add	x9,x14,x11
  60:	01839913          	slli	x18,x7,0x18
  64:	01249993          	slli	x19,x9,0x12
  68:	3f000eb7          	lui	x29,0x3f000
  6c:	00fc0fb7          	lui	x31,0xfc0
  70:	00040737          	lui	x14,0x40
  74:	01d97f33          	and	x30,x18,x29
  78:	01f9f7b3          	and	x15,x19,x31
  7c:	00431293          	slli	x5,x6,0x4
  80:	ff070593          	addi	x11,x14,-16 # 3fff0 <.L86+0x3fb88>
  84:	00ff6e33          	or	x28,x30,x15
  88:	00b2f333          	and	x6,x5,x11
  8c:	006e63b3          	or	x7,x28,x6
  90:	00412483          	lw	x9,4(x2)
  94:	80000937          	lui	x18,0x80000
  98:	0123e9b3          	or	x19,x7,x18
  9c:	00042787          	flw	f15,0(x8)
  a0:	41001437          	lui	x8,0x41001
  a4:	d1342623          	sw	x19,-756(x8) # 41000d0c <.L86+0x410008a4>
  a8:	fff00f13          	li	x30,-1
  ac:	00812383          	lw	x7,8(x2)
  b0:	00c12403          	lw	x8,12(x2)
  b4:	01412e83          	lw	x29,20(x2)
  b8:	09e48463          	beq	x9,x30,140 <.L22>
  bc:	08048263          	beqz	x9,140 <.L22>
  c0:	000000b7          	lui	x1,0x0
  c4:	0000af83          	lw	x31,0(x1) # 0 <tensorlib_fill>
  c8:	0044d793          	srli	x15,x9,0x4
  cc:	00178293          	addi	x5,x15,1
  d0:	03f280b3          	mul	x1,x5,x31
  d4:	00128e33          	add	x28,x5,x1
  d8:	2bc4e463          	bltu	x9,x28,380 <.L82>

000000dc <.L17>:
  dc:	07c0f263          	bgeu	x1,x28,140 <.L22>
  e0:	00100713          	li	x14,1
  e4:	2ae38263          	beq	x7,x14,388 <.L83>
  e8:	01012983          	lw	x19,16(x2)
  ec:	00239593          	slli	x11,x7,0x2
  f0:	01358933          	add	x18,x11,x19

000000f4 <.L29>:
  f4:	28038263          	beqz	x7,378 <.L52>
  f8:	00040f13          	mv	x30,x8
  fc:	00098293          	mv	x5,x19
 100:	00008313          	mv	x6,x1
 104:	00000713          	li	x14,0

00000108 <.L28>:
 108:	0002a783          	lw	x15,0(x5)
 10c:	000f2483          	lw	x9,0(x30)
 110:	00428293          	addi	x5,x5,4
 114:	02f37fb3          	remu	x31,x6,x15
 118:	004f0f13          	addi	x30,x30,4
 11c:	029f85b3          	mul	x11,x31,x9
 120:	02f35333          	divu	x6,x6,x15
 124:	00b70733          	add	x14,x14,x11
 128:	fe5910e3          	bne	x18,x5,108 <.L28>
 12c:	00271793          	slli	x15,x14,0x2
 130:	00fe8333          	add	x6,x29,x15

00000134 <.L27>:
 134:	00f32027          	fsw	f15,0(x6)
 138:	00108093          	addi	x1,x1,1
 13c:	fa1e1ce3          	bne	x28,x1,f4 <.L29>

00000140 <.L22>:
 140:	0008ae03          	lw	x28,0(x17)
 144:	00082903          	lw	x18,0(x16)
 148:	0006a883          	lw	x17,0(x13)
 14c:	00062803          	lw	x16,0(x12)
 150:	00052483          	lw	x9,0(x10)
 154:	011e0533          	add	x10,x28,x17
 158:	010900b3          	add	x1,x18,x16
 15c:	01851293          	slli	x5,x10,0x18
 160:	01209713          	slli	x14,x1,0x12
 164:	3f0005b7          	lui	x11,0x3f000
 168:	00fc0fb7          	lui	x31,0xfc0
 16c:	000409b7          	lui	x19,0x40
 170:	00b2ff33          	and	x30,x5,x11
 174:	01f773b3          	and	x7,x14,x31
 178:	00449413          	slli	x8,x9,0x4
 17c:	ff098313          	addi	x6,x19,-16 # 3fff0 <.L86+0x3fb88>
 180:	007f67b3          	or	x15,x30,x7
 184:	00647eb3          	and	x29,x8,x6
 188:	01d7ee33          	or	x28,x15,x29
 18c:	c00008b7          	lui	x17,0xc0000
 190:	011e6933          	or	x18,x28,x17
 194:	41001837          	lui	x16,0x41001
 198:	d1282623          	sw	x18,-756(x16) # 41000d0c <.L86+0x410008a4>
 19c:	00062483          	lw	x9,0(x12)
 1a0:	0006a503          	lw	x10,0(x13)
 1a4:	000000b7          	lui	x1,0x0
 1a8:	00448293          	addi	x5,x9,4
 1ac:	00008793          	mv	x15,x1
 1b0:	00578733          	add	x14,x15,x5
 1b4:	01851593          	slli	x11,x10,0x18
 1b8:	00b76f33          	or	x30,x14,x11
 1bc:	20040fb7          	lui	x31,0x20040
 1c0:	01ff63b3          	or	x7,x30,x31
 1c4:	00100413          	li	x8,1
 1c8:	00838023          	sb	x8,0(x7)
 1cc:	00062983          	lw	x19,0(x12)
 1d0:	04898463          	beq	x19,x8,218 <.L31>

000001d4 <.L43>:
 1d4:	00100893          	li	x17,1
 1d8:	0100006f          	j	1e8 <.L47>

000001dc <.L84>:
 1dc:	00008913          	mv	x18,x1
 1e0:	1409262f          	lr.w.aq	x12,(x18)
 1e4:	01160863          	beq	x12,x17,1f4 <.L46>

000001e8 <.L47>:
 1e8:	00008693          	mv	x13,x1
 1ec:	1006a72f          	lr.w	x14,(x13)
 1f0:	ff1716e3          	bne	x14,x17,1dc <.L84>

000001f4 <.L46>:
 1f4:	05c12083          	lw	x1,92(x2)
 1f8:	05812403          	lw	x8,88(x2)
 1fc:	0007a023          	sw	x0,0(x15)
 200:	05412483          	lw	x9,84(x2)
 204:	05012903          	lw	x18,80(x2)
 208:	04c12983          	lw	x19,76(x2)
 20c:	00000513          	li	x10,0
 210:	06010113          	addi	x2,x2,96
 214:	00008067          	ret

00000218 <.L31>:
 218:	0047c303          	lbu	x6,4(x15)
 21c:	0ff37e93          	andi	x29,x6,255
 220:	fe0e8ce3          	beqz	x29,218 <.L31>
 224:	0057ce03          	lbu	x28,5(x15)
 228:	0ffe7893          	andi	x17,x28,255
 22c:	fe0886e3          	beqz	x17,218 <.L31>
 230:	0067c903          	lbu	x18,6(x15)
 234:	0ff97813          	andi	x16,x18,255
 238:	fe0800e3          	beqz	x16,218 <.L31>
 23c:	0077c483          	lbu	x9,7(x15)
 240:	0ff4f513          	andi	x10,x9,255
 244:	fc050ae3          	beqz	x10,218 <.L31>
 248:	0006a283          	lw	x5,0(x13)
 24c:	21040fb7          	lui	x31,0x21040
 250:	00100593          	li	x11,1
 254:	00c28713          	addi	x14,x5,12
 258:	00e78f33          	add	x30,x15,x14
 25c:	01ff63b3          	or	x7,x30,x31
 260:	00b38023          	sb	x11,0(x7)
 264:	00062403          	lw	x8,0(x12)
 268:	f6b416e3          	bne	x8,x11,1d4 <.L43>
 26c:	0006a703          	lw	x14,0(x13)
 270:	06870c63          	beq	x14,x8,2e8 <.L37>

00000274 <.L42>:
 274:	00100913          	li	x18,1
 278:	0100006f          	j	288 <.L36>

0000027c <.L85>:
 27c:	00878493          	addi	x9,x15,8
 280:	1404a52f          	lr.w.aq	x10,(x9)
 284:	01250863          	beq	x10,x18,294 <.L44>

00000288 <.L36>:
 288:	00878613          	addi	x12,x15,8
 28c:	1006282f          	lr.w	x16,(x12)
 290:	ff2816e3          	bne	x16,x18,27c <.L85>

00000294 <.L44>:
 294:	0007a423          	sw	x0,8(x15)
 298:	00078223          	sb	x0,4(x15)
 29c:	000782a3          	sb	x0,5(x15)
 2a0:	00078323          	sb	x0,6(x15)
 2a4:	000783a3          	sb	x0,7(x15)
 2a8:	0007a023          	sw	x0,0(x15)
 2ac:	00000f93          	li	x31,0
 2b0:	00008793          	mv	x15,x1
 2b4:	200002b7          	lui	x5,0x20000
 2b8:	00100593          	li	x11,1
 2bc:	00040f37          	lui	x30,0x40
 2c0:	001003b7          	lui	x7,0x100

000002c4 <.L45>:
 2c4:	0006a403          	lw	x8,0(x13)
 2c8:	01f7e9b3          	or	x19,x15,x31
 2cc:	01ef8fb3          	add	x31,x31,x30
 2d0:	01841313          	slli	x6,x8,0x18
 2d4:	01336eb3          	or	x29,x6,x19
 2d8:	005eee33          	or	x28,x29,x5
 2dc:	00be2023          	sw	x11,0(x28)
 2e0:	fe7f92e3          	bne	x31,x7,2c4 <.L45>
 2e4:	ef1ff06f          	j	1d4 <.L43>

000002e8 <.L37>:
 2e8:	00c7c983          	lbu	x19,12(x15)
 2ec:	0ff9f313          	andi	x6,x19,255
 2f0:	fe030ce3          	beqz	x6,2e8 <.L37>
 2f4:	00d7ce83          	lbu	x29,13(x15)
 2f8:	0ffefe13          	andi	x28,x29,255
 2fc:	fe0e06e3          	beqz	x28,2e8 <.L37>
 300:	00e7c883          	lbu	x17,14(x15)
 304:	0ff8f913          	andi	x18,x17,255
 308:	fe0900e3          	beqz	x18,2e8 <.L37>
 30c:	00f7c803          	lbu	x16,15(x15)
 310:	0ff87493          	andi	x9,x16,255
 314:	fc048ae3          	beqz	x9,2e8 <.L37>
 318:	00078623          	sb	x0,12(x15)
 31c:	000786a3          	sb	x0,13(x15)
 320:	00078723          	sb	x0,14(x15)
 324:	000787a3          	sb	x0,15(x15)
 328:	00000537          	lui	x10,0x0
 32c:	0007a423          	sw	x0,8(x15)
 330:	00000893          	li	x17,0
 334:	00850293          	addi	x5,x10,8 # 8 <tensorlib_fill+0x8>
 338:	03fc05b7          	lui	x11,0x3fc0
 33c:	20000f37          	lui	x30,0x20000
 340:	00100393          	li	x7,1
 344:	01000437          	lui	x8,0x1000
 348:	040009b7          	lui	x19,0x4000

0000034c <.L41>:
 34c:	01271713          	slli	x14,x14,0x12
 350:	0112efb3          	or	x31,x5,x17
 354:	00b77333          	and	x6,x14,x11
 358:	01f36eb3          	or	x29,x6,x31
 35c:	01eeee33          	or	x28,x29,x30
 360:	007e2023          	sw	x7,0(x28)
 364:	008888b3          	add	x17,x17,x8
 368:	00062703          	lw	x14,0(x12)
 36c:	ff3890e3          	bne	x17,x19,34c <.L41>
 370:	f07702e3          	beq	x14,x7,274 <.L42>
 374:	e61ff06f          	j	1d4 <.L43>

00000378 <.L52>:
 378:	000e8313          	mv	x6,x29
 37c:	db9ff06f          	j	134 <.L27>

00000380 <.L82>:
 380:	00048e13          	mv	x28,x9
 384:	d59ff06f          	j	dc <.L17>

00000388 <.L83>:
 388:	00808313          	addi	x6,x1,8 # 8 <tensorlib_fill+0x8>
 38c:	00042f03          	lw	x30,0(x8) # 1000000 <.L86+0xfffb98>
 390:	0dc37c63          	bgeu	x6,x28,468 <.L86>
 394:	003f1393          	slli	x7,x30,0x3
 398:	41e38433          	sub	x8,x7,x30
 39c:	41e009b3          	neg	x19,x30
 3a0:	00241f93          	slli	x31,x8,0x2
 3a4:	00100293          	li	x5,1
 3a8:	00299593          	slli	x11,x19,0x2
 3ac:	0340006f          	j	3e0 <.L21>

000003b0 <.L88>:
 3b0:	00f4ae27          	fsw	f15,28(x9)
 3b4:	00f4ac27          	fsw	f15,24(x9)
 3b8:	00f4aa27          	fsw	f15,20(x9)
 3bc:	00f4a827          	fsw	f15,16(x9)
 3c0:	00f4a627          	fsw	f15,12(x9)
 3c4:	00f4a427          	fsw	f15,8(x9)
 3c8:	00f4a227          	fsw	f15,4(x9)
 3cc:	00f4a027          	fsw	f15,0(x9)
 3d0:	00830393          	addi	x7,x6,8
 3d4:	00030093          	mv	x1,x6
 3d8:	07c3f463          	bgeu	x7,x28,440 <.L87>

000003dc <.L51>:
 3dc:	00038313          	mv	x6,x7

000003e0 <.L21>:
 3e0:	00209913          	slli	x18,x1,0x2
 3e4:	012e84b3          	add	x9,x29,x18
 3e8:	fc5f04e3          	beq	x30,x5,3b0 <.L88>
 3ec:	021f00b3          	mul	x1,x30,x1
 3f0:	00209713          	slli	x14,x1,0x2
 3f4:	00ee83b3          	add	x7,x29,x14
 3f8:	01f387b3          	add	x15,x7,x31
 3fc:	00f7a027          	fsw	f15,0(x15)
 400:	00b78433          	add	x8,x15,x11
 404:	00f42027          	fsw	f15,0(x8)
 408:	00b409b3          	add	x19,x8,x11
 40c:	00f9a027          	fsw	f15,0(x19) # 4000000 <.L86+0x3fffb98>
 410:	00b98933          	add	x18,x19,x11
 414:	00f92027          	fsw	f15,0(x18) # 80000000 <.L86+0x7ffffb98>
 418:	00b904b3          	add	x9,x18,x11
 41c:	00f4a027          	fsw	f15,0(x9)
 420:	00b480b3          	add	x1,x9,x11
 424:	00f0a027          	fsw	f15,0(x1)
 428:	00b08733          	add	x14,x1,x11
 42c:	00f72027          	fsw	f15,0(x14)
 430:	00f3a027          	fsw	f15,0(x7) # 100000 <.L86+0xffb98>
 434:	00830393          	addi	x7,x6,8
 438:	00030093          	mv	x1,x6
 43c:	fbc3e0e3          	bltu	x7,x28,3dc <.L51>

00000440 <.L87>:
 440:	d1c370e3          	bgeu	x6,x28,140 <.L22>

00000444 <.L19>:
 444:	026f07b3          	mul	x15,x30,x6
 448:	002f1413          	slli	x8,x30,0x2
 44c:	00279993          	slli	x19,x15,0x2
 450:	013e8eb3          	add	x29,x29,x19

00000454 <.L26>:
 454:	00fea027          	fsw	f15,0(x29) # 3f000000 <.L86+0x3efffb98>
 458:	00130313          	addi	x6,x6,1
 45c:	008e8eb3          	add	x29,x29,x8
 460:	fe6e1ae3          	bne	x28,x6,454 <.L26>
 464:	cddff06f          	j	140 <.L22>

00000468 <.L86>:
 468:	00008313          	mv	x6,x1
 46c:	fd9ff06f          	j	444 <.L19>

Disassembly of section .rodata._ZN8HBTensorIfLln1EEC2EP11hb_tensor_t.str1.4:

00000000 <.LC0>:
   0:	726f772f          	0x726f772f
   4:	6c672f6b          	0x6c672f6b
   8:	6c61626f          	jal	x4,166ce <.L86+0x16266>
   c:	33726b2f          	0x33726b2f
  10:	3739                	jal	ffffff1e <.L86+0xfffffab6>
  12:	2d62682f          	0x2d62682f
  16:	7970                	flw	f12,116(x10)
  18:	6f74                	flw	f13,92(x14)
  1a:	6372                	flw	f6,28(x2)
  1c:	2f68                	fld	f10,216(x14)
  1e:	6168                	flw	f10,68(x10)
  20:	6d6d                	lui	x26,0x1b
  22:	7265                	lui	x4,0xffff9
  24:	6c62                	flw	f24,24(x2)
  26:	6461                	lui	x8,0x18
  28:	2f65                	jal	7e0 <.L86+0x378>
  2a:	6f74                	flw	f13,92(x14)
  2c:	6372                	flw	f6,28(x2)
  2e:	2f68                	fld	f10,216(x14)
  30:	6e72656b          	0x6e72656b
  34:	6c65                	lui	x24,0x19
  36:	5f62682f          	0x5f62682f
  3a:	6574                	flw	f13,76(x10)
  3c:	736e                	flw	f6,248(x2)
  3e:	682e726f          	jal	x4,e76c0 <.L86+0xe7258>
  42:	7070                	flw	f12,100(x8)
  44:	0000                	unimp
	...

00000048 <.LC1>:
  48:	7361                	lui	x6,0xffff8
  4a:	74726573          	csrrsi	x10,0x747,4
  4e:	6620                	flw	f8,72(x12)
  50:	6961                	lui	x18,0x18
  52:	656c                	flw	f11,76(x10)
  54:	2064                	fld	f9,192(x8)
  56:	7461                	lui	x8,0xffff8
  58:	2520                	fld	f8,72(x10)
  5a:	64253a73          	csrrc	x20,0x642,x10
  5e:	0020                	addi	x8,x2,8

00000060 <.LC2>:
  60:	7265                	lui	x4,0xffff9
  62:	6f72                	flw	f30,28(x2)
  64:	3a72                	fld	f20,312(x2)
  66:	7420                	flw	f8,104(x8)
  68:	6e65                	lui	x28,0x19
  6a:	20726f73          	csrrsi	x30,0x207,4
  6e:	6964                	flw	f9,84(x10)
  70:	736d                	lui	x6,0xffffb
  72:	6920                	flw	f8,80(x10)
  74:	6f742073          	csrs	0x6f7,x8
  78:	616c206f          	j	c268e <.L86+0xc2226>
  7c:	6772                	flw	f14,28(x2)
  7e:	0065                	c.nop	25

Disassembly of section .text._ZN8HBTensorIfLln1EEC2EP11hb_tensor_t:

00000000 <_ZN8HBTensorIfLln1EEC1EP11hb_tensor_t>:
   0:	00058713          	mv	x14,x11
   4:	0045a683          	lw	x13,4(x11) # 3fc0004 <.L86+0x3fbfb9c>
   8:	00072803          	lw	x16,0(x14)
   c:	0105a583          	lw	x11,16(x11)
  10:	00050793          	mv	x15,x10
  14:	02850613          	addi	x12,x10,40
  18:	01450513          	addi	x10,x10,20
  1c:	0107a023          	sw	x16,0(x15)
  20:	00d7a223          	sw	x13,4(x15)
  24:	00a7a423          	sw	x10,8(x15)
  28:	00c7a623          	sw	x12,12(x15)
  2c:	00b7a823          	sw	x11,16(x15)
  30:	00060613          	mv	x12,x12
  34:	00500293          	li	x5,5
  38:	04d2e463          	bltu	x5,x13,80 <.L14>
  3c:	00872303          	lw	x6,8(x14)
  40:	00c72383          	lw	x7,12(x14)
  44:	02068c63          	beqz	x13,7c <.L1>
  48:	00269893          	slli	x17,x13,0x2
  4c:	00078713          	mv	x14,x15
  50:	01178e33          	add	x28,x15,x17
  54:	40f30eb3          	sub	x29,x6,x15
  58:	40f38f33          	sub	x30,x7,x15

0000005c <.L5>:
  5c:	00ee8fb3          	add	x31,x29,x14
  60:	000fa683          	lw	x13,0(x31) # 21040000 <.L86+0x2103fb98>
  64:	00ef05b3          	add	x11,x30,x14
  68:	00470713          	addi	x14,x14,4
  6c:	00d72823          	sw	x13,16(x14)
  70:	0005a803          	lw	x16,0(x11)
  74:	03072223          	sw	x16,36(x14)
  78:	ffc712e3          	bne	x14,x28,5c <.L5>

0000007c <.L1>:
  7c:	00008067          	ret

00000080 <.L14>:
  80:	ff010113          	addi	x2,x2,-16
  84:	000007b7          	lui	x15,0x0
  88:	00112623          	sw	x1,12(x2)
  8c:	000000b7          	lui	x1,0x0
  90:	0c700613          	li	x12,199
  94:	00008593          	mv	x11,x1
  98:	00078513          	mv	x10,x15
  9c:	00000097          	auipc	x1,0x0
  a0:	000080e7          	jalr	x1 # 9c <.L14+0x1c>
  a4:	00000637          	lui	x12,0x0
  a8:	00060513          	mv	x10,x12
  ac:	00000097          	auipc	x1,0x0
  b0:	000080e7          	jalr	x1 # ac <.L14+0x2c>
  b4:	00000537          	lui	x10,0x0
  b8:	00052283          	lw	x5,0(x10) # 0 <_ZN8HBTensorIfLln1EEC1EP11hb_tensor_t>
  bc:	00000337          	lui	x6,0x0
  c0:	00032383          	lw	x7,0(x6) # 0 <_ZN8HBTensorIfLln1EEC1EP11hb_tensor_t>
  c4:	01029893          	slli	x17,x5,0x10
  c8:	4100feb7          	lui	x29,0x4100f
  cc:	00788e33          	add	x28,x17,x7
  d0:	adceac23          	sw	x28,-1320(x29) # 4100ead8 <.L86+0x4100e670>

000000d4 <.L3>:
  d4:	0000006f          	j	d4 <.L3>

Disassembly of section .comment:

00000000 <.comment>:
   0:	4700                	lw	x8,8(x14)
   2:	203a4343          	fmadd.s	f6,f20,f3,f4,rmm
   6:	4728                	lw	x10,72(x14)
   8:	554e                	lw	x10,240(x2)
   a:	2029                	jal	14 <_ZN8HBTensorIfLln1EEC5EP11hb_tensor_t+0x14>
   c:	2e39                	jal	32a <.L37+0x42>
   e:	2e32                	fld	f28,264(x2)
  10:	0030                	addi	x12,x2,8

Disassembly of section .eh_frame:

00000000 <.eh_frame>:
   0:	0010                	0x10
   2:	0000                	unimp
   4:	0000                	unimp
   6:	0000                	unimp
   8:	7a01                	lui	x20,0xfffe0
   a:	0052                	c.slli	x0,0x14
   c:	7c01                	lui	x24,0xfffe0
   e:	0101                	addi	x2,x2,0
  10:	00020d1b          	0x20d1b
  14:	0014                	0x14
  16:	0000                	unimp
  18:	0018                	0x18
	...
  22:	0000                	unimp
  24:	0200                	addi	x8,x2,256
  26:	0e84                	addi	x9,x2,848
  28:	4810                	lw	x12,16(x8)
  2a:	0181                	addi	x3,x3,0
  2c:	0030                	addi	x12,x2,8
  2e:	0000                	unimp
  30:	0030                	addi	x12,x2,8
	...
  3a:	0000                	unimp
  3c:	4400                	lw	x8,8(x8)
  3e:	600e                	flw	f0,192(x2)
  40:	884c                	0x884c
  42:	5802                	lw	x16,32(x2)
  44:	0389                	addi	x7,x7,2
  46:	0492                	slli	x9,x9,0x4
  48:	01810593          	addi	x11,x2,24
  4c:	0a01d003          	lhu	x0,160(x3)
  50:	44c1                	li	x9,16
  52:	48c8                	lw	x10,20(x9)
  54:	44c9                	li	x9,18
  56:	44d2                	lw	x9,20(x2)
  58:	000e48d3          	fadd.s	f17,f28,f0,rmm
  5c:	0b44                	addi	x9,x2,404
	...

Disassembly of section .riscv.attributes:

00000000 <.riscv.attributes>:
   0:	2a41                	jal	190 <.L22+0x50>
   2:	0000                	unimp
   4:	7200                	flw	f8,32(x12)
   6:	7369                	lui	x6,0xffffa
   8:	01007663          	bgeu	x0,x16,14 <.riscv.attributes+0x14>
   c:	0020                	addi	x8,x2,8
   e:	0000                	unimp
  10:	1004                	addi	x9,x2,32
  12:	7205                	lui	x4,0xfffe1
  14:	3376                	fld	f6,376(x2)
  16:	6932                	flw	f18,12(x2)
  18:	7032                	flw	f0,44(x2)
  1a:	5f30                	lw	x12,120(x14)
  1c:	326d                	jal	fffff9c6 <.L86+0xfffff55e>
  1e:	3070                	fld	f12,224(x8)
  20:	615f 7032 5f30      	0x5f307032615f
  26:	3266                	fld	f4,120(x2)
  28:	3070                	fld	f12,224(x8)
	...
