
kernel_addmm_naive.o:     file format elf32-littleriscv


Disassembly of section .group:

00000000 <_ZN8HBTensorIfLl2EEC5EP11hb_tensor_t>:
   0:	0001                	nop
   2:	0000                	unimp
   4:	00000007          	0x7
   8:	0008                	0x8
	...

Disassembly of section .text:

00000000 <tensorlib_addmm_naive>:
   0:	ea010113          	addi	x2,x2,-352
   4:	14112e23          	sw	x1,348(x2)
   8:	14812c23          	sw	x8,344(x2)
   c:	14912a23          	sw	x9,340(x2)
  10:	16010413          	addi	x8,x2,352
  14:	15212823          	sw	x18,336(x2)
  18:	15312623          	sw	x19,332(x2)
  1c:	15412423          	sw	x20,328(x2)
  20:	15512223          	sw	x21,324(x2)
  24:	15612023          	sw	x22,320(x2)
  28:	13712e23          	sw	x23,316(x2)
  2c:	13812c23          	sw	x24,312(x2)
  30:	13912a23          	sw	x25,308(x2)
  34:	13a12823          	sw	x26,304(x2)
  38:	13b12623          	sw	x27,300(x2)
  3c:	00050493          	mv	x9,x10
  40:	f3040513          	addi	x10,x8,-208
  44:	00060993          	mv	x19,x12
  48:	00068913          	mv	x18,x13
  4c:	00000097          	auipc	x1,0x0
  50:	000080e7          	jalr	x1 # 4c <tensorlib_addmm_naive+0x4c>
  54:	00098593          	mv	x11,x19
  58:	f5440513          	addi	x10,x8,-172
  5c:	00000097          	auipc	x1,0x0
  60:	000080e7          	jalr	x1 # 5c <tensorlib_addmm_naive+0x5c>
  64:	00090593          	mv	x11,x18
  68:	f7840513          	addi	x10,x8,-136
  6c:	00000097          	auipc	x1,0x0
  70:	000080e7          	jalr	x1 # 6c <tensorlib_addmm_naive+0x6c>
  74:	00048593          	mv	x11,x9
  78:	f9c40513          	addi	x10,x8,-100
  7c:	00000097          	auipc	x1,0x0
  80:	000080e7          	jalr	x1 # 7c <tensorlib_addmm_naive+0x7c>
  84:	000007b7          	lui	x15,0x0
  88:	00000737          	lui	x14,0x0
  8c:	00000337          	lui	x6,0x0
  90:	000006b7          	lui	x13,0x0
  94:	0007a283          	lw	x5,0(x15) # 0 <tensorlib_addmm_naive>
  98:	00072583          	lw	x11,0(x14) # 0 <tensorlib_addmm_naive>
  9c:	00032383          	lw	x7,0(x6) # 0 <tensorlib_addmm_naive>
  a0:	0006a603          	lw	x12,0(x13) # 0 <tensorlib_addmm_naive>
  a4:	00000537          	lui	x10,0x0
  a8:	00052803          	lw	x16,0(x10) # 0 <tensorlib_addmm_naive>
  ac:	00b288b3          	add	x17,x5,x11
  b0:	00c38a33          	add	x20,x7,x12
  b4:	01889a93          	slli	x21,x17,0x18
  b8:	012a1b13          	slli	x22,x20,0x12
  bc:	3f000bb7          	lui	x23,0x3f000
  c0:	00fc0cb7          	lui	x25,0xfc0
  c4:	00040eb7          	lui	x29,0x40
  c8:	017afc33          	and	x24,x21,x23
  cc:	019b7d33          	and	x26,x22,x25
  d0:	00481d93          	slli	x27,x16,0x4
  d4:	ff0e8f13          	addi	x30,x29,-16 # 3fff0 <.L100+0x3f060>
  d8:	01ac6e33          	or	x28,x24,x26
  dc:	01edffb3          	and	x31,x27,x30
  e0:	f5842983          	lw	x19,-168(x8)
  e4:	01fe64b3          	or	x9,x28,x31
  e8:	80000937          	lui	x18,0x80000
  ec:	0124e7b3          	or	x15,x9,x18
  f0:	410012b7          	lui	x5,0x41001
  f4:	d0f2a623          	sw	x15,-756(x5) # 41000d0c <.L100+0x40fffd7c>
  f8:	76098c63          	beqz	x19,870 <.L146>
  fc:	00100093          	li	x1,1
 100:	7130fe63          	bgeu	x1,x19,81c <.L147>
 104:	f7c42703          	lw	x14,-132(x8)
 108:	7e070e63          	beqz	x14,904 <.L148>
 10c:	04e0f6e3          	bgeu	x1,x14,958 <.L149>
 110:	f6042583          	lw	x11,-160(x8)
 114:	f8442303          	lw	x6,-124(x8)
 118:	0045a383          	lw	x7,4(x11)
 11c:	00032603          	lw	x12,0(x6)
 120:	ee742a23          	sw	x7,-268(x8)
 124:	7ac39063          	bne	x7,x12,8c4 <.L150>
 128:	00432a03          	lw	x20,4(x6)
 12c:	0005a683          	lw	x13,0(x11)
 130:	ef442a83          	lw	x21,-268(x8)
 134:	007a0813          	addi	x16,x20,7
 138:	41f85b93          	srai	x23,x16,0x1f
 13c:	00768893          	addi	x17,x13,7
 140:	007bfc93          	andi	x25,x23,7
 144:	41f8db13          	srai	x22,x17,0x1f
 148:	010c8db3          	add	x27,x25,x16
 14c:	007b7c13          	andi	x24,x22,7
 150:	403dde93          	srai	x29,x27,0x3
 154:	00800f13          	li	x30,8
 158:	011c0d33          	add	x26,x24,x17
 15c:	007af513          	andi	x10,x21,7
 160:	edd42e23          	sw	x29,-292(x8)
 164:	f1e42223          	sw	x30,-252(x8)
 168:	403d5e13          	srai	x28,x26,0x3
 16c:	00050e63          	beqz	x10,188 <.L20>
 170:	41fadf93          	srai	x31,x21,0x1f
 174:	01dfd493          	srli	x9,x31,0x1d
 178:	009a89b3          	add	x19,x21,x9
 17c:	0079f913          	andi	x18,x19,7
 180:	409907b3          	sub	x15,x18,x9
 184:	f0f42223          	sw	x15,-252(x8)

00000188 <.L20>:
 188:	00800093          	li	x1,8
 18c:	0076f293          	andi	x5,x13,7
 190:	f0142023          	sw	x1,-256(x8)
 194:	00028e63          	beqz	x5,1b0 <.L21>
 198:	41f6d713          	srai	x14,x13,0x1f
 19c:	01d75593          	srli	x11,x14,0x1d
 1a0:	00b68333          	add	x6,x13,x11
 1a4:	00737393          	andi	x7,x6,7
 1a8:	40b386b3          	sub	x13,x7,x11
 1ac:	f0d42023          	sw	x13,-256(x8)

000001b0 <.L21>:
 1b0:	00800893          	li	x17,8
 1b4:	007a7a93          	andi	x21,x20,7
 1b8:	ef142223          	sw	x17,-284(x8)
 1bc:	000a8e63          	beqz	x21,1d8 <.L22>
 1c0:	41fa5813          	srai	x16,x20,0x1f
 1c4:	01d85b13          	srli	x22,x16,0x1d
 1c8:	016a0a33          	add	x20,x20,x22
 1cc:	007a7b93          	andi	x23,x20,7
 1d0:	416b8c33          	sub	x24,x23,x22
 1d4:	ef842223          	sw	x24,-284(x8)

000001d8 <.L22>:
 1d8:	edc42c83          	lw	x25,-292(x8)
 1dc:	fff00d93          	li	x27,-1
 1e0:	039e0d33          	mul	x26,x28,x25
 1e4:	53bd0263          	beq	x26,x27,708 <.L26>
 1e8:	520d0063          	beqz	x26,708 <.L26>
 1ec:	00000eb7          	lui	x29,0x0
 1f0:	000eaf03          	lw	x30,0(x29) # 0 <tensorlib_addmm_naive>
 1f4:	007d5513          	srli	x10,x26,0x7
 1f8:	00150f93          	addi	x31,x10,1
 1fc:	07ff7493          	andi	x9,x30,127
 200:	03f489b3          	mul	x19,x9,x31
 204:	013f8933          	add	x18,x31,x19
 208:	ef342023          	sw	x19,-288(x8)
 20c:	ed242c23          	sw	x18,-296(x8)
 210:	012d7463          	bgeu	x26,x18,218 <.L27>
 214:	eda42c23          	sw	x26,-296(x8)

00000218 <.L27>:
 218:	ee042783          	lw	x15,-288(x8)
 21c:	ed842283          	lw	x5,-296(x8)
 220:	4e57f463          	bgeu	x15,x5,708 <.L26>
 224:	ee442083          	lw	x1,-284(x8)
 228:	f0042303          	lw	x6,-256(x8)
 22c:	ef442583          	lw	x11,-268(x8)
 230:	00760613          	addi	x12,x12,7
 234:	02608733          	mul	x14,x1,x6
 238:	00758513          	addi	x10,x11,7
 23c:	41f55693          	srai	x13,x10,0x1f
 240:	edc42d83          	lw	x27,-292(x8)
 244:	f0442f83          	lw	x31,-252(x8)
 248:	0076fa93          	andi	x21,x13,7
 24c:	41f65893          	srai	x17,x12,0x1f
 250:	00aa8833          	add	x16,x21,x10
 254:	0078fb13          	andi	x22,x17,7
 258:	40385a13          	srai	x20,x16,0x3
 25c:	00271c13          	slli	x24,x14,0x2
 260:	00cb0cb3          	add	x25,x22,x12
 264:	00fc0d13          	addi	x26,x24,15
 268:	00531b93          	slli	x23,x6,0x5
 26c:	fffe0e13          	addi	x28,x28,-1
 270:	fffd8e93          	addi	x29,x27,-1
 274:	403cdf13          	srai	x30,x25,0x3
 278:	002f9493          	slli	x9,x31,0x2
 27c:	fffa0993          	addi	x19,x20,-1
 280:	00509913          	slli	x18,x1,0x5
 284:	ff0d7793          	andi	x15,x26,-16
 288:	f1442823          	sw	x20,-240(x8)
 28c:	eb742e23          	sw	x23,-324(x8)
 290:	ebc42c23          	sw	x28,-328(x8)
 294:	edd42623          	sw	x29,-308(x8)
 298:	f1e42623          	sw	x30,-244(x8)
 29c:	ea942a23          	sw	x9,-332(x8)
 2a0:	f1342423          	sw	x19,-248(x8)
 2a4:	eb242823          	sw	x18,-336(x8)
 2a8:	eaf42623          	sw	x15,-340(x8)
 2ac:	eb742423          	sw	x23,-344(x8)

000002b0 <.L45>:
 2b0:	ee042283          	lw	x5,-288(x8)
 2b4:	edc42083          	lw	x1,-292(x8)
 2b8:	eb842583          	lw	x11,-328(x8)
 2bc:	ec242023          	sw	x2,-320(x8)
 2c0:	0212f333          	remu	x6,x5,x1
 2c4:	f4042603          	lw	x12,-192(x8)
 2c8:	f3842a83          	lw	x21,-200(x8)
 2cc:	0212d733          	divu	x14,x5,x1
 2d0:	ee642e23          	sw	x6,-260(x8)
 2d4:	2cb708e3          	beq	x14,x11,da4 <.L151>
 2d8:	efc42503          	lw	x10,-260(x8)
 2dc:	ecc42383          	lw	x7,-308(x8)
 2e0:	6c750663          	beq	x10,x7,9ac <.L109>

000002e4 <.L114>:
 2e4:	10000d13          	li	x26,256

000002e8 <.L31>:
 2e8:	efc42e03          	lw	x28,-260(x8)
 2ec:	41a10133          	sub	x2,x2,x26
 2f0:	00010d93          	mv	x27,x2
 2f4:	003e1f13          	slli	x30,x28,0x3
 2f8:	00371993          	slli	x19,x14,0x3
 2fc:	f3b42023          	sw	x27,-224(x8)
 300:	f1e42c23          	sw	x30,-232(x8)
 304:	f1342e23          	sw	x19,-228(x8)
 308:	001f0093          	addi	x1,x30,1
 30c:	00000293          	li	x5,0

00000310 <.L41>:
 310:	004aa483          	lw	x9,4(x21)
 314:	000aaf83          	lw	x31,0(x21)
 318:	01328933          	add	x18,x5,x19
 31c:	02148eb3          	mul	x29,x9,x1
 320:	03f90733          	mul	x14,x18,x31
 324:	01d48333          	add	x6,x9,x29
 328:	006483b3          	add	x7,x9,x6
 32c:	00748533          	add	x10,x9,x7
 330:	00a485b3          	add	x11,x9,x10
 334:	00b488b3          	add	x17,x9,x11
 338:	029f06b3          	mul	x13,x30,x9
 33c:	009707b3          	add	x15,x14,x9
 340:	01d70b33          	add	x22,x14,x29
 344:	01170cb3          	add	x25,x14,x17
 348:	00670a33          	add	x20,x14,x6
 34c:	00770833          	add	x16,x14,x7
 350:	00a70bb3          	add	x23,x14,x10
 354:	00b70c33          	add	x24,x14,x11
 358:	01178d33          	add	x26,x15,x17
 35c:	002b1913          	slli	x18,x22,0x2
 360:	00e68e33          	add	x28,x13,x14
 364:	002a1313          	slli	x6,x20,0x2
 368:	00281393          	slli	x7,x16,0x2
 36c:	002b9513          	slli	x10,x23,0x2
 370:	002e1f93          	slli	x31,x28,0x2
 374:	002c1713          	slli	x14,x24,0x2
 378:	002c9493          	slli	x9,x25,0x2
 37c:	002d1893          	slli	x17,x26,0x2
 380:	01f606b3          	add	x13,x12,x31
 384:	01260eb3          	add	x29,x12,x18
 388:	00660b33          	add	x22,x12,x6
 38c:	00760a33          	add	x20,x12,x7
 390:	00a605b3          	add	x11,x12,x10
 394:	00e60833          	add	x16,x12,x14
 398:	00960bb3          	add	x23,x12,x9
 39c:	011607b3          	add	x15,x12,x17
 3a0:	0006a087          	flw	f1,0(x13)
 3a4:	000ea007          	flw	f0,0(x29)
 3a8:	000b2507          	flw	f10,0(x22)
 3ac:	000a2587          	flw	f11,0(x20)
 3b0:	0005a607          	flw	f12,0(x11)
 3b4:	00082687          	flw	f13,0(x16)
 3b8:	000ba707          	flw	f14,0(x23) # 3f000000 <.L100+0x3efff070>
 3bc:	0007a787          	flw	f15,0(x15)
 3c0:	00800c13          	li	x24,8
 3c4:	001da027          	fsw	f1,0(x27)
 3c8:	000da227          	fsw	f0,4(x27)
 3cc:	00ada427          	fsw	f10,8(x27)
 3d0:	00bda627          	fsw	f11,12(x27)
 3d4:	00cda827          	fsw	f12,16(x27)
 3d8:	00ddaa27          	fsw	f13,20(x27)
 3dc:	00edac27          	fsw	f14,24(x27)
 3e0:	00fdae27          	fsw	f15,28(x27)
 3e4:	00128293          	addi	x5,x5,1
 3e8:	020d8d93          	addi	x27,x27,32
 3ec:	f38292e3          	bne	x5,x24,310 <.L41>
 3f0:	ef442603          	lw	x12,-268(x8)
 3f4:	24c050e3          	blez	x12,e34 <.L115>
 3f8:	00800a93          	li	x21,8
 3fc:	f1542a23          	sw	x21,-236(x8)
 400:	00000f13          	li	x30,0
 404:	00229e93          	slli	x29,x5,0x2

00000408 <.L43>:
 408:	f1442c83          	lw	x25,-236(x8)
 40c:	eb442d03          	lw	x26,-332(x8)
 410:	f1842703          	lw	x14,-232(x8)
 414:	f1c42c03          	lw	x24,-228(x8)
 418:	03ac8933          	mul	x18,x25,x26
 41c:	fff28e13          	addi	x28,x5,-1
 420:	00329a93          	slli	x21,x5,0x3
 424:	00129f93          	slli	x31,x5,0x1
 428:	005f83b3          	add	x7,x31,x5
 42c:	ff8e7313          	andi	x6,x28,-8
 430:	00870493          	addi	x9,x14,8
 434:	005e88b3          	add	x17,x29,x5
 438:	405a87b3          	sub	x15,x21,x5
 43c:	019c0833          	add	x16,x24,x25
 440:	03a28533          	mul	x10,x5,x26
 444:	00f90693          	addi	x13,x18,15 # 8000000f <.L100+0x7ffff07f>
 448:	005c9613          	slli	x12,x25,0x5
 44c:	00529093          	slli	x1,x5,0x5
 450:	ff06f913          	andi	x18,x13,-16
 454:	009309b3          	add	x19,x6,x9
 458:	00239b93          	slli	x23,x7,0x2
 45c:	00429b13          	slli	x22,x5,0x4
 460:	00289a13          	slli	x20,x17,0x2
 464:	00339d13          	slli	x26,x7,0x3
 468:	00f50593          	addi	x11,x10,15
 46c:	ff05fe13          	andi	x28,x11,-16
 470:	00279d93          	slli	x27,x15,0x2
 474:	00000493          	li	x9,0
 478:	f2042623          	sw	x0,-212(x8)
 47c:	ef042c23          	sw	x16,-264(x8)
 480:	ecc42a23          	sw	x12,-300(x8)
 484:	ec142823          	sw	x1,-304(x8)
 488:	ed242423          	sw	x18,-312(x8)
 48c:	edc42223          	sw	x28,-316(x8)

00000490 <.L88>:
 490:	f0c42f83          	lw	x31,-244(x8)
 494:	f2c42383          	lw	x7,-212(x8)
 498:	1df3dc63          	bge	x7,x31,670 <.L46>
 49c:	f0842303          	lw	x6,-248(x8)
 4a0:	f2242423          	sw	x2,-216(x8)
 4a4:	0a6388e3          	beq	x7,x6,d54 <.L47>
 4a8:	5a0f0a63          	beqz	x30,a5c <.L49>
 4ac:	00800093          	li	x1,8

000004b0 <.L48>:
 4b0:	03908e33          	mul	x28,x1,x25
 4b4:	f5c42c03          	lw	x24,-164(x8)
 4b8:	02508333          	mul	x6,x1,x5
 4bc:	002e1393          	slli	x7,x28,0x2
 4c0:	00f38f93          	addi	x31,x7,15
 4c4:	ff0ff893          	andi	x17,x31,-16
 4c8:	41110133          	sub	x2,x2,x17
 4cc:	00010513          	mv	x10,x2
 4d0:	f6442e03          	lw	x28,-156(x8)
 4d4:	00231593          	slli	x11,x6,0x2
 4d8:	00f58f13          	addi	x30,x11,15
 4dc:	ff0f7693          	andi	x13,x30,-16
 4e0:	40d10133          	sub	x2,x2,x13
 4e4:	00010813          	mv	x16,x2
 4e8:	0b9052e3          	blez	x25,d8c <.L54>

000004ec <.L154>:
 4ec:	f1c42583          	lw	x11,-228(x8)
 4f0:	ef842f83          	lw	x31,-264(x8)
 4f4:	00209393          	slli	x7,x1,0x2
 4f8:	00750633          	add	x12,x10,x7
 4fc:	00000313          	li	x6,0

00000500 <.L57>:
 500:	04105063          	blez	x1,540 <.L58>
 504:	004c2883          	lw	x17,4(x24)
 508:	000c2703          	lw	x14,0(x24)
 50c:	00231793          	slli	x15,x6,0x2
 510:	02988933          	mul	x18,x17,x9
 514:	00289f13          	slli	x30,x17,0x2
 518:	00f507b3          	add	x15,x10,x15
 51c:	02e586b3          	mul	x13,x11,x14
 520:	012688b3          	add	x17,x13,x18
 524:	00289713          	slli	x14,x17,0x2
 528:	00ee0933          	add	x18,x28,x14

0000052c <.L59>:
 52c:	00092387          	flw	f7,0(x18)
 530:	00478793          	addi	x15,x15,4
 534:	01e90933          	add	x18,x18,x30
 538:	fe77ae27          	fsw	f7,-4(x15)
 53c:	fef618e3          	bne	x12,x15,52c <.L59>

00000540 <.L58>:
 540:	00158593          	addi	x11,x11,1
 544:	00130333          	add	x6,x6,x1
 548:	00760633          	add	x12,x12,x7
 54c:	fabf9ae3          	bne	x31,x11,500 <.L57>
 550:	f8042c03          	lw	x24,-128(x8)
 554:	f8842e03          	lw	x28,-120(x8)
 558:	06105863          	blez	x1,5c8 <.L63>

0000055c <.L61>:
 55c:	f1842f83          	lw	x31,-232(x8)
 560:	01d80633          	add	x12,x16,x29
 564:	00000313          	li	x6,0
 568:	00000593          	li	x11,0

0000056c <.L66>:
 56c:	04505263          	blez	x5,5b0 <.L67>
 570:	004c2f03          	lw	x30,4(x24)
 574:	000c2883          	lw	x17,0(x24)
 578:	00958733          	add	x14,x11,x9
 57c:	03ef83b3          	mul	x7,x31,x30
 580:	002f1693          	slli	x13,x30,0x2
 584:	00231793          	slli	x15,x6,0x2
 588:	00f807b3          	add	x15,x16,x15
 58c:	03170933          	mul	x18,x14,x17
 590:	00790f33          	add	x30,x18,x7
 594:	002f1893          	slli	x17,x30,0x2
 598:	011e0733          	add	x14,x28,x17

0000059c <.L68>:
 59c:	00072307          	flw	f6,0(x14)
 5a0:	00478793          	addi	x15,x15,4
 5a4:	00d70733          	add	x14,x14,x13
 5a8:	fe67ae27          	fsw	f6,-4(x15)
 5ac:	fef618e3          	bne	x12,x15,59c <.L68>

000005b0 <.L67>:
 5b0:	00158593          	addi	x11,x11,1
 5b4:	00530333          	add	x6,x6,x5
 5b8:	01d60633          	add	x12,x12,x29
 5bc:	fa15c8e3          	blt	x11,x1,56c <.L66>
 5c0:	09905463          	blez	x25,648 <.L62>
 5c4:	00209393          	slli	x7,x1,0x2

000005c8 <.L63>:
 5c8:	f2042c03          	lw	x24,-224(x8)
 5cc:	007506b3          	add	x13,x10,x7
 5d0:	00000f93          	li	x31,0
 5d4:	00000f13          	li	x30,0
 5d8:	00000e13          	li	x28,0

000005dc <.L71>:
 5dc:	002f1913          	slli	x18,x30,0x2
 5e0:	012c0633          	add	x12,x24,x18
 5e4:	00000593          	li	x11,0
 5e8:	002f9893          	slli	x17,x31,0x2
 5ec:	04505463          	blez	x5,634 <.L74>

000005f0 <.L75>:
 5f0:	00062107          	flw	f2,0(x12)
 5f4:	02105863          	blez	x1,624 <.L72>
 5f8:	f00001d3          	fmv.w.x	f3,x0
 5fc:	00259713          	slli	x14,x11,0x2
 600:	011507b3          	add	x15,x10,x17
 604:	00e80333          	add	x6,x16,x14

00000608 <.L73>:
 608:	0007a287          	flw	f5,0(x15)
 60c:	00032207          	flw	f4,0(x6)
 610:	00478793          	addi	x15,x15,4
 614:	01d30333          	add	x6,x6,x29
 618:	1842f1c3          	fmadd.s	f3,f5,f4,f3
 61c:	fef696e3          	bne	x13,x15,608 <.L73>
 620:	00317153          	fadd.s	f2,f2,f3

00000624 <.L72>:
 624:	00262027          	fsw	f2,0(x12)
 628:	00158593          	addi	x11,x11,1
 62c:	00460613          	addi	x12,x12,4
 630:	fc5590e3          	bne	x11,x5,5f0 <.L75>

00000634 <.L74>:
 634:	001e0e13          	addi	x28,x28,1
 638:	005f0f33          	add	x30,x30,x5
 63c:	001f8fb3          	add	x31,x31,x1
 640:	007686b3          	add	x13,x13,x7
 644:	f99e4ce3          	blt	x28,x25,5dc <.L71>

00000648 <.L62>:
 648:	00848493          	addi	x9,x9,8
 64c:	00100f13          	li	x30,1
 650:	f2942223          	sw	x9,-220(x8)

00000654 <.L69>:
 654:	f2c42083          	lw	x1,-212(x8)
 658:	00108513          	addi	x10,x1,1
 65c:	f2a42623          	sw	x10,-212(x8)
 660:	f2442483          	lw	x9,-220(x8)
 664:	f1042803          	lw	x16,-240(x8)
 668:	f2842103          	lw	x2,-216(x8)
 66c:	e2a812e3          	bne	x16,x10,490 <.L88>

00000670 <.L46>:
 670:	f1442e83          	lw	x29,-236(x8)
 674:	07d05e63          	blez	x29,6f0 <.L90>

00000678 <.L42>:
 678:	f1c42583          	lw	x11,-228(x8)
 67c:	f1442383          	lw	x7,-236(x8)
 680:	fa442c83          	lw	x25,-92(x8)
 684:	fac42b03          	lw	x22,-84(x8)
 688:	efc42a03          	lw	x20,-260(x8)
 68c:	f2042a83          	lw	x21,-224(x8)
 690:	00b389b3          	add	x19,x7,x11
 694:	00000893          	li	x17,0

00000698 <.L91>:
 698:	04505663          	blez	x5,6e4 <.L92>
 69c:	004cab83          	lw	x23,4(x25) # fc0004 <.L100+0xfbf074>
 6a0:	000cad03          	lw	x26,0(x25)
 6a4:	00289d93          	slli	x27,x17,0x2
 6a8:	037a0c33          	mul	x24,x20,x23
 6ac:	01ba8733          	add	x14,x21,x27
 6b0:	002b9913          	slli	x18,x23,0x2
 6b4:	00000f13          	li	x30,0
 6b8:	03a587b3          	mul	x15,x11,x26
 6bc:	003c1313          	slli	x6,x24,0x3
 6c0:	00678633          	add	x12,x15,x6
 6c4:	00261e13          	slli	x28,x12,0x2
 6c8:	01cb0fb3          	add	x31,x22,x28

000006cc <.L93>:
 6cc:	00072807          	flw	f16,0(x14)
 6d0:	001f0f13          	addi	x30,x30,1
 6d4:	00470713          	addi	x14,x14,4
 6d8:	010fa027          	fsw	f16,0(x31)
 6dc:	012f8fb3          	add	x31,x31,x18
 6e0:	fe5f16e3          	bne	x30,x5,6cc <.L93>

000006e4 <.L92>:
 6e4:	00158593          	addi	x11,x11,1
 6e8:	005888b3          	add	x17,x17,x5
 6ec:	fab996e3          	bne	x19,x11,698 <.L91>

000006f0 <.L90>:
 6f0:	ee042283          	lw	x5,-288(x8)
 6f4:	00128693          	addi	x13,x5,1
 6f8:	eed42023          	sw	x13,-288(x8)
 6fc:	ed842083          	lw	x1,-296(x8)
 700:	ec042103          	lw	x2,-320(x8)
 704:	bad096e3          	bne	x1,x13,2b0 <.L45>

00000708 <.L26>:
 708:	00000837          	lui	x16,0x0
 70c:	000003b7          	lui	x7,0x0
 710:	00000537          	lui	x10,0x0
 714:	00000cb7          	lui	x25,0x0
 718:	00052483          	lw	x9,0(x10) # 0 <tensorlib_addmm_naive>
 71c:	00082e83          	lw	x29,0(x16) # 0 <tensorlib_addmm_naive>
 720:	000cab03          	lw	x22,0(x25) # 0 <tensorlib_addmm_naive>
 724:	0003a983          	lw	x19,0(x7) # 0 <tensorlib_addmm_naive>
 728:	00000a37          	lui	x20,0x0
 72c:	000a2a83          	lw	x21,0(x20) # 0 <tensorlib_addmm_naive>
 730:	01d48bb3          	add	x23,x9,x29
 734:	013b0d33          	add	x26,x22,x19
 738:	018b9d93          	slli	x27,x23,0x18
 73c:	012d1c13          	slli	x24,x26,0x12
 740:	3f000937          	lui	x18,0x3f000
 744:	00fc0337          	lui	x6,0xfc0
 748:	00040737          	lui	x14,0x40
 74c:	012df7b3          	and	x15,x27,x18
 750:	004a9e13          	slli	x28,x21,0x4
 754:	006c7633          	and	x12,x24,x6
 758:	ff070f93          	addi	x31,x14,-16 # 3fff0 <.L100+0x3f060>
 75c:	00c7ef33          	or	x30,x15,x12
 760:	01fe75b3          	and	x11,x28,x31
 764:	00bf68b3          	or	x17,x30,x11
 768:	c00002b7          	lui	x5,0xc0000
 76c:	0058e6b3          	or	x13,x17,x5
 770:	410010b7          	lui	x1,0x41001
 774:	d0d0a623          	sw	x13,-756(x1) # 41000d0c <.L100+0x40fffd7c>
 778:	0003a503          	lw	x10,0(x7)
 77c:	00082483          	lw	x9,0(x16)
 780:	000005b7          	lui	x11,0x0
 784:	00450813          	addi	x16,x10,4
 788:	00058793          	mv	x15,x11
 78c:	01078eb3          	add	x29,x15,x16
 790:	01849c93          	slli	x25,x9,0x18
 794:	019eeb33          	or	x22,x29,x25
 798:	201c09b7          	lui	x19,0x201c0
 79c:	013b6a33          	or	x20,x22,x19
 7a0:	00100a93          	li	x21,1
 7a4:	015a0023          	sb	x21,0(x20)
 7a8:	0003a383          	lw	x7,0(x7)
 7ac:	00700b93          	li	x23,7
 7b0:	69738863          	beq	x7,x23,e40 <.L152>

000007b4 <.L102>:
 7b4:	00100293          	li	x5,1
 7b8:	0100006f          	j	7c8 <.L107>

000007bc <.L153>:
 7bc:	00058513          	mv	x10,x11
 7c0:	1405292f          	lr.w.aq	x18,(x10)
 7c4:	00590863          	beq	x18,x5,7d4 <.L106>

000007c8 <.L107>:
 7c8:	00058093          	mv	x1,x11
 7cc:	1000a6af          	lr.w	x13,(x1)
 7d0:	fe5696e3          	bne	x13,x5,7bc <.L153>

000007d4 <.L106>:
 7d4:	0007a023          	sw	x0,0(x15)
 7d8:	ea040113          	addi	x2,x8,-352
 7dc:	15c12083          	lw	x1,348(x2)
 7e0:	15812403          	lw	x8,344(x2)
 7e4:	15412483          	lw	x9,340(x2)
 7e8:	15012903          	lw	x18,336(x2)
 7ec:	14c12983          	lw	x19,332(x2)
 7f0:	14812a03          	lw	x20,328(x2)
 7f4:	14412a83          	lw	x21,324(x2)
 7f8:	14012b03          	lw	x22,320(x2)
 7fc:	13c12b83          	lw	x23,316(x2)
 800:	13812c03          	lw	x24,312(x2)
 804:	13412c83          	lw	x25,308(x2)
 808:	13012d03          	lw	x26,304(x2)
 80c:	12c12d83          	lw	x27,300(x2)
 810:	00000513          	li	x10,0
 814:	16010113          	addi	x2,x2,352
 818:	00008067          	ret

0000081c <.L147>:
 81c:	000000b7          	lui	x1,0x0
 820:	00000837          	lui	x16,0x0
 824:	00008593          	mv	x11,x1
 828:	06f00613          	li	x12,111
 82c:	00080513          	mv	x10,x16
 830:	00000097          	auipc	x1,0x0
 834:	000080e7          	jalr	x1 # 830 <.L147+0x14>
 838:	f5842583          	lw	x11,-168(x8)
 83c:	00000eb7          	lui	x29,0x0
 840:	000e8513          	mv	x10,x29
 844:	00000cb7          	lui	x25,0x0
 848:	00000097          	auipc	x1,0x0
 84c:	000080e7          	jalr	x1 # 848 <.L147+0x2c>
 850:	000009b7          	lui	x19,0x0
 854:	000cab03          	lw	x22,0(x25) # 0 <tensorlib_addmm_naive>
 858:	0009aa03          	lw	x20,0(x19) # 0 <tensorlib_addmm_naive>
 85c:	4100fbb7          	lui	x23,0x4100f
 860:	010b1a93          	slli	x21,x22,0x10
 864:	014a83b3          	add	x7,x21,x20
 868:	ac7bac23          	sw	x7,-1320(x23) # 4100ead8 <.L100+0x4100db48>

0000086c <.L13>:
 86c:	0000006f          	j	86c <.L13>

00000870 <.L146>:
 870:	00000d37          	lui	x26,0x0
 874:	00000db7          	lui	x27,0x0
 878:	06f00613          	li	x12,111
 87c:	000d0593          	mv	x11,x26
 880:	000d8513          	mv	x10,x27
 884:	00000097          	auipc	x1,0x0
 888:	000080e7          	jalr	x1 # 884 <.L146+0x14>
 88c:	f5842583          	lw	x11,-168(x8)
 890:	00000c37          	lui	x24,0x0
 894:	000c0513          	mv	x10,x24
 898:	00000097          	auipc	x1,0x0
 89c:	000080e7          	jalr	x1 # 898 <.L146+0x28>
 8a0:	00000337          	lui	x6,0x0
 8a4:	00032603          	lw	x12,0(x6) # 0 <tensorlib_addmm_naive>
 8a8:	00000e37          	lui	x28,0x0
 8ac:	000e2f03          	lw	x30,0(x28) # 0 <tensorlib_addmm_naive>
 8b0:	01061713          	slli	x14,x12,0x10
 8b4:	4100f8b7          	lui	x17,0x4100f
 8b8:	01e70fb3          	add	x31,x14,x30
 8bc:	adf8ac23          	sw	x31,-1320(x17) # 4100ead8 <.L100+0x4100db48>

000008c0 <.L11>:
 8c0:	0000006f          	j	8c0 <.L11>

000008c4 <.L150>:
 8c4:	000007b7          	lui	x15,0x0
 8c8:	000005b7          	lui	x11,0x0
 8cc:	02000613          	li	x12,32
 8d0:	00058593          	mv	x11,x11
 8d4:	00078513          	mv	x10,x15
 8d8:	00000097          	auipc	x1,0x0
 8dc:	000080e7          	jalr	x1 # 8d8 <.L150+0x14>
 8e0:	000004b7          	lui	x9,0x0
 8e4:	0004a803          	lw	x16,0(x9) # 0 <tensorlib_addmm_naive>
 8e8:	00000eb7          	lui	x29,0x0
 8ec:	000eac83          	lw	x25,0(x29) # 0 <tensorlib_addmm_naive>
 8f0:	01081b13          	slli	x22,x16,0x10
 8f4:	4100fa37          	lui	x20,0x4100f
 8f8:	019b09b3          	add	x19,x22,x25
 8fc:	ad3a2c23          	sw	x19,-1320(x20) # 4100ead8 <.L100+0x4100db48>

00000900 <.L19>:
 900:	0000006f          	j	900 <.L19>

00000904 <.L148>:
 904:	00000737          	lui	x14,0x0
 908:	00000fb7          	lui	x31,0x0
 90c:	00070593          	mv	x11,x14
 910:	06f00613          	li	x12,111
 914:	000f8513          	mv	x10,x31
 918:	00000097          	auipc	x1,0x0
 91c:	000080e7          	jalr	x1 # 918 <.L148+0x14>
 920:	f7c42583          	lw	x11,-132(x8)
 924:	000008b7          	lui	x17,0x0
 928:	00088513          	mv	x10,x17
 92c:	00000097          	auipc	x1,0x0
 930:	000080e7          	jalr	x1 # 92c <.L148+0x28>
 934:	000002b7          	lui	x5,0x0
 938:	0002a683          	lw	x13,0(x5) # 0 <tensorlib_addmm_naive>
 93c:	00000537          	lui	x10,0x0
 940:	00052903          	lw	x18,0(x10) # 0 <tensorlib_addmm_naive>
 944:	01069593          	slli	x11,x13,0x10
 948:	4100f4b7          	lui	x9,0x4100f
 94c:	012587b3          	add	x15,x11,x18
 950:	acf4ac23          	sw	x15,-1320(x9) # 4100ead8 <.L100+0x4100db48>

00000954 <.L15>:
 954:	0000006f          	j	954 <.L15>

00000958 <.L149>:
 958:	000003b7          	lui	x7,0x0
 95c:	00000ab7          	lui	x21,0x0
 960:	06f00613          	li	x12,111
 964:	000a8593          	mv	x11,x21
 968:	00038513          	mv	x10,x7
 96c:	00000097          	auipc	x1,0x0
 970:	000080e7          	jalr	x1 # 96c <.L149+0x14>
 974:	f7c42583          	lw	x11,-132(x8)
 978:	00000bb7          	lui	x23,0x0
 97c:	000b8513          	mv	x10,x23
 980:	00000d37          	lui	x26,0x0
 984:	00000097          	auipc	x1,0x0
 988:	000080e7          	jalr	x1 # 984 <.L149+0x2c>
 98c:	00000c37          	lui	x24,0x0
 990:	000d2d83          	lw	x27,0(x26) # 0 <tensorlib_addmm_naive>
 994:	000c2303          	lw	x6,0(x24) # 0 <tensorlib_addmm_naive>
 998:	4100ff37          	lui	x30,0x4100f
 99c:	010d9613          	slli	x12,x27,0x10
 9a0:	00660e33          	add	x28,x12,x6
 9a4:	adcf2c23          	sw	x28,-1320(x30) # 4100ead8 <.L100+0x4100db48>

000009a8 <.L17>:
 9a8:	0000006f          	j	9a8 <.L17>

000009ac <.L109>:
 9ac:	ee442283          	lw	x5,-284(x8)
 9b0:	00800c93          	li	x25,8
 9b4:	939288e3          	beq	x5,x25,2e4 <.L114>
 9b8:	eb042f03          	lw	x30,-336(x8)
 9bc:	00800993          	li	x19,8
 9c0:	f1342a23          	sw	x19,-236(x8)
 9c4:	41e10133          	sub	x2,x2,x30
 9c8:	f2242023          	sw	x2,-224(x8)

000009cc <.L33>:
 9cc:	efc42d03          	lw	x26,-260(x8)
 9d0:	f2042e03          	lw	x28,-224(x8)
 9d4:	f1442f83          	lw	x31,-236(x8)
 9d8:	00229e93          	slli	x29,x5,0x2
 9dc:	00371c93          	slli	x25,x14,0x3
 9e0:	003d1913          	slli	x18,x26,0x3
 9e4:	f1942e23          	sw	x25,-228(x8)
 9e8:	f1242c23          	sw	x18,-232(x8)
 9ec:	01de05b3          	add	x11,x28,x29
 9f0:	00000813          	li	x16,0
 9f4:	00000513          	li	x10,0

000009f8 <.L38>:
 9f8:	04505263          	blez	x5,a3c <.L39>
 9fc:	004aa383          	lw	x7,4(x21) # 4 <tensorlib_addmm_naive+0x4>
 a00:	000aa303          	lw	x6,0(x21)
 a04:	01950733          	add	x14,x10,x25
 a08:	027904b3          	mul	x9,x18,x7
 a0c:	00281893          	slli	x17,x16,0x2
 a10:	00239693          	slli	x13,x7,0x2
 a14:	011e07b3          	add	x15,x28,x17
 a18:	02670b33          	mul	x22,x14,x6
 a1c:	009b0a33          	add	x20,x22,x9
 a20:	002a1b93          	slli	x23,x20,0x2
 a24:	01760c33          	add	x24,x12,x23

00000a28 <.L40>:
 a28:	000c2107          	flw	f2,0(x24)
 a2c:	00478793          	addi	x15,x15,4 # 4 <tensorlib_addmm_naive+0x4>
 a30:	00dc0c33          	add	x24,x24,x13
 a34:	fe27ae27          	fsw	f2,-4(x15)
 a38:	fef598e3          	bne	x11,x15,a28 <.L40>

00000a3c <.L39>:
 a3c:	00150513          	addi	x10,x10,1
 a40:	00580833          	add	x16,x16,x5
 a44:	01d585b3          	add	x11,x11,x29
 a48:	fbf548e3          	blt	x10,x31,9f8 <.L38>
 a4c:	ef442603          	lw	x12,-268(x8)
 a50:	c2c054e3          	blez	x12,678 <.L42>
 a54:	00100f13          	li	x30,1
 a58:	9b1ff06f          	j	408 <.L43>

00000a5c <.L49>:
 a5c:	ed442883          	lw	x17,-300(x8)
 a60:	ed042783          	lw	x15,-304(x8)
 a64:	f5c42083          	lw	x1,-164(x8)
 a68:	41110133          	sub	x2,x2,x17
 a6c:	00010693          	mv	x13,x2
 a70:	eed42823          	sw	x13,-272(x8)
 a74:	40f10133          	sub	x2,x2,x15
 a78:	f6442e03          	lw	x28,-156(x8)
 a7c:	f1c42f03          	lw	x30,-228(x8)
 a80:	00010c13          	mv	x24,x2
 a84:	0f905063          	blez	x25,b64 <.L76>
 a88:	ef842803          	lw	x16,-264(x8)

00000a8c <.L77>:
 a8c:	0040a383          	lw	x7,4(x1)
 a90:	0000a503          	lw	x10,0(x1)
 a94:	02938fb3          	mul	x31,x7,x9
 a98:	02af0733          	mul	x14,x30,x10
 a9c:	01f38333          	add	x6,x7,x31
 aa0:	006388b3          	add	x17,x7,x6
 aa4:	01138533          	add	x10,x7,x17
 aa8:	00a385b3          	add	x11,x7,x10
 aac:	00b38633          	add	x12,x7,x11
 ab0:	00c38933          	add	x18,x7,x12
 ab4:	007707b3          	add	x15,x14,x7
 ab8:	00670333          	add	x6,x14,x6
 abc:	01f703b3          	add	x7,x14,x31
 ac0:	011708b3          	add	x17,x14,x17
 ac4:	00a70533          	add	x10,x14,x10
 ac8:	00b705b3          	add	x11,x14,x11
 acc:	00c70633          	add	x12,x14,x12
 ad0:	01270733          	add	x14,x14,x18
 ad4:	01278933          	add	x18,x15,x18
 ad8:	00239f93          	slli	x31,x7,0x2
 adc:	00291793          	slli	x15,x18,0x2
 ae0:	00231393          	slli	x7,x6,0x2
 ae4:	00289893          	slli	x17,x17,0x2
 ae8:	00251513          	slli	x10,x10,0x2
 aec:	00259593          	slli	x11,x11,0x2
 af0:	00261613          	slli	x12,x12,0x2
 af4:	00271713          	slli	x14,x14,0x2
 af8:	01fe0933          	add	x18,x28,x31
 afc:	007e0333          	add	x6,x28,x7
 b00:	011e0fb3          	add	x31,x28,x17
 b04:	00ae03b3          	add	x7,x28,x10
 b08:	00be08b3          	add	x17,x28,x11
 b0c:	00ce0533          	add	x10,x28,x12
 b10:	00ee05b3          	add	x11,x28,x14
 b14:	00fe0633          	add	x12,x28,x15
 b18:	00092187          	flw	f3,0(x18) # 3f000000 <.L100+0x3efff070>
 b1c:	00032207          	flw	f4,0(x6)
 b20:	000fa287          	flw	f5,0(x31) # 0 <tensorlib_addmm_naive>
 b24:	0003a307          	flw	f6,0(x7) # 0 <tensorlib_addmm_naive>
 b28:	0008a387          	flw	f7,0(x17) # 0 <tensorlib_addmm_naive>
 b2c:	00052807          	flw	f16,0(x10)
 b30:	0005a887          	flw	f17,0(x11) # 0 <tensorlib_addmm_naive>
 b34:	00062e07          	flw	f28,0(x12)
 b38:	0036a027          	fsw	f3,0(x13)
 b3c:	0046a227          	fsw	f4,4(x13)
 b40:	0056a427          	fsw	f5,8(x13)
 b44:	0066a627          	fsw	f6,12(x13)
 b48:	0076a827          	fsw	f7,16(x13)
 b4c:	0106aa27          	fsw	f16,20(x13)
 b50:	0116ac27          	fsw	f17,24(x13)
 b54:	01c6ae27          	fsw	f28,28(x13)
 b58:	001f0f13          	addi	x30,x30,1
 b5c:	02068693          	addi	x13,x13,32
 b60:	f3e816e3          	bne	x16,x30,a8c <.L77>

00000b64 <.L76>:
 b64:	ef642423          	sw	x22,-280(x8)
 b68:	f8042083          	lw	x1,-128(x8)
 b6c:	f8842e03          	lw	x28,-120(x8)
 b70:	f1842b03          	lw	x22,-232(x8)
 b74:	00848813          	addi	x16,x9,8
 b78:	ef942623          	sw	x25,-276(x8)
 b7c:	00000913          	li	x18,0
 b80:	f3042223          	sw	x16,-220(x8)
 b84:	00080c93          	mv	x25,x16

00000b88 <.L52>:
 b88:	00291713          	slli	x14,x18,0x2
 b8c:	00ec06b3          	add	x13,x24,x14
 b90:	000b0f13          	mv	x30,x22
 b94:	0c505e63          	blez	x5,c70 <.L80>

00000b98 <.L81>:
 b98:	0040a783          	lw	x15,4(x1)
 b9c:	0000af83          	lw	x31,0(x1)
 ba0:	03e78333          	mul	x6,x15,x30
 ba4:	03f483b3          	mul	x7,x9,x31
 ba8:	006788b3          	add	x17,x15,x6
 bac:	01178833          	add	x16,x15,x17
 bb0:	01078533          	add	x10,x15,x16
 bb4:	00a785b3          	add	x11,x15,x10
 bb8:	00b78633          	add	x12,x15,x11
 bbc:	00c78fb3          	add	x31,x15,x12
 bc0:	00f387b3          	add	x15,x7,x15
 bc4:	00638333          	add	x6,x7,x6
 bc8:	01f38733          	add	x14,x7,x31
 bcc:	011388b3          	add	x17,x7,x17
 bd0:	01038833          	add	x16,x7,x16
 bd4:	00a38533          	add	x10,x7,x10
 bd8:	00b385b3          	add	x11,x7,x11
 bdc:	00c38633          	add	x12,x7,x12
 be0:	01f783b3          	add	x7,x15,x31
 be4:	00239793          	slli	x15,x7,0x2
 be8:	00231f93          	slli	x31,x6,0x2
 bec:	00289893          	slli	x17,x17,0x2
 bf0:	00281813          	slli	x16,x16,0x2
 bf4:	00251513          	slli	x10,x10,0x2
 bf8:	00259593          	slli	x11,x11,0x2
 bfc:	00261613          	slli	x12,x12,0x2
 c00:	00271713          	slli	x14,x14,0x2
 c04:	01fe0333          	add	x6,x28,x31
 c08:	011e03b3          	add	x7,x28,x17
 c0c:	010e0fb3          	add	x31,x28,x16
 c10:	00ae08b3          	add	x17,x28,x10
 c14:	00be0833          	add	x16,x28,x11
 c18:	00ce0533          	add	x10,x28,x12
 c1c:	00ee05b3          	add	x11,x28,x14
 c20:	00fe0633          	add	x12,x28,x15
 c24:	00032e87          	flw	f29,0(x6)
 c28:	0003af07          	flw	f30,0(x7)
 c2c:	000faf87          	flw	f31,0(x31)
 c30:	0008a087          	flw	f1,0(x17)
 c34:	00082007          	flw	f0,0(x16) # 0 <tensorlib_addmm_naive>
 c38:	00052507          	flw	f10,0(x10)
 c3c:	0005a587          	flw	f11,0(x11)
 c40:	00062607          	flw	f12,0(x12)
 c44:	01d6a027          	fsw	f29,0(x13)
 c48:	01e6a227          	fsw	f30,4(x13)
 c4c:	01f6a427          	fsw	f31,8(x13)
 c50:	0016a627          	fsw	f1,12(x13)
 c54:	0006a827          	fsw	f0,16(x13)
 c58:	00a6aa27          	fsw	f10,20(x13)
 c5c:	00b6ac27          	fsw	f11,24(x13)
 c60:	00c6ae27          	fsw	f12,28(x13)
 c64:	008f0f13          	addi	x30,x30,8
 c68:	02068693          	addi	x13,x13,32
 c6c:	f3e996e3          	bne	x19,x30,b98 <.L81>

00000c70 <.L80>:
 c70:	00148493          	addi	x9,x9,1
 c74:	00590933          	add	x18,x18,x5
 c78:	f09c98e3          	bne	x25,x9,b88 <.L52>
 c7c:	eec42c83          	lw	x25,-276(x8)
 c80:	ee842b03          	lw	x22,-280(x8)
 c84:	0d905463          	blez	x25,d4c <.L84>
 c88:	ef042603          	lw	x12,-272(x8)
 c8c:	f2042083          	lw	x1,-224(x8)
 c90:	01dc04b3          	add	x9,x24,x29
 c94:	00000813          	li	x16,0
 c98:	00000513          	li	x10,0

00000c9c <.L85>:
 c9c:	0a505063          	blez	x5,d3c <.L86>
 ca0:	00062387          	flw	f7,0(x12)
 ca4:	00462307          	flw	f6,4(x12)
 ca8:	00862287          	flw	f5,8(x12)
 cac:	00c62207          	flw	f4,12(x12)
 cb0:	01062187          	flw	f3,16(x12)
 cb4:	01462107          	flw	f2,20(x12)
 cb8:	01862807          	flw	f16,24(x12)
 cbc:	01c62887          	flw	f17,28(x12)
 cc0:	00281e13          	slli	x28,x16,0x2
 cc4:	01c08733          	add	x14,x1,x28
 cc8:	000c0793          	mv	x15,x24

00000ccc <.L87>:
 ccc:	00072687          	flw	f13,0(x14) # 0 <tensorlib_addmm_naive>
 cd0:	0007a707          	flw	f14,0(x15)
 cd4:	01d78333          	add	x6,x15,x29
 cd8:	00032787          	flw	f15,0(x6)
 cdc:	68e3fe43          	fmadd.s	f28,f7,f14,f13
 ce0:	015783b3          	add	x7,x15,x21
 ce4:	0003ae87          	flw	f29,0(x7)
 ce8:	01778fb3          	add	x31,x15,x23
 cec:	000faf07          	flw	f30,0(x31)
 cf0:	e0f37fc3          	fmadd.s	f31,f6,f15,f28
 cf4:	016788b3          	add	x17,x15,x22
 cf8:	0008a087          	flw	f1,0(x17)
 cfc:	014785b3          	add	x11,x15,x20
 d00:	0005a007          	flw	f0,0(x11)
 d04:	f9d2f543          	fmadd.s	f10,f5,f29,f31
 d08:	01a78f33          	add	x30,x15,x26
 d0c:	000f2707          	flw	f14,0(x30)
 d10:	01b786b3          	add	x13,x15,x27
 d14:	0006a787          	flw	f15,0(x13)
 d18:	51e275c3          	fmadd.s	f11,f4,f30,f10
 d1c:	00470713          	addi	x14,x14,4
 d20:	00478793          	addi	x15,x15,4
 d24:	5811f643          	fmadd.s	f12,f3,f1,f11
 d28:	600176c3          	fmadd.s	f13,f2,f0,f12
 d2c:	68e87e43          	fmadd.s	f28,f16,f14,f13
 d30:	e0f8fec3          	fmadd.s	f29,f17,f15,f28
 d34:	ffd72e27          	fsw	f29,-4(x14)
 d38:	f8f49ae3          	bne	x9,x15,ccc <.L87>

00000d3c <.L86>:
 d3c:	00150513          	addi	x10,x10,1
 d40:	00580833          	add	x16,x16,x5
 d44:	02060613          	addi	x12,x12,32
 d48:	f5951ae3          	bne	x10,x25,c9c <.L85>

00000d4c <.L84>:
 d4c:	00000f13          	li	x30,0
 d50:	905ff06f          	j	654 <.L69>

00000d54 <.L47>:
 d54:	040f1463          	bnez	x30,d9c <.L117>
 d58:	f0442f03          	lw	x30,-252(x8)
 d5c:	00800713          	li	x14,8
 d60:	ceef0ee3          	beq	x30,x14,a5c <.L49>
 d64:	ec842c03          	lw	x24,-312(x8)
 d68:	ec442903          	lw	x18,-316(x8)
 d6c:	f0442083          	lw	x1,-252(x8)
 d70:	41810133          	sub	x2,x2,x24
 d74:	00010513          	mv	x10,x2
 d78:	41210133          	sub	x2,x2,x18
 d7c:	f5c42c03          	lw	x24,-164(x8)
 d80:	f6442e03          	lw	x28,-156(x8)
 d84:	00010813          	mv	x16,x2
 d88:	f7904263          	bgtz	x25,4ec <.L154>

00000d8c <.L54>:
 d8c:	f8042c03          	lw	x24,-128(x8)
 d90:	f8842e03          	lw	x28,-120(x8)
 d94:	fc104463          	bgtz	x1,55c <.L61>
 d98:	8b1ff06f          	j	648 <.L62>

00000d9c <.L117>:
 d9c:	f0442083          	lw	x1,-252(x8)
 da0:	f10ff06f          	j	4b0 <.L48>

00000da4 <.L151>:
 da4:	efc42883          	lw	x17,-260(x8)
 da8:	ecc42683          	lw	x13,-308(x8)
 dac:	02d89863          	bne	x17,x13,ddc <.L155>
 db0:	f0042b83          	lw	x23,-256(x8)
 db4:	00800c13          	li	x24,8
 db8:	bf8b8ae3          	beq	x23,x24,9ac <.L109>
 dbc:	eac42283          	lw	x5,-340(x8)
 dc0:	40510133          	sub	x2,x2,x5
 dc4:	ee442283          	lw	x5,-284(x8)
 dc8:	f2242023          	sw	x2,-224(x8)

00000dcc <.L34>:
 dcc:	f0042083          	lw	x1,-256(x8)
 dd0:	02105663          	blez	x1,dfc <.L35>
 dd4:	f0142a23          	sw	x1,-236(x8)
 dd8:	bf5ff06f          	j	9cc <.L33>

00000ddc <.L155>:
 ddc:	f0042803          	lw	x16,-256(x8)
 de0:	00800b13          	li	x22,8
 de4:	05680463          	beq	x16,x22,e2c <.L156>
 de8:	ea842a03          	lw	x20,-344(x8)
 dec:	00800293          	li	x5,8
 df0:	41410133          	sub	x2,x2,x20
 df4:	f2242023          	sw	x2,-224(x8)
 df8:	fd5ff06f          	j	dcc <.L34>

00000dfc <.L35>:
 dfc:	ef442e83          	lw	x29,-268(x8)
 e00:	8fd058e3          	blez	x29,6f0 <.L90>
 e04:	efc42983          	lw	x19,-260(x8)
 e08:	f0042a83          	lw	x21,-256(x8)
 e0c:	00371d93          	slli	x27,x14,0x3
 e10:	00399093          	slli	x1,x19,0x3
 e14:	f1542a23          	sw	x21,-236(x8)
 e18:	00100f13          	li	x30,1
 e1c:	f1b42e23          	sw	x27,-228(x8)
 e20:	f0142c23          	sw	x1,-232(x8)
 e24:	00229e93          	slli	x29,x5,0x2
 e28:	de0ff06f          	j	408 <.L43>

00000e2c <.L156>:
 e2c:	ebc42d03          	lw	x26,-324(x8)
 e30:	cb8ff06f          	j	2e8 <.L31>

00000e34 <.L115>:
 e34:	00800d93          	li	x27,8
 e38:	f1b42a23          	sw	x27,-236(x8)
 e3c:	83dff06f          	j	678 <.L42>

00000e40 <.L152>:
 e40:	00000d37          	lui	x26,0x0
 e44:	00000c37          	lui	x24,0x0
 e48:	004d0d93          	addi	x27,x26,4 # 4 <tensorlib_addmm_naive+0x4>
 e4c:	014c0913          	addi	x18,x24,20 # 14 <tensorlib_addmm_naive+0x14>

00000e50 <.L24>:
 e50:	000d8613          	mv	x12,x27

00000e54 <.L95>:
 e54:	00064303          	lbu	x6,0(x12)
 e58:	00160613          	addi	x12,x12,1
 e5c:	0ff37e13          	andi	x28,x6,255
 e60:	fe0e08e3          	beqz	x28,e50 <.L24>
 e64:	fec918e3          	bne	x18,x12,e54 <.L95>
 e68:	00000f37          	lui	x30,0x0
 e6c:	000f2703          	lw	x14,0(x30) # 0 <tensorlib_addmm_naive>
 e70:	231c02b7          	lui	x5,0x231c0
 e74:	00100693          	li	x13,1
 e78:	01870f93          	addi	x31,x14,24
 e7c:	01f788b3          	add	x17,x15,x31
 e80:	0058e0b3          	or	x1,x17,x5
 e84:	00d08023          	sb	x13,0(x1)
 e88:	00000537          	lui	x10,0x0
 e8c:	00052483          	lw	x9,0(x10) # 0 <tensorlib_addmm_naive>
 e90:	00700813          	li	x16,7
 e94:	930490e3          	bne	x9,x16,7b4 <.L102>
 e98:	00000eb7          	lui	x29,0x0
 e9c:	000eac83          	lw	x25,0(x29) # 0 <tensorlib_addmm_naive>
 ea0:	00300b13          	li	x22,3
 ea4:	096c8063          	beq	x25,x22,f24 <.L157>

00000ea8 <.L101>:
 ea8:	00100813          	li	x16,1
 eac:	0100006f          	j	ebc <.L97>

00000eb0 <.L158>:
 eb0:	01478b13          	addi	x22,x15,20
 eb4:	140b29af          	lr.w.aq	x19,(x22)
 eb8:	01098863          	beq	x19,x16,ec8 <.L103>

00000ebc <.L97>:
 ebc:	01478e93          	addi	x29,x15,20
 ec0:	100eacaf          	lr.w	x25,(x29)
 ec4:	ff0c96e3          	bne	x25,x16,eb0 <.L158>

00000ec8 <.L103>:
 ec8:	0007aa23          	sw	x0,20(x15)
 ecc:	00000393          	li	x7,0
 ed0:	01000a13          	li	x20,16

00000ed4 <.L104>:
 ed4:	00778ab3          	add	x21,x15,x7
 ed8:	000a8223          	sb	x0,4(x21)
 edc:	00138393          	addi	x7,x7,1
 ee0:	ff439ae3          	bne	x7,x20,ed4 <.L104>
 ee4:	0007a023          	sw	x0,0(x15)
 ee8:	00000f13          	li	x30,0
 eec:	20000bb7          	lui	x23,0x20000
 ef0:	00100d13          	li	x26,1
 ef4:	00040db7          	lui	x27,0x40
 ef8:	00400c37          	lui	x24,0x400

00000efc <.L105>:
 efc:	00000337          	lui	x6,0x0
 f00:	00032603          	lw	x12,0(x6) # 0 <tensorlib_addmm_naive>
 f04:	01e7ee33          	or	x28,x15,x30
 f08:	01bf0f33          	add	x30,x30,x27
 f0c:	01861713          	slli	x14,x12,0x18
 f10:	01c76fb3          	or	x31,x14,x28
 f14:	017fe8b3          	or	x17,x31,x23
 f18:	01a8a023          	sw	x26,0(x17)
 f1c:	ff8f10e3          	bne	x30,x24,efc <.L105>
 f20:	895ff06f          	j	7b4 <.L102>

00000f24 <.L157>:
 f24:	000009b7          	lui	x19,0x0
 f28:	00000ab7          	lui	x21,0x0
 f2c:	01898a13          	addi	x20,x19,24 # 18 <tensorlib_addmm_naive+0x18>
 f30:	020a8393          	addi	x7,x21,32 # 20 <tensorlib_addmm_naive+0x20>

00000f34 <.L96>:
 f34:	000a0d13          	mv	x26,x20

00000f38 <.L98>:
 f38:	000d4b83          	lbu	x23,0(x26)
 f3c:	001d0d13          	addi	x26,x26,1
 f40:	0ffbfd93          	andi	x27,x23,255
 f44:	fe0d88e3          	beqz	x27,f34 <.L96>
 f48:	ffa398e3          	bne	x7,x26,f38 <.L98>
 f4c:	00078c23          	sb	x0,24(x15)
 f50:	00078ca3          	sb	x0,25(x15)
 f54:	00078d23          	sb	x0,26(x15)
 f58:	00078da3          	sb	x0,27(x15)
 f5c:	00078e23          	sb	x0,28(x15)
 f60:	00078ea3          	sb	x0,29(x15)
 f64:	00078f23          	sb	x0,30(x15)
 f68:	00078fa3          	sb	x0,31(x15)
 f6c:	0007aa23          	sw	x0,20(x15)
 f70:	00000693          	li	x13,0
 f74:	03fc0c37          	lui	x24,0x3fc0
 f78:	20000337          	lui	x6,0x20000
 f7c:	00100613          	li	x12,1
 f80:	01000e37          	lui	x28,0x1000
 f84:	08000f37          	lui	x30,0x8000
 f88:	0080006f          	j	f90 <.L100>

00000f8c <.L159>:
 f8c:	00052483          	lw	x9,0(x10)

00000f90 <.L100>:
 f90:	01249713          	slli	x14,x9,0x12
 f94:	00d96fb3          	or	x31,x18,x13
 f98:	018778b3          	and	x17,x14,x24
 f9c:	01f8e2b3          	or	x5,x17,x31
 fa0:	0062e0b3          	or	x1,x5,x6
 fa4:	00c0a023          	sw	x12,0(x1)
 fa8:	01c686b3          	add	x13,x13,x28
 fac:	00000537          	lui	x10,0x0
 fb0:	fde69ee3          	bne	x13,x30,f8c <.L159>
 fb4:	00052903          	lw	x18,0(x10) # 0 <tensorlib_addmm_naive>
 fb8:	00700493          	li	x9,7
 fbc:	ee9906e3          	beq	x18,x9,ea8 <.L101>
 fc0:	ff4ff06f          	j	7b4 <.L102>

Disassembly of section .text._ZN8HBTensorIfLl2EEC2EP11hb_tensor_t:

00000000 <_ZN8HBTensorIfLl2EEC1EP11hb_tensor_t>:
   0:	00058713          	mv	x14,x11
   4:	00072803          	lw	x16,0(x14)
   8:	0105a583          	lw	x11,16(x11)
   c:	00050793          	mv	x15,x10
  10:	01c50693          	addi	x13,x10,28 # 1801c <.L100+0x1708c>
  14:	00200613          	li	x12,2
  18:	01450513          	addi	x10,x10,20
  1c:	0107a023          	sw	x16,0(x15)
  20:	00c7a223          	sw	x12,4(x15)
  24:	00a7a423          	sw	x10,8(x15)
  28:	00d7a623          	sw	x13,12(x15)
  2c:	00b7a823          	sw	x11,16(x15)
  30:	00068693          	mv	x13,x13
  34:	00472283          	lw	x5,4(x14)
  38:	02c29863          	bne	x5,x12,68 <.L8>
  3c:	00872303          	lw	x6,8(x14)
  40:	00c72383          	lw	x7,12(x14)
  44:	00032883          	lw	x17,0(x6) # ffffb000 <.L100+0xffffa070>
  48:	0117aa23          	sw	x17,20(x15)
  4c:	0003ae03          	lw	x28,0(x7)
  50:	01c7ae23          	sw	x28,28(x15)
  54:	00432e83          	lw	x29,4(x6)
  58:	01d7ac23          	sw	x29,24(x15)
  5c:	0043af03          	lw	x30,4(x7)
  60:	03e7a023          	sw	x30,32(x15)
  64:	00008067          	ret

00000068 <.L8>:
  68:	ff010113          	addi	x2,x2,-16
  6c:	00000fb7          	lui	x31,0x0
  70:	00112623          	sw	x1,12(x2)
  74:	000000b7          	lui	x1,0x0
  78:	0ba00613          	li	x12,186
  7c:	00008593          	mv	x11,x1
  80:	000f8513          	mv	x10,x31
  84:	00000097          	auipc	x1,0x0
  88:	000080e7          	jalr	x1 # 84 <.L8+0x1c>
  8c:	00000737          	lui	x14,0x0
  90:	00070513          	mv	x10,x14
  94:	00000097          	auipc	x1,0x0
  98:	000080e7          	jalr	x1 # 94 <.L8+0x2c>
  9c:	000005b7          	lui	x11,0x0
  a0:	0005a803          	lw	x16,0(x11) # 0 <_ZN8HBTensorIfLl2EEC1EP11hb_tensor_t>
  a4:	000007b7          	lui	x15,0x0
  a8:	0007a683          	lw	x13,0(x15) # 0 <_ZN8HBTensorIfLl2EEC1EP11hb_tensor_t>
  ac:	01081613          	slli	x12,x16,0x10
  b0:	4100f2b7          	lui	x5,0x4100f
  b4:	00d60533          	add	x10,x12,x13
  b8:	aca2ac23          	sw	x10,-1320(x5) # 4100ead8 <.L100+0x4100db48>

000000bc <.L3>:
  bc:	0000006f          	j	bc <.L3>
