
kernel_exp.o:     file format elf32-littleriscv


Disassembly of section .group:

00000000 <_ZN8HBTensorIfLln1EEC5EP11hb_tensor_t>:
   0:	0001                	nop
   2:	0000                	unimp
   4:	00000007          	0x7
   8:	0008                	0x8
	...

Disassembly of section .text:

00000000 <_Z21hb_tiled_foreach_implIfZ13tensorlib_expEUlfE_JEEvjjT0_8HBTensorIT_Lln1EES4_PS3_S5_.isra.0>:
   0:	fc010113          	addi	x2,x2,-64
   4:	02812c23          	sw	x8,56(x2)
   8:	02912a23          	sw	x9,52(x2)
   c:	03512223          	sw	x21,36(x2)
  10:	03612023          	sw	x22,32(x2)
  14:	01712e23          	sw	x23,28(x2)
  18:	01812c23          	sw	x24,24(x2)
  1c:	00060413          	mv	x8,x12
  20:	02112e23          	sw	x1,60(x2)
  24:	03212823          	sw	x18,48(x2)
  28:	03312623          	sw	x19,44(x2)
  2c:	03412423          	sw	x20,40(x2)
  30:	01912a23          	sw	x25,20(x2)
  34:	01a12823          	sw	x26,16(x2)
  38:	01b12623          	sw	x27,12(x2)
  3c:	00100613          	li	x12,1
  40:	04412c03          	lw	x24,68(x2)
  44:	00050a93          	mv	x21,x10
  48:	00058493          	mv	x9,x11
  4c:	00068b93          	mv	x23,x13
  50:	00080b13          	mv	x22,x16
  54:	10c40663          	beq	x8,x12,160 <.L80>
  58:	0ab57e63          	bgeu	x10,x11,114 <.L1>
  5c:	00279d93          	slli	x27,x15,0x2
  60:	00241d13          	slli	x26,x8,0x2
  64:	00070993          	mv	x19,x14
  68:	00078913          	mv	x18,x15
  6c:	00088a13          	mv	x20,x17
  70:	01b88db3          	add	x27,x17,x27
  74:	01a70d33          	add	x26,x14,x26

00000078 <.L10>:
  78:	0e090063          	beqz	x18,158 <.L11>
  7c:	000b0693          	mv	x13,x22
  80:	000a0313          	mv	x6,x20
  84:	000a8713          	mv	x14,x21
  88:	00000393          	li	x7,0

0000008c <.L7>:
  8c:	00032083          	lw	x1,0(x6)
  90:	0006a803          	lw	x16,0(x13)
  94:	00430313          	addi	x6,x6,4
  98:	021777b3          	remu	x15,x14,x1
  9c:	00468693          	addi	x13,x13,4
  a0:	030782b3          	mul	x5,x15,x16
  a4:	02175733          	divu	x14,x14,x1
  a8:	005383b3          	add	x7,x7,x5
  ac:	fe6d90e3          	bne	x27,x6,8c <.L7>
  b0:	00239513          	slli	x10,x7,0x2
  b4:	00ac05b3          	add	x11,x24,x10

000000b8 <.L6>:
  b8:	0005a507          	flw	f10,0(x11)
  bc:	08040a63          	beqz	x8,150 <.L12>
  c0:	000b8f93          	mv	x31,x23
  c4:	00098f13          	mv	x30,x19
  c8:	000a8593          	mv	x11,x21
  cc:	00000093          	li	x1,0

000000d0 <.L9>:
  d0:	000f2883          	lw	x17,0(x30)
  d4:	000fae83          	lw	x29,0(x31)
  d8:	004f0f13          	addi	x30,x30,4
  dc:	004f8f93          	addi	x31,x31,4
  e0:	0315fe33          	remu	x28,x11,x17
  e4:	03de0633          	mul	x12,x28,x29
  e8:	0315d5b3          	divu	x11,x11,x17
  ec:	00c080b3          	add	x1,x1,x12
  f0:	ffed10e3          	bne	x26,x30,d0 <.L9>
  f4:	04012303          	lw	x6,64(x2)
  f8:	00209813          	slli	x16,x1,0x2
  fc:	01030cb3          	add	x25,x6,x16

00000100 <.L8>:
 100:	00000097          	auipc	x1,0x0
 104:	000080e7          	jalr	x1 # 100 <.L8>
 108:	001a8a93          	addi	x21,x21,1
 10c:	00aca027          	fsw	f10,0(x25)
 110:	f75494e3          	bne	x9,x21,78 <.L10>

00000114 <.L1>:
 114:	03c12083          	lw	x1,60(x2)
 118:	03812403          	lw	x8,56(x2)
 11c:	03412483          	lw	x9,52(x2)
 120:	03012903          	lw	x18,48(x2)
 124:	02c12983          	lw	x19,44(x2)
 128:	02812a03          	lw	x20,40(x2)
 12c:	02412a83          	lw	x21,36(x2)
 130:	02012b03          	lw	x22,32(x2)
 134:	01c12b83          	lw	x23,28(x2)
 138:	01812c03          	lw	x24,24(x2)
 13c:	01412c83          	lw	x25,20(x2)
 140:	01012d03          	lw	x26,16(x2)
 144:	00c12d83          	lw	x27,12(x2)
 148:	04010113          	addi	x2,x2,64
 14c:	00008067          	ret

00000150 <.L12>:
 150:	04012c83          	lw	x25,64(x2)
 154:	fadff06f          	j	100 <.L8>

00000158 <.L11>:
 158:	000c0593          	mv	x11,x24
 15c:	f5dff06f          	j	b8 <.L6>

00000160 <.L80>:
 160:	fab57ae3          	bgeu	x10,x11,114 <.L1>
 164:	00082b03          	lw	x22,0(x16)
 168:	0006ab83          	lw	x23,0(x13)
 16c:	04012683          	lw	x13,64(x2)
 170:	002b1993          	slli	x19,x22,0x2
 174:	002b9913          	slli	x18,x23,0x2
 178:	03350db3          	mul	x27,x10,x19
 17c:	40a58a33          	sub	x20,x11,x10
 180:	00fa7d13          	andi	x26,x20,15
 184:	032507b3          	mul	x15,x10,x18
 188:	01bc0c33          	add	x24,x24,x27
 18c:	00f68b33          	add	x22,x13,x15
 190:	200d0c63          	beqz	x26,3a8 <.L4>
 194:	1e8d0a63          	beq	x26,x8,388 <.L62>
 198:	00200413          	li	x8,2
 19c:	1c8d0863          	beq	x26,x8,36c <.L63>
 1a0:	00300293          	li	x5,3
 1a4:	1a5d0663          	beq	x26,x5,350 <.L64>
 1a8:	00400713          	li	x14,4
 1ac:	18ed0463          	beq	x26,x14,334 <.L65>
 1b0:	00500393          	li	x7,5
 1b4:	167d0263          	beq	x26,x7,318 <.L66>
 1b8:	00600513          	li	x10,6
 1bc:	14ad0063          	beq	x26,x10,2fc <.L67>
 1c0:	00700c93          	li	x25,7
 1c4:	119d0e63          	beq	x26,x25,2e0 <.L68>
 1c8:	00800893          	li	x17,8
 1cc:	0f1d0c63          	beq	x26,x17,2c4 <.L69>
 1d0:	00900e93          	li	x29,9
 1d4:	0ddd0a63          	beq	x26,x29,2a8 <.L70>
 1d8:	00a00f13          	li	x30,10
 1dc:	0bed0863          	beq	x26,x30,28c <.L71>
 1e0:	00b00e13          	li	x28,11
 1e4:	09cd0663          	beq	x26,x28,270 <.L72>
 1e8:	00c00f93          	li	x31,12
 1ec:	07fd0463          	beq	x26,x31,254 <.L73>
 1f0:	00d00613          	li	x12,13
 1f4:	04cd0263          	beq	x26,x12,238 <.L74>
 1f8:	00e00593          	li	x11,14
 1fc:	02bd0063          	beq	x26,x11,21c <.L75>
 200:	000c2507          	flw	f10,0(x24)
 204:	001a8a93          	addi	x21,x21,1
 208:	013c0c33          	add	x24,x24,x19
 20c:	00000097          	auipc	x1,0x0
 210:	000080e7          	jalr	x1 # 20c <.L80+0xac>
 214:	00ab2027          	fsw	f10,0(x22)
 218:	012b0b33          	add	x22,x22,x18

0000021c <.L75>:
 21c:	000c2507          	flw	f10,0(x24)
 220:	001a8a93          	addi	x21,x21,1
 224:	013c0c33          	add	x24,x24,x19
 228:	00000097          	auipc	x1,0x0
 22c:	000080e7          	jalr	x1 # 228 <.L75+0xc>
 230:	00ab2027          	fsw	f10,0(x22)
 234:	012b0b33          	add	x22,x22,x18

00000238 <.L74>:
 238:	000c2507          	flw	f10,0(x24)
 23c:	001a8a93          	addi	x21,x21,1
 240:	013c0c33          	add	x24,x24,x19
 244:	00000097          	auipc	x1,0x0
 248:	000080e7          	jalr	x1 # 244 <.L74+0xc>
 24c:	00ab2027          	fsw	f10,0(x22)
 250:	012b0b33          	add	x22,x22,x18

00000254 <.L73>:
 254:	000c2507          	flw	f10,0(x24)
 258:	001a8a93          	addi	x21,x21,1
 25c:	013c0c33          	add	x24,x24,x19
 260:	00000097          	auipc	x1,0x0
 264:	000080e7          	jalr	x1 # 260 <.L73+0xc>
 268:	00ab2027          	fsw	f10,0(x22)
 26c:	012b0b33          	add	x22,x22,x18

00000270 <.L72>:
 270:	000c2507          	flw	f10,0(x24)
 274:	001a8a93          	addi	x21,x21,1
 278:	013c0c33          	add	x24,x24,x19
 27c:	00000097          	auipc	x1,0x0
 280:	000080e7          	jalr	x1 # 27c <.L72+0xc>
 284:	00ab2027          	fsw	f10,0(x22)
 288:	012b0b33          	add	x22,x22,x18

0000028c <.L71>:
 28c:	000c2507          	flw	f10,0(x24)
 290:	001a8a93          	addi	x21,x21,1
 294:	013c0c33          	add	x24,x24,x19
 298:	00000097          	auipc	x1,0x0
 29c:	000080e7          	jalr	x1 # 298 <.L71+0xc>
 2a0:	00ab2027          	fsw	f10,0(x22)
 2a4:	012b0b33          	add	x22,x22,x18

000002a8 <.L70>:
 2a8:	000c2507          	flw	f10,0(x24)
 2ac:	001a8a93          	addi	x21,x21,1
 2b0:	013c0c33          	add	x24,x24,x19
 2b4:	00000097          	auipc	x1,0x0
 2b8:	000080e7          	jalr	x1 # 2b4 <.L70+0xc>
 2bc:	00ab2027          	fsw	f10,0(x22)
 2c0:	012b0b33          	add	x22,x22,x18

000002c4 <.L69>:
 2c4:	000c2507          	flw	f10,0(x24)
 2c8:	001a8a93          	addi	x21,x21,1
 2cc:	013c0c33          	add	x24,x24,x19
 2d0:	00000097          	auipc	x1,0x0
 2d4:	000080e7          	jalr	x1 # 2d0 <.L69+0xc>
 2d8:	00ab2027          	fsw	f10,0(x22)
 2dc:	012b0b33          	add	x22,x22,x18

000002e0 <.L68>:
 2e0:	000c2507          	flw	f10,0(x24)
 2e4:	001a8a93          	addi	x21,x21,1
 2e8:	013c0c33          	add	x24,x24,x19
 2ec:	00000097          	auipc	x1,0x0
 2f0:	000080e7          	jalr	x1 # 2ec <.L68+0xc>
 2f4:	00ab2027          	fsw	f10,0(x22)
 2f8:	012b0b33          	add	x22,x22,x18

000002fc <.L67>:
 2fc:	000c2507          	flw	f10,0(x24)
 300:	001a8a93          	addi	x21,x21,1
 304:	013c0c33          	add	x24,x24,x19
 308:	00000097          	auipc	x1,0x0
 30c:	000080e7          	jalr	x1 # 308 <.L67+0xc>
 310:	00ab2027          	fsw	f10,0(x22)
 314:	012b0b33          	add	x22,x22,x18

00000318 <.L66>:
 318:	000c2507          	flw	f10,0(x24)
 31c:	001a8a93          	addi	x21,x21,1
 320:	013c0c33          	add	x24,x24,x19
 324:	00000097          	auipc	x1,0x0
 328:	000080e7          	jalr	x1 # 324 <.L66+0xc>
 32c:	00ab2027          	fsw	f10,0(x22)
 330:	012b0b33          	add	x22,x22,x18

00000334 <.L65>:
 334:	000c2507          	flw	f10,0(x24)
 338:	001a8a93          	addi	x21,x21,1
 33c:	013c0c33          	add	x24,x24,x19
 340:	00000097          	auipc	x1,0x0
 344:	000080e7          	jalr	x1 # 340 <.L65+0xc>
 348:	00ab2027          	fsw	f10,0(x22)
 34c:	012b0b33          	add	x22,x22,x18

00000350 <.L64>:
 350:	000c2507          	flw	f10,0(x24)
 354:	001a8a93          	addi	x21,x21,1
 358:	013c0c33          	add	x24,x24,x19
 35c:	00000097          	auipc	x1,0x0
 360:	000080e7          	jalr	x1 # 35c <.L64+0xc>
 364:	00ab2027          	fsw	f10,0(x22)
 368:	012b0b33          	add	x22,x22,x18

0000036c <.L63>:
 36c:	000c2507          	flw	f10,0(x24)
 370:	001a8a93          	addi	x21,x21,1
 374:	013c0c33          	add	x24,x24,x19
 378:	00000097          	auipc	x1,0x0
 37c:	000080e7          	jalr	x1 # 378 <.L63+0xc>
 380:	00ab2027          	fsw	f10,0(x22)
 384:	012b0b33          	add	x22,x22,x18

00000388 <.L62>:
 388:	000c2507          	flw	f10,0(x24)
 38c:	001a8a93          	addi	x21,x21,1
 390:	013c0c33          	add	x24,x24,x19
 394:	00000097          	auipc	x1,0x0
 398:	000080e7          	jalr	x1 # 394 <.L62+0xc>
 39c:	00ab2027          	fsw	f10,0(x22)
 3a0:	012b0b33          	add	x22,x22,x18
 3a4:	d75488e3          	beq	x9,x21,114 <.L1>

000003a8 <.L4>:
 3a8:	000c2507          	flw	f10,0(x24)
 3ac:	013c0bb3          	add	x23,x24,x19
 3b0:	013b8a33          	add	x20,x23,x19
 3b4:	00000097          	auipc	x1,0x0
 3b8:	000080e7          	jalr	x1 # 3b4 <.L4+0xc>
 3bc:	20a507d3          	fmv.s	f15,f10
 3c0:	000ba507          	flw	f10,0(x23)
 3c4:	012b0db3          	add	x27,x22,x18
 3c8:	00fb2027          	fsw	f15,0(x22)
 3cc:	00000097          	auipc	x1,0x0
 3d0:	000080e7          	jalr	x1 # 3cc <.L4+0x24>
 3d4:	20a50053          	fmv.s	f0,f10
 3d8:	000a2507          	flw	f10,0(x20)
 3dc:	013a0d33          	add	x26,x20,x19
 3e0:	000da027          	fsw	f0,0(x27)
 3e4:	00000097          	auipc	x1,0x0
 3e8:	000080e7          	jalr	x1 # 3e4 <.L4+0x3c>
 3ec:	20a500d3          	fmv.s	f1,f10
 3f0:	000d2507          	flw	f10,0(x26)
 3f4:	012d8433          	add	x8,x27,x18
 3f8:	00142027          	fsw	f1,0(x8)
 3fc:	00000097          	auipc	x1,0x0
 400:	000080e7          	jalr	x1 # 3fc <.L4+0x54>
 404:	20a50153          	fmv.s	f2,f10
 408:	013d0cb3          	add	x25,x26,x19
 40c:	000ca507          	flw	f10,0(x25)
 410:	01240b33          	add	x22,x8,x18
 414:	002b2027          	fsw	f2,0(x22)
 418:	00000097          	auipc	x1,0x0
 41c:	000080e7          	jalr	x1 # 418 <.L4+0x70>
 420:	20a501d3          	fmv.s	f3,f10
 424:	013c8c33          	add	x24,x25,x19
 428:	000c2507          	flw	f10,0(x24)
 42c:	012b0bb3          	add	x23,x22,x18
 430:	003ba027          	fsw	f3,0(x23)
 434:	00000097          	auipc	x1,0x0
 438:	000080e7          	jalr	x1 # 434 <.L4+0x8c>
 43c:	20a50253          	fmv.s	f4,f10
 440:	013c0a33          	add	x20,x24,x19
 444:	000a2507          	flw	f10,0(x20)
 448:	012b8db3          	add	x27,x23,x18
 44c:	004da027          	fsw	f4,0(x27)
 450:	00000097          	auipc	x1,0x0
 454:	000080e7          	jalr	x1 # 450 <.L4+0xa8>
 458:	20a502d3          	fmv.s	f5,f10
 45c:	013a0d33          	add	x26,x20,x19
 460:	000d2507          	flw	f10,0(x26)
 464:	012d8433          	add	x8,x27,x18
 468:	00542027          	fsw	f5,0(x8)
 46c:	00000097          	auipc	x1,0x0
 470:	000080e7          	jalr	x1 # 46c <.L4+0xc4>
 474:	20a50353          	fmv.s	f6,f10
 478:	013d0cb3          	add	x25,x26,x19
 47c:	000ca507          	flw	f10,0(x25)
 480:	01240b33          	add	x22,x8,x18
 484:	006b2027          	fsw	f6,0(x22)
 488:	00000097          	auipc	x1,0x0
 48c:	000080e7          	jalr	x1 # 488 <.L4+0xe0>
 490:	20a503d3          	fmv.s	f7,f10
 494:	013c8c33          	add	x24,x25,x19
 498:	000c2507          	flw	f10,0(x24)
 49c:	012b0bb3          	add	x23,x22,x18
 4a0:	007ba027          	fsw	f7,0(x23)
 4a4:	00000097          	auipc	x1,0x0
 4a8:	000080e7          	jalr	x1 # 4a4 <.L4+0xfc>
 4ac:	20a505d3          	fmv.s	f11,f10
 4b0:	013c0a33          	add	x20,x24,x19
 4b4:	000a2507          	flw	f10,0(x20)
 4b8:	012b8db3          	add	x27,x23,x18
 4bc:	00bda027          	fsw	f11,0(x27)
 4c0:	00000097          	auipc	x1,0x0
 4c4:	000080e7          	jalr	x1 # 4c0 <.L4+0x118>
 4c8:	20a50653          	fmv.s	f12,f10
 4cc:	013a0d33          	add	x26,x20,x19
 4d0:	000d2507          	flw	f10,0(x26)
 4d4:	012d8433          	add	x8,x27,x18
 4d8:	00c42027          	fsw	f12,0(x8)
 4dc:	00000097          	auipc	x1,0x0
 4e0:	000080e7          	jalr	x1 # 4dc <.L4+0x134>
 4e4:	20a506d3          	fmv.s	f13,f10
 4e8:	013d0cb3          	add	x25,x26,x19
 4ec:	000ca507          	flw	f10,0(x25)
 4f0:	01240b33          	add	x22,x8,x18
 4f4:	00db2027          	fsw	f13,0(x22)
 4f8:	00000097          	auipc	x1,0x0
 4fc:	000080e7          	jalr	x1 # 4f8 <.L4+0x150>
 500:	20a50753          	fmv.s	f14,f10
 504:	013c8c33          	add	x24,x25,x19
 508:	000c2507          	flw	f10,0(x24)
 50c:	012b0bb3          	add	x23,x22,x18
 510:	00eba027          	fsw	f14,0(x23)
 514:	00000097          	auipc	x1,0x0
 518:	000080e7          	jalr	x1 # 514 <.L4+0x16c>
 51c:	20a50853          	fmv.s	f16,f10
 520:	013c0a33          	add	x20,x24,x19
 524:	000a2507          	flw	f10,0(x20)
 528:	012b8db3          	add	x27,x23,x18
 52c:	010da027          	fsw	f16,0(x27)
 530:	00000097          	auipc	x1,0x0
 534:	000080e7          	jalr	x1 # 530 <.L4+0x188>
 538:	20a508d3          	fmv.s	f17,f10
 53c:	013a0d33          	add	x26,x20,x19
 540:	000d2507          	flw	f10,0(x26)
 544:	012d8433          	add	x8,x27,x18
 548:	01142027          	fsw	f17,0(x8)
 54c:	00000097          	auipc	x1,0x0
 550:	000080e7          	jalr	x1 # 54c <.L4+0x1a4>
 554:	01240833          	add	x16,x8,x18
 558:	010a8a93          	addi	x21,x21,16
 55c:	00a82027          	fsw	f10,0(x16)
 560:	013d0c33          	add	x24,x26,x19
 564:	01280b33          	add	x22,x16,x18
 568:	e55490e3          	bne	x9,x21,3a8 <.L4>
 56c:	ba9ff06f          	j	114 <.L1>

00000570 <tensorlib_exp>:
 570:	f5010113          	addi	x2,x2,-176
 574:	00050793          	mv	x15,x10
 578:	0a812423          	sw	x8,168(x2)
 57c:	01810513          	addi	x10,x2,24
 580:	00058413          	mv	x8,x11
 584:	00078593          	mv	x11,x15
 588:	0a112623          	sw	x1,172(x2)
 58c:	0a912223          	sw	x9,164(x2)
 590:	0b212023          	sw	x18,160(x2)
 594:	09312e23          	sw	x19,156(x2)
 598:	09412c23          	sw	x20,152(x2)
 59c:	00000097          	auipc	x1,0x0
 5a0:	000080e7          	jalr	x1 # 59c <tensorlib_exp+0x2c>
 5a4:	00040593          	mv	x11,x8
 5a8:	05410513          	addi	x10,x2,84
 5ac:	00000097          	auipc	x1,0x0
 5b0:	000080e7          	jalr	x1 # 5ac <tensorlib_exp+0x3c>
 5b4:	00000a37          	lui	x20,0x0
 5b8:	000004b7          	lui	x9,0x0
 5bc:	000009b7          	lui	x19,0x0
 5c0:	00000437          	lui	x8,0x0
 5c4:	000a2283          	lw	x5,0(x20) # 0 <_Z21hb_tiled_foreach_implIfZ13tensorlib_expEUlfE_JEEvjjT0_8HBTensorIT_Lln1EES4_PS3_S5_.isra.0>
 5c8:	0004a583          	lw	x11,0(x9) # 0 <_Z21hb_tiled_foreach_implIfZ13tensorlib_expEUlfE_JEEvjjT0_8HBTensorIT_Lln1EES4_PS3_S5_.isra.0>
 5cc:	0009a703          	lw	x14,0(x19) # 0 <_Z21hb_tiled_foreach_implIfZ13tensorlib_expEUlfE_JEEvjjT0_8HBTensorIT_Lln1EES4_PS3_S5_.isra.0>
 5d0:	00042603          	lw	x12,0(x8) # 0 <_Z21hb_tiled_foreach_implIfZ13tensorlib_expEUlfE_JEEvjjT0_8HBTensorIT_Lln1EES4_PS3_S5_.isra.0>
 5d4:	00000937          	lui	x18,0x0
 5d8:	00092683          	lw	x13,0(x18) # 0 <_Z21hb_tiled_foreach_implIfZ13tensorlib_expEUlfE_JEEvjjT0_8HBTensorIT_Lln1EES4_PS3_S5_.isra.0>
 5dc:	00b28333          	add	x6,x5,x11
 5e0:	00c703b3          	add	x7,x14,x12
 5e4:	01831513          	slli	x10,x6,0x18
 5e8:	01239813          	slli	x16,x7,0x12
 5ec:	3f0008b7          	lui	x17,0x3f000
 5f0:	00fc0eb7          	lui	x29,0xfc0
 5f4:	000405b7          	lui	x11,0x40
 5f8:	01157e33          	and	x28,x10,x17
 5fc:	01d87f33          	and	x30,x16,x29
 600:	00469f93          	slli	x31,x13,0x4
 604:	ff058713          	addi	x14,x11,-16 # 3fff0 <.L105+0x3f734>
 608:	01ee67b3          	or	x15,x28,x30
 60c:	00eff633          	and	x12,x31,x14
 610:	01812283          	lw	x5,24(x2)
 614:	00c7e6b3          	or	x13,x15,x12
 618:	80000337          	lui	x6,0x80000
 61c:	0066e3b3          	or	x7,x13,x6
 620:	41001537          	lui	x10,0x41001
 624:	d0752623          	sw	x7,-756(x10) # 41000d0c <.L105+0x41000450>
 628:	fff28f13          	addi	x30,x5,-1
 62c:	ffd00f93          	li	x31,-3
 630:	01c12603          	lw	x12,28(x2)
 634:	02012683          	lw	x13,32(x2)
 638:	02412703          	lw	x14,36(x2)
 63c:	02812e03          	lw	x28,40(x2)
 640:	05812783          	lw	x15,88(x2)
 644:	05c12803          	lw	x16,92(x2)
 648:	06012883          	lw	x17,96(x2)
 64c:	06412e83          	lw	x29,100(x2)
 650:	1fefe663          	bltu	x31,x30,83c <.L115>
 654:	000000b7          	lui	x1,0x0
 658:	0000a303          	lw	x6,0(x1) # 0 <_Z21hb_tiled_foreach_implIfZ13tensorlib_expEUlfE_JEEvjjT0_8HBTensorIT_Lln1EES4_PS3_S5_.isra.0>
 65c:	0072d593          	srli	x11,x5,0x7
 660:	00158393          	addi	x7,x11,1
 664:	07f37513          	andi	x10,x6,127
 668:	02750533          	mul	x10,x10,x7
 66c:	00a385b3          	add	x11,x7,x10
 670:	1cb2ec63          	bltu	x5,x11,848 <.L128>

00000674 <.L96>:
 674:	1cb57463          	bgeu	x10,x11,83c <.L115>

00000678 <.L95>:
 678:	01d12223          	sw	x29,4(x2)
 67c:	01c12023          	sw	x28,0(x2)
 680:	00000097          	auipc	x1,0x0
 684:	000080e7          	jalr	x1 # 680 <.L95+0x8>
 688:	0004a803          	lw	x16,0(x9)
 68c:	000a2a03          	lw	x20,0(x20)
 690:	0009a983          	lw	x19,0(x19)
 694:	00042883          	lw	x17,0(x8)
 698:	00092903          	lw	x18,0(x18)
 69c:	010a02b3          	add	x5,x20,x16
 6a0:	01198733          	add	x14,x19,x17
 6a4:	01829793          	slli	x15,x5,0x18
 6a8:	01271693          	slli	x13,x14,0x12
 6ac:	3f000637          	lui	x12,0x3f000
 6b0:	00fc0fb7          	lui	x31,0xfc0
 6b4:	000405b7          	lui	x11,0x40
 6b8:	00c7ff33          	and	x30,x15,x12
 6bc:	01f6fe33          	and	x28,x13,x31
 6c0:	00491e93          	slli	x29,x18,0x4
 6c4:	ff058393          	addi	x7,x11,-16 # 3fff0 <.L105+0x3f734>
 6c8:	01cf6333          	or	x6,x30,x28
 6cc:	007ef533          	and	x10,x29,x7
 6d0:	00a36a33          	or	x20,x6,x10
 6d4:	c0000837          	lui	x16,0xc0000
 6d8:	010a69b3          	or	x19,x20,x16
 6dc:	410018b7          	lui	x17,0x41001
 6e0:	d138a623          	sw	x19,-756(x17) # 41000d0c <.L105+0x41000450>
 6e4:	00042903          	lw	x18,0(x8)
 6e8:	0004a283          	lw	x5,0(x9)
 6ec:	00000637          	lui	x12,0x0
 6f0:	00490713          	addi	x14,x18,4
 6f4:	00060793          	mv	x15,x12
 6f8:	00e78f33          	add	x30,x15,x14
 6fc:	01829693          	slli	x13,x5,0x18
 700:	00df6fb3          	or	x31,x30,x13
 704:	201c0e37          	lui	x28,0x201c0
 708:	01cfeeb3          	or	x29,x31,x28
 70c:	00100313          	li	x6,1
 710:	006e8023          	sb	x6,0(x29) # fc0000 <.L105+0xfbf744>
 714:	00042583          	lw	x11,0(x8)
 718:	00700393          	li	x7,7
 71c:	04758663          	beq	x11,x7,768 <.L129>

00000720 <.L98>:
 720:	00100493          	li	x9,1
 724:	0100006f          	j	734 <.L111>

00000728 <.L130>:
 728:	00060893          	mv	x17,x12
 72c:	1408a92f          	lr.w.aq	x18,(x17)
 730:	00990863          	beq	x18,x9,740 <.L110>

00000734 <.L111>:
 734:	00060513          	mv	x10,x12
 738:	1005282f          	lr.w	x16,(x10)
 73c:	fe9816e3          	bne	x16,x9,728 <.L130>

00000740 <.L110>:
 740:	0ac12083          	lw	x1,172(x2)
 744:	0a812403          	lw	x8,168(x2)
 748:	0007a023          	sw	x0,0(x15)
 74c:	0a412483          	lw	x9,164(x2)
 750:	0a012903          	lw	x18,160(x2)
 754:	09c12983          	lw	x19,156(x2)
 758:	09812a03          	lw	x20,152(x2)
 75c:	00000513          	li	x10,0
 760:	0b010113          	addi	x2,x2,176
 764:	00008067          	ret

00000768 <.L129>:
 768:	000000b7          	lui	x1,0x0
 76c:	00000537          	lui	x10,0x0
 770:	00408a13          	addi	x20,x1,4 # 4 <_Z21hb_tiled_foreach_implIfZ13tensorlib_expEUlfE_JEEvjjT0_8HBTensorIT_Lln1EES4_PS3_S5_.isra.0+0x4>
 774:	01450993          	addi	x19,x10,20 # 14 <_Z21hb_tiled_foreach_implIfZ13tensorlib_expEUlfE_JEEvjjT0_8HBTensorIT_Lln1EES4_PS3_S5_.isra.0+0x14>

00000778 <.L97>:
 778:	000a0893          	mv	x17,x20

0000077c <.L100>:
 77c:	0008c803          	lbu	x16,0(x17)
 780:	00188893          	addi	x17,x17,1
 784:	0ff87913          	andi	x18,x16,255
 788:	fe0908e3          	beqz	x18,778 <.L97>
 78c:	ff1998e3          	bne	x19,x17,77c <.L100>
 790:	0004a283          	lw	x5,0(x9)
 794:	231c06b7          	lui	x13,0x231c0
 798:	00100e13          	li	x28,1
 79c:	01828713          	addi	x14,x5,24
 7a0:	00e78f33          	add	x30,x15,x14
 7a4:	00df6fb3          	or	x31,x30,x13
 7a8:	01cf8023          	sb	x28,0(x31) # fc0000 <.L105+0xfbf744>
 7ac:	00042383          	lw	x7,0(x8)
 7b0:	00700e93          	li	x29,7
 7b4:	f7d396e3          	bne	x7,x29,720 <.L98>
 7b8:	0004a303          	lw	x6,0(x9)
 7bc:	00300593          	li	x11,3
 7c0:	08b30863          	beq	x6,x11,850 <.L131>

000007c4 <.L106>:
 7c4:	00100513          	li	x10,1
 7c8:	0100006f          	j	7d8 <.L102>

000007cc <.L132>:
 7cc:	01478913          	addi	x18,x15,20
 7d0:	140922af          	lr.w.aq	x5,(x18)
 7d4:	00a28863          	beq	x5,x10,7e4 <.L107>

000007d8 <.L102>:
 7d8:	01478813          	addi	x16,x15,20
 7dc:	100828af          	lr.w	x17,(x16)
 7e0:	fea896e3          	bne	x17,x10,7cc <.L132>

000007e4 <.L107>:
 7e4:	0007aa23          	sw	x0,20(x15)
 7e8:	00000e13          	li	x28,0
 7ec:	01000f13          	li	x30,16

000007f0 <.L108>:
 7f0:	01c78fb3          	add	x31,x15,x28
 7f4:	000f8223          	sb	x0,4(x31)
 7f8:	001e0e13          	addi	x28,x28,1 # 201c0001 <.L105+0x201bf745>
 7fc:	ffee1ae3          	bne	x28,x30,7f0 <.L108>
 800:	0007a023          	sw	x0,0(x15)
 804:	00000a13          	li	x20,0
 808:	20000eb7          	lui	x29,0x20000
 80c:	00100313          	li	x6,1
 810:	000403b7          	lui	x7,0x40
 814:	004000b7          	lui	x1,0x400

00000818 <.L109>:
 818:	0004a703          	lw	x14,0(x9)
 81c:	0147e5b3          	or	x11,x15,x20
 820:	007a0a33          	add	x20,x20,x7
 824:	01871693          	slli	x13,x14,0x18
 828:	00b6e433          	or	x8,x13,x11
 82c:	01d469b3          	or	x19,x8,x29
 830:	0069a023          	sw	x6,0(x19)
 834:	fe1a12e3          	bne	x20,x1,818 <.L109>
 838:	ee9ff06f          	j	720 <.L98>

0000083c <.L115>:
 83c:	00000593          	li	x11,0
 840:	00000513          	li	x10,0
 844:	e35ff06f          	j	678 <.L95>

00000848 <.L128>:
 848:	00028593          	mv	x11,x5
 84c:	e29ff06f          	j	674 <.L96>

00000850 <.L131>:
 850:	000000b7          	lui	x1,0x0
 854:	00000537          	lui	x10,0x0
 858:	01808a13          	addi	x20,x1,24 # 18 <_Z21hb_tiled_foreach_implIfZ13tensorlib_expEUlfE_JEEvjjT0_8HBTensorIT_Lln1EES4_PS3_S5_.isra.0+0x18>
 85c:	02050813          	addi	x16,x10,32 # 20 <_Z21hb_tiled_foreach_implIfZ13tensorlib_expEUlfE_JEEvjjT0_8HBTensorIT_Lln1EES4_PS3_S5_.isra.0+0x20>

00000860 <.L101>:
 860:	000a0913          	mv	x18,x20

00000864 <.L103>:
 864:	00094883          	lbu	x17,0(x18)
 868:	00190913          	addi	x18,x18,1
 86c:	0ff8f293          	andi	x5,x17,255
 870:	fe0288e3          	beqz	x5,860 <.L101>
 874:	ff2818e3          	bne	x16,x18,864 <.L103>
 878:	00078c23          	sb	x0,24(x15)
 87c:	00078ca3          	sb	x0,25(x15)
 880:	00078d23          	sb	x0,26(x15)
 884:	00078da3          	sb	x0,27(x15)
 888:	00078e23          	sb	x0,28(x15)
 88c:	00078ea3          	sb	x0,29(x15)
 890:	00078f23          	sb	x0,30(x15)
 894:	00078fa3          	sb	x0,31(x15)
 898:	0007aa23          	sw	x0,20(x15)
 89c:	00000693          	li	x13,0
 8a0:	03fc0f37          	lui	x30,0x3fc0
 8a4:	20000fb7          	lui	x31,0x20000
 8a8:	00100e13          	li	x28,1
 8ac:	01000eb7          	lui	x29,0x1000
 8b0:	08000337          	lui	x6,0x8000
 8b4:	0080006f          	j	8bc <.L105>

000008b8 <.L133>:
 8b8:	00042383          	lw	x7,0(x8)

000008bc <.L105>:
 8bc:	01239713          	slli	x14,x7,0x12
 8c0:	01e775b3          	and	x11,x14,x30
 8c4:	00d9e3b3          	or	x7,x19,x13
 8c8:	0075e0b3          	or	x1,x11,x7
 8cc:	01f0ea33          	or	x20,x1,x31
 8d0:	01ca2023          	sw	x28,0(x20)
 8d4:	01d686b3          	add	x13,x13,x29
 8d8:	fe6690e3          	bne	x13,x6,8b8 <.L133>
 8dc:	00042403          	lw	x8,0(x8)
 8e0:	00700993          	li	x19,7
 8e4:	ef3400e3          	beq	x8,x19,7c4 <.L106>
 8e8:	e39ff06f          	j	720 <.L98>

Disassembly of section .text._ZN8HBTensorIfLln1EEC2EP11hb_tensor_t:

00000000 <_ZN8HBTensorIfLln1EEC1EP11hb_tensor_t>:
   0:	00058713          	mv	x14,x11
   4:	0045a683          	lw	x13,4(x11)
   8:	00072803          	lw	x16,0(x14)
   c:	0105a583          	lw	x11,16(x11)
  10:	00050793          	mv	x15,x10
  14:	02850613          	addi	x12,x10,40
  18:	01450513          	addi	x10,x10,20
  1c:	0107a023          	sw	x16,0(x15)
  20:	00d7a223          	sw	x13,4(x15)
  24:	00a7a423          	sw	x10,8(x15)
  28:	00c7a623          	sw	x12,12(x15)
  2c:	00b7a823          	sw	x11,16(x15)
  30:	00060613          	mv	x12,x12
  34:	00500293          	li	x5,5
  38:	04d2e463          	bltu	x5,x13,80 <.L93>
  3c:	00872303          	lw	x6,8(x14)
  40:	00c72383          	lw	x7,12(x14)
  44:	02068c63          	beqz	x13,7c <.L81>
  48:	00269893          	slli	x17,x13,0x2
  4c:	00078713          	mv	x14,x15
  50:	01178e33          	add	x28,x15,x17
  54:	40f30eb3          	sub	x29,x6,x15
  58:	40f38f33          	sub	x30,x7,x15

0000005c <.L85>:
  5c:	00ee8fb3          	add	x31,x29,x14
  60:	000fa683          	lw	x13,0(x31) # 20000000 <.L105+0x1ffff744>
  64:	00ef05b3          	add	x11,x30,x14
  68:	00470713          	addi	x14,x14,4
  6c:	00d72823          	sw	x13,16(x14)
  70:	0005a803          	lw	x16,0(x11)
  74:	03072223          	sw	x16,36(x14)
  78:	ffc712e3          	bne	x14,x28,5c <.L85>

0000007c <.L81>:
  7c:	00008067          	ret

00000080 <.L93>:
  80:	ff010113          	addi	x2,x2,-16
  84:	000007b7          	lui	x15,0x0
  88:	00112623          	sw	x1,12(x2)
  8c:	000000b7          	lui	x1,0x0
  90:	0d800613          	li	x12,216
  94:	00008593          	mv	x11,x1
  98:	00078513          	mv	x10,x15
  9c:	00000097          	auipc	x1,0x0
  a0:	000080e7          	jalr	x1 # 9c <.L93+0x1c>
  a4:	00000637          	lui	x12,0x0
  a8:	00060513          	mv	x10,x12
  ac:	00000097          	auipc	x1,0x0
  b0:	000080e7          	jalr	x1 # ac <.L93+0x2c>
  b4:	00000537          	lui	x10,0x0
  b8:	00052283          	lw	x5,0(x10) # 0 <_ZN8HBTensorIfLln1EEC1EP11hb_tensor_t>
  bc:	00000337          	lui	x6,0x0
  c0:	00032383          	lw	x7,0(x6) # 0 <_ZN8HBTensorIfLln1EEC1EP11hb_tensor_t>
  c4:	01029893          	slli	x17,x5,0x10
  c8:	4100feb7          	lui	x29,0x4100f
  cc:	00788e33          	add	x28,x17,x7
  d0:	adceac23          	sw	x28,-1320(x29) # 4100ead8 <.L105+0x4100e21c>

000000d4 <.L83>:
  d4:	0000006f          	j	d4 <.L83>
