
kernel_LossNLL.o:     file format elf32-littleriscv


Disassembly of section .group:

00000000 <_ZN8HBTensorIfLln1EEC5EP11hb_tensor_t>:
   0:	0001                	nop
   2:	0000                	unimp
   4:	0008                	0x8
   6:	0000                	unimp
   8:	0009                	c.nop	2
	...

Disassembly of section .group:

00000000 <_ZN8HBTensorIiLln1EEC5EP11hb_tensor_t>:
   0:	0001                	nop
   2:	0000                	unimp
   4:	000a                	c.slli	x0,0x2
   6:	0000                	unimp
   8:	0000000b          	0xb

Disassembly of section .text:

00000000 <tensorlib_lossnll_weight>:
       0:	ea010113          	addi	x2,x2,-352
       4:	15212823          	sw	x18,336(x2)
       8:	15312623          	sw	x19,332(x2)
       c:	00058913          	mv	x18,x11
      10:	00050993          	mv	x19,x10
      14:	00070593          	mv	x11,x14
      18:	00410513          	addi	x10,x2,4
      1c:	14112e23          	sw	x1,348(x2)
      20:	14812c23          	sw	x8,344(x2)
      24:	14912a23          	sw	x9,340(x2)
      28:	00068413          	mv	x8,x13
      2c:	00060493          	mv	x9,x12
      30:	15412423          	sw	x20,328(x2)
      34:	15512223          	sw	x21,324(x2)
      38:	00080a13          	mv	x20,x16
      3c:	00078a93          	mv	x21,x15
      40:	15612023          	sw	x22,320(x2)
      44:	13712e23          	sw	x23,316(x2)
      48:	00000097          	auipc	x1,0x0
      4c:	000080e7          	jalr	x1 # 48 <tensorlib_lossnll_weight+0x48>
      50:	00098593          	mv	x11,x19
      54:	04010513          	addi	x10,x2,64
      58:	00000097          	auipc	x1,0x0
      5c:	000080e7          	jalr	x1 # 58 <tensorlib_lossnll_weight+0x58>
      60:	00090593          	mv	x11,x18
      64:	07c10513          	addi	x10,x2,124
      68:	00000097          	auipc	x1,0x0
      6c:	000080e7          	jalr	x1 # 68 <tensorlib_lossnll_weight+0x68>
      70:	00048593          	mv	x11,x9
      74:	0b810513          	addi	x10,x2,184
      78:	00000097          	auipc	x1,0x0
      7c:	000080e7          	jalr	x1 # 78 <tensorlib_lossnll_weight+0x78>
      80:	00040593          	mv	x11,x8
      84:	0f410513          	addi	x10,x2,244
      88:	00000097          	auipc	x1,0x0
      8c:	000080e7          	jalr	x1 # 88 <tensorlib_lossnll_weight+0x88>
      90:	0bc12783          	lw	x15,188(x2)
      94:	00100713          	li	x14,1
      98:	1cf77863          	bgeu	x14,x15,268 <.L118>
      9c:	0c412683          	lw	x13,196(x2)
      a0:	000aa603          	lw	x12,0(x21)
      a4:	000a2583          	lw	x11,0(x20)
      a8:	0046a503          	lw	x10,4(x13)
      ac:	0006a083          	lw	x1,0(x13)
      b0:	0c061c63          	bnez	x12,188 <.L31>
      b4:	00200b13          	li	x22,2
      b8:	55678263          	beq	x15,x22,5fc <.L119>
      bc:	00000bb7          	lui	x23,0x0
      c0:	000baa83          	lw	x21,0(x23) # 0 <tensorlib_lossnll_weight>
      c4:	020a9663          	bnez	x21,f0 <.L34>

000000c8 <.L117>:
      c8:	f0000753          	fmv.w.x	f14,x0
      cc:	20e707d3          	fmv.s	f15,f14

000000d0 <.L78>:
      d0:	04012783          	lw	x15,64(x2)
      d4:	2c078e63          	beqz	x15,3b0 <.L120>
      d8:	05012e83          	lw	x29,80(x2)
      dc:	07c12083          	lw	x1,124(x2)
      e0:	00fea027          	fsw	f15,0(x29)
      e4:	32008263          	beqz	x1,408 <.L121>
      e8:	08c12683          	lw	x13,140(x2)
      ec:	00e6a027          	fsw	f14,0(x13)

000000f0 <.L34>:
      f0:	00000b37          	lui	x22,0x0
      f4:	000b2f03          	lw	x30,0(x22) # 0 <tensorlib_lossnll_weight>
      f8:	00000437          	lui	x8,0x0
      fc:	00042803          	lw	x16,0(x8) # 0 <tensorlib_lossnll_weight>
     100:	000005b7          	lui	x11,0x0
     104:	004f0793          	addi	x15,x30,4
     108:	00058713          	mv	x14,x11
     10c:	00f70333          	add	x6,x14,x15
     110:	01881693          	slli	x13,x16,0x18
     114:	00d36fb3          	or	x31,x6,x13
     118:	201c03b7          	lui	x7,0x201c0
     11c:	007feab3          	or	x21,x31,x7
     120:	00100293          	li	x5,1
     124:	005a8023          	sb	x5,0(x21)
     128:	000b2a03          	lw	x20,0(x22)
     12c:	00700913          	li	x18,7
     130:	192a0663          	beq	x20,x18,2bc <.L122>

00000134 <.L94>:
     134:	00100413          	li	x8,1
     138:	0100006f          	j	148 <.L99>

0000013c <.L123>:
     13c:	00058993          	mv	x19,x11
     140:	1409aaaf          	lr.w.aq	x21,(x19)
     144:	008a8863          	beq	x21,x8,154 <.L98>

00000148 <.L99>:
     148:	00058793          	mv	x15,x11
     14c:	1007ab2f          	lr.w	x22,(x15)
     150:	fe8b16e3          	bne	x22,x8,13c <.L123>

00000154 <.L98>:
     154:	15c12083          	lw	x1,348(x2)
     158:	15812403          	lw	x8,344(x2)
     15c:	00072023          	sw	x0,0(x14)
     160:	15412483          	lw	x9,340(x2)
     164:	15012903          	lw	x18,336(x2)
     168:	14c12983          	lw	x19,332(x2)
     16c:	14812a03          	lw	x20,328(x2)
     170:	14412a83          	lw	x21,324(x2)
     174:	14012b03          	lw	x22,320(x2)
     178:	13c12b83          	lw	x23,316(x2)
     17c:	00000513          	li	x10,0
     180:	16010113          	addi	x2,x2,352
     184:	00008067          	ret

00000188 <.L31>:
     188:	00000837          	lui	x16,0x0
     18c:	00082283          	lw	x5,0(x16) # 0 <tensorlib_lossnll_weight>
     190:	f60290e3          	bnez	x5,f0 <.L34>
     194:	00200313          	li	x6,2
     198:	1e679c63          	bne	x15,x6,390 <.L59>
     19c:	0f812b03          	lw	x22,248(x2)
     1a0:	380b0e63          	beqz	x22,53c <.L124>
     1a4:	10012383          	lw	x7,256(x2)
     1a8:	0003a883          	lw	x17,0(x7) # 201c0000 <.L213+0x201bee04>
     1ac:	2b109a63          	bne	x1,x17,460 <.L125>
     1b0:	70008063          	beqz	x1,8b0 <.L64>
     1b4:	f00007d3          	fmv.w.x	f15,x0
     1b8:	0f412b83          	lw	x23,244(x2)
     1bc:	10412a83          	lw	x21,260(x2)
     1c0:	0fc12783          	lw	x15,252(x2)
     1c4:	00412e83          	lw	x29,4(x2)
     1c8:	00812683          	lw	x13,8(x2)
     1cc:	01412f83          	lw	x31,20(x2)
     1d0:	00c12903          	lw	x18,12(x2)
     1d4:	0c012e03          	lw	x28,192(x2)
     1d8:	0c812f03          	lw	x30,200(x2)
     1dc:	20f78753          	fmv.s	f14,f15
     1e0:	00000413          	li	x8,0
     1e4:	00100813          	li	x16,1

000001e8 <.L77>:
     1e8:	3b740463          	beq	x8,x23,590 <.L126>
     1ec:	3f0b0e63          	beq	x22,x16,5e8 <.L67>
     1f0:	00241293          	slli	x5,x8,0x2
     1f4:	005a8733          	add	x14,x21,x5

000001f8 <.L68>:
     1f8:	00072483          	lw	x9,0(x14)
     1fc:	04958463          	beq	x11,x9,244 <.L69>
     200:	6004cc63          	bltz	x9,818 <.L70>
     204:	60a4fa63          	bgeu	x9,x10,818 <.L70>
     208:	51d4fe63          	bgeu	x9,x29,724 <.L127>
     20c:	59068263          	beq	x13,x16,790 <.L75>
     210:	00249a13          	slli	x20,x9,0x2
     214:	014f89b3          	add	x19,x31,x20

00000218 <.L76>:
     218:	000e2703          	lw	x14,0(x28)
     21c:	004e2283          	lw	x5,4(x28)
     220:	0009a687          	flw	f13,0(x19)
     224:	02e40333          	mul	x6,x8,x14
     228:	00d77753          	fadd.s	f14,f14,f13
     22c:	025484b3          	mul	x9,x9,x5
     230:	009303b3          	add	x7,x6,x9
     234:	00239893          	slli	x17,x7,0x2
     238:	011f09b3          	add	x19,x30,x17
     23c:	0009a607          	flw	f12,0(x19)
     240:	78c6f7cb          	fnmsub.s	f15,f13,f12,f15

00000244 <.L69>:
     244:	00140413          	addi	x8,x8,1
     248:	fa8090e3          	bne	x1,x8,1e8 <.L77>
     24c:	00100593          	li	x11,1
     250:	e8b610e3          	bne	x12,x11,d0 <.L78>
     254:	f0000053          	fmv.w.x	f0,x0
     258:	a0072653          	feq.s	x12,f14,f0
     25c:	14061063          	bnez	x12,39c <.L101>
     260:	18e7f7d3          	fdiv.s	f15,f15,f14
     264:	e6dff06f          	j	d0 <.L78>

00000268 <.L118>:
     268:	00000737          	lui	x14,0x0
     26c:	000005b7          	lui	x11,0x0
     270:	06f00613          	li	x12,111
     274:	00058593          	mv	x11,x11
     278:	00070513          	mv	x10,x14
     27c:	00000097          	auipc	x1,0x0
     280:	000080e7          	jalr	x1 # 27c <.L118+0x14>
     284:	0bc12583          	lw	x11,188(x2)
     288:	000002b7          	lui	x5,0x0
     28c:	00028513          	mv	x10,x5
     290:	00000097          	auipc	x1,0x0
     294:	000080e7          	jalr	x1 # 290 <.L118+0x28>
     298:	00000a37          	lui	x20,0x0
     29c:	000a2903          	lw	x18,0(x20) # 0 <tensorlib_lossnll_weight>
     2a0:	00000e37          	lui	x28,0x0
     2a4:	000e2e83          	lw	x29,0(x28) # 0 <tensorlib_lossnll_weight>
     2a8:	01091613          	slli	x12,x18,0x10
     2ac:	4100fbb7          	lui	x23,0x4100f
     2b0:	01d60533          	add	x10,x12,x29
     2b4:	acabac23          	sw	x10,-1320(x23) # 4100ead8 <.L213+0x4100d8dc>

000002b8 <.L30>:
     2b8:	0000006f          	j	2b8 <.L30>

000002bc <.L122>:
     2bc:	00000e37          	lui	x28,0x0
     2c0:	00000eb7          	lui	x29,0x0
     2c4:	004e0093          	addi	x1,x28,4 # 4 <tensorlib_lossnll_weight+0x4>
     2c8:	014e8993          	addi	x19,x29,20 # 14 <tensorlib_lossnll_weight+0x14>

000002cc <.L85>:
     2cc:	00008513          	mv	x10,x1

000002d0 <.L87>:
     2d0:	00054603          	lbu	x12,0(x10)
     2d4:	00150513          	addi	x10,x10,1
     2d8:	0ff67893          	andi	x17,x12,255
     2dc:	fe0888e3          	beqz	x17,2cc <.L85>
     2e0:	fea998e3          	bne	x19,x10,2d0 <.L87>
     2e4:	00042b83          	lw	x23,0(x8)
     2e8:	231c0837          	lui	x16,0x231c0
     2ec:	00100313          	li	x6,1
     2f0:	018b8493          	addi	x9,x23,24
     2f4:	00970f33          	add	x30,x14,x9
     2f8:	010f67b3          	or	x15,x30,x16
     2fc:	00678023          	sb	x6,0(x15)
     300:	000b2383          	lw	x7,0(x22)
     304:	00700693          	li	x13,7
     308:	e2d396e3          	bne	x7,x13,134 <.L94>
     30c:	00042f83          	lw	x31,0(x8)
     310:	00300a93          	li	x21,3
     314:	195f8663          	beq	x31,x21,4a0 <.L128>

00000318 <.L93>:
     318:	00100a93          	li	x21,1
     31c:	0100006f          	j	32c <.L89>

00000320 <.L129>:
     320:	01470913          	addi	x18,x14,20 # 14 <tensorlib_lossnll_weight+0x14>
     324:	14092e2f          	lr.w.aq	x28,(x18)
     328:	015e0863          	beq	x28,x21,338 <.L95>

0000032c <.L89>:
     32c:	01470293          	addi	x5,x14,20
     330:	1002aa2f          	lr.w	x20,(x5)
     334:	ff5a16e3          	bne	x20,x21,320 <.L129>

00000338 <.L95>:
     338:	00072a23          	sw	x0,20(x14)
     33c:	00000613          	li	x12,0
     340:	01000093          	li	x1,16

00000344 <.L96>:
     344:	00c70eb3          	add	x29,x14,x12
     348:	000e8223          	sb	x0,4(x29)
     34c:	00160613          	addi	x12,x12,1
     350:	fe161ae3          	bne	x12,x1,344 <.L96>
     354:	00072023          	sw	x0,0(x14)
     358:	00000313          	li	x6,0
     35c:	20000537          	lui	x10,0x20000
     360:	00100b93          	li	x23,1
     364:	000408b7          	lui	x17,0x40
     368:	004004b7          	lui	x9,0x400

0000036c <.L97>:
     36c:	00042f03          	lw	x30,0(x8)
     370:	00676833          	or	x16,x14,x6
     374:	01130333          	add	x6,x6,x17
     378:	018f1393          	slli	x7,x30,0x18
     37c:	0103e6b3          	or	x13,x7,x16
     380:	00a6efb3          	or	x31,x13,x10
     384:	017fa023          	sw	x23,0(x31)
     388:	fe9312e3          	bne	x6,x9,36c <.L97>
     38c:	da9ff06f          	j	134 <.L94>

00000390 <.L59>:
     390:	f00007d3          	fmv.w.x	f15,x0
     394:	20f78753          	fmv.s	f14,f15
     398:	d2e61ce3          	bne	x12,x14,d0 <.L78>

0000039c <.L101>:
     39c:	0b812083          	lw	x1,184(x2)
     3a0:	f0000753          	fmv.w.x	f14,x0
     3a4:	d20096e3          	bnez	x1,d0 <.L78>
     3a8:	18e7f7d3          	fdiv.s	f15,f15,f14
     3ac:	d25ff06f          	j	d0 <.L78>

000003b0 <.L120>:
     3b0:	000003b7          	lui	x7,0x0
     3b4:	000008b7          	lui	x17,0x0
     3b8:	00038593          	mv	x11,x7
     3bc:	08c00613          	li	x12,140
     3c0:	00088513          	mv	x10,x17
     3c4:	00000097          	auipc	x1,0x0
     3c8:	000080e7          	jalr	x1 # 3c4 <.L120+0x14>
     3cc:	04012583          	lw	x11,64(x2)
     3d0:	000009b7          	lui	x19,0x0
     3d4:	00000613          	li	x12,0
     3d8:	00098513          	mv	x10,x19
     3dc:	00000097          	auipc	x1,0x0
     3e0:	000080e7          	jalr	x1 # 3dc <.L120+0x2c>
     3e4:	00000437          	lui	x8,0x0
     3e8:	00042583          	lw	x11,0(x8) # 0 <tensorlib_lossnll_weight>
     3ec:	00000637          	lui	x12,0x0
     3f0:	00062503          	lw	x10,0(x12) # 0 <tensorlib_lossnll_weight>
     3f4:	01059b13          	slli	x22,x11,0x10
     3f8:	4100fab7          	lui	x21,0x4100f
     3fc:	00ab0bb3          	add	x23,x22,x10
     400:	ad7aac23          	sw	x23,-1320(x21) # 4100ead8 <.L213+0x4100d8dc>

00000404 <.L81>:
     404:	0000006f          	j	404 <.L81>

00000408 <.L121>:
     408:	00000fb7          	lui	x31,0x0
     40c:	00000937          	lui	x18,0x0
     410:	000f8593          	mv	x11,x31
     414:	08c00613          	li	x12,140
     418:	00090513          	mv	x10,x18
     41c:	00000097          	auipc	x1,0x0
     420:	000080e7          	jalr	x1 # 41c <.L121+0x14>
     424:	07c12583          	lw	x11,124(x2)
     428:	00000e37          	lui	x28,0x0
     42c:	00000613          	li	x12,0
     430:	000e0513          	mv	x10,x28
     434:	00000097          	auipc	x1,0x0
     438:	000080e7          	jalr	x1 # 434 <.L121+0x2c>
     43c:	00000f37          	lui	x30,0x0
     440:	000f2803          	lw	x16,0(x30) # 0 <tensorlib_lossnll_weight>
     444:	00000a37          	lui	x20,0x0
     448:	000a2703          	lw	x14,0(x20) # 0 <tensorlib_lossnll_weight>
     44c:	01081293          	slli	x5,x16,0x10
     450:	4100f4b7          	lui	x9,0x4100f
     454:	00e28333          	add	x6,x5,x14
     458:	ac64ac23          	sw	x6,-1320(x9) # 4100ead8 <.L213+0x4100d8dc>

0000045c <.L83>:
     45c:	0000006f          	j	45c <.L83>

00000460 <.L125>:
     460:	00000eb7          	lui	x29,0x0
     464:	000006b7          	lui	x13,0x0
     468:	03d00613          	li	x12,61
     46c:	000e8593          	mv	x11,x29
     470:	00068513          	mv	x10,x13
     474:	00000097          	auipc	x1,0x0
     478:	000080e7          	jalr	x1 # 474 <.L125+0x14>
     47c:	00000fb7          	lui	x31,0x0
     480:	000fa903          	lw	x18,0(x31) # 0 <tensorlib_lossnll_weight>
     484:	00000e37          	lui	x28,0x0
     488:	000e2f03          	lw	x30,0(x28) # 0 <tensorlib_lossnll_weight>
     48c:	01091813          	slli	x16,x18,0x10
     490:	4100f737          	lui	x14,0x4100f
     494:	01e80a33          	add	x20,x16,x30
     498:	ad472c23          	sw	x20,-1320(x14) # 4100ead8 <.L213+0x4100d8dc>

0000049c <.L63>:
     49c:	0000006f          	j	49c <.L63>

000004a0 <.L128>:
     4a0:	000002b7          	lui	x5,0x0
     4a4:	00000937          	lui	x18,0x0
     4a8:	01828a13          	addi	x20,x5,24 # 18 <tensorlib_lossnll_weight+0x18>
     4ac:	02090e13          	addi	x28,x18,32 # 20 <tensorlib_lossnll_weight+0x20>

000004b0 <.L88>:
     4b0:	000a0e93          	mv	x29,x20

000004b4 <.L90>:
     4b4:	000ec083          	lbu	x1,0(x29) # 0 <tensorlib_lossnll_weight>
     4b8:	001e8e93          	addi	x29,x29,1
     4bc:	0ff0f613          	andi	x12,x1,255
     4c0:	fe0608e3          	beqz	x12,4b0 <.L88>
     4c4:	ffde18e3          	bne	x28,x29,4b4 <.L90>
     4c8:	00070c23          	sb	x0,24(x14)
     4cc:	00070ca3          	sb	x0,25(x14)
     4d0:	00070d23          	sb	x0,26(x14)
     4d4:	00070da3          	sb	x0,27(x14)
     4d8:	00070e23          	sb	x0,28(x14)
     4dc:	00070ea3          	sb	x0,29(x14)
     4e0:	00070f23          	sb	x0,30(x14)
     4e4:	00070fa3          	sb	x0,31(x14)
     4e8:	00072a23          	sw	x0,20(x14)
     4ec:	00000793          	li	x15,0
     4f0:	03fc0537          	lui	x10,0x3fc0
     4f4:	200008b7          	lui	x17,0x20000
     4f8:	00100b93          	li	x23,1
     4fc:	010004b7          	lui	x9,0x1000
     500:	08000f37          	lui	x30,0x8000
     504:	0080006f          	j	50c <.L92>

00000508 <.L130>:
     508:	000b2383          	lw	x7,0(x22)

0000050c <.L92>:
     50c:	01239813          	slli	x16,x7,0x12
     510:	00f9e333          	or	x6,x19,x15
     514:	00a873b3          	and	x7,x16,x10
     518:	0063e6b3          	or	x13,x7,x6
     51c:	0116efb3          	or	x31,x13,x17
     520:	017fa023          	sw	x23,0(x31)
     524:	009787b3          	add	x15,x15,x9
     528:	ffe790e3          	bne	x15,x30,508 <.L130>
     52c:	000b2b03          	lw	x22,0(x22)
     530:	00700993          	li	x19,7
     534:	df3b02e3          	beq	x22,x19,318 <.L93>
     538:	bfdff06f          	j	134 <.L94>

0000053c <.L124>:
     53c:	000002b7          	lui	x5,0x0
     540:	00000337          	lui	x6,0x0
     544:	06f00613          	li	x12,111
     548:	00028593          	mv	x11,x5
     54c:	00030513          	mv	x10,x6
     550:	00000097          	auipc	x1,0x0
     554:	000080e7          	jalr	x1 # 550 <.L124+0x14>
     558:	0f812583          	lw	x11,248(x2)
     55c:	000004b7          	lui	x9,0x0
     560:	00048513          	mv	x10,x9
     564:	00000097          	auipc	x1,0x0
     568:	000080e7          	jalr	x1 # 564 <.L124+0x28>
     56c:	000003b7          	lui	x7,0x0
     570:	0003a883          	lw	x17,0(x7) # 0 <tensorlib_lossnll_weight>
     574:	000009b7          	lui	x19,0x0
     578:	0009a403          	lw	x8,0(x19) # 0 <tensorlib_lossnll_weight>
     57c:	01089593          	slli	x11,x17,0x10
     580:	4100f537          	lui	x10,0x4100f
     584:	00858633          	add	x12,x11,x8
     588:	acc52c23          	sw	x12,-1320(x10) # 4100ead8 <.L213+0x4100d8dc>

0000058c <.L61>:
     58c:	0000006f          	j	58c <.L61>

00000590 <.L126>:
     590:	000008b7          	lui	x17,0x0
     594:	000009b7          	lui	x19,0x0
     598:	00088593          	mv	x11,x17
     59c:	08c00613          	li	x12,140
     5a0:	00098513          	mv	x10,x19
     5a4:	00000097          	auipc	x1,0x0
     5a8:	000080e7          	jalr	x1 # 5a4 <.L126+0x14>
     5ac:	0f412583          	lw	x11,244(x2)
     5b0:	00040613          	mv	x12,x8
     5b4:	00000437          	lui	x8,0x0
     5b8:	00040513          	mv	x10,x8
     5bc:	00000097          	auipc	x1,0x0
     5c0:	000080e7          	jalr	x1 # 5bc <.L126+0x2c>
     5c4:	000005b7          	lui	x11,0x0
     5c8:	0005a603          	lw	x12,0(x11) # 0 <tensorlib_lossnll_weight>
     5cc:	00000537          	lui	x10,0x0
     5d0:	00052b03          	lw	x22,0(x10) # 0 <tensorlib_lossnll_weight>
     5d4:	01061b93          	slli	x23,x12,0x10
     5d8:	4100f7b7          	lui	x15,0x4100f
     5dc:	016b8ab3          	add	x21,x23,x22
     5e0:	ad57ac23          	sw	x21,-1320(x15) # 4100ead8 <.L213+0x4100d8dc>

000005e4 <.L66>:
     5e4:	0000006f          	j	5e4 <.L66>

000005e8 <.L67>:
     5e8:	0007a983          	lw	x19,0(x15)
     5ec:	033404b3          	mul	x9,x8,x19
     5f0:	00249a13          	slli	x20,x9,0x2
     5f4:	014a8733          	add	x14,x21,x20
     5f8:	c01ff06f          	j	1f8 <.L68>

000005fc <.L119>:
     5fc:	fff08793          	addi	x15,x1,-1
     600:	ffd00e93          	li	x29,-3
     604:	aefee6e3          	bltu	x29,x15,f0 <.L34>
     608:	000006b7          	lui	x13,0x0
     60c:	0006af83          	lw	x31,0(x13) # 0 <tensorlib_lossnll_weight>
     610:	0070d913          	srli	x18,x1,0x7
     614:	00190e13          	addi	x28,x18,1
     618:	07ffff13          	andi	x30,x31,127
     61c:	03cf0433          	mul	x8,x30,x28
     620:	008e0733          	add	x14,x28,x8
     624:	00e0f463          	bgeu	x1,x14,62c <.L35>
     628:	00008713          	mv	x14,x1

0000062c <.L35>:
     62c:	ace472e3          	bgeu	x8,x14,f0 <.L34>
     630:	0f412083          	lw	x1,244(x2)
     634:	0f812883          	lw	x17,248(x2)
     638:	10412803          	lw	x16,260(x2)
     63c:	0fc12303          	lw	x6,252(x2)
     640:	00412683          	lw	x13,4(x2)
     644:	00812f83          	lw	x31,8(x2)
     648:	01412383          	lw	x7,20(x2)
     64c:	00c12a83          	lw	x21,12(x2)
     650:	0c012283          	lw	x5,192(x2)
     654:	0c812a03          	lw	x20,200(x2)
     658:	04012903          	lw	x18,64(x2)
     65c:	04412e03          	lw	x28,68(x2)
     660:	05012e83          	lw	x29,80(x2)
     664:	04812983          	lw	x19,72(x2)
     668:	00100613          	li	x12,1

0000066c <.L58>:
     66c:	06147063          	bgeu	x8,x1,6cc <.L131>
     670:	10c88663          	beq	x17,x12,77c <.L39>
     674:	00241f13          	slli	x30,x8,0x2
     678:	01e807b3          	add	x15,x16,x30

0000067c <.L40>:
     67c:	0007a483          	lw	x9,0(x15)
     680:	12958263          	beq	x11,x9,7a4 <.L132>
     684:	0004c463          	bltz	x9,68c <.L47>
     688:	12a4ee63          	bltu	x9,x10,7c4 <.L48>

0000068c <.L47>:
     68c:	000004b7          	lui	x9,0x0
     690:	00000b37          	lui	x22,0x0
     694:	00048593          	mv	x11,x9
     698:	02500613          	li	x12,37
     69c:	000b0513          	mv	x10,x22
     6a0:	00000097          	auipc	x1,0x0
     6a4:	000080e7          	jalr	x1 # 6a0 <.L47+0x14>
     6a8:	00000f37          	lui	x30,0x0
     6ac:	000f2783          	lw	x15,0(x30) # 0 <tensorlib_lossnll_weight>
     6b0:	000005b7          	lui	x11,0x0
     6b4:	0005a503          	lw	x10,0(x11) # 0 <tensorlib_lossnll_weight>
     6b8:	01079413          	slli	x8,x15,0x10
     6bc:	4100f737          	lui	x14,0x4100f
     6c0:	00a408b3          	add	x17,x8,x10
     6c4:	ad172c23          	sw	x17,-1320(x14) # 4100ead8 <.L213+0x4100d8dc>

000006c8 <.L49>:
     6c8:	0000006f          	j	6c8 <.L49>

000006cc <.L131>:
     6cc:	000000b7          	lui	x1,0x0
     6d0:	00000eb7          	lui	x29,0x0
     6d4:	00008593          	mv	x11,x1
     6d8:	08c00613          	li	x12,140
     6dc:	000e8513          	mv	x10,x29
     6e0:	00000097          	auipc	x1,0x0
     6e4:	000080e7          	jalr	x1 # 6e0 <.L131+0x14>
     6e8:	0f412583          	lw	x11,244(x2)
     6ec:	000009b7          	lui	x19,0x0
     6f0:	00040613          	mv	x12,x8
     6f4:	00098513          	mv	x10,x19
     6f8:	00000097          	auipc	x1,0x0
     6fc:	000080e7          	jalr	x1 # 6f8 <.L131+0x2c>
     700:	00000637          	lui	x12,0x0
     704:	00062583          	lw	x11,0(x12) # 0 <tensorlib_lossnll_weight>
     708:	00000537          	lui	x10,0x0
     70c:	00052883          	lw	x17,0(x10) # 0 <tensorlib_lossnll_weight>
     710:	01059713          	slli	x14,x11,0x10
     714:	4100f4b7          	lui	x9,0x4100f
     718:	01170bb3          	add	x23,x14,x17
     71c:	ad74ac23          	sw	x23,-1320(x9) # 4100ead8 <.L213+0x4100d8dc>

00000720 <.L38>:
     720:	0000006f          	j	720 <.L38>

00000724 <.L127>:
     724:	000000b7          	lui	x1,0x0
     728:	00000537          	lui	x10,0x0
     72c:	00050593          	mv	x11,x10
     730:	08c00613          	li	x12,140
     734:	00008513          	mv	x10,x1
     738:	00000097          	auipc	x1,0x0
     73c:	000080e7          	jalr	x1 # 738 <.L127+0x14>
     740:	00412583          	lw	x11,4(x2)
     744:	00000b37          	lui	x22,0x0
     748:	00048613          	mv	x12,x9
     74c:	000b0513          	mv	x10,x22
     750:	00000097          	auipc	x1,0x0
     754:	000080e7          	jalr	x1 # 750 <.L127+0x2c>
     758:	00000bb7          	lui	x23,0x0
     75c:	000baa83          	lw	x21,0(x23) # 0 <tensorlib_lossnll_weight>
     760:	000007b7          	lui	x15,0x0
     764:	0007ae83          	lw	x29,0(x15) # 0 <tensorlib_lossnll_weight>
     768:	010a9693          	slli	x13,x21,0x10
     76c:	4100f937          	lui	x18,0x4100f
     770:	01d68fb3          	add	x31,x13,x29
     774:	adf92c23          	sw	x31,-1320(x18) # 4100ead8 <.L213+0x4100d8dc>

00000778 <.L74>:
     778:	0000006f          	j	778 <.L74>

0000077c <.L39>:
     77c:	00032483          	lw	x9,0(x6) # 0 <tensorlib_lossnll_weight>
     780:	02940b33          	mul	x22,x8,x9
     784:	002b1b93          	slli	x23,x22,0x2
     788:	017807b3          	add	x15,x16,x23
     78c:	ef1ff06f          	j	67c <.L40>

00000790 <.L75>:
     790:	00092303          	lw	x6,0(x18)
     794:	026483b3          	mul	x7,x9,x6
     798:	00239893          	slli	x17,x7,0x2
     79c:	011f89b3          	add	x19,x31,x17
     7a0:	a79ff06f          	j	218 <.L76>

000007a4 <.L132>:
     7a4:	0b247a63          	bgeu	x8,x18,858 <.L133>
     7a8:	16ce0663          	beq	x28,x12,914 <.L44>
     7ac:	00241793          	slli	x15,x8,0x2
     7b0:	00fe8f33          	add	x30,x29,x15

000007b4 <.L45>:
     7b4:	000f2023          	sw	x0,0(x30)

000007b8 <.L46>:
     7b8:	00140413          	addi	x8,x8,1 # 1 <tensorlib_lossnll_weight+0x1>
     7bc:	ea8718e3          	bne	x14,x8,66c <.L58>
     7c0:	931ff06f          	j	f0 <.L34>

000007c4 <.L48>:
     7c4:	0ed4fc63          	bgeu	x9,x13,8bc <.L134>
     7c8:	1acf8c63          	beq	x31,x12,980 <.L52>
     7cc:	00249b13          	slli	x22,x9,0x2
     7d0:	01638f33          	add	x30,x7,x22

000007d4 <.L53>:
     7d4:	15247a63          	bgeu	x8,x18,928 <.L135>
     7d8:	1ace0e63          	beq	x28,x12,994 <.L56>
     7dc:	00241793          	slli	x15,x8,0x2
     7e0:	00fe8bb3          	add	x23,x29,x15

000007e4 <.L57>:
     7e4:	0002ab03          	lw	x22,0(x5) # 0 <tensorlib_lossnll_weight>
     7e8:	0042a783          	lw	x15,4(x5)
     7ec:	000f2087          	flw	f1,0(x30)
     7f0:	03640f33          	mul	x30,x8,x22
     7f4:	02f484b3          	mul	x9,x9,x15
     7f8:	009f0b33          	add	x22,x30,x9
     7fc:	002b1f13          	slli	x30,x22,0x2
     800:	01ea07b3          	add	x15,x20,x30
     804:	0007a107          	flw	f2,0(x15)
     808:	101171d3          	fmul.s	f3,f2,f1
     80c:	20319253          	fneg.s	f4,f3
     810:	004ba027          	fsw	f4,0(x23)
     814:	fa5ff06f          	j	7b8 <.L46>

00000818 <.L70>:
     818:	00000e37          	lui	x28,0x0
     81c:	00000f37          	lui	x30,0x0
     820:	04200613          	li	x12,66
     824:	000e0593          	mv	x11,x28
     828:	000f0513          	mv	x10,x30
     82c:	00000097          	auipc	x1,0x0
     830:	000080e7          	jalr	x1 # 82c <.L70+0x14>
     834:	00000837          	lui	x16,0x0
     838:	00082a03          	lw	x20,0(x16) # 0 <tensorlib_lossnll_weight>
     83c:	00000737          	lui	x14,0x0
     840:	00072283          	lw	x5,0(x14) # 0 <tensorlib_lossnll_weight>
     844:	010a1313          	slli	x6,x20,0x10
     848:	4100f3b7          	lui	x7,0x4100f
     84c:	005304b3          	add	x9,x6,x5
     850:	ac93ac23          	sw	x9,-1320(x7) # 4100ead8 <.L213+0x4100d8dc>

00000854 <.L72>:
     854:	0000006f          	j	854 <.L72>

00000858 <.L133>:
     858:	00000837          	lui	x16,0x0
     85c:	00000337          	lui	x6,0x0
     860:	00080593          	mv	x11,x16
     864:	08c00613          	li	x12,140
     868:	00030513          	mv	x10,x6
     86c:	00000097          	auipc	x1,0x0
     870:	000080e7          	jalr	x1 # 86c <.L133+0x14>
     874:	04012583          	lw	x11,64(x2)
     878:	000006b7          	lui	x13,0x0
     87c:	00040613          	mv	x12,x8
     880:	00068513          	mv	x10,x13
     884:	00000097          	auipc	x1,0x0
     888:	000080e7          	jalr	x1 # 884 <.L133+0x2c>
     88c:	00000fb7          	lui	x31,0x0
     890:	000fa383          	lw	x7,0(x31) # 0 <tensorlib_lossnll_weight>
     894:	00000ab7          	lui	x21,0x0
     898:	000aa283          	lw	x5,0(x21) # 0 <tensorlib_lossnll_weight>
     89c:	01039a13          	slli	x20,x7,0x10
     8a0:	4100fe37          	lui	x28,0x4100f
     8a4:	005a0933          	add	x18,x20,x5
     8a8:	ad2e2c23          	sw	x18,-1320(x28) # 4100ead8 <.L213+0x4100d8dc>

000008ac <.L43>:
     8ac:	0000006f          	j	8ac <.L43>

000008b0 <.L64>:
     8b0:	80e61ce3          	bne	x12,x14,c8 <.L117>
     8b4:	f00007d3          	fmv.w.x	f15,x0
     8b8:	ae5ff06f          	j	39c <.L101>

000008bc <.L134>:
     8bc:	000000b7          	lui	x1,0x0
     8c0:	00000ab7          	lui	x21,0x0
     8c4:	00008593          	mv	x11,x1
     8c8:	08c00613          	li	x12,140
     8cc:	000a8513          	mv	x10,x21
     8d0:	00000097          	auipc	x1,0x0
     8d4:	000080e7          	jalr	x1 # 8d0 <.L134+0x14>
     8d8:	00412583          	lw	x11,4(x2)
     8dc:	000002b7          	lui	x5,0x0
     8e0:	00048613          	mv	x12,x9
     8e4:	00028513          	mv	x10,x5
     8e8:	00000097          	auipc	x1,0x0
     8ec:	000080e7          	jalr	x1 # 8e8 <.L134+0x2c>
     8f0:	00000a37          	lui	x20,0x0
     8f4:	000a2903          	lw	x18,0(x20) # 0 <tensorlib_lossnll_weight>
     8f8:	00000e37          	lui	x28,0x0
     8fc:	000e2e83          	lw	x29,0(x28) # 0 <tensorlib_lossnll_weight>
     900:	01091993          	slli	x19,x18,0x10
     904:	4100fbb7          	lui	x23,0x4100f
     908:	01d98633          	add	x12,x19,x29
     90c:	accbac23          	sw	x12,-1320(x23) # 4100ead8 <.L213+0x4100d8dc>

00000910 <.L51>:
     910:	0000006f          	j	910 <.L51>

00000914 <.L44>:
     914:	0009ab83          	lw	x23,0(x19) # 0 <tensorlib_lossnll_weight>
     918:	037404b3          	mul	x9,x8,x23
     91c:	00249b13          	slli	x22,x9,0x2
     920:	016e8f33          	add	x30,x29,x22
     924:	e91ff06f          	j	7b4 <.L45>

00000928 <.L135>:
     928:	000005b7          	lui	x11,0x0
     92c:	00000537          	lui	x10,0x0
     930:	00058593          	mv	x11,x11
     934:	08c00613          	li	x12,140
     938:	00050513          	mv	x10,x10
     93c:	00000097          	auipc	x1,0x0
     940:	000080e7          	jalr	x1 # 93c <.L135+0x14>
     944:	04012583          	lw	x11,64(x2)
     948:	00040613          	mv	x12,x8
     94c:	00000437          	lui	x8,0x0
     950:	00040513          	mv	x10,x8
     954:	00000097          	auipc	x1,0x0
     958:	000080e7          	jalr	x1 # 954 <.L135+0x2c>
     95c:	00000737          	lui	x14,0x0
     960:	00072883          	lw	x17,0(x14) # 0 <tensorlib_lossnll_weight>
     964:	00000837          	lui	x16,0x0
     968:	00082303          	lw	x6,0(x16) # 0 <tensorlib_lossnll_weight>
     96c:	01089693          	slli	x13,x17,0x10
     970:	4100f3b7          	lui	x7,0x4100f
     974:	00668fb3          	add	x31,x13,x6
     978:	adf3ac23          	sw	x31,-1320(x7) # 4100ead8 <.L213+0x4100d8dc>

0000097c <.L55>:
     97c:	0000006f          	j	97c <.L55>

00000980 <.L52>:
     980:	000aab03          	lw	x22,0(x21) # 0 <tensorlib_lossnll_weight>
     984:	03648bb3          	mul	x23,x9,x22
     988:	002b9793          	slli	x15,x23,0x2
     98c:	00f38f33          	add	x30,x7,x15
     990:	e45ff06f          	j	7d4 <.L53>

00000994 <.L56>:
     994:	0009ab83          	lw	x23,0(x19)
     998:	037407b3          	mul	x15,x8,x23
     99c:	00279b13          	slli	x22,x15,0x2
     9a0:	016e8bb3          	add	x23,x29,x22
     9a4:	e41ff06f          	j	7e4 <.L57>

000009a8 <_Z22tensorlib_lossnll_implIZ17tensorlib_lossnllEUliE_EiP11hb_tensor_tS2_S2_S2_PmPlT_>:
     9a8:	ef010113          	addi	x2,x2,-272
     9ac:	00050813          	mv	x16,x10
     9b0:	11212023          	sw	x18,256(x2)
     9b4:	00010513          	mv	x10,x2
     9b8:	00058913          	mv	x18,x11
     9bc:	00080593          	mv	x11,x16
     9c0:	10112623          	sw	x1,268(x2)
     9c4:	10812423          	sw	x8,264(x2)
     9c8:	10912223          	sw	x9,260(x2)
     9cc:	00068413          	mv	x8,x13
     9d0:	00060493          	mv	x9,x12
     9d4:	0f312e23          	sw	x19,252(x2)
     9d8:	0f412c23          	sw	x20,248(x2)
     9dc:	00078993          	mv	x19,x15
     9e0:	00070a13          	mv	x20,x14
     9e4:	00000097          	auipc	x1,0x0
     9e8:	000080e7          	jalr	x1 # 9e4 <_Z22tensorlib_lossnll_implIZ17tensorlib_lossnllEUliE_EiP11hb_tensor_tS2_S2_S2_PmPlT_+0x3c>
     9ec:	00090593          	mv	x11,x18
     9f0:	03c10513          	addi	x10,x2,60
     9f4:	00000097          	auipc	x1,0x0
     9f8:	000080e7          	jalr	x1 # 9f4 <_Z22tensorlib_lossnll_implIZ17tensorlib_lossnllEUliE_EiP11hb_tensor_tS2_S2_S2_PmPlT_+0x4c>
     9fc:	00048593          	mv	x11,x9
     a00:	07810513          	addi	x10,x2,120
     a04:	00000097          	auipc	x1,0x0
     a08:	000080e7          	jalr	x1 # a04 <_Z22tensorlib_lossnll_implIZ17tensorlib_lossnllEUliE_EiP11hb_tensor_tS2_S2_S2_PmPlT_+0x5c>
     a0c:	00040593          	mv	x11,x8
     a10:	0b410513          	addi	x10,x2,180
     a14:	00000097          	auipc	x1,0x0
     a18:	000080e7          	jalr	x1 # a14 <_Z22tensorlib_lossnll_implIZ17tensorlib_lossnllEUliE_EiP11hb_tensor_tS2_S2_S2_PmPlT_+0x6c>
     a1c:	07c12703          	lw	x14,124(x2)
     a20:	00100793          	li	x15,1
     a24:	14e7f663          	bgeu	x15,x14,b70 <.L193>
     a28:	08412683          	lw	x13,132(x2)
     a2c:	000a2603          	lw	x12,0(x20)
     a30:	0009a583          	lw	x11,0(x19)
     a34:	0046a503          	lw	x10,4(x13) # 4 <tensorlib_lossnll_weight+0x4>
     a38:	0006a083          	lw	x1,0(x13)
     a3c:	06061263          	bnez	x12,aa0 <.L139>
     a40:	00200413          	li	x8,2
     a44:	36870e63          	beq	x14,x8,dc0 <.L194>
     a48:	000005b7          	lui	x11,0x0
     a4c:	0005a503          	lw	x10,0(x11) # 0 <tensorlib_lossnll_weight>
     a50:	02051663          	bnez	x10,a7c <.L188>

00000a54 <.L192>:
     a54:	f0000753          	fmv.w.x	f14,x0
     a58:	20e707d3          	fmv.s	f15,f14

00000a5c <.L178>:
     a5c:	00012083          	lw	x1,0(x2)
     a60:	18008263          	beqz	x1,be4 <.L195>
     a64:	01012903          	lw	x18,16(x2)
     a68:	03c12603          	lw	x12,60(x2)
     a6c:	00f92027          	fsw	f15,0(x18)
     a70:	1c060663          	beqz	x12,c3c <.L196>
     a74:	04c12f83          	lw	x31,76(x2)
     a78:	00efa027          	fsw	f14,0(x31)

00000a7c <.L188>:
     a7c:	10c12083          	lw	x1,268(x2)
     a80:	10812403          	lw	x8,264(x2)
     a84:	10412483          	lw	x9,260(x2)
     a88:	10012903          	lw	x18,256(x2)
     a8c:	0fc12983          	lw	x19,252(x2)
     a90:	0f812a03          	lw	x20,248(x2)
     a94:	00000513          	li	x10,0
     a98:	11010113          	addi	x2,x2,272
     a9c:	00008067          	ret

00000aa0 <.L139>:
     aa0:	000002b7          	lui	x5,0x0
     aa4:	0002a303          	lw	x6,0(x5) # 0 <tensorlib_lossnll_weight>
     aa8:	fc031ae3          	bnez	x6,a7c <.L188>
     aac:	00200393          	li	x7,2
     ab0:	10771a63          	bne	x14,x7,bc4 <.L163>
     ab4:	0b812903          	lw	x18,184(x2)
     ab8:	26090a63          	beqz	x18,d2c <.L197>
     abc:	0c012883          	lw	x17,192(x2)
     ac0:	0008ae03          	lw	x28,0(x17) # 0 <tensorlib_lossnll_weight>
     ac4:	1dc09863          	bne	x1,x28,c94 <.L198>
     ac8:	3a008c63          	beqz	x1,e80 <.L168>
     acc:	f0000753          	fmv.w.x	f14,x0
     ad0:	0b412f83          	lw	x31,180(x2)
     ad4:	0c412483          	lw	x9,196(x2)
     ad8:	0bc12f03          	lw	x30,188(x2)
     adc:	08012803          	lw	x16,128(x2)
     ae0:	08812e83          	lw	x29,136(x2)
     ae4:	20e707d3          	fmv.s	f15,f14
     ae8:	00000437          	lui	x8,0x0
     aec:	00042687          	flw	f13,0(x8) # 0 <tensorlib_lossnll_weight>
     af0:	00100a13          	li	x20,1
     af4:	00000413          	li	x8,0

00000af8 <.L177>:
     af8:	00241793          	slli	x15,x8,0x2
     afc:	1df40c63          	beq	x8,x31,cd4 <.L199>
     b00:	01491863          	bne	x18,x20,b10 <.L191>
     b04:	000f2983          	lw	x19,0(x30) # 0 <tensorlib_lossnll_weight>
     b08:	03340733          	mul	x14,x8,x19
     b0c:	00271793          	slli	x15,x14,0x2

00000b10 <.L191>:
     b10:	00f486b3          	add	x13,x9,x15
     b14:	0006a303          	lw	x6,0(x13)
     b18:	02658a63          	beq	x11,x6,b4c <.L173>
     b1c:	00d77753          	fadd.s	f14,f14,f13
     b20:	26034063          	bltz	x6,d80 <.L174>
     b24:	24a37e63          	bgeu	x6,x10,d80 <.L174>
     b28:	00082383          	lw	x7,0(x16)
     b2c:	00482283          	lw	x5,4(x16)
     b30:	027408b3          	mul	x17,x8,x7
     b34:	02530e33          	mul	x28,x6,x5
     b38:	01c889b3          	add	x19,x17,x28
     b3c:	00299713          	slli	x14,x19,0x2
     b40:	00ee87b3          	add	x15,x29,x14
     b44:	0007a607          	flw	f12,0(x15)
     b48:	08c7f7d3          	fsub.s	f15,f15,f12

00000b4c <.L173>:
     b4c:	00140413          	addi	x8,x8,1
     b50:	fa1414e3          	bne	x8,x1,af8 <.L177>
     b54:	00100593          	li	x11,1
     b58:	f0b612e3          	bne	x12,x11,a5c <.L178>
     b5c:	f0000053          	fmv.w.x	f0,x0
     b60:	a0072653          	feq.s	x12,f14,f0
     b64:	06061663          	bnez	x12,bd0 <.L184>
     b68:	18e7f7d3          	fdiv.s	f15,f15,f14
     b6c:	ef1ff06f          	j	a5c <.L178>

00000b70 <.L193>:
     b70:	00000437          	lui	x8,0x0
     b74:	00000537          	lui	x10,0x0
     b78:	06f00613          	li	x12,111
     b7c:	00040593          	mv	x11,x8
     b80:	00050513          	mv	x10,x10
     b84:	00000097          	auipc	x1,0x0
     b88:	000080e7          	jalr	x1 # b84 <.L193+0x14>
     b8c:	07c12583          	lw	x11,124(x2)
     b90:	00000737          	lui	x14,0x0
     b94:	00070513          	mv	x10,x14
     b98:	00000097          	auipc	x1,0x0
     b9c:	000080e7          	jalr	x1 # b98 <.L193+0x28>
     ba0:	000005b7          	lui	x11,0x0
     ba4:	0005a383          	lw	x7,0(x11) # 0 <tensorlib_lossnll_weight>
     ba8:	000002b7          	lui	x5,0x0
     bac:	0002af83          	lw	x31,0(x5) # 0 <tensorlib_lossnll_weight>
     bb0:	01039e13          	slli	x28,x7,0x10
     bb4:	4100feb7          	lui	x29,0x4100f
     bb8:	01fe0f33          	add	x30,x28,x31
     bbc:	adeeac23          	sw	x30,-1320(x29) # 4100ead8 <.L213+0x4100d8dc>

00000bc0 <.L138>:
     bc0:	0000006f          	j	bc0 <.L138>

00000bc4 <.L163>:
     bc4:	f00007d3          	fmv.w.x	f15,x0
     bc8:	20f78753          	fmv.s	f14,f15
     bcc:	e8f618e3          	bne	x12,x15,a5c <.L178>

00000bd0 <.L184>:
     bd0:	07812583          	lw	x11,120(x2)
     bd4:	f0000753          	fmv.w.x	f14,x0
     bd8:	e80592e3          	bnez	x11,a5c <.L178>
     bdc:	18e7f7d3          	fdiv.s	f15,f15,f14
     be0:	e7dff06f          	j	a5c <.L178>

00000be4 <.L195>:
     be4:	00000e37          	lui	x28,0x0
     be8:	000009b7          	lui	x19,0x0
     bec:	000e0593          	mv	x11,x28
     bf0:	08c00613          	li	x12,140
     bf4:	00098513          	mv	x10,x19
     bf8:	00000097          	auipc	x1,0x0
     bfc:	000080e7          	jalr	x1 # bf8 <.L195+0x14>
     c00:	00012583          	lw	x11,0(x2)
     c04:	000007b7          	lui	x15,0x0
     c08:	00000613          	li	x12,0
     c0c:	00078513          	mv	x10,x15
     c10:	00000097          	auipc	x1,0x0
     c14:	000080e7          	jalr	x1 # c10 <.L195+0x2c>
     c18:	00000737          	lui	x14,0x0
     c1c:	00072403          	lw	x8,0(x14) # 0 <tensorlib_lossnll_weight>
     c20:	000005b7          	lui	x11,0x0
     c24:	0005a503          	lw	x10,0(x11) # 0 <tensorlib_lossnll_weight>
     c28:	01041613          	slli	x12,x8,0x10
     c2c:	4100ffb7          	lui	x31,0x4100f
     c30:	00a60933          	add	x18,x12,x10
     c34:	ad2fac23          	sw	x18,-1320(x31) # 4100ead8 <.L213+0x4100d8dc>

00000c38 <.L181>:
     c38:	0000006f          	j	c38 <.L181>

00000c3c <.L196>:
     c3c:	00000f37          	lui	x30,0x0
     c40:	000004b7          	lui	x9,0x0
     c44:	08c00613          	li	x12,140
     c48:	00048593          	mv	x11,x9
     c4c:	000f0513          	mv	x10,x30
     c50:	00000097          	auipc	x1,0x0
     c54:	000080e7          	jalr	x1 # c50 <.L196+0x14>
     c58:	03c12583          	lw	x11,60(x2)
     c5c:	00000837          	lui	x16,0x0
     c60:	00000613          	li	x12,0
     c64:	00080513          	mv	x10,x16
     c68:	00000097          	auipc	x1,0x0
     c6c:	000080e7          	jalr	x1 # c68 <.L196+0x2c>
     c70:	00000eb7          	lui	x29,0x0
     c74:	000eaa03          	lw	x20,0(x29) # 0 <tensorlib_lossnll_weight>
     c78:	000006b7          	lui	x13,0x0
     c7c:	0006a303          	lw	x6,0(x13) # 0 <tensorlib_lossnll_weight>
     c80:	010a1393          	slli	x7,x20,0x10
     c84:	4100f8b7          	lui	x17,0x4100f
     c88:	006382b3          	add	x5,x7,x6
     c8c:	ac58ac23          	sw	x5,-1320(x17) # 4100ead8 <.L213+0x4100d8dc>

00000c90 <.L183>:
     c90:	0000006f          	j	c90 <.L183>

00000c94 <.L198>:
     c94:	00000537          	lui	x10,0x0
     c98:	000000b7          	lui	x1,0x0
     c9c:	03d00613          	li	x12,61
     ca0:	00050593          	mv	x11,x10
     ca4:	00008513          	mv	x10,x1
     ca8:	00000097          	auipc	x1,0x0
     cac:	000080e7          	jalr	x1 # ca8 <.L198+0x14>
     cb0:	00000637          	lui	x12,0x0
     cb4:	00062903          	lw	x18,0(x12) # 0 <tensorlib_lossnll_weight>
     cb8:	00000fb7          	lui	x31,0x0
     cbc:	000fa483          	lw	x9,0(x31) # 0 <tensorlib_lossnll_weight>
     cc0:	01091f13          	slli	x30,x18,0x10
     cc4:	4100feb7          	lui	x29,0x4100f
     cc8:	009f0833          	add	x16,x30,x9
     ccc:	ad0eac23          	sw	x16,-1320(x29) # 4100ead8 <.L213+0x4100d8dc>

00000cd0 <.L167>:
     cd0:	0000006f          	j	cd0 <.L167>

00000cd4 <.L199>:
     cd4:	000006b7          	lui	x13,0x0
     cd8:	00000337          	lui	x6,0x0
     cdc:	00068593          	mv	x11,x13
     ce0:	08c00613          	li	x12,140
     ce4:	00030513          	mv	x10,x6
     ce8:	00000097          	auipc	x1,0x0
     cec:	000080e7          	jalr	x1 # ce8 <.L199+0x14>
     cf0:	0b412583          	lw	x11,180(x2)
     cf4:	000003b7          	lui	x7,0x0
     cf8:	00040613          	mv	x12,x8
     cfc:	00038513          	mv	x10,x7
     d00:	00000097          	auipc	x1,0x0
     d04:	000080e7          	jalr	x1 # d00 <.L199+0x2c>
     d08:	000002b7          	lui	x5,0x0
     d0c:	0002a883          	lw	x17,0(x5) # 0 <tensorlib_lossnll_weight>
     d10:	00000e37          	lui	x28,0x0
     d14:	000e2983          	lw	x19,0(x28) # 0 <tensorlib_lossnll_weight>
     d18:	01089713          	slli	x14,x17,0x10
     d1c:	4100f437          	lui	x8,0x4100f
     d20:	013707b3          	add	x15,x14,x19
     d24:	acf42c23          	sw	x15,-1320(x8) # 4100ead8 <.L213+0x4100d8dc>

00000d28 <.L170>:
     d28:	0000006f          	j	d28 <.L170>

00000d2c <.L197>:
     d2c:	000006b7          	lui	x13,0x0
     d30:	00000a37          	lui	x20,0x0
     d34:	06f00613          	li	x12,111
     d38:	000a0593          	mv	x11,x20
     d3c:	00068513          	mv	x10,x13
     d40:	00000097          	auipc	x1,0x0
     d44:	000080e7          	jalr	x1 # d40 <.L197+0x14>
     d48:	0b812583          	lw	x11,184(x2)
     d4c:	00000337          	lui	x6,0x0
     d50:	00030513          	mv	x10,x6
     d54:	00000097          	auipc	x1,0x0
     d58:	000080e7          	jalr	x1 # d54 <.L197+0x28>
     d5c:	000003b7          	lui	x7,0x0
     d60:	0003a283          	lw	x5,0(x7) # 0 <tensorlib_lossnll_weight>
     d64:	000008b7          	lui	x17,0x0
     d68:	0008ae03          	lw	x28,0(x17) # 0 <tensorlib_lossnll_weight>
     d6c:	01029993          	slli	x19,x5,0x10
     d70:	4100f737          	lui	x14,0x4100f
     d74:	01c987b3          	add	x15,x19,x28
     d78:	acf72c23          	sw	x15,-1320(x14) # 4100ead8 <.L213+0x4100d8dc>

00000d7c <.L165>:
     d7c:	0000006f          	j	d7c <.L165>

00000d80 <.L174>:
     d80:	00000537          	lui	x10,0x0
     d84:	000000b7          	lui	x1,0x0
     d88:	00050593          	mv	x11,x10
     d8c:	04200613          	li	x12,66
     d90:	00008513          	mv	x10,x1
     d94:	00000097          	auipc	x1,0x0
     d98:	000080e7          	jalr	x1 # d94 <.L174+0x14>
     d9c:	00000937          	lui	x18,0x0
     da0:	00092f83          	lw	x31,0(x18) # 0 <tensorlib_lossnll_weight>
     da4:	000004b7          	lui	x9,0x0
     da8:	0004af03          	lw	x30,0(x9) # 0 <tensorlib_lossnll_weight>
     dac:	010f9813          	slli	x16,x31,0x10
     db0:	4100fa37          	lui	x20,0x4100f
     db4:	01e80eb3          	add	x29,x16,x30
     db8:	adda2c23          	sw	x29,-1320(x20) # 4100ead8 <.L213+0x4100d8dc>

00000dbc <.L176>:
     dbc:	0000006f          	j	dbc <.L176>

00000dc0 <.L194>:
     dc0:	fff08493          	addi	x9,x1,-1
     dc4:	ffd00f13          	li	x30,-3
     dc8:	ca9f6ae3          	bltu	x30,x9,a7c <.L188>
     dcc:	00000837          	lui	x16,0x0
     dd0:	00082e83          	lw	x29,0(x16) # 0 <tensorlib_lossnll_weight>
     dd4:	0070da13          	srli	x20,x1,0x7
     dd8:	001a0693          	addi	x13,x20,1
     ddc:	07fef313          	andi	x6,x29,127
     de0:	02d30433          	mul	x8,x6,x13
     de4:	00868733          	add	x14,x13,x8
     de8:	00e0f463          	bgeu	x1,x14,df0 <.L143>
     dec:	00008713          	mv	x14,x1

00000df0 <.L143>:
     df0:	c8e476e3          	bgeu	x8,x14,a7c <.L188>
     df4:	0b412083          	lw	x1,180(x2)
     df8:	0b812383          	lw	x7,184(x2)
     dfc:	0c412283          	lw	x5,196(x2)
     e00:	0bc12f83          	lw	x31,188(x2)
     e04:	08012e03          	lw	x28,128(x2)
     e08:	08812f03          	lw	x30,136(x2)
     e0c:	00012e83          	lw	x29,0(x2)
     e10:	00412883          	lw	x17,4(x2)
     e14:	01012a03          	lw	x20,16(x2)
     e18:	00812803          	lw	x16,8(x2)
     e1c:	00100613          	li	x12,1

00000e20 <.L162>:
     e20:	0c147e63          	bgeu	x8,x1,efc <.L200>
     e24:	08c38063          	beq	x7,x12,ea4 <.L147>
     e28:	00241693          	slli	x13,x8,0x2
     e2c:	00d284b3          	add	x9,x5,x13

00000e30 <.L148>:
     e30:	0004a303          	lw	x6,0(x9)
     e34:	04658c63          	beq	x11,x6,e8c <.L201>
     e38:	00034463          	bltz	x6,e40 <.L155>
     e3c:	06a36e63          	bltu	x6,x10,eb8 <.L156>

00000e40 <.L155>:
     e40:	000000b7          	lui	x1,0x0
     e44:	000008b7          	lui	x17,0x0
     e48:	02500613          	li	x12,37
     e4c:	00008593          	mv	x11,x1
     e50:	00088513          	mv	x10,x17
     e54:	00000097          	auipc	x1,0x0
     e58:	000080e7          	jalr	x1 # e54 <.L155+0x14>
     e5c:	00000a37          	lui	x20,0x0
     e60:	000a2803          	lw	x16,0(x20) # 0 <tensorlib_lossnll_weight>
     e64:	00000637          	lui	x12,0x0
     e68:	00062683          	lw	x13,0(x12) # 0 <tensorlib_lossnll_weight>
     e6c:	01081493          	slli	x9,x16,0x10
     e70:	4100f937          	lui	x18,0x4100f
     e74:	00d48333          	add	x6,x9,x13
     e78:	ac692c23          	sw	x6,-1320(x18) # 4100ead8 <.L213+0x4100d8dc>

00000e7c <.L157>:
     e7c:	0000006f          	j	e7c <.L157>

00000e80 <.L168>:
     e80:	bcf61ae3          	bne	x12,x15,a54 <.L192>
     e84:	f00007d3          	fmv.w.x	f15,x0
     e88:	d49ff06f          	j	bd0 <.L184>

00000e8c <.L201>:
     e8c:	0fd47063          	bgeu	x8,x29,f6c <.L202>
     e90:	0cc88263          	beq	x17,x12,f54 <.L152>
     e94:	00241313          	slli	x6,x8,0x2
     e98:	006a04b3          	add	x9,x20,x6
     e9c:	0004a023          	sw	x0,0(x9)
     ea0:	0500006f          	j	ef0 <.L154>

00000ea4 <.L147>:
     ea4:	000fa983          	lw	x19,0(x31)
     ea8:	033407b3          	mul	x15,x8,x19
     eac:	00279913          	slli	x18,x15,0x2
     eb0:	012284b3          	add	x9,x5,x18
     eb4:	f7dff06f          	j	e30 <.L148>

00000eb8 <.L156>:
     eb8:	13d47063          	bgeu	x8,x29,fd8 <.L203>
     ebc:	10c88463          	beq	x17,x12,fc4 <.L160>
     ec0:	00241493          	slli	x9,x8,0x2
     ec4:	009a06b3          	add	x13,x20,x9

00000ec8 <.L161>:
     ec8:	000e2783          	lw	x15,0(x28)
     ecc:	004e2983          	lw	x19,4(x28)
     ed0:	02f404b3          	mul	x9,x8,x15
     ed4:	03330333          	mul	x6,x6,x19
     ed8:	00648933          	add	x18,x9,x6
     edc:	00291793          	slli	x15,x18,0x2
     ee0:	00ff09b3          	add	x19,x30,x15
     ee4:	0009a087          	flw	f1,0(x19) # 0 <tensorlib_lossnll_weight>
     ee8:	20109153          	fneg.s	f2,f1
     eec:	0026a027          	fsw	f2,0(x13) # 0 <tensorlib_lossnll_weight>

00000ef0 <.L154>:
     ef0:	00140413          	addi	x8,x8,1
     ef4:	f28716e3          	bne	x14,x8,e20 <.L162>
     ef8:	b85ff06f          	j	a7c <.L188>

00000efc <.L200>:
     efc:	000000b7          	lui	x1,0x0
     f00:	00000a37          	lui	x20,0x0
     f04:	00008593          	mv	x11,x1
     f08:	08c00613          	li	x12,140
     f0c:	000a0513          	mv	x10,x20
     f10:	00000097          	auipc	x1,0x0
     f14:	000080e7          	jalr	x1 # f10 <.L200+0x14>
     f18:	0b412583          	lw	x11,180(x2)
     f1c:	00000837          	lui	x16,0x0
     f20:	00040613          	mv	x12,x8
     f24:	00080513          	mv	x10,x16
     f28:	00000097          	auipc	x1,0x0
     f2c:	000080e7          	jalr	x1 # f28 <.L200+0x2c>
     f30:	00000637          	lui	x12,0x0
     f34:	00062903          	lw	x18,0(x12) # 0 <tensorlib_lossnll_weight>
     f38:	000007b7          	lui	x15,0x0
     f3c:	0007a983          	lw	x19,0(x15) # 0 <tensorlib_lossnll_weight>
     f40:	01091693          	slli	x13,x18,0x10
     f44:	4100f337          	lui	x6,0x4100f
     f48:	013684b3          	add	x9,x13,x19
     f4c:	ac932c23          	sw	x9,-1320(x6) # 4100ead8 <.L213+0x4100d8dc>

00000f50 <.L146>:
     f50:	0000006f          	j	f50 <.L146>

00000f54 <.L152>:
     f54:	00082783          	lw	x15,0(x16) # 0 <tensorlib_lossnll_weight>
     f58:	02f409b3          	mul	x19,x8,x15
     f5c:	00299693          	slli	x13,x19,0x2
     f60:	00da04b3          	add	x9,x20,x13
     f64:	0004a023          	sw	x0,0(x9)
     f68:	f89ff06f          	j	ef0 <.L154>

00000f6c <.L202>:
     f6c:	000005b7          	lui	x11,0x0
     f70:	00000537          	lui	x10,0x0
     f74:	00058593          	mv	x11,x11
     f78:	08c00613          	li	x12,140
     f7c:	00050513          	mv	x10,x10
     f80:	00000097          	auipc	x1,0x0
     f84:	000080e7          	jalr	x1 # f80 <.L202+0x14>
     f88:	00012583          	lw	x11,0(x2)
     f8c:	00000737          	lui	x14,0x0
     f90:	00040613          	mv	x12,x8
     f94:	00070513          	mv	x10,x14
     f98:	00000097          	auipc	x1,0x0
     f9c:	000080e7          	jalr	x1 # f98 <.L202+0x2c>
     fa0:	000003b7          	lui	x7,0x0
     fa4:	0003a283          	lw	x5,0(x7) # 0 <tensorlib_lossnll_weight>
     fa8:	00000fb7          	lui	x31,0x0
     fac:	000fae03          	lw	x28,0(x31) # 0 <tensorlib_lossnll_weight>
     fb0:	01029f13          	slli	x30,x5,0x10
     fb4:	4100f8b7          	lui	x17,0x4100f
     fb8:	01cf0eb3          	add	x29,x30,x28
     fbc:	add8ac23          	sw	x29,-1320(x17) # 4100ead8 <.L213+0x4100d8dc>

00000fc0 <.L151>:
     fc0:	0000006f          	j	fc0 <.L151>

00000fc4 <.L160>:
     fc4:	00082983          	lw	x19,0(x16)
     fc8:	033407b3          	mul	x15,x8,x19
     fcc:	00279913          	slli	x18,x15,0x2
     fd0:	012a06b3          	add	x13,x20,x18
     fd4:	ef5ff06f          	j	ec8 <.L161>

00000fd8 <.L203>:
     fd8:	000005b7          	lui	x11,0x0
     fdc:	00000537          	lui	x10,0x0
     fe0:	00058593          	mv	x11,x11
     fe4:	08c00613          	li	x12,140
     fe8:	00050513          	mv	x10,x10
     fec:	00000097          	auipc	x1,0x0
     ff0:	000080e7          	jalr	x1 # fec <.L203+0x14>
     ff4:	00012583          	lw	x11,0(x2)
     ff8:	00040613          	mv	x12,x8
     ffc:	00000437          	lui	x8,0x0
    1000:	00040513          	mv	x10,x8
    1004:	00000097          	auipc	x1,0x0
    1008:	000080e7          	jalr	x1 # 1004 <.L203+0x2c>
    100c:	00000737          	lui	x14,0x0
    1010:	00072383          	lw	x7,0(x14) # 0 <tensorlib_lossnll_weight>
    1014:	000002b7          	lui	x5,0x0
    1018:	0002af83          	lw	x31,0(x5) # 0 <tensorlib_lossnll_weight>
    101c:	01039e13          	slli	x28,x7,0x10
    1020:	4100feb7          	lui	x29,0x4100f
    1024:	01fe0f33          	add	x30,x28,x31
    1028:	adeeac23          	sw	x30,-1320(x29) # 4100ead8 <.L213+0x4100d8dc>

0000102c <.L159>:
    102c:	0000006f          	j	102c <.L159>

00001030 <tensorlib_lossnll>:
    1030:	ff010113          	addi	x2,x2,-16
    1034:	00000813          	li	x16,0
    1038:	00112623          	sw	x1,12(x2)
    103c:	00000097          	auipc	x1,0x0
    1040:	000080e7          	jalr	x1 # 103c <tensorlib_lossnll+0xc>
    1044:	00000637          	lui	x12,0x0
    1048:	00062703          	lw	x14,0(x12) # 0 <tensorlib_lossnll_weight>
    104c:	00000837          	lui	x16,0x0
    1050:	00082683          	lw	x13,0(x16) # 0 <tensorlib_lossnll_weight>
    1054:	000005b7          	lui	x11,0x0
    1058:	00470293          	addi	x5,x14,4
    105c:	00058793          	mv	x15,x11
    1060:	00578333          	add	x6,x15,x5
    1064:	01869393          	slli	x7,x13,0x18
    1068:	00736533          	or	x10,x6,x7
    106c:	201c08b7          	lui	x17,0x201c0
    1070:	01156e33          	or	x28,x10,x17
    1074:	00100e93          	li	x29,1
    1078:	01de0023          	sb	x29,0(x28)
    107c:	00062f03          	lw	x30,0(x12)
    1080:	00700f93          	li	x31,7
    1084:	03ff0c63          	beq	x30,x31,10bc <.L234>

00001088 <.L206>:
    1088:	00100813          	li	x16,1
    108c:	0100006f          	j	109c <.L219>

00001090 <.L235>:
    1090:	00058713          	mv	x14,x11
    1094:	14072faf          	lr.w.aq	x31,(x14)
    1098:	010f8863          	beq	x31,x16,10a8 <.L218>

0000109c <.L219>:
    109c:	00058293          	mv	x5,x11
    10a0:	1002a52f          	lr.w	x10,(x5)
    10a4:	ff0516e3          	bne	x10,x16,1090 <.L235>

000010a8 <.L218>:
    10a8:	00c12083          	lw	x1,12(x2)
    10ac:	0007a023          	sw	x0,0(x15)
    10b0:	00000513          	li	x10,0
    10b4:	01010113          	addi	x2,x2,16
    10b8:	00008067          	ret

000010bc <.L234>:
    10bc:	000000b7          	lui	x1,0x0
    10c0:	00000737          	lui	x14,0x0
    10c4:	00408293          	addi	x5,x1,4 # 4 <tensorlib_lossnll_weight+0x4>
    10c8:	01470393          	addi	x7,x14,20 # 14 <tensorlib_lossnll_weight+0x14>

000010cc <.L205>:
    10cc:	00028313          	mv	x6,x5

000010d0 <.L208>:
    10d0:	00034683          	lbu	x13,0(x6)
    10d4:	00130313          	addi	x6,x6,1
    10d8:	0ff6f513          	andi	x10,x13,255
    10dc:	fe0508e3          	beqz	x10,10cc <.L205>
    10e0:	fe6398e3          	bne	x7,x6,10d0 <.L208>
    10e4:	00082883          	lw	x17,0(x16)
    10e8:	231c0f37          	lui	x30,0x231c0
    10ec:	00100093          	li	x1,1
    10f0:	01888e13          	addi	x28,x17,24 # 201c0018 <.L213+0x201bee1c>
    10f4:	01c78eb3          	add	x29,x15,x28
    10f8:	01eeefb3          	or	x31,x29,x30
    10fc:	001f8023          	sb	x1,0(x31)
    1100:	00062283          	lw	x5,0(x12)
    1104:	00700713          	li	x14,7
    1108:	f8e290e3          	bne	x5,x14,1088 <.L206>
    110c:	00082303          	lw	x6,0(x16)
    1110:	00300693          	li	x13,3
    1114:	06d30e63          	beq	x6,x13,1190 <.L236>

00001118 <.L214>:
    1118:	00100893          	li	x17,1
    111c:	0100006f          	j	112c <.L210>

00001120 <.L237>:
    1120:	01478e13          	addi	x28,x15,20
    1124:	140e232f          	lr.w.aq	x6,(x28)
    1128:	01130863          	beq	x6,x17,1138 <.L215>

0000112c <.L210>:
    112c:	01478f13          	addi	x30,x15,20
    1130:	100f2eaf          	lr.w	x29,(x30)
    1134:	ff1e96e3          	bne	x29,x17,1120 <.L237>

00001138 <.L215>:
    1138:	0007aa23          	sw	x0,20(x15)
    113c:	00000713          	li	x14,0
    1140:	01000293          	li	x5,16

00001144 <.L216>:
    1144:	00e78533          	add	x10,x15,x14
    1148:	00050223          	sb	x0,4(x10) # 4 <tensorlib_lossnll_weight+0x4>
    114c:	00170713          	addi	x14,x14,1
    1150:	fe571ae3          	bne	x14,x5,1144 <.L216>
    1154:	0007a023          	sw	x0,0(x15)
    1158:	00000693          	li	x13,0
    115c:	20000fb7          	lui	x31,0x20000
    1160:	00100093          	li	x1,1
    1164:	000403b7          	lui	x7,0x40
    1168:	004008b7          	lui	x17,0x400

0000116c <.L217>:
    116c:	00082f03          	lw	x30,0(x16)
    1170:	00d7e633          	or	x12,x15,x13
    1174:	007686b3          	add	x13,x13,x7
    1178:	018f1e93          	slli	x29,x30,0x18
    117c:	00ceee33          	or	x28,x29,x12
    1180:	01fe6333          	or	x6,x28,x31
    1184:	00132023          	sw	x1,0(x6)
    1188:	ff1692e3          	bne	x13,x17,116c <.L217>
    118c:	efdff06f          	j	1088 <.L206>

00001190 <.L236>:
    1190:	00000537          	lui	x10,0x0
    1194:	00000e37          	lui	x28,0x0
    1198:	01850893          	addi	x17,x10,24 # 18 <tensorlib_lossnll_weight+0x18>
    119c:	020e0e93          	addi	x29,x28,32 # 20 <tensorlib_lossnll_weight+0x20>

000011a0 <.L209>:
    11a0:	00088f93          	mv	x31,x17

000011a4 <.L211>:
    11a4:	000fcf03          	lbu	x30,0(x31) # 20000000 <.L213+0x1fffee04>
    11a8:	001f8f93          	addi	x31,x31,1
    11ac:	0fff7093          	andi	x1,x30,255
    11b0:	fe0088e3          	beqz	x1,11a0 <.L209>
    11b4:	fffe98e3          	bne	x29,x31,11a4 <.L211>
    11b8:	00078c23          	sb	x0,24(x15)
    11bc:	00078ca3          	sb	x0,25(x15)
    11c0:	00078d23          	sb	x0,26(x15)
    11c4:	00078da3          	sb	x0,27(x15)
    11c8:	00078e23          	sb	x0,28(x15)
    11cc:	00078ea3          	sb	x0,29(x15)
    11d0:	00078f23          	sb	x0,30(x15)
    11d4:	00078fa3          	sb	x0,31(x15)
    11d8:	0007aa23          	sw	x0,20(x15)
    11dc:	00000693          	li	x13,0
    11e0:	03fc08b7          	lui	x17,0x3fc0
    11e4:	20000f37          	lui	x30,0x20000
    11e8:	00100e93          	li	x29,1
    11ec:	01000e37          	lui	x28,0x1000
    11f0:	08000337          	lui	x6,0x8000
    11f4:	0080006f          	j	11fc <.L213>

000011f8 <.L238>:
    11f8:	00062283          	lw	x5,0(x12)

000011fc <.L213>:
    11fc:	01229293          	slli	x5,x5,0x12
    1200:	00d3e533          	or	x10,x7,x13
    1204:	0112f733          	and	x14,x5,x17
    1208:	00a76fb3          	or	x31,x14,x10
    120c:	01efe0b3          	or	x1,x31,x30
    1210:	01d0a023          	sw	x29,0(x1)
    1214:	01c686b3          	add	x13,x13,x28
    1218:	fe6690e3          	bne	x13,x6,11f8 <.L238>
    121c:	00062603          	lw	x12,0(x12)
    1220:	00700393          	li	x7,7
    1224:	ee760ae3          	beq	x12,x7,1118 <.L214>
    1228:	e61ff06f          	j	1088 <.L206>

Disassembly of section .text._ZN8HBTensorIfLln1EEC2EP11hb_tensor_t:

00000000 <_ZN8HBTensorIfLln1EEC1EP11hb_tensor_t>:
   0:	00058713          	mv	x14,x11
   4:	0045a683          	lw	x13,4(x11) # 4 <_ZN8HBTensorIfLln1EEC1EP11hb_tensor_t+0x4>
   8:	00072803          	lw	x16,0(x14)
   c:	0105a583          	lw	x11,16(x11)
  10:	00050793          	mv	x15,x10
  14:	02850613          	addi	x12,x10,40
  18:	01450513          	addi	x10,x10,20
  1c:	0107a023          	sw	x16,0(x15)
  20:	00d7a223          	sw	x13,4(x15)
  24:	00a7a423          	sw	x10,8(x15)
  28:	00c7a623          	sw	x12,12(x15)
  2c:	00b7a823          	sw	x11,16(x15)
  30:	00060613          	mv	x12,x12
  34:	00500293          	li	x5,5
  38:	04d2e463          	bltu	x5,x13,80 <.L14>
  3c:	00872303          	lw	x6,8(x14)
  40:	00c72383          	lw	x7,12(x14)
  44:	02068c63          	beqz	x13,7c <.L1>
  48:	00269893          	slli	x17,x13,0x2
  4c:	00078713          	mv	x14,x15
  50:	01178e33          	add	x28,x15,x17
  54:	40f30eb3          	sub	x29,x6,x15
  58:	40f38f33          	sub	x30,x7,x15

0000005c <.L5>:
  5c:	00ee8fb3          	add	x31,x29,x14
  60:	000fa683          	lw	x13,0(x31)
  64:	00ef05b3          	add	x11,x30,x14
  68:	00470713          	addi	x14,x14,4
  6c:	00d72823          	sw	x13,16(x14)
  70:	0005a803          	lw	x16,0(x11)
  74:	03072223          	sw	x16,36(x14)
  78:	ffc712e3          	bne	x14,x28,5c <.L5>

0000007c <.L1>:
  7c:	00008067          	ret

00000080 <.L14>:
  80:	ff010113          	addi	x2,x2,-16
  84:	000007b7          	lui	x15,0x0
  88:	00112623          	sw	x1,12(x2)
  8c:	000000b7          	lui	x1,0x0
  90:	0d800613          	li	x12,216
  94:	00008593          	mv	x11,x1
  98:	00078513          	mv	x10,x15
  9c:	00000097          	auipc	x1,0x0
  a0:	000080e7          	jalr	x1 # 9c <.L14+0x1c>
  a4:	00000637          	lui	x12,0x0
  a8:	00060513          	mv	x10,x12
  ac:	00000097          	auipc	x1,0x0
  b0:	000080e7          	jalr	x1 # ac <.L14+0x2c>
  b4:	00000537          	lui	x10,0x0
  b8:	00052283          	lw	x5,0(x10) # 0 <_ZN8HBTensorIfLln1EEC1EP11hb_tensor_t>
  bc:	00000337          	lui	x6,0x0
  c0:	00032383          	lw	x7,0(x6) # 0 <_ZN8HBTensorIfLln1EEC1EP11hb_tensor_t>
  c4:	01029893          	slli	x17,x5,0x10
  c8:	4100feb7          	lui	x29,0x4100f
  cc:	00788e33          	add	x28,x17,x7
  d0:	adceac23          	sw	x28,-1320(x29) # 4100ead8 <.L213+0x4100d8dc>

000000d4 <.L3>:
  d4:	0000006f          	j	d4 <.L3>

Disassembly of section .text._ZN8HBTensorIiLln1EEC2EP11hb_tensor_t:

00000000 <_ZN8HBTensorIiLln1EEC1EP11hb_tensor_t>:
   0:	00058713          	mv	x14,x11
   4:	0045a683          	lw	x13,4(x11)
   8:	00072803          	lw	x16,0(x14)
   c:	0105a583          	lw	x11,16(x11)
  10:	00050793          	mv	x15,x10
  14:	02850613          	addi	x12,x10,40
  18:	01450513          	addi	x10,x10,20
  1c:	0107a023          	sw	x16,0(x15) # 0 <_ZN8HBTensorIiLln1EEC1EP11hb_tensor_t>
  20:	00d7a223          	sw	x13,4(x15)
  24:	00a7a423          	sw	x10,8(x15)
  28:	00c7a623          	sw	x12,12(x15)
  2c:	00b7a823          	sw	x11,16(x15)
  30:	00060613          	mv	x12,x12
  34:	00500293          	li	x5,5
  38:	04d2e463          	bltu	x5,x13,80 <.L27>
  3c:	00872303          	lw	x6,8(x14)
  40:	00c72383          	lw	x7,12(x14)
  44:	02068c63          	beqz	x13,7c <.L15>
  48:	00269893          	slli	x17,x13,0x2
  4c:	00078713          	mv	x14,x15
  50:	01178e33          	add	x28,x15,x17
  54:	40f30eb3          	sub	x29,x6,x15
  58:	40f38f33          	sub	x30,x7,x15

0000005c <.L19>:
  5c:	00ee8fb3          	add	x31,x29,x14
  60:	000fa683          	lw	x13,0(x31)
  64:	00ef05b3          	add	x11,x30,x14
  68:	00470713          	addi	x14,x14,4
  6c:	00d72823          	sw	x13,16(x14)
  70:	0005a803          	lw	x16,0(x11)
  74:	03072223          	sw	x16,36(x14)
  78:	ffc712e3          	bne	x14,x28,5c <.L19>

0000007c <.L15>:
  7c:	00008067          	ret

00000080 <.L27>:
  80:	ff010113          	addi	x2,x2,-16
  84:	000007b7          	lui	x15,0x0
  88:	00112623          	sw	x1,12(x2)
  8c:	000000b7          	lui	x1,0x0
  90:	0d800613          	li	x12,216
  94:	00008593          	mv	x11,x1
  98:	00078513          	mv	x10,x15
  9c:	00000097          	auipc	x1,0x0
  a0:	000080e7          	jalr	x1 # 9c <.L27+0x1c>
  a4:	00000637          	lui	x12,0x0
  a8:	00060513          	mv	x10,x12
  ac:	00000097          	auipc	x1,0x0
  b0:	000080e7          	jalr	x1 # ac <.L27+0x2c>
  b4:	00000537          	lui	x10,0x0
  b8:	00052283          	lw	x5,0(x10) # 0 <_ZN8HBTensorIiLln1EEC1EP11hb_tensor_t>
  bc:	00000337          	lui	x6,0x0
  c0:	00032383          	lw	x7,0(x6) # 0 <_ZN8HBTensorIiLln1EEC1EP11hb_tensor_t>
  c4:	01029893          	slli	x17,x5,0x10
  c8:	4100feb7          	lui	x29,0x4100f
  cc:	00788e33          	add	x28,x17,x7
  d0:	adceac23          	sw	x28,-1320(x29) # 4100ead8 <.L213+0x4100d8dc>

000000d4 <.L17>:
  d4:	0000006f          	j	d4 <.L17>

Disassembly of section .srodata.cst4:

00000000 <.LC7>:
   0:	0000                	unimp
   2:	3f80                	fld	f8,56(x15)
