
kernel_pooling.o:     file format elf32-littleriscv


Disassembly of section .group:

00000000 <_ZN8HBTensorIfLln1EEC5EP11hb_tensor_t>:
   0:	0001                	nop
   2:	0000                	unimp
   4:	0008                	0x8
   6:	0000                	unimp
   8:	0009                	c.nop	2
	...

Disassembly of section .group:

00000000 <_ZN8HBTensorIiLln1EEC5EP11hb_tensor_t>:
   0:	0001                	nop
   2:	0000                	unimp
   4:	000a                	c.slli	x0,0x2
   6:	0000                	unimp
   8:	0000000b          	0xb

Disassembly of section .text:

00000000 <_Z21hb_tiled_foreach_implIfZ29tensorlib_max_pool2d_backwardEUlvE_JEEvjjT0_8HBTensorIT_Lln1EEPS3_.isra.0>:
       0:	00100813          	li	x16,1
       4:	07060463          	beq	x12,x16,6c <.L75>
       8:	04b57c63          	bgeu	x10,x11,60 <.L1>
       c:	00261293          	slli	x5,x12,0x2
      10:	005703b3          	add	x7,x14,x5

00000014 <.L8>:
      14:	04060863          	beqz	x12,64 <.L9>
      18:	00068e13          	mv	x28,x13
      1c:	00070813          	mv	x16,x14
      20:	00050313          	mv	x6,x10
      24:	00000f13          	li	x30,0

00000028 <.L7>:
      28:	00082e83          	lw	x29,0(x16)
      2c:	000e2f83          	lw	x31,0(x28)
      30:	00480813          	addi	x16,x16,4
      34:	03d378b3          	remu	x17,x6,x29
      38:	004e0e13          	addi	x28,x28,4
      3c:	03f882b3          	mul	x5,x17,x31
      40:	03d35333          	divu	x6,x6,x29
      44:	005f0f33          	add	x30,x30,x5
      48:	ff0390e3          	bne	x7,x16,28 <.L7>
      4c:	002f1e93          	slli	x29,x30,0x2
      50:	01d78f33          	add	x30,x15,x29

00000054 <.L6>:
      54:	000f2023          	sw	x0,0(x30)
      58:	00150513          	addi	x10,x10,1
      5c:	faa59ce3          	bne	x11,x10,14 <.L8>

00000060 <.L1>:
      60:	00008067          	ret

00000064 <.L9>:
      64:	00078f13          	mv	x30,x15
      68:	fedff06f          	j	54 <.L6>

0000006c <.L75>:
      6c:	feb57ae3          	bgeu	x10,x11,60 <.L1>
      70:	0006a703          	lw	x14,0(x13)
      74:	40a586b3          	sub	x13,x11,x10
      78:	00f6f393          	andi	x7,x13,15
      7c:	00271f93          	slli	x31,x14,0x2
      80:	03f50833          	mul	x16,x10,x31
      84:	010787b3          	add	x15,x15,x16
      88:	12038463          	beqz	x7,1b0 <.L4>
      8c:	10c38a63          	beq	x7,x12,1a0 <.L58>
      90:	00200613          	li	x12,2
      94:	10c38063          	beq	x7,x12,194 <.L59>
      98:	00300893          	li	x17,3
      9c:	0f138663          	beq	x7,x17,188 <.L60>
      a0:	00400e13          	li	x28,4
      a4:	0dc38c63          	beq	x7,x28,17c <.L61>
      a8:	00500293          	li	x5,5
      ac:	0c538263          	beq	x7,x5,170 <.L62>
      b0:	00600313          	li	x6,6
      b4:	0a638863          	beq	x7,x6,164 <.L63>
      b8:	00700f13          	li	x30,7
      bc:	09e38e63          	beq	x7,x30,158 <.L64>
      c0:	00800e93          	li	x29,8
      c4:	09d38463          	beq	x7,x29,14c <.L65>
      c8:	00900713          	li	x14,9
      cc:	06e38a63          	beq	x7,x14,140 <.L66>
      d0:	00a00693          	li	x13,10
      d4:	06d38063          	beq	x7,x13,134 <.L67>
      d8:	00b00813          	li	x16,11
      dc:	05038663          	beq	x7,x16,128 <.L68>
      e0:	00c00613          	li	x12,12
      e4:	02c38c63          	beq	x7,x12,11c <.L69>
      e8:	00d00893          	li	x17,13
      ec:	03138263          	beq	x7,x17,110 <.L70>
      f0:	00e00e13          	li	x28,14
      f4:	01c38863          	beq	x7,x28,104 <.L71>
      f8:	0007a023          	sw	x0,0(x15)
      fc:	00150513          	addi	x10,x10,1
     100:	01f787b3          	add	x15,x15,x31

00000104 <.L71>:
     104:	0007a023          	sw	x0,0(x15)
     108:	00150513          	addi	x10,x10,1
     10c:	01f787b3          	add	x15,x15,x31

00000110 <.L70>:
     110:	0007a023          	sw	x0,0(x15)
     114:	00150513          	addi	x10,x10,1
     118:	01f787b3          	add	x15,x15,x31

0000011c <.L69>:
     11c:	0007a023          	sw	x0,0(x15)
     120:	00150513          	addi	x10,x10,1
     124:	01f787b3          	add	x15,x15,x31

00000128 <.L68>:
     128:	0007a023          	sw	x0,0(x15)
     12c:	00150513          	addi	x10,x10,1
     130:	01f787b3          	add	x15,x15,x31

00000134 <.L67>:
     134:	0007a023          	sw	x0,0(x15)
     138:	00150513          	addi	x10,x10,1
     13c:	01f787b3          	add	x15,x15,x31

00000140 <.L66>:
     140:	0007a023          	sw	x0,0(x15)
     144:	00150513          	addi	x10,x10,1
     148:	01f787b3          	add	x15,x15,x31

0000014c <.L65>:
     14c:	0007a023          	sw	x0,0(x15)
     150:	00150513          	addi	x10,x10,1
     154:	01f787b3          	add	x15,x15,x31

00000158 <.L64>:
     158:	0007a023          	sw	x0,0(x15)
     15c:	00150513          	addi	x10,x10,1
     160:	01f787b3          	add	x15,x15,x31

00000164 <.L63>:
     164:	0007a023          	sw	x0,0(x15)
     168:	00150513          	addi	x10,x10,1
     16c:	01f787b3          	add	x15,x15,x31

00000170 <.L62>:
     170:	0007a023          	sw	x0,0(x15)
     174:	00150513          	addi	x10,x10,1
     178:	01f787b3          	add	x15,x15,x31

0000017c <.L61>:
     17c:	0007a023          	sw	x0,0(x15)
     180:	00150513          	addi	x10,x10,1
     184:	01f787b3          	add	x15,x15,x31

00000188 <.L60>:
     188:	0007a023          	sw	x0,0(x15)
     18c:	00150513          	addi	x10,x10,1
     190:	01f787b3          	add	x15,x15,x31

00000194 <.L59>:
     194:	0007a023          	sw	x0,0(x15)
     198:	00150513          	addi	x10,x10,1
     19c:	01f787b3          	add	x15,x15,x31

000001a0 <.L58>:
     1a0:	0007a023          	sw	x0,0(x15)
     1a4:	00150513          	addi	x10,x10,1
     1a8:	01f787b3          	add	x15,x15,x31
     1ac:	08a58863          	beq	x11,x10,23c <.L76>

000001b0 <.L4>:
     1b0:	0007a023          	sw	x0,0(x15)
     1b4:	01f783b3          	add	x7,x15,x31
     1b8:	0003a023          	sw	x0,0(x7)
     1bc:	01f382b3          	add	x5,x7,x31
     1c0:	0002a023          	sw	x0,0(x5)
     1c4:	01f28333          	add	x6,x5,x31
     1c8:	00032023          	sw	x0,0(x6)
     1cc:	01f30f33          	add	x30,x6,x31
     1d0:	000f2023          	sw	x0,0(x30)
     1d4:	01ff0eb3          	add	x29,x30,x31
     1d8:	000ea023          	sw	x0,0(x29)
     1dc:	01fe8733          	add	x14,x29,x31
     1e0:	00072023          	sw	x0,0(x14)
     1e4:	01f706b3          	add	x13,x14,x31
     1e8:	0006a023          	sw	x0,0(x13)
     1ec:	01f68833          	add	x16,x13,x31
     1f0:	00082023          	sw	x0,0(x16)
     1f4:	01f80633          	add	x12,x16,x31
     1f8:	00062023          	sw	x0,0(x12)
     1fc:	01f608b3          	add	x17,x12,x31
     200:	0008a023          	sw	x0,0(x17)
     204:	01f88e33          	add	x28,x17,x31
     208:	000e2023          	sw	x0,0(x28)
     20c:	01fe07b3          	add	x15,x28,x31
     210:	0007a023          	sw	x0,0(x15)
     214:	01f783b3          	add	x7,x15,x31
     218:	0003a023          	sw	x0,0(x7)
     21c:	01f382b3          	add	x5,x7,x31
     220:	01f28333          	add	x6,x5,x31
     224:	0002a023          	sw	x0,0(x5)
     228:	00032023          	sw	x0,0(x6)
     22c:	01050513          	addi	x10,x10,16
     230:	01f307b3          	add	x15,x6,x31
     234:	f6a59ee3          	bne	x11,x10,1b0 <.L4>
     238:	00008067          	ret

0000023c <.L76>:
     23c:	00008067          	ret

00000240 <tensorlib_max_pool2d>:
     240:	ec010113          	addi	x2,x2,-320
     244:	00050313          	mv	x6,x10
     248:	13412423          	sw	x20,296(x2)
     24c:	04c10513          	addi	x10,x2,76
     250:	00058a13          	mv	x20,x11
     254:	00030593          	mv	x11,x6
     258:	12112e23          	sw	x1,316(x2)
     25c:	12812c23          	sw	x8,312(x2)
     260:	12912a23          	sw	x9,308(x2)
     264:	00088413          	mv	x8,x17
     268:	00060493          	mv	x9,x12
     26c:	13212823          	sw	x18,304(x2)
     270:	13312623          	sw	x19,300(x2)
     274:	00080913          	mv	x18,x16
     278:	00070993          	mv	x19,x14
     27c:	13512223          	sw	x21,292(x2)
     280:	13612023          	sw	x22,288(x2)
     284:	00078a93          	mv	x21,x15
     288:	00068b13          	mv	x22,x13
     28c:	11712e23          	sw	x23,284(x2)
     290:	11812c23          	sw	x24,280(x2)
     294:	11912a23          	sw	x25,276(x2)
     298:	11a12823          	sw	x26,272(x2)
     29c:	11b12623          	sw	x27,268(x2)
     2a0:	00000097          	auipc	x1,0x0
     2a4:	000080e7          	jalr	x1 # 2a0 <tensorlib_max_pool2d+0x60>
     2a8:	000a0593          	mv	x11,x20
     2ac:	08810513          	addi	x10,x2,136
     2b0:	00000097          	auipc	x1,0x0
     2b4:	000080e7          	jalr	x1 # 2b0 <tensorlib_max_pool2d+0x70>
     2b8:	00048593          	mv	x11,x9
     2bc:	0c410513          	addi	x10,x2,196
     2c0:	00000097          	auipc	x1,0x0
     2c4:	000080e7          	jalr	x1 # 2c0 <tensorlib_max_pool2d+0x80>
     2c8:	05012783          	lw	x15,80(x2)
     2cc:	44078663          	beqz	x15,718 <.L159>
     2d0:	00100713          	li	x14,1
     2d4:	3ef77863          	bgeu	x14,x15,6c4 <.L160>
     2d8:	00200093          	li	x1,2
     2dc:	4e178263          	beq	x15,x1,7c0 <.L161>
     2e0:	00300693          	li	x13,3
     2e4:	52d78863          	beq	x15,x13,814 <.L162>
     2e8:	08c12283          	lw	x5,140(x2)
     2ec:	4850f063          	bgeu	x1,x5,76c <.L163>
     2f0:	6ed28c63          	beq	x5,x13,9e8 <.L164>
     2f4:	05812383          	lw	x7,88(x2)
     2f8:	00000637          	lui	x12,0x0
     2fc:	00000f37          	lui	x30,0x0
     300:	0003a503          	lw	x10,0(x7)
     304:	0043a583          	lw	x11,4(x7)
     308:	0083a803          	lw	x16,8(x7)
     30c:	00c3aa03          	lw	x20,12(x7)
     310:	02b508b3          	mul	x17,x10,x11
     314:	00000db7          	lui	x27,0x0
     318:	00062b83          	lw	x23,0(x12) # 0 <_Z21hb_tiled_foreach_implIfZ29tensorlib_max_pool2d_backwardEUlvE_JEEvjjT0_8HBTensorIT_Lln1EEPS3_.isra.0>
     31c:	000f2f83          	lw	x31,0(x30) # 0 <_Z21hb_tiled_foreach_implIfZ29tensorlib_max_pool2d_backwardEUlvE_JEEvjjT0_8HBTensorIT_Lln1EEPS3_.isra.0>
     320:	000dac03          	lw	x24,0(x27) # 0 <_Z21hb_tiled_foreach_implIfZ29tensorlib_max_pool2d_backwardEUlvE_JEEvjjT0_8HBTensorIT_Lln1EEPS3_.isra.0>
     324:	00000cb7          	lui	x25,0x0
     328:	000cad03          	lw	x26,0(x25) # 0 <_Z21hb_tiled_foreach_implIfZ29tensorlib_max_pool2d_backwardEUlvE_JEEvjjT0_8HBTensorIT_Lln1EEPS3_.isra.0>
     32c:	00000e37          	lui	x28,0x0
     330:	000e2e83          	lw	x29,0(x28) # 0 <_Z21hb_tiled_foreach_implIfZ29tensorlib_max_pool2d_backwardEUlvE_JEEvjjT0_8HBTensorIT_Lln1EEPS3_.isra.0>
     334:	00040637          	lui	x12,0x40
     338:	030884b3          	mul	x9,x17,x16
     33c:	018b8333          	add	x6,x23,x24
     340:	01012423          	sw	x16,8(x2)
     344:	ff060b93          	addi	x23,x12,-16 # 3fff0 <.L232+0x3eb8c>
     348:	004f9813          	slli	x16,x31,0x4
     34c:	01787c33          	and	x24,x16,x23
     350:	000b2b83          	lw	x23,0(x22)
     354:	000aab03          	lw	x22,0(x21)
     358:	00092a83          	lw	x21,0(x18)
     35c:	00042903          	lw	x18,0(x8)
     360:	03448cb3          	mul	x25,x9,x20
     364:	14012403          	lw	x8,320(x2)
     368:	01dd0733          	add	x14,x26,x29
     36c:	01271093          	slli	x1,x14,0x12
     370:	01831793          	slli	x15,x6,0x18
     374:	3f0006b7          	lui	x13,0x3f000
     378:	00fc03b7          	lui	x7,0xfc0
     37c:	00042f03          	lw	x30,0(x8)
     380:	00a12623          	sw	x10,12(x2)
     384:	00d7f2b3          	and	x5,x15,x13
     388:	0070f533          	and	x10,x1,x7
     38c:	00b12223          	sw	x11,4(x2)
     390:	00a2e8b3          	or	x17,x5,x10
     394:	09412583          	lw	x11,148(x2)
     398:	0188ed33          	or	x26,x17,x24
     39c:	80000e37          	lui	x28,0x80000
     3a0:	01cd6eb3          	or	x29,x26,x28
     3a4:	03612823          	sw	x22,48(x2)
     3a8:	03512a23          	sw	x21,52(x2)
     3ac:	03212c23          	sw	x18,56(x2)
     3b0:	03e12e23          	sw	x30,60(x2)
     3b4:	41001337          	lui	x6,0x41001
     3b8:	0085a083          	lw	x1,8(x11)
     3bc:	00c5a483          	lw	x9,12(x11)
     3c0:	0009a983          	lw	x19,0(x19)
     3c4:	fffc8f93          	addi	x31,x25,-1
     3c8:	d1d32623          	sw	x29,-756(x6) # 41000d0c <.L232+0x40fff8a8>
     3cc:	ffd00713          	li	x14,-3
     3d0:	1ff76463          	bltu	x14,x31,5b8 <.L120>
     3d4:	000007b7          	lui	x15,0x0
     3d8:	0007a683          	lw	x13,0(x15) # 0 <_Z21hb_tiled_foreach_implIfZ29tensorlib_max_pool2d_backwardEUlvE_JEEvjjT0_8HBTensorIT_Lln1EEPS3_.isra.0>
     3dc:	007cd293          	srli	x5,x25,0x7
     3e0:	00128393          	addi	x7,x5,1
     3e4:	07f6f513          	andi	x10,x13,127
     3e8:	027508b3          	mul	x17,x10,x7
     3ec:	01138833          	add	x16,x7,x17
     3f0:	01012823          	sw	x16,16(x2)
     3f4:	550ce663          	bltu	x25,x16,940 <.L165>

000003f8 <.L119>:
     3f8:	01012c83          	lw	x25,16(x2)
     3fc:	1b98fe63          	bgeu	x17,x25,5b8 <.L120>
     400:	00812c03          	lw	x24,8(x2)
     404:	00412583          	lw	x11,4(x2)
     408:	05412d03          	lw	x26,84(x2)
     40c:	034c0fb3          	mul	x31,x24,x20
     410:	05c12603          	lw	x12,92(x2)
     414:	000d2e83          	lw	x29,0(x26)
     418:	004d2b03          	lw	x22,4(x26)
     41c:	00cd2a83          	lw	x21,12(x26)
     420:	008d2903          	lw	x18,8(x26)
     424:	00000f37          	lui	x30,0x0
     428:	03d12023          	sw	x29,32(x2)
     42c:	09812d03          	lw	x26,152(x2)
     430:	09012e83          	lw	x29,144(x2)
     434:	03858e33          	mul	x28,x11,x24
     438:	0d412c83          	lw	x25,212(x2)
     43c:	000f2687          	flw	f13,0(x30) # 0 <_Z21hb_tiled_foreach_implIfZ29tensorlib_max_pool2d_backwardEUlvE_JEEvjjT0_8HBTensorIT_Lln1EEPS3_.isra.0>
     440:	00c12e23          	sw	x12,28(x2)
     444:	03612223          	sw	x22,36(x2)
     448:	03512423          	sw	x21,40(x2)
     44c:	03212623          	sw	x18,44(x2)
     450:	01f12c23          	sw	x31,24(x2)
     454:	034e0433          	mul	x8,x28,x20
     458:	0cc12e03          	lw	x28,204(x2)
     45c:	00812a23          	sw	x8,20(x2)

00000460 <.L122>:
     460:	01412303          	lw	x6,20(x2)
     464:	01812783          	lw	x15,24(x2)
     468:	0348d2b3          	divu	x5,x17,x20
     46c:	00c12383          	lw	x7,12(x2)
     470:	00412503          	lw	x10,4(x2)
     474:	00812803          	lw	x16,8(x2)
     478:	02012603          	lw	x12,32(x2)
     47c:	02412a83          	lw	x21,36(x2)
     480:	02812f03          	lw	x30,40(x2)
     484:	0268d733          	divu	x14,x17,x6
     488:	02f8d6b3          	divu	x13,x17,x15
     48c:	027775b3          	remu	x11,x14,x7
     490:	02c12703          	lw	x14,44(x2)
     494:	02a6fc33          	remu	x24,x13,x10
     498:	0348f433          	remu	x8,x17,x20
     49c:	0302f533          	remu	x10,x5,x16
     4a0:	01c12803          	lw	x16,28(x2)
     4a4:	02c58b33          	mul	x22,x11,x12
     4a8:	035c0933          	mul	x18,x24,x21
     4ac:	03e40fb3          	mul	x31,x8,x30
     4b0:	012b0333          	add	x6,x22,x18
     4b4:	02e506b3          	mul	x13,x10,x14
     4b8:	01f307b3          	add	x15,x6,x31
     4bc:	00d782b3          	add	x5,x15,x13
     4c0:	00229393          	slli	x7,x5,0x2
     4c4:	00780733          	add	x14,x16,x7
     4c8:	00d72027          	fsw	f13,0(x14)
     4cc:	0e0b8063          	beqz	x23,5ac <.L124>
     4d0:	03012603          	lw	x12,48(x2)
     4d4:	03412a83          	lw	x21,52(x2)
     4d8:	03812f03          	lw	x30,56(x2)
     4dc:	02a60b33          	mul	x22,x12,x10
     4e0:	03c12f83          	lw	x31,60(x2)
     4e4:	028a8933          	mul	x18,x21,x8
     4e8:	41eb06b3          	sub	x13,x22,x30
     4ec:	01768833          	add	x16,x13,x23
     4f0:	02d483b3          	mul	x7,x9,x13
     4f4:	41f90333          	sub	x6,x18,x31
     4f8:	01330b33          	add	x22,x6,x19

000004fc <.L125>:
     4fc:	00030613          	mv	x12,x6
     500:	0a098063          	beqz	x19,5a0 <.L128>

00000504 <.L129>:
     504:	0806ca63          	bltz	x13,598 <.L126>
     508:	0816f863          	bgeu	x13,x1,598 <.L126>
     50c:	08064663          	bltz	x12,598 <.L126>
     510:	08967463          	bgeu	x12,x9,598 <.L126>
     514:	000ea783          	lw	x15,0(x29)
     518:	004eaa83          	lw	x21,4(x29)
     51c:	008ea283          	lw	x5,8(x29)
     520:	02f58fb3          	mul	x31,x11,x15
     524:	00072707          	flw	f14,0(x14)
     528:	00c38933          	add	x18,x7,x12
     52c:	035c07b3          	mul	x15,x24,x21
     530:	02568f33          	mul	x30,x13,x5
     534:	00cea283          	lw	x5,12(x29)
     538:	00ff8ab3          	add	x21,x31,x15
     53c:	02560fb3          	mul	x31,x12,x5
     540:	01ea87b3          	add	x15,x21,x30
     544:	01f78f33          	add	x30,x15,x31
     548:	002f1a93          	slli	x21,x30,0x2
     54c:	015d02b3          	add	x5,x26,x21
     550:	0002a787          	flw	f15,0(x5)
     554:	a0f71fd3          	flt.s	x31,f14,f15
     558:	040f8063          	beqz	x31,598 <.L126>
     55c:	000e2a83          	lw	x21,0(x28) # 80000000 <.L232+0x7fffeb9c>
     560:	004e2783          	lw	x15,4(x28)
     564:	00ce2f83          	lw	x31,12(x28)
     568:	008e2f03          	lw	x30,8(x28)
     56c:	035582b3          	mul	x5,x11,x21
     570:	00f72027          	fsw	f15,0(x14)
     574:	02fc0ab3          	mul	x21,x24,x15
     578:	03f40fb3          	mul	x31,x8,x31
     57c:	015287b3          	add	x15,x5,x21
     580:	03e50f33          	mul	x30,x10,x30
     584:	01f782b3          	add	x5,x15,x31
     588:	01e28ab3          	add	x21,x5,x30
     58c:	002a9f93          	slli	x31,x21,0x2
     590:	01fc87b3          	add	x15,x25,x31
     594:	0127a023          	sw	x18,0(x15)

00000598 <.L126>:
     598:	00160613          	addi	x12,x12,1
     59c:	f76614e3          	bne	x12,x22,504 <.L129>

000005a0 <.L128>:
     5a0:	00168693          	addi	x13,x13,1 # 3f000001 <.L232+0x3effeb9d>
     5a4:	009383b3          	add	x7,x7,x9
     5a8:	f4d81ae3          	bne	x16,x13,4fc <.L125>

000005ac <.L124>:
     5ac:	01012583          	lw	x11,16(x2)
     5b0:	00188893          	addi	x17,x17,1
     5b4:	eb1596e3          	bne	x11,x17,460 <.L122>

000005b8 <.L120>:
     5b8:	00000eb7          	lui	x29,0x0
     5bc:	00000a37          	lui	x20,0x0
     5c0:	00000bb7          	lui	x23,0x0
     5c4:	000a2083          	lw	x1,0(x20) # 0 <_Z21hb_tiled_foreach_implIfZ29tensorlib_max_pool2d_backwardEUlvE_JEEvjjT0_8HBTensorIT_Lln1EEPS3_.isra.0>
     5c8:	000ba983          	lw	x19,0(x23) # 0 <_Z21hb_tiled_foreach_implIfZ29tensorlib_max_pool2d_backwardEUlvE_JEEvjjT0_8HBTensorIT_Lln1EEPS3_.isra.0>
     5cc:	000ead03          	lw	x26,0(x29) # 0 <_Z21hb_tiled_foreach_implIfZ29tensorlib_max_pool2d_backwardEUlvE_JEEvjjT0_8HBTensorIT_Lln1EEPS3_.isra.0>
     5d0:	000da483          	lw	x9,0(x27)
     5d4:	00000e37          	lui	x28,0x0
     5d8:	000e2c83          	lw	x25,0(x28) # 0 <_Z21hb_tiled_foreach_implIfZ29tensorlib_max_pool2d_backwardEUlvE_JEEvjjT0_8HBTensorIT_Lln1EEPS3_.isra.0>
     5dc:	00908c33          	add	x24,x1,x9
     5e0:	01a98433          	add	x8,x19,x26
     5e4:	018c1513          	slli	x10,x24,0x18
     5e8:	01241713          	slli	x14,x8,0x12
     5ec:	3f000837          	lui	x16,0x3f000
     5f0:	00fc0b37          	lui	x22,0xfc0
     5f4:	00040ab7          	lui	x21,0x40
     5f8:	004c9f13          	slli	x30,x25,0x4
     5fc:	01057333          	and	x6,x10,x16
     600:	01677933          	and	x18,x14,x22
     604:	ff0a8f93          	addi	x31,x21,-16 # 3fff0 <.L232+0x3eb8c>
     608:	012362b3          	or	x5,x6,x18
     60c:	01ff77b3          	and	x15,x30,x31
     610:	00f2e633          	or	x12,x5,x15
     614:	c00006b7          	lui	x13,0xc0000
     618:	00d663b3          	or	x7,x12,x13
     61c:	410018b7          	lui	x17,0x41001
     620:	d078a623          	sw	x7,-756(x17) # 41000d0c <.L232+0x40fff8a8>
     624:	000ea583          	lw	x11,0(x29)
     628:	000daa03          	lw	x20,0(x27)
     62c:	00000637          	lui	x12,0x0
     630:	00458093          	addi	x1,x11,4
     634:	00060693          	mv	x13,x12
     638:	001684b3          	add	x9,x13,x1
     63c:	018a1b93          	slli	x23,x20,0x18
     640:	0174e9b3          	or	x19,x9,x23
     644:	201c0d37          	lui	x26,0x201c0
     648:	01a9ee33          	or	x28,x19,x26
     64c:	00100c93          	li	x25,1
     650:	019e0023          	sb	x25,0(x28)
     654:	000eae83          	lw	x29,0(x29)
     658:	00700c13          	li	x24,7
     65c:	218e8663          	beq	x29,x24,868 <.L166>

00000660 <.L130>:
     660:	00100d93          	li	x27,1
     664:	0100006f          	j	674 <.L143>

00000668 <.L167>:
     668:	00060793          	mv	x15,x12
     66c:	1407a72f          	lr.w.aq	x14,(x15)
     670:	01b70863          	beq	x14,x27,680 <.L142>

00000674 <.L143>:
     674:	00060a93          	mv	x21,x12
     678:	100aafaf          	lr.w	x31,(x21)
     67c:	ffbf96e3          	bne	x31,x27,668 <.L167>

00000680 <.L142>:
     680:	13c12083          	lw	x1,316(x2)
     684:	13812403          	lw	x8,312(x2)
     688:	0006a023          	sw	x0,0(x13) # c0000000 <.L232+0xbfffeb9c>
     68c:	13412483          	lw	x9,308(x2)
     690:	13012903          	lw	x18,304(x2)
     694:	12c12983          	lw	x19,300(x2)
     698:	12812a03          	lw	x20,296(x2)
     69c:	12412a83          	lw	x21,292(x2)
     6a0:	12012b03          	lw	x22,288(x2)
     6a4:	11c12b83          	lw	x23,284(x2)
     6a8:	11812c03          	lw	x24,280(x2)
     6ac:	11412c83          	lw	x25,276(x2)
     6b0:	11012d03          	lw	x26,272(x2)
     6b4:	10c12d83          	lw	x27,268(x2)
     6b8:	00000513          	li	x10,0
     6bc:	14010113          	addi	x2,x2,320
     6c0:	00008067          	ret

000006c4 <.L160>:
     6c4:	000000b7          	lui	x1,0x0
     6c8:	00000cb7          	lui	x25,0x0
     6cc:	00008593          	mv	x11,x1
     6d0:	06f00613          	li	x12,111
     6d4:	000c8513          	mv	x10,x25
     6d8:	00000097          	auipc	x1,0x0
     6dc:	000080e7          	jalr	x1 # 6d8 <.L160+0x14>
     6e0:	05012583          	lw	x11,80(x2)
     6e4:	00000eb7          	lui	x29,0x0
     6e8:	000e8513          	mv	x10,x29
     6ec:	00000c37          	lui	x24,0x0
     6f0:	00000097          	auipc	x1,0x0
     6f4:	000080e7          	jalr	x1 # 6f0 <.L160+0x2c>
     6f8:	00000937          	lui	x18,0x0
     6fc:	000c2403          	lw	x8,0(x24) # 0 <_Z21hb_tiled_foreach_implIfZ29tensorlib_max_pool2d_backwardEUlvE_JEEvjjT0_8HBTensorIT_Lln1EEPS3_.isra.0>
     700:	00092303          	lw	x6,0(x18) # 0 <_Z21hb_tiled_foreach_implIfZ29tensorlib_max_pool2d_backwardEUlvE_JEEvjjT0_8HBTensorIT_Lln1EEPS3_.isra.0>
     704:	4100f2b7          	lui	x5,0x4100f
     708:	01041f13          	slli	x30,x8,0x10
     70c:	006f0833          	add	x16,x30,x6
     710:	ad02ac23          	sw	x16,-1320(x5) # 4100ead8 <.L232+0x4100d674>

00000714 <.L107>:
     714:	0000006f          	j	714 <.L107>

00000718 <.L159>:
     718:	00000537          	lui	x10,0x0
     71c:	00000db7          	lui	x27,0x0
     720:	00050593          	mv	x11,x10
     724:	06f00613          	li	x12,111
     728:	000d8513          	mv	x10,x27
     72c:	00000097          	auipc	x1,0x0
     730:	000080e7          	jalr	x1 # 72c <.L159+0x14>
     734:	05012583          	lw	x11,80(x2)
     738:	00000ab7          	lui	x21,0x0
     73c:	000a8513          	mv	x10,x21
     740:	00000097          	auipc	x1,0x0
     744:	000080e7          	jalr	x1 # 740 <.L159+0x28>
     748:	00000fb7          	lui	x31,0x0
     74c:	000fa783          	lw	x15,0(x31) # 0 <_Z21hb_tiled_foreach_implIfZ29tensorlib_max_pool2d_backwardEUlvE_JEEvjjT0_8HBTensorIT_Lln1EEPS3_.isra.0>
     750:	00000737          	lui	x14,0x0
     754:	00072683          	lw	x13,0(x14) # 0 <_Z21hb_tiled_foreach_implIfZ29tensorlib_max_pool2d_backwardEUlvE_JEEvjjT0_8HBTensorIT_Lln1EEPS3_.isra.0>
     758:	01079393          	slli	x7,x15,0x10
     75c:	4100f8b7          	lui	x17,0x4100f
     760:	00d38b33          	add	x22,x7,x13
     764:	ad68ac23          	sw	x22,-1320(x17) # 4100ead8 <.L232+0x4100d674>

00000768 <.L105>:
     768:	0000006f          	j	768 <.L105>

0000076c <.L163>:
     76c:	000000b7          	lui	x1,0x0
     770:	00000d37          	lui	x26,0x0
     774:	00008593          	mv	x11,x1
     778:	06f00613          	li	x12,111
     77c:	000d0513          	mv	x10,x26
     780:	00000097          	auipc	x1,0x0
     784:	000080e7          	jalr	x1 # 780 <.L163+0x14>
     788:	08c12583          	lw	x11,140(x2)
     78c:	00000e37          	lui	x28,0x0
     790:	000e0513          	mv	x10,x28
     794:	00000097          	auipc	x1,0x0
     798:	000080e7          	jalr	x1 # 794 <.L163+0x28>
     79c:	00000cb7          	lui	x25,0x0
     7a0:	000cae83          	lw	x29,0(x25) # 0 <_Z21hb_tiled_foreach_implIfZ29tensorlib_max_pool2d_backwardEUlvE_JEEvjjT0_8HBTensorIT_Lln1EEPS3_.isra.0>
     7a4:	00000c37          	lui	x24,0x0
     7a8:	000c2403          	lw	x8,0(x24) # 0 <_Z21hb_tiled_foreach_implIfZ29tensorlib_max_pool2d_backwardEUlvE_JEEvjjT0_8HBTensorIT_Lln1EEPS3_.isra.0>
     7ac:	010e9913          	slli	x18,x29,0x10
     7b0:	4100ff37          	lui	x30,0x4100f
     7b4:	00890333          	add	x6,x18,x8
     7b8:	ac6f2c23          	sw	x6,-1320(x30) # 4100ead8 <.L232+0x4100d674>

000007bc <.L113>:
     7bc:	0000006f          	j	7bc <.L113>

000007c0 <.L161>:
     7c0:	000008b7          	lui	x17,0x0
     7c4:	00000b37          	lui	x22,0x0
     7c8:	06f00613          	li	x12,111
     7cc:	000b0593          	mv	x11,x22
     7d0:	00088513          	mv	x10,x17
     7d4:	00000097          	auipc	x1,0x0
     7d8:	000080e7          	jalr	x1 # 7d4 <.L161+0x14>
     7dc:	05012583          	lw	x11,80(x2)
     7e0:	00000637          	lui	x12,0x0
     7e4:	00060513          	mv	x10,x12
     7e8:	00000097          	auipc	x1,0x0
     7ec:	000080e7          	jalr	x1 # 7e8 <.L161+0x28>
     7f0:	000005b7          	lui	x11,0x0
     7f4:	0005aa03          	lw	x20,0(x11) # 0 <_Z21hb_tiled_foreach_implIfZ29tensorlib_max_pool2d_backwardEUlvE_JEEvjjT0_8HBTensorIT_Lln1EEPS3_.isra.0>
     7f8:	000004b7          	lui	x9,0x0
     7fc:	0004ab83          	lw	x23,0(x9) # 0 <_Z21hb_tiled_foreach_implIfZ29tensorlib_max_pool2d_backwardEUlvE_JEEvjjT0_8HBTensorIT_Lln1EEPS3_.isra.0>
     800:	010a1993          	slli	x19,x20,0x10
     804:	4100fe37          	lui	x28,0x4100f
     808:	01798d33          	add	x26,x19,x23
     80c:	adae2c23          	sw	x26,-1320(x28) # 4100ead8 <.L232+0x4100d674>

00000810 <.L109>:
     810:	0000006f          	j	810 <.L109>

00000814 <.L162>:
     814:	00000837          	lui	x16,0x0
     818:	000002b7          	lui	x5,0x0
     81c:	00080593          	mv	x11,x16
     820:	06f00613          	li	x12,111
     824:	00028513          	mv	x10,x5
     828:	00000097          	auipc	x1,0x0
     82c:	000080e7          	jalr	x1 # 828 <.L162+0x14>
     830:	05012583          	lw	x11,80(x2)
     834:	00000537          	lui	x10,0x0
     838:	00050513          	mv	x10,x10
     83c:	00000097          	auipc	x1,0x0
     840:	000080e7          	jalr	x1 # 83c <.L162+0x28>
     844:	00000db7          	lui	x27,0x0
     848:	000daa83          	lw	x21,0(x27) # 0 <_Z21hb_tiled_foreach_implIfZ29tensorlib_max_pool2d_backwardEUlvE_JEEvjjT0_8HBTensorIT_Lln1EEPS3_.isra.0>
     84c:	00000fb7          	lui	x31,0x0
     850:	000fa703          	lw	x14,0(x31) # 0 <_Z21hb_tiled_foreach_implIfZ29tensorlib_max_pool2d_backwardEUlvE_JEEvjjT0_8HBTensorIT_Lln1EEPS3_.isra.0>
     854:	010a9793          	slli	x15,x21,0x10
     858:	4100f3b7          	lui	x7,0x4100f
     85c:	00e786b3          	add	x13,x15,x14
     860:	acd3ac23          	sw	x13,-1320(x7) # 4100ead8 <.L232+0x4100d674>

00000864 <.L111>:
     864:	0000006f          	j	864 <.L111>

00000868 <.L166>:
     868:	00000437          	lui	x8,0x0
     86c:	00000737          	lui	x14,0x0
     870:	00440513          	addi	x10,x8,4 # 4 <_Z21hb_tiled_foreach_implIfZ29tensorlib_max_pool2d_backwardEUlvE_JEEvjjT0_8HBTensorIT_Lln1EEPS3_.isra.0+0x4>
     874:	01470b13          	addi	x22,x14,20 # 14 <.L8>

00000878 <.L117>:
     878:	00050313          	mv	x6,x10

0000087c <.L132>:
     87c:	00034803          	lbu	x16,0(x6)
     880:	00130313          	addi	x6,x6,1
     884:	0ff87913          	andi	x18,x16,255
     888:	fe0908e3          	beqz	x18,878 <.L117>
     88c:	fe6b18e3          	bne	x22,x6,87c <.L132>
     890:	000daf03          	lw	x30,0(x27)
     894:	231c0fb7          	lui	x31,0x231c0
     898:	00100393          	li	x7,1
     89c:	018f0293          	addi	x5,x30,24
     8a0:	00568ab3          	add	x21,x13,x5
     8a4:	01fae7b3          	or	x15,x21,x31
     8a8:	00778023          	sb	x7,0(x15)
     8ac:	000008b7          	lui	x17,0x0
     8b0:	0008a583          	lw	x11,0(x17) # 0 <_Z21hb_tiled_foreach_implIfZ29tensorlib_max_pool2d_backwardEUlvE_JEEvjjT0_8HBTensorIT_Lln1EEPS3_.isra.0>
     8b4:	00700a13          	li	x20,7
     8b8:	db4594e3          	bne	x11,x20,660 <.L130>
     8bc:	000da083          	lw	x1,0(x27)
     8c0:	00300493          	li	x9,3
     8c4:	08908263          	beq	x1,x9,948 <.L168>

000008c8 <.L138>:
     8c8:	00100593          	li	x11,1
     8cc:	0100006f          	j	8dc <.L134>

000008d0 <.L169>:
     8d0:	01468493          	addi	x9,x13,20
     8d4:	1404abaf          	lr.w.aq	x23,(x9)
     8d8:	00bb8863          	beq	x23,x11,8e8 <.L139>

000008dc <.L134>:
     8dc:	01468a13          	addi	x20,x13,20
     8e0:	100a20af          	lr.w	x1,(x20)
     8e4:	feb096e3          	bne	x1,x11,8d0 <.L169>

000008e8 <.L139>:
     8e8:	0006aa23          	sw	x0,20(x13)
     8ec:	00000e13          	li	x28,0
     8f0:	01000993          	li	x19,16

000008f4 <.L140>:
     8f4:	01c68d33          	add	x26,x13,x28
     8f8:	000d0223          	sb	x0,4(x26) # 4 <_Z21hb_tiled_foreach_implIfZ29tensorlib_max_pool2d_backwardEUlvE_JEEvjjT0_8HBTensorIT_Lln1EEPS3_.isra.0+0x4>
     8fc:	001e0e13          	addi	x28,x28,1
     900:	ff3e1ae3          	bne	x28,x19,8f4 <.L140>
     904:	0006a023          	sw	x0,0(x13)
     908:	00000f13          	li	x30,0
     90c:	20000cb7          	lui	x25,0x20000
     910:	00100e93          	li	x29,1
     914:	00040c37          	lui	x24,0x40
     918:	00400437          	lui	x8,0x400

0000091c <.L141>:
     91c:	000da903          	lw	x18,0(x27)
     920:	01e6e333          	or	x6,x13,x30
     924:	018f0f33          	add	x30,x30,x24
     928:	01891813          	slli	x16,x18,0x18
     92c:	006862b3          	or	x5,x16,x6
     930:	0192e533          	or	x10,x5,x25
     934:	01d52023          	sw	x29,0(x10) # 0 <_Z21hb_tiled_foreach_implIfZ29tensorlib_max_pool2d_backwardEUlvE_JEEvjjT0_8HBTensorIT_Lln1EEPS3_.isra.0>
     938:	fe8f12e3          	bne	x30,x8,91c <.L141>
     93c:	d25ff06f          	j	660 <.L130>

00000940 <.L165>:
     940:	01912823          	sw	x25,16(x2)
     944:	ab5ff06f          	j	3f8 <.L119>

00000948 <.L168>:
     948:	00000bb7          	lui	x23,0x0
     94c:	00000d37          	lui	x26,0x0
     950:	018b8993          	addi	x19,x23,24 # 18 <.L8+0x4>
     954:	020d0e13          	addi	x28,x26,32 # 20 <.L8+0xc>

00000958 <.L133>:
     958:	00098e93          	mv	x29,x19

0000095c <.L135>:
     95c:	000ecc83          	lbu	x25,0(x29) # 0 <_Z21hb_tiled_foreach_implIfZ29tensorlib_max_pool2d_backwardEUlvE_JEEvjjT0_8HBTensorIT_Lln1EEPS3_.isra.0>
     960:	001e8e93          	addi	x29,x29,1
     964:	0ffcfc13          	andi	x24,x25,255
     968:	fe0c08e3          	beqz	x24,958 <.L133>
     96c:	ffde18e3          	bne	x28,x29,95c <.L135>
     970:	00068c23          	sb	x0,24(x13)
     974:	00068ca3          	sb	x0,25(x13)
     978:	00068d23          	sb	x0,26(x13)
     97c:	00068da3          	sb	x0,27(x13)
     980:	00068e23          	sb	x0,28(x13)
     984:	00068ea3          	sb	x0,29(x13)
     988:	00068f23          	sb	x0,30(x13)
     98c:	00068fa3          	sb	x0,31(x13)
     990:	0006aa23          	sw	x0,20(x13)
     994:	00000713          	li	x14,0
     998:	03fc0437          	lui	x8,0x3fc0
     99c:	20000937          	lui	x18,0x20000
     9a0:	00100313          	li	x6,1
     9a4:	01000f37          	lui	x30,0x1000
     9a8:	08000837          	lui	x16,0x8000
     9ac:	0080006f          	j	9b4 <.L137>

000009b0 <.L170>:
     9b0:	0003a583          	lw	x11,0(x7)

000009b4 <.L137>:
     9b4:	01259293          	slli	x5,x11,0x12
     9b8:	00eb6533          	or	x10,x22,x14
     9bc:	0082fab3          	and	x21,x5,x8
     9c0:	00aaefb3          	or	x31,x21,x10
     9c4:	012fe7b3          	or	x15,x31,x18
     9c8:	0067a023          	sw	x6,0(x15)
     9cc:	01e70733          	add	x14,x14,x30
     9d0:	000003b7          	lui	x7,0x0
     9d4:	fd071ee3          	bne	x14,x16,9b0 <.L170>
     9d8:	0003ab03          	lw	x22,0(x7) # 0 <_Z21hb_tiled_foreach_implIfZ29tensorlib_max_pool2d_backwardEUlvE_JEEvjjT0_8HBTensorIT_Lln1EEPS3_.isra.0>
     9dc:	00700893          	li	x17,7
     9e0:	ef1b04e3          	beq	x22,x17,8c8 <.L138>
     9e4:	c7dff06f          	j	660 <.L130>

000009e8 <.L164>:
     9e8:	000006b7          	lui	x13,0x0
     9ec:	000003b7          	lui	x7,0x0
     9f0:	00068593          	mv	x11,x13
     9f4:	06f00613          	li	x12,111
     9f8:	00038513          	mv	x10,x7
     9fc:	00000097          	auipc	x1,0x0
     a00:	000080e7          	jalr	x1 # 9fc <.L164+0x14>
     a04:	08c12583          	lw	x11,140(x2)
     a08:	00000637          	lui	x12,0x0
     a0c:	00060513          	mv	x10,x12
     a10:	00000097          	auipc	x1,0x0
     a14:	000080e7          	jalr	x1 # a10 <.L164+0x28>
     a18:	00000b37          	lui	x22,0x0
     a1c:	000b2883          	lw	x17,0(x22) # 0 <_Z21hb_tiled_foreach_implIfZ29tensorlib_max_pool2d_backwardEUlvE_JEEvjjT0_8HBTensorIT_Lln1EEPS3_.isra.0>
     a20:	000005b7          	lui	x11,0x0
     a24:	0005aa03          	lw	x20,0(x11) # 0 <_Z21hb_tiled_foreach_implIfZ29tensorlib_max_pool2d_backwardEUlvE_JEEvjjT0_8HBTensorIT_Lln1EEPS3_.isra.0>
     a28:	01089493          	slli	x9,x17,0x10
     a2c:	4100f9b7          	lui	x19,0x4100f
     a30:	01448bb3          	add	x23,x9,x20
     a34:	ad79ac23          	sw	x23,-1320(x19) # 4100ead8 <.L232+0x4100d674>

00000a38 <.L115>:
     a38:	0000006f          	j	a38 <.L115>

00000a3c <tensorlib_max_pool2d_backward>:
     a3c:	ec010113          	addi	x2,x2,-320
     a40:	13412423          	sw	x20,296(x2)
     a44:	00050a13          	mv	x20,x10
     a48:	04c10513          	addi	x10,x2,76
     a4c:	12112e23          	sw	x1,316(x2)
     a50:	12812c23          	sw	x8,312(x2)
     a54:	12912a23          	sw	x9,308(x2)
     a58:	00060413          	mv	x8,x12
     a5c:	00078493          	mv	x9,x15
     a60:	13212823          	sw	x18,304(x2)
     a64:	13312623          	sw	x19,300(x2)
     a68:	00080913          	mv	x18,x16
     a6c:	00088993          	mv	x19,x17
     a70:	13612023          	sw	x22,288(x2)
     a74:	13512223          	sw	x21,292(x2)
     a78:	00070b13          	mv	x22,x14
     a7c:	11712e23          	sw	x23,284(x2)
     a80:	11812c23          	sw	x24,280(x2)
     a84:	11912a23          	sw	x25,276(x2)
     a88:	11a12823          	sw	x26,272(x2)
     a8c:	11b12623          	sw	x27,268(x2)
     a90:	00000097          	auipc	x1,0x0
     a94:	000080e7          	jalr	x1 # a90 <tensorlib_max_pool2d_backward+0x54>
     a98:	000a0593          	mv	x11,x20
     a9c:	08810513          	addi	x10,x2,136
     aa0:	00000097          	auipc	x1,0x0
     aa4:	000080e7          	jalr	x1 # aa0 <tensorlib_max_pool2d_backward+0x64>
     aa8:	00040593          	mv	x11,x8
     aac:	0c410513          	addi	x10,x2,196
     ab0:	00000097          	auipc	x1,0x0
     ab4:	000080e7          	jalr	x1 # ab0 <tensorlib_max_pool2d_backward+0x74>
     ab8:	05012783          	lw	x15,80(x2)
     abc:	46078c63          	beqz	x15,f34 <.L256>
     ac0:	00100713          	li	x14,1
     ac4:	40f77e63          	bgeu	x14,x15,ee0 <.L257>
     ac8:	00200093          	li	x1,2
     acc:	50178863          	beq	x15,x1,fdc <.L258>
     ad0:	00300693          	li	x13,3
     ad4:	54d78e63          	beq	x15,x13,1030 <.L259>
     ad8:	08c12603          	lw	x12,140(x2)
     adc:	4ac0f663          	bgeu	x1,x12,f88 <.L260>
     ae0:	12d608e3          	beq	x12,x13,1410 <.L261>
     ae4:	000002b7          	lui	x5,0x0
     ae8:	000003b7          	lui	x7,0x0
     aec:	00000a37          	lui	x20,0x0
     af0:	00000ab7          	lui	x21,0x0
     af4:	0002a303          	lw	x6,0(x5) # 0 <_Z21hb_tiled_foreach_implIfZ29tensorlib_max_pool2d_backwardEUlvE_JEEvjjT0_8HBTensorIT_Lln1EEPS3_.isra.0>
     af8:	0003a803          	lw	x16,0(x7) # 0 <_Z21hb_tiled_foreach_implIfZ29tensorlib_max_pool2d_backwardEUlvE_JEEvjjT0_8HBTensorIT_Lln1EEPS3_.isra.0>
     afc:	000a2503          	lw	x10,0(x20) # 0 <_Z21hb_tiled_foreach_implIfZ29tensorlib_max_pool2d_backwardEUlvE_JEEvjjT0_8HBTensorIT_Lln1EEPS3_.isra.0>
     b00:	000aa883          	lw	x17,0(x21) # 0 <_Z21hb_tiled_foreach_implIfZ29tensorlib_max_pool2d_backwardEUlvE_JEEvjjT0_8HBTensorIT_Lln1EEPS3_.isra.0>
     b04:	3f000e37          	lui	x28,0x3f000
     b08:	00a30c33          	add	x24,x6,x10
     b0c:	01180cb3          	add	x25,x16,x17
     b10:	018c1d13          	slli	x26,x24,0x18
     b14:	012c9d93          	slli	x27,x25,0x12
     b18:	00fc0f37          	lui	x30,0xfc0
     b1c:	01cd7eb3          	and	x29,x26,x28
     b20:	01edffb3          	and	x31,x27,x30
     b24:	000005b7          	lui	x11,0x0
     b28:	05812083          	lw	x1,88(x2)
     b2c:	0005ab83          	lw	x23,0(x11) # 0 <_Z21hb_tiled_foreach_implIfZ29tensorlib_max_pool2d_backwardEUlvE_JEEvjjT0_8HBTensorIT_Lln1EEPS3_.isra.0>
     b30:	09412703          	lw	x14,148(x2)
     b34:	01fee7b3          	or	x15,x29,x31
     b38:	14012d83          	lw	x27,320(x2)
     b3c:	14412e83          	lw	x29,324(x2)
     b40:	000406b7          	lui	x13,0x40
     b44:	08812283          	lw	x5,136(x2)
     b48:	0000a583          	lw	x11,0(x1)
     b4c:	0080ac03          	lw	x24,8(x1)
     b50:	00c0ac83          	lw	x25,12(x1)
     b54:	00872d03          	lw	x26,8(x14)
     b58:	000b2b03          	lw	x22,0(x22)
     b5c:	000dae03          	lw	x28,0(x27)
     b60:	000eaf03          	lw	x30,0(x29)
     b64:	004b9413          	slli	x8,x23,0x4
     b68:	ff068313          	addi	x6,x13,-16 # 3fff0 <.L232+0x3eb8c>
     b6c:	0040ab83          	lw	x23,4(x1)
     b70:	00647533          	and	x10,x8,x6
     b74:	00a7e3b3          	or	x7,x15,x10
     b78:	80000837          	lui	x16,0x80000
     b7c:	00b12c23          	sw	x11,24(x2)
     b80:	01712823          	sw	x23,16(x2)
     b84:	01812223          	sw	x24,4(x2)
     b88:	01912423          	sw	x25,8(x2)
     b8c:	01a12a23          	sw	x26,20(x2)
     b90:	01612e23          	sw	x22,28(x2)
     b94:	03c12023          	sw	x28,32(x2)
     b98:	01e12023          	sw	x30,0(x2)
     b9c:	0103e8b3          	or	x17,x7,x16
     ba0:	410010b7          	lui	x1,0x41001
     ba4:	fff28f93          	addi	x31,x5,-1
     ba8:	ffd00313          	li	x6,-3
     bac:	00c72403          	lw	x8,12(x14)
     bb0:	0004a483          	lw	x9,0(x9)
     bb4:	00092903          	lw	x18,0(x18) # 20000000 <.L232+0x1fffeb9c>
     bb8:	0009a983          	lw	x19,0(x19)
     bbc:	09012683          	lw	x13,144(x2)
     bc0:	d110a623          	sw	x17,-756(x1) # 41000d0c <.L232+0x40fff8a8>
     bc4:	09812783          	lw	x15,152(x2)
     bc8:	09f36ee3          	bltu	x6,x31,1464 <.L232>
     bcc:	00000537          	lui	x10,0x0
     bd0:	00052383          	lw	x7,0(x10) # 0 <_Z21hb_tiled_foreach_implIfZ29tensorlib_max_pool2d_backwardEUlvE_JEEvjjT0_8HBTensorIT_Lln1EEPS3_.isra.0>
     bd4:	0072d813          	srli	x16,x5,0x7
     bd8:	00180893          	addi	x17,x16,1 # 80000001 <.L232+0x7fffeb9d>
     bdc:	07f3f593          	andi	x11,x7,127
     be0:	03158533          	mul	x10,x11,x17
     be4:	00a885b3          	add	x11,x17,x10
     be8:	64b2e863          	bltu	x5,x11,1238 <.L262>

00000bec <.L185>:
     bec:	06b57ce3          	bgeu	x10,x11,1464 <.L232>

00000bf0 <.L184>:
     bf0:	00000097          	auipc	x1,0x0
     bf4:	000080e7          	jalr	x1 # bf0 <.L184>
     bf8:	000aa603          	lw	x12,0(x21)
     bfc:	000a2703          	lw	x14,0(x20)
     c00:	00000fb7          	lui	x31,0x0
     c04:	00460293          	addi	x5,x12,4 # 4 <_Z21hb_tiled_foreach_implIfZ29tensorlib_max_pool2d_backwardEUlvE_JEEvjjT0_8HBTensorIT_Lln1EEPS3_.isra.0+0x4>
     c08:	000f8e13          	mv	x28,x31
     c0c:	01871693          	slli	x13,x14,0x18
     c10:	005e07b3          	add	x15,x28,x5
     c14:	00d7ebb3          	or	x23,x15,x13
     c18:	201c0c37          	lui	x24,0x201c0
     c1c:	018becb3          	or	x25,x23,x24
     c20:	00100d13          	li	x26,1
     c24:	01ac8023          	sb	x26,0(x25) # 20000000 <.L232+0x1fffeb9c>
     c28:	000aa703          	lw	x14,0(x21)
     c2c:	00700d93          	li	x27,7
     c30:	02e12e23          	sw	x14,60(x2)
     c34:	53b70263          	beq	x14,x27,1158 <.L263>

00000c38 <.L196>:
     c38:	00100b13          	li	x22,1
     c3c:	0100006f          	j	c4c <.L201>

00000c40 <.L264>:
     c40:	000f8f13          	mv	x30,x31
     c44:	140f20af          	lr.w.aq	x1,(x30)
     c48:	01608863          	beq	x1,x22,c58 <.L200>

00000c4c <.L201>:
     c4c:	000f8d93          	mv	x27,x31
     c50:	100daeaf          	lr.w	x29,(x27)
     c54:	ff6e96e3          	bne	x29,x22,c40 <.L264>

00000c58 <.L200>:
     c58:	01812303          	lw	x6,24(x2)
     c5c:	01012803          	lw	x16,16(x2)
     c60:	01412283          	lw	x5,20(x2)
     c64:	000e2023          	sw	x0,0(x28) # 3f000000 <.L232+0x3effeb9c>
     c68:	03030533          	mul	x10,x6,x16
     c6c:	ffd00593          	li	x11,-3
     c70:	025508b3          	mul	x17,x10,x5
     c74:	02888633          	mul	x12,x17,x8
     c78:	fff60b93          	addi	x23,x12,-1
     c7c:	1775e263          	bltu	x11,x23,de0 <.L206>
     c80:	000007b7          	lui	x15,0x0
     c84:	0007ac03          	lw	x24,0(x15) # 0 <_Z21hb_tiled_foreach_implIfZ29tensorlib_max_pool2d_backwardEUlvE_JEEvjjT0_8HBTensorIT_Lln1EEPS3_.isra.0>
     c88:	00765c93          	srli	x25,x12,0x7
     c8c:	001c8d13          	addi	x26,x25,1
     c90:	07fc7693          	andi	x13,x24,127
     c94:	03a688b3          	mul	x17,x13,x26
     c98:	011d0733          	add	x14,x26,x17
     c9c:	02e12223          	sw	x14,36(x2)
     ca0:	00e67463          	bgeu	x12,x14,ca8 <.L205>
     ca4:	02c12223          	sw	x12,36(x2)

00000ca8 <.L205>:
     ca8:	02412383          	lw	x7,36(x2)
     cac:	1278fa63          	bgeu	x17,x7,de0 <.L206>
     cb0:	01012b03          	lw	x22,16(x2)
     cb4:	01412d83          	lw	x27,20(x2)
     cb8:	02012503          	lw	x10,32(x2)
     cbc:	01c12583          	lw	x11,28(x2)
     cc0:	03bb0f33          	mul	x30,x22,x27
     cc4:	0d412083          	lw	x1,212(x2)
     cc8:	05c12303          	lw	x6,92(x2)
     ccc:	09812803          	lw	x16,152(x2)
     cd0:	0cc12e83          	lw	x29,204(x2)
     cd4:	05412b03          	lw	x22,84(x2)
     cd8:	09012383          	lw	x7,144(x2)
     cdc:	40b502b3          	sub	x5,x10,x11
     ce0:	00112623          	sw	x1,12(x2)
     ce4:	02612a23          	sw	x6,52(x2)
     ce8:	028f0633          	mul	x12,x30,x8
     cec:	03012c23          	sw	x16,56(x2)
     cf0:	02512823          	sw	x5,48(x2)
     cf4:	028d8bb3          	mul	x23,x27,x8
     cf8:	02c12423          	sw	x12,40(x2)
     cfc:	03712623          	sw	x23,44(x2)

00000d00 <.L208>:
     d00:	0288dc33          	divu	x24,x17,x8
     d04:	02812783          	lw	x15,40(x2)
     d08:	01412d03          	lw	x26,20(x2)
     d0c:	02c12683          	lw	x13,44(x2)
     d10:	02012d83          	lw	x27,32(x2)
     d14:	03012f03          	lw	x30,48(x2)
     d18:	01812303          	lw	x6,24(x2)
     d1c:	01012583          	lw	x11,16(x2)
     d20:	01c12b83          	lw	x23,28(x2)
     d24:	03ac70b3          	remu	x1,x24,x26
     d28:	02f8dcb3          	divu	x25,x17,x15
     d2c:	01b08833          	add	x16,x1,x27
     d30:	001f0633          	add	x12,x30,x1
     d34:	02d8d733          	divu	x14,x17,x13
     d38:	026cf533          	remu	x10,x25,x6
     d3c:	02b77db3          	remu	x27,x14,x11
     d40:	0288f2b3          	remu	x5,x17,x8
     d44:	080b8863          	beqz	x23,dd4 <.L210>

00000d48 <.L211>:
     d48:	08048263          	beqz	x9,dcc <.L213>
     d4c:	00012c03          	lw	x24,0(x2)
     d50:	005c06b3          	add	x13,x24,x5
     d54:	40968cb3          	sub	x25,x13,x9
     d58:	03287d33          	remu	x26,x16,x18

00000d5c <.L214>:
     d5c:	060d1463          	bnez	x26,dc4 <.L212>
     d60:	0336f7b3          	remu	x15,x13,x19
     d64:	06079063          	bnez	x15,dc4 <.L212>
     d68:	032855b3          	divu	x11,x16,x18
     d6c:	00412703          	lw	x14,4(x2)
     d70:	04e5fa63          	bgeu	x11,x14,dc4 <.L212>
     d74:	0336d333          	divu	x6,x13,x19
     d78:	00812f03          	lw	x30,8(x2)
     d7c:	05e37463          	bgeu	x6,x30,dc4 <.L212>
     d80:	004ea783          	lw	x15,4(x29)
     d84:	000eab83          	lw	x23,0(x29)
     d88:	008eac03          	lw	x24,8(x29)
     d8c:	02fd8733          	mul	x14,x27,x15
     d90:	03750bb3          	mul	x23,x10,x23
     d94:	03858f33          	mul	x30,x11,x24
     d98:	00ceac03          	lw	x24,12(x29)
     d9c:	00eb87b3          	add	x15,x23,x14
     da0:	03830bb3          	mul	x23,x6,x24
     da4:	01e78733          	add	x14,x15,x30
     da8:	00c12c03          	lw	x24,12(x2)
     dac:	01770f33          	add	x30,x14,x23
     db0:	002f1793          	slli	x15,x30,0x2
     db4:	00fc0bb3          	add	x23,x24,x15
     db8:	000ba703          	lw	x14,0(x23)
     dbc:	02875f33          	divu	x30,x14,x8
     dc0:	5de08263          	beq	x1,x30,1384 <.L265>

00000dc4 <.L212>:
     dc4:	fff68693          	addi	x13,x13,-1
     dc8:	f9969ae3          	bne	x13,x25,d5c <.L214>

00000dcc <.L213>:
     dcc:	fff80813          	addi	x16,x16,-1
     dd0:	f7061ce3          	bne	x12,x16,d48 <.L211>

00000dd4 <.L210>:
     dd4:	02412083          	lw	x1,36(x2)
     dd8:	00188893          	addi	x17,x17,1
     ddc:	f31092e3          	bne	x1,x17,d00 <.L208>

00000de0 <.L206>:
     de0:	00000437          	lui	x8,0x0
     de4:	00042483          	lw	x9,0(x8) # 0 <_Z21hb_tiled_foreach_implIfZ29tensorlib_max_pool2d_backwardEUlvE_JEEvjjT0_8HBTensorIT_Lln1EEPS3_.isra.0>
     de8:	03c12603          	lw	x12,60(x2)
     dec:	00000937          	lui	x18,0x0
     df0:	00000eb7          	lui	x29,0x0
     df4:	00092983          	lw	x19,0(x18) # 0 <_Z21hb_tiled_foreach_implIfZ29tensorlib_max_pool2d_backwardEUlvE_JEEvjjT0_8HBTensorIT_Lln1EEPS3_.isra.0>
     df8:	000eab03          	lw	x22,0(x29) # 0 <_Z21hb_tiled_foreach_implIfZ29tensorlib_max_pool2d_backwardEUlvE_JEEvjjT0_8HBTensorIT_Lln1EEPS3_.isra.0>
     dfc:	000a2383          	lw	x7,0(x20)
     e00:	00960533          	add	x10,x12,x9
     e04:	00040737          	lui	x14,0x40
     e08:	007b0d33          	add	x26,x22,x7
     e0c:	01251d93          	slli	x27,x10,0x12
     e10:	00499293          	slli	x5,x19,0x4
     e14:	00fc0cb7          	lui	x25,0xfc0
     e18:	ff070b93          	addi	x23,x14,-16 # 3fff0 <.L232+0x3eb8c>
     e1c:	019df7b3          	and	x15,x27,x25
     e20:	0172ff33          	and	x30,x5,x23
     e24:	018d1c13          	slli	x24,x26,0x18
     e28:	3f0005b7          	lui	x11,0x3f000
     e2c:	01e7e333          	or	x6,x15,x30
     e30:	00bc76b3          	and	x13,x24,x11
     e34:	00d36833          	or	x16,x6,x13
     e38:	c00008b7          	lui	x17,0xc0000
     e3c:	011860b3          	or	x1,x16,x17
     e40:	41001437          	lui	x8,0x41001
     e44:	d0142623          	sw	x1,-756(x8) # 41000d0c <.L232+0x40fff8a8>
     e48:	000aa483          	lw	x9,0(x21)
     e4c:	000a2903          	lw	x18,0(x20)
     e50:	201c0637          	lui	x12,0x201c0
     e54:	00448993          	addi	x19,x9,4
     e58:	013e0eb3          	add	x29,x28,x19
     e5c:	01891b13          	slli	x22,x18,0x18
     e60:	016ee3b3          	or	x7,x29,x22
     e64:	00c3e533          	or	x10,x7,x12
     e68:	00100d93          	li	x27,1
     e6c:	01b50023          	sb	x27,0(x10)
     e70:	000aa283          	lw	x5,0(x21)
     e74:	00700d13          	li	x26,7
     e78:	21a28663          	beq	x5,x26,1084 <.L266>

00000e7c <.L223>:
     e7c:	00100a13          	li	x20,1
     e80:	0100006f          	j	e90 <.L228>

00000e84 <.L267>:
     e84:	000f8893          	mv	x17,x31
     e88:	1408a0af          	lr.w.aq	x1,(x17)
     e8c:	01408863          	beq	x1,x20,e9c <.L227>

00000e90 <.L228>:
     e90:	000f8693          	mv	x13,x31
     e94:	1006a82f          	lr.w	x16,(x13)
     e98:	ff4816e3          	bne	x16,x20,e84 <.L267>

00000e9c <.L227>:
     e9c:	13c12083          	lw	x1,316(x2)
     ea0:	13812403          	lw	x8,312(x2)
     ea4:	000e2023          	sw	x0,0(x28)
     ea8:	13412483          	lw	x9,308(x2)
     eac:	13012903          	lw	x18,304(x2)
     eb0:	12c12983          	lw	x19,300(x2)
     eb4:	12812a03          	lw	x20,296(x2)
     eb8:	12412a83          	lw	x21,292(x2)
     ebc:	12012b03          	lw	x22,288(x2)
     ec0:	11c12b83          	lw	x23,284(x2)
     ec4:	11812c03          	lw	x24,280(x2)
     ec8:	11412c83          	lw	x25,276(x2)
     ecc:	11012d03          	lw	x26,272(x2)
     ed0:	10c12d83          	lw	x27,268(x2)
     ed4:	00000513          	li	x10,0
     ed8:	14010113          	addi	x2,x2,320
     edc:	00008067          	ret

00000ee0 <.L257>:
     ee0:	00000db7          	lui	x27,0x0
     ee4:	00000537          	lui	x10,0x0
     ee8:	06f00613          	li	x12,111
     eec:	000d8593          	mv	x11,x27
     ef0:	00050513          	mv	x10,x10
     ef4:	00000097          	auipc	x1,0x0
     ef8:	000080e7          	jalr	x1 # ef4 <.L257+0x14>
     efc:	05012583          	lw	x11,80(x2)
     f00:	00000637          	lui	x12,0x0
     f04:	00060513          	mv	x10,x12
     f08:	00000097          	auipc	x1,0x0
     f0c:	000080e7          	jalr	x1 # f08 <.L257+0x28>
     f10:	000002b7          	lui	x5,0x0
     f14:	0002ad03          	lw	x26,0(x5) # 0 <_Z21hb_tiled_foreach_implIfZ29tensorlib_max_pool2d_backwardEUlvE_JEEvjjT0_8HBTensorIT_Lln1EEPS3_.isra.0>
     f18:	00000cb7          	lui	x25,0x0
     f1c:	000cab83          	lw	x23,0(x25) # 0 <_Z21hb_tiled_foreach_implIfZ29tensorlib_max_pool2d_backwardEUlvE_JEEvjjT0_8HBTensorIT_Lln1EEPS3_.isra.0>
     f20:	010d1c13          	slli	x24,x26,0x10
     f24:	4100f7b7          	lui	x15,0x4100f
     f28:	017c0333          	add	x6,x24,x23
     f2c:	ac67ac23          	sw	x6,-1320(x15) # 4100ead8 <.L232+0x4100d674>

00000f30 <.L175>:
     f30:	0000006f          	j	f30 <.L175>

00000f34 <.L256>:
     f34:	000006b7          	lui	x13,0x0
     f38:	00000a37          	lui	x20,0x0
     f3c:	06f00613          	li	x12,111
     f40:	000a0593          	mv	x11,x20
     f44:	00068513          	mv	x10,x13
     f48:	00000097          	auipc	x1,0x0
     f4c:	000080e7          	jalr	x1 # f48 <.L256+0x14>
     f50:	05012583          	lw	x11,80(x2)
     f54:	00000837          	lui	x16,0x0
     f58:	00080513          	mv	x10,x16
     f5c:	00000097          	auipc	x1,0x0
     f60:	000080e7          	jalr	x1 # f5c <.L256+0x28>
     f64:	000005b7          	lui	x11,0x0
     f68:	0005a883          	lw	x17,0(x11) # 0 <_Z21hb_tiled_foreach_implIfZ29tensorlib_max_pool2d_backwardEUlvE_JEEvjjT0_8HBTensorIT_Lln1EEPS3_.isra.0>
     f6c:	00000e37          	lui	x28,0x0
     f70:	000e2f83          	lw	x31,0(x28) # 0 <_Z21hb_tiled_foreach_implIfZ29tensorlib_max_pool2d_backwardEUlvE_JEEvjjT0_8HBTensorIT_Lln1EEPS3_.isra.0>
     f74:	01089713          	slli	x14,x17,0x10
     f78:	4100ff37          	lui	x30,0x4100f
     f7c:	01f70ab3          	add	x21,x14,x31
     f80:	ad5f2c23          	sw	x21,-1320(x30) # 4100ead8 <.L232+0x4100d674>

00000f84 <.L173>:
     f84:	0000006f          	j	f84 <.L173>

00000f88 <.L260>:
     f88:	000003b7          	lui	x7,0x0
     f8c:	00000b37          	lui	x22,0x0
     f90:	06f00613          	li	x12,111
     f94:	000b0593          	mv	x11,x22
     f98:	00038513          	mv	x10,x7
     f9c:	00000097          	auipc	x1,0x0
     fa0:	000080e7          	jalr	x1 # f9c <.L260+0x14>
     fa4:	08c12583          	lw	x11,140(x2)
     fa8:	00000637          	lui	x12,0x0
     fac:	00060513          	mv	x10,x12
     fb0:	00000097          	auipc	x1,0x0
     fb4:	000080e7          	jalr	x1 # fb0 <.L260+0x28>
     fb8:	00000db7          	lui	x27,0x0
     fbc:	000da503          	lw	x10,0(x27) # 0 <_Z21hb_tiled_foreach_implIfZ29tensorlib_max_pool2d_backwardEUlvE_JEEvjjT0_8HBTensorIT_Lln1EEPS3_.isra.0>
     fc0:	000002b7          	lui	x5,0x0
     fc4:	0002ad03          	lw	x26,0(x5) # 0 <_Z21hb_tiled_foreach_implIfZ29tensorlib_max_pool2d_backwardEUlvE_JEEvjjT0_8HBTensorIT_Lln1EEPS3_.isra.0>
     fc8:	01051c93          	slli	x25,x10,0x10
     fcc:	4100fc37          	lui	x24,0x4100f
     fd0:	01ac8bb3          	add	x23,x25,x26
     fd4:	ad7c2c23          	sw	x23,-1320(x24) # 4100ead8 <.L232+0x4100d674>

00000fd8 <.L181>:
     fd8:	0000006f          	j	fd8 <.L181>

00000fdc <.L258>:
     fdc:	000000b7          	lui	x1,0x0
     fe0:	00000ab7          	lui	x21,0x0
     fe4:	00008593          	mv	x11,x1
     fe8:	06f00613          	li	x12,111
     fec:	000a8513          	mv	x10,x21
     ff0:	00000097          	auipc	x1,0x0
     ff4:	000080e7          	jalr	x1 # ff0 <.L258+0x14>
     ff8:	05012583          	lw	x11,80(x2)
     ffc:	00000f37          	lui	x30,0x0
    1000:	000f0513          	mv	x10,x30
    1004:	00000437          	lui	x8,0x0
    1008:	00000097          	auipc	x1,0x0
    100c:	000080e7          	jalr	x1 # 1008 <.L258+0x2c>
    1010:	00000937          	lui	x18,0x0
    1014:	00042483          	lw	x9,0(x8) # 0 <_Z21hb_tiled_foreach_implIfZ29tensorlib_max_pool2d_backwardEUlvE_JEEvjjT0_8HBTensorIT_Lln1EEPS3_.isra.0>
    1018:	00092983          	lw	x19,0(x18) # 0 <_Z21hb_tiled_foreach_implIfZ29tensorlib_max_pool2d_backwardEUlvE_JEEvjjT0_8HBTensorIT_Lln1EEPS3_.isra.0>
    101c:	4100f3b7          	lui	x7,0x4100f
    1020:	01049e93          	slli	x29,x9,0x10
    1024:	013e8b33          	add	x22,x29,x19
    1028:	ad63ac23          	sw	x22,-1320(x7) # 4100ead8 <.L232+0x4100d674>

0000102c <.L177>:
    102c:	0000006f          	j	102c <.L177>

00001030 <.L259>:
    1030:	00000337          	lui	x6,0x0
    1034:	000007b7          	lui	x15,0x0
    1038:	00030593          	mv	x11,x6
    103c:	06f00613          	li	x12,111
    1040:	00078513          	mv	x10,x15
    1044:	00000097          	auipc	x1,0x0
    1048:	000080e7          	jalr	x1 # 1044 <.L259+0x14>
    104c:	05012583          	lw	x11,80(x2)
    1050:	00000a37          	lui	x20,0x0
    1054:	000a0513          	mv	x10,x20
    1058:	00000097          	auipc	x1,0x0
    105c:	000080e7          	jalr	x1 # 1058 <.L259+0x28>
    1060:	000005b7          	lui	x11,0x0
    1064:	0005a683          	lw	x13,0(x11) # 0 <_Z21hb_tiled_foreach_implIfZ29tensorlib_max_pool2d_backwardEUlvE_JEEvjjT0_8HBTensorIT_Lln1EEPS3_.isra.0>
    1068:	00000837          	lui	x16,0x0
    106c:	00082883          	lw	x17,0(x16) # 0 <_Z21hb_tiled_foreach_implIfZ29tensorlib_max_pool2d_backwardEUlvE_JEEvjjT0_8HBTensorIT_Lln1EEPS3_.isra.0>
    1070:	01069e13          	slli	x28,x13,0x10
    1074:	4100f737          	lui	x14,0x4100f
    1078:	011e0fb3          	add	x31,x28,x17
    107c:	adf72c23          	sw	x31,-1320(x14) # 4100ead8 <.L232+0x4100d674>

00001080 <.L179>:
    1080:	0000006f          	j	1080 <.L179>

00001084 <.L266>:
    1084:	00000cb7          	lui	x25,0x0
    1088:	000007b7          	lui	x15,0x0
    108c:	004c8b93          	addi	x23,x25,4 # 4 <_Z21hb_tiled_foreach_implIfZ29tensorlib_max_pool2d_backwardEUlvE_JEEvjjT0_8HBTensorIT_Lln1EEPS3_.isra.0+0x4>
    1090:	01478f13          	addi	x30,x15,20 # 14 <.L8>

00001094 <.L203>:
    1094:	000b8c13          	mv	x24,x23

00001098 <.L216>:
    1098:	000c4703          	lbu	x14,0(x24)
    109c:	001c0c13          	addi	x24,x24,1
    10a0:	0ff77313          	andi	x6,x14,255
    10a4:	fe0308e3          	beqz	x6,1094 <.L203>
    10a8:	ff8f18e3          	bne	x30,x24,1098 <.L216>
    10ac:	000a2583          	lw	x11,0(x20) # 0 <_Z21hb_tiled_foreach_implIfZ29tensorlib_max_pool2d_backwardEUlvE_JEEvjjT0_8HBTensorIT_Lln1EEPS3_.isra.0>
    10b0:	231c08b7          	lui	x17,0x231c0
    10b4:	00100413          	li	x8,1
    10b8:	01858693          	addi	x13,x11,24
    10bc:	00de0833          	add	x16,x28,x13
    10c0:	011860b3          	or	x1,x16,x17
    10c4:	00808023          	sb	x8,0(x1)
    10c8:	000aa483          	lw	x9,0(x21) # 0 <_Z21hb_tiled_foreach_implIfZ29tensorlib_max_pool2d_backwardEUlvE_JEEvjjT0_8HBTensorIT_Lln1EEPS3_.isra.0>
    10cc:	00700913          	li	x18,7
    10d0:	db2496e3          	bne	x9,x18,e7c <.L223>
    10d4:	000a2983          	lw	x19,0(x20)
    10d8:	00300e93          	li	x29,3
    10dc:	21d98663          	beq	x19,x29,12e8 <.L268>

000010e0 <.L222>:
    10e0:	00100413          	li	x8,1
    10e4:	0100006f          	j	10f4 <.L218>

000010e8 <.L269>:
    10e8:	014e0993          	addi	x19,x28,20
    10ec:	1409aeaf          	lr.w.aq	x29,(x19)
    10f0:	008e8863          	beq	x29,x8,1100 <.L224>

000010f4 <.L218>:
    10f4:	014e0493          	addi	x9,x28,20
    10f8:	1004a92f          	lr.w	x18,(x9)
    10fc:	fe8916e3          	bne	x18,x8,10e8 <.L269>

00001100 <.L224>:
    1100:	000e2a23          	sw	x0,20(x28)
    1104:	00000613          	li	x12,0
    1108:	01000b13          	li	x22,16

0000110c <.L225>:
    110c:	00ce03b3          	add	x7,x28,x12
    1110:	00038223          	sb	x0,4(x7)
    1114:	00160613          	addi	x12,x12,1 # 1 <_Z21hb_tiled_foreach_implIfZ29tensorlib_max_pool2d_backwardEUlvE_JEEvjjT0_8HBTensorIT_Lln1EEPS3_.isra.0+0x1>
    1118:	ff661ae3          	bne	x12,x22,110c <.L225>
    111c:	000e2023          	sw	x0,0(x28)
    1120:	00000c13          	li	x24,0
    1124:	20000db7          	lui	x27,0x20000
    1128:	00100513          	li	x10,1
    112c:	000402b7          	lui	x5,0x40
    1130:	00400d37          	lui	x26,0x400

00001134 <.L226>:
    1134:	000a2c83          	lw	x25,0(x20)
    1138:	018e6bb3          	or	x23,x28,x24
    113c:	005c0c33          	add	x24,x24,x5
    1140:	018c9313          	slli	x6,x25,0x18
    1144:	017365b3          	or	x11,x6,x23
    1148:	01b5e7b3          	or	x15,x11,x27
    114c:	00a7a023          	sw	x10,0(x15)
    1150:	ffac12e3          	bne	x24,x26,1134 <.L226>
    1154:	d29ff06f          	j	e7c <.L223>

00001158 <.L263>:
    1158:	00000eb7          	lui	x29,0x0
    115c:	000000b7          	lui	x1,0x0
    1160:	004e8f13          	addi	x30,x29,4 # 4 <_Z21hb_tiled_foreach_implIfZ29tensorlib_max_pool2d_backwardEUlvE_JEEvjjT0_8HBTensorIT_Lln1EEPS3_.isra.0+0x4>
    1164:	01408393          	addi	x7,x1,20 # 14 <.L8>

00001168 <.L187>:
    1168:	000f0513          	mv	x10,x30

0000116c <.L189>:
    116c:	00054303          	lbu	x6,0(x10) # 0 <_Z21hb_tiled_foreach_implIfZ29tensorlib_max_pool2d_backwardEUlvE_JEEvjjT0_8HBTensorIT_Lln1EEPS3_.isra.0>
    1170:	00150513          	addi	x10,x10,1
    1174:	0ff37813          	andi	x16,x6,255
    1178:	fe0808e3          	beqz	x16,1168 <.L187>
    117c:	fea398e3          	bne	x7,x10,116c <.L189>
    1180:	000a2883          	lw	x17,0(x20)
    1184:	231c02b7          	lui	x5,0x231c0
    1188:	00100693          	li	x13,1
    118c:	01888593          	addi	x11,x17,24 # 231c0018 <.L232+0x231bebb4>
    1190:	00be0633          	add	x12,x28,x11
    1194:	005667b3          	or	x15,x12,x5
    1198:	00d78023          	sb	x13,0(x15)
    119c:	000aa683          	lw	x13,0(x21)
    11a0:	00700c13          	li	x24,7
    11a4:	02d12e23          	sw	x13,60(x2)
    11a8:	a98698e3          	bne	x13,x24,c38 <.L196>
    11ac:	000a2c83          	lw	x25,0(x20)
    11b0:	00300d13          	li	x26,3
    11b4:	09ac8663          	beq	x25,x26,1240 <.L270>

000011b8 <.L195>:
    11b8:	00100d93          	li	x27,1
    11bc:	0100006f          	j	11cc <.L191>

000011c0 <.L271>:
    11c0:	014e0093          	addi	x1,x28,20
    11c4:	1400a32f          	lr.w.aq	x6,(x1)
    11c8:	01b30863          	beq	x6,x27,11d8 <.L197>

000011cc <.L191>:
    11cc:	014e0e93          	addi	x29,x28,20
    11d0:	100eaf2f          	lr.w	x30,(x29)
    11d4:	ffbf16e3          	bne	x30,x27,11c0 <.L271>

000011d8 <.L197>:
    11d8:	000e2a23          	sw	x0,20(x28)
    11dc:	00000593          	li	x11,0
    11e0:	01000813          	li	x16,16

000011e4 <.L198>:
    11e4:	00be0533          	add	x10,x28,x11
    11e8:	00050223          	sb	x0,4(x10)
    11ec:	00158593          	addi	x11,x11,1
    11f0:	ff059ae3          	bne	x11,x16,11e4 <.L198>
    11f4:	000e2023          	sw	x0,0(x28)
    11f8:	00000c93          	li	x25,0
    11fc:	200002b7          	lui	x5,0x20000
    1200:	00100893          	li	x17,1
    1204:	00040637          	lui	x12,0x40
    1208:	00400bb7          	lui	x23,0x400

0000120c <.L199>:
    120c:	000a2783          	lw	x15,0(x20)
    1210:	019e6c33          	or	x24,x28,x25
    1214:	00cc8cb3          	add	x25,x25,x12
    1218:	01879d13          	slli	x26,x15,0x18
    121c:	018d66b3          	or	x13,x26,x24
    1220:	0056e733          	or	x14,x13,x5
    1224:	01172023          	sw	x17,0(x14)
    1228:	ff7c92e3          	bne	x25,x23,120c <.L199>
    122c:	000aa383          	lw	x7,0(x21)
    1230:	02712e23          	sw	x7,60(x2)
    1234:	a05ff06f          	j	c38 <.L196>

00001238 <.L262>:
    1238:	00028593          	mv	x11,x5
    123c:	9b1ff06f          	j	bec <.L185>

00001240 <.L270>:
    1240:	00000737          	lui	x14,0x0
    1244:	00000db7          	lui	x27,0x0
    1248:	01870b13          	addi	x22,x14,24 # 18 <.L8+0x4>
    124c:	020d8e93          	addi	x29,x27,32 # 20 <.L8+0xc>

00001250 <.L190>:
    1250:	000b0093          	mv	x1,x22

00001254 <.L192>:
    1254:	0000cf03          	lbu	x30,0(x1)
    1258:	00108093          	addi	x1,x1,1
    125c:	0fff7313          	andi	x6,x30,255
    1260:	fe0308e3          	beqz	x6,1250 <.L190>
    1264:	fe1e98e3          	bne	x29,x1,1254 <.L192>
    1268:	000e0c23          	sb	x0,24(x28)
    126c:	000e0ca3          	sb	x0,25(x28)
    1270:	000e0d23          	sb	x0,26(x28)
    1274:	000e0da3          	sb	x0,27(x28)
    1278:	000e0e23          	sb	x0,28(x28)
    127c:	000e0ea3          	sb	x0,29(x28)
    1280:	000e0f23          	sb	x0,30(x28)
    1284:	000e0fa3          	sb	x0,31(x28)
    1288:	000e2a23          	sw	x0,20(x28)
    128c:	00000693          	li	x13,0
    1290:	03fc0837          	lui	x16,0x3fc0
    1294:	20000537          	lui	x10,0x20000
    1298:	00100593          	li	x11,1
    129c:	01000637          	lui	x12,0x1000
    12a0:	080002b7          	lui	x5,0x8000
    12a4:	00c0006f          	j	12b0 <.L194>

000012a8 <.L272>:
    12a8:	000aa703          	lw	x14,0(x21)
    12ac:	02e12e23          	sw	x14,60(x2)

000012b0 <.L194>:
    12b0:	03c12883          	lw	x17,60(x2)
    12b4:	00d3ebb3          	or	x23,x7,x13
    12b8:	00c686b3          	add	x13,x13,x12
    12bc:	01289793          	slli	x15,x17,0x12
    12c0:	0107fc33          	and	x24,x15,x16
    12c4:	017c6cb3          	or	x25,x24,x23
    12c8:	00aced33          	or	x26,x25,x10
    12cc:	00bd2023          	sw	x11,0(x26) # 400000 <.L232+0x3feb9c>
    12d0:	fc569ce3          	bne	x13,x5,12a8 <.L272>
    12d4:	000aa703          	lw	x14,0(x21)
    12d8:	00700b13          	li	x22,7
    12dc:	02e12e23          	sw	x14,60(x2)
    12e0:	ed670ce3          	beq	x14,x22,11b8 <.L195>
    12e4:	955ff06f          	j	c38 <.L196>

000012e8 <.L268>:
    12e8:	00000b37          	lui	x22,0x0
    12ec:	00000637          	lui	x12,0x0
    12f0:	018b0393          	addi	x7,x22,24 # 18 <.L8+0x4>
    12f4:	02060513          	addi	x10,x12,32 # 20 <.L8+0xc>

000012f8 <.L217>:
    12f8:	00038293          	mv	x5,x7

000012fc <.L219>:
    12fc:	0002cd83          	lbu	x27,0(x5) # 8000000 <.L232+0x7ffeb9c>
    1300:	00128293          	addi	x5,x5,1
    1304:	0ffdfd13          	andi	x26,x27,255
    1308:	fe0d08e3          	beqz	x26,12f8 <.L217>
    130c:	fe5518e3          	bne	x10,x5,12fc <.L219>
    1310:	000e0c23          	sb	x0,24(x28)
    1314:	000e0ca3          	sb	x0,25(x28)
    1318:	000e0d23          	sb	x0,26(x28)
    131c:	000e0da3          	sb	x0,27(x28)
    1320:	000e0e23          	sb	x0,28(x28)
    1324:	000e0ea3          	sb	x0,29(x28)
    1328:	000e0f23          	sb	x0,30(x28)
    132c:	000e0fa3          	sb	x0,31(x28)
    1330:	000e2a23          	sw	x0,20(x28)
    1334:	00000713          	li	x14,0
    1338:	03fc0cb7          	lui	x25,0x3fc0
    133c:	20000bb7          	lui	x23,0x20000
    1340:	00100c13          	li	x24,1
    1344:	01000337          	lui	x6,0x1000
    1348:	080005b7          	lui	x11,0x8000
    134c:	0080006f          	j	1354 <.L221>

00001350 <.L273>:
    1350:	000aa483          	lw	x9,0(x21)

00001354 <.L221>:
    1354:	01249793          	slli	x15,x9,0x12
    1358:	00ef66b3          	or	x13,x30,x14
    135c:	0197f833          	and	x16,x15,x25
    1360:	00d868b3          	or	x17,x16,x13
    1364:	0178e0b3          	or	x1,x17,x23
    1368:	0180a023          	sw	x24,0(x1)
    136c:	00670733          	add	x14,x14,x6
    1370:	feb710e3          	bne	x14,x11,1350 <.L273>
    1374:	000aaa83          	lw	x21,0(x21)
    1378:	00700f13          	li	x30,7
    137c:	d7ea82e3          	beq	x21,x30,10e0 <.L222>
    1380:	afdff06f          	j	e7c <.L223>

00001384 <.L265>:
    1384:	028777b3          	remu	x15,x14,x8
    1388:	a2f29ee3          	bne	x5,x15,dc4 <.L212>
    138c:	0003af03          	lw	x30,0(x7)
    1390:	0043a703          	lw	x14,4(x7)
    1394:	000b2c03          	lw	x24,0(x22)
    1398:	03e507b3          	mul	x15,x10,x30
    139c:	00c3ab83          	lw	x23,12(x7)
    13a0:	02ed8f33          	mul	x30,x27,x14
    13a4:	01e78733          	add	x14,x15,x30
    13a8:	004b2783          	lw	x15,4(x22)
    13ac:	03850c33          	mul	x24,x10,x24
    13b0:	02fd8f33          	mul	x30,x27,x15
    13b4:	0083a783          	lw	x15,8(x7)
    13b8:	03728bb3          	mul	x23,x5,x23
    13bc:	01ec0f33          	add	x30,x24,x30
    13c0:	008b2c03          	lw	x24,8(x22)
    13c4:	038585b3          	mul	x11,x11,x24
    13c8:	00cb2c03          	lw	x24,12(x22)
    13cc:	01770733          	add	x14,x14,x23
    13d0:	03830333          	mul	x6,x6,x24
    13d4:	00bf0f33          	add	x30,x30,x11
    13d8:	02f08bb3          	mul	x23,x1,x15
    13dc:	006f0f33          	add	x30,x30,x6
    13e0:	03812783          	lw	x15,56(x2)
    13e4:	03412303          	lw	x6,52(x2)
    13e8:	002f1c13          	slli	x24,x30,0x2
    13ec:	017705b3          	add	x11,x14,x23
    13f0:	00259713          	slli	x14,x11,0x2
    13f4:	00e78bb3          	add	x23,x15,x14
    13f8:	018305b3          	add	x11,x6,x24
    13fc:	000ba787          	flw	f15,0(x23) # 20000000 <.L232+0x1fffeb9c>
    1400:	0005a707          	flw	f14,0(x11) # 8000000 <.L232+0x7ffeb9c>
    1404:	00e7f053          	fadd.s	f0,f15,f14
    1408:	000ba027          	fsw	f0,0(x23)
    140c:	9b9ff06f          	j	dc4 <.L212>

00001410 <.L261>:
    1410:	00000e37          	lui	x28,0x0
    1414:	00000fb7          	lui	x31,0x0
    1418:	000e0593          	mv	x11,x28
    141c:	06f00613          	li	x12,111
    1420:	000f8513          	mv	x10,x31
    1424:	00000097          	auipc	x1,0x0
    1428:	000080e7          	jalr	x1 # 1424 <.L261+0x14>
    142c:	08c12583          	lw	x11,140(x2)
    1430:	00000737          	lui	x14,0x0
    1434:	00070513          	mv	x10,x14
    1438:	00000097          	auipc	x1,0x0
    143c:	000080e7          	jalr	x1 # 1438 <.L261+0x28>
    1440:	00000ab7          	lui	x21,0x0
    1444:	000aaf03          	lw	x30,0(x21) # 0 <_Z21hb_tiled_foreach_implIfZ29tensorlib_max_pool2d_backwardEUlvE_JEEvjjT0_8HBTensorIT_Lln1EEPS3_.isra.0>
    1448:	00000437          	lui	x8,0x0
    144c:	00042483          	lw	x9,0(x8) # 0 <_Z21hb_tiled_foreach_implIfZ29tensorlib_max_pool2d_backwardEUlvE_JEEvjjT0_8HBTensorIT_Lln1EEPS3_.isra.0>
    1450:	010f1913          	slli	x18,x30,0x10
    1454:	4100feb7          	lui	x29,0x4100f
    1458:	009909b3          	add	x19,x18,x9
    145c:	ad3eac23          	sw	x19,-1320(x29) # 4100ead8 <.L232+0x4100d674>

00001460 <.L183>:
    1460:	0000006f          	j	1460 <.L183>

00001464 <.L232>:
    1464:	00000593          	li	x11,0
    1468:	00000513          	li	x10,0
    146c:	f84ff06f          	j	bf0 <.L184>

Disassembly of section .text._ZN8HBTensorIfLln1EEC2EP11hb_tensor_t:

00000000 <_ZN8HBTensorIfLln1EEC1EP11hb_tensor_t>:
   0:	00058713          	mv	x14,x11
   4:	0045a683          	lw	x13,4(x11)
   8:	00072803          	lw	x16,0(x14) # 0 <_ZN8HBTensorIfLln1EEC1EP11hb_tensor_t>
   c:	0105a583          	lw	x11,16(x11)
  10:	00050793          	mv	x15,x10
  14:	02850613          	addi	x12,x10,40 # 20000028 <.L232+0x1fffebc4>
  18:	01450513          	addi	x10,x10,20
  1c:	0107a023          	sw	x16,0(x15)
  20:	00d7a223          	sw	x13,4(x15)
  24:	00a7a423          	sw	x10,8(x15)
  28:	00c7a623          	sw	x12,12(x15)
  2c:	00b7a823          	sw	x11,16(x15)
  30:	00060613          	mv	x12,x12
  34:	00500293          	li	x5,5
  38:	04d2e463          	bltu	x5,x13,80 <.L89>
  3c:	00872303          	lw	x6,8(x14)
  40:	00c72383          	lw	x7,12(x14)
  44:	02068c63          	beqz	x13,7c <.L77>
  48:	00269893          	slli	x17,x13,0x2
  4c:	00078713          	mv	x14,x15
  50:	01178e33          	add	x28,x15,x17
  54:	40f30eb3          	sub	x29,x6,x15
  58:	40f38f33          	sub	x30,x7,x15

0000005c <.L81>:
  5c:	00ee8fb3          	add	x31,x29,x14
  60:	000fa683          	lw	x13,0(x31) # 0 <_ZN8HBTensorIfLln1EEC1EP11hb_tensor_t>
  64:	00ef05b3          	add	x11,x30,x14
  68:	00470713          	addi	x14,x14,4
  6c:	00d72823          	sw	x13,16(x14)
  70:	0005a803          	lw	x16,0(x11)
  74:	03072223          	sw	x16,36(x14)
  78:	ffc712e3          	bne	x14,x28,5c <.L81>

0000007c <.L77>:
  7c:	00008067          	ret

00000080 <.L89>:
  80:	ff010113          	addi	x2,x2,-16
  84:	000007b7          	lui	x15,0x0
  88:	00112623          	sw	x1,12(x2)
  8c:	000000b7          	lui	x1,0x0
  90:	0d800613          	li	x12,216
  94:	00008593          	mv	x11,x1
  98:	00078513          	mv	x10,x15
  9c:	00000097          	auipc	x1,0x0
  a0:	000080e7          	jalr	x1 # 9c <.L89+0x1c>
  a4:	00000637          	lui	x12,0x0
  a8:	00060513          	mv	x10,x12
  ac:	00000097          	auipc	x1,0x0
  b0:	000080e7          	jalr	x1 # ac <.L89+0x2c>
  b4:	00000537          	lui	x10,0x0
  b8:	00052283          	lw	x5,0(x10) # 0 <_ZN8HBTensorIfLln1EEC1EP11hb_tensor_t>
  bc:	00000337          	lui	x6,0x0
  c0:	00032383          	lw	x7,0(x6) # 0 <_ZN8HBTensorIfLln1EEC1EP11hb_tensor_t>
  c4:	01029893          	slli	x17,x5,0x10
  c8:	4100feb7          	lui	x29,0x4100f
  cc:	00788e33          	add	x28,x17,x7
  d0:	adceac23          	sw	x28,-1320(x29) # 4100ead8 <.L232+0x4100d674>

000000d4 <.L79>:
  d4:	0000006f          	j	d4 <.L79>

Disassembly of section .text._ZN8HBTensorIiLln1EEC2EP11hb_tensor_t:

00000000 <_ZN8HBTensorIiLln1EEC1EP11hb_tensor_t>:
   0:	00058713          	mv	x14,x11
   4:	0045a683          	lw	x13,4(x11)
   8:	00072803          	lw	x16,0(x14)
   c:	0105a583          	lw	x11,16(x11)
  10:	00050793          	mv	x15,x10
  14:	02850613          	addi	x12,x10,40
  18:	01450513          	addi	x10,x10,20
  1c:	0107a023          	sw	x16,0(x15) # 0 <_ZN8HBTensorIiLln1EEC1EP11hb_tensor_t>
  20:	00d7a223          	sw	x13,4(x15)
  24:	00a7a423          	sw	x10,8(x15)
  28:	00c7a623          	sw	x12,12(x15)
  2c:	00b7a823          	sw	x11,16(x15)
  30:	00060613          	mv	x12,x12
  34:	00500293          	li	x5,5
  38:	04d2e463          	bltu	x5,x13,80 <.L102>
  3c:	00872303          	lw	x6,8(x14)
  40:	00c72383          	lw	x7,12(x14)
  44:	02068c63          	beqz	x13,7c <.L90>
  48:	00269893          	slli	x17,x13,0x2
  4c:	00078713          	mv	x14,x15
  50:	01178e33          	add	x28,x15,x17
  54:	40f30eb3          	sub	x29,x6,x15
  58:	40f38f33          	sub	x30,x7,x15

0000005c <.L94>:
  5c:	00ee8fb3          	add	x31,x29,x14
  60:	000fa683          	lw	x13,0(x31)
  64:	00ef05b3          	add	x11,x30,x14
  68:	00470713          	addi	x14,x14,4
  6c:	00d72823          	sw	x13,16(x14)
  70:	0005a803          	lw	x16,0(x11)
  74:	03072223          	sw	x16,36(x14)
  78:	ffc712e3          	bne	x14,x28,5c <.L94>

0000007c <.L90>:
  7c:	00008067          	ret

00000080 <.L102>:
  80:	ff010113          	addi	x2,x2,-16
  84:	000007b7          	lui	x15,0x0
  88:	00112623          	sw	x1,12(x2)
  8c:	000000b7          	lui	x1,0x0
  90:	0d800613          	li	x12,216
  94:	00008593          	mv	x11,x1
  98:	00078513          	mv	x10,x15
  9c:	00000097          	auipc	x1,0x0
  a0:	000080e7          	jalr	x1 # 9c <.L102+0x1c>
  a4:	00000637          	lui	x12,0x0
  a8:	00060513          	mv	x10,x12
  ac:	00000097          	auipc	x1,0x0
  b0:	000080e7          	jalr	x1 # ac <.L102+0x2c>
  b4:	00000537          	lui	x10,0x0
  b8:	00052283          	lw	x5,0(x10) # 0 <_ZN8HBTensorIiLln1EEC1EP11hb_tensor_t>
  bc:	00000337          	lui	x6,0x0
  c0:	00032383          	lw	x7,0(x6) # 0 <_ZN8HBTensorIiLln1EEC1EP11hb_tensor_t>
  c4:	01029893          	slli	x17,x5,0x10
  c8:	4100feb7          	lui	x29,0x4100f
  cc:	00788e33          	add	x28,x17,x7
  d0:	adceac23          	sw	x28,-1320(x29) # 4100ead8 <.L232+0x4100d674>

000000d4 <.L92>:
  d4:	0000006f          	j	d4 <.L92>

Disassembly of section .srodata.cst4:

00000000 <.LC4>:
   0:	ffff                	0xffff
   2:	ff7f                	0xff7f
