
kernel_pooling.o:     file format elf32-littleriscv


Disassembly of section .group:

00000000 <_ZN8HBTensorIfLln1EEC5EP11hb_tensor_t>:
   0:	0001                	nop
   2:	0000                	unimp
   4:	0008                	0x8
   6:	0000                	unimp
   8:	0009                	c.nop	2
	...

Disassembly of section .group:

00000000 <_ZN8HBTensorIiLln1EEC5EP11hb_tensor_t>:
   0:	0001                	nop
   2:	0000                	unimp
   4:	000a                	c.slli	x0,0x2
   6:	0000                	unimp
   8:	0000000b          	0xb

Disassembly of section .text:

00000000 <tensorlib_max_pool2d>:
   0:	ed010113          	addi	x2,x2,-304
   4:	00050313          	mv	x6,x10
   8:	11612823          	sw	x22,272(x2)
   c:	03c10513          	addi	x10,x2,60
  10:	00058b13          	mv	x22,x11
  14:	00030593          	mv	x11,x6
  18:	12112623          	sw	x1,300(x2)
  1c:	12812423          	sw	x8,296(x2)
  20:	12912223          	sw	x9,292(x2)
  24:	00088413          	mv	x8,x17
  28:	00080493          	mv	x9,x16
  2c:	13212023          	sw	x18,288(x2)
  30:	11312e23          	sw	x19,284(x2)
  34:	00078913          	mv	x18,x15
  38:	00070993          	mv	x19,x14
  3c:	11412c23          	sw	x20,280(x2)
  40:	11512a23          	sw	x21,276(x2)
  44:	00068a13          	mv	x20,x13
  48:	00060a93          	mv	x21,x12
  4c:	11712623          	sw	x23,268(x2)
  50:	11812423          	sw	x24,264(x2)
  54:	11912223          	sw	x25,260(x2)
  58:	11a12023          	sw	x26,256(x2)
  5c:	0fb12e23          	sw	x27,252(x2)
  60:	00000097          	auipc	x1,0x0
  64:	000080e7          	jalr	x1 # 60 <tensorlib_max_pool2d+0x60>
  68:	000b0593          	mv	x11,x22
  6c:	07810513          	addi	x10,x2,120
  70:	00000097          	auipc	x1,0x0
  74:	000080e7          	jalr	x1 # 70 <tensorlib_max_pool2d+0x70>
  78:	000a8593          	mv	x11,x21
  7c:	0b410513          	addi	x10,x2,180
  80:	00000097          	auipc	x1,0x0
  84:	000080e7          	jalr	x1 # 80 <tensorlib_max_pool2d+0x80>
  88:	04012783          	lw	x15,64(x2)
  8c:	3c078e63          	beqz	x15,468 <.L109>
  90:	00100713          	li	x14,1
  94:	42f77463          	bgeu	x14,x15,4bc <.L110>
  98:	00200693          	li	x13,2
  9c:	46d78a63          	beq	x15,x13,510 <.L111>
  a0:	00300093          	li	x1,3
  a4:	50178a63          	beq	x15,x1,5b8 <.L112>
  a8:	07c12283          	lw	x5,124(x2)
  ac:	4a56fc63          	bgeu	x13,x5,564 <.L113>
  b0:	6c128663          	beq	x5,x1,77c <.L114>
  b4:	000003b7          	lui	x7,0x0
  b8:	000005b7          	lui	x11,0x0
  bc:	00000637          	lui	x12,0x0
  c0:	00000bb7          	lui	x23,0x0
  c4:	0003a503          	lw	x10,0(x7) # 0 <tensorlib_max_pool2d>
  c8:	0005a803          	lw	x16,0(x11) # 0 <tensorlib_max_pool2d>
  cc:	00062883          	lw	x17,0(x12) # 0 <tensorlib_max_pool2d>
  d0:	000bac03          	lw	x24,0(x23) # 0 <tensorlib_max_pool2d>
  d4:	00000cb7          	lui	x25,0x0
  d8:	000cad03          	lw	x26,0(x25) # 0 <tensorlib_max_pool2d>
  dc:	01050db3          	add	x27,x10,x16
  e0:	01888e33          	add	x28,x17,x24
  e4:	018d9e93          	slli	x29,x27,0x18
  e8:	012e1f13          	slli	x30,x28,0x12
  ec:	3f000fb7          	lui	x31,0x3f000
  f0:	00fc0b37          	lui	x22,0xfc0
  f4:	00040737          	lui	x14,0x40
  f8:	04812083          	lw	x1,72(x2)
  fc:	08412283          	lw	x5,132(x2)
 100:	004d1693          	slli	x13,x26,0x4
 104:	01fef333          	and	x6,x29,x31
 108:	016f7ab3          	and	x21,x30,x22
 10c:	ff070393          	addi	x7,x14,-16 # 3fff0 <.L129+0x3f114>
 110:	015367b3          	or	x15,x6,x21
 114:	0076f533          	and	x10,x13,x7
 118:	00a7e5b3          	or	x11,x15,x10
 11c:	80000837          	lui	x16,0x80000
 120:	0000a883          	lw	x17,0(x1)
 124:	0040ab83          	lw	x23,4(x1)
 128:	0080ac03          	lw	x24,8(x1)
 12c:	00c0ad03          	lw	x26,12(x1)
 130:	0105e633          	or	x12,x11,x16
 134:	0082a083          	lw	x1,8(x5)
 138:	00c2a583          	lw	x11,12(x5)
 13c:	0009a283          	lw	x5,0(x19)
 140:	0004a983          	lw	x19,0(x9)
 144:	13012483          	lw	x9,304(x2)
 148:	01112823          	sw	x17,16(x2)
 14c:	000a2883          	lw	x17,0(x20)
 150:	00092a03          	lw	x20,0(x18)
 154:	00042903          	lw	x18,0(x8)
 158:	0004a403          	lw	x8,0(x9)
 15c:	01712a23          	sw	x23,20(x2)
 160:	01812c23          	sw	x24,24(x2)
 164:	01412423          	sw	x20,8(x2)
 168:	01312023          	sw	x19,0(x2)
 16c:	01212623          	sw	x18,12(x2)
 170:	00812e23          	sw	x8,28(x2)
 174:	41001cb7          	lui	x25,0x41001
 178:	d0cca623          	sw	x12,-756(x25) # 41000d0c <.L129+0x40fffe30>
 17c:	00000db7          	lui	x27,0x0
 180:	000dae03          	lw	x28,0(x27) # 0 <tensorlib_max_pool2d>
 184:	1c0e1c63          	bnez	x28,35c <.L44>
 188:	01012e83          	lw	x29,16(x2)
 18c:	1c0e8863          	beqz	x29,35c <.L44>
 190:	00c12f03          	lw	x30,12(x2)
 194:	00812683          	lw	x13,8(x2)
 198:	04412303          	lw	x6,68(x2)
 19c:	03e58fb3          	mul	x31,x11,x30
 1a0:	04c12b03          	lw	x22,76(x2)
 1a4:	00000ab7          	lui	x21,0x0
 1a8:	08012803          	lw	x16,128(x2)
 1ac:	08812c03          	lw	x24,136(x2)
 1b0:	0bc12a03          	lw	x20,188(x2)
 1b4:	0c412b83          	lw	x23,196(x2)
 1b8:	000aa687          	flw	f13,0(x21) # 0 <tensorlib_max_pool2d>
 1bc:	02612023          	sw	x6,32(x2)
 1c0:	03612223          	sw	x22,36(x2)
 1c4:	02d587b3          	mul	x15,x11,x13
 1c8:	41f00733          	neg	x14,x31
 1cc:	00000413          	li	x8,0
 1d0:	02e12423          	sw	x14,40(x2)
 1d4:	02f12623          	sw	x15,44(x2)

000001d8 <.L46>:
 1d8:	01412383          	lw	x7,20(x2)
 1dc:	00000493          	li	x9,0
 1e0:	16038863          	beqz	x7,350 <.L48>

000001e4 <.L45>:
 1e4:	00c12503          	lw	x10,12(x2)
 1e8:	01812603          	lw	x12,24(x2)
 1ec:	02812c83          	lw	x25,40(x2)
 1f0:	40a889b3          	sub	x19,x17,x10
 1f4:	00000b13          	li	x22,0
 1f8:	14060663          	beqz	x12,344 <.L50>

000001fc <.L51>:
 1fc:	120d0663          	beqz	x26,328 <.L53>
 200:	02012903          	lw	x18,32(x2)
 204:	01c12303          	lw	x6,28(x2)
 208:	00092d83          	lw	x27,0(x18)
 20c:	00492e03          	lw	x28,4(x18)
 210:	00892e83          	lw	x29,8(x18)
 214:	03b40f33          	mul	x30,x8,x27
 218:	00c92f83          	lw	x31,12(x18)
 21c:	02412903          	lw	x18,36(x2)
 220:	406286b3          	sub	x13,x5,x6
 224:	002f9a93          	slli	x21,x31,0x2
 228:	01512223          	sw	x21,4(x2)
 22c:	41198db3          	sub	x27,x19,x17
 230:	00000a93          	li	x21,0
 234:	03c487b3          	mul	x15,x9,x28
 238:	03db0733          	mul	x14,x22,x29
 23c:	00ff03b3          	add	x7,x30,x15
 240:	00e38533          	add	x10,x7,x14
 244:	00251613          	slli	x12,x10,0x2
 248:	00c90333          	add	x6,x18,x12

0000024c <.L54>:
 24c:	00d32027          	fsw	f13,0(x6)
 250:	40568e33          	sub	x28,x13,x5
 254:	000d8713          	mv	x14,x27
 258:	000c8513          	mv	x10,x25
 25c:	0a088a63          	beqz	x17,310 <.L56>

00000260 <.L57>:
 260:	000e0793          	mv	x15,x28
 264:	0a028063          	beqz	x5,304 <.L60>

00000268 <.L55>:
 268:	08074a63          	bltz	x14,2fc <.L58>
 26c:	08177863          	bgeu	x14,x1,2fc <.L58>
 270:	0807c663          	bltz	x15,2fc <.L58>
 274:	08b7f463          	bgeu	x15,x11,2fc <.L58>
 278:	00082f03          	lw	x30,0(x16) # 80000000 <.L129+0x7ffff124>
 27c:	00482e83          	lw	x29,4(x16)
 280:	00882f83          	lw	x31,8(x16)
 284:	03e403b3          	mul	x7,x8,x30
 288:	00c82f03          	lw	x30,12(x16)
 28c:	00032707          	flw	f14,0(x6)
 290:	00f50933          	add	x18,x10,x15
 294:	03d48633          	mul	x12,x9,x29
 298:	03f70eb3          	mul	x29,x14,x31
 29c:	00c38fb3          	add	x31,x7,x12
 2a0:	03e783b3          	mul	x7,x15,x30
 2a4:	01df8633          	add	x12,x31,x29
 2a8:	00760eb3          	add	x29,x12,x7
 2ac:	002e9f93          	slli	x31,x29,0x2
 2b0:	01fc0f33          	add	x30,x24,x31
 2b4:	000f2787          	flw	f15,0(x30)
 2b8:	a0f713d3          	flt.s	x7,f14,f15
 2bc:	04038063          	beqz	x7,2fc <.L58>
 2c0:	000a2f83          	lw	x31,0(x20)
 2c4:	004a2603          	lw	x12,4(x20)
 2c8:	008a2f03          	lw	x30,8(x20)
 2cc:	00ca2e83          	lw	x29,12(x20)
 2d0:	03f403b3          	mul	x7,x8,x31
 2d4:	00f32027          	fsw	f15,0(x6)
 2d8:	02c48fb3          	mul	x31,x9,x12
 2dc:	03eb0f33          	mul	x30,x22,x30
 2e0:	01f38633          	add	x12,x7,x31
 2e4:	03da8eb3          	mul	x29,x21,x29
 2e8:	01e603b3          	add	x7,x12,x30
 2ec:	01d38fb3          	add	x31,x7,x29
 2f0:	002f9f13          	slli	x30,x31,0x2
 2f4:	01eb8633          	add	x12,x23,x30
 2f8:	01262023          	sw	x18,0(x12)

000002fc <.L58>:
 2fc:	00178793          	addi	x15,x15,1
 300:	f6f694e3          	bne	x13,x15,268 <.L55>

00000304 <.L60>:
 304:	00170713          	addi	x14,x14,1
 308:	00b50533          	add	x10,x10,x11
 30c:	f4e99ae3          	bne	x19,x14,260 <.L57>

00000310 <.L56>:
 310:	00412e03          	lw	x28,4(x2)
 314:	00012903          	lw	x18,0(x2)
 318:	001a8a93          	addi	x21,x21,1
 31c:	01c30333          	add	x6,x6,x28
 320:	012686b3          	add	x13,x13,x18
 324:	f3aa94e3          	bne	x21,x26,24c <.L54>

00000328 <.L53>:
 328:	00812d83          	lw	x27,8(x2)
 32c:	02c12e83          	lw	x29,44(x2)
 330:	01812383          	lw	x7,24(x2)
 334:	001b0b13          	addi	x22,x22,1 # fc0001 <.L129+0xfbf125>
 338:	01b989b3          	add	x19,x19,x27
 33c:	01dc8cb3          	add	x25,x25,x29
 340:	ea7b1ee3          	bne	x22,x7,1fc <.L51>

00000344 <.L50>:
 344:	01412f83          	lw	x31,20(x2)
 348:	00148493          	addi	x9,x9,1
 34c:	e9f49ce3          	bne	x9,x31,1e4 <.L45>

00000350 <.L48>:
 350:	01012f03          	lw	x30,16(x2)
 354:	00140413          	addi	x8,x8,1
 358:	e88f10e3          	bne	x30,x8,1d8 <.L46>

0000035c <.L44>:
 35c:	000008b7          	lui	x17,0x0
 360:	00000c37          	lui	x24,0x0
 364:	00000d37          	lui	x26,0x0
 368:	000002b7          	lui	x5,0x0
 36c:	000d2083          	lw	x1,0(x26) # 0 <tensorlib_max_pool2d>
 370:	0008a583          	lw	x11,0(x17) # 0 <tensorlib_max_pool2d>
 374:	0002a803          	lw	x16,0(x5) # 0 <tensorlib_max_pool2d>
 378:	000c2a03          	lw	x20,0(x24) # 0 <tensorlib_max_pool2d>
 37c:	00000bb7          	lui	x23,0x0
 380:	000ba503          	lw	x10,0(x23) # 0 <tensorlib_max_pool2d>
 384:	00b08633          	add	x12,x1,x11
 388:	01480733          	add	x14,x16,x20
 38c:	01861793          	slli	x15,x12,0x18
 390:	01271a93          	slli	x21,x14,0x12
 394:	3f000e37          	lui	x28,0x3f000
 398:	00fc0937          	lui	x18,0xfc0
 39c:	000409b7          	lui	x19,0x40
 3a0:	01c7f333          	and	x6,x15,x28
 3a4:	00451693          	slli	x13,x10,0x4
 3a8:	012afb33          	and	x22,x21,x18
 3ac:	ff098e93          	addi	x29,x19,-16 # 3fff0 <.L129+0x3f114>
 3b0:	01636db3          	or	x27,x6,x22
 3b4:	01d6fcb3          	and	x25,x13,x29
 3b8:	019de3b3          	or	x7,x27,x25
 3bc:	c00004b7          	lui	x9,0xc0000
 3c0:	0093efb3          	or	x31,x7,x9
 3c4:	41001437          	lui	x8,0x41001
 3c8:	d1f42623          	sw	x31,-756(x8) # 41000d0c <.L129+0x40fffe30>
 3cc:	000c2f03          	lw	x30,0(x24)
 3d0:	0008ad03          	lw	x26,0(x17)
 3d4:	000000b7          	lui	x1,0x0
 3d8:	004f0893          	addi	x17,x30,4
 3dc:	00008793          	mv	x15,x1
 3e0:	011785b3          	add	x11,x15,x17
 3e4:	018d1293          	slli	x5,x26,0x18
 3e8:	0055e833          	or	x16,x11,x5
 3ec:	20040a37          	lui	x20,0x20040
 3f0:	01486bb3          	or	x23,x16,x20
 3f4:	00100513          	li	x10,1
 3f8:	00ab8023          	sb	x10,0(x23)
 3fc:	000c2c03          	lw	x24,0(x24)
 400:	20ac0663          	beq	x24,x10,60c <.L61>

00000404 <.L72>:
 404:	00100b13          	li	x22,1
 408:	0100006f          	j	418 <.L76>

0000040c <.L115>:
 40c:	00008d93          	mv	x27,x1
 410:	140da9af          	lr.w.aq	x19,(x27)
 414:	01698863          	beq	x19,x22,424 <.L75>

00000418 <.L76>:
 418:	00008693          	mv	x13,x1
 41c:	1006a72f          	lr.w	x14,(x13)
 420:	ff6716e3          	bne	x14,x22,40c <.L115>

00000424 <.L75>:
 424:	12c12083          	lw	x1,300(x2)
 428:	12812403          	lw	x8,296(x2)
 42c:	0007a023          	sw	x0,0(x15)
 430:	12412483          	lw	x9,292(x2)
 434:	12012903          	lw	x18,288(x2)
 438:	11c12983          	lw	x19,284(x2)
 43c:	11812a03          	lw	x20,280(x2)
 440:	11412a83          	lw	x21,276(x2)
 444:	11012b03          	lw	x22,272(x2)
 448:	10c12b83          	lw	x23,268(x2)
 44c:	10812c03          	lw	x24,264(x2)
 450:	10412c83          	lw	x25,260(x2)
 454:	10012d03          	lw	x26,256(x2)
 458:	0fc12d83          	lw	x27,252(x2)
 45c:	00000513          	li	x10,0
 460:	13010113          	addi	x2,x2,304
 464:	00008067          	ret

00000468 <.L109>:
 468:	00000937          	lui	x18,0x0
 46c:	00000b37          	lui	x22,0x0
 470:	06b00613          	li	x12,107
 474:	00090593          	mv	x11,x18
 478:	000b0513          	mv	x10,x22
 47c:	00000097          	auipc	x1,0x0
 480:	000080e7          	jalr	x1 # 47c <.L109+0x14>
 484:	04012583          	lw	x11,64(x2)
 488:	000006b7          	lui	x13,0x0
 48c:	00068513          	mv	x10,x13
 490:	00000097          	auipc	x1,0x0
 494:	000080e7          	jalr	x1 # 490 <.L109+0x28>
 498:	00000737          	lui	x14,0x0
 49c:	00072d83          	lw	x27,0(x14) # 0 <tensorlib_max_pool2d>
 4a0:	000009b7          	lui	x19,0x0
 4a4:	0009ae83          	lw	x29,0(x19) # 0 <tensorlib_max_pool2d>
 4a8:	010d9c93          	slli	x25,x27,0x10
 4ac:	4100f637          	lui	x12,0x4100f
 4b0:	01dc83b3          	add	x7,x25,x29
 4b4:	ac762c23          	sw	x7,-1320(x12) # 4100ead8 <.L129+0x4100dbfc>

000004b8 <.L30>:
 4b8:	0000006f          	j	4b8 <.L30>

000004bc <.L110>:
 4bc:	000002b7          	lui	x5,0x0
 4c0:	00000837          	lui	x16,0x0
 4c4:	00028593          	mv	x11,x5
 4c8:	06b00613          	li	x12,107
 4cc:	00080513          	mv	x10,x16
 4d0:	00000097          	auipc	x1,0x0
 4d4:	000080e7          	jalr	x1 # 4d0 <.L110+0x14>
 4d8:	04012583          	lw	x11,64(x2)
 4dc:	00000a37          	lui	x20,0x0
 4e0:	000a0513          	mv	x10,x20
 4e4:	00000097          	auipc	x1,0x0
 4e8:	000080e7          	jalr	x1 # 4e4 <.L110+0x28>
 4ec:	000005b7          	lui	x11,0x0
 4f0:	0005ab83          	lw	x23,0(x11) # 0 <tensorlib_max_pool2d>
 4f4:	00000537          	lui	x10,0x0
 4f8:	00052c03          	lw	x24,0(x10) # 0 <tensorlib_max_pool2d>
 4fc:	010b9a93          	slli	x21,x23,0x10
 500:	4100f337          	lui	x6,0x4100f
 504:	018a8e33          	add	x28,x21,x24
 508:	adc32c23          	sw	x28,-1320(x6) # 4100ead8 <.L129+0x4100dbfc>

0000050c <.L32>:
 50c:	0000006f          	j	50c <.L32>

00000510 <.L111>:
 510:	000000b7          	lui	x1,0x0
 514:	000003b7          	lui	x7,0x0
 518:	00008593          	mv	x11,x1
 51c:	06b00613          	li	x12,107
 520:	00038513          	mv	x10,x7
 524:	00000097          	auipc	x1,0x0
 528:	000080e7          	jalr	x1 # 524 <.L111+0x14>
 52c:	04012583          	lw	x11,64(x2)
 530:	00000637          	lui	x12,0x0
 534:	00060513          	mv	x10,x12
 538:	00000097          	auipc	x1,0x0
 53c:	000080e7          	jalr	x1 # 538 <.L111+0x28>
 540:	000004b7          	lui	x9,0x0
 544:	0004af83          	lw	x31,0(x9) # 0 <tensorlib_max_pool2d>
 548:	00000437          	lui	x8,0x0
 54c:	00042f03          	lw	x30,0(x8) # 0 <tensorlib_max_pool2d>
 550:	010f9d13          	slli	x26,x31,0x10
 554:	4100f7b7          	lui	x15,0x4100f
 558:	01ed08b3          	add	x17,x26,x30
 55c:	ad17ac23          	sw	x17,-1320(x15) # 4100ead8 <.L129+0x4100dbfc>

00000560 <.L34>:
 560:	0000006f          	j	560 <.L34>

00000564 <.L113>:
 564:	000008b7          	lui	x17,0x0
 568:	000007b7          	lui	x15,0x0
 56c:	00088593          	mv	x11,x17
 570:	06b00613          	li	x12,107
 574:	00078513          	mv	x10,x15
 578:	00000097          	auipc	x1,0x0
 57c:	000080e7          	jalr	x1 # 578 <.L113+0x14>
 580:	07c12583          	lw	x11,124(x2)
 584:	000002b7          	lui	x5,0x0
 588:	00028513          	mv	x10,x5
 58c:	00000097          	auipc	x1,0x0
 590:	000080e7          	jalr	x1 # 58c <.L113+0x28>
 594:	00000837          	lui	x16,0x0
 598:	00082a03          	lw	x20,0(x16) # 0 <tensorlib_max_pool2d>
 59c:	000005b7          	lui	x11,0x0
 5a0:	0005ab83          	lw	x23,0(x11) # 0 <tensorlib_max_pool2d>
 5a4:	010a1513          	slli	x10,x20,0x10
 5a8:	4100fab7          	lui	x21,0x4100f
 5ac:	01750c33          	add	x24,x10,x23
 5b0:	ad8aac23          	sw	x24,-1320(x21) # 4100ead8 <.L129+0x4100dbfc>

000005b4 <.L38>:
 5b4:	0000006f          	j	5b4 <.L38>

000005b8 <.L112>:
 5b8:	00000e37          	lui	x28,0x0
 5bc:	00000337          	lui	x6,0x0
 5c0:	000e0593          	mv	x11,x28
 5c4:	06b00613          	li	x12,107
 5c8:	00030513          	mv	x10,x6
 5cc:	00000097          	auipc	x1,0x0
 5d0:	000080e7          	jalr	x1 # 5cc <.L112+0x14>
 5d4:	04012583          	lw	x11,64(x2)
 5d8:	00000937          	lui	x18,0x0
 5dc:	00090513          	mv	x10,x18
 5e0:	00000097          	auipc	x1,0x0
 5e4:	000080e7          	jalr	x1 # 5e0 <.L112+0x28>
 5e8:	00000b37          	lui	x22,0x0
 5ec:	000b2683          	lw	x13,0(x22) # 0 <tensorlib_max_pool2d>
 5f0:	00000737          	lui	x14,0x0
 5f4:	00072d83          	lw	x27,0(x14) # 0 <tensorlib_max_pool2d>
 5f8:	01069993          	slli	x19,x13,0x10
 5fc:	4100fcb7          	lui	x25,0x4100f
 600:	01b98eb3          	add	x29,x19,x27
 604:	addcac23          	sw	x29,-1320(x25) # 4100ead8 <.L129+0x4100dbfc>

00000608 <.L36>:
 608:	0000006f          	j	608 <.L36>

0000060c <.L61>:
 60c:	0047c603          	lbu	x12,4(x15) # 4 <tensorlib_max_pool2d+0x4>
 610:	0ff67713          	andi	x14,x12,255
 614:	fe070ce3          	beqz	x14,60c <.L61>
 618:	0057ca83          	lbu	x21,5(x15)
 61c:	0ffafe13          	andi	x28,x21,255
 620:	fe0e06e3          	beqz	x28,60c <.L61>
 624:	0067c303          	lbu	x6,6(x15)
 628:	0ff37913          	andi	x18,x6,255
 62c:	fe0900e3          	beqz	x18,60c <.L61>
 630:	0077cb03          	lbu	x22,7(x15)
 634:	0ffb7693          	andi	x13,x22,255
 638:	fc068ae3          	beqz	x13,60c <.L61>
 63c:	00000db7          	lui	x27,0x0
 640:	000da983          	lw	x19,0(x27) # 0 <tensorlib_max_pool2d>
 644:	210404b7          	lui	x9,0x21040
 648:	00100e93          	li	x29,1
 64c:	00c98c93          	addi	x25,x19,12
 650:	019783b3          	add	x7,x15,x25
 654:	0093efb3          	or	x31,x7,x9
 658:	01df8023          	sb	x29,0(x31) # 3f000000 <.L129+0x3efff124>
 65c:	00000437          	lui	x8,0x0
 660:	00042f03          	lw	x30,0(x8) # 0 <tensorlib_max_pool2d>
 664:	dbdf10e3          	bne	x30,x29,404 <.L72>
 668:	000da483          	lw	x9,0(x27)
 66c:	07e48e63          	beq	x9,x30,6e8 <.L66>

00000670 <.L71>:
 670:	00100f93          	li	x31,1
 674:	0100006f          	j	684 <.L65>

00000678 <.L116>:
 678:	00878d13          	addi	x26,x15,8
 67c:	140d28af          	lr.w.aq	x17,(x26)
 680:	01f88863          	beq	x17,x31,690 <.L73>

00000684 <.L65>:
 684:	00878413          	addi	x8,x15,8
 688:	10042f2f          	lr.w	x30,(x8)
 68c:	ffff16e3          	bne	x30,x31,678 <.L116>

00000690 <.L73>:
 690:	0007a423          	sw	x0,8(x15)
 694:	00078223          	sb	x0,4(x15)
 698:	000782a3          	sb	x0,5(x15)
 69c:	00078323          	sb	x0,6(x15)
 6a0:	000783a3          	sb	x0,7(x15)
 6a4:	0007a023          	sw	x0,0(x15)
 6a8:	00000a93          	li	x21,0
 6ac:	00008793          	mv	x15,x1
 6b0:	200002b7          	lui	x5,0x20000
 6b4:	00100813          	li	x16,1
 6b8:	00040a37          	lui	x20,0x40
 6bc:	001005b7          	lui	x11,0x100

000006c0 <.L74>:
 6c0:	00000bb7          	lui	x23,0x0
 6c4:	000ba503          	lw	x10,0(x23) # 0 <tensorlib_max_pool2d>
 6c8:	0157ec33          	or	x24,x15,x21
 6cc:	014a8ab3          	add	x21,x21,x20
 6d0:	01851e13          	slli	x28,x10,0x18
 6d4:	018e6333          	or	x6,x28,x24
 6d8:	00536933          	or	x18,x6,x5
 6dc:	01092023          	sw	x16,0(x18) # 0 <tensorlib_max_pool2d>
 6e0:	feba90e3          	bne	x21,x11,6c0 <.L74>
 6e4:	d21ff06f          	j	404 <.L72>

000006e8 <.L66>:
 6e8:	00c7cd03          	lbu	x26,12(x15)
 6ec:	0ffd7893          	andi	x17,x26,255
 6f0:	fe088ce3          	beqz	x17,6e8 <.L66>
 6f4:	00d7c583          	lbu	x11,13(x15)
 6f8:	0ff5f293          	andi	x5,x11,255
 6fc:	fe0286e3          	beqz	x5,6e8 <.L66>
 700:	00e7c803          	lbu	x16,14(x15)
 704:	0ff87a13          	andi	x20,x16,255
 708:	fe0a00e3          	beqz	x20,6e8 <.L66>
 70c:	00f7cb83          	lbu	x23,15(x15)
 710:	0ffbf513          	andi	x10,x23,255
 714:	fc050ae3          	beqz	x10,6e8 <.L66>
 718:	00078623          	sb	x0,12(x15)
 71c:	000786a3          	sb	x0,13(x15)
 720:	00078723          	sb	x0,14(x15)
 724:	000787a3          	sb	x0,15(x15)
 728:	00000c37          	lui	x24,0x0
 72c:	0007a423          	sw	x0,8(x15)
 730:	00000613          	li	x12,0
 734:	008c0a93          	addi	x21,x24,8 # 8 <tensorlib_max_pool2d+0x8>
 738:	03fc0e37          	lui	x28,0x3fc0
 73c:	20000337          	lui	x6,0x20000
 740:	00100913          	li	x18,1
 744:	01000b37          	lui	x22,0x1000
 748:	040006b7          	lui	x13,0x4000

0000074c <.L70>:
 74c:	01249713          	slli	x14,x9,0x12
 750:	00caedb3          	or	x27,x21,x12
 754:	01c779b3          	and	x19,x14,x28
 758:	01b9eeb3          	or	x29,x19,x27
 75c:	006eecb3          	or	x25,x29,x6
 760:	012ca023          	sw	x18,0(x25)
 764:	000003b7          	lui	x7,0x0
 768:	01660633          	add	x12,x12,x22
 76c:	0003a483          	lw	x9,0(x7) # 0 <tensorlib_max_pool2d>
 770:	fcd61ee3          	bne	x12,x13,74c <.L70>
 774:	ef248ee3          	beq	x9,x18,670 <.L71>
 778:	c8dff06f          	j	404 <.L72>

0000077c <.L114>:
 77c:	000000b7          	lui	x1,0x0
 780:	00000eb7          	lui	x29,0x0
 784:	06b00613          	li	x12,107
 788:	00008593          	mv	x11,x1
 78c:	000e8513          	mv	x10,x29
 790:	00000097          	auipc	x1,0x0
 794:	000080e7          	jalr	x1 # 790 <.L114+0x14>
 798:	07c12583          	lw	x11,124(x2)
 79c:	00000cb7          	lui	x25,0x0
 7a0:	000c8513          	mv	x10,x25
 7a4:	00000097          	auipc	x1,0x0
 7a8:	000080e7          	jalr	x1 # 7a4 <.L114+0x28>
 7ac:	00000637          	lui	x12,0x0
 7b0:	00062383          	lw	x7,0(x12) # 0 <tensorlib_max_pool2d>
 7b4:	000004b7          	lui	x9,0x0
 7b8:	0004af83          	lw	x31,0(x9) # 0 <tensorlib_max_pool2d>
 7bc:	01039413          	slli	x8,x7,0x10
 7c0:	4100fd37          	lui	x26,0x4100f
 7c4:	01f40f33          	add	x30,x8,x31
 7c8:	aded2c23          	sw	x30,-1320(x26) # 4100ead8 <.L129+0x4100dbfc>

000007cc <.L40>:
 7cc:	0000006f          	j	7cc <.L40>

000007d0 <tensorlib_max_pool2d_backward>:
 7d0:	f0010113          	addi	x2,x2,-256
 7d4:	0e912a23          	sw	x9,244(x2)
 7d8:	00050493          	mv	x9,x10
 7dc:	00c10513          	addi	x10,x2,12
 7e0:	0e112e23          	sw	x1,252(x2)
 7e4:	0e812c23          	sw	x8,248(x2)
 7e8:	0f212823          	sw	x18,240(x2)
 7ec:	00060413          	mv	x8,x12
 7f0:	0f312623          	sw	x19,236(x2)
 7f4:	0f412423          	sw	x20,232(x2)
 7f8:	0f512223          	sw	x21,228(x2)
 7fc:	0f612023          	sw	x22,224(x2)
 800:	0d712e23          	sw	x23,220(x2)
 804:	0d812c23          	sw	x24,216(x2)
 808:	0d912a23          	sw	x25,212(x2)
 80c:	0da12823          	sw	x26,208(x2)
 810:	0db12623          	sw	x27,204(x2)
 814:	00000097          	auipc	x1,0x0
 818:	000080e7          	jalr	x1 # 814 <tensorlib_max_pool2d_backward+0x44>
 81c:	00048593          	mv	x11,x9
 820:	04810513          	addi	x10,x2,72
 824:	00000097          	auipc	x1,0x0
 828:	000080e7          	jalr	x1 # 824 <tensorlib_max_pool2d_backward+0x54>
 82c:	00040593          	mv	x11,x8
 830:	08410513          	addi	x10,x2,132
 834:	00000097          	auipc	x1,0x0
 838:	000080e7          	jalr	x1 # 834 <tensorlib_max_pool2d_backward+0x64>
 83c:	01012783          	lw	x15,16(x2)
 840:	38078e63          	beqz	x15,bdc <.L200>
 844:	00100713          	li	x14,1
 848:	34f77063          	bgeu	x14,x15,b88 <.L201>
 84c:	00200093          	li	x1,2
 850:	50178263          	beq	x15,x1,d54 <.L202>
 854:	00300693          	li	x13,3
 858:	54d78863          	beq	x15,x13,da8 <.L203>
 85c:	04c12283          	lw	x5,76(x2)
 860:	3c50f863          	bgeu	x1,x5,c30 <.L204>
 864:	62d28463          	beq	x5,x13,e8c <.L205>
 868:	00000337          	lui	x6,0x0
 86c:	00000537          	lui	x10,0x0
 870:	00000cb7          	lui	x25,0x0
 874:	00000c37          	lui	x24,0x0
 878:	00032383          	lw	x7,0(x6) # 0 <tensorlib_max_pool2d>
 87c:	00052803          	lw	x16,0(x10) # 0 <tensorlib_max_pool2d>
 880:	000ca583          	lw	x11,0(x25) # 0 <tensorlib_max_pool2d>
 884:	000c2603          	lw	x12,0(x24) # 0 <tensorlib_max_pool2d>
 888:	00000db7          	lui	x27,0x0
 88c:	000da883          	lw	x17,0(x27) # 0 <tensorlib_max_pool2d>
 890:	00b38933          	add	x18,x7,x11
 894:	00c809b3          	add	x19,x16,x12
 898:	01891a13          	slli	x20,x18,0x18
 89c:	00fc0d37          	lui	x26,0xfc0
 8a0:	01299a93          	slli	x21,x19,0x12
 8a4:	3f000b37          	lui	x22,0x3f000
 8a8:	00040437          	lui	x8,0x40
 8ac:	016a7bb3          	and	x23,x20,x22
 8b0:	01aafe33          	and	x28,x21,x26
 8b4:	00489e93          	slli	x29,x17,0x4
 8b8:	ff040793          	addi	x15,x8,-16 # 3fff0 <.L129+0x3f114>
 8bc:	01812f03          	lw	x30,24(x2)
 8c0:	05412f83          	lw	x31,84(x2)
 8c4:	01cbe4b3          	or	x9,x23,x28
 8c8:	00fef733          	and	x14,x29,x15
 8cc:	00e4e0b3          	or	x1,x9,x14
 8d0:	800006b7          	lui	x13,0x80000
 8d4:	00d0e2b3          	or	x5,x1,x13
 8d8:	41001337          	lui	x6,0x41001
 8dc:	000f2d03          	lw	x26,0(x30)
 8e0:	004f2b83          	lw	x23,4(x30)
 8e4:	008f2a03          	lw	x20,8(x30)
 8e8:	00cf2e03          	lw	x28,12(x30)
 8ec:	008fa383          	lw	x7,8(x31)
 8f0:	00cfa583          	lw	x11,12(x31)
 8f4:	00000537          	lui	x10,0x0
 8f8:	d0532623          	sw	x5,-756(x6) # 41000d0c <.L129+0x40fffe30>
 8fc:	00052803          	lw	x16,0(x10) # 0 <tensorlib_max_pool2d>
 900:	18081463          	bnez	x16,a88 <.L133>
 904:	180d0263          	beqz	x26,a88 <.L133>
 908:	05012083          	lw	x1,80(x2)
 90c:	05812e83          	lw	x29,88(x2)
 910:	00000313          	li	x6,0

00000914 <.L136>:
 914:	00000513          	li	x10,0
 918:	060b8263          	beqz	x23,97c <.L138>

0000091c <.L134>:
 91c:	00000613          	li	x12,0
 920:	04038a63          	beqz	x7,974 <.L140>

00000924 <.L137>:
 924:	04058463          	beqz	x11,96c <.L141>
 928:	0000a883          	lw	x17,0(x1)
 92c:	0040a903          	lw	x18,4(x1)
 930:	0080a983          	lw	x19,8(x1)
 934:	03130ab3          	mul	x21,x6,x17
 938:	00c0ab03          	lw	x22,12(x1)
 93c:	00000713          	li	x14,0
 940:	002b1f93          	slli	x31,x22,0x2
 944:	03250f33          	mul	x30,x10,x18
 948:	033604b3          	mul	x9,x12,x19
 94c:	01ea8433          	add	x8,x21,x30
 950:	009407b3          	add	x15,x8,x9
 954:	00279693          	slli	x13,x15,0x2
 958:	00de82b3          	add	x5,x29,x13

0000095c <.L142>:
 95c:	0002a023          	sw	x0,0(x5) # 20000000 <.L129+0x1ffff124>
 960:	00170713          	addi	x14,x14,1
 964:	01f282b3          	add	x5,x5,x31
 968:	feb71ae3          	bne	x14,x11,95c <.L142>

0000096c <.L141>:
 96c:	00160613          	addi	x12,x12,1
 970:	fa761ae3          	bne	x12,x7,924 <.L137>

00000974 <.L140>:
 974:	00150513          	addi	x10,x10,1
 978:	fb7512e3          	bne	x10,x23,91c <.L134>

0000097c <.L138>:
 97c:	00130313          	addi	x6,x6,1
 980:	f86d1ae3          	bne	x26,x6,914 <.L136>
 984:	08c12483          	lw	x9,140(x2)
 988:	09412b03          	lw	x22,148(x2)
 98c:	01412403          	lw	x8,20(x2)
 990:	01c12a83          	lw	x21,28(x2)
 994:	00000993          	li	x19,0

00000998 <.L144>:
 998:	00000913          	li	x18,0
 99c:	0e0b8263          	beqz	x23,a80 <.L146>

000009a0 <.L143>:
 9a0:	00000393          	li	x7,0
 9a4:	0c0a0a63          	beqz	x20,a78 <.L148>

000009a8 <.L145>:
 9a8:	0c0e0463          	beqz	x28,a70 <.L149>
 9ac:	0004a803          	lw	x16,0(x9)
 9b0:	0044a783          	lw	x15,4(x9)
 9b4:	00c4a603          	lw	x12,12(x9)
 9b8:	03098733          	mul	x14,x19,x16
 9bc:	00042683          	lw	x13,0(x8)
 9c0:	00261313          	slli	x6,x12,0x2
 9c4:	0000a283          	lw	x5,0(x1)
 9c8:	00c42883          	lw	x17,12(x8)
 9cc:	00c0af83          	lw	x31,12(x1)
 9d0:	0080af03          	lw	x30,8(x1)
 9d4:	00289893          	slli	x17,x17,0x2
 9d8:	00000513          	li	x10,0
 9dc:	02f90833          	mul	x16,x18,x15
 9e0:	00442783          	lw	x15,4(x8)
 9e4:	01070633          	add	x12,x14,x16
 9e8:	02f90833          	mul	x16,x18,x15
 9ec:	0084a703          	lw	x14,8(x9)
 9f0:	00842783          	lw	x15,8(x8)
 9f4:	02d986b3          	mul	x13,x19,x13
 9f8:	02e38733          	mul	x14,x7,x14
 9fc:	010686b3          	add	x13,x13,x16
 a00:	02f387b3          	mul	x15,x7,x15
 a04:	00e60633          	add	x12,x12,x14
 a08:	00261813          	slli	x16,x12,0x2
 a0c:	010b0633          	add	x12,x22,x16
 a10:	00f68733          	add	x14,x13,x15
 a14:	0040a783          	lw	x15,4(x1)
 a18:	025982b3          	mul	x5,x19,x5
 a1c:	00271693          	slli	x13,x14,0x2
 a20:	00da86b3          	add	x13,x21,x13
 a24:	02f90833          	mul	x16,x18,x15
 a28:	010282b3          	add	x5,x5,x16

00000a2c <.L150>:
 a2c:	00062703          	lw	x14,0(x12)
 a30:	0006a707          	flw	f14,0(x13) # 80000000 <.L129+0x7ffff124>
 a34:	00150513          	addi	x10,x10,1
 a38:	02b777b3          	remu	x15,x14,x11
 a3c:	00660633          	add	x12,x12,x6
 a40:	011686b3          	add	x13,x13,x17
 a44:	02b75833          	divu	x16,x14,x11
 a48:	03f787b3          	mul	x15,x15,x31
 a4c:	03e80733          	mul	x14,x16,x30
 a50:	00e78833          	add	x16,x15,x14
 a54:	005807b3          	add	x15,x16,x5
 a58:	00279713          	slli	x14,x15,0x2
 a5c:	00ee8833          	add	x16,x29,x14
 a60:	00082787          	flw	f15,0(x16)
 a64:	00e7f053          	fadd.s	f0,f15,f14
 a68:	00082027          	fsw	f0,0(x16)
 a6c:	fdc510e3          	bne	x10,x28,a2c <.L150>

00000a70 <.L149>:
 a70:	00138393          	addi	x7,x7,1
 a74:	f3439ae3          	bne	x7,x20,9a8 <.L145>

00000a78 <.L148>:
 a78:	00190913          	addi	x18,x18,1
 a7c:	f37912e3          	bne	x18,x23,9a0 <.L143>

00000a80 <.L146>:
 a80:	00198993          	addi	x19,x19,1
 a84:	f13d1ae3          	bne	x26,x19,998 <.L144>

00000a88 <.L133>:
 a88:	00000d37          	lui	x26,0x0
 a8c:	00000e37          	lui	x28,0x0
 a90:	000d2b83          	lw	x23,0(x26) # 0 <tensorlib_max_pool2d>
 a94:	000e2583          	lw	x11,0(x28) # 0 <tensorlib_max_pool2d>
 a98:	000caa03          	lw	x20,0(x25)
 a9c:	000c2083          	lw	x1,0(x24)
 aa0:	000dad83          	lw	x27,0(x27)
 aa4:	014b8eb3          	add	x29,x23,x20
 aa8:	001584b3          	add	x9,x11,x1
 aac:	018e9b13          	slli	x22,x29,0x18
 ab0:	01249413          	slli	x8,x9,0x12
 ab4:	3f000ab7          	lui	x21,0x3f000
 ab8:	00fc0f37          	lui	x30,0xfc0
 abc:	00040537          	lui	x10,0x40
 ac0:	004d9893          	slli	x17,x27,0x4
 ac4:	015b7fb3          	and	x31,x22,x21
 ac8:	01e47333          	and	x6,x8,x30
 acc:	ff050613          	addi	x12,x10,-16 # 3fff0 <.L129+0x3f114>
 ad0:	006fe2b3          	or	x5,x31,x6
 ad4:	00c8f6b3          	and	x13,x17,x12
 ad8:	00d2e7b3          	or	x15,x5,x13
 adc:	c0000737          	lui	x14,0xc0000
 ae0:	00e7e833          	or	x16,x15,x14
 ae4:	410013b7          	lui	x7,0x41001
 ae8:	d103a623          	sw	x16,-756(x7) # 41000d0c <.L129+0x40fffe30>
 aec:	000c2903          	lw	x18,0(x24)
 af0:	000ca983          	lw	x19,0(x25)
 af4:	00000d37          	lui	x26,0x0
 af8:	00490b93          	addi	x23,x18,4
 afc:	000d0793          	mv	x15,x26
 b00:	01778a33          	add	x20,x15,x23
 b04:	01899e13          	slli	x28,x19,0x18
 b08:	01ca65b3          	or	x11,x20,x28
 b0c:	200400b7          	lui	x1,0x20040
 b10:	0015edb3          	or	x27,x11,x1
 b14:	00100e93          	li	x29,1
 b18:	01dd8023          	sb	x29,0(x27)
 b1c:	000c2483          	lw	x9,0(x24)
 b20:	17d48263          	beq	x9,x29,c84 <.L151>

00000b24 <.L162>:
 b24:	00100c93          	li	x25,1
 b28:	0100006f          	j	b38 <.L166>

00000b2c <.L206>:
 b2c:	000d0313          	mv	x6,x26
 b30:	140328af          	lr.w.aq	x17,(x6)
 b34:	01988863          	beq	x17,x25,b44 <.L165>

00000b38 <.L166>:
 b38:	000d0f93          	mv	x31,x26
 b3c:	100faf2f          	lr.w	x30,(x31)
 b40:	ff9f16e3          	bne	x30,x25,b2c <.L206>

00000b44 <.L165>:
 b44:	0fc12083          	lw	x1,252(x2)
 b48:	0f812403          	lw	x8,248(x2)
 b4c:	0007a023          	sw	x0,0(x15)
 b50:	0f412483          	lw	x9,244(x2)
 b54:	0f012903          	lw	x18,240(x2)
 b58:	0ec12983          	lw	x19,236(x2)
 b5c:	0e812a03          	lw	x20,232(x2)
 b60:	0e412a83          	lw	x21,228(x2)
 b64:	0e012b03          	lw	x22,224(x2)
 b68:	0dc12b83          	lw	x23,220(x2)
 b6c:	0d812c03          	lw	x24,216(x2)
 b70:	0d412c83          	lw	x25,212(x2)
 b74:	0d012d03          	lw	x26,208(x2)
 b78:	0cc12d83          	lw	x27,204(x2)
 b7c:	00000513          	li	x10,0
 b80:	10010113          	addi	x2,x2,256
 b84:	00008067          	ret

00000b88 <.L201>:
 b88:	000007b7          	lui	x15,0x0
 b8c:	00000a37          	lui	x20,0x0
 b90:	00078593          	mv	x11,x15
 b94:	06b00613          	li	x12,107
 b98:	000a0513          	mv	x10,x20
 b9c:	00000097          	auipc	x1,0x0
 ba0:	000080e7          	jalr	x1 # b9c <.L201+0x14>
 ba4:	01012583          	lw	x11,16(x2)
 ba8:	00000e37          	lui	x28,0x0
 bac:	000e0513          	mv	x10,x28
 bb0:	00000097          	auipc	x1,0x0
 bb4:	000080e7          	jalr	x1 # bb0 <.L201+0x28>
 bb8:	000005b7          	lui	x11,0x0
 bbc:	0005ad83          	lw	x27,0(x11) # 0 <tensorlib_max_pool2d>
 bc0:	00000eb7          	lui	x29,0x0
 bc4:	000ea483          	lw	x9,0(x29) # 0 <tensorlib_max_pool2d>
 bc8:	010d9b13          	slli	x22,x27,0x10
 bcc:	4100fab7          	lui	x21,0x4100f
 bd0:	009b0433          	add	x8,x22,x9
 bd4:	ac8aac23          	sw	x8,-1320(x21) # 4100ead8 <.L129+0x4100dbfc>

00000bd8 <.L121>:
 bd8:	0000006f          	j	bd8 <.L121>

00000bdc <.L200>:
 bdc:	000000b7          	lui	x1,0x0
 be0:	00000cb7          	lui	x25,0x0
 be4:	00008593          	mv	x11,x1
 be8:	06b00613          	li	x12,107
 bec:	000c8513          	mv	x10,x25
 bf0:	00000097          	auipc	x1,0x0
 bf4:	000080e7          	jalr	x1 # bf0 <.L200+0x14>
 bf8:	01012583          	lw	x11,16(x2)
 bfc:	00000fb7          	lui	x31,0x0
 c00:	000f8513          	mv	x10,x31
 c04:	00000097          	auipc	x1,0x0
 c08:	000080e7          	jalr	x1 # c04 <.L200+0x28>
 c0c:	00000f37          	lui	x30,0x0
 c10:	000f2303          	lw	x6,0(x30) # 0 <tensorlib_max_pool2d>
 c14:	000008b7          	lui	x17,0x0
 c18:	0008ad03          	lw	x26,0(x17) # 0 <tensorlib_max_pool2d>
 c1c:	01031293          	slli	x5,x6,0x10
 c20:	4100f6b7          	lui	x13,0x4100f
 c24:	01a28533          	add	x10,x5,x26
 c28:	aca6ac23          	sw	x10,-1320(x13) # 4100ead8 <.L129+0x4100dbfc>

00000c2c <.L119>:
 c2c:	0000006f          	j	c2c <.L119>

00000c30 <.L204>:
 c30:	000009b7          	lui	x19,0x0
 c34:	00000bb7          	lui	x23,0x0
 c38:	06b00613          	li	x12,107
 c3c:	00098593          	mv	x11,x19
 c40:	000b8513          	mv	x10,x23
 c44:	00000097          	auipc	x1,0x0
 c48:	000080e7          	jalr	x1 # c44 <.L204+0x14>
 c4c:	04c12583          	lw	x11,76(x2)
 c50:	000007b7          	lui	x15,0x0
 c54:	00078513          	mv	x10,x15
 c58:	00000097          	auipc	x1,0x0
 c5c:	000080e7          	jalr	x1 # c58 <.L204+0x28>
 c60:	00000a37          	lui	x20,0x0
 c64:	000a2e03          	lw	x28,0(x20) # 0 <tensorlib_max_pool2d>
 c68:	000005b7          	lui	x11,0x0
 c6c:	0005ad83          	lw	x27,0(x11) # 0 <tensorlib_max_pool2d>
 c70:	010e1e93          	slli	x29,x28,0x10
 c74:	4100fb37          	lui	x22,0x4100f
 c78:	01be84b3          	add	x9,x29,x27
 c7c:	ac9b2c23          	sw	x9,-1320(x22) # 4100ead8 <.L129+0x4100dbfc>

00000c80 <.L127>:
 c80:	0000006f          	j	c80 <.L127>

00000c84 <.L151>:
 c84:	0047cb03          	lbu	x22,4(x15) # 4 <tensorlib_max_pool2d+0x4>
 c88:	0ffb7413          	andi	x8,x22,255
 c8c:	fe040ce3          	beqz	x8,c84 <.L151>
 c90:	0057ca83          	lbu	x21,5(x15)
 c94:	0ffaff93          	andi	x31,x21,255
 c98:	fe0f86e3          	beqz	x31,c84 <.L151>
 c9c:	0067cf03          	lbu	x30,6(x15)
 ca0:	0fff7313          	andi	x6,x30,255
 ca4:	fe0300e3          	beqz	x6,c84 <.L151>
 ca8:	0077c883          	lbu	x17,7(x15)
 cac:	0ff8f293          	andi	x5,x17,255
 cb0:	fc028ae3          	beqz	x5,c84 <.L151>
 cb4:	000ca503          	lw	x10,0(x25) # 0 <tensorlib_max_pool2d>
 cb8:	21040837          	lui	x16,0x21040
 cbc:	00100693          	li	x13,1
 cc0:	00c50613          	addi	x12,x10,12
 cc4:	00c78733          	add	x14,x15,x12
 cc8:	010763b3          	or	x7,x14,x16
 ccc:	00d38023          	sb	x13,0(x7)
 cd0:	000c2903          	lw	x18,0(x24)
 cd4:	e4d918e3          	bne	x18,x13,b24 <.L162>
 cd8:	000ca803          	lw	x16,0(x25)
 cdc:	13280063          	beq	x16,x18,dfc <.L156>

00000ce0 <.L161>:
 ce0:	00100c13          	li	x24,1
 ce4:	0100006f          	j	cf4 <.L155>

00000ce8 <.L207>:
 ce8:	00878993          	addi	x19,x15,8
 cec:	1409abaf          	lr.w.aq	x23,(x19)
 cf0:	018b8863          	beq	x23,x24,d00 <.L163>

00000cf4 <.L155>:
 cf4:	00878393          	addi	x7,x15,8
 cf8:	1003a92f          	lr.w	x18,(x7)
 cfc:	ff8916e3          	bne	x18,x24,ce8 <.L207>

00000d00 <.L163>:
 d00:	0007a423          	sw	x0,8(x15)
 d04:	00078223          	sb	x0,4(x15)
 d08:	000782a3          	sb	x0,5(x15)
 d0c:	00078323          	sb	x0,6(x15)
 d10:	000783a3          	sb	x0,7(x15)
 d14:	0007a023          	sw	x0,0(x15)
 d18:	00000493          	li	x9,0
 d1c:	000d0793          	mv	x15,x26
 d20:	20000a37          	lui	x20,0x20000
 d24:	00100e13          	li	x28,1
 d28:	000400b7          	lui	x1,0x40
 d2c:	001005b7          	lui	x11,0x100

00000d30 <.L164>:
 d30:	000cad83          	lw	x27,0(x25)
 d34:	0097eeb3          	or	x29,x15,x9
 d38:	001484b3          	add	x9,x9,x1
 d3c:	018d9b13          	slli	x22,x27,0x18
 d40:	01db6433          	or	x8,x22,x29
 d44:	01446ab3          	or	x21,x8,x20
 d48:	01caa023          	sw	x28,0(x21)
 d4c:	feb492e3          	bne	x9,x11,d30 <.L164>
 d50:	dd5ff06f          	j	b24 <.L162>

00000d54 <.L202>:
 d54:	000006b7          	lui	x13,0x0
 d58:	00000537          	lui	x10,0x0
 d5c:	00050593          	mv	x11,x10
 d60:	06b00613          	li	x12,107
 d64:	00068513          	mv	x10,x13
 d68:	00000097          	auipc	x1,0x0
 d6c:	000080e7          	jalr	x1 # d68 <.L202+0x14>
 d70:	01012583          	lw	x11,16(x2)
 d74:	00000637          	lui	x12,0x0
 d78:	00060513          	mv	x10,x12
 d7c:	00000097          	auipc	x1,0x0
 d80:	000080e7          	jalr	x1 # d7c <.L202+0x28>
 d84:	00000737          	lui	x14,0x0
 d88:	00072803          	lw	x16,0(x14) # 0 <tensorlib_max_pool2d>
 d8c:	00000c37          	lui	x24,0x0
 d90:	000c2383          	lw	x7,0(x24) # 0 <tensorlib_max_pool2d>
 d94:	01081913          	slli	x18,x16,0x10
 d98:	4100fbb7          	lui	x23,0x4100f
 d9c:	007909b3          	add	x19,x18,x7
 da0:	ad3bac23          	sw	x19,-1320(x23) # 4100ead8 <.L129+0x4100dbfc>

00000da4 <.L123>:
 da4:	0000006f          	j	da4 <.L123>

00000da8 <.L203>:
 da8:	000000b7          	lui	x1,0x0
 dac:	00000437          	lui	x8,0x0
 db0:	00008593          	mv	x11,x1
 db4:	06b00613          	li	x12,107
 db8:	00040513          	mv	x10,x8
 dbc:	00000097          	auipc	x1,0x0
 dc0:	000080e7          	jalr	x1 # dbc <.L203+0x14>
 dc4:	01012583          	lw	x11,16(x2)
 dc8:	00000ab7          	lui	x21,0x0
 dcc:	000a8513          	mv	x10,x21
 dd0:	00000097          	auipc	x1,0x0
 dd4:	000080e7          	jalr	x1 # dd0 <.L203+0x28>
 dd8:	00000cb7          	lui	x25,0x0
 ddc:	000caf83          	lw	x31,0(x25) # 0 <tensorlib_max_pool2d>
 de0:	00000f37          	lui	x30,0x0
 de4:	000f2303          	lw	x6,0(x30) # 0 <tensorlib_max_pool2d>
 de8:	010f9893          	slli	x17,x31,0x10
 dec:	4100f2b7          	lui	x5,0x4100f
 df0:	00688d33          	add	x26,x17,x6
 df4:	ada2ac23          	sw	x26,-1320(x5) # 4100ead8 <.L129+0x4100dbfc>

00000df8 <.L125>:
 df8:	0000006f          	j	df8 <.L125>

00000dfc <.L156>:
 dfc:	00c7c983          	lbu	x19,12(x15)
 e00:	0ff9fb93          	andi	x23,x19,255
 e04:	fe0b8ce3          	beqz	x23,dfc <.L156>
 e08:	00d7ca03          	lbu	x20,13(x15)
 e0c:	0ffa7e13          	andi	x28,x20,255
 e10:	fe0e06e3          	beqz	x28,dfc <.L156>
 e14:	00e7c583          	lbu	x11,14(x15)
 e18:	0ff5f093          	andi	x1,x11,255
 e1c:	fe0080e3          	beqz	x1,dfc <.L156>
 e20:	00f7cd83          	lbu	x27,15(x15)
 e24:	0ffdfe93          	andi	x29,x27,255
 e28:	fc0e8ae3          	beqz	x29,dfc <.L156>
 e2c:	00078623          	sb	x0,12(x15)
 e30:	000786a3          	sb	x0,13(x15)
 e34:	00078723          	sb	x0,14(x15)
 e38:	000787a3          	sb	x0,15(x15)
 e3c:	000004b7          	lui	x9,0x0
 e40:	0007a423          	sw	x0,8(x15)
 e44:	00000613          	li	x12,0
 e48:	00848b13          	addi	x22,x9,8 # 8 <tensorlib_max_pool2d+0x8>
 e4c:	03fc0437          	lui	x8,0x3fc0
 e50:	20000ab7          	lui	x21,0x20000
 e54:	00100f93          	li	x31,1
 e58:	01000f37          	lui	x30,0x1000
 e5c:	04000337          	lui	x6,0x4000

00000e60 <.L160>:
 e60:	01281893          	slli	x17,x16,0x12
 e64:	00cb62b3          	or	x5,x22,x12
 e68:	0088f533          	and	x10,x17,x8
 e6c:	005566b3          	or	x13,x10,x5
 e70:	0156e733          	or	x14,x13,x21
 e74:	01f72023          	sw	x31,0(x14)
 e78:	01e60633          	add	x12,x12,x30
 e7c:	000c2803          	lw	x16,0(x24)
 e80:	fe6610e3          	bne	x12,x6,e60 <.L160>
 e84:	e5f80ee3          	beq	x16,x31,ce0 <.L161>
 e88:	c9dff06f          	j	b24 <.L162>

00000e8c <.L205>:
 e8c:	000002b7          	lui	x5,0x0
 e90:	00000d37          	lui	x26,0x0
 e94:	06b00613          	li	x12,107
 e98:	000d0593          	mv	x11,x26
 e9c:	00028513          	mv	x10,x5
 ea0:	00000097          	auipc	x1,0x0
 ea4:	000080e7          	jalr	x1 # ea0 <.L205+0x14>
 ea8:	04c12583          	lw	x11,76(x2)
 eac:	00000537          	lui	x10,0x0
 eb0:	00050513          	mv	x10,x10
 eb4:	00000097          	auipc	x1,0x0
 eb8:	000080e7          	jalr	x1 # eb4 <.L205+0x28>
 ebc:	000006b7          	lui	x13,0x0
 ec0:	0006a603          	lw	x12,0(x13) # 0 <tensorlib_max_pool2d>
 ec4:	00000737          	lui	x14,0x0
 ec8:	00072803          	lw	x16,0(x14) # 0 <tensorlib_max_pool2d>
 ecc:	01061c13          	slli	x24,x12,0x10
 ed0:	4100f937          	lui	x18,0x4100f
 ed4:	010c03b3          	add	x7,x24,x16
 ed8:	ac792c23          	sw	x7,-1320(x18) # 4100ead8 <.L129+0x4100dbfc>

00000edc <.L129>:
 edc:	0000006f          	j	edc <.L129>

Disassembly of section .rodata._ZN8HBTensorIfLln1EEC2EP11hb_tensor_t.str1.4:

00000000 <.LC0>:
   0:	726f772f          	0x726f772f
   4:	6c672f6b          	0x6c672f6b
   8:	6c61626f          	jal	x4,166ce <.L129+0x157f2>
   c:	33726b2f          	0x33726b2f
  10:	3739                	jal	ffffff1e <.L129+0xfffff042>
  12:	2d62682f          	0x2d62682f
  16:	7970                	flw	f12,116(x10)
  18:	6f74                	flw	f13,92(x14)
  1a:	6372                	flw	f6,28(x2)
  1c:	2f68                	fld	f10,216(x14)
  1e:	6168                	flw	f10,68(x10)
  20:	6d6d                	lui	x26,0x1b
  22:	7265                	lui	x4,0xffff9
  24:	6c62                	flw	f24,24(x2)
  26:	6461                	lui	x8,0x18
  28:	2f65                	jal	7e0 <tensorlib_max_pool2d_backward+0x10>
  2a:	6f74                	flw	f13,92(x14)
  2c:	6372                	flw	f6,28(x2)
  2e:	2f68                	fld	f10,216(x14)
  30:	6e72656b          	0x6e72656b
  34:	6c65                	lui	x24,0x19
  36:	5f62682f          	0x5f62682f
  3a:	6574                	flw	f13,76(x10)
  3c:	736e                	flw	f6,248(x2)
  3e:	682e726f          	jal	x4,e76c0 <.L129+0xe67e4>
  42:	7070                	flw	f12,100(x8)
  44:	0000                	unimp
	...

00000048 <.LC1>:
  48:	7361                	lui	x6,0xffff8
  4a:	74726573          	csrrsi	x10,0x747,4
  4e:	6620                	flw	f8,72(x12)
  50:	6961                	lui	x18,0x18
  52:	656c                	flw	f11,76(x10)
  54:	2064                	fld	f9,192(x8)
  56:	7461                	lui	x8,0xffff8
  58:	2520                	fld	f8,72(x10)
  5a:	64253a73          	csrrc	x20,0x642,x10
  5e:	0020                	addi	x8,x2,8

00000060 <.LC2>:
  60:	7265                	lui	x4,0xffff9
  62:	6f72                	flw	f30,28(x2)
  64:	3a72                	fld	f20,312(x2)
  66:	7420                	flw	f8,104(x8)
  68:	6e65                	lui	x28,0x19
  6a:	20726f73          	csrrsi	x30,0x207,4
  6e:	6964                	flw	f9,84(x10)
  70:	736d                	lui	x6,0xffffb
  72:	6920                	flw	f8,80(x10)
  74:	6f742073          	csrs	0x6f7,x8
  78:	616c206f          	j	c268e <.L129+0xc17b2>
  7c:	6772                	flw	f14,28(x2)
  7e:	0065                	c.nop	25

Disassembly of section .text._ZN8HBTensorIfLln1EEC2EP11hb_tensor_t:

00000000 <_ZN8HBTensorIfLln1EEC1EP11hb_tensor_t>:
   0:	00058713          	mv	x14,x11
   4:	0045a683          	lw	x13,4(x11) # 100004 <.L129+0xff128>
   8:	00072803          	lw	x16,0(x14)
   c:	0105a583          	lw	x11,16(x11)
  10:	00050793          	mv	x15,x10
  14:	02850613          	addi	x12,x10,40 # 28 <_ZN8HBTensorIfLln1EEC1EP11hb_tensor_t+0x28>
  18:	01450513          	addi	x10,x10,20
  1c:	0107a023          	sw	x16,0(x15)
  20:	00d7a223          	sw	x13,4(x15)
  24:	00a7a423          	sw	x10,8(x15)
  28:	00c7a623          	sw	x12,12(x15)
  2c:	00b7a823          	sw	x11,16(x15)
  30:	00060613          	mv	x12,x12
  34:	00500293          	li	x5,5
  38:	04d2e463          	bltu	x5,x13,80 <.L14>
  3c:	00872303          	lw	x6,8(x14)
  40:	00c72383          	lw	x7,12(x14)
  44:	02068c63          	beqz	x13,7c <.L1>
  48:	00269893          	slli	x17,x13,0x2
  4c:	00078713          	mv	x14,x15
  50:	01178e33          	add	x28,x15,x17
  54:	40f30eb3          	sub	x29,x6,x15
  58:	40f38f33          	sub	x30,x7,x15

0000005c <.L5>:
  5c:	00ee8fb3          	add	x31,x29,x14
  60:	000fa683          	lw	x13,0(x31) # 0 <_ZN8HBTensorIfLln1EEC1EP11hb_tensor_t>
  64:	00ef05b3          	add	x11,x30,x14
  68:	00470713          	addi	x14,x14,4
  6c:	00d72823          	sw	x13,16(x14)
  70:	0005a803          	lw	x16,0(x11)
  74:	03072223          	sw	x16,36(x14)
  78:	ffc712e3          	bne	x14,x28,5c <.L5>

0000007c <.L1>:
  7c:	00008067          	ret

00000080 <.L14>:
  80:	ff010113          	addi	x2,x2,-16
  84:	000007b7          	lui	x15,0x0
  88:	00112623          	sw	x1,12(x2)
  8c:	000000b7          	lui	x1,0x0
  90:	0c700613          	li	x12,199
  94:	00008593          	mv	x11,x1
  98:	00078513          	mv	x10,x15
  9c:	00000097          	auipc	x1,0x0
  a0:	000080e7          	jalr	x1 # 9c <.L14+0x1c>
  a4:	00000637          	lui	x12,0x0
  a8:	00060513          	mv	x10,x12
  ac:	00000097          	auipc	x1,0x0
  b0:	000080e7          	jalr	x1 # ac <.L14+0x2c>
  b4:	00000537          	lui	x10,0x0
  b8:	00052283          	lw	x5,0(x10) # 0 <_ZN8HBTensorIfLln1EEC1EP11hb_tensor_t>
  bc:	00000337          	lui	x6,0x0
  c0:	00032383          	lw	x7,0(x6) # 0 <_ZN8HBTensorIfLln1EEC1EP11hb_tensor_t>
  c4:	01029893          	slli	x17,x5,0x10
  c8:	4100feb7          	lui	x29,0x4100f
  cc:	00788e33          	add	x28,x17,x7
  d0:	adceac23          	sw	x28,-1320(x29) # 4100ead8 <.L129+0x4100dbfc>

000000d4 <.L3>:
  d4:	0000006f          	j	d4 <.L3>

Disassembly of section .text._ZN8HBTensorIiLln1EEC2EP11hb_tensor_t:

00000000 <_ZN8HBTensorIiLln1EEC1EP11hb_tensor_t>:
   0:	00058713          	mv	x14,x11
   4:	0045a683          	lw	x13,4(x11)
   8:	00072803          	lw	x16,0(x14)
   c:	0105a583          	lw	x11,16(x11)
  10:	00050793          	mv	x15,x10
  14:	02850613          	addi	x12,x10,40
  18:	01450513          	addi	x10,x10,20
  1c:	0107a023          	sw	x16,0(x15) # 0 <_ZN8HBTensorIiLln1EEC1EP11hb_tensor_t>
  20:	00d7a223          	sw	x13,4(x15)
  24:	00a7a423          	sw	x10,8(x15)
  28:	00c7a623          	sw	x12,12(x15)
  2c:	00b7a823          	sw	x11,16(x15)
  30:	00060613          	mv	x12,x12
  34:	00500293          	li	x5,5
  38:	04d2e463          	bltu	x5,x13,80 <.L27>
  3c:	00872303          	lw	x6,8(x14)
  40:	00c72383          	lw	x7,12(x14)
  44:	02068c63          	beqz	x13,7c <.L15>
  48:	00269893          	slli	x17,x13,0x2
  4c:	00078713          	mv	x14,x15
  50:	01178e33          	add	x28,x15,x17
  54:	40f30eb3          	sub	x29,x6,x15
  58:	40f38f33          	sub	x30,x7,x15

0000005c <.L19>:
  5c:	00ee8fb3          	add	x31,x29,x14
  60:	000fa683          	lw	x13,0(x31)
  64:	00ef05b3          	add	x11,x30,x14
  68:	00470713          	addi	x14,x14,4
  6c:	00d72823          	sw	x13,16(x14)
  70:	0005a803          	lw	x16,0(x11)
  74:	03072223          	sw	x16,36(x14)
  78:	ffc712e3          	bne	x14,x28,5c <.L19>

0000007c <.L15>:
  7c:	00008067          	ret

00000080 <.L27>:
  80:	ff010113          	addi	x2,x2,-16
  84:	000007b7          	lui	x15,0x0
  88:	00112623          	sw	x1,12(x2)
  8c:	000000b7          	lui	x1,0x0
  90:	0c700613          	li	x12,199
  94:	00008593          	mv	x11,x1
  98:	00078513          	mv	x10,x15
  9c:	00000097          	auipc	x1,0x0
  a0:	000080e7          	jalr	x1 # 9c <.L27+0x1c>
  a4:	00000637          	lui	x12,0x0
  a8:	00060513          	mv	x10,x12
  ac:	00000097          	auipc	x1,0x0
  b0:	000080e7          	jalr	x1 # ac <.L27+0x2c>
  b4:	00000537          	lui	x10,0x0
  b8:	00052283          	lw	x5,0(x10) # 0 <_ZN8HBTensorIiLln1EEC1EP11hb_tensor_t>
  bc:	00000337          	lui	x6,0x0
  c0:	00032383          	lw	x7,0(x6) # 0 <_ZN8HBTensorIiLln1EEC1EP11hb_tensor_t>
  c4:	01029893          	slli	x17,x5,0x10
  c8:	4100feb7          	lui	x29,0x4100f
  cc:	00788e33          	add	x28,x17,x7
  d0:	adceac23          	sw	x28,-1320(x29) # 4100ead8 <.L129+0x4100dbfc>

000000d4 <.L17>:
  d4:	0000006f          	j	d4 <.L17>

Disassembly of section .rodata.str1.4:

00000000 <.LC3>:
   0:	7265                	lui	x4,0xffff9
   2:	6f72                	flw	f30,28(x2)
   4:	3a72                	fld	f20,312(x2)
   6:	6420                	flw	f8,72(x8)
   8:	6d69                	lui	x26,0x1a
   a:	7365                	lui	x6,0xffff9
   c:	696e                	flw	f18,216(x2)
   e:	6d206e6f          	jal	x28,66e0 <.L129+0x5804>
  12:	7375                	lui	x6,0xffffd
  14:	2074                	fld	f13,192(x8)
  16:	6562                	flw	f10,24(x2)
  18:	6c20                	flw	f8,88(x8)
  1a:	7365                	lui	x6,0xffff9
  1c:	68742073          	csrs	0x687,x8
  20:	6e61                	lui	x28,0x18
  22:	2520                	fld	f8,72(x10)
  24:	0a64                	addi	x9,x2,284
	...

Disassembly of section .srodata.cst4:

00000000 <.LC4>:
   0:	ffff                	0xffff
   2:	ff7f                	0xff7f

Disassembly of section .comment:

00000000 <.comment>:
   0:	4700                	lw	x8,8(x14)
   2:	203a4343          	fmadd.s	f6,f20,f3,f4,rmm
   6:	4728                	lw	x10,72(x14)
   8:	554e                	lw	x10,240(x2)
   a:	2029                	jal	14 <_ZN8HBTensorIfLln1EEC5EP11hb_tensor_t+0x14>
   c:	2e39                	jal	32a <.L53+0x2>
   e:	2e32                	fld	f28,264(x2)
  10:	0030                	addi	x12,x2,8

Disassembly of section .eh_frame:

00000000 <.eh_frame>:
   0:	0010                	0x10
   2:	0000                	unimp
   4:	0000                	unimp
   6:	0000                	unimp
   8:	7a01                	lui	x20,0xfffe0
   a:	0052                	c.slli	x0,0x14
   c:	7c01                	lui	x24,0xfffe0
   e:	0101                	addi	x2,x2,0
  10:	00020d1b          	0x20d1b
  14:	0014                	0x14
  16:	0000                	unimp
  18:	0018                	0x18
	...
  22:	0000                	unimp
  24:	0200                	addi	x8,x2,256
  26:	0e84                	addi	x9,x2,848
  28:	4810                	lw	x12,16(x8)
  2a:	0181                	addi	x3,x3,0
  2c:	0014                	0x14
  2e:	0000                	unimp
  30:	0030                	addi	x12,x2,8
	...
  3a:	0000                	unimp
  3c:	0200                	addi	x8,x2,256
  3e:	0e84                	addi	x9,x2,848
  40:	4810                	lw	x12,16(x8)
  42:	0181                	addi	x3,x3,0
  44:	0054                	addi	x13,x2,4
  46:	0000                	unimp
  48:	0048                	addi	x10,x2,4
	...
  52:	0000                	unimp
  54:	4400                	lw	x8,8(x8)
  56:	b00e                	fsd	f3,32(x2)
  58:	4c02                	lw	x24,0(x2)
  5a:	0896                	slli	x17,x17,0x5
  5c:	8154                	0x8154
  5e:	8801                	andi	x8,x8,0
  60:	8902                	jr	x18
  62:	04925003          	lhu	x0,73(x4) # ffff9049 <.L129+0xffff816d>
  66:	94500593          	li	x11,-1723
  6a:	9506                	add	x10,x10,x1
  6c:	09975c07          	0x9975c07
  70:	0a98                	addi	x14,x2,336
  72:	0b99                	addi	x23,x23,6
  74:	0c9a                	slli	x25,x25,0x6
  76:	c8030d9b          	0xc8030d9b
  7a:	44c10a03          	lb	x20,1100(x2)
  7e:	48c8                	lw	x10,20(x9)
  80:	44c9                	li	x9,18
  82:	44d2                	lw	x9,20(x2)
  84:	44d444d3          	0x44d444d3
  88:	44d5                	li	x9,21
  8a:	44d6                	lw	x9,84(x2)
  8c:	44d844d7          	0x44d844d7
  90:	44d9                	li	x9,22
  92:	44da                	lw	x9,148(x2)
  94:	000e48db          	0xe48db
  98:	0b44                	addi	x9,x2,404
  9a:	0000                	unimp
  9c:	0050                	addi	x12,x2,4
  9e:	0000                	unimp
  a0:	00a0                	addi	x8,x2,72
	...
  aa:	0000                	unimp
  ac:	4400                	lw	x8,8(x8)
  ae:	800e                	c.mv	x0,x3
  b0:	4402                	lw	x8,0(x2)
  b2:	0389                	addi	x7,x7,2
  b4:	8154                	0x8154
  b6:	8801                	andi	x8,x8,0
  b8:	9202                	jalr	x4
  ba:	6804                	flw	f9,16(x8)
  bc:	06940593          	addi	x11,x8,105 # ffff8069 <.L129+0xffff718d>
  c0:	0795                	addi	x15,x15,5
  c2:	0896                	slli	x17,x17,0x5
  c4:	0a980997          	auipc	x19,0xa980
  c8:	0b99                	addi	x23,x23,6
  ca:	0c9a                	slli	x25,x25,0x6
  cc:	34030d9b          	0x34030d9b
  d0:	44c10a03          	lb	x20,1100(x2)
  d4:	48c8                	lw	x10,20(x9)
  d6:	44c9                	li	x9,18
  d8:	44d2                	lw	x9,20(x2)
  da:	44d444d3          	0x44d444d3
  de:	44d5                	li	x9,21
  e0:	44d6                	lw	x9,84(x2)
  e2:	44d844d7          	0x44d844d7
  e6:	44d9                	li	x9,22
  e8:	44da                	lw	x9,148(x2)
  ea:	000e48db          	0xe48db
  ee:	0b44                	addi	x9,x2,404

Disassembly of section .riscv.attributes:

00000000 <.riscv.attributes>:
   0:	2a41                	jal	190 <.L3+0xbc>
   2:	0000                	unimp
   4:	7200                	flw	f8,32(x12)
   6:	7369                	lui	x6,0xffffa
   8:	01007663          	bgeu	x0,x16,14 <.riscv.attributes+0x14>
   c:	0020                	addi	x8,x2,8
   e:	0000                	unimp
  10:	1004                	addi	x9,x2,32
  12:	7205                	lui	x4,0xfffe1
  14:	3376                	fld	f6,376(x2)
  16:	6932                	flw	f18,12(x2)
  18:	7032                	flw	f0,44(x2)
  1a:	5f30                	lw	x12,120(x14)
  1c:	326d                	jal	fffff9c6 <.L129+0xffffeaea>
  1e:	3070                	fld	f12,224(x8)
  20:	615f 7032 5f30      	0x5f307032615f
  26:	3266                	fld	f4,120(x2)
  28:	3070                	fld	f12,224(x8)
	...
