
kernel_copy_hb_to_hb.o:     file format elf32-littleriscv


Disassembly of section .group:

00000000 <_ZN8HBTensorIiLln1EEC5EP11hb_tensor_t>:
   0:	0001                	nop
   2:	0000                	unimp
   4:	0022                	c.slli	x0,0x8
   6:	0000                	unimp
   8:	00000023          	sb	x0,0(x0) # 0 <_ZN8HBTensorIiLln1EEC5EP11hb_tensor_t>

Disassembly of section .group:

00000000 <.group>:
   0:	0001                	nop
   2:	0000                	unimp
   4:	0024                	addi	x9,x2,8
   6:	0000                	unimp
   8:	0025                	c.nop	9
	...

Disassembly of section .group:

00000000 <_ZN8HBTensorIxLln1EEC5EP11hb_tensor_t>:
   0:	0001                	nop
   2:	0000                	unimp
   4:	0026                	c.slli	x0,0x9
   6:	0000                	unimp
   8:	00000027          	0x27

Disassembly of section .group:

00000000 <.group>:
   0:	0001                	nop
   2:	0000                	unimp
   4:	0028                	addi	x10,x2,8
   6:	0000                	unimp
   8:	0029                	c.nop	10
	...

Disassembly of section .group:

00000000 <.group>:
   0:	0001                	nop
   2:	0000                	unimp
   4:	002a                	c.slli	x0,0xa
   6:	0000                	unimp
   8:	0000002b          	0x2b

Disassembly of section .group:

00000000 <_ZN8HBTensorIfLln1EEC5EP11hb_tensor_t>:
   0:	0001                	nop
   2:	0000                	unimp
   4:	002c                	addi	x11,x2,8
   6:	0000                	unimp
   8:	002d                	c.nop	11
	...

Disassembly of section .group:

00000000 <.group>:
   0:	0001                	nop
   2:	0000                	unimp
   4:	002e                	c.slli	x0,0xb
   6:	0000                	unimp
   8:	0000002f          	0x2f

Disassembly of section .group:

00000000 <.group>:
   0:	0001                	nop
   2:	0000                	unimp
   4:	0030                	addi	x12,x2,8
   6:	0000                	unimp
   8:	0031                	c.nop	12
	...

Disassembly of section .group:

00000000 <.group>:
   0:	0001                	nop
   2:	0000                	unimp
   4:	0032                	c.slli	x0,0xc
   6:	0000                	unimp
   8:	00000033          	add	x0,x0,x0

Disassembly of section .group:

00000000 <_ZN8HBTensorIdLln1EEC5EP11hb_tensor_t>:
   0:	0001                	nop
   2:	0000                	unimp
   4:	0034                	addi	x13,x2,8
   6:	0000                	unimp
   8:	0035                	c.nop	13
	...

Disassembly of section .group:

00000000 <.group>:
   0:	0001                	nop
   2:	0000                	unimp
   4:	0036                	c.slli	x0,0xd
   6:	0000                	unimp
   8:	00000037          	lui	x0,0x0

Disassembly of section .group:

00000000 <.group>:
   0:	0001                	nop
   2:	0000                	unimp
   4:	0038                	addi	x14,x2,8
   6:	0000                	unimp
   8:	0039                	c.nop	14
	...

Disassembly of section .group:

00000000 <.group>:
   0:	0001                	nop
   2:	0000                	unimp
   4:	003a                	c.slli	x0,0xe
   6:	0000                	unimp
   8:	0000003b          	0x3b

Disassembly of section .group:

00000000 <.group>:
   0:	0001                	nop
   2:	0000                	unimp
   4:	003c                	addi	x15,x2,8
   6:	0000                	unimp
   8:	003d                	c.nop	15
	...

Disassembly of section .group:

00000000 <.group>:
   0:	0001                	nop
   2:	0000                	unimp
   4:	003e                	c.slli	x0,0xf
   6:	0000                	unimp
   8:	0000003f  	0x3f

Disassembly of section .group:

00000000 <.group>:
   0:	0001                	nop
   2:	0000                	unimp
   4:	0040                	addi	x8,x2,4
   6:	0000                	unimp
   8:	0041                	c.nop	16
	...

Disassembly of section .group:

00000000 <.group>:
   0:	0001                	nop
   2:	0000                	unimp
   4:	0042                	c.slli	x0,0x10
   6:	0000                	unimp
   8:	00000043          	fmadd.s	f0,f0,f0,f0,rne

Disassembly of section .group:

00000000 <.group>:
   0:	0001                	nop
   2:	0000                	unimp
   4:	0044                	addi	x9,x2,4
   6:	0000                	unimp
   8:	0045                	c.nop	17
	...

Disassembly of section .group:

00000000 <.group>:
   0:	0001                	nop
   2:	0000                	unimp
   4:	0046                	c.slli	x0,0x11
   6:	0000                	unimp
   8:	00000047          	fmsub.s	f0,f0,f0,f0,rne

Disassembly of section .group:

00000000 <.group>:
   0:	0001                	nop
   2:	0000                	unimp
   4:	0048                	addi	x10,x2,4
   6:	0000                	unimp
   8:	0049                	c.nop	18
	...

Disassembly of section .group:

00000000 <.group>:
   0:	0001                	nop
   2:	0000                	unimp
   4:	004a                	c.slli	x0,0x12
   6:	0000                	unimp
   8:	0000004b          	fnmsub.s	f0,f0,f0,f0,rne

Disassembly of section .group:

00000000 <.group>:
   0:	0001                	nop
   2:	0000                	unimp
   4:	004c                	addi	x11,x2,4
   6:	0000                	unimp
   8:	004d                	c.nop	19
	...

Disassembly of section .group:

00000000 <.group>:
   0:	0001                	nop
   2:	0000                	unimp
   4:	004e                	c.slli	x0,0x13
   6:	0000                	unimp
   8:	0000004f          	fnmadd.s	f0,f0,f0,f0,rne

Disassembly of section .group:

00000000 <.group>:
   0:	0001                	nop
   2:	0000                	unimp
   4:	0050                	addi	x12,x2,4
   6:	0000                	unimp
   8:	0051                	c.nop	20
	...

Disassembly of section .group:

00000000 <.group>:
   0:	0001                	nop
   2:	0000                	unimp
   4:	0052                	c.slli	x0,0x14
   6:	0000                	unimp
   8:	00000053          	fadd.s	f0,f0,f0,rne

Disassembly of section .group:

00000000 <.group>:
   0:	0001                	nop
   2:	0000                	unimp
   4:	0054                	addi	x13,x2,4
   6:	0000                	unimp
   8:	0055                	c.nop	21
	...

Disassembly of section .group:

00000000 <.group>:
   0:	0001                	nop
   2:	0000                	unimp
   4:	0056                	c.slli	x0,0x15
   6:	0000                	unimp
   8:	00000057          	0x57

Disassembly of section .group:

00000000 <.group>:
   0:	0001                	nop
   2:	0000                	unimp
   4:	0058                	addi	x14,x2,4
   6:	0000                	unimp
   8:	0059                	c.nop	22
	...

Disassembly of section .text:

00000000 <tensorlib_copy_Int_to_Int>:
   0:	00000317          	auipc	x6,0x0
   4:	00030067          	jr	x6 # 0 <tensorlib_copy_Int_to_Int>

00000008 <tensorlib_copy_Int_to_Long>:
   8:	00000317          	auipc	x6,0x0
   c:	00030067          	jr	x6 # 8 <tensorlib_copy_Int_to_Long>

00000010 <tensorlib_copy_Long_to_Int>:
  10:	00000317          	auipc	x6,0x0
  14:	00030067          	jr	x6 # 10 <tensorlib_copy_Long_to_Int>

00000018 <tensorlib_copy_Int_to_Float>:
  18:	00000317          	auipc	x6,0x0
  1c:	00030067          	jr	x6 # 18 <tensorlib_copy_Int_to_Float>

00000020 <tensorlib_copy_Float_to_Int>:
  20:	00000317          	auipc	x6,0x0
  24:	00030067          	jr	x6 # 20 <tensorlib_copy_Float_to_Int>

00000028 <tensorlib_copy_Float_to_Float>:
  28:	00000317          	auipc	x6,0x0
  2c:	00030067          	jr	x6 # 28 <tensorlib_copy_Float_to_Float>

00000030 <tensorlib_copy_Float_to_Double>:
  30:	00000317          	auipc	x6,0x0
  34:	00030067          	jr	x6 # 30 <tensorlib_copy_Float_to_Double>

00000038 <tensorlib_copy_Double_to_Float>:
  38:	00000317          	auipc	x6,0x0
  3c:	00030067          	jr	x6 # 38 <tensorlib_copy_Double_to_Float>

00000040 <tensorlib_copy_Int_to_Double>:
  40:	00000317          	auipc	x6,0x0
  44:	00030067          	jr	x6 # 40 <tensorlib_copy_Int_to_Double>

00000048 <tensorlib_copy_Long_to_Long>:
  48:	00000317          	auipc	x6,0x0
  4c:	00030067          	jr	x6 # 48 <tensorlib_copy_Long_to_Long>

00000050 <tensorlib_copy_Long_to_Float>:
  50:	00000317          	auipc	x6,0x0
  54:	00030067          	jr	x6 # 50 <tensorlib_copy_Long_to_Float>

00000058 <tensorlib_copy_Long_to_Double>:
  58:	00000317          	auipc	x6,0x0
  5c:	00030067          	jr	x6 # 58 <tensorlib_copy_Long_to_Double>

00000060 <tensorlib_copy_Float_to_Long>:
  60:	00000317          	auipc	x6,0x0
  64:	00030067          	jr	x6 # 60 <tensorlib_copy_Float_to_Long>

00000068 <tensorlib_copy_Double_to_Int>:
  68:	00000317          	auipc	x6,0x0
  6c:	00030067          	jr	x6 # 68 <tensorlib_copy_Double_to_Int>

00000070 <tensorlib_copy_Double_to_Long>:
  70:	00000317          	auipc	x6,0x0
  74:	00030067          	jr	x6 # 70 <tensorlib_copy_Double_to_Long>

00000078 <tensorlib_copy_Double_to_Double>:
  78:	00000317          	auipc	x6,0x0
  7c:	00030067          	jr	x6 # 78 <tensorlib_copy_Double_to_Double>

Disassembly of section .text._ZN8HBTensorIiLln1EEC2EP11hb_tensor_t:

00000000 <_ZN8HBTensorIiLln1EEC1EP11hb_tensor_t>:
   0:	00058713          	mv	x14,x11
   4:	0045a683          	lw	x13,4(x11)
   8:	00072803          	lw	x16,0(x14)
   c:	0105a583          	lw	x11,16(x11)
  10:	00050793          	mv	x15,x10
  14:	02850613          	addi	x12,x10,40
  18:	01450513          	addi	x10,x10,20
  1c:	0107a023          	sw	x16,0(x15)
  20:	00d7a223          	sw	x13,4(x15)
  24:	00a7a423          	sw	x10,8(x15)
  28:	00c7a623          	sw	x12,12(x15)
  2c:	00b7a823          	sw	x11,16(x15)
  30:	00060613          	mv	x12,x12
  34:	00500293          	li	x5,5
  38:	04d2e463          	bltu	x5,x13,80 <.L14>
  3c:	00872303          	lw	x6,8(x14)
  40:	00c72383          	lw	x7,12(x14)
  44:	02068c63          	beqz	x13,7c <.L1>
  48:	00269893          	slli	x17,x13,0x2
  4c:	00078713          	mv	x14,x15
  50:	01178e33          	add	x28,x15,x17
  54:	40f30eb3          	sub	x29,x6,x15
  58:	40f38f33          	sub	x30,x7,x15

0000005c <.L5>:
  5c:	00ee8fb3          	add	x31,x29,x14
  60:	000fa683          	lw	x13,0(x31)
  64:	00ef05b3          	add	x11,x30,x14
  68:	00470713          	addi	x14,x14,4
  6c:	00d72823          	sw	x13,16(x14)
  70:	0005a803          	lw	x16,0(x11)
  74:	03072223          	sw	x16,36(x14)
  78:	ffc712e3          	bne	x14,x28,5c <.L5>

0000007c <.L1>:
  7c:	00008067          	ret

00000080 <.L14>:
  80:	ff010113          	addi	x2,x2,-16
  84:	000007b7          	lui	x15,0x0
  88:	00112623          	sw	x1,12(x2)
  8c:	000000b7          	lui	x1,0x0
  90:	0d800613          	li	x12,216
  94:	00008593          	mv	x11,x1
  98:	00078513          	mv	x10,x15
  9c:	00000097          	auipc	x1,0x0
  a0:	000080e7          	jalr	x1 # 9c <.L14+0x1c>
  a4:	00000637          	lui	x12,0x0
  a8:	00060513          	mv	x10,x12
  ac:	00000097          	auipc	x1,0x0
  b0:	000080e7          	jalr	x1 # ac <.L14+0x2c>
  b4:	00000537          	lui	x10,0x0
  b8:	00052283          	lw	x5,0(x10) # 0 <_ZN8HBTensorIiLln1EEC1EP11hb_tensor_t>
  bc:	00000337          	lui	x6,0x0
  c0:	00032383          	lw	x7,0(x6) # 0 <_ZN8HBTensorIiLln1EEC1EP11hb_tensor_t>
  c4:	01029893          	slli	x17,x5,0x10
  c8:	4100feb7          	lui	x29,0x4100f
  cc:	00788e33          	add	x28,x17,x7
  d0:	adceac23          	sw	x28,-1320(x29) # 4100ead8 <.L690+0x4100e2bc>

000000d4 <.L3>:
  d4:	0000006f          	j	d4 <.L3>

Disassembly of section .text._Z19tensorlib_copy_implIiiEiP11hb_tensor_tS1_:

00000000 <_Z19tensorlib_copy_implIiiEiP11hb_tensor_tS1_>:
   0:	f5010113          	addi	x2,x2,-176
   4:	00050793          	mv	x15,x10
   8:	0a812423          	sw	x8,168(x2)
   c:	00810513          	addi	x10,x2,8
  10:	00058413          	mv	x8,x11
  14:	00078593          	mv	x11,x15
  18:	0a112623          	sw	x1,172(x2)
  1c:	0a912223          	sw	x9,164(x2)
  20:	0b212023          	sw	x18,160(x2)
  24:	09312e23          	sw	x19,156(x2)
  28:	09412c23          	sw	x20,152(x2)
  2c:	09512a23          	sw	x21,148(x2)
  30:	09612823          	sw	x22,144(x2)
  34:	09712623          	sw	x23,140(x2)
  38:	09812423          	sw	x24,136(x2)
  3c:	09912223          	sw	x25,132(x2)
  40:	00000097          	auipc	x1,0x0
  44:	000080e7          	jalr	x1 # 40 <_Z19tensorlib_copy_implIiiEiP11hb_tensor_tS1_+0x40>
  48:	00040593          	mv	x11,x8
  4c:	04410513          	addi	x10,x2,68
  50:	00000097          	auipc	x1,0x0
  54:	000080e7          	jalr	x1 # 50 <_Z19tensorlib_copy_implIiiEiP11hb_tensor_tS1_+0x50>
  58:	00000f37          	lui	x30,0x0
  5c:	000006b7          	lui	x13,0x0
  60:	00000eb7          	lui	x29,0x0
  64:	00000737          	lui	x14,0x0
  68:	000f2283          	lw	x5,0(x30) # 0 <_Z19tensorlib_copy_implIiiEiP11hb_tensor_tS1_>
  6c:	0006a803          	lw	x16,0(x13) # 0 <_Z19tensorlib_copy_implIiiEiP11hb_tensor_tS1_>
  70:	000ea603          	lw	x12,0(x29) # 0 <_Z19tensorlib_copy_implIiiEiP11hb_tensor_tS1_>
  74:	00072503          	lw	x10,0(x14) # 0 <_Z19tensorlib_copy_implIiiEiP11hb_tensor_tS1_>
  78:	00000fb7          	lui	x31,0x0
  7c:	000fa583          	lw	x11,0(x31) # 0 <_Z19tensorlib_copy_implIiiEiP11hb_tensor_tS1_>
  80:	01028333          	add	x6,x5,x16
  84:	00a603b3          	add	x7,x12,x10
  88:	01831493          	slli	x9,x6,0x18
  8c:	01239893          	slli	x17,x7,0x12
  90:	3f000937          	lui	x18,0x3f000
  94:	00fc0a37          	lui	x20,0xfc0
  98:	00040c37          	lui	x24,0x40
  9c:	0124f9b3          	and	x19,x9,x18
  a0:	0148fab3          	and	x21,x17,x20
  a4:	00459b13          	slli	x22,x11,0x4
  a8:	ff0c0c93          	addi	x25,x24,-16 # 3fff0 <.L690+0x3f7d4>
  ac:	019b7e33          	and	x28,x22,x25
  b0:	0159ebb3          	or	x23,x19,x21
  b4:	01cbe7b3          	or	x15,x23,x28
  b8:	00c12283          	lw	x5,12(x2)
  bc:	80000437          	lui	x8,0x80000
  c0:	0087e833          	or	x16,x15,x8
  c4:	41001637          	lui	x12,0x41001
  c8:	d1062623          	sw	x16,-756(x12) # 41000d0c <.L690+0x410004f0>
  cc:	00100513          	li	x10,1
  d0:	00812483          	lw	x9,8(x2)
  d4:	01012883          	lw	x17,16(x2)
  d8:	01812e03          	lw	x28,24(x2)
  dc:	04c12803          	lw	x16,76(x2)
  e0:	05412303          	lw	x6,84(x2)
  e4:	34a28e63          	beq	x5,x10,440 <.L81>
  e8:	00200093          	li	x1,2
  ec:	01412383          	lw	x7,20(x2)
  f0:	1c128c63          	beq	x5,x1,2c8 <.L82>
  f4:	00300593          	li	x11,3
  f8:	05012903          	lw	x18,80(x2)
  fc:	4eb28263          	beq	x5,x11,5e0 <.L83>
 100:	fff48993          	addi	x19,x9,-1
 104:	ffd00a13          	li	x20,-3
 108:	0d3a6663          	bltu	x20,x19,1d4 <.L21>
 10c:	00000ab7          	lui	x21,0x0
 110:	000aab03          	lw	x22,0(x21) # 0 <_Z19tensorlib_copy_implIiiEiP11hb_tensor_tS1_>
 114:	0074db93          	srli	x23,x9,0x7
 118:	001b8c13          	addi	x24,x23,1
 11c:	07fb7c93          	andi	x25,x22,127
 120:	038c85b3          	mul	x11,x25,x24
 124:	00bc00b3          	add	x1,x24,x11
 128:	5814e063          	bltu	x9,x1,6a8 <.L84>

0000012c <.L39>:
 12c:	0a15f463          	bgeu	x11,x1,1d4 <.L21>
 130:	04812983          	lw	x19,72(x2)
 134:	00229793          	slli	x15,x5,0x2
 138:	00f38ab3          	add	x21,x7,x15
 13c:	00299413          	slli	x8,x19,0x2
 140:	00890a33          	add	x20,x18,x8

00000144 <.L44>:
 144:	48028a63          	beqz	x5,5d8 <.L60>
 148:	00088c93          	mv	x25,x17
 14c:	00038c13          	mv	x24,x7
 150:	00058513          	mv	x10,x11
 154:	00000793          	li	x15,0

00000158 <.L41>:
 158:	000c2b03          	lw	x22,0(x24)
 15c:	000cab83          	lw	x23,0(x25)
 160:	004c0c13          	addi	x24,x24,4
 164:	036574b3          	remu	x9,x10,x22
 168:	004c8c93          	addi	x25,x25,4
 16c:	03748433          	mul	x8,x9,x23
 170:	03655533          	divu	x10,x10,x22
 174:	008787b3          	add	x15,x15,x8
 178:	ff8a90e3          	bne	x21,x24,158 <.L41>
 17c:	00279613          	slli	x12,x15,0x2
 180:	00ce0633          	add	x12,x28,x12

00000184 <.L40>:
 184:	44098663          	beqz	x19,5d0 <.L61>
 188:	00080493          	mv	x9,x16
 18c:	00090513          	mv	x10,x18
 190:	00058413          	mv	x8,x11
 194:	00000793          	li	x15,0

00000198 <.L43>:
 198:	00052c03          	lw	x24,0(x10)
 19c:	0004ac83          	lw	x25,0(x9)
 1a0:	00450513          	addi	x10,x10,4
 1a4:	00448493          	addi	x9,x9,4
 1a8:	03847bb3          	remu	x23,x8,x24
 1ac:	039b8b33          	mul	x22,x23,x25
 1b0:	03845433          	divu	x8,x8,x24
 1b4:	016787b3          	add	x15,x15,x22
 1b8:	feaa10e3          	bne	x20,x10,198 <.L43>
 1bc:	00279c13          	slli	x24,x15,0x2
 1c0:	01830b33          	add	x22,x6,x24

000001c4 <.L42>:
 1c4:	000b2c83          	lw	x25,0(x22)
 1c8:	00158593          	addi	x11,x11,1
 1cc:	01962023          	sw	x25,0(x12)
 1d0:	f6b09ae3          	bne	x1,x11,144 <.L44>

000001d4 <.L21>:
 1d4:	000f2f03          	lw	x30,0(x30)
 1d8:	0006ac83          	lw	x25,0(x13)
 1dc:	000eae83          	lw	x29,0(x29)
 1e0:	00072803          	lw	x16,0(x14)
 1e4:	000faf83          	lw	x31,0(x31)
 1e8:	019f08b3          	add	x17,x30,x25
 1ec:	010e8b33          	add	x22,x29,x16
 1f0:	01889c13          	slli	x24,x17,0x18
 1f4:	012b1293          	slli	x5,x22,0x12
 1f8:	3f0003b7          	lui	x7,0x3f000
 1fc:	00fc0bb7          	lui	x23,0xfc0
 200:	00040ab7          	lui	x21,0x40
 204:	007c7a33          	and	x20,x24,x7
 208:	0172f633          	and	x12,x5,x23
 20c:	004f9093          	slli	x1,x31,0x4
 210:	ff0a8913          	addi	x18,x21,-16 # 3fff0 <.L690+0x3f7d4>
 214:	00ca69b3          	or	x19,x20,x12
 218:	0120fe33          	and	x28,x1,x18
 21c:	01c9e4b3          	or	x9,x19,x28
 220:	c00005b7          	lui	x11,0xc0000
 224:	00b4e433          	or	x8,x9,x11
 228:	410017b7          	lui	x15,0x41001
 22c:	d087a623          	sw	x8,-756(x15) # 41000d0c <.L690+0x410004f0>
 230:	00072303          	lw	x6,0(x14)
 234:	0006af03          	lw	x30,0(x13)
 238:	00000537          	lui	x10,0x0
 23c:	00430c93          	addi	x25,x6,4
 240:	00050613          	mv	x12,x10
 244:	01960eb3          	add	x29,x12,x25
 248:	018f1813          	slli	x16,x30,0x18
 24c:	010eefb3          	or	x31,x29,x16
 250:	201c08b7          	lui	x17,0x201c0
 254:	011feb33          	or	x22,x31,x17
 258:	00100c13          	li	x24,1
 25c:	018b0023          	sb	x24,0(x22)
 260:	00072283          	lw	x5,0(x14)
 264:	00700393          	li	x7,7
 268:	10728263          	beq	x5,x7,36c <.L85>

0000026c <.L45>:
 26c:	00100693          	li	x13,1
 270:	0100006f          	j	280 <.L58>

00000274 <.L86>:
 274:	00050593          	mv	x11,x10
 278:	1405a72f          	lr.w.aq	x14,(x11)
 27c:	00d70863          	beq	x14,x13,28c <.L57>

00000280 <.L58>:
 280:	00050f13          	mv	x30,x10
 284:	100f2caf          	lr.w	x25,(x30)
 288:	fedc96e3          	bne	x25,x13,274 <.L86>

0000028c <.L57>:
 28c:	0ac12083          	lw	x1,172(x2)
 290:	0a812403          	lw	x8,168(x2)
 294:	00062023          	sw	x0,0(x12)
 298:	0a412483          	lw	x9,164(x2)
 29c:	0a012903          	lw	x18,160(x2)
 2a0:	09c12983          	lw	x19,156(x2)
 2a4:	09812a03          	lw	x20,152(x2)
 2a8:	09412a83          	lw	x21,148(x2)
 2ac:	09012b03          	lw	x22,144(x2)
 2b0:	08c12b83          	lw	x23,140(x2)
 2b4:	08812c03          	lw	x24,136(x2)
 2b8:	08412c83          	lw	x25,132(x2)
 2bc:	00000513          	li	x10,0
 2c0:	0b010113          	addi	x2,x2,176
 2c4:	00008067          	ret

000002c8 <.L82>:
 2c8:	0003a283          	lw	x5,0(x7) # 3f000000 <.L690+0x3efff7e4>
 2cc:	ffd00c93          	li	x25,-3
 2d0:	fff28093          	addi	x1,x5,-1
 2d4:	f01ce0e3          	bltu	x25,x1,1d4 <.L21>
 2d8:	00000ab7          	lui	x21,0x0
 2dc:	000aa403          	lw	x8,0(x21) # 0 <_Z19tensorlib_copy_implIiiEiP11hb_tensor_tS1_>
 2e0:	0072d993          	srli	x19,x5,0x7
 2e4:	00198913          	addi	x18,x19,1
 2e8:	07f47593          	andi	x11,x8,127
 2ec:	03258433          	mul	x8,x11,x18
 2f0:	00890b33          	add	x22,x18,x8
 2f4:	3b62ee63          	bltu	x5,x22,6b0 <.L87>
 2f8:	ed647ee3          	bgeu	x8,x22,1d4 <.L21>

000002fc <.L93>:
 2fc:	00082483          	lw	x9,0(x16)
 300:	0008ac03          	lw	x24,0(x17) # 201c0000 <.L690+0x201bf7e4>
 304:	0043a383          	lw	x7,4(x7)
 308:	00249a13          	slli	x20,x9,0x2
 30c:	002c1b93          	slli	x23,x24,0x2
 310:	03440633          	mul	x12,x8,x20
 314:	037407b3          	mul	x15,x8,x23
 318:	00c30333          	add	x6,x6,x12
 31c:	00fe0e33          	add	x28,x28,x15

00000320 <.L30>:
 320:	00030293          	mv	x5,x6
 324:	02038a63          	beqz	x7,358 <.L32>
 328:	0048ac83          	lw	x25,4(x17)
 32c:	00482083          	lw	x1,4(x16)
 330:	000e0513          	mv	x10,x28
 334:	002c9a93          	slli	x21,x25,0x2
 338:	00209993          	slli	x19,x1,0x2
 33c:	00000593          	li	x11,0

00000340 <.L31>:
 340:	0002a903          	lw	x18,0(x5)
 344:	00158593          	addi	x11,x11,1 # c0000001 <.L690+0xbffff7e5>
 348:	013282b3          	add	x5,x5,x19
 34c:	01252023          	sw	x18,0(x10) # 0 <_Z19tensorlib_copy_implIiiEiP11hb_tensor_tS1_>
 350:	01550533          	add	x10,x10,x21
 354:	fe7596e3          	bne	x11,x7,340 <.L31>

00000358 <.L32>:
 358:	00140413          	addi	x8,x8,1 # 80000001 <.L690+0x7ffff7e5>
 35c:	01430333          	add	x6,x6,x20
 360:	017e0e33          	add	x28,x28,x23
 364:	fa8b1ee3          	bne	x22,x8,320 <.L30>
 368:	e6dff06f          	j	1d4 <.L21>

0000036c <.L85>:
 36c:	00000a37          	lui	x20,0x0
 370:	000000b7          	lui	x1,0x0
 374:	004a0b93          	addi	x23,x20,4 # 4 <_Z19tensorlib_copy_implIiiEiP11hb_tensor_tS1_+0x4>
 378:	01408993          	addi	x19,x1,20 # 14 <_Z19tensorlib_copy_implIiiEiP11hb_tensor_tS1_+0x14>

0000037c <.L18>:
 37c:	000b8913          	mv	x18,x23

00000380 <.L47>:
 380:	00094a83          	lbu	x21,0(x18) # 3f000000 <.L690+0x3efff7e4>
 384:	00190913          	addi	x18,x18,1
 388:	0ffafe13          	andi	x28,x21,255
 38c:	fe0e08e3          	beqz	x28,37c <.L18>
 390:	ff2998e3          	bne	x19,x18,380 <.L47>
 394:	0006a483          	lw	x9,0(x13)
 398:	231c07b7          	lui	x15,0x231c0
 39c:	00100f13          	li	x30,1
 3a0:	01848593          	addi	x11,x9,24
 3a4:	00b60433          	add	x8,x12,x11
 3a8:	00f46333          	or	x6,x8,x15
 3ac:	01e30023          	sb	x30,0(x6)
 3b0:	00072c83          	lw	x25,0(x14)
 3b4:	00700e93          	li	x29,7
 3b8:	ebdc9ae3          	bne	x25,x29,26c <.L45>
 3bc:	0006a803          	lw	x16,0(x13)
 3c0:	00300f93          	li	x31,3
 3c4:	17f80463          	beq	x16,x31,52c <.L88>

000003c8 <.L53>:
 3c8:	00100e93          	li	x29,1
 3cc:	0100006f          	j	3dc <.L49>

000003d0 <.L89>:
 3d0:	01460893          	addi	x17,x12,20
 3d4:	1408ab2f          	lr.w.aq	x22,(x17)
 3d8:	01db0863          	beq	x22,x29,3e8 <.L54>

000003dc <.L49>:
 3dc:	01460813          	addi	x16,x12,20
 3e0:	10082faf          	lr.w	x31,(x16)
 3e4:	ffdf96e3          	bne	x31,x29,3d0 <.L89>

000003e8 <.L54>:
 3e8:	00062a23          	sw	x0,20(x12)
 3ec:	00000393          	li	x7,0
 3f0:	01000c13          	li	x24,16

000003f4 <.L55>:
 3f4:	007602b3          	add	x5,x12,x7
 3f8:	00028223          	sb	x0,4(x5)
 3fc:	00138393          	addi	x7,x7,1
 400:	ff839ae3          	bne	x7,x24,3f4 <.L55>
 404:	00062023          	sw	x0,0(x12)
 408:	00000493          	li	x9,0
 40c:	20000a37          	lui	x20,0x20000
 410:	00100b93          	li	x23,1
 414:	000400b7          	lui	x1,0x40
 418:	00400ab7          	lui	x21,0x400

0000041c <.L56>:
 41c:	0006a903          	lw	x18,0(x13)
 420:	00966e33          	or	x28,x12,x9
 424:	001484b3          	add	x9,x9,x1
 428:	01891413          	slli	x8,x18,0x18
 42c:	01c46333          	or	x6,x8,x28
 430:	014367b3          	or	x15,x6,x20
 434:	0177a023          	sw	x23,0(x15) # 231c0000 <.L690+0x231bf7e4>
 438:	ff5492e3          	bne	x9,x21,41c <.L56>
 43c:	e31ff06f          	j	26c <.L45>

00000440 <.L81>:
 440:	fff48b13          	addi	x22,x9,-1
 444:	ffd00c13          	li	x24,-3
 448:	d96c66e3          	bltu	x24,x22,1d4 <.L21>
 44c:	000003b7          	lui	x7,0x0
 450:	0003aa03          	lw	x20,0(x7) # 0 <_Z19tensorlib_copy_implIiiEiP11hb_tensor_tS1_>
 454:	0074db93          	srli	x23,x9,0x7
 458:	001b8613          	addi	x12,x23,1 # fc0001 <.L690+0xfbf7e5>
 45c:	07fa7793          	andi	x15,x20,127
 460:	02c787b3          	mul	x15,x15,x12
 464:	00f60cb3          	add	x25,x12,x15
 468:	1794e063          	bltu	x9,x25,5c8 <.L90>

0000046c <.L20>:
 46c:	d797f4e3          	bgeu	x15,x25,1d4 <.L21>
 470:	0008a083          	lw	x1,0(x17)
 474:	00082983          	lw	x19,0(x16)
 478:	40fc8ab3          	sub	x21,x25,x15
 47c:	00209813          	slli	x16,x1,0x2
 480:	00299893          	slli	x17,x19,0x2
 484:	02f80933          	mul	x18,x16,x15
 488:	00400593          	li	x11,4
 48c:	02f884b3          	mul	x9,x17,x15
 490:	012e0533          	add	x10,x28,x18
 494:	00930333          	add	x6,x6,x9
 498:	0755fc63          	bgeu	x11,x21,510 <.L26>
 49c:	ffcc8413          	addi	x8,x25,-4
 4a0:	0687f863          	bgeu	x15,x8,510 <.L26>
 4a4:	00050e13          	mv	x28,x10
 4a8:	00309b13          	slli	x22,x1,0x3
 4ac:	00399513          	slli	x10,x19,0x3
 4b0:	00409c13          	slli	x24,x1,0x4
 4b4:	00499293          	slli	x5,x19,0x4
 4b8:	00a304b3          	add	x9,x6,x10
 4bc:	016e05b3          	add	x11,x28,x22

000004c0 <.L25>:
 4c0:	00032383          	lw	x7,0(x6)
 4c4:	01130a33          	add	x20,x6,x17
 4c8:	000a2b83          	lw	x23,0(x20) # 20000000 <.L690+0x1ffff7e4>
 4cc:	0004a603          	lw	x12,0(x9)
 4d0:	011480b3          	add	x1,x9,x17
 4d4:	0000a983          	lw	x19,0(x1) # 40000 <.L690+0x3f7e4>
 4d8:	010e0ab3          	add	x21,x28,x16
 4dc:	007e2023          	sw	x7,0(x28) # 19000 <.L690+0x187e4>
 4e0:	017aa023          	sw	x23,0(x21) # 400000 <.L690+0x3ff7e4>
 4e4:	00c5a023          	sw	x12,0(x11)
 4e8:	01058933          	add	x18,x11,x16
 4ec:	018e0533          	add	x10,x28,x24
 4f0:	01392023          	sw	x19,0(x18)
 4f4:	00478793          	addi	x15,x15,4
 4f8:	00050e13          	mv	x28,x10
 4fc:	00530333          	add	x6,x6,x5
 500:	005484b3          	add	x9,x9,x5
 504:	018585b3          	add	x11,x11,x24
 508:	fa87ece3          	bltu	x15,x8,4c0 <.L25>
 50c:	cd97f4e3          	bgeu	x15,x25,1d4 <.L21>

00000510 <.L26>:
 510:	00032403          	lw	x8,0(x6)
 514:	00178793          	addi	x15,x15,1
 518:	01130333          	add	x6,x6,x17
 51c:	00852023          	sw	x8,0(x10)
 520:	01050533          	add	x10,x10,x16
 524:	ff97e6e3          	bltu	x15,x25,510 <.L26>
 528:	cadff06f          	j	1d4 <.L21>

0000052c <.L88>:
 52c:	000008b7          	lui	x17,0x0
 530:	00000c37          	lui	x24,0x0
 534:	01888b13          	addi	x22,x17,24 # 18 <_Z19tensorlib_copy_implIiiEiP11hb_tensor_tS1_+0x18>
 538:	020c0293          	addi	x5,x24,32 # 20 <_Z19tensorlib_copy_implIiiEiP11hb_tensor_tS1_+0x20>

0000053c <.L48>:
 53c:	000b0a13          	mv	x20,x22

00000540 <.L50>:
 540:	000a4383          	lbu	x7,0(x20)
 544:	001a0a13          	addi	x20,x20,1
 548:	0ff3fb93          	andi	x23,x7,255
 54c:	fe0b88e3          	beqz	x23,53c <.L48>
 550:	ff4298e3          	bne	x5,x20,540 <.L50>
 554:	00060c23          	sb	x0,24(x12)
 558:	00060ca3          	sb	x0,25(x12)
 55c:	00060d23          	sb	x0,26(x12)
 560:	00060da3          	sb	x0,27(x12)
 564:	00060e23          	sb	x0,28(x12)
 568:	00060ea3          	sb	x0,29(x12)
 56c:	00060f23          	sb	x0,30(x12)
 570:	00060fa3          	sb	x0,31(x12)
 574:	00062a23          	sw	x0,20(x12)
 578:	00000593          	li	x11,0
 57c:	03fc00b7          	lui	x1,0x3fc0
 580:	20000ab7          	lui	x21,0x20000
 584:	00100913          	li	x18,1
 588:	01000e37          	lui	x28,0x1000
 58c:	080004b7          	lui	x9,0x8000
 590:	0080006f          	j	598 <.L52>

00000594 <.L91>:
 594:	00072c83          	lw	x25,0(x14)

00000598 <.L52>:
 598:	012c9413          	slli	x8,x25,0x12
 59c:	00b9e333          	or	x6,x19,x11
 5a0:	001477b3          	and	x15,x8,x1
 5a4:	0067ef33          	or	x30,x15,x6
 5a8:	015f6cb3          	or	x25,x30,x21
 5ac:	012ca023          	sw	x18,0(x25)
 5b0:	01c585b3          	add	x11,x11,x28
 5b4:	fe9590e3          	bne	x11,x9,594 <.L91>
 5b8:	00072703          	lw	x14,0(x14)
 5bc:	00700993          	li	x19,7
 5c0:	e13704e3          	beq	x14,x19,3c8 <.L53>
 5c4:	ca9ff06f          	j	26c <.L45>

000005c8 <.L90>:
 5c8:	00048c93          	mv	x25,x9
 5cc:	ea1ff06f          	j	46c <.L20>

000005d0 <.L61>:
 5d0:	00030b13          	mv	x22,x6
 5d4:	bf1ff06f          	j	1c4 <.L42>

000005d8 <.L60>:
 5d8:	000e0613          	mv	x12,x28
 5dc:	ba9ff06f          	j	184 <.L40>

000005e0 <.L83>:
 5e0:	0043a283          	lw	x5,4(x7)
 5e4:	0003a083          	lw	x1,0(x7)
 5e8:	ffd00993          	li	x19,-3
 5ec:	02128ab3          	mul	x21,x5,x1
 5f0:	fffa8a13          	addi	x20,x21,-1 # 1fffffff <.L690+0x1ffff7e3>
 5f4:	bf49e0e3          	bltu	x19,x20,1d4 <.L21>
 5f8:	00000637          	lui	x12,0x0
 5fc:	00062503          	lw	x10,0(x12) # 0 <_Z19tensorlib_copy_implIiiEiP11hb_tensor_tS1_>
 600:	007adb93          	srli	x23,x21,0x7
 604:	001b8493          	addi	x9,x23,1
 608:	07f57b13          	andi	x22,x10,127
 60c:	029b0533          	mul	x10,x22,x9
 610:	00a48cb3          	add	x25,x9,x10
 614:	0b9ae463          	bltu	x21,x25,6bc <.L92>

00000618 <.L34>:
 618:	bb957ee3          	bgeu	x10,x25,1d4 <.L21>
 61c:	00492403          	lw	x8,4(x18)
 620:	0048a083          	lw	x1,4(x17)
 624:	0008aa83          	lw	x21,0(x17)
 628:	00482983          	lw	x19,4(x16)
 62c:	00082903          	lw	x18,0(x16)
 630:	0083a383          	lw	x7,8(x7)

00000634 <.L36>:
 634:	02557c33          	remu	x24,x10,x5
 638:	02555a33          	divu	x20,x10,x5
 63c:	028577b3          	remu	x15,x10,x8
 640:	02855bb3          	divu	x23,x10,x8
 644:	035a0633          	mul	x12,x20,x21
 648:	021c05b3          	mul	x11,x24,x1
 64c:	032b8a33          	mul	x20,x23,x18
 650:	00c58b33          	add	x22,x11,x12
 654:	002b1c13          	slli	x24,x22,0x2
 658:	018e0633          	add	x12,x28,x24
 65c:	033784b3          	mul	x9,x15,x19
 660:	014487b3          	add	x15,x9,x20
 664:	00279b93          	slli	x23,x15,0x2
 668:	017307b3          	add	x15,x6,x23
 66c:	02038863          	beqz	x7,69c <.L38>
 670:	0088a583          	lw	x11,8(x17)
 674:	00882483          	lw	x9,8(x16)
 678:	00000b93          	li	x23,0
 67c:	00259a13          	slli	x20,x11,0x2
 680:	00249b13          	slli	x22,x9,0x2

00000684 <.L37>:
 684:	0007ac03          	lw	x24,0(x15)
 688:	001b8b93          	addi	x23,x23,1
 68c:	016787b3          	add	x15,x15,x22
 690:	01862023          	sw	x24,0(x12)
 694:	01460633          	add	x12,x12,x20
 698:	fe7b96e3          	bne	x23,x7,684 <.L37>

0000069c <.L38>:
 69c:	00150513          	addi	x10,x10,1
 6a0:	f8ac9ae3          	bne	x25,x10,634 <.L36>
 6a4:	b31ff06f          	j	1d4 <.L21>

000006a8 <.L84>:
 6a8:	00048093          	mv	x1,x9
 6ac:	a81ff06f          	j	12c <.L39>

000006b0 <.L87>:
 6b0:	00028b13          	mv	x22,x5
 6b4:	c56464e3          	bltu	x8,x22,2fc <.L93>
 6b8:	b1dff06f          	j	1d4 <.L21>

000006bc <.L92>:
 6bc:	000a8c93          	mv	x25,x21
 6c0:	f59ff06f          	j	618 <.L34>

Disassembly of section .text._ZN8HBTensorIxLln1EEC2EP11hb_tensor_t:

00000000 <_ZN8HBTensorIxLln1EEC1EP11hb_tensor_t>:
   0:	00058713          	mv	x14,x11
   4:	0045a683          	lw	x13,4(x11)
   8:	00072803          	lw	x16,0(x14)
   c:	0105a583          	lw	x11,16(x11)
  10:	00050793          	mv	x15,x10
  14:	02850613          	addi	x12,x10,40
  18:	01450513          	addi	x10,x10,20
  1c:	0107a023          	sw	x16,0(x15)
  20:	00d7a223          	sw	x13,4(x15)
  24:	00a7a423          	sw	x10,8(x15)
  28:	00c7a623          	sw	x12,12(x15)
  2c:	00b7a823          	sw	x11,16(x15)
  30:	00060613          	mv	x12,x12
  34:	00500293          	li	x5,5
  38:	04d2e463          	bltu	x5,x13,80 <.L107>
  3c:	00872303          	lw	x6,8(x14)
  40:	00c72383          	lw	x7,12(x14)
  44:	02068c63          	beqz	x13,7c <.L95>
  48:	00269893          	slli	x17,x13,0x2
  4c:	00078713          	mv	x14,x15
  50:	01178e33          	add	x28,x15,x17
  54:	40f30eb3          	sub	x29,x6,x15
  58:	40f38f33          	sub	x30,x7,x15

0000005c <.L99>:
  5c:	00ee8fb3          	add	x31,x29,x14
  60:	000fa683          	lw	x13,0(x31)
  64:	00ef05b3          	add	x11,x30,x14
  68:	00470713          	addi	x14,x14,4
  6c:	00d72823          	sw	x13,16(x14)
  70:	0005a803          	lw	x16,0(x11)
  74:	03072223          	sw	x16,36(x14)
  78:	ffc712e3          	bne	x14,x28,5c <.L99>

0000007c <.L95>:
  7c:	00008067          	ret

00000080 <.L107>:
  80:	ff010113          	addi	x2,x2,-16
  84:	000007b7          	lui	x15,0x0
  88:	00112623          	sw	x1,12(x2)
  8c:	000000b7          	lui	x1,0x0
  90:	0d800613          	li	x12,216
  94:	00008593          	mv	x11,x1
  98:	00078513          	mv	x10,x15
  9c:	00000097          	auipc	x1,0x0
  a0:	000080e7          	jalr	x1 # 9c <.L107+0x1c>
  a4:	00000637          	lui	x12,0x0
  a8:	00060513          	mv	x10,x12
  ac:	00000097          	auipc	x1,0x0
  b0:	000080e7          	jalr	x1 # ac <.L107+0x2c>
  b4:	00000537          	lui	x10,0x0
  b8:	00052283          	lw	x5,0(x10) # 0 <_ZN8HBTensorIxLln1EEC1EP11hb_tensor_t>
  bc:	00000337          	lui	x6,0x0
  c0:	00032383          	lw	x7,0(x6) # 0 <_ZN8HBTensorIxLln1EEC1EP11hb_tensor_t>
  c4:	01029893          	slli	x17,x5,0x10
  c8:	4100feb7          	lui	x29,0x4100f
  cc:	00788e33          	add	x28,x17,x7
  d0:	adceac23          	sw	x28,-1320(x29) # 4100ead8 <.L690+0x4100e2bc>

000000d4 <.L97>:
  d4:	0000006f          	j	d4 <.L97>

Disassembly of section .text._Z19tensorlib_copy_implIixEiP11hb_tensor_tS1_:

00000000 <_Z19tensorlib_copy_implIixEiP11hb_tensor_tS1_>:
   0:	f5010113          	addi	x2,x2,-176
   4:	00050793          	mv	x15,x10
   8:	0a812423          	sw	x8,168(x2)
   c:	00810513          	addi	x10,x2,8
  10:	00058413          	mv	x8,x11
  14:	00078593          	mv	x11,x15
  18:	0a112623          	sw	x1,172(x2)
  1c:	0a912223          	sw	x9,164(x2)
  20:	0b212023          	sw	x18,160(x2)
  24:	09312e23          	sw	x19,156(x2)
  28:	09412c23          	sw	x20,152(x2)
  2c:	09512a23          	sw	x21,148(x2)
  30:	09612823          	sw	x22,144(x2)
  34:	09712623          	sw	x23,140(x2)
  38:	09812423          	sw	x24,136(x2)
  3c:	09912223          	sw	x25,132(x2)
  40:	00000097          	auipc	x1,0x0
  44:	000080e7          	jalr	x1 # 40 <_Z19tensorlib_copy_implIixEiP11hb_tensor_tS1_+0x40>
  48:	00040593          	mv	x11,x8
  4c:	04410513          	addi	x10,x2,68
  50:	00000097          	auipc	x1,0x0
  54:	000080e7          	jalr	x1 # 50 <_Z19tensorlib_copy_implIixEiP11hb_tensor_tS1_+0x50>
  58:	00000f37          	lui	x30,0x0
  5c:	000006b7          	lui	x13,0x0
  60:	00000eb7          	lui	x29,0x0
  64:	00000737          	lui	x14,0x0
  68:	000f2283          	lw	x5,0(x30) # 0 <_Z19tensorlib_copy_implIixEiP11hb_tensor_tS1_>
  6c:	0006a803          	lw	x16,0(x13) # 0 <_Z19tensorlib_copy_implIixEiP11hb_tensor_tS1_>
  70:	000ea603          	lw	x12,0(x29) # 0 <_Z19tensorlib_copy_implIixEiP11hb_tensor_tS1_>
  74:	00072503          	lw	x10,0(x14) # 0 <_Z19tensorlib_copy_implIixEiP11hb_tensor_tS1_>
  78:	00000fb7          	lui	x31,0x0
  7c:	000fa583          	lw	x11,0(x31) # 0 <_Z19tensorlib_copy_implIixEiP11hb_tensor_tS1_>
  80:	01028333          	add	x6,x5,x16
  84:	00a603b3          	add	x7,x12,x10
  88:	01831493          	slli	x9,x6,0x18
  8c:	01239893          	slli	x17,x7,0x12
  90:	3f000937          	lui	x18,0x3f000
  94:	00fc0a37          	lui	x20,0xfc0
  98:	00040c37          	lui	x24,0x40
  9c:	0124f9b3          	and	x19,x9,x18
  a0:	0148fab3          	and	x21,x17,x20
  a4:	00459b13          	slli	x22,x11,0x4
  a8:	ff0c0c93          	addi	x25,x24,-16 # 3fff0 <.L690+0x3f7d4>
  ac:	019b7e33          	and	x28,x22,x25
  b0:	0159ebb3          	or	x23,x19,x21
  b4:	01cbe7b3          	or	x15,x23,x28
  b8:	00c12283          	lw	x5,12(x2)
  bc:	80000437          	lui	x8,0x80000
  c0:	0087e833          	or	x16,x15,x8
  c4:	41001637          	lui	x12,0x41001
  c8:	d1062623          	sw	x16,-756(x12) # 41000d0c <.L690+0x410004f0>
  cc:	00100513          	li	x10,1
  d0:	00812483          	lw	x9,8(x2)
  d4:	01012883          	lw	x17,16(x2)
  d8:	01812e03          	lw	x28,24(x2)
  dc:	04c12803          	lw	x16,76(x2)
  e0:	05412303          	lw	x6,84(x2)
  e4:	36a28663          	beq	x5,x10,450 <.L174>
  e8:	00200093          	li	x1,2
  ec:	01412383          	lw	x7,20(x2)
  f0:	1e128063          	beq	x5,x1,2d0 <.L175>
  f4:	00300593          	li	x11,3
  f8:	05012903          	lw	x18,80(x2)
  fc:	50b28e63          	beq	x5,x11,618 <.L176>
 100:	fff48993          	addi	x19,x9,-1 # 7ffffff <.L690+0x7fff7e3>
 104:	ffd00a13          	li	x20,-3
 108:	0d3a6a63          	bltu	x20,x19,1dc <.L114>
 10c:	00000ab7          	lui	x21,0x0
 110:	000aab03          	lw	x22,0(x21) # 0 <_Z19tensorlib_copy_implIixEiP11hb_tensor_tS1_>
 114:	0074db93          	srli	x23,x9,0x7
 118:	001b8c13          	addi	x24,x23,1
 11c:	07fb7c93          	andi	x25,x22,127
 120:	038c85b3          	mul	x11,x25,x24
 124:	00bc00b3          	add	x1,x24,x11
 128:	5c14e063          	bltu	x9,x1,6e8 <.L177>

0000012c <.L132>:
 12c:	0a15f863          	bgeu	x11,x1,1dc <.L114>
 130:	04812983          	lw	x19,72(x2)
 134:	00229793          	slli	x15,x5,0x2
 138:	00f38ab3          	add	x21,x7,x15
 13c:	00299413          	slli	x8,x19,0x2
 140:	00890a33          	add	x20,x18,x8

00000144 <.L137>:
 144:	4c028663          	beqz	x5,610 <.L153>
 148:	00088c93          	mv	x25,x17
 14c:	00038c13          	mv	x24,x7
 150:	00058513          	mv	x10,x11
 154:	00000793          	li	x15,0

00000158 <.L134>:
 158:	000c2b03          	lw	x22,0(x24)
 15c:	000cab83          	lw	x23,0(x25)
 160:	004c0c13          	addi	x24,x24,4
 164:	036574b3          	remu	x9,x10,x22
 168:	004c8c93          	addi	x25,x25,4
 16c:	03748433          	mul	x8,x9,x23
 170:	03655533          	divu	x10,x10,x22
 174:	008787b3          	add	x15,x15,x8
 178:	ff8a90e3          	bne	x21,x24,158 <.L134>
 17c:	00379613          	slli	x12,x15,0x3
 180:	00ce0633          	add	x12,x28,x12

00000184 <.L133>:
 184:	48098263          	beqz	x19,608 <.L154>
 188:	00080493          	mv	x9,x16
 18c:	00090513          	mv	x10,x18
 190:	00058413          	mv	x8,x11
 194:	00000793          	li	x15,0

00000198 <.L136>:
 198:	00052c03          	lw	x24,0(x10)
 19c:	0004ac83          	lw	x25,0(x9)
 1a0:	00450513          	addi	x10,x10,4
 1a4:	00448493          	addi	x9,x9,4
 1a8:	03847bb3          	remu	x23,x8,x24
 1ac:	039b8b33          	mul	x22,x23,x25
 1b0:	03845433          	divu	x8,x8,x24
 1b4:	016787b3          	add	x15,x15,x22
 1b8:	feaa10e3          	bne	x20,x10,198 <.L136>
 1bc:	00279c13          	slli	x24,x15,0x2
 1c0:	01830b33          	add	x22,x6,x24

000001c4 <.L135>:
 1c4:	000b2c83          	lw	x25,0(x22)
 1c8:	00158593          	addi	x11,x11,1
 1cc:	41fcd513          	srai	x10,x25,0x1f
 1d0:	01962023          	sw	x25,0(x12)
 1d4:	00a62223          	sw	x10,4(x12)
 1d8:	f6b096e3          	bne	x1,x11,144 <.L137>

000001dc <.L114>:
 1dc:	000f2f03          	lw	x30,0(x30)
 1e0:	0006ab03          	lw	x22,0(x13)
 1e4:	000eae83          	lw	x29,0(x29)
 1e8:	00072803          	lw	x16,0(x14)
 1ec:	000faf83          	lw	x31,0(x31)
 1f0:	016f08b3          	add	x17,x30,x22
 1f4:	010e8cb3          	add	x25,x29,x16
 1f8:	01889493          	slli	x9,x17,0x18
 1fc:	012c9993          	slli	x19,x25,0x12
 200:	00fc0637          	lui	x12,0xfc0
 204:	3f000bb7          	lui	x23,0x3f000
 208:	00040ab7          	lui	x21,0x40
 20c:	00c9f2b3          	and	x5,x19,x12
 210:	0174fa33          	and	x20,x9,x23
 214:	004f9413          	slli	x8,x31,0x4
 218:	ff0a8e13          	addi	x28,x21,-16 # 3fff0 <.L690+0x3f7d4>
 21c:	01c47533          	and	x10,x8,x28
 220:	005a60b3          	or	x1,x20,x5
 224:	00a0e5b3          	or	x11,x1,x10
 228:	c0000937          	lui	x18,0xc0000
 22c:	0125e7b3          	or	x15,x11,x18
 230:	41001337          	lui	x6,0x41001
 234:	d0f32623          	sw	x15,-756(x6) # 41000d0c <.L690+0x410004f0>
 238:	00072c03          	lw	x24,0(x14)
 23c:	0006a383          	lw	x7,0(x13)
 240:	00000537          	lui	x10,0x0
 244:	004c0f13          	addi	x30,x24,4
 248:	00050613          	mv	x12,x10
 24c:	01e60b33          	add	x22,x12,x30
 250:	01839e93          	slli	x29,x7,0x18
 254:	01db6833          	or	x16,x22,x29
 258:	201c0fb7          	lui	x31,0x201c0
 25c:	01f868b3          	or	x17,x16,x31
 260:	00100c93          	li	x25,1
 264:	01988023          	sb	x25,0(x17)
 268:	00072483          	lw	x9,0(x14)
 26c:	00700993          	li	x19,7
 270:	11348663          	beq	x9,x19,37c <.L178>

00000274 <.L138>:
 274:	00100693          	li	x13,1
 278:	0100006f          	j	288 <.L151>

0000027c <.L179>:
 27c:	00050593          	mv	x11,x10
 280:	1405a72f          	lr.w.aq	x14,(x11)
 284:	00d70863          	beq	x14,x13,294 <.L150>

00000288 <.L151>:
 288:	00050393          	mv	x7,x10
 28c:	1003ab2f          	lr.w	x22,(x7)
 290:	fedb16e3          	bne	x22,x13,27c <.L179>

00000294 <.L150>:
 294:	0ac12083          	lw	x1,172(x2)
 298:	0a812403          	lw	x8,168(x2)
 29c:	00062023          	sw	x0,0(x12) # fc0000 <.L690+0xfbf7e4>
 2a0:	0a412483          	lw	x9,164(x2)
 2a4:	0a012903          	lw	x18,160(x2)
 2a8:	09c12983          	lw	x19,156(x2)
 2ac:	09812a03          	lw	x20,152(x2)
 2b0:	09412a83          	lw	x21,148(x2)
 2b4:	09012b03          	lw	x22,144(x2)
 2b8:	08c12b83          	lw	x23,140(x2)
 2bc:	08812c03          	lw	x24,136(x2)
 2c0:	08412c83          	lw	x25,132(x2)
 2c4:	00000513          	li	x10,0
 2c8:	0b010113          	addi	x2,x2,176
 2cc:	00008067          	ret

000002d0 <.L175>:
 2d0:	0003a283          	lw	x5,0(x7)
 2d4:	ffd00093          	li	x1,-3
 2d8:	fff28a93          	addi	x21,x5,-1
 2dc:	f150e0e3          	bltu	x1,x21,1dc <.L114>
 2e0:	00000a37          	lui	x20,0x0
 2e4:	000a2483          	lw	x9,0(x20) # 0 <_Z19tensorlib_copy_implIixEiP11hb_tensor_tS1_>
 2e8:	0072d993          	srli	x19,x5,0x7
 2ec:	00198913          	addi	x18,x19,1
 2f0:	07f4f413          	andi	x8,x9,127
 2f4:	03240433          	mul	x8,x8,x18
 2f8:	00890bb3          	add	x23,x18,x8
 2fc:	3f72ea63          	bltu	x5,x23,6f0 <.L180>
 300:	ed747ee3          	bgeu	x8,x23,1dc <.L114>

00000304 <.L186>:
 304:	00082b03          	lw	x22,0(x16)
 308:	0008ac03          	lw	x24,0(x17)
 30c:	0043ac83          	lw	x25,4(x7)
 310:	002b1093          	slli	x1,x22,0x2
 314:	003c1a93          	slli	x21,x24,0x3
 318:	021403b3          	mul	x7,x8,x1
 31c:	035405b3          	mul	x11,x8,x21
 320:	00730333          	add	x6,x6,x7
 324:	00be0e33          	add	x28,x28,x11

00000328 <.L123>:
 328:	00030293          	mv	x5,x6
 32c:	020c8e63          	beqz	x25,368 <.L125>
 330:	0048a603          	lw	x12,4(x17)
 334:	00482a03          	lw	x20,4(x16)
 338:	000e0793          	mv	x15,x28
 33c:	00361513          	slli	x10,x12,0x3
 340:	002a1493          	slli	x9,x20,0x2
 344:	00000b13          	li	x22,0

00000348 <.L124>:
 348:	0002a983          	lw	x19,0(x5)
 34c:	001b0b13          	addi	x22,x22,1
 350:	009282b3          	add	x5,x5,x9
 354:	41f9d913          	srai	x18,x19,0x1f
 358:	0137a023          	sw	x19,0(x15) # 0 <_Z19tensorlib_copy_implIixEiP11hb_tensor_tS1_>
 35c:	0127a223          	sw	x18,4(x15)
 360:	00a787b3          	add	x15,x15,x10
 364:	ff9b12e3          	bne	x22,x25,348 <.L124>

00000368 <.L125>:
 368:	00140413          	addi	x8,x8,1 # 80000001 <.L690+0x7ffff7e5>
 36c:	00130333          	add	x6,x6,x1
 370:	015e0e33          	add	x28,x28,x21
 374:	fa8b9ae3          	bne	x23,x8,328 <.L123>
 378:	e65ff06f          	j	1dc <.L114>

0000037c <.L178>:
 37c:	00000bb7          	lui	x23,0x0
 380:	000002b7          	lui	x5,0x0
 384:	004b8a13          	addi	x20,x23,4 # 4 <_Z19tensorlib_copy_implIixEiP11hb_tensor_tS1_+0x4>
 388:	01428413          	addi	x8,x5,20 # 14 <_Z19tensorlib_copy_implIixEiP11hb_tensor_tS1_+0x14>

0000038c <.L111>:
 38c:	000a0a93          	mv	x21,x20

00000390 <.L140>:
 390:	000ac083          	lbu	x1,0(x21)
 394:	001a8a93          	addi	x21,x21,1
 398:	0ff0fe13          	andi	x28,x1,255
 39c:	fe0e08e3          	beqz	x28,38c <.L111>
 3a0:	ff5418e3          	bne	x8,x21,390 <.L140>
 3a4:	0006a583          	lw	x11,0(x13)
 3a8:	231c0337          	lui	x6,0x231c0
 3ac:	00100393          	li	x7,1
 3b0:	01858913          	addi	x18,x11,24
 3b4:	012607b3          	add	x15,x12,x18
 3b8:	0067ec33          	or	x24,x15,x6
 3bc:	007c0023          	sb	x7,0(x24)
 3c0:	00072b03          	lw	x22,0(x14)
 3c4:	00700f13          	li	x30,7
 3c8:	ebeb16e3          	bne	x22,x30,274 <.L138>
 3cc:	0006ae83          	lw	x29,0(x13)
 3d0:	00300813          	li	x16,3
 3d4:	190e8863          	beq	x29,x16,564 <.L181>

000003d8 <.L146>:
 3d8:	00100f13          	li	x30,1
 3dc:	0100006f          	j	3ec <.L142>

000003e0 <.L182>:
 3e0:	01460f93          	addi	x31,x12,20
 3e4:	140fa8af          	lr.w.aq	x17,(x31)
 3e8:	01e88863          	beq	x17,x30,3f8 <.L147>

000003ec <.L142>:
 3ec:	01460e93          	addi	x29,x12,20
 3f0:	100ea82f          	lr.w	x16,(x29)
 3f4:	ffe816e3          	bne	x16,x30,3e0 <.L182>

000003f8 <.L147>:
 3f8:	00062a23          	sw	x0,20(x12)
 3fc:	00000993          	li	x19,0
 400:	01000c93          	li	x25,16

00000404 <.L148>:
 404:	013604b3          	add	x9,x12,x19
 408:	00048223          	sb	x0,4(x9)
 40c:	00198993          	addi	x19,x19,1
 410:	ff999ae3          	bne	x19,x25,404 <.L148>
 414:	00062023          	sw	x0,0(x12)
 418:	00000913          	li	x18,0
 41c:	20000bb7          	lui	x23,0x20000
 420:	00100a13          	li	x20,1
 424:	000402b7          	lui	x5,0x40
 428:	004000b7          	lui	x1,0x400

0000042c <.L149>:
 42c:	0006aa83          	lw	x21,0(x13)
 430:	01266e33          	or	x28,x12,x18
 434:	00590933          	add	x18,x18,x5
 438:	018a9793          	slli	x15,x21,0x18
 43c:	01c7e333          	or	x6,x15,x28
 440:	01736c33          	or	x24,x6,x23
 444:	014c2023          	sw	x20,0(x24)
 448:	fe1912e3          	bne	x18,x1,42c <.L149>
 44c:	e29ff06f          	j	274 <.L138>

00000450 <.L174>:
 450:	fff48b93          	addi	x23,x9,-1
 454:	ffd00c13          	li	x24,-3
 458:	d97c62e3          	bltu	x24,x23,1dc <.L114>
 45c:	00000cb7          	lui	x25,0x0
 460:	000ca083          	lw	x1,0(x25) # 0 <_Z19tensorlib_copy_implIixEiP11hb_tensor_tS1_>
 464:	0074da93          	srli	x21,x9,0x7
 468:	001a8393          	addi	x7,x21,1
 46c:	07f0f593          	andi	x11,x1,127
 470:	027587b3          	mul	x15,x11,x7
 474:	00f38b33          	add	x22,x7,x15
 478:	1964e463          	bltu	x9,x22,600 <.L183>

0000047c <.L113>:
 47c:	d767f0e3          	bgeu	x15,x22,1dc <.L114>
 480:	0008aa03          	lw	x20,0(x17)
 484:	00082483          	lw	x9,0(x16)
 488:	40fb09b3          	sub	x19,x22,x15
 48c:	003a1813          	slli	x16,x20,0x3
 490:	00249893          	slli	x17,x9,0x2
 494:	02f80633          	mul	x12,x16,x15
 498:	00400513          	li	x10,4
 49c:	02f882b3          	mul	x5,x17,x15
 4a0:	00ce03b3          	add	x7,x28,x12
 4a4:	00530333          	add	x6,x6,x5
 4a8:	09357c63          	bgeu	x10,x19,540 <.L119>
 4ac:	ffcb0913          	addi	x18,x22,-4
 4b0:	0927f863          	bgeu	x15,x18,540 <.L119>
 4b4:	00349413          	slli	x8,x9,0x3
 4b8:	004a1b93          	slli	x23,x20,0x4
 4bc:	00038e13          	mv	x28,x7
 4c0:	005a1c13          	slli	x24,x20,0x5
 4c4:	00449c93          	slli	x25,x9,0x4
 4c8:	00830533          	add	x10,x6,x8
 4cc:	017385b3          	add	x11,x7,x23

000004d0 <.L118>:
 4d0:	00032083          	lw	x1,0(x6) # 231c0000 <.L690+0x231bf7e4>
 4d4:	01130ab3          	add	x21,x6,x17
 4d8:	000aa483          	lw	x9,0(x21)
 4dc:	00052983          	lw	x19,0(x10) # 0 <_Z19tensorlib_copy_implIixEiP11hb_tensor_tS1_>
 4e0:	011503b3          	add	x7,x10,x17
 4e4:	0003ab83          	lw	x23,0(x7)
 4e8:	41f0da13          	srai	x20,x1,0x1f
 4ec:	001e2023          	sw	x1,0(x28) # 1000000 <.L690+0xfff7e4>
 4f0:	014e2223          	sw	x20,4(x28)
 4f4:	010e0633          	add	x12,x28,x16
 4f8:	41f4d293          	srai	x5,x9,0x1f
 4fc:	00962023          	sw	x9,0(x12)
 500:	00562223          	sw	x5,4(x12)
 504:	41f9d413          	srai	x8,x19,0x1f
 508:	0135a023          	sw	x19,0(x11)
 50c:	0085a223          	sw	x8,4(x11)
 510:	010580b3          	add	x1,x11,x16
 514:	41fbda93          	srai	x21,x23,0x1f
 518:	018e03b3          	add	x7,x28,x24
 51c:	0170a023          	sw	x23,0(x1) # 400000 <.L690+0x3ff7e4>
 520:	0150a223          	sw	x21,4(x1)
 524:	00478793          	addi	x15,x15,4
 528:	00038e13          	mv	x28,x7
 52c:	01930333          	add	x6,x6,x25
 530:	01950533          	add	x10,x10,x25
 534:	018585b3          	add	x11,x11,x24
 538:	f927ece3          	bltu	x15,x18,4d0 <.L118>
 53c:	cb67f0e3          	bgeu	x15,x22,1dc <.L114>

00000540 <.L119>:
 540:	00032903          	lw	x18,0(x6)
 544:	00178793          	addi	x15,x15,1
 548:	01130333          	add	x6,x6,x17
 54c:	41f95c13          	srai	x24,x18,0x1f
 550:	0123a023          	sw	x18,0(x7)
 554:	0183a223          	sw	x24,4(x7)
 558:	010383b3          	add	x7,x7,x16
 55c:	ff67e2e3          	bltu	x15,x22,540 <.L119>
 560:	c7dff06f          	j	1dc <.L114>

00000564 <.L181>:
 564:	00000fb7          	lui	x31,0x0
 568:	00000cb7          	lui	x25,0x0
 56c:	018f8893          	addi	x17,x31,24 # 18 <_Z19tensorlib_copy_implIixEiP11hb_tensor_tS1_+0x18>
 570:	020c8493          	addi	x9,x25,32 # 20 <_Z19tensorlib_copy_implIixEiP11hb_tensor_tS1_+0x20>

00000574 <.L141>:
 574:	00088b93          	mv	x23,x17

00000578 <.L143>:
 578:	000bc983          	lbu	x19,0(x23) # 20000000 <.L690+0x1ffff7e4>
 57c:	001b8b93          	addi	x23,x23,1
 580:	0ff9fa13          	andi	x20,x19,255
 584:	fe0a08e3          	beqz	x20,574 <.L141>
 588:	ff7498e3          	bne	x9,x23,578 <.L143>
 58c:	00060c23          	sb	x0,24(x12)
 590:	00060ca3          	sb	x0,25(x12)
 594:	00060d23          	sb	x0,26(x12)
 598:	00060da3          	sb	x0,27(x12)
 59c:	00060e23          	sb	x0,28(x12)
 5a0:	00060ea3          	sb	x0,29(x12)
 5a4:	00060f23          	sb	x0,30(x12)
 5a8:	00060fa3          	sb	x0,31(x12)
 5ac:	00062a23          	sw	x0,20(x12)
 5b0:	00000593          	li	x11,0
 5b4:	03fc02b7          	lui	x5,0x3fc0
 5b8:	200000b7          	lui	x1,0x20000
 5bc:	00100a93          	li	x21,1
 5c0:	01000e37          	lui	x28,0x1000
 5c4:	08000937          	lui	x18,0x8000
 5c8:	0080006f          	j	5d0 <.L145>

000005cc <.L184>:
 5cc:	00072b03          	lw	x22,0(x14)

000005d0 <.L145>:
 5d0:	012b1793          	slli	x15,x22,0x12
 5d4:	00b46333          	or	x6,x8,x11
 5d8:	0057fc33          	and	x24,x15,x5
 5dc:	006c63b3          	or	x7,x24,x6
 5e0:	0013eb33          	or	x22,x7,x1
 5e4:	015b2023          	sw	x21,0(x22)
 5e8:	01c585b3          	add	x11,x11,x28
 5ec:	ff2590e3          	bne	x11,x18,5cc <.L184>
 5f0:	00072703          	lw	x14,0(x14)
 5f4:	00700413          	li	x8,7
 5f8:	de8700e3          	beq	x14,x8,3d8 <.L146>
 5fc:	c79ff06f          	j	274 <.L138>

00000600 <.L183>:
 600:	00048b13          	mv	x22,x9
 604:	e79ff06f          	j	47c <.L113>

00000608 <.L154>:
 608:	00030b13          	mv	x22,x6
 60c:	bb9ff06f          	j	1c4 <.L135>

00000610 <.L153>:
 610:	000e0613          	mv	x12,x28
 614:	b71ff06f          	j	184 <.L133>

00000618 <.L176>:
 618:	0043a283          	lw	x5,4(x7)
 61c:	0003a083          	lw	x1,0(x7)
 620:	ffd00993          	li	x19,-3
 624:	02128ab3          	mul	x21,x5,x1
 628:	fffa8a13          	addi	x20,x21,-1
 62c:	bb49e8e3          	bltu	x19,x20,1dc <.L114>
 630:	00000637          	lui	x12,0x0
 634:	00062b83          	lw	x23,0(x12) # 0 <_Z19tensorlib_copy_implIixEiP11hb_tensor_tS1_>
 638:	007ad493          	srli	x9,x21,0x7
 63c:	00148b13          	addi	x22,x9,1
 640:	07fbf413          	andi	x8,x23,127
 644:	03640533          	mul	x10,x8,x22
 648:	00ab00b3          	add	x1,x22,x10
 64c:	0a1ae863          	bltu	x21,x1,6fc <.L185>

00000650 <.L127>:
 650:	b81576e3          	bgeu	x10,x1,1dc <.L114>
 654:	00492483          	lw	x9,4(x18) # 8000004 <.L690+0x7fff7e8>
 658:	0048aa83          	lw	x21,4(x17)
 65c:	0008aa03          	lw	x20,0(x17)
 660:	00482983          	lw	x19,4(x16)
 664:	00082903          	lw	x18,0(x16)
 668:	0083a383          	lw	x7,8(x7)

0000066c <.L129>:
 66c:	02557c33          	remu	x24,x10,x5
 670:	02555cb3          	divu	x25,x10,x5
 674:	029577b3          	remu	x15,x10,x9
 678:	02955bb3          	divu	x23,x10,x9
 67c:	034c8633          	mul	x12,x25,x20
 680:	035c05b3          	mul	x11,x24,x21
 684:	032b8cb3          	mul	x25,x23,x18
 688:	00c58b33          	add	x22,x11,x12
 68c:	003b1c13          	slli	x24,x22,0x3
 690:	018e0633          	add	x12,x28,x24
 694:	03378433          	mul	x8,x15,x19
 698:	019407b3          	add	x15,x8,x25
 69c:	00279b93          	slli	x23,x15,0x2
 6a0:	017307b3          	add	x15,x6,x23
 6a4:	02038c63          	beqz	x7,6dc <.L131>
 6a8:	0088a583          	lw	x11,8(x17)
 6ac:	00882403          	lw	x8,8(x16)
 6b0:	00359b93          	slli	x23,x11,0x3
 6b4:	00241b13          	slli	x22,x8,0x2
 6b8:	00000593          	li	x11,0

000006bc <.L130>:
 6bc:	0007ac03          	lw	x24,0(x15)
 6c0:	00158593          	addi	x11,x11,1
 6c4:	016787b3          	add	x15,x15,x22
 6c8:	41fc5c93          	srai	x25,x24,0x1f
 6cc:	01862023          	sw	x24,0(x12)
 6d0:	01962223          	sw	x25,4(x12)
 6d4:	01760633          	add	x12,x12,x23
 6d8:	fe7592e3          	bne	x11,x7,6bc <.L130>

000006dc <.L131>:
 6dc:	00150513          	addi	x10,x10,1
 6e0:	f8a096e3          	bne	x1,x10,66c <.L129>
 6e4:	af9ff06f          	j	1dc <.L114>

000006e8 <.L177>:
 6e8:	00048093          	mv	x1,x9
 6ec:	a41ff06f          	j	12c <.L132>

000006f0 <.L180>:
 6f0:	00028b93          	mv	x23,x5
 6f4:	c17468e3          	bltu	x8,x23,304 <.L186>
 6f8:	ae5ff06f          	j	1dc <.L114>

000006fc <.L185>:
 6fc:	000a8093          	mv	x1,x21
 700:	f51ff06f          	j	650 <.L127>

Disassembly of section .text._Z19tensorlib_copy_implIxiEiP11hb_tensor_tS1_:

00000000 <_Z19tensorlib_copy_implIxiEiP11hb_tensor_tS1_>:
   0:	f5010113          	addi	x2,x2,-176
   4:	00050793          	mv	x15,x10
   8:	0a812423          	sw	x8,168(x2)
   c:	00810513          	addi	x10,x2,8
  10:	00058413          	mv	x8,x11
  14:	00078593          	mv	x11,x15
  18:	0a112623          	sw	x1,172(x2)
  1c:	0a912223          	sw	x9,164(x2)
  20:	0b212023          	sw	x18,160(x2)
  24:	09312e23          	sw	x19,156(x2)
  28:	09412c23          	sw	x20,152(x2)
  2c:	09512a23          	sw	x21,148(x2)
  30:	09612823          	sw	x22,144(x2)
  34:	09712623          	sw	x23,140(x2)
  38:	09812423          	sw	x24,136(x2)
  3c:	09912223          	sw	x25,132(x2)
  40:	00000097          	auipc	x1,0x0
  44:	000080e7          	jalr	x1 # 40 <_Z19tensorlib_copy_implIxiEiP11hb_tensor_tS1_+0x40>
  48:	00040593          	mv	x11,x8
  4c:	04410513          	addi	x10,x2,68
  50:	00000097          	auipc	x1,0x0
  54:	000080e7          	jalr	x1 # 50 <_Z19tensorlib_copy_implIxiEiP11hb_tensor_tS1_+0x50>
  58:	00000f37          	lui	x30,0x0
  5c:	000006b7          	lui	x13,0x0
  60:	00000eb7          	lui	x29,0x0
  64:	00000737          	lui	x14,0x0
  68:	000f2283          	lw	x5,0(x30) # 0 <_Z19tensorlib_copy_implIxiEiP11hb_tensor_tS1_>
  6c:	0006a803          	lw	x16,0(x13) # 0 <_Z19tensorlib_copy_implIxiEiP11hb_tensor_tS1_>
  70:	000ea603          	lw	x12,0(x29) # 0 <_Z19tensorlib_copy_implIxiEiP11hb_tensor_tS1_>
  74:	00072503          	lw	x10,0(x14) # 0 <_Z19tensorlib_copy_implIxiEiP11hb_tensor_tS1_>
  78:	00000fb7          	lui	x31,0x0
  7c:	000fa583          	lw	x11,0(x31) # 0 <_Z19tensorlib_copy_implIxiEiP11hb_tensor_tS1_>
  80:	01028333          	add	x6,x5,x16
  84:	00a603b3          	add	x7,x12,x10
  88:	01831493          	slli	x9,x6,0x18
  8c:	01239893          	slli	x17,x7,0x12
  90:	3f000937          	lui	x18,0x3f000
  94:	00fc0a37          	lui	x20,0xfc0
  98:	00040c37          	lui	x24,0x40
  9c:	0124f9b3          	and	x19,x9,x18
  a0:	0148fab3          	and	x21,x17,x20
  a4:	00459b13          	slli	x22,x11,0x4
  a8:	ff0c0c93          	addi	x25,x24,-16 # 3fff0 <.L690+0x3f7d4>
  ac:	019b7e33          	and	x28,x22,x25
  b0:	0159ebb3          	or	x23,x19,x21
  b4:	01cbe7b3          	or	x15,x23,x28
  b8:	00c12283          	lw	x5,12(x2)
  bc:	80000437          	lui	x8,0x80000
  c0:	0087e833          	or	x16,x15,x8
  c4:	41001637          	lui	x12,0x41001
  c8:	d1062623          	sw	x16,-756(x12) # 41000d0c <.L690+0x410004f0>
  cc:	00100513          	li	x10,1
  d0:	00812483          	lw	x9,8(x2)
  d4:	01012883          	lw	x17,16(x2)
  d8:	01812e03          	lw	x28,24(x2)
  dc:	04c12803          	lw	x16,76(x2)
  e0:	05412303          	lw	x6,84(x2)
  e4:	34a28e63          	beq	x5,x10,440 <.L254>
  e8:	00200093          	li	x1,2
  ec:	01412383          	lw	x7,20(x2)
  f0:	1c128c63          	beq	x5,x1,2c8 <.L255>
  f4:	00300593          	li	x11,3
  f8:	05012903          	lw	x18,80(x2)
  fc:	4eb28263          	beq	x5,x11,5e0 <.L256>
 100:	fff48993          	addi	x19,x9,-1
 104:	ffd00a13          	li	x20,-3
 108:	0d3a6663          	bltu	x20,x19,1d4 <.L194>
 10c:	00000ab7          	lui	x21,0x0
 110:	000aab03          	lw	x22,0(x21) # 0 <_Z19tensorlib_copy_implIxiEiP11hb_tensor_tS1_>
 114:	0074db93          	srli	x23,x9,0x7
 118:	001b8c13          	addi	x24,x23,1
 11c:	07fb7c93          	andi	x25,x22,127
 120:	038c85b3          	mul	x11,x25,x24
 124:	00bc00b3          	add	x1,x24,x11
 128:	5814e063          	bltu	x9,x1,6a8 <.L257>

0000012c <.L212>:
 12c:	0a15f463          	bgeu	x11,x1,1d4 <.L194>
 130:	04812983          	lw	x19,72(x2)
 134:	00229793          	slli	x15,x5,0x2
 138:	00f38ab3          	add	x21,x7,x15
 13c:	00299413          	slli	x8,x19,0x2
 140:	00890a33          	add	x20,x18,x8

00000144 <.L217>:
 144:	48028a63          	beqz	x5,5d8 <.L233>
 148:	00088c93          	mv	x25,x17
 14c:	00038c13          	mv	x24,x7
 150:	00058513          	mv	x10,x11
 154:	00000793          	li	x15,0

00000158 <.L214>:
 158:	000c2b03          	lw	x22,0(x24)
 15c:	000cab83          	lw	x23,0(x25)
 160:	004c0c13          	addi	x24,x24,4
 164:	036574b3          	remu	x9,x10,x22
 168:	004c8c93          	addi	x25,x25,4
 16c:	03748433          	mul	x8,x9,x23
 170:	03655533          	divu	x10,x10,x22
 174:	008787b3          	add	x15,x15,x8
 178:	ff8a90e3          	bne	x21,x24,158 <.L214>
 17c:	00279613          	slli	x12,x15,0x2
 180:	00ce0633          	add	x12,x28,x12

00000184 <.L213>:
 184:	44098663          	beqz	x19,5d0 <.L234>
 188:	00080493          	mv	x9,x16
 18c:	00090513          	mv	x10,x18
 190:	00058413          	mv	x8,x11
 194:	00000793          	li	x15,0

00000198 <.L216>:
 198:	00052c03          	lw	x24,0(x10)
 19c:	0004ac83          	lw	x25,0(x9)
 1a0:	00450513          	addi	x10,x10,4
 1a4:	00448493          	addi	x9,x9,4
 1a8:	03847bb3          	remu	x23,x8,x24
 1ac:	039b8b33          	mul	x22,x23,x25
 1b0:	03845433          	divu	x8,x8,x24
 1b4:	016787b3          	add	x15,x15,x22
 1b8:	feaa10e3          	bne	x20,x10,198 <.L216>
 1bc:	00379c13          	slli	x24,x15,0x3
 1c0:	01830b33          	add	x22,x6,x24

000001c4 <.L215>:
 1c4:	000b2c83          	lw	x25,0(x22)
 1c8:	00158593          	addi	x11,x11,1
 1cc:	01962023          	sw	x25,0(x12)
 1d0:	f6b09ae3          	bne	x1,x11,144 <.L217>

000001d4 <.L194>:
 1d4:	000f2f03          	lw	x30,0(x30)
 1d8:	0006ac83          	lw	x25,0(x13)
 1dc:	000eae83          	lw	x29,0(x29)
 1e0:	00072803          	lw	x16,0(x14)
 1e4:	000faf83          	lw	x31,0(x31)
 1e8:	019f08b3          	add	x17,x30,x25
 1ec:	010e8b33          	add	x22,x29,x16
 1f0:	01889c13          	slli	x24,x17,0x18
 1f4:	012b1293          	slli	x5,x22,0x12
 1f8:	3f0003b7          	lui	x7,0x3f000
 1fc:	00fc0bb7          	lui	x23,0xfc0
 200:	00040ab7          	lui	x21,0x40
 204:	007c7a33          	and	x20,x24,x7
 208:	0172f633          	and	x12,x5,x23
 20c:	004f9093          	slli	x1,x31,0x4
 210:	ff0a8913          	addi	x18,x21,-16 # 3fff0 <.L690+0x3f7d4>
 214:	00ca69b3          	or	x19,x20,x12
 218:	0120fe33          	and	x28,x1,x18
 21c:	01c9e4b3          	or	x9,x19,x28
 220:	c00005b7          	lui	x11,0xc0000
 224:	00b4e433          	or	x8,x9,x11
 228:	410017b7          	lui	x15,0x41001
 22c:	d087a623          	sw	x8,-756(x15) # 41000d0c <.L690+0x410004f0>
 230:	00072303          	lw	x6,0(x14)
 234:	0006af03          	lw	x30,0(x13)
 238:	00000537          	lui	x10,0x0
 23c:	00430c93          	addi	x25,x6,4
 240:	00050613          	mv	x12,x10
 244:	01960eb3          	add	x29,x12,x25
 248:	018f1813          	slli	x16,x30,0x18
 24c:	010eefb3          	or	x31,x29,x16
 250:	201c08b7          	lui	x17,0x201c0
 254:	011feb33          	or	x22,x31,x17
 258:	00100c13          	li	x24,1
 25c:	018b0023          	sb	x24,0(x22)
 260:	00072283          	lw	x5,0(x14)
 264:	00700393          	li	x7,7
 268:	10728263          	beq	x5,x7,36c <.L258>

0000026c <.L218>:
 26c:	00100693          	li	x13,1
 270:	0100006f          	j	280 <.L231>

00000274 <.L259>:
 274:	00050593          	mv	x11,x10
 278:	1405a72f          	lr.w.aq	x14,(x11)
 27c:	00d70863          	beq	x14,x13,28c <.L230>

00000280 <.L231>:
 280:	00050f13          	mv	x30,x10
 284:	100f2caf          	lr.w	x25,(x30)
 288:	fedc96e3          	bne	x25,x13,274 <.L259>

0000028c <.L230>:
 28c:	0ac12083          	lw	x1,172(x2)
 290:	0a812403          	lw	x8,168(x2)
 294:	00062023          	sw	x0,0(x12)
 298:	0a412483          	lw	x9,164(x2)
 29c:	0a012903          	lw	x18,160(x2)
 2a0:	09c12983          	lw	x19,156(x2)
 2a4:	09812a03          	lw	x20,152(x2)
 2a8:	09412a83          	lw	x21,148(x2)
 2ac:	09012b03          	lw	x22,144(x2)
 2b0:	08c12b83          	lw	x23,140(x2)
 2b4:	08812c03          	lw	x24,136(x2)
 2b8:	08412c83          	lw	x25,132(x2)
 2bc:	00000513          	li	x10,0
 2c0:	0b010113          	addi	x2,x2,176
 2c4:	00008067          	ret

000002c8 <.L255>:
 2c8:	0003a283          	lw	x5,0(x7) # 3f000000 <.L690+0x3efff7e4>
 2cc:	ffd00c93          	li	x25,-3
 2d0:	fff28093          	addi	x1,x5,-1 # 3fbffff <.L690+0x3fbf7e3>
 2d4:	f01ce0e3          	bltu	x25,x1,1d4 <.L194>
 2d8:	00000ab7          	lui	x21,0x0
 2dc:	000aa403          	lw	x8,0(x21) # 0 <_Z19tensorlib_copy_implIxiEiP11hb_tensor_tS1_>
 2e0:	0072d993          	srli	x19,x5,0x7
 2e4:	00198913          	addi	x18,x19,1
 2e8:	07f47593          	andi	x11,x8,127
 2ec:	03258433          	mul	x8,x11,x18
 2f0:	00890b33          	add	x22,x18,x8
 2f4:	3b62ee63          	bltu	x5,x22,6b0 <.L260>
 2f8:	ed647ee3          	bgeu	x8,x22,1d4 <.L194>

000002fc <.L266>:
 2fc:	00082483          	lw	x9,0(x16)
 300:	0008ac03          	lw	x24,0(x17) # 201c0000 <.L690+0x201bf7e4>
 304:	0043a383          	lw	x7,4(x7)
 308:	00349a13          	slli	x20,x9,0x3
 30c:	002c1b93          	slli	x23,x24,0x2
 310:	03440633          	mul	x12,x8,x20
 314:	037407b3          	mul	x15,x8,x23
 318:	00c30333          	add	x6,x6,x12
 31c:	00fe0e33          	add	x28,x28,x15

00000320 <.L203>:
 320:	00030293          	mv	x5,x6
 324:	02038a63          	beqz	x7,358 <.L205>
 328:	0048ac83          	lw	x25,4(x17)
 32c:	00482083          	lw	x1,4(x16)
 330:	000e0513          	mv	x10,x28
 334:	002c9a93          	slli	x21,x25,0x2
 338:	00309993          	slli	x19,x1,0x3
 33c:	00000593          	li	x11,0

00000340 <.L204>:
 340:	0002a903          	lw	x18,0(x5)
 344:	00158593          	addi	x11,x11,1 # c0000001 <.L690+0xbffff7e5>
 348:	013282b3          	add	x5,x5,x19
 34c:	01252023          	sw	x18,0(x10) # 0 <_Z19tensorlib_copy_implIxiEiP11hb_tensor_tS1_>
 350:	01550533          	add	x10,x10,x21
 354:	fe7596e3          	bne	x11,x7,340 <.L204>

00000358 <.L205>:
 358:	00140413          	addi	x8,x8,1 # 80000001 <.L690+0x7ffff7e5>
 35c:	01430333          	add	x6,x6,x20
 360:	017e0e33          	add	x28,x28,x23
 364:	fa8b1ee3          	bne	x22,x8,320 <.L203>
 368:	e6dff06f          	j	1d4 <.L194>

0000036c <.L258>:
 36c:	00000a37          	lui	x20,0x0
 370:	000000b7          	lui	x1,0x0
 374:	004a0b93          	addi	x23,x20,4 # 4 <_Z19tensorlib_copy_implIxiEiP11hb_tensor_tS1_+0x4>
 378:	01408993          	addi	x19,x1,20 # 14 <_Z19tensorlib_copy_implIxiEiP11hb_tensor_tS1_+0x14>

0000037c <.L191>:
 37c:	000b8913          	mv	x18,x23

00000380 <.L220>:
 380:	00094a83          	lbu	x21,0(x18) # 3f000000 <.L690+0x3efff7e4>
 384:	00190913          	addi	x18,x18,1
 388:	0ffafe13          	andi	x28,x21,255
 38c:	fe0e08e3          	beqz	x28,37c <.L191>
 390:	ff2998e3          	bne	x19,x18,380 <.L220>
 394:	0006a483          	lw	x9,0(x13)
 398:	231c07b7          	lui	x15,0x231c0
 39c:	00100f13          	li	x30,1
 3a0:	01848593          	addi	x11,x9,24
 3a4:	00b60433          	add	x8,x12,x11
 3a8:	00f46333          	or	x6,x8,x15
 3ac:	01e30023          	sb	x30,0(x6)
 3b0:	00072c83          	lw	x25,0(x14)
 3b4:	00700e93          	li	x29,7
 3b8:	ebdc9ae3          	bne	x25,x29,26c <.L218>
 3bc:	0006a803          	lw	x16,0(x13)
 3c0:	00300f93          	li	x31,3
 3c4:	17f80463          	beq	x16,x31,52c <.L261>

000003c8 <.L226>:
 3c8:	00100e93          	li	x29,1
 3cc:	0100006f          	j	3dc <.L222>

000003d0 <.L262>:
 3d0:	01460893          	addi	x17,x12,20
 3d4:	1408ab2f          	lr.w.aq	x22,(x17)
 3d8:	01db0863          	beq	x22,x29,3e8 <.L227>

000003dc <.L222>:
 3dc:	01460813          	addi	x16,x12,20
 3e0:	10082faf          	lr.w	x31,(x16)
 3e4:	ffdf96e3          	bne	x31,x29,3d0 <.L262>

000003e8 <.L227>:
 3e8:	00062a23          	sw	x0,20(x12)
 3ec:	00000393          	li	x7,0
 3f0:	01000c13          	li	x24,16

000003f4 <.L228>:
 3f4:	007602b3          	add	x5,x12,x7
 3f8:	00028223          	sb	x0,4(x5)
 3fc:	00138393          	addi	x7,x7,1
 400:	ff839ae3          	bne	x7,x24,3f4 <.L228>
 404:	00062023          	sw	x0,0(x12)
 408:	00000493          	li	x9,0
 40c:	20000a37          	lui	x20,0x20000
 410:	00100b93          	li	x23,1
 414:	000400b7          	lui	x1,0x40
 418:	00400ab7          	lui	x21,0x400

0000041c <.L229>:
 41c:	0006a903          	lw	x18,0(x13)
 420:	00966e33          	or	x28,x12,x9
 424:	001484b3          	add	x9,x9,x1
 428:	01891413          	slli	x8,x18,0x18
 42c:	01c46333          	or	x6,x8,x28
 430:	014367b3          	or	x15,x6,x20
 434:	0177a023          	sw	x23,0(x15) # 231c0000 <.L690+0x231bf7e4>
 438:	ff5492e3          	bne	x9,x21,41c <.L229>
 43c:	e31ff06f          	j	26c <.L218>

00000440 <.L254>:
 440:	fff48b13          	addi	x22,x9,-1
 444:	ffd00c13          	li	x24,-3
 448:	d96c66e3          	bltu	x24,x22,1d4 <.L194>
 44c:	000003b7          	lui	x7,0x0
 450:	0003aa03          	lw	x20,0(x7) # 0 <_Z19tensorlib_copy_implIxiEiP11hb_tensor_tS1_>
 454:	0074db93          	srli	x23,x9,0x7
 458:	001b8613          	addi	x12,x23,1 # fc0001 <.L690+0xfbf7e5>
 45c:	07fa7793          	andi	x15,x20,127
 460:	02c787b3          	mul	x15,x15,x12
 464:	00f60cb3          	add	x25,x12,x15
 468:	1794e063          	bltu	x9,x25,5c8 <.L263>

0000046c <.L193>:
 46c:	d797f4e3          	bgeu	x15,x25,1d4 <.L194>
 470:	0008a083          	lw	x1,0(x17)
 474:	00082983          	lw	x19,0(x16)
 478:	40fc8ab3          	sub	x21,x25,x15
 47c:	00209813          	slli	x16,x1,0x2
 480:	00399893          	slli	x17,x19,0x3
 484:	02f80933          	mul	x18,x16,x15
 488:	00400593          	li	x11,4
 48c:	02f884b3          	mul	x9,x17,x15
 490:	012e0533          	add	x10,x28,x18
 494:	00930333          	add	x6,x6,x9
 498:	0755fc63          	bgeu	x11,x21,510 <.L199>
 49c:	ffcc8413          	addi	x8,x25,-4
 4a0:	0687f863          	bgeu	x15,x8,510 <.L199>
 4a4:	00050e13          	mv	x28,x10
 4a8:	00309b13          	slli	x22,x1,0x3
 4ac:	00499513          	slli	x10,x19,0x4
 4b0:	00409c13          	slli	x24,x1,0x4
 4b4:	00599293          	slli	x5,x19,0x5
 4b8:	00a304b3          	add	x9,x6,x10
 4bc:	016e05b3          	add	x11,x28,x22

000004c0 <.L198>:
 4c0:	00032383          	lw	x7,0(x6)
 4c4:	01130a33          	add	x20,x6,x17
 4c8:	000a2b83          	lw	x23,0(x20) # 20000000 <.L690+0x1ffff7e4>
 4cc:	0004a603          	lw	x12,0(x9)
 4d0:	011480b3          	add	x1,x9,x17
 4d4:	0000a983          	lw	x19,0(x1) # 40000 <.L690+0x3f7e4>
 4d8:	010e0ab3          	add	x21,x28,x16
 4dc:	007e2023          	sw	x7,0(x28) # 1000000 <.L690+0xfff7e4>
 4e0:	017aa023          	sw	x23,0(x21) # 400000 <.L690+0x3ff7e4>
 4e4:	00c5a023          	sw	x12,0(x11)
 4e8:	01058933          	add	x18,x11,x16
 4ec:	018e0533          	add	x10,x28,x24
 4f0:	01392023          	sw	x19,0(x18)
 4f4:	00478793          	addi	x15,x15,4
 4f8:	00050e13          	mv	x28,x10
 4fc:	00530333          	add	x6,x6,x5
 500:	005484b3          	add	x9,x9,x5
 504:	018585b3          	add	x11,x11,x24
 508:	fa87ece3          	bltu	x15,x8,4c0 <.L198>
 50c:	cd97f4e3          	bgeu	x15,x25,1d4 <.L194>

00000510 <.L199>:
 510:	00032403          	lw	x8,0(x6)
 514:	00178793          	addi	x15,x15,1
 518:	01130333          	add	x6,x6,x17
 51c:	00852023          	sw	x8,0(x10)
 520:	01050533          	add	x10,x10,x16
 524:	ff97e6e3          	bltu	x15,x25,510 <.L199>
 528:	cadff06f          	j	1d4 <.L194>

0000052c <.L261>:
 52c:	000008b7          	lui	x17,0x0
 530:	00000c37          	lui	x24,0x0
 534:	01888b13          	addi	x22,x17,24 # 18 <_Z19tensorlib_copy_implIxiEiP11hb_tensor_tS1_+0x18>
 538:	020c0293          	addi	x5,x24,32 # 20 <_Z19tensorlib_copy_implIxiEiP11hb_tensor_tS1_+0x20>

0000053c <.L221>:
 53c:	000b0a13          	mv	x20,x22

00000540 <.L223>:
 540:	000a4383          	lbu	x7,0(x20)
 544:	001a0a13          	addi	x20,x20,1
 548:	0ff3fb93          	andi	x23,x7,255
 54c:	fe0b88e3          	beqz	x23,53c <.L221>
 550:	ff4298e3          	bne	x5,x20,540 <.L223>
 554:	00060c23          	sb	x0,24(x12)
 558:	00060ca3          	sb	x0,25(x12)
 55c:	00060d23          	sb	x0,26(x12)
 560:	00060da3          	sb	x0,27(x12)
 564:	00060e23          	sb	x0,28(x12)
 568:	00060ea3          	sb	x0,29(x12)
 56c:	00060f23          	sb	x0,30(x12)
 570:	00060fa3          	sb	x0,31(x12)
 574:	00062a23          	sw	x0,20(x12)
 578:	00000593          	li	x11,0
 57c:	03fc00b7          	lui	x1,0x3fc0
 580:	20000ab7          	lui	x21,0x20000
 584:	00100913          	li	x18,1
 588:	01000e37          	lui	x28,0x1000
 58c:	080004b7          	lui	x9,0x8000
 590:	0080006f          	j	598 <.L225>

00000594 <.L264>:
 594:	00072c83          	lw	x25,0(x14)

00000598 <.L225>:
 598:	012c9413          	slli	x8,x25,0x12
 59c:	00b9e333          	or	x6,x19,x11
 5a0:	001477b3          	and	x15,x8,x1
 5a4:	0067ef33          	or	x30,x15,x6
 5a8:	015f6cb3          	or	x25,x30,x21
 5ac:	012ca023          	sw	x18,0(x25)
 5b0:	01c585b3          	add	x11,x11,x28
 5b4:	fe9590e3          	bne	x11,x9,594 <.L264>
 5b8:	00072703          	lw	x14,0(x14)
 5bc:	00700993          	li	x19,7
 5c0:	e13704e3          	beq	x14,x19,3c8 <.L226>
 5c4:	ca9ff06f          	j	26c <.L218>

000005c8 <.L263>:
 5c8:	00048c93          	mv	x25,x9
 5cc:	ea1ff06f          	j	46c <.L193>

000005d0 <.L234>:
 5d0:	00030b13          	mv	x22,x6
 5d4:	bf1ff06f          	j	1c4 <.L215>

000005d8 <.L233>:
 5d8:	000e0613          	mv	x12,x28
 5dc:	ba9ff06f          	j	184 <.L213>

000005e0 <.L256>:
 5e0:	0043a283          	lw	x5,4(x7)
 5e4:	0003a083          	lw	x1,0(x7)
 5e8:	ffd00993          	li	x19,-3
 5ec:	02128ab3          	mul	x21,x5,x1
 5f0:	fffa8a13          	addi	x20,x21,-1 # 1fffffff <.L690+0x1ffff7e3>
 5f4:	bf49e0e3          	bltu	x19,x20,1d4 <.L194>
 5f8:	00000637          	lui	x12,0x0
 5fc:	00062503          	lw	x10,0(x12) # 0 <_Z19tensorlib_copy_implIxiEiP11hb_tensor_tS1_>
 600:	007adb93          	srli	x23,x21,0x7
 604:	001b8493          	addi	x9,x23,1
 608:	07f57b13          	andi	x22,x10,127
 60c:	029b0533          	mul	x10,x22,x9
 610:	00a48cb3          	add	x25,x9,x10
 614:	0b9ae463          	bltu	x21,x25,6bc <.L265>

00000618 <.L207>:
 618:	bb957ee3          	bgeu	x10,x25,1d4 <.L194>
 61c:	00492403          	lw	x8,4(x18)
 620:	0048a083          	lw	x1,4(x17)
 624:	0008aa83          	lw	x21,0(x17)
 628:	00482983          	lw	x19,4(x16)
 62c:	00082903          	lw	x18,0(x16)
 630:	0083a383          	lw	x7,8(x7)

00000634 <.L209>:
 634:	02557c33          	remu	x24,x10,x5
 638:	02555a33          	divu	x20,x10,x5
 63c:	028577b3          	remu	x15,x10,x8
 640:	02855bb3          	divu	x23,x10,x8
 644:	035a0633          	mul	x12,x20,x21
 648:	021c05b3          	mul	x11,x24,x1
 64c:	032b8a33          	mul	x20,x23,x18
 650:	00c58b33          	add	x22,x11,x12
 654:	002b1c13          	slli	x24,x22,0x2
 658:	018e0633          	add	x12,x28,x24
 65c:	033784b3          	mul	x9,x15,x19
 660:	014487b3          	add	x15,x9,x20
 664:	00379b93          	slli	x23,x15,0x3
 668:	017307b3          	add	x15,x6,x23
 66c:	02038863          	beqz	x7,69c <.L211>
 670:	0088a583          	lw	x11,8(x17)
 674:	00882483          	lw	x9,8(x16)
 678:	00000b93          	li	x23,0
 67c:	00259a13          	slli	x20,x11,0x2
 680:	00349b13          	slli	x22,x9,0x3

00000684 <.L210>:
 684:	0007ac03          	lw	x24,0(x15)
 688:	001b8b93          	addi	x23,x23,1
 68c:	016787b3          	add	x15,x15,x22
 690:	01862023          	sw	x24,0(x12)
 694:	01460633          	add	x12,x12,x20
 698:	fe7b96e3          	bne	x23,x7,684 <.L210>

0000069c <.L211>:
 69c:	00150513          	addi	x10,x10,1
 6a0:	f8ac9ae3          	bne	x25,x10,634 <.L209>
 6a4:	b31ff06f          	j	1d4 <.L194>

000006a8 <.L257>:
 6a8:	00048093          	mv	x1,x9
 6ac:	a81ff06f          	j	12c <.L212>

000006b0 <.L260>:
 6b0:	00028b13          	mv	x22,x5
 6b4:	c56464e3          	bltu	x8,x22,2fc <.L266>
 6b8:	b1dff06f          	j	1d4 <.L194>

000006bc <.L265>:
 6bc:	000a8c93          	mv	x25,x21
 6c0:	f59ff06f          	j	618 <.L207>

Disassembly of section .text._ZN8HBTensorIfLln1EEC2EP11hb_tensor_t:

00000000 <_ZN8HBTensorIfLln1EEC1EP11hb_tensor_t>:
   0:	00058713          	mv	x14,x11
   4:	0045a683          	lw	x13,4(x11)
   8:	00072803          	lw	x16,0(x14)
   c:	0105a583          	lw	x11,16(x11)
  10:	00050793          	mv	x15,x10
  14:	02850613          	addi	x12,x10,40
  18:	01450513          	addi	x10,x10,20
  1c:	0107a023          	sw	x16,0(x15)
  20:	00d7a223          	sw	x13,4(x15)
  24:	00a7a423          	sw	x10,8(x15)
  28:	00c7a623          	sw	x12,12(x15)
  2c:	00b7a823          	sw	x11,16(x15)
  30:	00060613          	mv	x12,x12
  34:	00500293          	li	x5,5
  38:	04d2e463          	bltu	x5,x13,80 <.L280>
  3c:	00872303          	lw	x6,8(x14)
  40:	00c72383          	lw	x7,12(x14)
  44:	02068c63          	beqz	x13,7c <.L268>
  48:	00269893          	slli	x17,x13,0x2
  4c:	00078713          	mv	x14,x15
  50:	01178e33          	add	x28,x15,x17
  54:	40f30eb3          	sub	x29,x6,x15
  58:	40f38f33          	sub	x30,x7,x15

0000005c <.L272>:
  5c:	00ee8fb3          	add	x31,x29,x14
  60:	000fa683          	lw	x13,0(x31)
  64:	00ef05b3          	add	x11,x30,x14
  68:	00470713          	addi	x14,x14,4
  6c:	00d72823          	sw	x13,16(x14)
  70:	0005a803          	lw	x16,0(x11)
  74:	03072223          	sw	x16,36(x14)
  78:	ffc712e3          	bne	x14,x28,5c <.L272>

0000007c <.L268>:
  7c:	00008067          	ret

00000080 <.L280>:
  80:	ff010113          	addi	x2,x2,-16
  84:	000007b7          	lui	x15,0x0
  88:	00112623          	sw	x1,12(x2)
  8c:	000000b7          	lui	x1,0x0
  90:	0d800613          	li	x12,216
  94:	00008593          	mv	x11,x1
  98:	00078513          	mv	x10,x15
  9c:	00000097          	auipc	x1,0x0
  a0:	000080e7          	jalr	x1 # 9c <.L280+0x1c>
  a4:	00000637          	lui	x12,0x0
  a8:	00060513          	mv	x10,x12
  ac:	00000097          	auipc	x1,0x0
  b0:	000080e7          	jalr	x1 # ac <.L280+0x2c>
  b4:	00000537          	lui	x10,0x0
  b8:	00052283          	lw	x5,0(x10) # 0 <_ZN8HBTensorIfLln1EEC1EP11hb_tensor_t>
  bc:	00000337          	lui	x6,0x0
  c0:	00032383          	lw	x7,0(x6) # 0 <_ZN8HBTensorIfLln1EEC1EP11hb_tensor_t>
  c4:	01029893          	slli	x17,x5,0x10
  c8:	4100feb7          	lui	x29,0x4100f
  cc:	00788e33          	add	x28,x17,x7
  d0:	adceac23          	sw	x28,-1320(x29) # 4100ead8 <.L690+0x4100e2bc>

000000d4 <.L270>:
  d4:	0000006f          	j	d4 <.L270>

Disassembly of section .text._Z19tensorlib_copy_implIifEiP11hb_tensor_tS1_:

00000000 <_Z19tensorlib_copy_implIifEiP11hb_tensor_tS1_>:
   0:	f5010113          	addi	x2,x2,-176
   4:	00050793          	mv	x15,x10
   8:	0a812423          	sw	x8,168(x2)
   c:	00810513          	addi	x10,x2,8
  10:	00058413          	mv	x8,x11
  14:	00078593          	mv	x11,x15
  18:	0a112623          	sw	x1,172(x2)
  1c:	0a912223          	sw	x9,164(x2)
  20:	0b212023          	sw	x18,160(x2)
  24:	09312e23          	sw	x19,156(x2)
  28:	09412c23          	sw	x20,152(x2)
  2c:	09512a23          	sw	x21,148(x2)
  30:	09612823          	sw	x22,144(x2)
  34:	09712623          	sw	x23,140(x2)
  38:	09812423          	sw	x24,136(x2)
  3c:	09912223          	sw	x25,132(x2)
  40:	00000097          	auipc	x1,0x0
  44:	000080e7          	jalr	x1 # 40 <_Z19tensorlib_copy_implIifEiP11hb_tensor_tS1_+0x40>
  48:	00040593          	mv	x11,x8
  4c:	04410513          	addi	x10,x2,68
  50:	00000097          	auipc	x1,0x0
  54:	000080e7          	jalr	x1 # 50 <_Z19tensorlib_copy_implIifEiP11hb_tensor_tS1_+0x50>
  58:	00000f37          	lui	x30,0x0
  5c:	000006b7          	lui	x13,0x0
  60:	00000eb7          	lui	x29,0x0
  64:	00000737          	lui	x14,0x0
  68:	000f2283          	lw	x5,0(x30) # 0 <_Z19tensorlib_copy_implIifEiP11hb_tensor_tS1_>
  6c:	0006a803          	lw	x16,0(x13) # 0 <_Z19tensorlib_copy_implIifEiP11hb_tensor_tS1_>
  70:	000ea603          	lw	x12,0(x29) # 0 <_Z19tensorlib_copy_implIifEiP11hb_tensor_tS1_>
  74:	00072503          	lw	x10,0(x14) # 0 <_Z19tensorlib_copy_implIifEiP11hb_tensor_tS1_>
  78:	00000fb7          	lui	x31,0x0
  7c:	000fa583          	lw	x11,0(x31) # 0 <_Z19tensorlib_copy_implIifEiP11hb_tensor_tS1_>
  80:	01028333          	add	x6,x5,x16
  84:	00a603b3          	add	x7,x12,x10
  88:	01831493          	slli	x9,x6,0x18
  8c:	01239893          	slli	x17,x7,0x12
  90:	3f000937          	lui	x18,0x3f000
  94:	00fc0a37          	lui	x20,0xfc0
  98:	00040c37          	lui	x24,0x40
  9c:	0124f9b3          	and	x19,x9,x18
  a0:	0148fab3          	and	x21,x17,x20
  a4:	00459b13          	slli	x22,x11,0x4
  a8:	ff0c0c93          	addi	x25,x24,-16 # 3fff0 <.L690+0x3f7d4>
  ac:	019b7e33          	and	x28,x22,x25
  b0:	0159ebb3          	or	x23,x19,x21
  b4:	01cbe7b3          	or	x15,x23,x28
  b8:	00c12283          	lw	x5,12(x2)
  bc:	80000437          	lui	x8,0x80000
  c0:	0087e833          	or	x16,x15,x8
  c4:	41001637          	lui	x12,0x41001
  c8:	d1062623          	sw	x16,-756(x12) # 41000d0c <.L690+0x410004f0>
  cc:	00100513          	li	x10,1
  d0:	00812903          	lw	x18,8(x2)
  d4:	01012883          	lw	x17,16(x2)
  d8:	01812e03          	lw	x28,24(x2)
  dc:	04c12803          	lw	x16,76(x2)
  e0:	05412303          	lw	x6,84(x2)
  e4:	36a28263          	beq	x5,x10,448 <.L347>
  e8:	00200093          	li	x1,2
  ec:	01412383          	lw	x7,20(x2)
  f0:	1c128e63          	beq	x5,x1,2cc <.L348>
  f4:	00300593          	li	x11,3
  f8:	05012403          	lw	x8,80(x2)
  fc:	50b28063          	beq	x5,x11,5fc <.L349>
 100:	fff90493          	addi	x9,x18,-1 # 3effffff <.L690+0x3efff7e3>
 104:	ffd00993          	li	x19,-3
 108:	0c99e863          	bltu	x19,x9,1d8 <.L287>
 10c:	00000a37          	lui	x20,0x0
 110:	000a2a83          	lw	x21,0(x20) # 0 <_Z19tensorlib_copy_implIifEiP11hb_tensor_tS1_>
 114:	00795b13          	srli	x22,x18,0x7
 118:	001b0b93          	addi	x23,x22,1
 11c:	07fafc13          	andi	x24,x21,127
 120:	037c05b3          	mul	x11,x24,x23
 124:	00bb80b3          	add	x1,x23,x11
 128:	5a196063          	bltu	x18,x1,6c8 <.L350>

0000012c <.L305>:
 12c:	0a15f663          	bgeu	x11,x1,1d8 <.L287>
 130:	04812483          	lw	x9,72(x2)
 134:	00229c93          	slli	x25,x5,0x2
 138:	019389b3          	add	x19,x7,x25
 13c:	00249793          	slli	x15,x9,0x2
 140:	00f40933          	add	x18,x8,x15

00000144 <.L310>:
 144:	4a028863          	beqz	x5,5f4 <.L326>
 148:	00088a93          	mv	x21,x17
 14c:	00038c13          	mv	x24,x7
 150:	00058513          	mv	x10,x11
 154:	00000793          	li	x15,0

00000158 <.L307>:
 158:	000c2a03          	lw	x20,0(x24)
 15c:	000aab83          	lw	x23,0(x21)
 160:	004c0c13          	addi	x24,x24,4
 164:	03457b33          	remu	x22,x10,x20
 168:	004a8a93          	addi	x21,x21,4
 16c:	037b0cb3          	mul	x25,x22,x23
 170:	03455533          	divu	x10,x10,x20
 174:	019787b3          	add	x15,x15,x25
 178:	ff8990e3          	bne	x19,x24,158 <.L307>
 17c:	00279613          	slli	x12,x15,0x2
 180:	00ce0633          	add	x12,x28,x12

00000184 <.L306>:
 184:	46048463          	beqz	x9,5ec <.L327>
 188:	00080b13          	mv	x22,x16
 18c:	00040513          	mv	x10,x8
 190:	00058a93          	mv	x21,x11
 194:	00000793          	li	x15,0

00000198 <.L309>:
 198:	00052c03          	lw	x24,0(x10)
 19c:	000b2c83          	lw	x25,0(x22)
 1a0:	00450513          	addi	x10,x10,4
 1a4:	004b0b13          	addi	x22,x22,4
 1a8:	038afbb3          	remu	x23,x21,x24
 1ac:	039b8a33          	mul	x20,x23,x25
 1b0:	038adab3          	divu	x21,x21,x24
 1b4:	014787b3          	add	x15,x15,x20
 1b8:	fea910e3          	bne	x18,x10,198 <.L309>
 1bc:	00279c13          	slli	x24,x15,0x2
 1c0:	01830a33          	add	x20,x6,x24

000001c4 <.L308>:
 1c4:	000a2c83          	lw	x25,0(x20)
 1c8:	00158593          	addi	x11,x11,1
 1cc:	d00cf7d3          	fcvt.s.w	f15,x25
 1d0:	00f62027          	fsw	f15,0(x12)
 1d4:	f6b098e3          	bne	x1,x11,144 <.L310>

000001d8 <.L287>:
 1d8:	000f2f03          	lw	x30,0(x30)
 1dc:	0006aa83          	lw	x21,0(x13)
 1e0:	000eae83          	lw	x29,0(x29)
 1e4:	00072083          	lw	x1,0(x14)
 1e8:	000faf83          	lw	x31,0(x31)
 1ec:	015f04b3          	add	x9,x30,x21
 1f0:	001e8533          	add	x10,x29,x1
 1f4:	01849a13          	slli	x20,x9,0x18
 1f8:	01251b13          	slli	x22,x10,0x12
 1fc:	3f000c37          	lui	x24,0x3f000
 200:	00040637          	lui	x12,0x40
 204:	00fc0cb7          	lui	x25,0xfc0
 208:	018a7bb3          	and	x23,x20,x24
 20c:	019b73b3          	and	x7,x22,x25
 210:	004f9893          	slli	x17,x31,0x4
 214:	ff060993          	addi	x19,x12,-16 # 3fff0 <.L690+0x3f7d4>
 218:	007be933          	or	x18,x23,x7
 21c:	0138fe33          	and	x28,x17,x19
 220:	01c962b3          	or	x5,x18,x28
 224:	c0000837          	lui	x16,0xc0000
 228:	0102e433          	or	x8,x5,x16
 22c:	410017b7          	lui	x15,0x41001
 230:	d087a623          	sw	x8,-756(x15) # 41000d0c <.L690+0x410004f0>
 234:	00072303          	lw	x6,0(x14)
 238:	0006a583          	lw	x11,0(x13)
 23c:	00000537          	lui	x10,0x0
 240:	00430f13          	addi	x30,x6,4
 244:	00050613          	mv	x12,x10
 248:	01e60ab3          	add	x21,x12,x30
 24c:	01859e93          	slli	x29,x11,0x18
 250:	01dae0b3          	or	x1,x21,x29
 254:	201c0fb7          	lui	x31,0x201c0
 258:	01f0e4b3          	or	x9,x1,x31
 25c:	00100a13          	li	x20,1
 260:	01448023          	sb	x20,0(x9) # 8000000 <.L690+0x7fff7e4>
 264:	00072b03          	lw	x22,0(x14)
 268:	00700c13          	li	x24,7
 26c:	118b0463          	beq	x22,x24,374 <.L351>

00000270 <.L311>:
 270:	00100693          	li	x13,1
 274:	0100006f          	j	284 <.L324>

00000278 <.L352>:
 278:	00050593          	mv	x11,x10
 27c:	1405a72f          	lr.w.aq	x14,(x11)
 280:	00d70863          	beq	x14,x13,290 <.L323>

00000284 <.L324>:
 284:	00050313          	mv	x6,x10
 288:	10032aaf          	lr.w	x21,(x6)
 28c:	feda96e3          	bne	x21,x13,278 <.L352>

00000290 <.L323>:
 290:	0ac12083          	lw	x1,172(x2)
 294:	0a812403          	lw	x8,168(x2)
 298:	00062023          	sw	x0,0(x12)
 29c:	0a412483          	lw	x9,164(x2)
 2a0:	0a012903          	lw	x18,160(x2)
 2a4:	09c12983          	lw	x19,156(x2)
 2a8:	09812a03          	lw	x20,152(x2)
 2ac:	09412a83          	lw	x21,148(x2)
 2b0:	09012b03          	lw	x22,144(x2)
 2b4:	08c12b83          	lw	x23,140(x2)
 2b8:	08812c03          	lw	x24,136(x2)
 2bc:	08412c83          	lw	x25,132(x2)
 2c0:	00000513          	li	x10,0
 2c4:	0b010113          	addi	x2,x2,176
 2c8:	00008067          	ret

000002cc <.L348>:
 2cc:	0003a283          	lw	x5,0(x7)
 2d0:	ffd00c93          	li	x25,-3
 2d4:	fff28a93          	addi	x21,x5,-1
 2d8:	f15ce0e3          	bltu	x25,x21,1d8 <.L287>
 2dc:	000000b7          	lui	x1,0x0
 2e0:	0000a403          	lw	x8,0(x1) # 0 <_Z19tensorlib_copy_implIifEiP11hb_tensor_tS1_>
 2e4:	0072d493          	srli	x9,x5,0x7
 2e8:	00148993          	addi	x19,x9,1
 2ec:	07f47593          	andi	x11,x8,127
 2f0:	03358433          	mul	x8,x11,x19
 2f4:	00898933          	add	x18,x19,x8
 2f8:	3d22ec63          	bltu	x5,x18,6d0 <.L353>
 2fc:	ed247ee3          	bgeu	x8,x18,1d8 <.L287>

00000300 <.L359>:
 300:	00082a03          	lw	x20,0(x16) # c0000000 <.L690+0xbffff7e4>
 304:	0008ab03          	lw	x22,0(x17)
 308:	0043ac03          	lw	x24,4(x7)
 30c:	002a1b93          	slli	x23,x20,0x2
 310:	002b1c93          	slli	x25,x22,0x2
 314:	037403b3          	mul	x7,x8,x23
 318:	039407b3          	mul	x15,x8,x25
 31c:	00730333          	add	x6,x6,x7
 320:	00fe0e33          	add	x28,x28,x15

00000324 <.L296>:
 324:	00030293          	mv	x5,x6
 328:	020c0c63          	beqz	x24,360 <.L298>
 32c:	0048aa83          	lw	x21,4(x17)
 330:	00482603          	lw	x12,4(x16)
 334:	000e0513          	mv	x10,x28
 338:	002a9093          	slli	x1,x21,0x2
 33c:	00261493          	slli	x9,x12,0x2
 340:	00000593          	li	x11,0

00000344 <.L297>:
 344:	0002a983          	lw	x19,0(x5)
 348:	00158593          	addi	x11,x11,1
 34c:	009282b3          	add	x5,x5,x9
 350:	d009f0d3          	fcvt.s.w	f1,x19
 354:	00152027          	fsw	f1,0(x10) # 0 <_Z19tensorlib_copy_implIifEiP11hb_tensor_tS1_>
 358:	00150533          	add	x10,x10,x1
 35c:	ff8594e3          	bne	x11,x24,344 <.L297>

00000360 <.L298>:
 360:	00140413          	addi	x8,x8,1 # 80000001 <.L690+0x7ffff7e5>
 364:	01730333          	add	x6,x6,x23
 368:	019e0e33          	add	x28,x28,x25
 36c:	fa891ce3          	bne	x18,x8,324 <.L296>
 370:	e69ff06f          	j	1d8 <.L287>

00000374 <.L351>:
 374:	00000bb7          	lui	x23,0x0
 378:	000003b7          	lui	x7,0x0
 37c:	004b8c93          	addi	x25,x23,4 # 4 <_Z19tensorlib_copy_implIifEiP11hb_tensor_tS1_+0x4>
 380:	01438893          	addi	x17,x7,20 # 14 <_Z19tensorlib_copy_implIifEiP11hb_tensor_tS1_+0x14>

00000384 <.L284>:
 384:	000c8993          	mv	x19,x25

00000388 <.L313>:
 388:	0009c903          	lbu	x18,0(x19)
 38c:	00198993          	addi	x19,x19,1
 390:	0ff97e13          	andi	x28,x18,255
 394:	fe0e08e3          	beqz	x28,384 <.L284>
 398:	ff3898e3          	bne	x17,x19,388 <.L313>
 39c:	0006a283          	lw	x5,0(x13)
 3a0:	231c07b7          	lui	x15,0x231c0
 3a4:	00100593          	li	x11,1
 3a8:	01828813          	addi	x16,x5,24
 3ac:	01060433          	add	x8,x12,x16
 3b0:	00f46333          	or	x6,x8,x15
 3b4:	00b30023          	sb	x11,0(x6)
 3b8:	00072a83          	lw	x21,0(x14)
 3bc:	00700f13          	li	x30,7
 3c0:	ebea98e3          	bne	x21,x30,270 <.L311>
 3c4:	0006ae83          	lw	x29,0(x13)
 3c8:	00300093          	li	x1,3
 3cc:	161e8e63          	beq	x29,x1,548 <.L354>

000003d0 <.L319>:
 3d0:	00100f13          	li	x30,1
 3d4:	0100006f          	j	3e4 <.L315>

000003d8 <.L355>:
 3d8:	01460f93          	addi	x31,x12,20
 3dc:	140fa4af          	lr.w.aq	x9,(x31)
 3e0:	01e48863          	beq	x9,x30,3f0 <.L320>

000003e4 <.L315>:
 3e4:	01460e93          	addi	x29,x12,20
 3e8:	100ea0af          	lr.w	x1,(x29)
 3ec:	ffe096e3          	bne	x1,x30,3d8 <.L355>

000003f0 <.L320>:
 3f0:	00062a23          	sw	x0,20(x12)
 3f4:	00000c13          	li	x24,0
 3f8:	01000a13          	li	x20,16

000003fc <.L321>:
 3fc:	01860b33          	add	x22,x12,x24
 400:	000b0223          	sb	x0,4(x22)
 404:	001c0c13          	addi	x24,x24,1 # 3f000001 <.L690+0x3efff7e5>
 408:	ff4c1ae3          	bne	x24,x20,3fc <.L321>
 40c:	00062023          	sw	x0,0(x12)
 410:	00000293          	li	x5,0
 414:	20000bb7          	lui	x23,0x20000
 418:	00100c93          	li	x25,1
 41c:	000403b7          	lui	x7,0x40
 420:	00400937          	lui	x18,0x400

00000424 <.L322>:
 424:	0006a983          	lw	x19,0(x13)
 428:	00566e33          	or	x28,x12,x5
 42c:	007282b3          	add	x5,x5,x7
 430:	01899413          	slli	x8,x19,0x18
 434:	01c46833          	or	x16,x8,x28
 438:	017867b3          	or	x15,x16,x23
 43c:	0197a023          	sw	x25,0(x15) # 231c0000 <.L690+0x231bf7e4>
 440:	ff2292e3          	bne	x5,x18,424 <.L322>
 444:	e2dff06f          	j	270 <.L311>

00000448 <.L347>:
 448:	fff90a13          	addi	x20,x18,-1 # 3fffff <.L690+0x3ff7e3>
 44c:	ffd00b13          	li	x22,-3
 450:	d94b64e3          	bltu	x22,x20,1d8 <.L287>
 454:	00000c37          	lui	x24,0x0
 458:	000c2b83          	lw	x23,0(x24) # 0 <_Z19tensorlib_copy_implIifEiP11hb_tensor_tS1_>
 45c:	00795c93          	srli	x25,x18,0x7
 460:	001c8393          	addi	x7,x25,1 # fc0001 <.L690+0xfbf7e5>
 464:	07fbf793          	andi	x15,x23,127
 468:	027787b3          	mul	x15,x15,x7
 46c:	00f38ab3          	add	x21,x7,x15
 470:	17596a63          	bltu	x18,x21,5e4 <.L356>

00000474 <.L286>:
 474:	d757f2e3          	bgeu	x15,x21,1d8 <.L287>
 478:	00082903          	lw	x18,0(x16)
 47c:	0008a883          	lw	x17,0(x17)
 480:	40fa8633          	sub	x12,x21,x15
 484:	00291493          	slli	x9,x18,0x2
 488:	00289093          	slli	x1,x17,0x2
 48c:	02f089b3          	mul	x19,x1,x15
 490:	00400293          	li	x5,4
 494:	02f48833          	mul	x16,x9,x15
 498:	013e05b3          	add	x11,x28,x19
 49c:	01030333          	add	x6,x6,x16
 4a0:	08c2f463          	bgeu	x5,x12,528 <.L292>
 4a4:	ffca8413          	addi	x8,x21,-4
 4a8:	0887f063          	bgeu	x15,x8,528 <.L292>
 4ac:	00058e13          	mv	x28,x11
 4b0:	00389513          	slli	x10,x17,0x3
 4b4:	00391593          	slli	x11,x18,0x3
 4b8:	00489a13          	slli	x20,x17,0x4
 4bc:	00491b13          	slli	x22,x18,0x4
 4c0:	00b302b3          	add	x5,x6,x11
 4c4:	00ae0833          	add	x16,x28,x10

000004c8 <.L291>:
 4c8:	00032c03          	lw	x24,0(x6)
 4cc:	00930bb3          	add	x23,x6,x9
 4d0:	000bac83          	lw	x25,0(x23) # 20000000 <.L690+0x1ffff7e4>
 4d4:	0002a383          	lw	x7,0(x5)
 4d8:	009288b3          	add	x17,x5,x9
 4dc:	0008a903          	lw	x18,0(x17)
 4e0:	d00c7153          	fcvt.s.w	f2,x24
 4e4:	d00cf6d3          	fcvt.s.w	f13,x25
 4e8:	d003f753          	fcvt.s.w	f14,x7
 4ec:	002e2027          	fsw	f2,0(x28) # 1000000 <.L690+0xfff7e4>
 4f0:	001e0633          	add	x12,x28,x1
 4f4:	d00971d3          	fcvt.s.w	f3,x18
 4f8:	00d62027          	fsw	f13,0(x12)
 4fc:	00e82027          	fsw	f14,0(x16)
 500:	001809b3          	add	x19,x16,x1
 504:	014e05b3          	add	x11,x28,x20
 508:	0039a027          	fsw	f3,0(x19)
 50c:	00478793          	addi	x15,x15,4
 510:	00058e13          	mv	x28,x11
 514:	01630333          	add	x6,x6,x22
 518:	016282b3          	add	x5,x5,x22
 51c:	01480833          	add	x16,x16,x20
 520:	fa87e4e3          	bltu	x15,x8,4c8 <.L291>
 524:	cb57fae3          	bgeu	x15,x21,1d8 <.L287>

00000528 <.L292>:
 528:	00032403          	lw	x8,0(x6)
 52c:	00178793          	addi	x15,x15,1
 530:	00930333          	add	x6,x6,x9
 534:	d0047253          	fcvt.s.w	f4,x8
 538:	0045a027          	fsw	f4,0(x11)
 53c:	001585b3          	add	x11,x11,x1
 540:	ff57e4e3          	bltu	x15,x21,528 <.L292>
 544:	c95ff06f          	j	1d8 <.L287>

00000548 <.L354>:
 548:	00000fb7          	lui	x31,0x0
 54c:	00000a37          	lui	x20,0x0
 550:	018f8493          	addi	x9,x31,24 # 18 <_Z19tensorlib_copy_implIifEiP11hb_tensor_tS1_+0x18>
 554:	020a0b13          	addi	x22,x20,32 # 20 <_Z19tensorlib_copy_implIifEiP11hb_tensor_tS1_+0x20>

00000558 <.L314>:
 558:	00048b93          	mv	x23,x9

0000055c <.L316>:
 55c:	000bcc03          	lbu	x24,0(x23)
 560:	001b8b93          	addi	x23,x23,1
 564:	0ffc7c93          	andi	x25,x24,255
 568:	fe0c88e3          	beqz	x25,558 <.L314>
 56c:	ff7b18e3          	bne	x22,x23,55c <.L316>
 570:	00060c23          	sb	x0,24(x12)
 574:	00060ca3          	sb	x0,25(x12)
 578:	00060d23          	sb	x0,26(x12)
 57c:	00060da3          	sb	x0,27(x12)
 580:	00060e23          	sb	x0,28(x12)
 584:	00060ea3          	sb	x0,29(x12)
 588:	00060f23          	sb	x0,30(x12)
 58c:	00060fa3          	sb	x0,31(x12)
 590:	00062a23          	sw	x0,20(x12)
 594:	00000593          	li	x11,0
 598:	03fc03b7          	lui	x7,0x3fc0
 59c:	20000937          	lui	x18,0x20000
 5a0:	00100993          	li	x19,1
 5a4:	01000e37          	lui	x28,0x1000
 5a8:	080002b7          	lui	x5,0x8000
 5ac:	0080006f          	j	5b4 <.L318>

000005b0 <.L357>:
 5b0:	00072a83          	lw	x21,0(x14)

000005b4 <.L318>:
 5b4:	012a9413          	slli	x8,x21,0x12
 5b8:	00b8e833          	or	x16,x17,x11
 5bc:	007477b3          	and	x15,x8,x7
 5c0:	0107e333          	or	x6,x15,x16
 5c4:	01236ab3          	or	x21,x6,x18
 5c8:	013aa023          	sw	x19,0(x21)
 5cc:	01c585b3          	add	x11,x11,x28
 5d0:	fe5590e3          	bne	x11,x5,5b0 <.L357>
 5d4:	00072703          	lw	x14,0(x14)
 5d8:	00700893          	li	x17,7
 5dc:	df170ae3          	beq	x14,x17,3d0 <.L319>
 5e0:	c91ff06f          	j	270 <.L311>

000005e4 <.L356>:
 5e4:	00090a93          	mv	x21,x18
 5e8:	e8dff06f          	j	474 <.L286>

000005ec <.L327>:
 5ec:	00030a13          	mv	x20,x6
 5f0:	bd5ff06f          	j	1c4 <.L308>

000005f4 <.L326>:
 5f4:	000e0613          	mv	x12,x28
 5f8:	b8dff06f          	j	184 <.L306>

000005fc <.L349>:
 5fc:	0043a283          	lw	x5,4(x7) # 3fc0004 <.L690+0x3fbf7e8>
 600:	0003a083          	lw	x1,0(x7)
 604:	ffd00493          	li	x9,-3
 608:	021289b3          	mul	x19,x5,x1
 60c:	fff98913          	addi	x18,x19,-1
 610:	bd24e4e3          	bltu	x9,x18,1d8 <.L287>
 614:	00000637          	lui	x12,0x0
 618:	00062503          	lw	x10,0(x12) # 0 <_Z19tensorlib_copy_implIifEiP11hb_tensor_tS1_>
 61c:	0079db93          	srli	x23,x19,0x7
 620:	001b8b13          	addi	x22,x23,1
 624:	07f57a13          	andi	x20,x10,127
 628:	036a0533          	mul	x10,x20,x22
 62c:	00ab0cb3          	add	x25,x22,x10
 630:	0b99e663          	bltu	x19,x25,6dc <.L358>

00000634 <.L300>:
 634:	bb9572e3          	bgeu	x10,x25,1d8 <.L287>
 638:	0048aa83          	lw	x21,4(x17)
 63c:	0008a083          	lw	x1,0(x17)
 640:	00442403          	lw	x8,4(x8)
 644:	00482483          	lw	x9,4(x16)
 648:	00082983          	lw	x19,0(x16)
 64c:	0083a383          	lw	x7,8(x7)

00000650 <.L302>:
 650:	02557c33          	remu	x24,x10,x5
 654:	02555933          	divu	x18,x10,x5
 658:	028577b3          	remu	x15,x10,x8
 65c:	02855bb3          	divu	x23,x10,x8
 660:	02190633          	mul	x12,x18,x1
 664:	035c05b3          	mul	x11,x24,x21
 668:	033b8933          	mul	x18,x23,x19
 66c:	00c58b33          	add	x22,x11,x12
 670:	002b1c13          	slli	x24,x22,0x2
 674:	018e0633          	add	x12,x28,x24
 678:	02978a33          	mul	x20,x15,x9
 67c:	012a07b3          	add	x15,x20,x18
 680:	00279b93          	slli	x23,x15,0x2
 684:	017307b3          	add	x15,x6,x23
 688:	02038a63          	beqz	x7,6bc <.L304>
 68c:	0088a583          	lw	x11,8(x17)
 690:	00882a03          	lw	x20,8(x16)
 694:	00000b93          	li	x23,0
 698:	00259913          	slli	x18,x11,0x2
 69c:	002a1b13          	slli	x22,x20,0x2

000006a0 <.L303>:
 6a0:	0007ac03          	lw	x24,0(x15)
 6a4:	001b8b93          	addi	x23,x23,1
 6a8:	016787b3          	add	x15,x15,x22
 6ac:	d00c7053          	fcvt.s.w	f0,x24
 6b0:	00062027          	fsw	f0,0(x12)
 6b4:	01260633          	add	x12,x12,x18
 6b8:	fe7b94e3          	bne	x23,x7,6a0 <.L303>

000006bc <.L304>:
 6bc:	00150513          	addi	x10,x10,1
 6c0:	f8ac98e3          	bne	x25,x10,650 <.L302>
 6c4:	b15ff06f          	j	1d8 <.L287>

000006c8 <.L350>:
 6c8:	00090093          	mv	x1,x18
 6cc:	a61ff06f          	j	12c <.L305>

000006d0 <.L353>:
 6d0:	00028913          	mv	x18,x5
 6d4:	c32466e3          	bltu	x8,x18,300 <.L359>
 6d8:	b01ff06f          	j	1d8 <.L287>

000006dc <.L358>:
 6dc:	00098c93          	mv	x25,x19
 6e0:	f55ff06f          	j	634 <.L300>

Disassembly of section .text._Z19tensorlib_copy_implIfiEiP11hb_tensor_tS1_:

00000000 <_Z19tensorlib_copy_implIfiEiP11hb_tensor_tS1_>:
   0:	f5010113          	addi	x2,x2,-176
   4:	00050793          	mv	x15,x10
   8:	0a812423          	sw	x8,168(x2)
   c:	00810513          	addi	x10,x2,8
  10:	00058413          	mv	x8,x11
  14:	00078593          	mv	x11,x15
  18:	0a112623          	sw	x1,172(x2)
  1c:	0a912223          	sw	x9,164(x2)
  20:	0b212023          	sw	x18,160(x2)
  24:	09312e23          	sw	x19,156(x2)
  28:	09412c23          	sw	x20,152(x2)
  2c:	09512a23          	sw	x21,148(x2)
  30:	09612823          	sw	x22,144(x2)
  34:	09712623          	sw	x23,140(x2)
  38:	09812423          	sw	x24,136(x2)
  3c:	09912223          	sw	x25,132(x2)
  40:	00000097          	auipc	x1,0x0
  44:	000080e7          	jalr	x1 # 40 <_Z19tensorlib_copy_implIfiEiP11hb_tensor_tS1_+0x40>
  48:	00040593          	mv	x11,x8
  4c:	04410513          	addi	x10,x2,68
  50:	00000097          	auipc	x1,0x0
  54:	000080e7          	jalr	x1 # 50 <_Z19tensorlib_copy_implIfiEiP11hb_tensor_tS1_+0x50>
  58:	00000f37          	lui	x30,0x0
  5c:	000006b7          	lui	x13,0x0
  60:	00000eb7          	lui	x29,0x0
  64:	00000737          	lui	x14,0x0
  68:	000f2283          	lw	x5,0(x30) # 0 <_Z19tensorlib_copy_implIfiEiP11hb_tensor_tS1_>
  6c:	0006a803          	lw	x16,0(x13) # 0 <_Z19tensorlib_copy_implIfiEiP11hb_tensor_tS1_>
  70:	000ea603          	lw	x12,0(x29) # 0 <_Z19tensorlib_copy_implIfiEiP11hb_tensor_tS1_>
  74:	00072503          	lw	x10,0(x14) # 0 <_Z19tensorlib_copy_implIfiEiP11hb_tensor_tS1_>
  78:	00000fb7          	lui	x31,0x0
  7c:	000fa583          	lw	x11,0(x31) # 0 <_Z19tensorlib_copy_implIfiEiP11hb_tensor_tS1_>
  80:	01028333          	add	x6,x5,x16
  84:	00a603b3          	add	x7,x12,x10
  88:	01831493          	slli	x9,x6,0x18
  8c:	01239893          	slli	x17,x7,0x12
  90:	3f000937          	lui	x18,0x3f000
  94:	00fc0a37          	lui	x20,0xfc0
  98:	00040c37          	lui	x24,0x40
  9c:	0124f9b3          	and	x19,x9,x18
  a0:	0148fab3          	and	x21,x17,x20
  a4:	00459b13          	slli	x22,x11,0x4
  a8:	ff0c0c93          	addi	x25,x24,-16 # 3fff0 <.L690+0x3f7d4>
  ac:	019b7e33          	and	x28,x22,x25
  b0:	0159ebb3          	or	x23,x19,x21
  b4:	01cbe7b3          	or	x15,x23,x28
  b8:	00c12283          	lw	x5,12(x2)
  bc:	80000437          	lui	x8,0x80000
  c0:	0087e833          	or	x16,x15,x8
  c4:	41001637          	lui	x12,0x41001
  c8:	d1062623          	sw	x16,-756(x12) # 41000d0c <.L690+0x410004f0>
  cc:	00100513          	li	x10,1
  d0:	00812903          	lw	x18,8(x2)
  d4:	01012883          	lw	x17,16(x2)
  d8:	01812e03          	lw	x28,24(x2)
  dc:	04c12803          	lw	x16,76(x2)
  e0:	05412303          	lw	x6,84(x2)
  e4:	36a28263          	beq	x5,x10,448 <.L427>
  e8:	00200093          	li	x1,2
  ec:	01412383          	lw	x7,20(x2)
  f0:	1c128e63          	beq	x5,x1,2cc <.L428>
  f4:	00300593          	li	x11,3
  f8:	05012403          	lw	x8,80(x2)
  fc:	50b28063          	beq	x5,x11,5fc <.L429>
 100:	fff90493          	addi	x9,x18,-1 # 3effffff <.L690+0x3efff7e3>
 104:	ffd00993          	li	x19,-3
 108:	0c99e863          	bltu	x19,x9,1d8 <.L367>
 10c:	00000a37          	lui	x20,0x0
 110:	000a2a83          	lw	x21,0(x20) # 0 <_Z19tensorlib_copy_implIfiEiP11hb_tensor_tS1_>
 114:	00795b13          	srli	x22,x18,0x7
 118:	001b0b93          	addi	x23,x22,1
 11c:	07fafc13          	andi	x24,x21,127
 120:	037c05b3          	mul	x11,x24,x23
 124:	00bb80b3          	add	x1,x23,x11
 128:	5a196063          	bltu	x18,x1,6c8 <.L430>

0000012c <.L385>:
 12c:	0a15f663          	bgeu	x11,x1,1d8 <.L367>
 130:	04812483          	lw	x9,72(x2)
 134:	00229c93          	slli	x25,x5,0x2
 138:	019389b3          	add	x19,x7,x25
 13c:	00249793          	slli	x15,x9,0x2
 140:	00f40933          	add	x18,x8,x15

00000144 <.L390>:
 144:	4a028863          	beqz	x5,5f4 <.L406>
 148:	00088a93          	mv	x21,x17
 14c:	00038c13          	mv	x24,x7
 150:	00058513          	mv	x10,x11
 154:	00000793          	li	x15,0

00000158 <.L387>:
 158:	000c2a03          	lw	x20,0(x24)
 15c:	000aab83          	lw	x23,0(x21)
 160:	004c0c13          	addi	x24,x24,4
 164:	03457b33          	remu	x22,x10,x20
 168:	004a8a93          	addi	x21,x21,4
 16c:	037b0cb3          	mul	x25,x22,x23
 170:	03455533          	divu	x10,x10,x20
 174:	019787b3          	add	x15,x15,x25
 178:	ff8990e3          	bne	x19,x24,158 <.L387>
 17c:	00279613          	slli	x12,x15,0x2
 180:	00ce0633          	add	x12,x28,x12

00000184 <.L386>:
 184:	46048463          	beqz	x9,5ec <.L407>
 188:	00080b13          	mv	x22,x16
 18c:	00040513          	mv	x10,x8
 190:	00058a93          	mv	x21,x11
 194:	00000793          	li	x15,0

00000198 <.L389>:
 198:	00052c03          	lw	x24,0(x10)
 19c:	000b2c83          	lw	x25,0(x22)
 1a0:	00450513          	addi	x10,x10,4
 1a4:	004b0b13          	addi	x22,x22,4
 1a8:	038afbb3          	remu	x23,x21,x24
 1ac:	039b8a33          	mul	x20,x23,x25
 1b0:	038adab3          	divu	x21,x21,x24
 1b4:	014787b3          	add	x15,x15,x20
 1b8:	fea910e3          	bne	x18,x10,198 <.L389>
 1bc:	00279c13          	slli	x24,x15,0x2
 1c0:	01830a33          	add	x20,x6,x24

000001c4 <.L388>:
 1c4:	000a2787          	flw	f15,0(x20)
 1c8:	00158593          	addi	x11,x11,1
 1cc:	c0079cd3          	fcvt.w.s	x25,f15,rtz
 1d0:	01962023          	sw	x25,0(x12)
 1d4:	f6b098e3          	bne	x1,x11,144 <.L390>

000001d8 <.L367>:
 1d8:	000f2f03          	lw	x30,0(x30)
 1dc:	0006aa83          	lw	x21,0(x13)
 1e0:	000eae83          	lw	x29,0(x29)
 1e4:	00072283          	lw	x5,0(x14)
 1e8:	000faf83          	lw	x31,0(x31)
 1ec:	015f0433          	add	x8,x30,x21
 1f0:	005e85b3          	add	x11,x29,x5
 1f4:	01841b13          	slli	x22,x8,0x18
 1f8:	01259b93          	slli	x23,x11,0x12
 1fc:	00040637          	lui	x12,0x40
 200:	3f000c37          	lui	x24,0x3f000
 204:	00fc03b7          	lui	x7,0xfc0
 208:	018b7cb3          	and	x25,x22,x24
 20c:	007bf8b3          	and	x17,x23,x7
 210:	004f9093          	slli	x1,x31,0x4
 214:	ff060493          	addi	x9,x12,-16 # 3fff0 <.L690+0x3f7d4>
 218:	011ce933          	or	x18,x25,x17
 21c:	0090fe33          	and	x28,x1,x9
 220:	01c96533          	or	x10,x18,x28
 224:	c0000837          	lui	x16,0xc0000
 228:	010567b3          	or	x15,x10,x16
 22c:	41001337          	lui	x6,0x41001
 230:	d0f32623          	sw	x15,-756(x6) # 41000d0c <.L690+0x410004f0>
 234:	00072a03          	lw	x20,0(x14)
 238:	0006a983          	lw	x19,0(x13)
 23c:	00000537          	lui	x10,0x0
 240:	004a0f13          	addi	x30,x20,4
 244:	00050613          	mv	x12,x10
 248:	01e60ab3          	add	x21,x12,x30
 24c:	01899e93          	slli	x29,x19,0x18
 250:	01dae2b3          	or	x5,x21,x29
 254:	201c0fb7          	lui	x31,0x201c0
 258:	01f2e433          	or	x8,x5,x31
 25c:	00100593          	li	x11,1
 260:	00b40023          	sb	x11,0(x8) # 80000000 <.L690+0x7ffff7e4>
 264:	00072b03          	lw	x22,0(x14)
 268:	00700b93          	li	x23,7
 26c:	117b0463          	beq	x22,x23,374 <.L431>

00000270 <.L391>:
 270:	00100693          	li	x13,1
 274:	0100006f          	j	284 <.L404>

00000278 <.L432>:
 278:	00050f13          	mv	x30,x10
 27c:	140f272f          	lr.w.aq	x14,(x30)
 280:	00d70863          	beq	x14,x13,290 <.L403>

00000284 <.L404>:
 284:	00050a13          	mv	x20,x10
 288:	100a29af          	lr.w	x19,(x20)
 28c:	fed996e3          	bne	x19,x13,278 <.L432>

00000290 <.L403>:
 290:	0ac12083          	lw	x1,172(x2)
 294:	0a812403          	lw	x8,168(x2)
 298:	00062023          	sw	x0,0(x12)
 29c:	0a412483          	lw	x9,164(x2)
 2a0:	0a012903          	lw	x18,160(x2)
 2a4:	09c12983          	lw	x19,156(x2)
 2a8:	09812a03          	lw	x20,152(x2)
 2ac:	09412a83          	lw	x21,148(x2)
 2b0:	09012b03          	lw	x22,144(x2)
 2b4:	08c12b83          	lw	x23,140(x2)
 2b8:	08812c03          	lw	x24,136(x2)
 2bc:	08412c83          	lw	x25,132(x2)
 2c0:	00000513          	li	x10,0
 2c4:	0b010113          	addi	x2,x2,176
 2c8:	00008067          	ret

000002cc <.L428>:
 2cc:	0003a283          	lw	x5,0(x7) # fc0000 <.L690+0xfbf7e4>
 2d0:	ffd00c93          	li	x25,-3
 2d4:	fff28a93          	addi	x21,x5,-1 # 7ffffff <.L690+0x7fff7e3>
 2d8:	f15ce0e3          	bltu	x25,x21,1d8 <.L367>
 2dc:	000000b7          	lui	x1,0x0
 2e0:	0000a403          	lw	x8,0(x1) # 0 <_Z19tensorlib_copy_implIfiEiP11hb_tensor_tS1_>
 2e4:	0072d493          	srli	x9,x5,0x7
 2e8:	00148993          	addi	x19,x9,1
 2ec:	07f47593          	andi	x11,x8,127
 2f0:	03358433          	mul	x8,x11,x19
 2f4:	00898933          	add	x18,x19,x8
 2f8:	3d22ec63          	bltu	x5,x18,6d0 <.L433>
 2fc:	ed247ee3          	bgeu	x8,x18,1d8 <.L367>

00000300 <.L439>:
 300:	00082a03          	lw	x20,0(x16) # c0000000 <.L690+0xbffff7e4>
 304:	0008ab03          	lw	x22,0(x17)
 308:	0043ab83          	lw	x23,4(x7)
 30c:	002a1c13          	slli	x24,x20,0x2
 310:	002b1c93          	slli	x25,x22,0x2
 314:	038403b3          	mul	x7,x8,x24
 318:	039407b3          	mul	x15,x8,x25
 31c:	00730333          	add	x6,x6,x7
 320:	00fe0e33          	add	x28,x28,x15

00000324 <.L376>:
 324:	00030293          	mv	x5,x6
 328:	020b8c63          	beqz	x23,360 <.L378>
 32c:	0048aa83          	lw	x21,4(x17)
 330:	00482603          	lw	x12,4(x16)
 334:	000e0513          	mv	x10,x28
 338:	002a9093          	slli	x1,x21,0x2
 33c:	00261493          	slli	x9,x12,0x2
 340:	00000993          	li	x19,0

00000344 <.L377>:
 344:	0002a087          	flw	f1,0(x5)
 348:	00198993          	addi	x19,x19,1
 34c:	009282b3          	add	x5,x5,x9
 350:	c00095d3          	fcvt.w.s	x11,f1,rtz
 354:	00b52023          	sw	x11,0(x10) # 0 <_Z19tensorlib_copy_implIfiEiP11hb_tensor_tS1_>
 358:	00150533          	add	x10,x10,x1
 35c:	ff7994e3          	bne	x19,x23,344 <.L377>

00000360 <.L378>:
 360:	00140413          	addi	x8,x8,1
 364:	01830333          	add	x6,x6,x24
 368:	019e0e33          	add	x28,x28,x25
 36c:	fa891ce3          	bne	x18,x8,324 <.L376>
 370:	e69ff06f          	j	1d8 <.L367>

00000374 <.L431>:
 374:	00000c37          	lui	x24,0x0
 378:	000003b7          	lui	x7,0x0
 37c:	004c0c93          	addi	x25,x24,4 # 4 <_Z19tensorlib_copy_implIfiEiP11hb_tensor_tS1_+0x4>
 380:	01438893          	addi	x17,x7,20 # 14 <_Z19tensorlib_copy_implIfiEiP11hb_tensor_tS1_+0x14>

00000384 <.L364>:
 384:	000c8913          	mv	x18,x25

00000388 <.L393>:
 388:	00094083          	lbu	x1,0(x18)
 38c:	00190913          	addi	x18,x18,1
 390:	0ff0f493          	andi	x9,x1,255
 394:	fe0488e3          	beqz	x9,384 <.L364>
 398:	ff2898e3          	bne	x17,x18,388 <.L393>
 39c:	0006ae03          	lw	x28,0(x13)
 3a0:	231c0337          	lui	x6,0x231c0
 3a4:	00100993          	li	x19,1
 3a8:	018e0813          	addi	x16,x28,24 # 1000018 <.L690+0xfff7fc>
 3ac:	010607b3          	add	x15,x12,x16
 3b0:	0067ea33          	or	x20,x15,x6
 3b4:	013a0023          	sb	x19,0(x20)
 3b8:	00072a83          	lw	x21,0(x14)
 3bc:	00700f13          	li	x30,7
 3c0:	ebea98e3          	bne	x21,x30,270 <.L391>
 3c4:	0006ae83          	lw	x29,0(x13)
 3c8:	00300293          	li	x5,3
 3cc:	165e8e63          	beq	x29,x5,548 <.L434>

000003d0 <.L399>:
 3d0:	00100a93          	li	x21,1
 3d4:	0100006f          	j	3e4 <.L395>

000003d8 <.L435>:
 3d8:	01460f93          	addi	x31,x12,20
 3dc:	140fa42f          	lr.w.aq	x8,(x31)
 3e0:	01540863          	beq	x8,x21,3f0 <.L400>

000003e4 <.L395>:
 3e4:	01460e93          	addi	x29,x12,20
 3e8:	100ea2af          	lr.w	x5,(x29)
 3ec:	ff5296e3          	bne	x5,x21,3d8 <.L435>

000003f0 <.L400>:
 3f0:	00062a23          	sw	x0,20(x12)
 3f4:	00000b93          	li	x23,0
 3f8:	01000593          	li	x11,16

000003fc <.L401>:
 3fc:	01760b33          	add	x22,x12,x23
 400:	000b0223          	sb	x0,4(x22)
 404:	001b8b93          	addi	x23,x23,1
 408:	febb9ae3          	bne	x23,x11,3fc <.L401>
 40c:	00062023          	sw	x0,0(x12)
 410:	00000e13          	li	x28,0
 414:	20000c37          	lui	x24,0x20000
 418:	00100c93          	li	x25,1
 41c:	000403b7          	lui	x7,0x40
 420:	004000b7          	lui	x1,0x400

00000424 <.L402>:
 424:	0006a903          	lw	x18,0(x13)
 428:	01c664b3          	or	x9,x12,x28
 42c:	007e0e33          	add	x28,x28,x7
 430:	01891793          	slli	x15,x18,0x18
 434:	0097e833          	or	x16,x15,x9
 438:	01886333          	or	x6,x16,x24
 43c:	01932023          	sw	x25,0(x6) # 231c0000 <.L690+0x231bf7e4>
 440:	fe1e12e3          	bne	x28,x1,424 <.L402>
 444:	e2dff06f          	j	270 <.L391>

00000448 <.L427>:
 448:	fff90a13          	addi	x20,x18,-1
 44c:	ffd00b13          	li	x22,-3
 450:	d94b64e3          	bltu	x22,x20,1d8 <.L367>
 454:	00000bb7          	lui	x23,0x0
 458:	000bac03          	lw	x24,0(x23) # 0 <_Z19tensorlib_copy_implIfiEiP11hb_tensor_tS1_>
 45c:	00795c93          	srli	x25,x18,0x7
 460:	001c8393          	addi	x7,x25,1
 464:	07fc7793          	andi	x15,x24,127
 468:	027787b3          	mul	x15,x15,x7
 46c:	00f38ab3          	add	x21,x7,x15
 470:	17596a63          	bltu	x18,x21,5e4 <.L436>

00000474 <.L366>:
 474:	d757f2e3          	bgeu	x15,x21,1d8 <.L367>
 478:	00082083          	lw	x1,0(x16)
 47c:	0008a883          	lw	x17,0(x17)
 480:	40fa8933          	sub	x18,x21,x15
 484:	00209413          	slli	x8,x1,0x2
 488:	00289293          	slli	x5,x17,0x2
 48c:	02f28633          	mul	x12,x5,x15
 490:	00400493          	li	x9,4
 494:	02f40833          	mul	x16,x8,x15
 498:	00ce09b3          	add	x19,x28,x12
 49c:	01030333          	add	x6,x6,x16
 4a0:	0924f463          	bgeu	x9,x18,528 <.L372>
 4a4:	ffca8a13          	addi	x20,x21,-4
 4a8:	0947f063          	bgeu	x15,x20,528 <.L372>
 4ac:	00098e13          	mv	x28,x19
 4b0:	00389593          	slli	x11,x17,0x3
 4b4:	00309993          	slli	x19,x1,0x3
 4b8:	00489b13          	slli	x22,x17,0x4
 4bc:	00409b93          	slli	x23,x1,0x4
 4c0:	01330533          	add	x10,x6,x19
 4c4:	00be0833          	add	x16,x28,x11

000004c8 <.L371>:
 4c8:	00032607          	flw	f12,0(x6)
 4cc:	00830c33          	add	x24,x6,x8
 4d0:	000c2687          	flw	f13,0(x24) # 20000000 <.L690+0x1ffff7e4>
 4d4:	00052707          	flw	f14,0(x10)
 4d8:	00850cb3          	add	x25,x10,x8
 4dc:	000ca107          	flw	f2,0(x25)
 4e0:	c00613d3          	fcvt.w.s	x7,f12,rtz
 4e4:	c00698d3          	fcvt.w.s	x17,f13,rtz
 4e8:	c00710d3          	fcvt.w.s	x1,f14,rtz
 4ec:	007e2023          	sw	x7,0(x28)
 4f0:	005e0633          	add	x12,x28,x5
 4f4:	c0011953          	fcvt.w.s	x18,f2,rtz
 4f8:	01162023          	sw	x17,0(x12)
 4fc:	00182023          	sw	x1,0(x16)
 500:	005804b3          	add	x9,x16,x5
 504:	016e09b3          	add	x19,x28,x22
 508:	0124a023          	sw	x18,0(x9)
 50c:	00478793          	addi	x15,x15,4
 510:	00098e13          	mv	x28,x19
 514:	01730333          	add	x6,x6,x23
 518:	01750533          	add	x10,x10,x23
 51c:	01680833          	add	x16,x16,x22
 520:	fb47e4e3          	bltu	x15,x20,4c8 <.L371>
 524:	cb57fae3          	bgeu	x15,x21,1d8 <.L367>

00000528 <.L372>:
 528:	00032187          	flw	f3,0(x6)
 52c:	00178793          	addi	x15,x15,1
 530:	00830333          	add	x6,x6,x8
 534:	c0019a53          	fcvt.w.s	x20,f3,rtz
 538:	0149a023          	sw	x20,0(x19)
 53c:	005989b3          	add	x19,x19,x5
 540:	ff57e4e3          	bltu	x15,x21,528 <.L372>
 544:	c95ff06f          	j	1d8 <.L367>

00000548 <.L434>:
 548:	00000fb7          	lui	x31,0x0
 54c:	000005b7          	lui	x11,0x0
 550:	018f8413          	addi	x8,x31,24 # 18 <_Z19tensorlib_copy_implIfiEiP11hb_tensor_tS1_+0x18>
 554:	02058b13          	addi	x22,x11,32 # 20 <_Z19tensorlib_copy_implIfiEiP11hb_tensor_tS1_+0x20>

00000558 <.L394>:
 558:	00040c13          	mv	x24,x8

0000055c <.L396>:
 55c:	000c4b83          	lbu	x23,0(x24)
 560:	001c0c13          	addi	x24,x24,1
 564:	0ffbfc93          	andi	x25,x23,255
 568:	fe0c88e3          	beqz	x25,558 <.L394>
 56c:	ff8b18e3          	bne	x22,x24,55c <.L396>
 570:	00060c23          	sb	x0,24(x12)
 574:	00060ca3          	sb	x0,25(x12)
 578:	00060d23          	sb	x0,26(x12)
 57c:	00060da3          	sb	x0,27(x12)
 580:	00060e23          	sb	x0,28(x12)
 584:	00060ea3          	sb	x0,29(x12)
 588:	00060f23          	sb	x0,30(x12)
 58c:	00060fa3          	sb	x0,31(x12)
 590:	00062a23          	sw	x0,20(x12)
 594:	00000f13          	li	x30,0
 598:	03fc03b7          	lui	x7,0x3fc0
 59c:	200000b7          	lui	x1,0x20000
 5a0:	00100913          	li	x18,1
 5a4:	010004b7          	lui	x9,0x1000
 5a8:	08000e37          	lui	x28,0x8000
 5ac:	0080006f          	j	5b4 <.L398>

000005b0 <.L437>:
 5b0:	00072a83          	lw	x21,0(x14)

000005b4 <.L398>:
 5b4:	012a9793          	slli	x15,x21,0x12
 5b8:	01e8e833          	or	x16,x17,x30
 5bc:	0077f333          	and	x6,x15,x7
 5c0:	01036a33          	or	x20,x6,x16
 5c4:	001a69b3          	or	x19,x20,x1
 5c8:	0129a023          	sw	x18,0(x19)
 5cc:	009f0f33          	add	x30,x30,x9
 5d0:	ffcf10e3          	bne	x30,x28,5b0 <.L437>
 5d4:	00072703          	lw	x14,0(x14)
 5d8:	00700893          	li	x17,7
 5dc:	df170ae3          	beq	x14,x17,3d0 <.L399>
 5e0:	c91ff06f          	j	270 <.L391>

000005e4 <.L436>:
 5e4:	00090a93          	mv	x21,x18
 5e8:	e8dff06f          	j	474 <.L366>

000005ec <.L407>:
 5ec:	00030a13          	mv	x20,x6
 5f0:	bd5ff06f          	j	1c4 <.L388>

000005f4 <.L406>:
 5f4:	000e0613          	mv	x12,x28
 5f8:	b8dff06f          	j	184 <.L386>

000005fc <.L429>:
 5fc:	0043a283          	lw	x5,4(x7) # 3fc0004 <.L690+0x3fbf7e8>
 600:	0003a083          	lw	x1,0(x7)
 604:	ffd00493          	li	x9,-3
 608:	021289b3          	mul	x19,x5,x1
 60c:	fff98913          	addi	x18,x19,-1
 610:	bd24e4e3          	bltu	x9,x18,1d8 <.L367>
 614:	00000637          	lui	x12,0x0
 618:	00062503          	lw	x10,0(x12) # 0 <_Z19tensorlib_copy_implIfiEiP11hb_tensor_tS1_>
 61c:	0079db93          	srli	x23,x19,0x7
 620:	001b8b13          	addi	x22,x23,1
 624:	07f57a13          	andi	x20,x10,127
 628:	036a0533          	mul	x10,x20,x22
 62c:	00ab0cb3          	add	x25,x22,x10
 630:	0b99e663          	bltu	x19,x25,6dc <.L438>

00000634 <.L380>:
 634:	bb9572e3          	bgeu	x10,x25,1d8 <.L367>
 638:	0048aa83          	lw	x21,4(x17)
 63c:	0008a083          	lw	x1,0(x17)
 640:	00442403          	lw	x8,4(x8)
 644:	00482483          	lw	x9,4(x16)
 648:	00082983          	lw	x19,0(x16)
 64c:	0083a383          	lw	x7,8(x7)

00000650 <.L382>:
 650:	02557c33          	remu	x24,x10,x5
 654:	02555933          	divu	x18,x10,x5
 658:	028577b3          	remu	x15,x10,x8
 65c:	02855bb3          	divu	x23,x10,x8
 660:	02190633          	mul	x12,x18,x1
 664:	035c05b3          	mul	x11,x24,x21
 668:	033b8933          	mul	x18,x23,x19
 66c:	00c58b33          	add	x22,x11,x12
 670:	002b1c13          	slli	x24,x22,0x2
 674:	018e0633          	add	x12,x28,x24
 678:	02978a33          	mul	x20,x15,x9
 67c:	012a07b3          	add	x15,x20,x18
 680:	00279b93          	slli	x23,x15,0x2
 684:	017307b3          	add	x15,x6,x23
 688:	02038a63          	beqz	x7,6bc <.L384>
 68c:	0088a583          	lw	x11,8(x17)
 690:	00882a03          	lw	x20,8(x16)
 694:	00000b93          	li	x23,0
 698:	00259913          	slli	x18,x11,0x2
 69c:	002a1b13          	slli	x22,x20,0x2

000006a0 <.L383>:
 6a0:	0007a007          	flw	f0,0(x15)
 6a4:	001b8b93          	addi	x23,x23,1
 6a8:	016787b3          	add	x15,x15,x22
 6ac:	c0001c53          	fcvt.w.s	x24,f0,rtz
 6b0:	01862023          	sw	x24,0(x12)
 6b4:	01260633          	add	x12,x12,x18
 6b8:	fe7b94e3          	bne	x23,x7,6a0 <.L383>

000006bc <.L384>:
 6bc:	00150513          	addi	x10,x10,1
 6c0:	f8ac98e3          	bne	x25,x10,650 <.L382>
 6c4:	b15ff06f          	j	1d8 <.L367>

000006c8 <.L430>:
 6c8:	00090093          	mv	x1,x18
 6cc:	a61ff06f          	j	12c <.L385>

000006d0 <.L433>:
 6d0:	00028913          	mv	x18,x5
 6d4:	c32466e3          	bltu	x8,x18,300 <.L439>
 6d8:	b01ff06f          	j	1d8 <.L367>

000006dc <.L438>:
 6dc:	00098c93          	mv	x25,x19
 6e0:	f55ff06f          	j	634 <.L380>

Disassembly of section .text._Z19tensorlib_copy_implIffEiP11hb_tensor_tS1_:

00000000 <_Z19tensorlib_copy_implIffEiP11hb_tensor_tS1_>:
   0:	f5010113          	addi	x2,x2,-176
   4:	00050793          	mv	x15,x10
   8:	0a812423          	sw	x8,168(x2)
   c:	00810513          	addi	x10,x2,8
  10:	00058413          	mv	x8,x11
  14:	00078593          	mv	x11,x15
  18:	0a112623          	sw	x1,172(x2)
  1c:	0a912223          	sw	x9,164(x2)
  20:	0b212023          	sw	x18,160(x2)
  24:	09312e23          	sw	x19,156(x2)
  28:	09412c23          	sw	x20,152(x2)
  2c:	09512a23          	sw	x21,148(x2)
  30:	09612823          	sw	x22,144(x2)
  34:	09712623          	sw	x23,140(x2)
  38:	09812423          	sw	x24,136(x2)
  3c:	09912223          	sw	x25,132(x2)
  40:	00000097          	auipc	x1,0x0
  44:	000080e7          	jalr	x1 # 40 <_Z19tensorlib_copy_implIffEiP11hb_tensor_tS1_+0x40>
  48:	00040593          	mv	x11,x8
  4c:	04410513          	addi	x10,x2,68
  50:	00000097          	auipc	x1,0x0
  54:	000080e7          	jalr	x1 # 50 <_Z19tensorlib_copy_implIffEiP11hb_tensor_tS1_+0x50>
  58:	00000f37          	lui	x30,0x0
  5c:	000006b7          	lui	x13,0x0
  60:	00000eb7          	lui	x29,0x0
  64:	00000737          	lui	x14,0x0
  68:	000f2283          	lw	x5,0(x30) # 0 <_Z19tensorlib_copy_implIffEiP11hb_tensor_tS1_>
  6c:	0006a803          	lw	x16,0(x13) # 0 <_Z19tensorlib_copy_implIffEiP11hb_tensor_tS1_>
  70:	000ea603          	lw	x12,0(x29) # 0 <_Z19tensorlib_copy_implIffEiP11hb_tensor_tS1_>
  74:	00072503          	lw	x10,0(x14) # 0 <_Z19tensorlib_copy_implIffEiP11hb_tensor_tS1_>
  78:	00000fb7          	lui	x31,0x0
  7c:	000fa583          	lw	x11,0(x31) # 0 <_Z19tensorlib_copy_implIffEiP11hb_tensor_tS1_>
  80:	01028333          	add	x6,x5,x16
  84:	00a603b3          	add	x7,x12,x10
  88:	01831493          	slli	x9,x6,0x18
  8c:	01239893          	slli	x17,x7,0x12
  90:	3f000937          	lui	x18,0x3f000
  94:	00fc0a37          	lui	x20,0xfc0
  98:	00040c37          	lui	x24,0x40
  9c:	0124f9b3          	and	x19,x9,x18
  a0:	0148fab3          	and	x21,x17,x20
  a4:	00459b13          	slli	x22,x11,0x4
  a8:	ff0c0c93          	addi	x25,x24,-16 # 3fff0 <.L690+0x3f7d4>
  ac:	019b7e33          	and	x28,x22,x25
  b0:	0159ebb3          	or	x23,x19,x21
  b4:	01cbe7b3          	or	x15,x23,x28
  b8:	00c12283          	lw	x5,12(x2)
  bc:	80000437          	lui	x8,0x80000
  c0:	0087e833          	or	x16,x15,x8
  c4:	41001637          	lui	x12,0x41001
  c8:	d1062623          	sw	x16,-756(x12) # 41000d0c <.L690+0x410004f0>
  cc:	00100513          	li	x10,1
  d0:	00812483          	lw	x9,8(x2)
  d4:	01012883          	lw	x17,16(x2)
  d8:	01812e03          	lw	x28,24(x2)
  dc:	04c12803          	lw	x16,76(x2)
  e0:	05412303          	lw	x6,84(x2)
  e4:	34a28e63          	beq	x5,x10,440 <.L507>
  e8:	00200093          	li	x1,2
  ec:	01412383          	lw	x7,20(x2)
  f0:	1c128c63          	beq	x5,x1,2c8 <.L508>
  f4:	00300593          	li	x11,3
  f8:	05012903          	lw	x18,80(x2)
  fc:	4eb28263          	beq	x5,x11,5e0 <.L509>
 100:	fff48993          	addi	x19,x9,-1 # ffffff <.L690+0xfff7e3>
 104:	ffd00a13          	li	x20,-3
 108:	0d3a6663          	bltu	x20,x19,1d4 <.L447>
 10c:	00000ab7          	lui	x21,0x0
 110:	000aab03          	lw	x22,0(x21) # 0 <_Z19tensorlib_copy_implIffEiP11hb_tensor_tS1_>
 114:	0074db93          	srli	x23,x9,0x7
 118:	001b8c13          	addi	x24,x23,1
 11c:	07fb7c93          	andi	x25,x22,127
 120:	038c85b3          	mul	x11,x25,x24
 124:	00bc00b3          	add	x1,x24,x11
 128:	5814e063          	bltu	x9,x1,6a8 <.L510>

0000012c <.L465>:
 12c:	0a15f463          	bgeu	x11,x1,1d4 <.L447>
 130:	04812983          	lw	x19,72(x2)
 134:	00229793          	slli	x15,x5,0x2
 138:	00f38ab3          	add	x21,x7,x15
 13c:	00299413          	slli	x8,x19,0x2
 140:	00890a33          	add	x20,x18,x8

00000144 <.L470>:
 144:	48028a63          	beqz	x5,5d8 <.L486>
 148:	00088c93          	mv	x25,x17
 14c:	00038c13          	mv	x24,x7
 150:	00058513          	mv	x10,x11
 154:	00000793          	li	x15,0

00000158 <.L467>:
 158:	000c2b03          	lw	x22,0(x24)
 15c:	000cab83          	lw	x23,0(x25)
 160:	004c0c13          	addi	x24,x24,4
 164:	036574b3          	remu	x9,x10,x22
 168:	004c8c93          	addi	x25,x25,4
 16c:	03748433          	mul	x8,x9,x23
 170:	03655533          	divu	x10,x10,x22
 174:	008787b3          	add	x15,x15,x8
 178:	ff8a90e3          	bne	x21,x24,158 <.L467>
 17c:	00279613          	slli	x12,x15,0x2
 180:	00ce0633          	add	x12,x28,x12

00000184 <.L466>:
 184:	44098663          	beqz	x19,5d0 <.L487>
 188:	00080493          	mv	x9,x16
 18c:	00090513          	mv	x10,x18
 190:	00058413          	mv	x8,x11
 194:	00000793          	li	x15,0

00000198 <.L469>:
 198:	00052c03          	lw	x24,0(x10)
 19c:	0004ac83          	lw	x25,0(x9)
 1a0:	00450513          	addi	x10,x10,4
 1a4:	00448493          	addi	x9,x9,4
 1a8:	03847bb3          	remu	x23,x8,x24
 1ac:	039b8b33          	mul	x22,x23,x25
 1b0:	03845433          	divu	x8,x8,x24
 1b4:	016787b3          	add	x15,x15,x22
 1b8:	ff4510e3          	bne	x10,x20,198 <.L469>
 1bc:	00279c13          	slli	x24,x15,0x2
 1c0:	01830b33          	add	x22,x6,x24

000001c4 <.L468>:
 1c4:	000b2787          	flw	f15,0(x22)
 1c8:	00158593          	addi	x11,x11,1
 1cc:	00f62027          	fsw	f15,0(x12)
 1d0:	f6b09ae3          	bne	x1,x11,144 <.L470>

000001d4 <.L447>:
 1d4:	000f2f03          	lw	x30,0(x30)
 1d8:	0006a083          	lw	x1,0(x13)
 1dc:	000eae83          	lw	x29,0(x29)
 1e0:	00072903          	lw	x18,0(x14)
 1e4:	000faf83          	lw	x31,0(x31)
 1e8:	001f0833          	add	x16,x30,x1
 1ec:	012e88b3          	add	x17,x29,x18
 1f0:	01881293          	slli	x5,x16,0x18
 1f4:	01289493          	slli	x9,x17,0x12
 1f8:	3f000437          	lui	x8,0x3f000
 1fc:	00fc0537          	lui	x10,0xfc0
 200:	00040a37          	lui	x20,0x40
 204:	0082fb33          	and	x22,x5,x8
 208:	00a4fcb3          	and	x25,x9,x10
 20c:	004f9b93          	slli	x23,x31,0x4
 210:	ff0a0c13          	addi	x24,x20,-16 # 3fff0 <.L690+0x3f7d4>
 214:	019b63b3          	or	x7,x22,x25
 218:	018bfab3          	and	x21,x23,x24
 21c:	0153ee33          	or	x28,x7,x21
 220:	c00009b7          	lui	x19,0xc0000
 224:	013e65b3          	or	x11,x28,x19
 228:	410017b7          	lui	x15,0x41001
 22c:	d0b7a623          	sw	x11,-756(x15) # 41000d0c <.L690+0x410004f0>
 230:	00072303          	lw	x6,0(x14)
 234:	0006af03          	lw	x30,0(x13)
 238:	00000537          	lui	x10,0x0
 23c:	00430093          	addi	x1,x6,4
 240:	00050613          	mv	x12,x10
 244:	00160eb3          	add	x29,x12,x1
 248:	018f1913          	slli	x18,x30,0x18
 24c:	012eefb3          	or	x31,x29,x18
 250:	201c0837          	lui	x16,0x201c0
 254:	010fe8b3          	or	x17,x31,x16
 258:	00100293          	li	x5,1
 25c:	00588023          	sb	x5,0(x17)
 260:	00072483          	lw	x9,0(x14)
 264:	00700413          	li	x8,7
 268:	10848263          	beq	x9,x8,36c <.L511>

0000026c <.L471>:
 26c:	00100693          	li	x13,1
 270:	0100006f          	j	280 <.L484>

00000274 <.L512>:
 274:	00050593          	mv	x11,x10
 278:	1405a72f          	lr.w.aq	x14,(x11)
 27c:	00d70863          	beq	x14,x13,28c <.L483>

00000280 <.L484>:
 280:	00050f13          	mv	x30,x10
 284:	100f20af          	lr.w	x1,(x30)
 288:	fed096e3          	bne	x1,x13,274 <.L512>

0000028c <.L483>:
 28c:	0ac12083          	lw	x1,172(x2)
 290:	0a812403          	lw	x8,168(x2)
 294:	00062023          	sw	x0,0(x12)
 298:	0a412483          	lw	x9,164(x2)
 29c:	0a012903          	lw	x18,160(x2)
 2a0:	09c12983          	lw	x19,156(x2)
 2a4:	09812a03          	lw	x20,152(x2)
 2a8:	09412a83          	lw	x21,148(x2)
 2ac:	09012b03          	lw	x22,144(x2)
 2b0:	08c12b83          	lw	x23,140(x2)
 2b4:	08812c03          	lw	x24,136(x2)
 2b8:	08412c83          	lw	x25,132(x2)
 2bc:	00000513          	li	x10,0
 2c0:	0b010113          	addi	x2,x2,176
 2c4:	00008067          	ret

000002c8 <.L508>:
 2c8:	0003a283          	lw	x5,0(x7)
 2cc:	ffd00c13          	li	x24,-3
 2d0:	fff28093          	addi	x1,x5,-1
 2d4:	f01c60e3          	bltu	x24,x1,1d4 <.L447>
 2d8:	00000ab7          	lui	x21,0x0
 2dc:	000aa403          	lw	x8,0(x21) # 0 <_Z19tensorlib_copy_implIffEiP11hb_tensor_tS1_>
 2e0:	0072d993          	srli	x19,x5,0x7
 2e4:	00198913          	addi	x18,x19,1 # c0000001 <.L690+0xbffff7e5>
 2e8:	07f47b13          	andi	x22,x8,127
 2ec:	032b0433          	mul	x8,x22,x18
 2f0:	00890cb3          	add	x25,x18,x8
 2f4:	3b92ee63          	bltu	x5,x25,6b0 <.L513>
 2f8:	ed947ee3          	bgeu	x8,x25,1d4 <.L447>

000002fc <.L519>:
 2fc:	00082483          	lw	x9,0(x16) # 201c0000 <.L690+0x201bf7e4>
 300:	0008ab83          	lw	x23,0(x17)
 304:	0043a383          	lw	x7,4(x7)
 308:	00249a13          	slli	x20,x9,0x2
 30c:	002b9c13          	slli	x24,x23,0x2
 310:	034405b3          	mul	x11,x8,x20
 314:	028c07b3          	mul	x15,x24,x8
 318:	00b30333          	add	x6,x6,x11
 31c:	00fe0e33          	add	x28,x28,x15

00000320 <.L456>:
 320:	00030293          	mv	x5,x6
 324:	02038a63          	beqz	x7,358 <.L458>
 328:	0048a083          	lw	x1,4(x17)
 32c:	00482603          	lw	x12,4(x16)
 330:	000e0513          	mv	x10,x28
 334:	00209a93          	slli	x21,x1,0x2
 338:	00261993          	slli	x19,x12,0x2
 33c:	00000913          	li	x18,0

00000340 <.L457>:
 340:	0002a087          	flw	f1,0(x5)
 344:	00190913          	addi	x18,x18,1 # 3f000001 <.L690+0x3efff7e5>
 348:	013282b3          	add	x5,x5,x19
 34c:	00152027          	fsw	f1,0(x10) # 0 <_Z19tensorlib_copy_implIffEiP11hb_tensor_tS1_>
 350:	01550533          	add	x10,x10,x21
 354:	fe7916e3          	bne	x18,x7,340 <.L457>

00000358 <.L458>:
 358:	00140413          	addi	x8,x8,1 # 3f000001 <.L690+0x3efff7e5>
 35c:	01430333          	add	x6,x6,x20
 360:	018e0e33          	add	x28,x28,x24
 364:	fa8c9ee3          	bne	x25,x8,320 <.L456>
 368:	e6dff06f          	j	1d4 <.L447>

0000036c <.L511>:
 36c:	00000b37          	lui	x22,0x0
 370:	00000bb7          	lui	x23,0x0
 374:	004b0c93          	addi	x25,x22,4 # 4 <_Z19tensorlib_copy_implIffEiP11hb_tensor_tS1_+0x4>
 378:	014b8393          	addi	x7,x23,20 # 14 <_Z19tensorlib_copy_implIffEiP11hb_tensor_tS1_+0x14>

0000037c <.L444>:
 37c:	000c8c13          	mv	x24,x25

00000380 <.L473>:
 380:	000c4a03          	lbu	x20,0(x24)
 384:	001c0c13          	addi	x24,x24,1
 388:	0ffa7a93          	andi	x21,x20,255
 38c:	fe0a88e3          	beqz	x21,37c <.L444>
 390:	ff8398e3          	bne	x7,x24,380 <.L473>
 394:	0006ae03          	lw	x28,0(x13)
 398:	231c05b7          	lui	x11,0x231c0
 39c:	00100f13          	li	x30,1
 3a0:	018e0993          	addi	x19,x28,24 # 8000018 <.L690+0x7fff7fc>
 3a4:	013607b3          	add	x15,x12,x19
 3a8:	00b7e333          	or	x6,x15,x11
 3ac:	01e30023          	sb	x30,0(x6)
 3b0:	00072083          	lw	x1,0(x14)
 3b4:	00700e93          	li	x29,7
 3b8:	ebd09ae3          	bne	x1,x29,26c <.L471>
 3bc:	0006a903          	lw	x18,0(x13)
 3c0:	00300f93          	li	x31,3
 3c4:	17f90463          	beq	x18,x31,52c <.L514>

000003c8 <.L479>:
 3c8:	00100e93          	li	x29,1
 3cc:	0100006f          	j	3dc <.L475>

000003d0 <.L515>:
 3d0:	01460813          	addi	x16,x12,20
 3d4:	140828af          	lr.w.aq	x17,(x16)
 3d8:	01d88863          	beq	x17,x29,3e8 <.L480>

000003dc <.L475>:
 3dc:	01460913          	addi	x18,x12,20
 3e0:	10092faf          	lr.w	x31,(x18)
 3e4:	ffdf96e3          	bne	x31,x29,3d0 <.L515>

000003e8 <.L480>:
 3e8:	00062a23          	sw	x0,20(x12)
 3ec:	00000413          	li	x8,0
 3f0:	01000293          	li	x5,16

000003f4 <.L481>:
 3f4:	008604b3          	add	x9,x12,x8
 3f8:	00048223          	sb	x0,4(x9)
 3fc:	00140413          	addi	x8,x8,1
 400:	fe541ae3          	bne	x8,x5,3f4 <.L481>
 404:	00062023          	sw	x0,0(x12)
 408:	00000e13          	li	x28,0
 40c:	20000b37          	lui	x22,0x20000
 410:	00100c93          	li	x25,1
 414:	00040bb7          	lui	x23,0x40
 418:	00400a37          	lui	x20,0x400

0000041c <.L482>:
 41c:	0006ac03          	lw	x24,0(x13)
 420:	01c66ab3          	or	x21,x12,x28
 424:	017e0e33          	add	x28,x28,x23
 428:	018c1993          	slli	x19,x24,0x18
 42c:	0159e333          	or	x6,x19,x21
 430:	016367b3          	or	x15,x6,x22
 434:	0197a023          	sw	x25,0(x15)
 438:	ff4e12e3          	bne	x28,x20,41c <.L482>
 43c:	e31ff06f          	j	26c <.L471>

00000440 <.L507>:
 440:	fff48b13          	addi	x22,x9,-1
 444:	ffd00c93          	li	x25,-3
 448:	d96ce6e3          	bltu	x25,x22,1d4 <.L447>
 44c:	00000bb7          	lui	x23,0x0
 450:	000ba383          	lw	x7,0(x23) # 0 <_Z19tensorlib_copy_implIffEiP11hb_tensor_tS1_>
 454:	0074da13          	srli	x20,x9,0x7
 458:	001a0c13          	addi	x24,x20,1 # 400001 <.L690+0x3ff7e5>
 45c:	07f3f593          	andi	x11,x7,127
 460:	038587b3          	mul	x15,x11,x24
 464:	00fc00b3          	add	x1,x24,x15
 468:	1614e063          	bltu	x9,x1,5c8 <.L516>

0000046c <.L446>:
 46c:	d617f4e3          	bgeu	x15,x1,1d4 <.L447>
 470:	0008aa83          	lw	x21,0(x17)
 474:	00082983          	lw	x19,0(x16)
 478:	40f08933          	sub	x18,x1,x15
 47c:	002a9813          	slli	x16,x21,0x2
 480:	00299893          	slli	x17,x19,0x2
 484:	02f80633          	mul	x12,x16,x15
 488:	00400293          	li	x5,4
 48c:	02f884b3          	mul	x9,x17,x15
 490:	00ce0633          	add	x12,x28,x12
 494:	00930333          	add	x6,x6,x9
 498:	0722fc63          	bgeu	x5,x18,510 <.L452>
 49c:	ffc08413          	addi	x8,x1,-4
 4a0:	0687f863          	bgeu	x15,x8,510 <.L452>
 4a4:	00399513          	slli	x10,x19,0x3
 4a8:	003a9b13          	slli	x22,x21,0x3
 4ac:	00499b93          	slli	x23,x19,0x4
 4b0:	00060e13          	mv	x28,x12
 4b4:	004a9c93          	slli	x25,x21,0x4
 4b8:	00a309b3          	add	x19,x6,x10
 4bc:	016605b3          	add	x11,x12,x22

000004c0 <.L451>:
 4c0:	00032607          	flw	f12,0(x6)
 4c4:	011303b3          	add	x7,x6,x17
 4c8:	0003a687          	flw	f13,0(x7)
 4cc:	0009a707          	flw	f14,0(x19)
 4d0:	01198a33          	add	x20,x19,x17
 4d4:	000a2107          	flw	f2,0(x20)
 4d8:	010e0c33          	add	x24,x28,x16
 4dc:	00ce2027          	fsw	f12,0(x28)
 4e0:	00dc2027          	fsw	f13,0(x24)
 4e4:	00e5a027          	fsw	f14,0(x11) # 231c0000 <.L690+0x231bf7e4>
 4e8:	01058ab3          	add	x21,x11,x16
 4ec:	019e0633          	add	x12,x28,x25
 4f0:	002aa027          	fsw	f2,0(x21)
 4f4:	00478793          	addi	x15,x15,4
 4f8:	00060e13          	mv	x28,x12
 4fc:	01730333          	add	x6,x6,x23
 500:	017989b3          	add	x19,x19,x23
 504:	019585b3          	add	x11,x11,x25
 508:	fa87ece3          	bltu	x15,x8,4c0 <.L451>
 50c:	cc17f4e3          	bgeu	x15,x1,1d4 <.L447>

00000510 <.L452>:
 510:	00032187          	flw	f3,0(x6)
 514:	00178793          	addi	x15,x15,1
 518:	01130333          	add	x6,x6,x17
 51c:	00362027          	fsw	f3,0(x12)
 520:	01060633          	add	x12,x12,x16
 524:	fe17e6e3          	bltu	x15,x1,510 <.L452>
 528:	cadff06f          	j	1d4 <.L447>

0000052c <.L514>:
 52c:	00000837          	lui	x16,0x0
 530:	000002b7          	lui	x5,0x0
 534:	01880893          	addi	x17,x16,24 # 18 <_Z19tensorlib_copy_implIffEiP11hb_tensor_tS1_+0x18>
 538:	02028493          	addi	x9,x5,32 # 20 <_Z19tensorlib_copy_implIffEiP11hb_tensor_tS1_+0x20>

0000053c <.L474>:
 53c:	00088b13          	mv	x22,x17

00000540 <.L476>:
 540:	000b4403          	lbu	x8,0(x22) # 20000000 <.L690+0x1ffff7e4>
 544:	001b0b13          	addi	x22,x22,1
 548:	0ff47c93          	andi	x25,x8,255
 54c:	fe0c88e3          	beqz	x25,53c <.L474>
 550:	ff6498e3          	bne	x9,x22,540 <.L476>
 554:	00060c23          	sb	x0,24(x12)
 558:	00060ca3          	sb	x0,25(x12)
 55c:	00060d23          	sb	x0,26(x12)
 560:	00060da3          	sb	x0,27(x12)
 564:	00060e23          	sb	x0,28(x12)
 568:	00060ea3          	sb	x0,29(x12)
 56c:	00060f23          	sb	x0,30(x12)
 570:	00060fa3          	sb	x0,31(x12)
 574:	00062a23          	sw	x0,20(x12)
 578:	00000593          	li	x11,0
 57c:	03fc0bb7          	lui	x23,0x3fc0
 580:	20000a37          	lui	x20,0x20000
 584:	00100c13          	li	x24,1
 588:	01000ab7          	lui	x21,0x1000
 58c:	08000e37          	lui	x28,0x8000
 590:	0080006f          	j	598 <.L478>

00000594 <.L517>:
 594:	00072083          	lw	x1,0(x14)

00000598 <.L478>:
 598:	01209993          	slli	x19,x1,0x12
 59c:	00b3e333          	or	x6,x7,x11
 5a0:	0179f7b3          	and	x15,x19,x23
 5a4:	0067ef33          	or	x30,x15,x6
 5a8:	014f60b3          	or	x1,x30,x20
 5ac:	0180a023          	sw	x24,0(x1)
 5b0:	015585b3          	add	x11,x11,x21
 5b4:	ffc590e3          	bne	x11,x28,594 <.L517>
 5b8:	00072703          	lw	x14,0(x14)
 5bc:	00700393          	li	x7,7
 5c0:	e07704e3          	beq	x14,x7,3c8 <.L479>
 5c4:	ca9ff06f          	j	26c <.L471>

000005c8 <.L516>:
 5c8:	00048093          	mv	x1,x9
 5cc:	ea1ff06f          	j	46c <.L446>

000005d0 <.L487>:
 5d0:	00030b13          	mv	x22,x6
 5d4:	bf1ff06f          	j	1c4 <.L468>

000005d8 <.L486>:
 5d8:	000e0613          	mv	x12,x28
 5dc:	ba9ff06f          	j	184 <.L466>

000005e0 <.L509>:
 5e0:	0043a283          	lw	x5,4(x7)
 5e4:	0003a083          	lw	x1,0(x7)
 5e8:	ffd00993          	li	x19,-3
 5ec:	02128ab3          	mul	x21,x5,x1
 5f0:	fffa8a13          	addi	x20,x21,-1 # ffffff <.L690+0xfff7e3>
 5f4:	bf49e0e3          	bltu	x19,x20,1d4 <.L447>
 5f8:	00000637          	lui	x12,0x0
 5fc:	00062c83          	lw	x25,0(x12) # 0 <_Z19tensorlib_copy_implIffEiP11hb_tensor_tS1_>
 600:	007ad513          	srli	x10,x21,0x7
 604:	00150b93          	addi	x23,x10,1
 608:	07fcf493          	andi	x9,x25,127
 60c:	03748533          	mul	x10,x9,x23
 610:	00ab8c33          	add	x24,x23,x10
 614:	0b8ae463          	bltu	x21,x24,6bc <.L518>

00000618 <.L460>:
 618:	bb857ee3          	bgeu	x10,x24,1d4 <.L447>
 61c:	00492403          	lw	x8,4(x18)
 620:	0048a083          	lw	x1,4(x17)
 624:	0008aa83          	lw	x21,0(x17)
 628:	00482983          	lw	x19,4(x16)
 62c:	00082903          	lw	x18,0(x16)
 630:	0083a383          	lw	x7,8(x7)

00000634 <.L462>:
 634:	025575b3          	remu	x11,x10,x5
 638:	02555a33          	divu	x20,x10,x5
 63c:	028577b3          	remu	x15,x10,x8
 640:	02855b33          	divu	x22,x10,x8
 644:	035a0633          	mul	x12,x20,x21
 648:	02158cb3          	mul	x25,x11,x1
 64c:	032b0a33          	mul	x20,x22,x18
 650:	00cc84b3          	add	x9,x25,x12
 654:	00249593          	slli	x11,x9,0x2
 658:	00be0633          	add	x12,x28,x11
 65c:	03378bb3          	mul	x23,x15,x19
 660:	014b87b3          	add	x15,x23,x20
 664:	00279b13          	slli	x22,x15,0x2
 668:	016307b3          	add	x15,x6,x22
 66c:	02038863          	beqz	x7,69c <.L464>
 670:	0088ac83          	lw	x25,8(x17)
 674:	00882483          	lw	x9,8(x16)
 678:	00000593          	li	x11,0
 67c:	002c9b93          	slli	x23,x25,0x2
 680:	00249a13          	slli	x20,x9,0x2

00000684 <.L463>:
 684:	0007a007          	flw	f0,0(x15)
 688:	00158593          	addi	x11,x11,1
 68c:	014787b3          	add	x15,x15,x20
 690:	00062027          	fsw	f0,0(x12)
 694:	01760633          	add	x12,x12,x23
 698:	fe7596e3          	bne	x11,x7,684 <.L463>

0000069c <.L464>:
 69c:	00150513          	addi	x10,x10,1
 6a0:	f8ac1ae3          	bne	x24,x10,634 <.L462>
 6a4:	b31ff06f          	j	1d4 <.L447>

000006a8 <.L510>:
 6a8:	00048093          	mv	x1,x9
 6ac:	a81ff06f          	j	12c <.L465>

000006b0 <.L513>:
 6b0:	00028c93          	mv	x25,x5
 6b4:	c59464e3          	bltu	x8,x25,2fc <.L519>
 6b8:	b1dff06f          	j	1d4 <.L447>

000006bc <.L518>:
 6bc:	000a8c13          	mv	x24,x21
 6c0:	f59ff06f          	j	618 <.L460>

Disassembly of section .text._ZN8HBTensorIdLln1EEC2EP11hb_tensor_t:

00000000 <_ZN8HBTensorIdLln1EEC1EP11hb_tensor_t>:
   0:	00058713          	mv	x14,x11
   4:	0045a683          	lw	x13,4(x11)
   8:	00072803          	lw	x16,0(x14)
   c:	0105a583          	lw	x11,16(x11)
  10:	00050793          	mv	x15,x10
  14:	02850613          	addi	x12,x10,40
  18:	01450513          	addi	x10,x10,20
  1c:	0107a023          	sw	x16,0(x15)
  20:	00d7a223          	sw	x13,4(x15)
  24:	00a7a423          	sw	x10,8(x15)
  28:	00c7a623          	sw	x12,12(x15)
  2c:	00b7a823          	sw	x11,16(x15)
  30:	00060613          	mv	x12,x12
  34:	00500293          	li	x5,5
  38:	04d2e463          	bltu	x5,x13,80 <.L533>
  3c:	00872303          	lw	x6,8(x14)
  40:	00c72383          	lw	x7,12(x14)
  44:	02068c63          	beqz	x13,7c <.L521>
  48:	00269893          	slli	x17,x13,0x2
  4c:	00078713          	mv	x14,x15
  50:	01178e33          	add	x28,x15,x17
  54:	40f30eb3          	sub	x29,x6,x15
  58:	40f38f33          	sub	x30,x7,x15

0000005c <.L525>:
  5c:	00ee8fb3          	add	x31,x29,x14
  60:	000fa683          	lw	x13,0(x31)
  64:	00ef05b3          	add	x11,x30,x14
  68:	00470713          	addi	x14,x14,4
  6c:	00d72823          	sw	x13,16(x14)
  70:	0005a803          	lw	x16,0(x11)
  74:	03072223          	sw	x16,36(x14)
  78:	ffc712e3          	bne	x14,x28,5c <.L525>

0000007c <.L521>:
  7c:	00008067          	ret

00000080 <.L533>:
  80:	ff010113          	addi	x2,x2,-16
  84:	000007b7          	lui	x15,0x0
  88:	00112623          	sw	x1,12(x2)
  8c:	000000b7          	lui	x1,0x0
  90:	0d800613          	li	x12,216
  94:	00008593          	mv	x11,x1
  98:	00078513          	mv	x10,x15
  9c:	00000097          	auipc	x1,0x0
  a0:	000080e7          	jalr	x1 # 9c <.L533+0x1c>
  a4:	00000637          	lui	x12,0x0
  a8:	00060513          	mv	x10,x12
  ac:	00000097          	auipc	x1,0x0
  b0:	000080e7          	jalr	x1 # ac <.L533+0x2c>
  b4:	00000537          	lui	x10,0x0
  b8:	00052283          	lw	x5,0(x10) # 0 <_ZN8HBTensorIdLln1EEC1EP11hb_tensor_t>
  bc:	00000337          	lui	x6,0x0
  c0:	00032383          	lw	x7,0(x6) # 0 <_ZN8HBTensorIdLln1EEC1EP11hb_tensor_t>
  c4:	01029893          	slli	x17,x5,0x10
  c8:	4100feb7          	lui	x29,0x4100f
  cc:	00788e33          	add	x28,x17,x7
  d0:	adceac23          	sw	x28,-1320(x29) # 4100ead8 <.L690+0x4100e2bc>

000000d4 <.L523>:
  d4:	0000006f          	j	d4 <.L523>

Disassembly of section .text._Z19tensorlib_copy_implIfdEiP11hb_tensor_tS1_:

00000000 <_Z19tensorlib_copy_implIfdEiP11hb_tensor_tS1_>:
   0:	f0010113          	addi	x2,x2,-256
   4:	00050793          	mv	x15,x10
   8:	0e812c23          	sw	x8,248(x2)
   c:	03810513          	addi	x10,x2,56
  10:	00058413          	mv	x8,x11
  14:	00078593          	mv	x11,x15
  18:	0e112e23          	sw	x1,252(x2)
  1c:	0e912a23          	sw	x9,244(x2)
  20:	0f212823          	sw	x18,240(x2)
  24:	0f312623          	sw	x19,236(x2)
  28:	0f412423          	sw	x20,232(x2)
  2c:	0f512223          	sw	x21,228(x2)
  30:	0f612023          	sw	x22,224(x2)
  34:	0d712e23          	sw	x23,220(x2)
  38:	0d812c23          	sw	x24,216(x2)
  3c:	0d912a23          	sw	x25,212(x2)
  40:	0da12823          	sw	x26,208(x2)
  44:	0db12623          	sw	x27,204(x2)
  48:	0a812e27          	fsw	f8,188(x2)
  4c:	0a912c27          	fsw	f9,184(x2)
  50:	00000097          	auipc	x1,0x0
  54:	000080e7          	jalr	x1 # 50 <_Z19tensorlib_copy_implIfdEiP11hb_tensor_tS1_+0x50>
  58:	00040593          	mv	x11,x8
  5c:	07410513          	addi	x10,x2,116
  60:	00000097          	auipc	x1,0x0
  64:	000080e7          	jalr	x1 # 60 <_Z19tensorlib_copy_implIfdEiP11hb_tensor_tS1_+0x60>
  68:	00000b37          	lui	x22,0x0
  6c:	000004b7          	lui	x9,0x0
  70:	00000437          	lui	x8,0x0
  74:	00000737          	lui	x14,0x0
  78:	000b2283          	lw	x5,0(x22) # 0 <_Z19tensorlib_copy_implIfdEiP11hb_tensor_tS1_>
  7c:	0004a583          	lw	x11,0(x9) # 0 <_Z19tensorlib_copy_implIfdEiP11hb_tensor_tS1_>
  80:	00072303          	lw	x6,0(x14) # 0 <_Z19tensorlib_copy_implIfdEiP11hb_tensor_tS1_>
  84:	00042603          	lw	x12,0(x8) # 0 <_Z19tensorlib_copy_implIfdEiP11hb_tensor_tS1_>
  88:	000006b7          	lui	x13,0x0
  8c:	0006a383          	lw	x7,0(x13) # 0 <_Z19tensorlib_copy_implIfdEiP11hb_tensor_tS1_>
  90:	00b28533          	add	x10,x5,x11
  94:	00c30833          	add	x16,x6,x12
  98:	01281913          	slli	x18,x16,0x12
  9c:	3f0009b7          	lui	x19,0x3f000
  a0:	00fc0ab7          	lui	x21,0xfc0
  a4:	01851893          	slli	x17,x10,0x18
  a8:	00040d37          	lui	x26,0x40
  ac:	0138fa33          	and	x20,x17,x19
  b0:	01597bb3          	and	x23,x18,x21
  b4:	ff0d0d93          	addi	x27,x26,-16 # 3fff0 <.L690+0x3f7d4>
  b8:	00439c13          	slli	x24,x7,0x4
  bc:	017a6cb3          	or	x25,x20,x23
  c0:	01bc7e33          	and	x28,x24,x27
  c4:	01cceeb3          	or	x29,x25,x28
  c8:	03c12d83          	lw	x27,60(x2)
  cc:	80000f37          	lui	x30,0x80000
  d0:	01eeefb3          	or	x31,x29,x30
  d4:	410017b7          	lui	x15,0x41001
  d8:	d1f7a623          	sw	x31,-756(x15) # 41000d0c <.L690+0x410004f0>
  dc:	00100293          	li	x5,1
  e0:	03812583          	lw	x11,56(x2)
  e4:	04012a83          	lw	x21,64(x2)
  e8:	04812983          	lw	x19,72(x2)
  ec:	07c12a03          	lw	x20,124(x2)
  f0:	08412903          	lw	x18,132(x2)
  f4:	3c5d8e63          	beq	x27,x5,4d0 <.L600>
  f8:	00200093          	li	x1,2
  fc:	04412303          	lw	x6,68(x2)
 100:	201d8e63          	beq	x27,x1,31c <.L601>
 104:	00300713          	li	x14,3
 108:	08012c03          	lw	x24,128(x2)
 10c:	5ced8463          	beq	x27,x14,6d4 <.L602>
 110:	fff58613          	addi	x12,x11,-1
 114:	ffd00693          	li	x13,-3
 118:	0ec6ec63          	bltu	x13,x12,210 <.L540>
 11c:	000003b7          	lui	x7,0x0
 120:	0003a503          	lw	x10,0(x7) # 0 <_Z19tensorlib_copy_implIfdEiP11hb_tensor_tS1_>
 124:	0075d813          	srli	x16,x11,0x7
 128:	00180893          	addi	x17,x16,1
 12c:	07f57b93          	andi	x23,x10,127
 130:	031b8cb3          	mul	x25,x23,x17
 134:	01988bb3          	add	x23,x17,x25
 138:	6d75e063          	bltu	x11,x23,7f8 <.L603>

0000013c <.L558>:
 13c:	0d7cfa63          	bgeu	x25,x23,210 <.L540>
 140:	07812e03          	lw	x28,120(x2)
 144:	002d9d13          	slli	x26,x27,0x2
 148:	01a30eb3          	add	x29,x6,x26
 14c:	002e1f13          	slli	x30,x28,0x2
 150:	01ec0fb3          	add	x31,x24,x30
 154:	01c12823          	sw	x28,16(x2)
 158:	01d12623          	sw	x29,12(x2)
 15c:	01f12a23          	sw	x31,20(x2)

00000160 <.L563>:
 160:	560d8663          	beqz	x27,6cc <.L579>
 164:	000a8393          	mv	x7,x21
 168:	00030713          	mv	x14,x6
 16c:	000c8593          	mv	x11,x25
 170:	00000793          	li	x15,0

00000174 <.L560>:
 174:	00072283          	lw	x5,0(x14)
 178:	0003a083          	lw	x1,0(x7)
 17c:	00c12503          	lw	x10,12(x2)
 180:	0255f633          	remu	x12,x11,x5
 184:	00470713          	addi	x14,x14,4
 188:	00438393          	addi	x7,x7,4
 18c:	021606b3          	mul	x13,x12,x1
 190:	0255d5b3          	divu	x11,x11,x5
 194:	00d787b3          	add	x15,x15,x13
 198:	fce51ee3          	bne	x10,x14,174 <.L560>
 19c:	00379813          	slli	x16,x15,0x3
 1a0:	01098d33          	add	x26,x19,x16

000001a4 <.L559>:
 1a4:	01012883          	lw	x17,16(x2)
 1a8:	50088e63          	beqz	x17,6c4 <.L580>
 1ac:	000a0093          	mv	x1,x20
 1b0:	000c0293          	mv	x5,x24
 1b4:	000c8613          	mv	x12,x25
 1b8:	00000393          	li	x7,0

000001bc <.L562>:
 1bc:	0002af03          	lw	x30,0(x5)
 1c0:	0000af83          	lw	x31,0(x1)
 1c4:	01412683          	lw	x13,20(x2)
 1c8:	00428293          	addi	x5,x5,4
 1cc:	00408093          	addi	x1,x1,4
 1d0:	03e67eb3          	remu	x29,x12,x30
 1d4:	03fe8733          	mul	x14,x29,x31
 1d8:	03e65633          	divu	x12,x12,x30
 1dc:	00e383b3          	add	x7,x7,x14
 1e0:	fc569ee3          	bne	x13,x5,1bc <.L562>
 1e4:	00239593          	slli	x11,x7,0x2
 1e8:	00b90e33          	add	x28,x18,x11

000001ec <.L561>:
 1ec:	000e2507          	flw	f10,0(x28) # 8000000 <.L690+0x7fff7e4>
 1f0:	00612423          	sw	x6,8(x2)
 1f4:	001c8c93          	addi	x25,x25,1
 1f8:	00000097          	auipc	x1,0x0
 1fc:	000080e7          	jalr	x1 # 1f8 <.L561+0xc>
 200:	00ad2023          	sw	x10,0(x26)
 204:	00bd2223          	sw	x11,4(x26)
 208:	00812303          	lw	x6,8(x2)
 20c:	f59b9ae3          	bne	x23,x25,160 <.L563>

00000210 <.L540>:
 210:	00000637          	lui	x12,0x0
 214:	00062383          	lw	x7,0(x12) # 0 <_Z19tensorlib_copy_implIfdEiP11hb_tensor_tS1_>
 218:	000b2b03          	lw	x22,0(x22)
 21c:	0004a083          	lw	x1,0(x9)
 220:	00042c03          	lw	x24,0(x8)
 224:	000006b7          	lui	x13,0x0
 228:	0006a503          	lw	x10,0(x13) # 0 <_Z19tensorlib_copy_implIfdEiP11hb_tensor_tS1_>
 22c:	001b07b3          	add	x15,x22,x1
 230:	01838cb3          	add	x25,x7,x24
 234:	01879d13          	slli	x26,x15,0x18
 238:	012c9593          	slli	x11,x25,0x12
 23c:	3f000837          	lui	x16,0x3f000
 240:	00fc08b7          	lui	x17,0xfc0
 244:	000402b7          	lui	x5,0x40
 248:	010d7333          	and	x6,x26,x16
 24c:	00451f13          	slli	x30,x10,0x4
 250:	0115fe33          	and	x28,x11,x17
 254:	ff028a93          	addi	x21,x5,-16 # 3fff0 <.L690+0x3f7d4>
 258:	01c36fb3          	or	x31,x6,x28
 25c:	015f7eb3          	and	x29,x30,x21
 260:	01dfedb3          	or	x27,x31,x29
 264:	c0000a37          	lui	x20,0xc0000
 268:	41001737          	lui	x14,0x41001
 26c:	014debb3          	or	x23,x27,x20
 270:	d1772623          	sw	x23,-756(x14) # 41000d0c <.L690+0x410004f0>
 274:	00042903          	lw	x18,0(x8)
 278:	0004a983          	lw	x19,0(x9)
 27c:	00000637          	lui	x12,0x0
 280:	00490b13          	addi	x22,x18,4
 284:	00060713          	mv	x14,x12
 288:	016700b3          	add	x1,x14,x22
 28c:	01899393          	slli	x7,x19,0x18
 290:	0070ec33          	or	x24,x1,x7
 294:	201c06b7          	lui	x13,0x201c0
 298:	00dc6533          	or	x10,x24,x13
 29c:	00100793          	li	x15,1
 2a0:	00f50023          	sb	x15,0(x10)
 2a4:	00042c83          	lw	x25,0(x8)
 2a8:	00700d13          	li	x26,7
 2ac:	15ac8863          	beq	x25,x26,3fc <.L604>

000002b0 <.L564>:
 2b0:	00100493          	li	x9,1
 2b4:	0100006f          	j	2c4 <.L577>

000002b8 <.L605>:
 2b8:	00060e93          	mv	x29,x12
 2bc:	140eadaf          	lr.w.aq	x27,(x29)
 2c0:	009d8863          	beq	x27,x9,2d0 <.L576>

000002c4 <.L577>:
 2c4:	00060593          	mv	x11,x12
 2c8:	1005aaaf          	lr.w	x21,(x11)
 2cc:	fe9a96e3          	bne	x21,x9,2b8 <.L605>

000002d0 <.L576>:
 2d0:	0fc12083          	lw	x1,252(x2)
 2d4:	0f812403          	lw	x8,248(x2)
 2d8:	00072023          	sw	x0,0(x14)
 2dc:	0f412483          	lw	x9,244(x2)
 2e0:	0f012903          	lw	x18,240(x2)
 2e4:	0ec12983          	lw	x19,236(x2)
 2e8:	0e812a03          	lw	x20,232(x2)
 2ec:	0e412a83          	lw	x21,228(x2)
 2f0:	0e012b03          	lw	x22,224(x2)
 2f4:	0dc12b83          	lw	x23,220(x2)
 2f8:	0d812c03          	lw	x24,216(x2)
 2fc:	0d412c83          	lw	x25,212(x2)
 300:	0d012d03          	lw	x26,208(x2)
 304:	0cc12d83          	lw	x27,204(x2)
 308:	0bc12407          	flw	f8,188(x2)
 30c:	0b812487          	flw	f9,184(x2)
 310:	00000513          	li	x10,0
 314:	10010113          	addi	x2,x2,256
 318:	00008067          	ret

0000031c <.L601>:
 31c:	00032d83          	lw	x27,0(x6)
 320:	ffd00c93          	li	x25,-3
 324:	fffd8c13          	addi	x24,x27,-1
 328:	ef8ce4e3          	bltu	x25,x24,210 <.L540>
 32c:	00000e37          	lui	x28,0x0
 330:	000e2f03          	lw	x30,0(x28) # 0 <_Z19tensorlib_copy_implIfdEiP11hb_tensor_tS1_>
 334:	007ddf93          	srli	x31,x27,0x7
 338:	001f8293          	addi	x5,x31,1
 33c:	07ff7e93          	andi	x29,x30,127
 340:	025e8bb3          	mul	x23,x29,x5
 344:	017280b3          	add	x1,x5,x23
 348:	00112823          	sw	x1,16(x2)
 34c:	4a1dea63          	bltu	x27,x1,800 <.L606>

00000350 <.L547>:
 350:	01012703          	lw	x14,16(x2)
 354:	eaebfee3          	bgeu	x23,x14,210 <.L540>
 358:	000a2603          	lw	x12,0(x20) # c0000000 <.L690+0xbffff7e4>
 35c:	000aa383          	lw	x7,0(x21) # fc0000 <.L690+0xfbf7e4>
 360:	00432e03          	lw	x28,4(x6)
 364:	00261693          	slli	x13,x12,0x2
 368:	00339593          	slli	x11,x7,0x3
 36c:	02db87b3          	mul	x15,x23,x13
 370:	00d12c23          	sw	x13,24(x2)
 374:	00b12a23          	sw	x11,20(x2)
 378:	02bb8533          	mul	x10,x23,x11
 37c:	00f90cb3          	add	x25,x18,x15
 380:	00a98c33          	add	x24,x19,x10

00000384 <.L549>:
 384:	000c8893          	mv	x17,x25
 388:	040e0a63          	beqz	x28,3dc <.L551>
 38c:	004aa903          	lw	x18,4(x21)
 390:	004a2803          	lw	x16,4(x20)
 394:	000c0993          	mv	x19,x24
 398:	00391913          	slli	x18,x18,0x3
 39c:	00281d93          	slli	x27,x16,0x2
 3a0:	00000d13          	li	x26,0

000003a4 <.L550>:
 3a4:	0008a507          	flw	f10,0(x17) # fc0000 <.L690+0xfbf7e4>
 3a8:	01b88333          	add	x6,x17,x27
 3ac:	01c12623          	sw	x28,12(x2)
 3b0:	00612423          	sw	x6,8(x2)
 3b4:	00612e23          	sw	x6,28(x2)
 3b8:	00000097          	auipc	x1,0x0
 3bc:	000080e7          	jalr	x1 # 3b8 <.L550+0x14>
 3c0:	00c12e03          	lw	x28,12(x2)
 3c4:	00a9a023          	sw	x10,0(x19) # 3f000000 <.L690+0x3efff7e4>
 3c8:	00b9a223          	sw	x11,4(x19)
 3cc:	001d0d13          	addi	x26,x26,1
 3d0:	00812883          	lw	x17,8(x2)
 3d4:	012989b3          	add	x19,x19,x18
 3d8:	fdcd16e3          	bne	x26,x28,3a4 <.L550>

000003dc <.L551>:
 3dc:	01812f03          	lw	x30,24(x2)
 3e0:	01412f83          	lw	x31,20(x2)
 3e4:	01012283          	lw	x5,16(x2)
 3e8:	001b8b93          	addi	x23,x23,1 # 3fc0001 <.L690+0x3fbf7e5>
 3ec:	01ec8cb3          	add	x25,x25,x30
 3f0:	01fc0c33          	add	x24,x24,x31
 3f4:	f97298e3          	bne	x5,x23,384 <.L549>
 3f8:	e19ff06f          	j	210 <.L540>

000003fc <.L604>:
 3fc:	000005b7          	lui	x11,0x0
 400:	00000337          	lui	x6,0x0
 404:	00458813          	addi	x16,x11,4 # 4 <_Z19tensorlib_copy_implIfdEiP11hb_tensor_tS1_+0x4>
 408:	01430f13          	addi	x30,x6,20 # 14 <_Z19tensorlib_copy_implIfdEiP11hb_tensor_tS1_+0x14>

0000040c <.L537>:
 40c:	00080e13          	mv	x28,x16

00000410 <.L566>:
 410:	000e4883          	lbu	x17,0(x28)
 414:	001e0e13          	addi	x28,x28,1
 418:	0ff8ff93          	andi	x31,x17,255
 41c:	fe0f88e3          	beqz	x31,40c <.L537>
 420:	ffcf18e3          	bne	x30,x28,410 <.L566>
 424:	0004a283          	lw	x5,0(x9)
 428:	231c0db7          	lui	x27,0x231c0
 42c:	00100b93          	li	x23,1
 430:	01828a93          	addi	x21,x5,24
 434:	01570eb3          	add	x29,x14,x21
 438:	01beea33          	or	x20,x29,x27
 43c:	017a0023          	sb	x23,0(x20)
 440:	00042903          	lw	x18,0(x8)
 444:	00700993          	li	x19,7
 448:	e73914e3          	bne	x18,x19,2b0 <.L564>
 44c:	0004ab03          	lw	x22,0(x9)
 450:	00300093          	li	x1,3
 454:	1c1b0663          	beq	x22,x1,620 <.L607>

00000458 <.L572>:
 458:	00100b93          	li	x23,1
 45c:	0100006f          	j	46c <.L568>

00000460 <.L608>:
 460:	01470b13          	addi	x22,x14,20
 464:	140b20af          	lr.w.aq	x1,(x22)
 468:	01708863          	beq	x1,x23,478 <.L573>

0000046c <.L568>:
 46c:	01470913          	addi	x18,x14,20
 470:	100929af          	lr.w	x19,(x18)
 474:	ff7996e3          	bne	x19,x23,460 <.L608>

00000478 <.L573>:
 478:	00072a23          	sw	x0,20(x14)
 47c:	00000693          	li	x13,0
 480:	01000393          	li	x7,16

00000484 <.L574>:
 484:	00d70c33          	add	x24,x14,x13
 488:	000c0223          	sb	x0,4(x24)
 48c:	00168693          	addi	x13,x13,1 # 201c0001 <.L690+0x201bf7e5>
 490:	fe769ae3          	bne	x13,x7,484 <.L574>
 494:	00072023          	sw	x0,0(x14)
 498:	00000313          	li	x6,0
 49c:	20000cb7          	lui	x25,0x20000
 4a0:	00100d13          	li	x26,1
 4a4:	00040fb7          	lui	x31,0x40
 4a8:	00400537          	lui	x10,0x400

000004ac <.L575>:
 4ac:	0004a783          	lw	x15,0(x9)
 4b0:	00676e33          	or	x28,x14,x6
 4b4:	01f30333          	add	x6,x6,x31
 4b8:	01879893          	slli	x17,x15,0x18
 4bc:	01c8e833          	or	x16,x17,x28
 4c0:	019862b3          	or	x5,x16,x25
 4c4:	01a2a023          	sw	x26,0(x5)
 4c8:	fea312e3          	bne	x6,x10,4ac <.L575>
 4cc:	de5ff06f          	j	2b0 <.L564>

000004d0 <.L600>:
 4d0:	fff58e93          	addi	x29,x11,-1
 4d4:	ffd00093          	li	x1,-3
 4d8:	d3d0ece3          	bltu	x1,x29,210 <.L540>
 4dc:	00000737          	lui	x14,0x0
 4e0:	00072603          	lw	x12,0(x14) # 0 <_Z19tensorlib_copy_implIfdEiP11hb_tensor_tS1_>
 4e4:	0075d393          	srli	x7,x11,0x7
 4e8:	00138693          	addi	x13,x7,1
 4ec:	07f67793          	andi	x15,x12,127
 4f0:	02d78bb3          	mul	x23,x15,x13
 4f4:	01768c33          	add	x24,x13,x23
 4f8:	1d85e263          	bltu	x11,x24,6bc <.L609>

000004fc <.L539>:
 4fc:	d18bfae3          	bgeu	x23,x24,210 <.L540>
 500:	000aa503          	lw	x10,0(x21)
 504:	000a2a03          	lw	x20,0(x20)
 508:	417c0ab3          	sub	x21,x24,x23
 50c:	00351c93          	slli	x25,x10,0x3
 510:	002a1d13          	slli	x26,x20,0x2
 514:	037c85b3          	mul	x11,x25,x23
 518:	00400813          	li	x16,4
 51c:	037d0db3          	mul	x27,x26,x23
 520:	00b989b3          	add	x19,x19,x11
 524:	01b90933          	add	x18,x18,x27
 528:	0d587863          	bgeu	x16,x21,5f8 <.L545>
 52c:	ffcc0313          	addi	x6,x24,-4
 530:	00612823          	sw	x6,16(x2)
 534:	0c6bf263          	bgeu	x23,x6,5f8 <.L545>
 538:	00098a93          	mv	x21,x19
 53c:	00451893          	slli	x17,x10,0x4
 540:	003a1993          	slli	x19,x20,0x3
 544:	004a1e93          	slli	x29,x20,0x4
 548:	00551293          	slli	x5,x10,0x5
 54c:	01390db3          	add	x27,x18,x19
 550:	011a8a33          	add	x20,x21,x17

00000554 <.L544>:
 554:	00092507          	flw	f10,0(x18)
 558:	01a90e33          	add	x28,x18,x26
 55c:	000e2487          	flw	f9,0(x28)
 560:	01ad8f33          	add	x30,x27,x26
 564:	000f2407          	flw	f8,0(x30) # 80000000 <.L690+0x7ffff7e4>
 568:	00512623          	sw	x5,12(x2)
 56c:	01d12423          	sw	x29,8(x2)
 570:	00000097          	auipc	x1,0x0
 574:	000080e7          	jalr	x1 # 570 <.L544+0x1c>
 578:	20948553          	fmv.s	f10,f9
 57c:	000da487          	flw	f9,0(x27) # 231c0000 <.L690+0x231bf7e4>
 580:	00aaa023          	sw	x10,0(x21)
 584:	00baa223          	sw	x11,4(x21)
 588:	00000097          	auipc	x1,0x0
 58c:	000080e7          	jalr	x1 # 588 <.L544+0x34>
 590:	20948553          	fmv.s	f10,f9
 594:	019a8fb3          	add	x31,x21,x25
 598:	00afa023          	sw	x10,0(x31) # 40000 <.L690+0x3f7e4>
 59c:	00bfa223          	sw	x11,4(x31)
 5a0:	00000097          	auipc	x1,0x0
 5a4:	000080e7          	jalr	x1 # 5a0 <.L544+0x4c>
 5a8:	20840553          	fmv.s	f10,f8
 5ac:	00aa2023          	sw	x10,0(x20)
 5b0:	00ba2223          	sw	x11,4(x20)
 5b4:	00000097          	auipc	x1,0x0
 5b8:	000080e7          	jalr	x1 # 5b4 <.L544+0x60>
 5bc:	00c12283          	lw	x5,12(x2)
 5c0:	00812e83          	lw	x29,8(x2)
 5c4:	01012703          	lw	x14,16(x2)
 5c8:	000a8993          	mv	x19,x21
 5cc:	019a0ab3          	add	x21,x20,x25
 5d0:	005989b3          	add	x19,x19,x5
 5d4:	00aaa023          	sw	x10,0(x21)
 5d8:	00baa223          	sw	x11,4(x21)
 5dc:	004b8b93          	addi	x23,x23,4
 5e0:	00098a93          	mv	x21,x19
 5e4:	01d90933          	add	x18,x18,x29
 5e8:	01dd8db3          	add	x27,x27,x29
 5ec:	005a0a33          	add	x20,x20,x5
 5f0:	f6ebe2e3          	bltu	x23,x14,554 <.L544>
 5f4:	c18bfee3          	bgeu	x23,x24,210 <.L540>

000005f8 <.L545>:
 5f8:	00092507          	flw	f10,0(x18)
 5fc:	001b8b93          	addi	x23,x23,1
 600:	01a90933          	add	x18,x18,x26
 604:	00000097          	auipc	x1,0x0
 608:	000080e7          	jalr	x1 # 604 <.L545+0xc>
 60c:	00a9a023          	sw	x10,0(x19)
 610:	00b9a223          	sw	x11,4(x19)
 614:	019989b3          	add	x19,x19,x25
 618:	ff8be0e3          	bltu	x23,x24,5f8 <.L545>
 61c:	bf5ff06f          	j	210 <.L540>

00000620 <.L607>:
 620:	000003b7          	lui	x7,0x0
 624:	000006b7          	lui	x13,0x0
 628:	01838c13          	addi	x24,x7,24 # 18 <_Z19tensorlib_copy_implIfdEiP11hb_tensor_tS1_+0x18>
 62c:	02068513          	addi	x10,x13,32 # 20 <_Z19tensorlib_copy_implIfdEiP11hb_tensor_tS1_+0x20>

00000630 <.L567>:
 630:	000c0c93          	mv	x25,x24

00000634 <.L569>:
 634:	000cc783          	lbu	x15,0(x25) # 20000000 <.L690+0x1ffff7e4>
 638:	001c8c93          	addi	x25,x25,1
 63c:	0ff7fd13          	andi	x26,x15,255
 640:	fe0d08e3          	beqz	x26,630 <.L567>
 644:	ff9518e3          	bne	x10,x25,634 <.L569>
 648:	00070c23          	sb	x0,24(x14)
 64c:	00070ca3          	sb	x0,25(x14)
 650:	00070d23          	sb	x0,26(x14)
 654:	00070da3          	sb	x0,27(x14)
 658:	00070e23          	sb	x0,28(x14)
 65c:	00070ea3          	sb	x0,29(x14)
 660:	00070f23          	sb	x0,30(x14)
 664:	00070fa3          	sb	x0,31(x14)
 668:	00072a23          	sw	x0,20(x14)
 66c:	00000a13          	li	x20,0
 670:	03fc0fb7          	lui	x31,0x3fc0
 674:	20000e37          	lui	x28,0x20000
 678:	00100313          	li	x6,1
 67c:	010008b7          	lui	x17,0x1000
 680:	08000837          	lui	x16,0x8000
 684:	0080006f          	j	68c <.L571>

00000688 <.L610>:
 688:	00042903          	lw	x18,0(x8)

0000068c <.L571>:
 68c:	01291293          	slli	x5,x18,0x12
 690:	014f65b3          	or	x11,x30,x20
 694:	01f2fab3          	and	x21,x5,x31
 698:	00baeeb3          	or	x29,x21,x11
 69c:	01ceedb3          	or	x27,x29,x28
 6a0:	006da023          	sw	x6,0(x27)
 6a4:	011a0a33          	add	x20,x20,x17
 6a8:	ff0a10e3          	bne	x20,x16,688 <.L610>
 6ac:	00042403          	lw	x8,0(x8)
 6b0:	00700f13          	li	x30,7
 6b4:	dbe402e3          	beq	x8,x30,458 <.L572>
 6b8:	bf9ff06f          	j	2b0 <.L564>

000006bc <.L609>:
 6bc:	00058c13          	mv	x24,x11
 6c0:	e3dff06f          	j	4fc <.L539>

000006c4 <.L580>:
 6c4:	00090e13          	mv	x28,x18
 6c8:	b25ff06f          	j	1ec <.L561>

000006cc <.L579>:
 6cc:	00098d13          	mv	x26,x19
 6d0:	ad5ff06f          	j	1a4 <.L559>

000006d4 <.L602>:
 6d4:	00432d83          	lw	x27,4(x6)
 6d8:	00032b83          	lw	x23,0(x6)
 6dc:	ffd00d13          	li	x26,-3
 6e0:	037d87b3          	mul	x15,x27,x23
 6e4:	fff78513          	addi	x10,x15,-1
 6e8:	b2ad64e3          	bltu	x26,x10,210 <.L540>
 6ec:	00000837          	lui	x16,0x0
 6f0:	00082883          	lw	x17,0(x16) # 0 <_Z19tensorlib_copy_implIfdEiP11hb_tensor_tS1_>
 6f4:	0077de13          	srli	x28,x15,0x7
 6f8:	001e0f13          	addi	x30,x28,1 # 20000001 <.L690+0x1ffff7e5>
 6fc:	07f8ff93          	andi	x31,x17,127
 700:	03ef8d33          	mul	x26,x31,x30
 704:	01af02b3          	add	x5,x30,x26
 708:	00512c23          	sw	x5,24(x2)
 70c:	0e57ee63          	bltu	x15,x5,808 <.L611>

00000710 <.L553>:
 710:	01812e83          	lw	x29,24(x2)
 714:	afdd7ee3          	bgeu	x26,x29,210 <.L540>
 718:	004c2c83          	lw	x25,4(x24)
 71c:	004a2c03          	lw	x24,4(x20)
 720:	004aa083          	lw	x1,4(x21)
 724:	000aa703          	lw	x14,0(x21)
 728:	000a2603          	lw	x12,0(x20)
 72c:	03812223          	sw	x24,36(x2)
 730:	00832c03          	lw	x24,8(x6)
 734:	00112e23          	sw	x1,28(x2)
 738:	02e12023          	sw	x14,32(x2)
 73c:	02c12423          	sw	x12,40(x2)

00000740 <.L555>:
 740:	03bd73b3          	remu	x7,x26,x27
 744:	02012503          	lw	x10,32(x2)
 748:	01c12683          	lw	x13,28(x2)
 74c:	02412883          	lw	x17,36(x2)
 750:	02812283          	lw	x5,40(x2)
 754:	03bd5333          	divu	x6,x26,x27
 758:	039d7bb3          	remu	x23,x26,x25
 75c:	039d55b3          	divu	x11,x26,x25
 760:	02d387b3          	mul	x15,x7,x13
 764:	02a30833          	mul	x16,x6,x10
 768:	031b8e33          	mul	x28,x23,x17
 76c:	01078f33          	add	x30,x15,x16
 770:	003f1f93          	slli	x31,x30,0x3
 774:	01f987b3          	add	x15,x19,x31
 778:	02558eb3          	mul	x29,x11,x5
 77c:	01de00b3          	add	x1,x28,x29
 780:	00209713          	slli	x14,x1,0x2
 784:	00e90533          	add	x10,x18,x14
 788:	060c0063          	beqz	x24,7e8 <.L557>
 78c:	008aa603          	lw	x12,8(x21)
 790:	008a2383          	lw	x7,8(x20)
 794:	00000b93          	li	x23,0
 798:	00361593          	slli	x11,x12,0x3
 79c:	00239813          	slli	x16,x7,0x2

000007a0 <.L556>:
 7a0:	00052507          	flw	f10,0(x10) # 400000 <.L690+0x3ff7e4>
 7a4:	01050333          	add	x6,x10,x16
 7a8:	00f12823          	sw	x15,16(x2)
 7ac:	01012623          	sw	x16,12(x2)
 7b0:	00b12a23          	sw	x11,20(x2)
 7b4:	00612423          	sw	x6,8(x2)
 7b8:	02612623          	sw	x6,44(x2)
 7bc:	00000097          	auipc	x1,0x0
 7c0:	000080e7          	jalr	x1 # 7bc <.L556+0x1c>
 7c4:	01012683          	lw	x13,16(x2)
 7c8:	001b8b93          	addi	x23,x23,1
 7cc:	00c12803          	lw	x16,12(x2)
 7d0:	00b6a223          	sw	x11,4(x13)
 7d4:	01412583          	lw	x11,20(x2)
 7d8:	00a6a023          	sw	x10,0(x13)
 7dc:	00812503          	lw	x10,8(x2)
 7e0:	00b687b3          	add	x15,x13,x11
 7e4:	fb8b9ee3          	bne	x23,x24,7a0 <.L556>

000007e8 <.L557>:
 7e8:	01812883          	lw	x17,24(x2)
 7ec:	001d0d13          	addi	x26,x26,1
 7f0:	f5a898e3          	bne	x17,x26,740 <.L555>
 7f4:	a1dff06f          	j	210 <.L540>

000007f8 <.L603>:
 7f8:	00058b93          	mv	x23,x11
 7fc:	941ff06f          	j	13c <.L558>

00000800 <.L606>:
 800:	01b12823          	sw	x27,16(x2)
 804:	b4dff06f          	j	350 <.L547>

00000808 <.L611>:
 808:	00f12c23          	sw	x15,24(x2)
 80c:	f05ff06f          	j	710 <.L553>

Disassembly of section .text._Z19tensorlib_copy_implIdfEiP11hb_tensor_tS1_:

00000000 <_Z19tensorlib_copy_implIdfEiP11hb_tensor_tS1_>:
   0:	f0010113          	addi	x2,x2,-256
   4:	00050793          	mv	x15,x10
   8:	0e812c23          	sw	x8,248(x2)
   c:	04810513          	addi	x10,x2,72
  10:	00058413          	mv	x8,x11
  14:	00078593          	mv	x11,x15
  18:	0e112e23          	sw	x1,252(x2)
  1c:	0e912a23          	sw	x9,244(x2)
  20:	0f212823          	sw	x18,240(x2)
  24:	0f312623          	sw	x19,236(x2)
  28:	0f412423          	sw	x20,232(x2)
  2c:	0f512223          	sw	x21,228(x2)
  30:	0f612023          	sw	x22,224(x2)
  34:	0d712e23          	sw	x23,220(x2)
  38:	0d812c23          	sw	x24,216(x2)
  3c:	0d912a23          	sw	x25,212(x2)
  40:	0da12823          	sw	x26,208(x2)
  44:	0db12623          	sw	x27,204(x2)
  48:	00000097          	auipc	x1,0x0
  4c:	000080e7          	jalr	x1 # 48 <_Z19tensorlib_copy_implIdfEiP11hb_tensor_tS1_+0x48>
  50:	00040593          	mv	x11,x8
  54:	08410513          	addi	x10,x2,132
  58:	00000097          	auipc	x1,0x0
  5c:	000080e7          	jalr	x1 # 58 <_Z19tensorlib_copy_implIdfEiP11hb_tensor_tS1_+0x58>
  60:	00000b37          	lui	x22,0x0
  64:	000004b7          	lui	x9,0x0
  68:	00000437          	lui	x8,0x0
  6c:	00000737          	lui	x14,0x0
  70:	000b2283          	lw	x5,0(x22) # 0 <_Z19tensorlib_copy_implIdfEiP11hb_tensor_tS1_>
  74:	0004a583          	lw	x11,0(x9) # 0 <_Z19tensorlib_copy_implIdfEiP11hb_tensor_tS1_>
  78:	00072303          	lw	x6,0(x14) # 0 <_Z19tensorlib_copy_implIdfEiP11hb_tensor_tS1_>
  7c:	00042603          	lw	x12,0(x8) # 0 <_Z19tensorlib_copy_implIdfEiP11hb_tensor_tS1_>
  80:	000006b7          	lui	x13,0x0
  84:	0006a383          	lw	x7,0(x13) # 0 <_Z19tensorlib_copy_implIdfEiP11hb_tensor_tS1_>
  88:	00b28533          	add	x10,x5,x11
  8c:	00c30833          	add	x16,x6,x12
  90:	01281913          	slli	x18,x16,0x12
  94:	3f0009b7          	lui	x19,0x3f000
  98:	00fc0ab7          	lui	x21,0xfc0
  9c:	01851893          	slli	x17,x10,0x18
  a0:	00040d37          	lui	x26,0x40
  a4:	0138fa33          	and	x20,x17,x19
  a8:	01597bb3          	and	x23,x18,x21
  ac:	ff0d0d93          	addi	x27,x26,-16 # 3fff0 <.L690+0x3f7d4>
  b0:	00439c13          	slli	x24,x7,0x4
  b4:	017a6cb3          	or	x25,x20,x23
  b8:	01bc7e33          	and	x28,x24,x27
  bc:	01cceeb3          	or	x29,x25,x28
  c0:	04c12d83          	lw	x27,76(x2)
  c4:	80000f37          	lui	x30,0x80000
  c8:	01eeefb3          	or	x31,x29,x30
  cc:	410017b7          	lui	x15,0x41001
  d0:	d1f7a623          	sw	x31,-756(x15) # 41000d0c <.L690+0x410004f0>
  d4:	00100293          	li	x5,1
  d8:	04812583          	lw	x11,72(x2)
  dc:	05012a83          	lw	x21,80(x2)
  e0:	05812983          	lw	x19,88(x2)
  e4:	08c12a03          	lw	x20,140(x2)
  e8:	09412903          	lw	x18,148(x2)
  ec:	3c5d8a63          	beq	x27,x5,4c0 <.L679>
  f0:	00200093          	li	x1,2
  f4:	05412303          	lw	x6,84(x2)
  f8:	201d8a63          	beq	x27,x1,30c <.L680>
  fc:	00300713          	li	x14,3
 100:	09012c03          	lw	x24,144(x2)
 104:	5eed8263          	beq	x27,x14,6e8 <.L681>
 108:	fff58613          	addi	x12,x11,-1
 10c:	ffd00693          	li	x13,-3
 110:	0ec6ec63          	bltu	x13,x12,208 <.L619>
 114:	000003b7          	lui	x7,0x0
 118:	0003a503          	lw	x10,0(x7) # 0 <_Z19tensorlib_copy_implIdfEiP11hb_tensor_tS1_>
 11c:	0075d813          	srli	x16,x11,0x7
 120:	00180893          	addi	x17,x16,1
 124:	07f57b93          	andi	x23,x10,127
 128:	031b8cb3          	mul	x25,x23,x17
 12c:	01988bb3          	add	x23,x17,x25
 130:	6d75ee63          	bltu	x11,x23,80c <.L682>

00000134 <.L637>:
 134:	0d7cfa63          	bgeu	x25,x23,208 <.L619>
 138:	08812e03          	lw	x28,136(x2)
 13c:	002d9d13          	slli	x26,x27,0x2
 140:	01a30eb3          	add	x29,x6,x26
 144:	002e1f13          	slli	x30,x28,0x2
 148:	01ec0fb3          	add	x31,x24,x30
 14c:	01c12c23          	sw	x28,24(x2)
 150:	01d12823          	sw	x29,16(x2)
 154:	03f12223          	sw	x31,36(x2)

00000158 <.L642>:
 158:	580d8463          	beqz	x27,6e0 <.L658>
 15c:	000a8393          	mv	x7,x21
 160:	00030713          	mv	x14,x6
 164:	000c8593          	mv	x11,x25
 168:	00000793          	li	x15,0

0000016c <.L639>:
 16c:	00072283          	lw	x5,0(x14)
 170:	0003a083          	lw	x1,0(x7)
 174:	01012503          	lw	x10,16(x2)
 178:	0255f633          	remu	x12,x11,x5
 17c:	00470713          	addi	x14,x14,4
 180:	00438393          	addi	x7,x7,4
 184:	021606b3          	mul	x13,x12,x1
 188:	0255d5b3          	divu	x11,x11,x5
 18c:	00d787b3          	add	x15,x15,x13
 190:	fce51ee3          	bne	x10,x14,16c <.L639>
 194:	00279813          	slli	x16,x15,0x2
 198:	01098d33          	add	x26,x19,x16

0000019c <.L638>:
 19c:	01812883          	lw	x17,24(x2)
 1a0:	52088c63          	beqz	x17,6d8 <.L659>
 1a4:	000a0093          	mv	x1,x20
 1a8:	000c0293          	mv	x5,x24
 1ac:	000c8613          	mv	x12,x25
 1b0:	00000393          	li	x7,0

000001b4 <.L641>:
 1b4:	0002af03          	lw	x30,0(x5)
 1b8:	0000af83          	lw	x31,0(x1)
 1bc:	02412683          	lw	x13,36(x2)
 1c0:	00428293          	addi	x5,x5,4
 1c4:	00408093          	addi	x1,x1,4
 1c8:	03e67eb3          	remu	x29,x12,x30
 1cc:	03fe8733          	mul	x14,x29,x31
 1d0:	03e65633          	divu	x12,x12,x30
 1d4:	00e383b3          	add	x7,x7,x14
 1d8:	fc569ee3          	bne	x13,x5,1b4 <.L641>
 1dc:	00339593          	slli	x11,x7,0x3
 1e0:	00b90e33          	add	x28,x18,x11

000001e4 <.L640>:
 1e4:	000e2503          	lw	x10,0(x28)
 1e8:	004e2583          	lw	x11,4(x28)
 1ec:	00612423          	sw	x6,8(x2)
 1f0:	001c8c93          	addi	x25,x25,1
 1f4:	00000097          	auipc	x1,0x0
 1f8:	000080e7          	jalr	x1 # 1f4 <.L640+0x10>
 1fc:	00ad2027          	fsw	f10,0(x26)
 200:	00812303          	lw	x6,8(x2)
 204:	f59b9ae3          	bne	x23,x25,158 <.L642>

00000208 <.L619>:
 208:	00000cb7          	lui	x25,0x0
 20c:	000cad03          	lw	x26,0(x25) # 0 <_Z19tensorlib_copy_implIdfEiP11hb_tensor_tS1_>
 210:	000b2b03          	lw	x22,0(x22)
 214:	0004ac03          	lw	x24,0(x9)
 218:	00042883          	lw	x17,0(x8)
 21c:	00000337          	lui	x6,0x0
 220:	00032e03          	lw	x28,0(x6) # 0 <_Z19tensorlib_copy_implIdfEiP11hb_tensor_tS1_>
 224:	018b0f33          	add	x30,x22,x24
 228:	011d0fb3          	add	x31,x26,x17
 22c:	018f1293          	slli	x5,x30,0x18
 230:	012f9e93          	slli	x29,x31,0x12
 234:	00fc0737          	lui	x14,0xfc0
 238:	3f0000b7          	lui	x1,0x3f000
 23c:	000406b7          	lui	x13,0x40
 240:	00eef633          	and	x12,x29,x14
 244:	004e1513          	slli	x10,x28,0x4
 248:	0012f3b3          	and	x7,x5,x1
 24c:	ff068a93          	addi	x21,x13,-16 # 3fff0 <.L690+0x3f7d4>
 250:	00c3e5b3          	or	x11,x7,x12
 254:	01557833          	and	x16,x10,x21
 258:	0105edb3          	or	x27,x11,x16
 25c:	c0000a37          	lui	x20,0xc0000
 260:	014de7b3          	or	x15,x27,x20
 264:	41001bb7          	lui	x23,0x41001
 268:	d0fba623          	sw	x15,-756(x23) # 41000d0c <.L690+0x410004f0>
 26c:	00042903          	lw	x18,0(x8)
 270:	0004a983          	lw	x19,0(x9)
 274:	00000637          	lui	x12,0x0
 278:	00490b13          	addi	x22,x18,4
 27c:	00060713          	mv	x14,x12
 280:	01670c33          	add	x24,x14,x22
 284:	01899c93          	slli	x25,x19,0x18
 288:	019c6d33          	or	x26,x24,x25
 28c:	201c08b7          	lui	x17,0x201c0
 290:	011d6333          	or	x6,x26,x17
 294:	00100e13          	li	x28,1
 298:	01c30023          	sb	x28,0(x6)
 29c:	00042f03          	lw	x30,0(x8)
 2a0:	00700f93          	li	x31,7
 2a4:	15ff0463          	beq	x30,x31,3ec <.L683>

000002a8 <.L643>:
 2a8:	00100493          	li	x9,1
 2ac:	0100006f          	j	2bc <.L656>

000002b0 <.L684>:
 2b0:	00060a13          	mv	x20,x12
 2b4:	140a27af          	lr.w.aq	x15,(x20)
 2b8:	00978863          	beq	x15,x9,2c8 <.L655>

000002bc <.L656>:
 2bc:	00060593          	mv	x11,x12
 2c0:	1005adaf          	lr.w	x27,(x11)
 2c4:	fe9d96e3          	bne	x27,x9,2b0 <.L684>

000002c8 <.L655>:
 2c8:	0fc12083          	lw	x1,252(x2)
 2cc:	0f812403          	lw	x8,248(x2)
 2d0:	00072023          	sw	x0,0(x14) # fc0000 <.L690+0xfbf7e4>
 2d4:	0f412483          	lw	x9,244(x2)
 2d8:	0f012903          	lw	x18,240(x2)
 2dc:	0ec12983          	lw	x19,236(x2)
 2e0:	0e812a03          	lw	x20,232(x2)
 2e4:	0e412a83          	lw	x21,228(x2)
 2e8:	0e012b03          	lw	x22,224(x2)
 2ec:	0dc12b83          	lw	x23,220(x2)
 2f0:	0d812c03          	lw	x24,216(x2)
 2f4:	0d412c83          	lw	x25,212(x2)
 2f8:	0d012d03          	lw	x26,208(x2)
 2fc:	0cc12d83          	lw	x27,204(x2)
 300:	00000513          	li	x10,0
 304:	10010113          	addi	x2,x2,256
 308:	00008067          	ret

0000030c <.L680>:
 30c:	00032d83          	lw	x27,0(x6)
 310:	ffd00c93          	li	x25,-3
 314:	fffd8c13          	addi	x24,x27,-1
 318:	ef8ce8e3          	bltu	x25,x24,208 <.L619>
 31c:	00000e37          	lui	x28,0x0
 320:	000e2f03          	lw	x30,0(x28) # 0 <_Z19tensorlib_copy_implIdfEiP11hb_tensor_tS1_>
 324:	007ddf93          	srli	x31,x27,0x7
 328:	001f8293          	addi	x5,x31,1 # 3fc0001 <.L690+0x3fbf7e5>
 32c:	07ff7e93          	andi	x29,x30,127
 330:	025e8bb3          	mul	x23,x29,x5
 334:	017280b3          	add	x1,x5,x23
 338:	00112c23          	sw	x1,24(x2)
 33c:	4c1dec63          	bltu	x27,x1,814 <.L685>

00000340 <.L626>:
 340:	01812703          	lw	x14,24(x2)
 344:	ecebf2e3          	bgeu	x23,x14,208 <.L619>
 348:	000a2603          	lw	x12,0(x20) # c0000000 <.L690+0xbffff7e4>
 34c:	000aa383          	lw	x7,0(x21) # fc0000 <.L690+0xfbf7e4>
 350:	00432503          	lw	x10,4(x6)
 354:	00361593          	slli	x11,x12,0x3
 358:	00239693          	slli	x13,x7,0x2
 35c:	02bb87b3          	mul	x15,x23,x11
 360:	02b12423          	sw	x11,40(x2)
 364:	02d12223          	sw	x13,36(x2)
 368:	02db8833          	mul	x16,x23,x13
 36c:	00f90cb3          	add	x25,x18,x15
 370:	01098c33          	add	x24,x19,x16

00000374 <.L628>:
 374:	000c8e13          	mv	x28,x25
 378:	04050a63          	beqz	x10,3cc <.L630>
 37c:	004aa903          	lw	x18,4(x21)
 380:	004a2883          	lw	x17,4(x20)
 384:	000c0993          	mv	x19,x24
 388:	00291913          	slli	x18,x18,0x2
 38c:	00389d93          	slli	x27,x17,0x3
 390:	00000d13          	li	x26,0

00000394 <.L629>:
 394:	004e2583          	lw	x11,4(x28)
 398:	00a12823          	sw	x10,16(x2)
 39c:	000e2503          	lw	x10,0(x28)
 3a0:	01be0333          	add	x6,x28,x27
 3a4:	00612423          	sw	x6,8(x2)
 3a8:	02612623          	sw	x6,44(x2)
 3ac:	00000097          	auipc	x1,0x0
 3b0:	000080e7          	jalr	x1 # 3ac <.L629+0x18>
 3b4:	01012503          	lw	x10,16(x2)
 3b8:	00a9a027          	fsw	f10,0(x19) # 3f000000 <.L690+0x3efff7e4>
 3bc:	001d0d13          	addi	x26,x26,1
 3c0:	00812e03          	lw	x28,8(x2)
 3c4:	012989b3          	add	x19,x19,x18
 3c8:	fcad16e3          	bne	x26,x10,394 <.L629>

000003cc <.L630>:
 3cc:	02812f03          	lw	x30,40(x2)
 3d0:	02412f83          	lw	x31,36(x2)
 3d4:	01812283          	lw	x5,24(x2)
 3d8:	001b8b93          	addi	x23,x23,1
 3dc:	01ec8cb3          	add	x25,x25,x30
 3e0:	01fc0c33          	add	x24,x24,x31
 3e4:	f97298e3          	bne	x5,x23,374 <.L628>
 3e8:	e21ff06f          	j	208 <.L619>

000003ec <.L683>:
 3ec:	000002b7          	lui	x5,0x0
 3f0:	000000b7          	lui	x1,0x0
 3f4:	00428e93          	addi	x29,x5,4 # 4 <_Z19tensorlib_copy_implIdfEiP11hb_tensor_tS1_+0x4>
 3f8:	01408393          	addi	x7,x1,20 # 14 <_Z19tensorlib_copy_implIdfEiP11hb_tensor_tS1_+0x14>

000003fc <.L616>:
 3fc:	000e8593          	mv	x11,x29

00000400 <.L645>:
 400:	0005c503          	lbu	x10,0(x11)
 404:	00158593          	addi	x11,x11,1
 408:	0ff57693          	andi	x13,x10,255
 40c:	fe0688e3          	beqz	x13,3fc <.L616>
 410:	feb398e3          	bne	x7,x11,400 <.L645>
 414:	0004aa83          	lw	x21,0(x9)
 418:	231c0a37          	lui	x20,0x231c0
 41c:	00100b93          	li	x23,1
 420:	018a8813          	addi	x16,x21,24
 424:	01070db3          	add	x27,x14,x16
 428:	014de7b3          	or	x15,x27,x20
 42c:	01778023          	sb	x23,0(x15)
 430:	00042903          	lw	x18,0(x8)
 434:	00700993          	li	x19,7
 438:	e73918e3          	bne	x18,x19,2a8 <.L643>
 43c:	0004ab03          	lw	x22,0(x9)
 440:	00300c13          	li	x24,3
 444:	1f8b0863          	beq	x22,x24,634 <.L686>

00000448 <.L651>:
 448:	00100b93          	li	x23,1
 44c:	0100006f          	j	45c <.L647>

00000450 <.L687>:
 450:	01470b13          	addi	x22,x14,20
 454:	140b2c2f          	lr.w.aq	x24,(x22)
 458:	017c0863          	beq	x24,x23,468 <.L652>

0000045c <.L647>:
 45c:	01470913          	addi	x18,x14,20
 460:	100929af          	lr.w	x19,(x18)
 464:	ff7996e3          	bne	x19,x23,450 <.L687>

00000468 <.L652>:
 468:	00072a23          	sw	x0,20(x14)
 46c:	00000893          	li	x17,0
 470:	01000c93          	li	x25,16

00000474 <.L653>:
 474:	01170d33          	add	x26,x14,x17
 478:	000d0223          	sb	x0,4(x26)
 47c:	00188893          	addi	x17,x17,1 # 201c0001 <.L690+0x201bf7e5>
 480:	ff989ae3          	bne	x17,x25,474 <.L653>
 484:	00072023          	sw	x0,0(x14)
 488:	00000093          	li	x1,0
 48c:	20000337          	lui	x6,0x20000
 490:	00100e13          	li	x28,1
 494:	00040f37          	lui	x30,0x40
 498:	00400fb7          	lui	x31,0x400

0000049c <.L654>:
 49c:	0004a283          	lw	x5,0(x9)
 4a0:	00176eb3          	or	x29,x14,x1
 4a4:	01e080b3          	add	x1,x1,x30
 4a8:	01829513          	slli	x10,x5,0x18
 4ac:	01d56ab3          	or	x21,x10,x29
 4b0:	006ae833          	or	x16,x21,x6
 4b4:	01c82023          	sw	x28,0(x16)
 4b8:	fff092e3          	bne	x1,x31,49c <.L654>
 4bc:	dedff06f          	j	2a8 <.L643>

000004c0 <.L679>:
 4c0:	fff58e93          	addi	x29,x11,-1
 4c4:	ffd00093          	li	x1,-3
 4c8:	d5d0e0e3          	bltu	x1,x29,208 <.L619>
 4cc:	00000737          	lui	x14,0x0
 4d0:	00072603          	lw	x12,0(x14) # 0 <_Z19tensorlib_copy_implIdfEiP11hb_tensor_tS1_>
 4d4:	0075d393          	srli	x7,x11,0x7
 4d8:	00138693          	addi	x13,x7,1
 4dc:	07f67793          	andi	x15,x12,127
 4e0:	02d78bb3          	mul	x23,x15,x13
 4e4:	01768c33          	add	x24,x13,x23
 4e8:	1f85e463          	bltu	x11,x24,6d0 <.L688>

000004ec <.L618>:
 4ec:	d18bfee3          	bgeu	x23,x24,208 <.L619>
 4f0:	000aa583          	lw	x11,0(x21)
 4f4:	000a2a03          	lw	x20,0(x20) # 231c0000 <.L690+0x231bf7e4>
 4f8:	417c0ab3          	sub	x21,x24,x23
 4fc:	00259c93          	slli	x25,x11,0x2
 500:	003a1d13          	slli	x26,x20,0x3
 504:	037c8833          	mul	x16,x25,x23
 508:	00400893          	li	x17,4
 50c:	037d0db3          	mul	x27,x26,x23
 510:	010989b3          	add	x19,x19,x16
 514:	01b90933          	add	x18,x18,x27
 518:	0f58fa63          	bgeu	x17,x21,60c <.L624>
 51c:	ffcc0313          	addi	x6,x24,-4
 520:	02612623          	sw	x6,44(x2)
 524:	0e6bf463          	bgeu	x23,x6,60c <.L624>
 528:	00098a93          	mv	x21,x19
 52c:	00359e13          	slli	x28,x11,0x3
 530:	004a1993          	slli	x19,x20,0x4
 534:	005a1813          	slli	x16,x20,0x5
 538:	00459693          	slli	x13,x11,0x4
 53c:	01390db3          	add	x27,x18,x19
 540:	01ca8a33          	add	x20,x21,x28

00000544 <.L623>:
 544:	01a90f33          	add	x30,x18,x26
 548:	01ad8fb3          	add	x31,x27,x26
 54c:	000f2283          	lw	x5,0(x30) # 40000 <.L690+0x3f7e4>
 550:	004f2e83          	lw	x29,4(x30)
 554:	000fa083          	lw	x1,0(x31) # 400000 <.L690+0x3ff7e4>
 558:	004fa703          	lw	x14,4(x31)
 55c:	00092503          	lw	x10,0(x18)
 560:	00492583          	lw	x11,4(x18)
 564:	02d12423          	sw	x13,40(x2)
 568:	03012223          	sw	x16,36(x2)
 56c:	00512c23          	sw	x5,24(x2)
 570:	01d12e23          	sw	x29,28(x2)
 574:	00112823          	sw	x1,16(x2)
 578:	00e12a23          	sw	x14,20(x2)
 57c:	00000097          	auipc	x1,0x0
 580:	000080e7          	jalr	x1 # 57c <.L623+0x38>
 584:	000da503          	lw	x10,0(x27)
 588:	004da603          	lw	x12,4(x27)
 58c:	01c12583          	lw	x11,28(x2)
 590:	00a12423          	sw	x10,8(x2)
 594:	01812503          	lw	x10,24(x2)
 598:	00aaa027          	fsw	f10,0(x21)
 59c:	00c12623          	sw	x12,12(x2)
 5a0:	00000097          	auipc	x1,0x0
 5a4:	000080e7          	jalr	x1 # 5a0 <.L623+0x5c>
 5a8:	00812503          	lw	x10,8(x2)
 5ac:	00c12583          	lw	x11,12(x2)
 5b0:	019a83b3          	add	x7,x21,x25
 5b4:	00a3a027          	fsw	f10,0(x7)
 5b8:	00000097          	auipc	x1,0x0
 5bc:	000080e7          	jalr	x1 # 5b8 <.L623+0x74>
 5c0:	01012503          	lw	x10,16(x2)
 5c4:	01412583          	lw	x11,20(x2)
 5c8:	00aa2027          	fsw	f10,0(x20)
 5cc:	000a8993          	mv	x19,x21
 5d0:	00000097          	auipc	x1,0x0
 5d4:	000080e7          	jalr	x1 # 5d0 <.L623+0x8c>
 5d8:	02812683          	lw	x13,40(x2)
 5dc:	02412803          	lw	x16,36(x2)
 5e0:	02c12783          	lw	x15,44(x2)
 5e4:	019a0ab3          	add	x21,x20,x25
 5e8:	00d989b3          	add	x19,x19,x13
 5ec:	00aaa027          	fsw	f10,0(x21)
 5f0:	004b8b93          	addi	x23,x23,4
 5f4:	00098a93          	mv	x21,x19
 5f8:	01090933          	add	x18,x18,x16
 5fc:	010d8db3          	add	x27,x27,x16
 600:	00da0a33          	add	x20,x20,x13
 604:	f4fbe0e3          	bltu	x23,x15,544 <.L623>
 608:	c18bf0e3          	bgeu	x23,x24,208 <.L619>

0000060c <.L624>:
 60c:	00092503          	lw	x10,0(x18)
 610:	00492583          	lw	x11,4(x18)
 614:	001b8b93          	addi	x23,x23,1
 618:	01a90933          	add	x18,x18,x26
 61c:	00000097          	auipc	x1,0x0
 620:	000080e7          	jalr	x1 # 61c <.L624+0x10>
 624:	00a9a027          	fsw	f10,0(x19)
 628:	019989b3          	add	x19,x19,x25
 62c:	ff8be0e3          	bltu	x23,x24,60c <.L624>
 630:	bd9ff06f          	j	208 <.L619>

00000634 <.L686>:
 634:	00000cb7          	lui	x25,0x0
 638:	000008b7          	lui	x17,0x0
 63c:	018c8d13          	addi	x26,x25,24 # 18 <_Z19tensorlib_copy_implIdfEiP11hb_tensor_tS1_+0x18>
 640:	02088313          	addi	x6,x17,32 # 20 <_Z19tensorlib_copy_implIdfEiP11hb_tensor_tS1_+0x20>

00000644 <.L646>:
 644:	000d0f13          	mv	x30,x26

00000648 <.L648>:
 648:	000f4e03          	lbu	x28,0(x30)
 64c:	001f0f13          	addi	x30,x30,1
 650:	0ffe7f93          	andi	x31,x28,255
 654:	fe0f88e3          	beqz	x31,644 <.L646>
 658:	ffe318e3          	bne	x6,x30,648 <.L648>
 65c:	00070c23          	sb	x0,24(x14)
 660:	00070ca3          	sb	x0,25(x14)
 664:	00070d23          	sb	x0,26(x14)
 668:	00070da3          	sb	x0,27(x14)
 66c:	00070e23          	sb	x0,28(x14)
 670:	00070ea3          	sb	x0,29(x14)
 674:	00070f23          	sb	x0,30(x14)
 678:	00070fa3          	sb	x0,31(x14)
 67c:	00072a23          	sw	x0,20(x14)
 680:	00000693          	li	x13,0
 684:	03fc02b7          	lui	x5,0x3fc0
 688:	20000eb7          	lui	x29,0x20000
 68c:	00100093          	li	x1,1
 690:	01000537          	lui	x10,0x1000
 694:	08000ab7          	lui	x21,0x8000
 698:	0080006f          	j	6a0 <.L650>

0000069c <.L689>:
 69c:	00042903          	lw	x18,0(x8)

000006a0 <.L650>:
 6a0:	01291813          	slli	x16,x18,0x12
 6a4:	00d3e5b3          	or	x11,x7,x13
 6a8:	00587db3          	and	x27,x16,x5
 6ac:	00bdea33          	or	x20,x27,x11
 6b0:	01da67b3          	or	x15,x20,x29
 6b4:	0017a023          	sw	x1,0(x15)
 6b8:	00a686b3          	add	x13,x13,x10
 6bc:	ff5690e3          	bne	x13,x21,69c <.L689>
 6c0:	00042403          	lw	x8,0(x8)
 6c4:	00700393          	li	x7,7
 6c8:	d87400e3          	beq	x8,x7,448 <.L651>
 6cc:	bddff06f          	j	2a8 <.L643>

000006d0 <.L688>:
 6d0:	00058c13          	mv	x24,x11
 6d4:	e19ff06f          	j	4ec <.L618>

000006d8 <.L659>:
 6d8:	00090e13          	mv	x28,x18
 6dc:	b09ff06f          	j	1e4 <.L640>

000006e0 <.L658>:
 6e0:	00098d13          	mv	x26,x19
 6e4:	ab9ff06f          	j	19c <.L638>

000006e8 <.L681>:
 6e8:	00432d83          	lw	x27,4(x6) # 20000004 <.L690+0x1ffff7e8>
 6ec:	00032b83          	lw	x23,0(x6)
 6f0:	ffd00d13          	li	x26,-3
 6f4:	037d87b3          	mul	x15,x27,x23
 6f8:	fff78513          	addi	x10,x15,-1
 6fc:	b0ad66e3          	bltu	x26,x10,208 <.L619>
 700:	00000837          	lui	x16,0x0
 704:	00082883          	lw	x17,0(x16) # 0 <_Z19tensorlib_copy_implIdfEiP11hb_tensor_tS1_>
 708:	0077de13          	srli	x28,x15,0x7
 70c:	001e0f13          	addi	x30,x28,1
 710:	07f8ff93          	andi	x31,x17,127
 714:	03ef8d33          	mul	x26,x31,x30
 718:	01af02b3          	add	x5,x30,x26
 71c:	02512423          	sw	x5,40(x2)
 720:	0e57ee63          	bltu	x15,x5,81c <.L690>

00000724 <.L632>:
 724:	02812e83          	lw	x29,40(x2)
 728:	afdd70e3          	bgeu	x26,x29,208 <.L619>
 72c:	004c2c83          	lw	x25,4(x24)
 730:	004a2c03          	lw	x24,4(x20)
 734:	004aa083          	lw	x1,4(x21) # 8000004 <.L690+0x7fff7e8>
 738:	000aa703          	lw	x14,0(x21)
 73c:	000a2603          	lw	x12,0(x20)
 740:	03812a23          	sw	x24,52(x2)
 744:	00832c03          	lw	x24,8(x6)
 748:	02112623          	sw	x1,44(x2)
 74c:	02e12823          	sw	x14,48(x2)
 750:	02c12c23          	sw	x12,56(x2)

00000754 <.L634>:
 754:	03bd73b3          	remu	x7,x26,x27
 758:	02c12683          	lw	x13,44(x2)
 75c:	03012503          	lw	x10,48(x2)
 760:	03412883          	lw	x17,52(x2)
 764:	03812283          	lw	x5,56(x2)
 768:	03bd5333          	divu	x6,x26,x27
 76c:	039d7bb3          	remu	x23,x26,x25
 770:	039d55b3          	divu	x11,x26,x25
 774:	02d387b3          	mul	x15,x7,x13
 778:	02a30833          	mul	x16,x6,x10
 77c:	031b8e33          	mul	x28,x23,x17
 780:	01078f33          	add	x30,x15,x16
 784:	002f1f93          	slli	x31,x30,0x2
 788:	01f987b3          	add	x15,x19,x31
 78c:	02558eb3          	mul	x29,x11,x5
 790:	01de00b3          	add	x1,x28,x29
 794:	00309713          	slli	x14,x1,0x3
 798:	00e90833          	add	x16,x18,x14
 79c:	060c0063          	beqz	x24,7fc <.L636>
 7a0:	008aa603          	lw	x12,8(x21)
 7a4:	008a2383          	lw	x7,8(x20)
 7a8:	00000b93          	li	x23,0
 7ac:	00261693          	slli	x13,x12,0x2
 7b0:	00339893          	slli	x17,x7,0x3

000007b4 <.L635>:
 7b4:	00482583          	lw	x11,4(x16)
 7b8:	00082503          	lw	x10,0(x16)
 7bc:	01180333          	add	x6,x16,x17
 7c0:	02d12223          	sw	x13,36(x2)
 7c4:	00f12c23          	sw	x15,24(x2)
 7c8:	01112823          	sw	x17,16(x2)
 7cc:	00612423          	sw	x6,8(x2)
 7d0:	02612e23          	sw	x6,60(x2)
 7d4:	00000097          	auipc	x1,0x0
 7d8:	000080e7          	jalr	x1 # 7d4 <.L635+0x20>
 7dc:	01812583          	lw	x11,24(x2)
 7e0:	02412683          	lw	x13,36(x2)
 7e4:	001b8b93          	addi	x23,x23,1
 7e8:	00a5a027          	fsw	f10,0(x11)
 7ec:	00812803          	lw	x16,8(x2)
 7f0:	01012883          	lw	x17,16(x2)
 7f4:	00d587b3          	add	x15,x11,x13
 7f8:	fb8b9ee3          	bne	x23,x24,7b4 <.L635>

000007fc <.L636>:
 7fc:	02812503          	lw	x10,40(x2)
 800:	001d0d13          	addi	x26,x26,1
 804:	f5a518e3          	bne	x10,x26,754 <.L634>
 808:	a01ff06f          	j	208 <.L619>

0000080c <.L682>:
 80c:	00058b93          	mv	x23,x11
 810:	925ff06f          	j	134 <.L637>

00000814 <.L685>:
 814:	01b12c23          	sw	x27,24(x2)
 818:	b29ff06f          	j	340 <.L626>

0000081c <.L690>:
 81c:	02f12423          	sw	x15,40(x2)
 820:	f05ff06f          	j	724 <.L632>

Disassembly of section .text._Z27hb_tiled_foreach_conversionIidZ19tensorlib_copy_implIidEiP11hb_tensor_tS2_EUliE_Ev8HBTensorIT0_Lln1EES4_IT_Lln1EET1_:

00000000 <_Z27hb_tiled_foreach_conversionIidZ19tensorlib_copy_implIidEiP11hb_tensor_tS2_EUliE_Ev8HBTensorIT0_Lln1EES4_IT_Lln1EET1_>:
   0:	fa010113          	addi	x2,x2,-96
   4:	05312623          	sw	x19,76(x2)
   8:	00452983          	lw	x19,4(x10) # 1000004 <.L690+0xfff7e8>
   c:	05412423          	sw	x20,72(x2)
  10:	05512223          	sw	x21,68(x2)
  14:	05612023          	sw	x22,64(x2)
  18:	03712e23          	sw	x23,60(x2)
  1c:	04112e23          	sw	x1,92(x2)
  20:	04812c23          	sw	x8,88(x2)
  24:	04912a23          	sw	x9,84(x2)
  28:	05212823          	sw	x18,80(x2)
  2c:	03812c23          	sw	x24,56(x2)
  30:	03912a23          	sw	x25,52(x2)
  34:	03a12823          	sw	x26,48(x2)
  38:	03b12623          	sw	x27,44(x2)
  3c:	00100793          	li	x15,1
  40:	00052703          	lw	x14,0(x10)
  44:	00852a83          	lw	x21,8(x10)
  48:	0085aa03          	lw	x20,8(x11)
  4c:	01052b83          	lw	x23,16(x10)
  50:	0105ab03          	lw	x22,16(x11)
  54:	20f98063          	beq	x19,x15,254 <.L729>
  58:	00200093          	li	x1,2
  5c:	00c52403          	lw	x8,12(x10)
  60:	12198a63          	beq	x19,x1,194 <.L730>
  64:	00300293          	li	x5,3
  68:	00c5a483          	lw	x9,12(x11)
  6c:	34598063          	beq	x19,x5,3ac <.L731>
  70:	fff70313          	addi	x6,x14,-1
  74:	ffd00693          	li	x13,-3
  78:	0e66e063          	bltu	x13,x6,158 <.L692>
  7c:	000003b7          	lui	x7,0x0
  80:	0003ad83          	lw	x27,0(x7) # 0 <_Z27hb_tiled_foreach_conversionIidZ19tensorlib_copy_implIidEiP11hb_tensor_tS2_EUliE_Ev8HBTensorIT0_Lln1EES4_IT_Lln1EET1_>
  84:	00775913          	srli	x18,x14,0x7
  88:	00190513          	addi	x10,x18,1
  8c:	07fdf613          	andi	x12,x27,127
  90:	02a60db3          	mul	x27,x12,x10
  94:	01b50933          	add	x18,x10,x27
  98:	43276063          	bltu	x14,x18,4b8 <.L732>

0000009c <.L714>:
  9c:	0b2dfe63          	bgeu	x27,x18,158 <.L692>
  a0:	0045a583          	lw	x11,4(x11)
  a4:	00299d13          	slli	x26,x19,0x2
  a8:	01a40d33          	add	x26,x8,x26
  ac:	00259c93          	slli	x25,x11,0x2
  b0:	00b12423          	sw	x11,8(x2)
  b4:	01948cb3          	add	x25,x9,x25

000000b8 <.L719>:
  b8:	2e098663          	beqz	x19,3a4 <.L720>
  bc:	000a8f13          	mv	x30,x21
  c0:	00040e13          	mv	x28,x8
  c4:	000d8793          	mv	x15,x27
  c8:	00000713          	li	x14,0

000000cc <.L716>:
  cc:	000e2803          	lw	x16,0(x28)
  d0:	000f2883          	lw	x17,0(x30)
  d4:	004e0e13          	addi	x28,x28,4
  d8:	0307feb3          	remu	x29,x15,x16
  dc:	004f0f13          	addi	x30,x30,4
  e0:	031e8fb3          	mul	x31,x29,x17
  e4:	0307d7b3          	divu	x15,x15,x16
  e8:	01f70733          	add	x14,x14,x31
  ec:	ffcd10e3          	bne	x26,x28,cc <.L716>
  f0:	00371093          	slli	x1,x14,0x3
  f4:	001b8c33          	add	x24,x23,x1

000000f8 <.L715>:
  f8:	00812283          	lw	x5,8(x2)
  fc:	2a028063          	beqz	x5,39c <.L721>
 100:	000a0613          	mv	x12,x20
 104:	00048813          	mv	x16,x9
 108:	000d8693          	mv	x13,x27
 10c:	00000513          	li	x10,0

00000110 <.L718>:
 110:	00082383          	lw	x7,0(x16)
 114:	00062583          	lw	x11,0(x12) # 0 <_Z27hb_tiled_foreach_conversionIidZ19tensorlib_copy_implIidEiP11hb_tensor_tS2_EUliE_Ev8HBTensorIT0_Lln1EES4_IT_Lln1EET1_>
 118:	00480813          	addi	x16,x16,4
 11c:	00460613          	addi	x12,x12,4
 120:	0276f8b3          	remu	x17,x13,x7
 124:	02b88e33          	mul	x28,x17,x11
 128:	0276d6b3          	divu	x13,x13,x7
 12c:	01c50533          	add	x10,x10,x28
 130:	ff0c90e3          	bne	x25,x16,110 <.L718>
 134:	00251e93          	slli	x29,x10,0x2
 138:	01db0333          	add	x6,x22,x29

0000013c <.L717>:
 13c:	00032503          	lw	x10,0(x6)
 140:	001d8d93          	addi	x27,x27,1
 144:	00000097          	auipc	x1,0x0
 148:	000080e7          	jalr	x1 # 144 <.L717+0x8>
 14c:	00ac2023          	sw	x10,0(x24)
 150:	00bc2223          	sw	x11,4(x24)
 154:	f72d92e3          	bne	x27,x18,b8 <.L719>

00000158 <.L692>:
 158:	05c12083          	lw	x1,92(x2)
 15c:	05812403          	lw	x8,88(x2)
 160:	05412483          	lw	x9,84(x2)
 164:	05012903          	lw	x18,80(x2)
 168:	04c12983          	lw	x19,76(x2)
 16c:	04812a03          	lw	x20,72(x2)
 170:	04412a83          	lw	x21,68(x2)
 174:	04012b03          	lw	x22,64(x2)
 178:	03c12b83          	lw	x23,60(x2)
 17c:	03812c03          	lw	x24,56(x2)
 180:	03412c83          	lw	x25,52(x2)
 184:	03012d03          	lw	x26,48(x2)
 188:	02c12d83          	lw	x27,44(x2)
 18c:	06010113          	addi	x2,x2,96
 190:	00008067          	ret

00000194 <.L730>:
 194:	00042903          	lw	x18,0(x8)
 198:	ffd00c13          	li	x24,-3
 19c:	fff90613          	addi	x12,x18,-1
 1a0:	facc6ce3          	bltu	x24,x12,158 <.L692>
 1a4:	00000e37          	lui	x28,0x0
 1a8:	000e2503          	lw	x10,0(x28) # 0 <_Z27hb_tiled_foreach_conversionIidZ19tensorlib_copy_implIidEiP11hb_tensor_tS2_EUliE_Ev8HBTensorIT0_Lln1EES4_IT_Lln1EET1_>
 1ac:	00795693          	srli	x13,x18,0x7
 1b0:	00168e93          	addi	x29,x13,1
 1b4:	07f57f13          	andi	x30,x10,127
 1b8:	03df0c33          	mul	x24,x30,x29
 1bc:	018e8cb3          	add	x25,x29,x24
 1c0:	31996063          	bltu	x18,x25,4c0 <.L733>
 1c4:	f99c7ae3          	bgeu	x24,x25,158 <.L692>

000001c8 <.L736>:
 1c8:	000aaf83          	lw	x31,0(x21)
 1cc:	000a2703          	lw	x14,0(x20)
 1d0:	00442983          	lw	x19,4(x8)
 1d4:	003f9793          	slli	x15,x31,0x3
 1d8:	00271093          	slli	x1,x14,0x2
 1dc:	02fc02b3          	mul	x5,x24,x15
 1e0:	00f12623          	sw	x15,12(x2)
 1e4:	00112423          	sw	x1,8(x2)
 1e8:	021c0333          	mul	x6,x24,x1
 1ec:	005b8bb3          	add	x23,x23,x5
 1f0:	006b0b33          	add	x22,x22,x6

000001f4 <.L705>:
 1f4:	000b0413          	mv	x8,x22
 1f8:	04098063          	beqz	x19,238 <.L707>
 1fc:	004aa383          	lw	x7,4(x21)
 200:	004a2583          	lw	x11,4(x20)
 204:	000b8d93          	mv	x27,x23
 208:	00339913          	slli	x18,x7,0x3
 20c:	00259493          	slli	x9,x11,0x2
 210:	00000d13          	li	x26,0

00000214 <.L706>:
 214:	00042503          	lw	x10,0(x8)
 218:	001d0d13          	addi	x26,x26,1
 21c:	00940433          	add	x8,x8,x9
 220:	00000097          	auipc	x1,0x0
 224:	000080e7          	jalr	x1 # 220 <.L706+0xc>
 228:	00ada023          	sw	x10,0(x27)
 22c:	00bda223          	sw	x11,4(x27)
 230:	012d8db3          	add	x27,x27,x18
 234:	ff3d10e3          	bne	x26,x19,214 <.L706>

00000238 <.L707>:
 238:	00c12803          	lw	x16,12(x2)
 23c:	00812883          	lw	x17,8(x2)
 240:	001c0c13          	addi	x24,x24,1
 244:	010b8bb3          	add	x23,x23,x16
 248:	011b0b33          	add	x22,x22,x17
 24c:	fb9c14e3          	bne	x24,x25,1f4 <.L705>
 250:	f09ff06f          	j	158 <.L692>

00000254 <.L729>:
 254:	fff70613          	addi	x12,x14,-1
 258:	ffd00e13          	li	x28,-3
 25c:	eece6ee3          	bltu	x28,x12,158 <.L692>
 260:	00000537          	lui	x10,0x0
 264:	00052683          	lw	x13,0(x10) # 0 <_Z27hb_tiled_foreach_conversionIidZ19tensorlib_copy_implIidEiP11hb_tensor_tS2_EUliE_Ev8HBTensorIT0_Lln1EES4_IT_Lln1EET1_>
 268:	00775e93          	srli	x29,x14,0x7
 26c:	001e8f13          	addi	x30,x29,1 # 20000001 <.L690+0x1ffff7e5>
 270:	07f6fc93          	andi	x25,x13,127
 274:	03ec8433          	mul	x8,x25,x30
 278:	008f09b3          	add	x19,x30,x8
 27c:	11376c63          	bltu	x14,x19,394 <.L734>

00000280 <.L695>:
 280:	ed347ce3          	bgeu	x8,x19,158 <.L692>
 284:	000aaf83          	lw	x31,0(x21)
 288:	000a2083          	lw	x1,0(x20)
 28c:	408987b3          	sub	x15,x19,x8
 290:	003f9a93          	slli	x21,x31,0x3
 294:	00209a13          	slli	x20,x1,0x2
 298:	035402b3          	mul	x5,x8,x21
 29c:	00400713          	li	x14,4
 2a0:	03440333          	mul	x6,x8,x20
 2a4:	005b84b3          	add	x9,x23,x5
 2a8:	006b0b33          	add	x22,x22,x6
 2ac:	0cf77063          	bgeu	x14,x15,36c <.L701>
 2b0:	ffc98393          	addi	x7,x19,-4
 2b4:	00712623          	sw	x7,12(x2)
 2b8:	0a747a63          	bgeu	x8,x7,36c <.L701>
 2bc:	00309593          	slli	x11,x1,0x3
 2c0:	004f9913          	slli	x18,x31,0x4
 2c4:	00048b93          	mv	x23,x9
 2c8:	005f9d93          	slli	x27,x31,0x5
 2cc:	00409c93          	slli	x25,x1,0x4
 2d0:	00bb0c33          	add	x24,x22,x11
 2d4:	01248933          	add	x18,x9,x18

000002d8 <.L700>:
 2d8:	014b04b3          	add	x9,x22,x20
 2dc:	0004ad03          	lw	x26,0(x9)
 2e0:	000b2503          	lw	x10,0(x22)
 2e4:	014c0833          	add	x16,x24,x20
 2e8:	00082483          	lw	x9,0(x16)
 2ec:	01a12423          	sw	x26,8(x2)
 2f0:	00000097          	auipc	x1,0x0
 2f4:	000080e7          	jalr	x1 # 2f0 <.L700+0x18>
 2f8:	000c2d03          	lw	x26,0(x24)
 2fc:	00aba023          	sw	x10,0(x23)
 300:	00812503          	lw	x10,8(x2)
 304:	00bba223          	sw	x11,4(x23)
 308:	00440413          	addi	x8,x8,4
 30c:	00000097          	auipc	x1,0x0
 310:	000080e7          	jalr	x1 # 30c <.L700+0x34>
 314:	015b88b3          	add	x17,x23,x21
 318:	00a8a023          	sw	x10,0(x17)
 31c:	00b8a223          	sw	x11,4(x17)
 320:	000d0513          	mv	x10,x26
 324:	00000097          	auipc	x1,0x0
 328:	000080e7          	jalr	x1 # 324 <.L700+0x4c>
 32c:	00a92023          	sw	x10,0(x18)
 330:	00b92223          	sw	x11,4(x18)
 334:	00048513          	mv	x10,x9
 338:	00000097          	auipc	x1,0x0
 33c:	000080e7          	jalr	x1 # 338 <.L700+0x60>
 340:	00c12603          	lw	x12,12(x2)
 344:	01590d33          	add	x26,x18,x21
 348:	01bb84b3          	add	x9,x23,x27
 34c:	00ad2023          	sw	x10,0(x26)
 350:	00bd2223          	sw	x11,4(x26)
 354:	00048b93          	mv	x23,x9
 358:	019b0b33          	add	x22,x22,x25
 35c:	019c0c33          	add	x24,x24,x25
 360:	01b90933          	add	x18,x18,x27
 364:	f6c46ae3          	bltu	x8,x12,2d8 <.L700>
 368:	df3478e3          	bgeu	x8,x19,158 <.L692>

0000036c <.L701>:
 36c:	000b2503          	lw	x10,0(x22)
 370:	00140413          	addi	x8,x8,1
 374:	014b0b33          	add	x22,x22,x20
 378:	00000097          	auipc	x1,0x0
 37c:	000080e7          	jalr	x1 # 378 <.L701+0xc>
 380:	00a4a023          	sw	x10,0(x9)
 384:	00b4a223          	sw	x11,4(x9)
 388:	015484b3          	add	x9,x9,x21
 38c:	ff3460e3          	bltu	x8,x19,36c <.L701>
 390:	dc9ff06f          	j	158 <.L692>

00000394 <.L734>:
 394:	00070993          	mv	x19,x14
 398:	ee9ff06f          	j	280 <.L695>

0000039c <.L721>:
 39c:	000b0313          	mv	x6,x22
 3a0:	d9dff06f          	j	13c <.L717>

000003a4 <.L720>:
 3a4:	000b8c13          	mv	x24,x23
 3a8:	d51ff06f          	j	f8 <.L715>

000003ac <.L731>:
 3ac:	00442c03          	lw	x24,4(x8)
 3b0:	00042983          	lw	x19,0(x8)
 3b4:	ffd00913          	li	x18,-3
 3b8:	033c0cb3          	mul	x25,x24,x19
 3bc:	fffc8d13          	addi	x26,x25,-1
 3c0:	d9a96ce3          	bltu	x18,x26,158 <.L692>
 3c4:	00000f37          	lui	x30,0x0
 3c8:	000f2f83          	lw	x31,0(x30) # 0 <_Z27hb_tiled_foreach_conversionIidZ19tensorlib_copy_implIidEiP11hb_tensor_tS2_EUliE_Ev8HBTensorIT0_Lln1EES4_IT_Lln1EET1_>
 3cc:	007cd793          	srli	x15,x25,0x7
 3d0:	00178713          	addi	x14,x15,1
 3d4:	07fff093          	andi	x1,x31,127
 3d8:	02e089b3          	mul	x19,x1,x14
 3dc:	013702b3          	add	x5,x14,x19
 3e0:	00512423          	sw	x5,8(x2)
 3e4:	0e5ce463          	bltu	x25,x5,4cc <.L735>

000003e8 <.L709>:
 3e8:	00812303          	lw	x6,8(x2)
 3ec:	d669f6e3          	bgeu	x19,x6,158 <.L692>
 3f0:	004aa383          	lw	x7,4(x21)
 3f4:	000aa583          	lw	x11,0(x21)
 3f8:	0044a483          	lw	x9,4(x9)
 3fc:	004a2803          	lw	x16,4(x20)
 400:	000a2883          	lw	x17,0(x20)
 404:	00842903          	lw	x18,8(x8)
 408:	00712623          	sw	x7,12(x2)
 40c:	00b12823          	sw	x11,16(x2)
 410:	00912a23          	sw	x9,20(x2)
 414:	01012c23          	sw	x16,24(x2)
 418:	01112e23          	sw	x17,28(x2)

0000041c <.L711>:
 41c:	01412e03          	lw	x28,20(x2)
 420:	0389f433          	remu	x8,x19,x24
 424:	01012c83          	lw	x25,16(x2)
 428:	00c12e83          	lw	x29,12(x2)
 42c:	01812f03          	lw	x30,24(x2)
 430:	01c12283          	lw	x5,28(x2)
 434:	0389d633          	divu	x12,x19,x24
 438:	03c9f533          	remu	x10,x19,x28
 43c:	03c9d6b3          	divu	x13,x19,x28
 440:	03960d33          	mul	x26,x12,x25
 444:	03d40db3          	mul	x27,x8,x29
 448:	03e50fb3          	mul	x31,x10,x30
 44c:	01ad87b3          	add	x15,x27,x26
 450:	00379713          	slli	x14,x15,0x3
 454:	00eb80b3          	add	x1,x23,x14
 458:	02568333          	mul	x6,x13,x5
 45c:	006f83b3          	add	x7,x31,x6
 460:	00239593          	slli	x11,x7,0x2
 464:	00bb0cb3          	add	x25,x22,x11
 468:	04090063          	beqz	x18,4a8 <.L713>
 46c:	008aa483          	lw	x9,8(x21)
 470:	008a2803          	lw	x16,8(x20)
 474:	00008d13          	mv	x26,x1
 478:	00349493          	slli	x9,x9,0x3
 47c:	00281413          	slli	x8,x16,0x2
 480:	00000d93          	li	x27,0

00000484 <.L712>:
 484:	000ca503          	lw	x10,0(x25)
 488:	001d8d93          	addi	x27,x27,1
 48c:	008c8cb3          	add	x25,x25,x8
 490:	00000097          	auipc	x1,0x0
 494:	000080e7          	jalr	x1 # 490 <.L712+0xc>
 498:	00ad2023          	sw	x10,0(x26)
 49c:	00bd2223          	sw	x11,4(x26)
 4a0:	009d0d33          	add	x26,x26,x9
 4a4:	ff2d90e3          	bne	x27,x18,484 <.L712>

000004a8 <.L713>:
 4a8:	00812883          	lw	x17,8(x2)
 4ac:	00198993          	addi	x19,x19,1
 4b0:	f71996e3          	bne	x19,x17,41c <.L711>
 4b4:	ca5ff06f          	j	158 <.L692>

000004b8 <.L732>:
 4b8:	00070913          	mv	x18,x14
 4bc:	be1ff06f          	j	9c <.L714>

000004c0 <.L733>:
 4c0:	00090c93          	mv	x25,x18
 4c4:	d19c62e3          	bltu	x24,x25,1c8 <.L736>
 4c8:	c91ff06f          	j	158 <.L692>

000004cc <.L735>:
 4cc:	01912423          	sw	x25,8(x2)
 4d0:	f19ff06f          	j	3e8 <.L709>

Disassembly of section .text._Z19tensorlib_copy_implIidEiP11hb_tensor_tS1_:

00000000 <_Z19tensorlib_copy_implIidEiP11hb_tensor_tS1_>:
   0:	ee010113          	addi	x2,x2,-288
   4:	00050793          	mv	x15,x10
   8:	10812c23          	sw	x8,280(x2)
   c:	08810513          	addi	x10,x2,136
  10:	00058413          	mv	x8,x11
  14:	00078593          	mv	x11,x15
  18:	10112e23          	sw	x1,284(x2)
  1c:	10912a23          	sw	x9,276(x2)
  20:	11212823          	sw	x18,272(x2)
  24:	11312623          	sw	x19,268(x2)
  28:	11412423          	sw	x20,264(x2)
  2c:	11512223          	sw	x21,260(x2)
  30:	0c410913          	addi	x18,x2,196
  34:	00000097          	auipc	x1,0x0
  38:	000080e7          	jalr	x1 # 34 <_Z19tensorlib_copy_implIidEiP11hb_tensor_tS1_+0x34>
  3c:	00040593          	mv	x11,x8
  40:	00090513          	mv	x10,x18
  44:	00000097          	auipc	x1,0x0
  48:	000080e7          	jalr	x1 # 44 <_Z19tensorlib_copy_implIidEiP11hb_tensor_tS1_+0x44>
  4c:	00000ab7          	lui	x21,0x0
  50:	000004b7          	lui	x9,0x0
  54:	00000a37          	lui	x20,0x0
  58:	00000437          	lui	x8,0x0
  5c:	000aa283          	lw	x5,0(x21) # 0 <_Z19tensorlib_copy_implIidEiP11hb_tensor_tS1_>
  60:	0004a583          	lw	x11,0(x9) # 0 <_Z19tensorlib_copy_implIidEiP11hb_tensor_tS1_>
  64:	000a2703          	lw	x14,0(x20) # 0 <_Z19tensorlib_copy_implIidEiP11hb_tensor_tS1_>
  68:	00042603          	lw	x12,0(x8) # 0 <_Z19tensorlib_copy_implIidEiP11hb_tensor_tS1_>
  6c:	000009b7          	lui	x19,0x0
  70:	0009a683          	lw	x13,0(x19) # 0 <_Z19tensorlib_copy_implIidEiP11hb_tensor_tS1_>
  74:	00b28333          	add	x6,x5,x11
  78:	00c703b3          	add	x7,x14,x12
  7c:	01831513          	slli	x10,x6,0x18
  80:	01239813          	slli	x16,x7,0x12
  84:	00fc0eb7          	lui	x29,0xfc0
  88:	3f0008b7          	lui	x17,0x3f000
  8c:	000402b7          	lui	x5,0x40
  90:	01d87f33          	and	x30,x16,x29
  94:	00469f93          	slli	x31,x13,0x4
  98:	01157e33          	and	x28,x10,x17
  9c:	ff028593          	addi	x11,x5,-16 # 3fff0 <.L690+0x3f7d4>
  a0:	01ee67b3          	or	x15,x28,x30
  a4:	00bff733          	and	x14,x31,x11
  a8:	00e7e633          	or	x12,x15,x14
  ac:	800006b7          	lui	x13,0x80000
  b0:	00d66333          	or	x6,x12,x13
  b4:	410013b7          	lui	x7,0x41001
  b8:	d063a623          	sw	x6,-756(x7) # 41000d0c <.L690+0x410004f0>
  bc:	08810793          	addi	x15,x2,136
  c0:	04010e93          	addi	x29,x2,64

000000c4 <.L738>:
  c4:	0007a083          	lw	x1,0(x15)
  c8:	0047a503          	lw	x10,4(x15)
  cc:	0087a803          	lw	x16,8(x15)
  d0:	00c7a883          	lw	x17,12(x15)
  d4:	0107ae03          	lw	x28,16(x15)
  d8:	001ea023          	sw	x1,0(x29) # fc0000 <.L690+0xfbf7e4>
  dc:	00aea223          	sw	x10,4(x29)
  e0:	010ea423          	sw	x16,8(x29)
  e4:	011ea623          	sw	x17,12(x29)
  e8:	01cea823          	sw	x28,16(x29)
  ec:	01478793          	addi	x15,x15,20
  f0:	014e8e93          	addi	x29,x29,20
  f4:	fd2798e3          	bne	x15,x18,c4 <.L738>
  f8:	00010713          	mv	x14,x2

000000fc <.L739>:
  fc:	0007a903          	lw	x18,0(x15)
 100:	0047af03          	lw	x30,4(x15)
 104:	0087af83          	lw	x31,8(x15)
 108:	00c7a283          	lw	x5,12(x15)
 10c:	0107a583          	lw	x11,16(x15)
 110:	10010613          	addi	x12,x2,256
 114:	01272023          	sw	x18,0(x14)
 118:	01e72223          	sw	x30,4(x14)
 11c:	01f72423          	sw	x31,8(x14)
 120:	00572623          	sw	x5,12(x14)
 124:	00b72823          	sw	x11,16(x14)
 128:	01478793          	addi	x15,x15,20
 12c:	01470713          	addi	x14,x14,20
 130:	fcc796e3          	bne	x15,x12,fc <.L739>
 134:	00000613          	li	x12,0
 138:	00010593          	mv	x11,x2
 13c:	04010513          	addi	x10,x2,64
 140:	00000097          	auipc	x1,0x0
 144:	000080e7          	jalr	x1 # 140 <.L739+0x44>
 148:	0004a303          	lw	x6,0(x9)
 14c:	000aaa83          	lw	x21,0(x21)
 150:	000a2a03          	lw	x20,0(x20)
 154:	00042383          	lw	x7,0(x8)
 158:	0009a983          	lw	x19,0(x19)
 15c:	006a86b3          	add	x13,x21,x6
 160:	007a0533          	add	x10,x20,x7
 164:	01869813          	slli	x16,x13,0x18
 168:	01251893          	slli	x17,x10,0x12
 16c:	3f000e37          	lui	x28,0x3f000
 170:	00fc0937          	lui	x18,0xfc0
 174:	000405b7          	lui	x11,0x40
 178:	01c87eb3          	and	x29,x16,x28
 17c:	0128ff33          	and	x30,x17,x18
 180:	00499f93          	slli	x31,x19,0x4
 184:	ff058793          	addi	x15,x11,-16 # 3fff0 <.L690+0x3f7d4>
 188:	01eee2b3          	or	x5,x29,x30
 18c:	00fff733          	and	x14,x31,x15
 190:	00e2e633          	or	x12,x5,x14
 194:	c0000ab7          	lui	x21,0xc0000
 198:	01566333          	or	x6,x12,x21
 19c:	41001a37          	lui	x20,0x41001
 1a0:	d06a2623          	sw	x6,-756(x20) # 41000d0c <.L690+0x410004f0>
 1a4:	00042383          	lw	x7,0(x8)
 1a8:	0004a983          	lw	x19,0(x9)
 1ac:	00000637          	lui	x12,0x0
 1b0:	00438693          	addi	x13,x7,4
 1b4:	00060793          	mv	x15,x12
 1b8:	00d78533          	add	x10,x15,x13
 1bc:	01899813          	slli	x16,x19,0x18
 1c0:	010568b3          	or	x17,x10,x16
 1c4:	201c0e37          	lui	x28,0x201c0
 1c8:	01c8eeb3          	or	x29,x17,x28
 1cc:	00100913          	li	x18,1
 1d0:	012e8023          	sb	x18,0(x29)
 1d4:	00042f03          	lw	x30,0(x8)
 1d8:	00700f93          	li	x31,7
 1dc:	05ff0863          	beq	x30,x31,22c <.L771>

000001e0 <.L741>:
 1e0:	00100493          	li	x9,1
 1e4:	0100006f          	j	1f4 <.L754>

000001e8 <.L772>:
 1e8:	00060293          	mv	x5,x12
 1ec:	1402a32f          	lr.w.aq	x6,(x5)
 1f0:	00930863          	beq	x6,x9,200 <.L753>

000001f4 <.L754>:
 1f4:	00060a93          	mv	x21,x12
 1f8:	100aa0af          	lr.w	x1,(x21)
 1fc:	fe9096e3          	bne	x1,x9,1e8 <.L772>

00000200 <.L753>:
 200:	11c12083          	lw	x1,284(x2)
 204:	11812403          	lw	x8,280(x2)
 208:	0007a023          	sw	x0,0(x15)
 20c:	11412483          	lw	x9,276(x2)
 210:	11012903          	lw	x18,272(x2)
 214:	10c12983          	lw	x19,268(x2)
 218:	10812a03          	lw	x20,264(x2)
 21c:	10412a83          	lw	x21,260(x2)
 220:	00000513          	li	x10,0
 224:	12010113          	addi	x2,x2,288
 228:	00008067          	ret

0000022c <.L771>:
 22c:	000000b7          	lui	x1,0x0
 230:	000005b7          	lui	x11,0x0
 234:	00408293          	addi	x5,x1,4 # 4 <_Z19tensorlib_copy_implIidEiP11hb_tensor_tS1_+0x4>
 238:	01458a93          	addi	x21,x11,20 # 14 <_Z19tensorlib_copy_implIidEiP11hb_tensor_tS1_+0x14>

0000023c <.L740>:
 23c:	00028713          	mv	x14,x5

00000240 <.L743>:
 240:	00074303          	lbu	x6,0(x14)
 244:	00170713          	addi	x14,x14,1
 248:	0ff37a13          	andi	x20,x6,255
 24c:	fe0a08e3          	beqz	x20,23c <.L740>
 250:	feea98e3          	bne	x21,x14,240 <.L743>
 254:	0004a383          	lw	x7,0(x9)
 258:	231c06b7          	lui	x13,0x231c0
 25c:	00100893          	li	x17,1
 260:	01838993          	addi	x19,x7,24
 264:	01378533          	add	x10,x15,x19
 268:	00d56833          	or	x16,x10,x13
 26c:	01180023          	sb	x17,0(x16)
 270:	00042903          	lw	x18,0(x8)
 274:	00700e13          	li	x28,7
 278:	f7c914e3          	bne	x18,x28,1e0 <.L741>
 27c:	0004ae83          	lw	x29,0(x9)
 280:	00300f13          	li	x30,3
 284:	07ee8e63          	beq	x29,x30,300 <.L773>

00000288 <.L749>:
 288:	00100093          	li	x1,1
 28c:	0100006f          	j	29c <.L745>

00000290 <.L774>:
 290:	01478593          	addi	x11,x15,20
 294:	1405a72f          	lr.w.aq	x14,(x11)
 298:	00170863          	beq	x14,x1,2a8 <.L750>

0000029c <.L745>:
 29c:	01478293          	addi	x5,x15,20
 2a0:	1002a32f          	lr.w	x6,(x5)
 2a4:	fe1316e3          	bne	x6,x1,290 <.L774>

000002a8 <.L750>:
 2a8:	0007aa23          	sw	x0,20(x15)
 2ac:	00000993          	li	x19,0
 2b0:	01000a13          	li	x20,16

000002b4 <.L751>:
 2b4:	013783b3          	add	x7,x15,x19
 2b8:	00038223          	sb	x0,4(x7)
 2bc:	00198993          	addi	x19,x19,1
 2c0:	ff499ae3          	bne	x19,x20,2b4 <.L751>
 2c4:	0007a023          	sw	x0,0(x15)
 2c8:	00000f13          	li	x30,0
 2cc:	20000937          	lui	x18,0x20000
 2d0:	00100893          	li	x17,1
 2d4:	00040837          	lui	x16,0x40
 2d8:	00400537          	lui	x10,0x400

000002dc <.L752>:
 2dc:	0004ae03          	lw	x28,0(x9)
 2e0:	01e7eeb3          	or	x29,x15,x30
 2e4:	010f0f33          	add	x30,x30,x16
 2e8:	018e1f93          	slli	x31,x28,0x18
 2ec:	01dfe6b3          	or	x13,x31,x29
 2f0:	0126e433          	or	x8,x13,x18
 2f4:	01142023          	sw	x17,0(x8)
 2f8:	feaf12e3          	bne	x30,x10,2dc <.L752>
 2fc:	ee5ff06f          	j	1e0 <.L741>

00000300 <.L773>:
 300:	00000fb7          	lui	x31,0x0
 304:	000002b7          	lui	x5,0x0
 308:	018f8093          	addi	x1,x31,24 # 18 <_Z19tensorlib_copy_implIidEiP11hb_tensor_tS1_+0x18>
 30c:	02028313          	addi	x6,x5,32 # 20 <_Z19tensorlib_copy_implIidEiP11hb_tensor_tS1_+0x20>

00000310 <.L744>:
 310:	00008713          	mv	x14,x1

00000314 <.L746>:
 314:	00074583          	lbu	x11,0(x14)
 318:	00170713          	addi	x14,x14,1
 31c:	0ff5fa13          	andi	x20,x11,255
 320:	fe0a08e3          	beqz	x20,310 <.L744>
 324:	fee318e3          	bne	x6,x14,314 <.L746>
 328:	00078c23          	sb	x0,24(x15)
 32c:	00078ca3          	sb	x0,25(x15)
 330:	00078d23          	sb	x0,26(x15)
 334:	00078da3          	sb	x0,27(x15)
 338:	00078e23          	sb	x0,28(x15)
 33c:	00078ea3          	sb	x0,29(x15)
 340:	00078f23          	sb	x0,30(x15)
 344:	00078fa3          	sb	x0,31(x15)
 348:	0007aa23          	sw	x0,20(x15)
 34c:	00000693          	li	x13,0
 350:	03fc03b7          	lui	x7,0x3fc0
 354:	200009b7          	lui	x19,0x20000
 358:	00100513          	li	x10,1
 35c:	010008b7          	lui	x17,0x1000
 360:	08000837          	lui	x16,0x8000
 364:	0080006f          	j	36c <.L748>

00000368 <.L775>:
 368:	00042903          	lw	x18,0(x8)

0000036c <.L748>:
 36c:	01291913          	slli	x18,x18,0x12
 370:	00daee33          	or	x28,x21,x13
 374:	00797eb3          	and	x29,x18,x7
 378:	01ceef33          	or	x30,x29,x28
 37c:	013f6fb3          	or	x31,x30,x19
 380:	00afa023          	sw	x10,0(x31)
 384:	011686b3          	add	x13,x13,x17
 388:	ff0690e3          	bne	x13,x16,368 <.L775>
 38c:	00042403          	lw	x8,0(x8)
 390:	00700a93          	li	x21,7
 394:	ef540ae3          	beq	x8,x21,288 <.L749>
 398:	e49ff06f          	j	1e0 <.L741>

Disassembly of section .text._Z27hb_tiled_foreach_conversionIxxZ19tensorlib_copy_implIxxEiP11hb_tensor_tS2_EUlxE_Ev8HBTensorIT0_Lln1EES4_IT_Lln1EET1_:

00000000 <_Z27hb_tiled_foreach_conversionIxxZ19tensorlib_copy_implIxxEiP11hb_tensor_tS2_EUlxE_Ev8HBTensorIT0_Lln1EES4_IT_Lln1EET1_>:
   0:	00452f03          	lw	x30,4(x10) # 400004 <.L690+0x3ff7e8>
   4:	fe010113          	addi	x2,x2,-32
   8:	00812e23          	sw	x8,28(x2)
   c:	00912c23          	sw	x9,24(x2)
  10:	01212a23          	sw	x18,20(x2)
  14:	01312823          	sw	x19,16(x2)
  18:	01412623          	sw	x20,12(x2)
  1c:	00100793          	li	x15,1
  20:	00052703          	lw	x14,0(x10)
  24:	00852e83          	lw	x29,8(x10)
  28:	0085ae03          	lw	x28,8(x11)
  2c:	01052f83          	lw	x31,16(x10)
  30:	0105a283          	lw	x5,16(x11)
  34:	1cff0c63          	beq	x30,x15,20c <.L814>
  38:	00200313          	li	x6,2
  3c:	00c52383          	lw	x7,12(x10)
  40:	106f0463          	beq	x30,x6,148 <.L815>
  44:	00300413          	li	x8,3
  48:	00c5a483          	lw	x9,12(x11)
  4c:	2e8f0663          	beq	x30,x8,338 <.L816>
  50:	fff70513          	addi	x10,x14,-1
  54:	ffd00693          	li	x13,-3
  58:	0ca6ea63          	bltu	x13,x10,12c <.L777>
  5c:	00000637          	lui	x12,0x0
  60:	00062803          	lw	x16,0(x12) # 0 <_Z27hb_tiled_foreach_conversionIxxZ19tensorlib_copy_implIxxEiP11hb_tensor_tS2_EUlxE_Ev8HBTensorIT0_Lln1EES4_IT_Lln1EET1_>
  64:	00775893          	srli	x17,x14,0x7
  68:	00188913          	addi	x18,x17,1 # 1000001 <.L690+0xfff7e5>
  6c:	07f87993          	andi	x19,x16,127
  70:	03298333          	mul	x6,x19,x18
  74:	00690433          	add	x8,x18,x6
  78:	3a876463          	bltu	x14,x8,420 <.L817>

0000007c <.L799>:
  7c:	0a837863          	bgeu	x6,x8,12c <.L777>
  80:	0045a903          	lw	x18,4(x11)
  84:	002f1593          	slli	x11,x30,0x2
  88:	00b388b3          	add	x17,x7,x11
  8c:	00291a13          	slli	x20,x18,0x2
  90:	01448833          	add	x16,x9,x20

00000094 <.L804>:
  94:	280f0e63          	beqz	x30,330 <.L805>
  98:	000e8613          	mv	x12,x29
  9c:	00038793          	mv	x15,x7
  a0:	00030693          	mv	x13,x6
  a4:	00000513          	li	x10,0

000000a8 <.L801>:
  a8:	0007a583          	lw	x11,0(x15)
  ac:	00062983          	lw	x19,0(x12)
  b0:	00478793          	addi	x15,x15,4
  b4:	02b6f733          	remu	x14,x13,x11
  b8:	00460613          	addi	x12,x12,4
  bc:	03370a33          	mul	x20,x14,x19
  c0:	02b6d6b3          	divu	x13,x13,x11
  c4:	01450533          	add	x10,x10,x20
  c8:	fef890e3          	bne	x17,x15,a8 <.L801>
  cc:	00351593          	slli	x11,x10,0x3
  d0:	00bf8533          	add	x10,x31,x11

000000d4 <.L800>:
  d4:	24090a63          	beqz	x18,328 <.L806>
  d8:	000e0613          	mv	x12,x28
  dc:	00048793          	mv	x15,x9
  e0:	00030693          	mv	x13,x6
  e4:	00000993          	li	x19,0

000000e8 <.L803>:
  e8:	0007a583          	lw	x11,0(x15)
  ec:	00062a03          	lw	x20,0(x12)
  f0:	00478793          	addi	x15,x15,4
  f4:	00460613          	addi	x12,x12,4
  f8:	02b6f733          	remu	x14,x13,x11
  fc:	03470a33          	mul	x20,x14,x20
 100:	02b6d6b3          	divu	x13,x13,x11
 104:	014989b3          	add	x19,x19,x20
 108:	fef810e3          	bne	x16,x15,e8 <.L803>
 10c:	00399593          	slli	x11,x19,0x3
 110:	00b289b3          	add	x19,x5,x11

00000114 <.L802>:
 114:	0009a703          	lw	x14,0(x19) # 20000000 <.L690+0x1ffff7e4>
 118:	0049a783          	lw	x15,4(x19)
 11c:	00130313          	addi	x6,x6,1
 120:	00e52023          	sw	x14,0(x10)
 124:	00f52223          	sw	x15,4(x10)
 128:	f68316e3          	bne	x6,x8,94 <.L804>

0000012c <.L777>:
 12c:	01c12403          	lw	x8,28(x2)
 130:	01812483          	lw	x9,24(x2)
 134:	01412903          	lw	x18,20(x2)
 138:	01012983          	lw	x19,16(x2)
 13c:	00c12a03          	lw	x20,12(x2)
 140:	02010113          	addi	x2,x2,32
 144:	00008067          	ret

00000148 <.L815>:
 148:	0003a503          	lw	x10,0(x7) # 3fc0000 <.L690+0x3fbf7e4>
 14c:	ffd00893          	li	x17,-3
 150:	fff50413          	addi	x8,x10,-1
 154:	fc88ece3          	bltu	x17,x8,12c <.L777>
 158:	00000f37          	lui	x30,0x0
 15c:	000f2803          	lw	x16,0(x30) # 0 <_Z27hb_tiled_foreach_conversionIxxZ19tensorlib_copy_implIxxEiP11hb_tensor_tS2_EUlxE_Ev8HBTensorIT0_Lln1EES4_IT_Lln1EET1_>
 160:	00755493          	srli	x9,x10,0x7
 164:	00148a13          	addi	x20,x9,1
 168:	07f87313          	andi	x6,x16,127
 16c:	03430333          	mul	x6,x6,x20
 170:	006a09b3          	add	x19,x20,x6
 174:	2b356a63          	bltu	x10,x19,428 <.L818>
 178:	fb337ae3          	bgeu	x6,x19,12c <.L777>

0000017c <.L821>:
 17c:	000ea603          	lw	x12,0(x29)
 180:	000e2683          	lw	x13,0(x28) # 201c0000 <.L690+0x201bf7e4>
 184:	0043a903          	lw	x18,4(x7)
 188:	00361893          	slli	x17,x12,0x3
 18c:	00369393          	slli	x7,x13,0x3
 190:	03130733          	mul	x14,x6,x17
 194:	026387b3          	mul	x15,x7,x6
 198:	00ef8fb3          	add	x31,x31,x14
 19c:	00f282b3          	add	x5,x5,x15

000001a0 <.L790>:
 1a0:	00028613          	mv	x12,x5
 1a4:	02090e63          	beqz	x18,1e0 <.L792>
 1a8:	004ea583          	lw	x11,4(x29)
 1ac:	004e2503          	lw	x10,4(x28)
 1b0:	000f8693          	mv	x13,x31
 1b4:	00359413          	slli	x8,x11,0x3
 1b8:	00351f13          	slli	x30,x10,0x3
 1bc:	00000a13          	li	x20,0

000001c0 <.L791>:
 1c0:	00062803          	lw	x16,0(x12)
 1c4:	00462483          	lw	x9,4(x12)
 1c8:	001a0a13          	addi	x20,x20,1
 1cc:	0106a023          	sw	x16,0(x13) # 231c0000 <.L690+0x231bf7e4>
 1d0:	0096a223          	sw	x9,4(x13)
 1d4:	01e60633          	add	x12,x12,x30
 1d8:	008686b3          	add	x13,x13,x8
 1dc:	ff2a12e3          	bne	x20,x18,1c0 <.L791>

000001e0 <.L792>:
 1e0:	00130313          	addi	x6,x6,1
 1e4:	011f8fb3          	add	x31,x31,x17
 1e8:	007282b3          	add	x5,x5,x7
 1ec:	fb331ae3          	bne	x6,x19,1a0 <.L790>
 1f0:	01c12403          	lw	x8,28(x2)
 1f4:	01812483          	lw	x9,24(x2)
 1f8:	01412903          	lw	x18,20(x2)
 1fc:	01012983          	lw	x19,16(x2)
 200:	00c12a03          	lw	x20,12(x2)
 204:	02010113          	addi	x2,x2,32
 208:	00008067          	ret

0000020c <.L814>:
 20c:	fff70993          	addi	x19,x14,-1
 210:	ffd00913          	li	x18,-3
 214:	f1396ce3          	bltu	x18,x19,12c <.L777>
 218:	000008b7          	lui	x17,0x0
 21c:	0008a383          	lw	x7,0(x17) # 0 <_Z27hb_tiled_foreach_conversionIxxZ19tensorlib_copy_implIxxEiP11hb_tensor_tS2_EUlxE_Ev8HBTensorIT0_Lln1EES4_IT_Lln1EET1_>
 220:	00775793          	srli	x15,x14,0x7
 224:	00178593          	addi	x11,x15,1
 228:	07f3f513          	andi	x10,x7,127
 22c:	02b507b3          	mul	x15,x10,x11
 230:	00f58f33          	add	x30,x11,x15
 234:	0fe76663          	bltu	x14,x30,320 <.L819>

00000238 <.L780>:
 238:	efe7fae3          	bgeu	x15,x30,12c <.L777>
 23c:	000eae83          	lw	x29,0(x29)
 240:	000e2e03          	lw	x28,0(x28)
 244:	40ff0433          	sub	x8,x30,x15
 248:	003e9893          	slli	x17,x29,0x3
 24c:	003e1813          	slli	x16,x28,0x3
 250:	03178733          	mul	x14,x15,x17
 254:	00400493          	li	x9,4
 258:	03078a33          	mul	x20,x15,x16
 25c:	00ef85b3          	add	x11,x31,x14
 260:	014282b3          	add	x5,x5,x20
 264:	0884fc63          	bgeu	x9,x8,2fc <.L786>
 268:	ffcf0a13          	addi	x20,x30,-4
 26c:	0947f863          	bgeu	x15,x20,2fc <.L786>
 270:	004e1613          	slli	x12,x28,0x4
 274:	004e9693          	slli	x13,x29,0x4
 278:	00058f93          	mv	x31,x11
 27c:	005e9993          	slli	x19,x29,0x5
 280:	005e1913          	slli	x18,x28,0x5
 284:	00c28633          	add	x12,x5,x12
 288:	00d586b3          	add	x13,x11,x13

0000028c <.L785>:
 28c:	0002a503          	lw	x10,0(x5)
 290:	0042a583          	lw	x11,4(x5)
 294:	01028333          	add	x6,x5,x16
 298:	00032403          	lw	x8,0(x6)
 29c:	00432483          	lw	x9,4(x6)
 2a0:	00062e03          	lw	x28,0(x12)
 2a4:	00462e83          	lw	x29,4(x12)
 2a8:	010603b3          	add	x7,x12,x16
 2ac:	0003a303          	lw	x6,0(x7)
 2b0:	011f8733          	add	x14,x31,x17
 2b4:	0043a383          	lw	x7,4(x7)
 2b8:	00afa023          	sw	x10,0(x31)
 2bc:	00bfa223          	sw	x11,4(x31)
 2c0:	00872023          	sw	x8,0(x14)
 2c4:	00972223          	sw	x9,4(x14)
 2c8:	01c6a023          	sw	x28,0(x13)
 2cc:	01d6a223          	sw	x29,4(x13)
 2d0:	01168533          	add	x10,x13,x17
 2d4:	013f85b3          	add	x11,x31,x19
 2d8:	00652023          	sw	x6,0(x10)
 2dc:	00752223          	sw	x7,4(x10)
 2e0:	00478793          	addi	x15,x15,4
 2e4:	00058f93          	mv	x31,x11
 2e8:	012282b3          	add	x5,x5,x18
 2ec:	01260633          	add	x12,x12,x18
 2f0:	013686b3          	add	x13,x13,x19
 2f4:	f947ece3          	bltu	x15,x20,28c <.L785>
 2f8:	e3e7fae3          	bgeu	x15,x30,12c <.L777>

000002fc <.L786>:
 2fc:	0002aa03          	lw	x20,0(x5)
 300:	0042a983          	lw	x19,4(x5)
 304:	00178793          	addi	x15,x15,1
 308:	0145a023          	sw	x20,0(x11)
 30c:	0135a223          	sw	x19,4(x11)
 310:	010282b3          	add	x5,x5,x16
 314:	011585b3          	add	x11,x11,x17
 318:	ffe7e2e3          	bltu	x15,x30,2fc <.L786>
 31c:	e11ff06f          	j	12c <.L777>

00000320 <.L819>:
 320:	00070f13          	mv	x30,x14
 324:	f15ff06f          	j	238 <.L780>

00000328 <.L806>:
 328:	00028993          	mv	x19,x5
 32c:	de9ff06f          	j	114 <.L802>

00000330 <.L805>:
 330:	000f8513          	mv	x10,x31
 334:	da1ff06f          	j	d4 <.L800>

00000338 <.L816>:
 338:	0043a503          	lw	x10,4(x7)
 33c:	0003af03          	lw	x30,0(x7)
 340:	ffd00413          	li	x8,-3
 344:	03e50933          	mul	x18,x10,x30
 348:	fff90893          	addi	x17,x18,-1 # 1fffffff <.L690+0x1ffff7e3>
 34c:	df1460e3          	bltu	x8,x17,12c <.L777>
 350:	00000837          	lui	x16,0x0
 354:	00082603          	lw	x12,0(x16) # 0 <_Z27hb_tiled_foreach_conversionIxxZ19tensorlib_copy_implIxxEiP11hb_tensor_tS2_EUlxE_Ev8HBTensorIT0_Lln1EES4_IT_Lln1EET1_>
 358:	00795a13          	srli	x20,x18,0x7
 35c:	001a0693          	addi	x13,x20,1
 360:	07f67993          	andi	x19,x12,127
 364:	02d985b3          	mul	x11,x19,x13
 368:	00b688b3          	add	x17,x13,x11
 36c:	0d196463          	bltu	x18,x17,434 <.L820>

00000370 <.L794>:
 370:	db15fee3          	bgeu	x11,x17,12c <.L777>
 374:	0044a803          	lw	x16,4(x9)
 378:	004ea403          	lw	x8,4(x29)
 37c:	000eaf03          	lw	x30,0(x29)
 380:	004e2483          	lw	x9,4(x28)
 384:	000e2303          	lw	x6,0(x28)
 388:	0083a383          	lw	x7,8(x7)

0000038c <.L796>:
 38c:	02a5f7b3          	remu	x15,x11,x10
 390:	02a5d933          	divu	x18,x11,x10
 394:	0305f733          	remu	x14,x11,x16
 398:	0305da33          	divu	x20,x11,x16
 39c:	028786b3          	mul	x13,x15,x8
 3a0:	03e90633          	mul	x12,x18,x30
 3a4:	029709b3          	mul	x19,x14,x9
 3a8:	00c687b3          	add	x15,x13,x12
 3ac:	00379913          	slli	x18,x15,0x3
 3b0:	012f87b3          	add	x15,x31,x18
 3b4:	026a0733          	mul	x14,x20,x6
 3b8:	00e98a33          	add	x20,x19,x14
 3bc:	003a1693          	slli	x13,x20,0x3
 3c0:	00d28733          	add	x14,x5,x13
 3c4:	02038c63          	beqz	x7,3fc <.L798>
 3c8:	008ea603          	lw	x12,8(x29)
 3cc:	008e2983          	lw	x19,8(x28)
 3d0:	00000913          	li	x18,0
 3d4:	00361a13          	slli	x20,x12,0x3
 3d8:	00399993          	slli	x19,x19,0x3

000003dc <.L797>:
 3dc:	00072603          	lw	x12,0(x14)
 3e0:	00472683          	lw	x13,4(x14)
 3e4:	00190913          	addi	x18,x18,1
 3e8:	00c7a023          	sw	x12,0(x15)
 3ec:	00d7a223          	sw	x13,4(x15)
 3f0:	01370733          	add	x14,x14,x19
 3f4:	014787b3          	add	x15,x15,x20
 3f8:	fe7912e3          	bne	x18,x7,3dc <.L797>

000003fc <.L798>:
 3fc:	00158593          	addi	x11,x11,1
 400:	f91596e3          	bne	x11,x17,38c <.L796>
 404:	01c12403          	lw	x8,28(x2)
 408:	01812483          	lw	x9,24(x2)
 40c:	01412903          	lw	x18,20(x2)
 410:	01012983          	lw	x19,16(x2)
 414:	00c12a03          	lw	x20,12(x2)
 418:	02010113          	addi	x2,x2,32
 41c:	00008067          	ret

00000420 <.L817>:
 420:	00070413          	mv	x8,x14
 424:	c59ff06f          	j	7c <.L799>

00000428 <.L818>:
 428:	00050993          	mv	x19,x10
 42c:	d53368e3          	bltu	x6,x19,17c <.L821>
 430:	cfdff06f          	j	12c <.L777>

00000434 <.L820>:
 434:	00090893          	mv	x17,x18
 438:	f39ff06f          	j	370 <.L794>

Disassembly of section .text._Z19tensorlib_copy_implIxxEiP11hb_tensor_tS1_:

00000000 <_Z19tensorlib_copy_implIxxEiP11hb_tensor_tS1_>:
   0:	ee010113          	addi	x2,x2,-288
   4:	00050793          	mv	x15,x10
   8:	10812c23          	sw	x8,280(x2)
   c:	08810513          	addi	x10,x2,136
  10:	00058413          	mv	x8,x11
  14:	00078593          	mv	x11,x15
  18:	10112e23          	sw	x1,284(x2)
  1c:	10912a23          	sw	x9,276(x2)
  20:	11212823          	sw	x18,272(x2)
  24:	11312623          	sw	x19,268(x2)
  28:	11412423          	sw	x20,264(x2)
  2c:	11512223          	sw	x21,260(x2)
  30:	0c410913          	addi	x18,x2,196
  34:	00000097          	auipc	x1,0x0
  38:	000080e7          	jalr	x1 # 34 <_Z19tensorlib_copy_implIxxEiP11hb_tensor_tS1_+0x34>
  3c:	00040593          	mv	x11,x8
  40:	00090513          	mv	x10,x18
  44:	00000097          	auipc	x1,0x0
  48:	000080e7          	jalr	x1 # 44 <_Z19tensorlib_copy_implIxxEiP11hb_tensor_tS1_+0x44>
  4c:	00000ab7          	lui	x21,0x0
  50:	000004b7          	lui	x9,0x0
  54:	00000a37          	lui	x20,0x0
  58:	00000437          	lui	x8,0x0
  5c:	000aa283          	lw	x5,0(x21) # 0 <_Z19tensorlib_copy_implIxxEiP11hb_tensor_tS1_>
  60:	0004a583          	lw	x11,0(x9) # 0 <_Z19tensorlib_copy_implIxxEiP11hb_tensor_tS1_>
  64:	000a2703          	lw	x14,0(x20) # 0 <_Z19tensorlib_copy_implIxxEiP11hb_tensor_tS1_>
  68:	00042603          	lw	x12,0(x8) # 0 <_Z19tensorlib_copy_implIxxEiP11hb_tensor_tS1_>
  6c:	000009b7          	lui	x19,0x0
  70:	0009a683          	lw	x13,0(x19) # 0 <_Z19tensorlib_copy_implIxxEiP11hb_tensor_tS1_>
  74:	00b28333          	add	x6,x5,x11
  78:	00c703b3          	add	x7,x14,x12
  7c:	01831513          	slli	x10,x6,0x18
  80:	01239813          	slli	x16,x7,0x12
  84:	00fc0eb7          	lui	x29,0xfc0
  88:	3f0008b7          	lui	x17,0x3f000
  8c:	000402b7          	lui	x5,0x40
  90:	01d87f33          	and	x30,x16,x29
  94:	00469f93          	slli	x31,x13,0x4
  98:	01157e33          	and	x28,x10,x17
  9c:	ff028593          	addi	x11,x5,-16 # 3fff0 <.L690+0x3f7d4>
  a0:	01ee67b3          	or	x15,x28,x30
  a4:	00bff733          	and	x14,x31,x11
  a8:	00e7e633          	or	x12,x15,x14
  ac:	800006b7          	lui	x13,0x80000
  b0:	00d66333          	or	x6,x12,x13
  b4:	410013b7          	lui	x7,0x41001
  b8:	d063a623          	sw	x6,-756(x7) # 41000d0c <.L690+0x410004f0>
  bc:	08810793          	addi	x15,x2,136
  c0:	04010e93          	addi	x29,x2,64

000000c4 <.L823>:
  c4:	0007a083          	lw	x1,0(x15)
  c8:	0047a503          	lw	x10,4(x15)
  cc:	0087a803          	lw	x16,8(x15)
  d0:	00c7a883          	lw	x17,12(x15)
  d4:	0107ae03          	lw	x28,16(x15)
  d8:	001ea023          	sw	x1,0(x29) # fc0000 <.L690+0xfbf7e4>
  dc:	00aea223          	sw	x10,4(x29)
  e0:	010ea423          	sw	x16,8(x29)
  e4:	011ea623          	sw	x17,12(x29)
  e8:	01cea823          	sw	x28,16(x29)
  ec:	01478793          	addi	x15,x15,20
  f0:	014e8e93          	addi	x29,x29,20
  f4:	fd2798e3          	bne	x15,x18,c4 <.L823>
  f8:	00010713          	mv	x14,x2

000000fc <.L824>:
  fc:	0007a903          	lw	x18,0(x15)
 100:	0047af03          	lw	x30,4(x15)
 104:	0087af83          	lw	x31,8(x15)
 108:	00c7a283          	lw	x5,12(x15)
 10c:	0107a583          	lw	x11,16(x15)
 110:	10010613          	addi	x12,x2,256
 114:	01272023          	sw	x18,0(x14)
 118:	01e72223          	sw	x30,4(x14)
 11c:	01f72423          	sw	x31,8(x14)
 120:	00572623          	sw	x5,12(x14)
 124:	00b72823          	sw	x11,16(x14)
 128:	01478793          	addi	x15,x15,20
 12c:	01470713          	addi	x14,x14,20
 130:	fcc796e3          	bne	x15,x12,fc <.L824>
 134:	00000613          	li	x12,0
 138:	00010593          	mv	x11,x2
 13c:	04010513          	addi	x10,x2,64
 140:	00000097          	auipc	x1,0x0
 144:	000080e7          	jalr	x1 # 140 <.L824+0x44>
 148:	0004a303          	lw	x6,0(x9)
 14c:	000aaa83          	lw	x21,0(x21)
 150:	000a2a03          	lw	x20,0(x20)
 154:	00042383          	lw	x7,0(x8)
 158:	0009a983          	lw	x19,0(x19)
 15c:	006a86b3          	add	x13,x21,x6
 160:	007a0533          	add	x10,x20,x7
 164:	01869813          	slli	x16,x13,0x18
 168:	01251893          	slli	x17,x10,0x12
 16c:	3f000e37          	lui	x28,0x3f000
 170:	00fc0937          	lui	x18,0xfc0
 174:	000405b7          	lui	x11,0x40
 178:	01c87eb3          	and	x29,x16,x28
 17c:	0128ff33          	and	x30,x17,x18
 180:	00499f93          	slli	x31,x19,0x4
 184:	ff058793          	addi	x15,x11,-16 # 3fff0 <.L690+0x3f7d4>
 188:	01eee2b3          	or	x5,x29,x30
 18c:	00fff733          	and	x14,x31,x15
 190:	00e2e633          	or	x12,x5,x14
 194:	c0000ab7          	lui	x21,0xc0000
 198:	01566333          	or	x6,x12,x21
 19c:	41001a37          	lui	x20,0x41001
 1a0:	d06a2623          	sw	x6,-756(x20) # 41000d0c <.L690+0x410004f0>
 1a4:	00042383          	lw	x7,0(x8)
 1a8:	0004a983          	lw	x19,0(x9)
 1ac:	00000637          	lui	x12,0x0
 1b0:	00438693          	addi	x13,x7,4
 1b4:	00060793          	mv	x15,x12
 1b8:	00d78533          	add	x10,x15,x13
 1bc:	01899813          	slli	x16,x19,0x18
 1c0:	010568b3          	or	x17,x10,x16
 1c4:	201c0e37          	lui	x28,0x201c0
 1c8:	01c8eeb3          	or	x29,x17,x28
 1cc:	00100913          	li	x18,1
 1d0:	012e8023          	sb	x18,0(x29)
 1d4:	00042f03          	lw	x30,0(x8)
 1d8:	00700f93          	li	x31,7
 1dc:	05ff0863          	beq	x30,x31,22c <.L856>

000001e0 <.L826>:
 1e0:	00100493          	li	x9,1
 1e4:	0100006f          	j	1f4 <.L839>

000001e8 <.L857>:
 1e8:	00060293          	mv	x5,x12
 1ec:	1402a32f          	lr.w.aq	x6,(x5)
 1f0:	00930863          	beq	x6,x9,200 <.L838>

000001f4 <.L839>:
 1f4:	00060a93          	mv	x21,x12
 1f8:	100aa0af          	lr.w	x1,(x21)
 1fc:	fe9096e3          	bne	x1,x9,1e8 <.L857>

00000200 <.L838>:
 200:	11c12083          	lw	x1,284(x2)
 204:	11812403          	lw	x8,280(x2)
 208:	0007a023          	sw	x0,0(x15)
 20c:	11412483          	lw	x9,276(x2)
 210:	11012903          	lw	x18,272(x2)
 214:	10c12983          	lw	x19,268(x2)
 218:	10812a03          	lw	x20,264(x2)
 21c:	10412a83          	lw	x21,260(x2)
 220:	00000513          	li	x10,0
 224:	12010113          	addi	x2,x2,288
 228:	00008067          	ret

0000022c <.L856>:
 22c:	000000b7          	lui	x1,0x0
 230:	000005b7          	lui	x11,0x0
 234:	00408293          	addi	x5,x1,4 # 4 <_Z19tensorlib_copy_implIxxEiP11hb_tensor_tS1_+0x4>
 238:	01458a93          	addi	x21,x11,20 # 14 <_Z19tensorlib_copy_implIxxEiP11hb_tensor_tS1_+0x14>

0000023c <.L825>:
 23c:	00028713          	mv	x14,x5

00000240 <.L828>:
 240:	00074303          	lbu	x6,0(x14)
 244:	00170713          	addi	x14,x14,1
 248:	0ff37a13          	andi	x20,x6,255
 24c:	fe0a08e3          	beqz	x20,23c <.L825>
 250:	feea98e3          	bne	x21,x14,240 <.L828>
 254:	0004a383          	lw	x7,0(x9)
 258:	231c06b7          	lui	x13,0x231c0
 25c:	00100893          	li	x17,1
 260:	01838993          	addi	x19,x7,24
 264:	01378533          	add	x10,x15,x19
 268:	00d56833          	or	x16,x10,x13
 26c:	01180023          	sb	x17,0(x16)
 270:	00042903          	lw	x18,0(x8)
 274:	00700e13          	li	x28,7
 278:	f7c914e3          	bne	x18,x28,1e0 <.L826>
 27c:	0004ae83          	lw	x29,0(x9)
 280:	00300f13          	li	x30,3
 284:	07ee8e63          	beq	x29,x30,300 <.L858>

00000288 <.L834>:
 288:	00100093          	li	x1,1
 28c:	0100006f          	j	29c <.L830>

00000290 <.L859>:
 290:	01478593          	addi	x11,x15,20
 294:	1405a72f          	lr.w.aq	x14,(x11)
 298:	00170863          	beq	x14,x1,2a8 <.L835>

0000029c <.L830>:
 29c:	01478293          	addi	x5,x15,20
 2a0:	1002a32f          	lr.w	x6,(x5)
 2a4:	fe1316e3          	bne	x6,x1,290 <.L859>

000002a8 <.L835>:
 2a8:	0007aa23          	sw	x0,20(x15)
 2ac:	00000993          	li	x19,0
 2b0:	01000a13          	li	x20,16

000002b4 <.L836>:
 2b4:	013783b3          	add	x7,x15,x19
 2b8:	00038223          	sb	x0,4(x7)
 2bc:	00198993          	addi	x19,x19,1
 2c0:	ff499ae3          	bne	x19,x20,2b4 <.L836>
 2c4:	0007a023          	sw	x0,0(x15)
 2c8:	00000f13          	li	x30,0
 2cc:	20000937          	lui	x18,0x20000
 2d0:	00100893          	li	x17,1
 2d4:	00040837          	lui	x16,0x40
 2d8:	00400537          	lui	x10,0x400

000002dc <.L837>:
 2dc:	0004ae03          	lw	x28,0(x9)
 2e0:	01e7eeb3          	or	x29,x15,x30
 2e4:	010f0f33          	add	x30,x30,x16
 2e8:	018e1f93          	slli	x31,x28,0x18
 2ec:	01dfe6b3          	or	x13,x31,x29
 2f0:	0126e433          	or	x8,x13,x18
 2f4:	01142023          	sw	x17,0(x8)
 2f8:	feaf12e3          	bne	x30,x10,2dc <.L837>
 2fc:	ee5ff06f          	j	1e0 <.L826>

00000300 <.L858>:
 300:	00000fb7          	lui	x31,0x0
 304:	000002b7          	lui	x5,0x0
 308:	018f8093          	addi	x1,x31,24 # 18 <_Z19tensorlib_copy_implIxxEiP11hb_tensor_tS1_+0x18>
 30c:	02028313          	addi	x6,x5,32 # 20 <_Z19tensorlib_copy_implIxxEiP11hb_tensor_tS1_+0x20>

00000310 <.L829>:
 310:	00008713          	mv	x14,x1

00000314 <.L831>:
 314:	00074583          	lbu	x11,0(x14)
 318:	00170713          	addi	x14,x14,1
 31c:	0ff5fa13          	andi	x20,x11,255
 320:	fe0a08e3          	beqz	x20,310 <.L829>
 324:	fee318e3          	bne	x6,x14,314 <.L831>
 328:	00078c23          	sb	x0,24(x15)
 32c:	00078ca3          	sb	x0,25(x15)
 330:	00078d23          	sb	x0,26(x15)
 334:	00078da3          	sb	x0,27(x15)
 338:	00078e23          	sb	x0,28(x15)
 33c:	00078ea3          	sb	x0,29(x15)
 340:	00078f23          	sb	x0,30(x15)
 344:	00078fa3          	sb	x0,31(x15)
 348:	0007aa23          	sw	x0,20(x15)
 34c:	00000693          	li	x13,0
 350:	03fc03b7          	lui	x7,0x3fc0
 354:	200009b7          	lui	x19,0x20000
 358:	00100513          	li	x10,1
 35c:	010008b7          	lui	x17,0x1000
 360:	08000837          	lui	x16,0x8000
 364:	0080006f          	j	36c <.L833>

00000368 <.L860>:
 368:	00042903          	lw	x18,0(x8)

0000036c <.L833>:
 36c:	01291913          	slli	x18,x18,0x12
 370:	00daee33          	or	x28,x21,x13
 374:	00797eb3          	and	x29,x18,x7
 378:	01ceef33          	or	x30,x29,x28
 37c:	013f6fb3          	or	x31,x30,x19
 380:	00afa023          	sw	x10,0(x31)
 384:	011686b3          	add	x13,x13,x17
 388:	ff0690e3          	bne	x13,x16,368 <.L860>
 38c:	00042403          	lw	x8,0(x8)
 390:	00700a93          	li	x21,7
 394:	ef540ae3          	beq	x8,x21,288 <.L834>
 398:	e49ff06f          	j	1e0 <.L826>

Disassembly of section .text._Z27hb_tiled_foreach_conversionIxfZ19tensorlib_copy_implIxfEiP11hb_tensor_tS2_EUlxE_Ev8HBTensorIT0_Lln1EES4_IT_Lln1EET1_:

00000000 <_Z27hb_tiled_foreach_conversionIxfZ19tensorlib_copy_implIxfEiP11hb_tensor_tS2_EUlxE_Ev8HBTensorIT0_Lln1EES4_IT_Lln1EET1_>:
   0:	fa010113          	addi	x2,x2,-96
   4:	05312623          	sw	x19,76(x2)
   8:	00452983          	lw	x19,4(x10) # 400004 <.L690+0x3ff7e8>
   c:	05412423          	sw	x20,72(x2)
  10:	05512223          	sw	x21,68(x2)
  14:	05612023          	sw	x22,64(x2)
  18:	03712e23          	sw	x23,60(x2)
  1c:	04112e23          	sw	x1,92(x2)
  20:	04812c23          	sw	x8,88(x2)
  24:	04912a23          	sw	x9,84(x2)
  28:	05212823          	sw	x18,80(x2)
  2c:	03812c23          	sw	x24,56(x2)
  30:	03912a23          	sw	x25,52(x2)
  34:	03a12823          	sw	x26,48(x2)
  38:	03b12623          	sw	x27,44(x2)
  3c:	00100793          	li	x15,1
  40:	00052703          	lw	x14,0(x10)
  44:	00852a83          	lw	x21,8(x10)
  48:	0085aa03          	lw	x20,8(x11)
  4c:	01052b83          	lw	x23,16(x10)
  50:	0105ab03          	lw	x22,16(x11)
  54:	20f98063          	beq	x19,x15,254 <.L899>
  58:	00200093          	li	x1,2
  5c:	00c52403          	lw	x8,12(x10)
  60:	12198a63          	beq	x19,x1,194 <.L900>
  64:	00300293          	li	x5,3
  68:	00c5a483          	lw	x9,12(x11)
  6c:	36598063          	beq	x19,x5,3cc <.L901>
  70:	fff70313          	addi	x6,x14,-1
  74:	ffd00693          	li	x13,-3
  78:	0e66e063          	bltu	x13,x6,158 <.L862>
  7c:	000003b7          	lui	x7,0x0
  80:	0003ad83          	lw	x27,0(x7) # 0 <_Z27hb_tiled_foreach_conversionIxfZ19tensorlib_copy_implIxfEiP11hb_tensor_tS2_EUlxE_Ev8HBTensorIT0_Lln1EES4_IT_Lln1EET1_>
  84:	00775913          	srli	x18,x14,0x7
  88:	00190513          	addi	x10,x18,1 # 20000001 <.L690+0x1ffff7e5>
  8c:	07fdf613          	andi	x12,x27,127
  90:	02a60db3          	mul	x27,x12,x10
  94:	01b50933          	add	x18,x10,x27
  98:	45276063          	bltu	x14,x18,4d8 <.L902>

0000009c <.L884>:
  9c:	0b2dfe63          	bgeu	x27,x18,158 <.L862>
  a0:	0045a583          	lw	x11,4(x11)
  a4:	00299d13          	slli	x26,x19,0x2
  a8:	01a40d33          	add	x26,x8,x26
  ac:	00259c93          	slli	x25,x11,0x2
  b0:	00b12023          	sw	x11,0(x2)
  b4:	01948cb3          	add	x25,x9,x25

000000b8 <.L889>:
  b8:	30098663          	beqz	x19,3c4 <.L890>
  bc:	000a8f13          	mv	x30,x21
  c0:	00040e13          	mv	x28,x8
  c4:	000d8793          	mv	x15,x27
  c8:	00000713          	li	x14,0

000000cc <.L886>:
  cc:	000e2803          	lw	x16,0(x28) # 201c0000 <.L690+0x201bf7e4>
  d0:	000f2883          	lw	x17,0(x30)
  d4:	004e0e13          	addi	x28,x28,4
  d8:	0307feb3          	remu	x29,x15,x16
  dc:	004f0f13          	addi	x30,x30,4
  e0:	031e8fb3          	mul	x31,x29,x17
  e4:	0307d7b3          	divu	x15,x15,x16
  e8:	01f70733          	add	x14,x14,x31
  ec:	ffcd10e3          	bne	x26,x28,cc <.L886>
  f0:	00271093          	slli	x1,x14,0x2
  f4:	001b8c33          	add	x24,x23,x1

000000f8 <.L885>:
  f8:	00012283          	lw	x5,0(x2)
  fc:	2c028063          	beqz	x5,3bc <.L891>
 100:	000a0613          	mv	x12,x20
 104:	00048813          	mv	x16,x9
 108:	000d8693          	mv	x13,x27
 10c:	00000513          	li	x10,0

00000110 <.L888>:
 110:	00082383          	lw	x7,0(x16) # 8000000 <.L690+0x7fff7e4>
 114:	00062583          	lw	x11,0(x12) # 0 <_Z27hb_tiled_foreach_conversionIxfZ19tensorlib_copy_implIxfEiP11hb_tensor_tS2_EUlxE_Ev8HBTensorIT0_Lln1EES4_IT_Lln1EET1_>
 118:	00480813          	addi	x16,x16,4
 11c:	00460613          	addi	x12,x12,4
 120:	0276f8b3          	remu	x17,x13,x7
 124:	02b88e33          	mul	x28,x17,x11
 128:	0276d6b3          	divu	x13,x13,x7
 12c:	01c50533          	add	x10,x10,x28
 130:	ff0c90e3          	bne	x25,x16,110 <.L888>
 134:	00351e93          	slli	x29,x10,0x3
 138:	01db0333          	add	x6,x22,x29

0000013c <.L887>:
 13c:	00432583          	lw	x11,4(x6)
 140:	00032503          	lw	x10,0(x6)
 144:	001d8d93          	addi	x27,x27,1
 148:	00000097          	auipc	x1,0x0
 14c:	000080e7          	jalr	x1 # 148 <.L887+0xc>
 150:	00ac2027          	fsw	f10,0(x24)
 154:	f72d92e3          	bne	x27,x18,b8 <.L889>

00000158 <.L862>:
 158:	05c12083          	lw	x1,92(x2)
 15c:	05812403          	lw	x8,88(x2)
 160:	05412483          	lw	x9,84(x2)
 164:	05012903          	lw	x18,80(x2)
 168:	04c12983          	lw	x19,76(x2)
 16c:	04812a03          	lw	x20,72(x2)
 170:	04412a83          	lw	x21,68(x2)
 174:	04012b03          	lw	x22,64(x2)
 178:	03c12b83          	lw	x23,60(x2)
 17c:	03812c03          	lw	x24,56(x2)
 180:	03412c83          	lw	x25,52(x2)
 184:	03012d03          	lw	x26,48(x2)
 188:	02c12d83          	lw	x27,44(x2)
 18c:	06010113          	addi	x2,x2,96
 190:	00008067          	ret

00000194 <.L900>:
 194:	00042903          	lw	x18,0(x8)
 198:	ffd00c13          	li	x24,-3
 19c:	fff90613          	addi	x12,x18,-1
 1a0:	facc6ce3          	bltu	x24,x12,158 <.L862>
 1a4:	00000e37          	lui	x28,0x0
 1a8:	000e2503          	lw	x10,0(x28) # 0 <_Z27hb_tiled_foreach_conversionIxfZ19tensorlib_copy_implIxfEiP11hb_tensor_tS2_EUlxE_Ev8HBTensorIT0_Lln1EES4_IT_Lln1EET1_>
 1ac:	00795693          	srli	x13,x18,0x7
 1b0:	00168e93          	addi	x29,x13,1 # 231c0001 <.L690+0x231bf7e5>
 1b4:	07f57f13          	andi	x30,x10,127
 1b8:	03df0c33          	mul	x24,x30,x29
 1bc:	018e8cb3          	add	x25,x29,x24
 1c0:	33996063          	bltu	x18,x25,4e0 <.L903>
 1c4:	f99c7ae3          	bgeu	x24,x25,158 <.L862>

000001c8 <.L906>:
 1c8:	000aaf83          	lw	x31,0(x21) # c0000000 <.L690+0xbffff7e4>
 1cc:	000a2703          	lw	x14,0(x20)
 1d0:	00442983          	lw	x19,4(x8)
 1d4:	002f9793          	slli	x15,x31,0x2
 1d8:	00371093          	slli	x1,x14,0x3
 1dc:	02fc02b3          	mul	x5,x24,x15
 1e0:	00f12423          	sw	x15,8(x2)
 1e4:	00112023          	sw	x1,0(x2)
 1e8:	021c0333          	mul	x6,x24,x1
 1ec:	005b8bb3          	add	x23,x23,x5
 1f0:	006b0b33          	add	x22,x22,x6

000001f4 <.L875>:
 1f4:	000b0413          	mv	x8,x22
 1f8:	04098063          	beqz	x19,238 <.L877>
 1fc:	004aa383          	lw	x7,4(x21)
 200:	004a2583          	lw	x11,4(x20)
 204:	000b8d93          	mv	x27,x23
 208:	00239913          	slli	x18,x7,0x2
 20c:	00359493          	slli	x9,x11,0x3
 210:	00000d13          	li	x26,0

00000214 <.L876>:
 214:	00042503          	lw	x10,0(x8)
 218:	00442583          	lw	x11,4(x8)
 21c:	001d0d13          	addi	x26,x26,1
 220:	00940433          	add	x8,x8,x9
 224:	00000097          	auipc	x1,0x0
 228:	000080e7          	jalr	x1 # 224 <.L876+0x10>
 22c:	00ada027          	fsw	f10,0(x27)
 230:	012d8db3          	add	x27,x27,x18
 234:	ff3d10e3          	bne	x26,x19,214 <.L876>

00000238 <.L877>:
 238:	00812803          	lw	x16,8(x2)
 23c:	00012883          	lw	x17,0(x2)
 240:	001c0c13          	addi	x24,x24,1
 244:	010b8bb3          	add	x23,x23,x16
 248:	011b0b33          	add	x22,x22,x17
 24c:	fb9c14e3          	bne	x24,x25,1f4 <.L875>
 250:	f09ff06f          	j	158 <.L862>

00000254 <.L899>:
 254:	fff70613          	addi	x12,x14,-1
 258:	ffd00e13          	li	x28,-3
 25c:	eece6ee3          	bltu	x28,x12,158 <.L862>
 260:	00000537          	lui	x10,0x0
 264:	00052683          	lw	x13,0(x10) # 0 <_Z27hb_tiled_foreach_conversionIxfZ19tensorlib_copy_implIxfEiP11hb_tensor_tS2_EUlxE_Ev8HBTensorIT0_Lln1EES4_IT_Lln1EET1_>
 268:	00775e93          	srli	x29,x14,0x7
 26c:	001e8f13          	addi	x30,x29,1
 270:	07f6fc93          	andi	x25,x13,127
 274:	03ec8433          	mul	x8,x25,x30
 278:	008f09b3          	add	x19,x30,x8
 27c:	13376c63          	bltu	x14,x19,3b4 <.L904>

00000280 <.L865>:
 280:	ed347ce3          	bgeu	x8,x19,158 <.L862>
 284:	000aaf83          	lw	x31,0(x21)
 288:	000a2083          	lw	x1,0(x20)
 28c:	408987b3          	sub	x15,x19,x8
 290:	002f9a93          	slli	x21,x31,0x2
 294:	00309a13          	slli	x20,x1,0x3
 298:	035402b3          	mul	x5,x8,x21
 29c:	00400713          	li	x14,4
 2a0:	03440333          	mul	x6,x8,x20
 2a4:	005b84b3          	add	x9,x23,x5
 2a8:	006b0b33          	add	x22,x22,x6
 2ac:	0ef77063          	bgeu	x14,x15,38c <.L871>
 2b0:	ffc98393          	addi	x7,x19,-4 # 1ffffffc <.L690+0x1ffff7e0>
 2b4:	00712a23          	sw	x7,20(x2)
 2b8:	0c747a63          	bgeu	x8,x7,38c <.L871>
 2bc:	00409593          	slli	x11,x1,0x4
 2c0:	003f9913          	slli	x18,x31,0x3
 2c4:	00048b93          	mv	x23,x9
 2c8:	004f9693          	slli	x13,x31,0x4
 2cc:	00509d13          	slli	x26,x1,0x5
 2d0:	00bb0db3          	add	x27,x22,x11
 2d4:	01248933          	add	x18,x9,x18

000002d8 <.L870>:
 2d8:	014b04b3          	add	x9,x22,x20
 2dc:	0044a883          	lw	x17,4(x9)
 2e0:	000b2503          	lw	x10,0(x22)
 2e4:	004b2583          	lw	x11,4(x22)
 2e8:	0004ac03          	lw	x24,0(x9)
 2ec:	014d8833          	add	x16,x27,x20
 2f0:	00082483          	lw	x9,0(x16)
 2f4:	00482c83          	lw	x25,4(x16)
 2f8:	00d12823          	sw	x13,16(x2)
 2fc:	01112623          	sw	x17,12(x2)
 300:	01812423          	sw	x24,8(x2)
 304:	00000097          	auipc	x1,0x0
 308:	000080e7          	jalr	x1 # 304 <.L870+0x2c>
 30c:	000da603          	lw	x12,0(x27)
 310:	004dae03          	lw	x28,4(x27)
 314:	00812503          	lw	x10,8(x2)
 318:	00c12583          	lw	x11,12(x2)
 31c:	00aba027          	fsw	f10,0(x23)
 320:	00c12023          	sw	x12,0(x2)
 324:	01c12223          	sw	x28,4(x2)
 328:	00000097          	auipc	x1,0x0
 32c:	000080e7          	jalr	x1 # 328 <.L870+0x50>
 330:	00012503          	lw	x10,0(x2)
 334:	00412583          	lw	x11,4(x2)
 338:	015b8eb3          	add	x29,x23,x21
 33c:	00aea027          	fsw	f10,0(x29)
 340:	00000097          	auipc	x1,0x0
 344:	000080e7          	jalr	x1 # 340 <.L870+0x68>
 348:	00048513          	mv	x10,x9
 34c:	00a92027          	fsw	f10,0(x18)
 350:	000c8593          	mv	x11,x25
 354:	00000097          	auipc	x1,0x0
 358:	000080e7          	jalr	x1 # 354 <.L870+0x7c>
 35c:	01012683          	lw	x13,16(x2)
 360:	01412f03          	lw	x30,20(x2)
 364:	01590c33          	add	x24,x18,x21
 368:	00db84b3          	add	x9,x23,x13
 36c:	00440413          	addi	x8,x8,4
 370:	00ac2027          	fsw	f10,0(x24)
 374:	00048b93          	mv	x23,x9
 378:	01ab0b33          	add	x22,x22,x26
 37c:	01ad8db3          	add	x27,x27,x26
 380:	00d90933          	add	x18,x18,x13
 384:	f5e46ae3          	bltu	x8,x30,2d8 <.L870>
 388:	dd3478e3          	bgeu	x8,x19,158 <.L862>

0000038c <.L871>:
 38c:	000b2503          	lw	x10,0(x22)
 390:	004b2583          	lw	x11,4(x22)
 394:	00140413          	addi	x8,x8,1
 398:	014b0b33          	add	x22,x22,x20
 39c:	00000097          	auipc	x1,0x0
 3a0:	000080e7          	jalr	x1 # 39c <.L871+0x10>
 3a4:	00a4a027          	fsw	f10,0(x9)
 3a8:	015484b3          	add	x9,x9,x21
 3ac:	ff3460e3          	bltu	x8,x19,38c <.L871>
 3b0:	da9ff06f          	j	158 <.L862>

000003b4 <.L904>:
 3b4:	00070993          	mv	x19,x14
 3b8:	ec9ff06f          	j	280 <.L865>

000003bc <.L891>:
 3bc:	000b0313          	mv	x6,x22
 3c0:	d7dff06f          	j	13c <.L887>

000003c4 <.L890>:
 3c4:	000b8c13          	mv	x24,x23
 3c8:	d31ff06f          	j	f8 <.L885>

000003cc <.L901>:
 3cc:	00442c03          	lw	x24,4(x8)
 3d0:	00042983          	lw	x19,0(x8)
 3d4:	ffd00913          	li	x18,-3
 3d8:	033c0cb3          	mul	x25,x24,x19
 3dc:	fffc8d13          	addi	x26,x25,-1
 3e0:	d7a96ce3          	bltu	x18,x26,158 <.L862>
 3e4:	00000f37          	lui	x30,0x0
 3e8:	000f2f83          	lw	x31,0(x30) # 0 <_Z27hb_tiled_foreach_conversionIxfZ19tensorlib_copy_implIxfEiP11hb_tensor_tS2_EUlxE_Ev8HBTensorIT0_Lln1EES4_IT_Lln1EET1_>
 3ec:	007cd793          	srli	x15,x25,0x7
 3f0:	00178713          	addi	x14,x15,1
 3f4:	07fff093          	andi	x1,x31,127
 3f8:	02e089b3          	mul	x19,x1,x14
 3fc:	013702b3          	add	x5,x14,x19
 400:	00512023          	sw	x5,0(x2)
 404:	0e5ce463          	bltu	x25,x5,4ec <.L905>

00000408 <.L879>:
 408:	00012303          	lw	x6,0(x2)
 40c:	d469f6e3          	bgeu	x19,x6,158 <.L862>
 410:	004aa383          	lw	x7,4(x21)
 414:	000aa583          	lw	x11,0(x21)
 418:	0044a483          	lw	x9,4(x9)
 41c:	004a2803          	lw	x16,4(x20)
 420:	000a2883          	lw	x17,0(x20)
 424:	00842903          	lw	x18,8(x8)
 428:	00712423          	sw	x7,8(x2)
 42c:	00b12823          	sw	x11,16(x2)
 430:	00912a23          	sw	x9,20(x2)
 434:	01012c23          	sw	x16,24(x2)
 438:	01112e23          	sw	x17,28(x2)

0000043c <.L881>:
 43c:	01412e03          	lw	x28,20(x2)
 440:	0389f433          	remu	x8,x19,x24
 444:	01012c83          	lw	x25,16(x2)
 448:	00812e83          	lw	x29,8(x2)
 44c:	01812f03          	lw	x30,24(x2)
 450:	01c12283          	lw	x5,28(x2)
 454:	0389d633          	divu	x12,x19,x24
 458:	03c9f533          	remu	x10,x19,x28
 45c:	03c9d6b3          	divu	x13,x19,x28
 460:	03960d33          	mul	x26,x12,x25
 464:	03d40db3          	mul	x27,x8,x29
 468:	03e50fb3          	mul	x31,x10,x30
 46c:	01ad87b3          	add	x15,x27,x26
 470:	00279713          	slli	x14,x15,0x2
 474:	00eb80b3          	add	x1,x23,x14
 478:	02568333          	mul	x6,x13,x5
 47c:	006f83b3          	add	x7,x31,x6
 480:	00339593          	slli	x11,x7,0x3
 484:	00bb0cb3          	add	x25,x22,x11
 488:	04090063          	beqz	x18,4c8 <.L883>
 48c:	008aa483          	lw	x9,8(x21)
 490:	008a2803          	lw	x16,8(x20)
 494:	00008d13          	mv	x26,x1
 498:	00249493          	slli	x9,x9,0x2
 49c:	00381413          	slli	x8,x16,0x3
 4a0:	00000d93          	li	x27,0

000004a4 <.L882>:
 4a4:	000ca503          	lw	x10,0(x25)
 4a8:	004ca583          	lw	x11,4(x25)
 4ac:	001d8d93          	addi	x27,x27,1
 4b0:	008c8cb3          	add	x25,x25,x8
 4b4:	00000097          	auipc	x1,0x0
 4b8:	000080e7          	jalr	x1 # 4b4 <.L882+0x10>
 4bc:	00ad2027          	fsw	f10,0(x26)
 4c0:	009d0d33          	add	x26,x26,x9
 4c4:	ff2d90e3          	bne	x27,x18,4a4 <.L882>

000004c8 <.L883>:
 4c8:	00012883          	lw	x17,0(x2)
 4cc:	00198993          	addi	x19,x19,1
 4d0:	f71996e3          	bne	x19,x17,43c <.L881>
 4d4:	c85ff06f          	j	158 <.L862>

000004d8 <.L902>:
 4d8:	00070913          	mv	x18,x14
 4dc:	bc1ff06f          	j	9c <.L884>

000004e0 <.L903>:
 4e0:	00090c93          	mv	x25,x18
 4e4:	cf9c62e3          	bltu	x24,x25,1c8 <.L906>
 4e8:	c71ff06f          	j	158 <.L862>

000004ec <.L905>:
 4ec:	01912023          	sw	x25,0(x2)
 4f0:	f19ff06f          	j	408 <.L879>

Disassembly of section .text._Z19tensorlib_copy_implIxfEiP11hb_tensor_tS1_:

00000000 <_Z19tensorlib_copy_implIxfEiP11hb_tensor_tS1_>:
   0:	ee010113          	addi	x2,x2,-288
   4:	00050793          	mv	x15,x10
   8:	10812c23          	sw	x8,280(x2)
   c:	08810513          	addi	x10,x2,136
  10:	00058413          	mv	x8,x11
  14:	00078593          	mv	x11,x15
  18:	10112e23          	sw	x1,284(x2)
  1c:	10912a23          	sw	x9,276(x2)
  20:	11212823          	sw	x18,272(x2)
  24:	11312623          	sw	x19,268(x2)
  28:	11412423          	sw	x20,264(x2)
  2c:	11512223          	sw	x21,260(x2)
  30:	0c410913          	addi	x18,x2,196
  34:	00000097          	auipc	x1,0x0
  38:	000080e7          	jalr	x1 # 34 <_Z19tensorlib_copy_implIxfEiP11hb_tensor_tS1_+0x34>
  3c:	00040593          	mv	x11,x8
  40:	00090513          	mv	x10,x18
  44:	00000097          	auipc	x1,0x0
  48:	000080e7          	jalr	x1 # 44 <_Z19tensorlib_copy_implIxfEiP11hb_tensor_tS1_+0x44>
  4c:	00000ab7          	lui	x21,0x0
  50:	000004b7          	lui	x9,0x0
  54:	00000a37          	lui	x20,0x0
  58:	00000437          	lui	x8,0x0
  5c:	000aa283          	lw	x5,0(x21) # 0 <_Z19tensorlib_copy_implIxfEiP11hb_tensor_tS1_>
  60:	0004a583          	lw	x11,0(x9) # 0 <_Z19tensorlib_copy_implIxfEiP11hb_tensor_tS1_>
  64:	000a2703          	lw	x14,0(x20) # 0 <_Z19tensorlib_copy_implIxfEiP11hb_tensor_tS1_>
  68:	00042603          	lw	x12,0(x8) # 0 <_Z19tensorlib_copy_implIxfEiP11hb_tensor_tS1_>
  6c:	000009b7          	lui	x19,0x0
  70:	0009a683          	lw	x13,0(x19) # 0 <_Z19tensorlib_copy_implIxfEiP11hb_tensor_tS1_>
  74:	00b28333          	add	x6,x5,x11
  78:	00c703b3          	add	x7,x14,x12
  7c:	01831513          	slli	x10,x6,0x18
  80:	01239813          	slli	x16,x7,0x12
  84:	00fc0eb7          	lui	x29,0xfc0
  88:	3f0008b7          	lui	x17,0x3f000
  8c:	000402b7          	lui	x5,0x40
  90:	01d87f33          	and	x30,x16,x29
  94:	00469f93          	slli	x31,x13,0x4
  98:	01157e33          	and	x28,x10,x17
  9c:	ff028593          	addi	x11,x5,-16 # 3fff0 <.L690+0x3f7d4>
  a0:	01ee67b3          	or	x15,x28,x30
  a4:	00bff733          	and	x14,x31,x11
  a8:	00e7e633          	or	x12,x15,x14
  ac:	800006b7          	lui	x13,0x80000
  b0:	00d66333          	or	x6,x12,x13
  b4:	410013b7          	lui	x7,0x41001
  b8:	d063a623          	sw	x6,-756(x7) # 41000d0c <.L690+0x410004f0>
  bc:	08810793          	addi	x15,x2,136
  c0:	04010e93          	addi	x29,x2,64

000000c4 <.L908>:
  c4:	0007a083          	lw	x1,0(x15)
  c8:	0047a503          	lw	x10,4(x15)
  cc:	0087a803          	lw	x16,8(x15)
  d0:	00c7a883          	lw	x17,12(x15)
  d4:	0107ae03          	lw	x28,16(x15)
  d8:	001ea023          	sw	x1,0(x29) # fc0000 <.L690+0xfbf7e4>
  dc:	00aea223          	sw	x10,4(x29)
  e0:	010ea423          	sw	x16,8(x29)
  e4:	011ea623          	sw	x17,12(x29)
  e8:	01cea823          	sw	x28,16(x29)
  ec:	01478793          	addi	x15,x15,20
  f0:	014e8e93          	addi	x29,x29,20
  f4:	fd2798e3          	bne	x15,x18,c4 <.L908>
  f8:	00010713          	mv	x14,x2

000000fc <.L909>:
  fc:	0007a903          	lw	x18,0(x15)
 100:	0047af03          	lw	x30,4(x15)
 104:	0087af83          	lw	x31,8(x15)
 108:	00c7a283          	lw	x5,12(x15)
 10c:	0107a583          	lw	x11,16(x15)
 110:	10010613          	addi	x12,x2,256
 114:	01272023          	sw	x18,0(x14)
 118:	01e72223          	sw	x30,4(x14)
 11c:	01f72423          	sw	x31,8(x14)
 120:	00572623          	sw	x5,12(x14)
 124:	00b72823          	sw	x11,16(x14)
 128:	01478793          	addi	x15,x15,20
 12c:	01470713          	addi	x14,x14,20
 130:	fcc796e3          	bne	x15,x12,fc <.L909>
 134:	00000613          	li	x12,0
 138:	00010593          	mv	x11,x2
 13c:	04010513          	addi	x10,x2,64
 140:	00000097          	auipc	x1,0x0
 144:	000080e7          	jalr	x1 # 140 <.L909+0x44>
 148:	0004a303          	lw	x6,0(x9)
 14c:	000aaa83          	lw	x21,0(x21)
 150:	000a2a03          	lw	x20,0(x20)
 154:	00042383          	lw	x7,0(x8)
 158:	0009a983          	lw	x19,0(x19)
 15c:	006a86b3          	add	x13,x21,x6
 160:	007a0533          	add	x10,x20,x7
 164:	01869813          	slli	x16,x13,0x18
 168:	01251893          	slli	x17,x10,0x12
 16c:	3f000e37          	lui	x28,0x3f000
 170:	00fc0937          	lui	x18,0xfc0
 174:	000405b7          	lui	x11,0x40
 178:	01c87eb3          	and	x29,x16,x28
 17c:	0128ff33          	and	x30,x17,x18
 180:	00499f93          	slli	x31,x19,0x4
 184:	ff058793          	addi	x15,x11,-16 # 3fff0 <.L690+0x3f7d4>
 188:	01eee2b3          	or	x5,x29,x30
 18c:	00fff733          	and	x14,x31,x15
 190:	00e2e633          	or	x12,x5,x14
 194:	c0000ab7          	lui	x21,0xc0000
 198:	01566333          	or	x6,x12,x21
 19c:	41001a37          	lui	x20,0x41001
