
kernel_addcmul.o:     file format elf32-littleriscv


Disassembly of section .group:

00000000 <_ZN8HBTensorIfLln1EEC5EP11hb_tensor_t>:
   0:	0001                	nop
   2:	0000                	unimp
   4:	00000007          	0x7
   8:	0008                	0x8
	...

Disassembly of section .text:

00000000 <tensorlib_addcmul>:
   0:	eb010113          	addi	x2,x2,-336
   4:	00050793          	mv	x15,x10
   8:	13312e23          	sw	x19,316(x2)
   c:	02010513          	addi	x10,x2,32
  10:	00058993          	mv	x19,x11
  14:	00078593          	mv	x11,x15
  18:	14112623          	sw	x1,332(x2)
  1c:	14812423          	sw	x8,328(x2)
  20:	14912223          	sw	x9,324(x2)
  24:	00070413          	mv	x8,x14
  28:	00068493          	mv	x9,x13
  2c:	15212023          	sw	x18,320(x2)
  30:	13412c23          	sw	x20,312(x2)
  34:	00060913          	mv	x18,x12
  38:	13512a23          	sw	x21,308(x2)
  3c:	13612823          	sw	x22,304(x2)
  40:	13712623          	sw	x23,300(x2)
  44:	13812423          	sw	x24,296(x2)
  48:	13912223          	sw	x25,292(x2)
  4c:	13a12023          	sw	x26,288(x2)
  50:	11b12e23          	sw	x27,284(x2)
  54:	00000097          	auipc	x1,0x0
  58:	000080e7          	jalr	x1 # 54 <tensorlib_addcmul+0x54>
  5c:	00098593          	mv	x11,x19
  60:	05c10513          	addi	x10,x2,92
  64:	00000097          	auipc	x1,0x0
  68:	000080e7          	jalr	x1 # 64 <tensorlib_addcmul+0x64>
  6c:	00090593          	mv	x11,x18
  70:	09810513          	addi	x10,x2,152
  74:	00000097          	auipc	x1,0x0
  78:	000080e7          	jalr	x1 # 74 <tensorlib_addcmul+0x74>
  7c:	00048593          	mv	x11,x9
  80:	0d410513          	addi	x10,x2,212
  84:	00000097          	auipc	x1,0x0
  88:	000080e7          	jalr	x1 # 84 <tensorlib_addcmul+0x84>
  8c:	00000f37          	lui	x30,0x0
  90:	000006b7          	lui	x13,0x0
  94:	00000eb7          	lui	x29,0x0
  98:	00000637          	lui	x12,0x0
  9c:	000f2283          	lw	x5,0(x30) # 0 <tensorlib_addcmul>
  a0:	0006a803          	lw	x16,0(x13) # 0 <tensorlib_addcmul>
  a4:	000ea583          	lw	x11,0(x29) # 0 <tensorlib_addcmul>
  a8:	00062703          	lw	x14,0(x12) # 0 <tensorlib_addcmul>
  ac:	00000fb7          	lui	x31,0x0
  b0:	000fa503          	lw	x10,0(x31) # 0 <tensorlib_addcmul>
  b4:	01028333          	add	x6,x5,x16
  b8:	00e583b3          	add	x7,x11,x14
  bc:	01831893          	slli	x17,x6,0x18
  c0:	01239a13          	slli	x20,x7,0x12
  c4:	3f000ab7          	lui	x21,0x3f000
  c8:	00fc0bb7          	lui	x23,0xfc0
  cc:	00040db7          	lui	x27,0x40
  d0:	0158fb33          	and	x22,x17,x21
  d4:	ff0d8e13          	addi	x28,x27,-16 # 3fff0 <.L102+0x3f90c>
  d8:	017a7c33          	and	x24,x20,x23
  dc:	00451c93          	slli	x25,x10,0x4
  e0:	01ccf7b3          	and	x15,x25,x28
  e4:	018b6d33          	or	x26,x22,x24
  e8:	80000937          	lui	x18,0x80000
  ec:	02012703          	lw	x14,32(x2)
  f0:	00fd69b3          	or	x19,x26,x15
  f4:	0129e4b3          	or	x9,x19,x18
  f8:	00042587          	flw	f11,0(x8)
  fc:	41001437          	lui	x8,0x41001
 100:	d0942623          	sw	x9,-756(x8) # 41000d0c <.L102+0x41000628>
 104:	fff00593          	li	x11,-1
 108:	02412283          	lw	x5,36(x2)
 10c:	02812383          	lw	x7,40(x2)
 110:	03012803          	lw	x16,48(x2)
 114:	06412403          	lw	x8,100(x2)
 118:	06c12883          	lw	x17,108(x2)
 11c:	0a012483          	lw	x9,160(x2)
 120:	0a812303          	lw	x6,168(x2)
 124:	0dc12903          	lw	x18,220(x2)
 128:	0e412e03          	lw	x28,228(x2)
 12c:	1ab70c63          	beq	x14,x11,2e4 <.L16>
 130:	1a070a63          	beqz	x14,2e4 <.L16>
 134:	000000b7          	lui	x1,0x0
 138:	0000a503          	lw	x10,0(x1) # 0 <tensorlib_addcmul>
 13c:	00475a13          	srli	x20,x14,0x4
 140:	001a0a93          	addi	x21,x20,1
 144:	02aa87b3          	mul	x15,x21,x10
 148:	00fa85b3          	add	x11,x21,x15
 14c:	40b76863          	bltu	x14,x11,55c <.L98>

00000150 <.L17>:
 150:	18b7fa63          	bgeu	x15,x11,2e4 <.L16>
 154:	00100b13          	li	x22,1
 158:	41628663          	beq	x5,x22,564 <.L99>
 15c:	06012083          	lw	x1,96(x2)
 160:	09c12a83          	lw	x21,156(x2)
 164:	0d812a03          	lw	x20,216(x2)
 168:	0a412c83          	lw	x25,164(x2)
 16c:	0e012d03          	lw	x26,224(x2)
 170:	02c12d83          	lw	x27,44(x2)
 174:	06812983          	lw	x19,104(x2)
 178:	00209c13          	slli	x24,x1,0x2
 17c:	002a9b93          	slli	x23,x21,0x2
 180:	002a1513          	slli	x10,x20,0x2
 184:	00229713          	slli	x14,x5,0x2
 188:	01912623          	sw	x25,12(x2)
 18c:	01a12a23          	sw	x26,20(x2)
 190:	01b12e23          	sw	x27,28(x2)
 194:	013c0b33          	add	x22,x24,x19
 198:	019b8cb3          	add	x25,x23,x25
 19c:	01a50d33          	add	x26,x10,x26
 1a0:	01b70db3          	add	x27,x14,x27
 1a4:	01612223          	sw	x22,4(x2)
 1a8:	01912423          	sw	x25,8(x2)
 1ac:	01a12823          	sw	x26,16(x2)
 1b0:	01b12c23          	sw	x27,24(x2)

000001b4 <.L41>:
 1b4:	3a008063          	beqz	x1,554 <.L62>
 1b8:	00040d93          	mv	x27,x8
 1bc:	00098513          	mv	x10,x19
 1c0:	00078b93          	mv	x23,x15
 1c4:	00000713          	li	x14,0

000001c8 <.L34>:
 1c8:	00052b03          	lw	x22,0(x10)
 1cc:	000dad03          	lw	x26,0(x27)
 1d0:	00450513          	addi	x10,x10,4
 1d4:	036bfcb3          	remu	x25,x23,x22
 1d8:	004d8d93          	addi	x27,x27,4
 1dc:	03ac8c33          	mul	x24,x25,x26
 1e0:	036bdbb3          	divu	x23,x23,x22
 1e4:	00412b03          	lw	x22,4(x2)
 1e8:	01870733          	add	x14,x14,x24
 1ec:	fcab1ee3          	bne	x22,x10,1c8 <.L34>
 1f0:	00271d13          	slli	x26,x14,0x2
 1f4:	01a88c33          	add	x24,x17,x26

000001f8 <.L33>:
 1f8:	000c2687          	flw	f13,0(x24)
 1fc:	340a8863          	beqz	x21,54c <.L63>
 200:	00c12d03          	lw	x26,12(x2)
 204:	00048c13          	mv	x24,x9
 208:	00078b93          	mv	x23,x15
 20c:	00000713          	li	x14,0

00000210 <.L36>:
 210:	000d2b03          	lw	x22,0(x26)
 214:	000c2d83          	lw	x27,0(x24)
 218:	004d0d13          	addi	x26,x26,4
 21c:	004c0c13          	addi	x24,x24,4
 220:	036bfcb3          	remu	x25,x23,x22
 224:	03bc8533          	mul	x10,x25,x27
 228:	036bdbb3          	divu	x23,x23,x22
 22c:	00812b03          	lw	x22,8(x2)
 230:	00a70733          	add	x14,x14,x10
 234:	fdab1ee3          	bne	x22,x26,210 <.L36>
 238:	00271d93          	slli	x27,x14,0x2
 23c:	01b30533          	add	x10,x6,x27

00000240 <.L35>:
 240:	00052707          	flw	f14,0(x10)
 244:	300a0063          	beqz	x20,544 <.L64>
 248:	01412503          	lw	x10,20(x2)
 24c:	00090c13          	mv	x24,x18
 250:	00078b93          	mv	x23,x15
 254:	00000713          	li	x14,0

00000258 <.L38>:
 258:	00052b03          	lw	x22,0(x10)
 25c:	000c2d83          	lw	x27,0(x24)
 260:	00450513          	addi	x10,x10,4
 264:	004c0c13          	addi	x24,x24,4
 268:	036bfcb3          	remu	x25,x23,x22
 26c:	03bc8d33          	mul	x26,x25,x27
 270:	036bdbb3          	divu	x23,x23,x22
 274:	01012b03          	lw	x22,16(x2)
 278:	01a70733          	add	x14,x14,x26
 27c:	fcab1ee3          	bne	x22,x10,258 <.L38>
 280:	00271d93          	slli	x27,x14,0x2
 284:	01be0d33          	add	x26,x28,x27

00000288 <.L37>:
 288:	10e5f053          	fmul.s	f0,f11,f14
 28c:	000d2787          	flw	f15,0(x26)
 290:	6807f0c3          	fmadd.s	f1,f15,f0,f13
 294:	2a028463          	beqz	x5,53c <.L65>
 298:	01c12d83          	lw	x27,28(x2)
 29c:	00038c13          	mv	x24,x7
 2a0:	00078b93          	mv	x23,x15
 2a4:	00000713          	li	x14,0

000002a8 <.L40>:
 2a8:	000dad03          	lw	x26,0(x27)
 2ac:	000c2b03          	lw	x22,0(x24)
 2b0:	004d8d93          	addi	x27,x27,4
 2b4:	004c0c13          	addi	x24,x24,4
 2b8:	03abfcb3          	remu	x25,x23,x26
 2bc:	036c8533          	mul	x10,x25,x22
 2c0:	03abdbb3          	divu	x23,x23,x26
 2c4:	01812d03          	lw	x26,24(x2)
 2c8:	00a70733          	add	x14,x14,x10
 2cc:	fdbd1ee3          	bne	x26,x27,2a8 <.L40>
 2d0:	00271b13          	slli	x22,x14,0x2
 2d4:	01680533          	add	x10,x16,x22

000002d8 <.L39>:
 2d8:	00152027          	fsw	f1,0(x10)
 2dc:	00178793          	addi	x15,x15,1
 2e0:	ecf59ae3          	bne	x11,x15,1b4 <.L41>

000002e4 <.L16>:
 2e4:	000f2f03          	lw	x30,0(x30)
 2e8:	0006a383          	lw	x7,0(x13)
 2ec:	000eae83          	lw	x29,0(x29)
 2f0:	00062403          	lw	x8,0(x12)
 2f4:	000fa583          	lw	x11,0(x31)
 2f8:	007f0fb3          	add	x31,x30,x7
 2fc:	008e84b3          	add	x9,x29,x8
 300:	018f9b93          	slli	x23,x31,0x18
 304:	01249913          	slli	x18,x9,0x12
 308:	000407b7          	lui	x15,0x40
 30c:	3f000537          	lui	x10,0x3f000
 310:	00fc0a37          	lui	x20,0xfc0
 314:	00459b13          	slli	x22,x11,0x4
 318:	ff078d93          	addi	x27,x15,-16 # 3fff0 <.L102+0x3f90c>
 31c:	00abf9b3          	and	x19,x23,x10
 320:	01497ab3          	and	x21,x18,x20
 324:	0159e0b3          	or	x1,x19,x21
 328:	01bb7cb3          	and	x25,x22,x27
 32c:	0190ec33          	or	x24,x1,x25
 330:	c0000d37          	lui	x26,0xc0000
 334:	01ac62b3          	or	x5,x24,x26
 338:	41001737          	lui	x14,0x41001
 33c:	d0572623          	sw	x5,-756(x14) # 41000d0c <.L102+0x41000628>
 340:	00062883          	lw	x17,0(x12)
 344:	0006a303          	lw	x6,0(x13)
 348:	000003b7          	lui	x7,0x0
 34c:	00488e13          	addi	x28,x17,4
 350:	00038793          	mv	x15,x7
 354:	01c78833          	add	x16,x15,x28
 358:	01831f13          	slli	x30,x6,0x18
 35c:	01e86eb3          	or	x29,x16,x30
 360:	20040437          	lui	x8,0x20040
 364:	008ee5b3          	or	x11,x29,x8
 368:	00100f93          	li	x31,1
 36c:	01f58023          	sb	x31,0(x11)
 370:	00062483          	lw	x9,0(x12)
 374:	07f48463          	beq	x9,x31,3dc <.L42>

00000378 <.L53>:
 378:	00100993          	li	x19,1
 37c:	0100006f          	j	38c <.L57>

00000380 <.L100>:
 380:	00038a93          	mv	x21,x7
 384:	140aab2f          	lr.w.aq	x22,(x21)
 388:	013b0863          	beq	x22,x19,398 <.L56>

0000038c <.L57>:
 38c:	00038693          	mv	x13,x7
 390:	1006aa2f          	lr.w	x20,(x13)
 394:	ff3a16e3          	bne	x20,x19,380 <.L100>

00000398 <.L56>:
 398:	14c12083          	lw	x1,332(x2)
 39c:	14812403          	lw	x8,328(x2)
 3a0:	0007a023          	sw	x0,0(x15)
 3a4:	14412483          	lw	x9,324(x2)
 3a8:	14012903          	lw	x18,320(x2)
 3ac:	13c12983          	lw	x19,316(x2)
 3b0:	13812a03          	lw	x20,312(x2)
 3b4:	13412a83          	lw	x21,308(x2)
 3b8:	13012b03          	lw	x22,304(x2)
 3bc:	12c12b83          	lw	x23,300(x2)
 3c0:	12812c03          	lw	x24,296(x2)
 3c4:	12412c83          	lw	x25,292(x2)
 3c8:	12012d03          	lw	x26,288(x2)
 3cc:	11c12d83          	lw	x27,284(x2)
 3d0:	00000513          	li	x10,0
 3d4:	15010113          	addi	x2,x2,336
 3d8:	00008067          	ret

000003dc <.L42>:
 3dc:	0047cb83          	lbu	x23,4(x15)
 3e0:	0ffbf913          	andi	x18,x23,255
 3e4:	fe090ce3          	beqz	x18,3dc <.L42>
 3e8:	0057c503          	lbu	x10,5(x15)
 3ec:	0ff57993          	andi	x19,x10,255
 3f0:	fe0986e3          	beqz	x19,3dc <.L42>
 3f4:	0067ca03          	lbu	x20,6(x15)
 3f8:	0ffa7a93          	andi	x21,x20,255
 3fc:	fe0a80e3          	beqz	x21,3dc <.L42>
 400:	0077cb03          	lbu	x22,7(x15)
 404:	0ffb7093          	andi	x1,x22,255
 408:	fc008ae3          	beqz	x1,3dc <.L42>
 40c:	0006ad83          	lw	x27,0(x13)
 410:	210402b7          	lui	x5,0x21040
 414:	00100c93          	li	x25,1
 418:	00cd8c13          	addi	x24,x27,12
 41c:	01878d33          	add	x26,x15,x24
 420:	005d6733          	or	x14,x26,x5
 424:	01970023          	sb	x25,0(x14)
 428:	00062883          	lw	x17,0(x12)
 42c:	f59896e3          	bne	x17,x25,378 <.L53>
 430:	0006a283          	lw	x5,0(x13)
 434:	07128c63          	beq	x5,x17,4ac <.L47>

00000438 <.L52>:
 438:	00100713          	li	x14,1
 43c:	0100006f          	j	44c <.L46>

00000440 <.L101>:
 440:	00878313          	addi	x6,x15,8
 444:	14032e2f          	lr.w.aq	x28,(x6)
 448:	00ee0863          	beq	x28,x14,458 <.L54>

0000044c <.L46>:
 44c:	00878613          	addi	x12,x15,8
 450:	100628af          	lr.w	x17,(x12)
 454:	fee896e3          	bne	x17,x14,440 <.L101>

00000458 <.L54>:
 458:	0007a423          	sw	x0,8(x15)
 45c:	00078223          	sb	x0,4(x15)
 460:	000782a3          	sb	x0,5(x15)
 464:	00078323          	sb	x0,6(x15)
 468:	000783a3          	sb	x0,7(x15)
 46c:	0007a023          	sw	x0,0(x15)
 470:	00000493          	li	x9,0
 474:	00038793          	mv	x15,x7
 478:	20000f37          	lui	x30,0x20000
 47c:	00100e93          	li	x29,1
 480:	00040437          	lui	x8,0x40
 484:	00100837          	lui	x16,0x100

00000488 <.L55>:
 488:	0006a583          	lw	x11,0(x13)
 48c:	0097efb3          	or	x31,x15,x9
 490:	008484b3          	add	x9,x9,x8
 494:	01859b93          	slli	x23,x11,0x18
 498:	01fbe933          	or	x18,x23,x31
 49c:	01e96533          	or	x10,x18,x30
 4a0:	01d52023          	sw	x29,0(x10) # 3f000000 <.L102+0x3efff91c>
 4a4:	ff0492e3          	bne	x9,x16,488 <.L55>
 4a8:	ed1ff06f          	j	378 <.L53>

000004ac <.L47>:
 4ac:	00c7c303          	lbu	x6,12(x15)
 4b0:	0ff37e13          	andi	x28,x6,255
 4b4:	fe0e0ce3          	beqz	x28,4ac <.L47>
 4b8:	00d7c803          	lbu	x16,13(x15)
 4bc:	0ff87f13          	andi	x30,x16,255
 4c0:	fe0f06e3          	beqz	x30,4ac <.L47>
 4c4:	00e7ce83          	lbu	x29,14(x15)
 4c8:	0ffef413          	andi	x8,x29,255
 4cc:	fe0400e3          	beqz	x8,4ac <.L47>
 4d0:	00f7c583          	lbu	x11,15(x15)
 4d4:	0ff5ff93          	andi	x31,x11,255
 4d8:	fc0f8ae3          	beqz	x31,4ac <.L47>
 4dc:	00078623          	sb	x0,12(x15)
 4e0:	000786a3          	sb	x0,13(x15)
 4e4:	00078723          	sb	x0,14(x15)
 4e8:	000787a3          	sb	x0,15(x15)
 4ec:	000004b7          	lui	x9,0x0
 4f0:	0007a423          	sw	x0,8(x15)
 4f4:	00000d13          	li	x26,0
 4f8:	00848b93          	addi	x23,x9,8 # 8 <tensorlib_addcmul+0x8>
 4fc:	03fc0937          	lui	x18,0x3fc0
 500:	20000537          	lui	x10,0x20000
 504:	00100993          	li	x19,1
 508:	01000a37          	lui	x20,0x1000
 50c:	04000ab7          	lui	x21,0x4000

00000510 <.L51>:
 510:	01229b13          	slli	x22,x5,0x12
 514:	01abe0b3          	or	x1,x23,x26
 518:	012b7db3          	and	x27,x22,x18
 51c:	001decb3          	or	x25,x27,x1
 520:	00acec33          	or	x24,x25,x10
 524:	013c2023          	sw	x19,0(x24)
 528:	014d0d33          	add	x26,x26,x20
 52c:	00062283          	lw	x5,0(x12)
 530:	ff5d10e3          	bne	x26,x21,510 <.L51>
 534:	f13282e3          	beq	x5,x19,438 <.L52>
 538:	e41ff06f          	j	378 <.L53>

0000053c <.L65>:
 53c:	00080513          	mv	x10,x16
 540:	d99ff06f          	j	2d8 <.L39>

00000544 <.L64>:
 544:	000e0d13          	mv	x26,x28
 548:	d41ff06f          	j	288 <.L37>

0000054c <.L63>:
 54c:	00030513          	mv	x10,x6
 550:	cf1ff06f          	j	240 <.L35>

00000554 <.L62>:
 554:	00088c13          	mv	x24,x17
 558:	ca1ff06f          	j	1f8 <.L33>

0000055c <.L98>:
 55c:	00070593          	mv	x11,x14
 560:	bf1ff06f          	j	150 <.L17>

00000564 <.L99>:
 564:	00278713          	addi	x14,x15,2
 568:	0003a503          	lw	x10,0(x7) # 0 <tensorlib_addcmul>
 56c:	00042403          	lw	x8,0(x8) # 40000 <.L102+0x3f91c>
 570:	0004a383          	lw	x7,0(x9)
 574:	00092283          	lw	x5,0(x18) # 3fc0000 <.L102+0x3fbf91c>
 578:	16b77663          	bgeu	x14,x11,6e4 <.L102>
 57c:	00100493          	li	x9,1
 580:	00241913          	slli	x18,x8,0x2
 584:	00239993          	slli	x19,x7,0x2
 588:	00229a13          	slli	x20,x5,0x2
 58c:	00251a93          	slli	x21,x10,0x2
 590:	08940263          	beq	x8,x9,614 <.L103>

00000594 <.L24>:
 594:	032780b3          	mul	x1,x15,x18
 598:	00188db3          	add	x27,x17,x1
 59c:	012d8cb3          	add	x25,x27,x18
 5a0:	000ca107          	flw	f2,0(x25)
 5a4:	000da187          	flw	f3,0(x27)
 5a8:	08938063          	beq	x7,x9,628 <.L104>

000005ac <.L26>:
 5ac:	03378d33          	mul	x26,x15,x19
 5b0:	01a30b33          	add	x22,x6,x26
 5b4:	013b00b3          	add	x1,x22,x19
 5b8:	0000a607          	flw	f12,0(x1)
 5bc:	000b2207          	flw	f4,0(x22)
 5c0:	06928e63          	beq	x5,x9,63c <.L105>

000005c4 <.L28>:
 5c4:	03478c33          	mul	x24,x15,x20
 5c8:	10c5f353          	fmul.s	f6,f11,f12
 5cc:	1045f3d3          	fmul.s	f7,f11,f4
 5d0:	018e0d33          	add	x26,x28,x24
 5d4:	014d0bb3          	add	x23,x26,x20
 5d8:	000ba287          	flw	f5,0(x23) # fc0000 <.L102+0xfbf91c>
 5dc:	000d2507          	flw	f10,0(x26) # c0000000 <.L102+0xbffff91c>
 5e0:	10537843          	fmadd.s	f16,f6,f5,f2
 5e4:	18a3f8c3          	fmadd.s	f17,f7,f10,f3
 5e8:	06950c63          	beq	x10,x9,660 <.L106>

000005ec <.L30>:
 5ec:	035787b3          	mul	x15,x15,x21
 5f0:	00270b93          	addi	x23,x14,2
 5f4:	00f80db3          	add	x27,x16,x15
 5f8:	015d8cb3          	add	x25,x27,x21
 5fc:	010ca027          	fsw	f16,0(x25)
 600:	011da027          	fsw	f17,0(x27)
 604:	00070793          	mv	x15,x14
 608:	06bbfa63          	bgeu	x23,x11,67c <.L107>

0000060c <.L61>:
 60c:	000b8713          	mv	x14,x23
 610:	f89412e3          	bne	x8,x9,594 <.L24>

00000614 <.L103>:
 614:	00279c13          	slli	x24,x15,0x2
 618:	01888bb3          	add	x23,x17,x24
 61c:	004ba107          	flw	f2,4(x23)
 620:	000ba187          	flw	f3,0(x23)
 624:	f89394e3          	bne	x7,x9,5ac <.L26>

00000628 <.L104>:
 628:	00279d93          	slli	x27,x15,0x2
 62c:	01b30cb3          	add	x25,x6,x27
 630:	004ca607          	flw	f12,4(x25)
 634:	000ca207          	flw	f4,0(x25)
 638:	f89296e3          	bne	x5,x9,5c4 <.L28>

0000063c <.L105>:
 63c:	10c5f353          	fmul.s	f6,f11,f12
 640:	1045f3d3          	fmul.s	f7,f11,f4
 644:	00279b13          	slli	x22,x15,0x2
 648:	016e00b3          	add	x1,x28,x22
 64c:	0040a287          	flw	f5,4(x1)
 650:	0000a507          	flw	f10,0(x1)
 654:	10537843          	fmadd.s	f16,f6,f5,f2
 658:	18a3f8c3          	fmadd.s	f17,f7,f10,f3
 65c:	f89518e3          	bne	x10,x9,5ec <.L30>

00000660 <.L106>:
 660:	00279c13          	slli	x24,x15,0x2
 664:	01880d33          	add	x26,x16,x24
 668:	010d2227          	fsw	f16,4(x26)
 66c:	011d2027          	fsw	f17,0(x26)
 670:	00270b93          	addi	x23,x14,2
 674:	00070793          	mv	x15,x14
 678:	f8bbeae3          	bltu	x23,x11,60c <.L61>

0000067c <.L107>:
 67c:	c6b774e3          	bgeu	x14,x11,2e4 <.L16>

00000680 <.L19>:
 680:	02e28db3          	mul	x27,x5,x14
 684:	02e40b33          	mul	x22,x8,x14
 688:	002d9d13          	slli	x26,x27,0x2
 68c:	01ae0e33          	add	x28,x28,x26
 690:	02e380b3          	mul	x1,x7,x14
 694:	002b1793          	slli	x15,x22,0x2
 698:	00f888b3          	add	x17,x17,x15
 69c:	02e50c33          	mul	x24,x10,x14
 6a0:	00209c93          	slli	x25,x1,0x2
 6a4:	01930333          	add	x6,x6,x25
 6a8:	002c1293          	slli	x5,x24,0x2
 6ac:	00580833          	add	x16,x16,x5

000006b0 <.L32>:
 6b0:	00032e07          	flw	f28,0(x6)
 6b4:	000e2e87          	flw	f29,0(x28)
 6b8:	0008af07          	flw	f30,0(x17)
 6bc:	00170713          	addi	x14,x14,1
 6c0:	11de7fd3          	fmul.s	f31,f28,f29
 6c4:	012888b3          	add	x17,x17,x18
 6c8:	01330333          	add	x6,x6,x19
 6cc:	014e0e33          	add	x28,x28,x20
 6d0:	f1f5f6c3          	fmadd.s	f13,f11,f31,f30
 6d4:	00d82027          	fsw	f13,0(x16) # 100000 <.L102+0xff91c>
 6d8:	01580833          	add	x16,x16,x21
 6dc:	fce59ae3          	bne	x11,x14,6b0 <.L32>
 6e0:	c05ff06f          	j	2e4 <.L16>

000006e4 <.L102>:
 6e4:	00078713          	mv	x14,x15
 6e8:	00241913          	slli	x18,x8,0x2
 6ec:	00239993          	slli	x19,x7,0x2
 6f0:	00229a13          	slli	x20,x5,0x2
 6f4:	00251a93          	slli	x21,x10,0x2
 6f8:	f89ff06f          	j	680 <.L19>

Disassembly of section .text._ZN8HBTensorIfLln1EEC2EP11hb_tensor_t:

00000000 <_ZN8HBTensorIfLln1EEC1EP11hb_tensor_t>:
   0:	00058713          	mv	x14,x11
   4:	0045a683          	lw	x13,4(x11)
   8:	00072803          	lw	x16,0(x14)
   c:	0105a583          	lw	x11,16(x11)
  10:	00050793          	mv	x15,x10
  14:	02850613          	addi	x12,x10,40 # 20000028 <.L102+0x1ffff944>
  18:	01450513          	addi	x10,x10,20
  1c:	0107a023          	sw	x16,0(x15)
  20:	00d7a223          	sw	x13,4(x15)
  24:	00a7a423          	sw	x10,8(x15)
  28:	00c7a623          	sw	x12,12(x15)
  2c:	00b7a823          	sw	x11,16(x15)
  30:	00060613          	mv	x12,x12
  34:	00500293          	li	x5,5
  38:	04d2e463          	bltu	x5,x13,80 <.L14>
  3c:	00872303          	lw	x6,8(x14)
  40:	00c72383          	lw	x7,12(x14)
  44:	02068c63          	beqz	x13,7c <.L1>
  48:	00269893          	slli	x17,x13,0x2
  4c:	00078713          	mv	x14,x15
  50:	01178e33          	add	x28,x15,x17
  54:	40f30eb3          	sub	x29,x6,x15
  58:	40f38f33          	sub	x30,x7,x15

0000005c <.L5>:
  5c:	00ee8fb3          	add	x31,x29,x14
  60:	000fa683          	lw	x13,0(x31)
  64:	00ef05b3          	add	x11,x30,x14
  68:	00470713          	addi	x14,x14,4
  6c:	00d72823          	sw	x13,16(x14)
  70:	0005a803          	lw	x16,0(x11)
  74:	03072223          	sw	x16,36(x14)
  78:	ffc712e3          	bne	x14,x28,5c <.L5>

0000007c <.L1>:
  7c:	00008067          	ret

00000080 <.L14>:
  80:	ff010113          	addi	x2,x2,-16
  84:	000007b7          	lui	x15,0x0
  88:	00112623          	sw	x1,12(x2)
  8c:	000000b7          	lui	x1,0x0
  90:	0c700613          	li	x12,199
  94:	00008593          	mv	x11,x1
  98:	00078513          	mv	x10,x15
  9c:	00000097          	auipc	x1,0x0
  a0:	000080e7          	jalr	x1 # 9c <.L14+0x1c>
  a4:	00000637          	lui	x12,0x0
  a8:	00060513          	mv	x10,x12
  ac:	00000097          	auipc	x1,0x0
  b0:	000080e7          	jalr	x1 # ac <.L14+0x2c>
  b4:	00000537          	lui	x10,0x0
  b8:	00052283          	lw	x5,0(x10) # 0 <_ZN8HBTensorIfLln1EEC1EP11hb_tensor_t>
  bc:	00000337          	lui	x6,0x0
  c0:	00032383          	lw	x7,0(x6) # 0 <_ZN8HBTensorIfLln1EEC1EP11hb_tensor_t>
  c4:	01029893          	slli	x17,x5,0x10
  c8:	4100feb7          	lui	x29,0x4100f
  cc:	00788e33          	add	x28,x17,x7
  d0:	adceac23          	sw	x28,-1320(x29) # 4100ead8 <.L102+0x4100e3f4>

000000d4 <.L3>:
  d4:	0000006f          	j	d4 <.L3>
