
kernel_softmax.o:     file format elf32-littleriscv


Disassembly of section .text:

00000000 <tensorlib_log_softmax>:
   0:	00062303          	lw	x6,0(x12)
   4:	00c5a783          	lw	x15,12(x11)
   8:	f9010113          	addi	x2,x2,-112
   c:	06112623          	sw	x1,108(x2)
  10:	00231093          	slli	x1,x6,0x2
  14:	001782b3          	add	x5,x15,x1
  18:	0005ae03          	lw	x28,0(x11)
  1c:	05a12023          	sw	x26,64(x2)
  20:	0002ad03          	lw	x26,0(x5)
  24:	06912223          	sw	x9,100(x2)
  28:	07212023          	sw	x18,96(x2)
  2c:	03ae58b3          	divu	x17,x28,x26
  30:	05812423          	sw	x24,72(x2)
  34:	05912223          	sw	x25,68(x2)
  38:	00000937          	lui	x18,0x0
  3c:	00000cb7          	lui	x25,0x0
  40:	00000c37          	lui	x24,0x0
  44:	000004b7          	lui	x9,0x0
  48:	000ca383          	lw	x7,0(x25) # 0 <tensorlib_log_softmax>
  4c:	00092f03          	lw	x30,0(x18) # 0 <tensorlib_log_softmax>
  50:	000c2603          	lw	x12,0(x24) # 0 <tensorlib_log_softmax>
  54:	0004ae83          	lw	x29,0(x9) # 0 <tensorlib_log_softmax>
  58:	03b12e23          	sw	x27,60(x2)
  5c:	00000db7          	lui	x27,0x0
  60:	000da803          	lw	x16,0(x27) # 0 <tensorlib_log_softmax>
  64:	01d606b3          	add	x13,x12,x29
  68:	06812423          	sw	x8,104(x2)
  6c:	01e38433          	add	x8,x7,x30
  70:	05312e23          	sw	x19,92(x2)
  74:	05512a23          	sw	x21,84(x2)
  78:	05712623          	sw	x23,76(x2)
  7c:	01841713          	slli	x14,x8,0x18
  80:	01269993          	slli	x19,x13,0x12
  84:	3f000ab7          	lui	x21,0x3f000
  88:	00fc0bb7          	lui	x23,0xfc0
  8c:	000402b7          	lui	x5,0x40
  90:	05412c23          	sw	x20,88(x2)
  94:	05612823          	sw	x22,80(x2)
  98:	0085aa03          	lw	x20,8(x11)
  9c:	00481313          	slli	x6,x16,0x4
  a0:	0105a583          	lw	x11,16(x11)
  a4:	01577b33          	and	x22,x14,x21
  a8:	0179ffb3          	and	x31,x19,x23
  ac:	ff028393          	addi	x7,x5,-16 # 3fff0 <.L20+0x3fbbc>
  b0:	01fb67b3          	or	x15,x22,x31
  b4:	00737f33          	and	x30,x6,x7
  b8:	01e7eeb3          	or	x29,x15,x30
  bc:	80000637          	lui	x12,0x80000
  c0:	02812627          	fsw	f8,44(x2)
  c4:	02912427          	fsw	f9,40(x2)
  c8:	001a00b3          	add	x1,x20,x1
  cc:	00cee833          	or	x16,x29,x12
  d0:	00b12623          	sw	x11,12(x2)
  d4:	410016b7          	lui	x13,0x41001
  d8:	01052503          	lw	x10,16(x10)
  dc:	0000aa03          	lw	x20,0(x1)
  e0:	fff00413          	li	x8,-1
  e4:	d106a623          	sw	x16,-756(x13) # 41000d0c <.L20+0x410008d8>
  e8:	10888063          	beq	x17,x8,1e8 <.L5>
  ec:	0fae6e63          	bltu	x28,x26,1e8 <.L5>
  f0:	00000e37          	lui	x28,0x0
  f4:	000e2703          	lw	x14,0(x28) # 0 <tensorlib_log_softmax>
  f8:	0078d993          	srli	x19,x17,0x7
  fc:	00198a93          	addi	x21,x19,1
 100:	07f77b13          	andi	x22,x14,127
 104:	035b0bb3          	mul	x23,x22,x21
 108:	017a89b3          	add	x19,x21,x23
 10c:	2b38ea63          	bltu	x17,x19,3c0 <.L43>

00000110 <.L6>:
 110:	0d3bfc63          	bgeu	x23,x19,1e8 <.L5>
 114:	034d08b3          	mul	x17,x26,x20
 118:	00c12f83          	lw	x31,12(x2)
 11c:	002a1a93          	slli	x21,x20,0x2
 120:	41f50333          	sub	x6,x10,x31
 124:	00612c23          	sw	x6,24(x2)
 128:	01112a23          	sw	x17,20(x2)

0000012c <.L8>:
 12c:	034bd7b3          	divu	x15,x23,x20
 130:	01412383          	lw	x7,20(x2)
 134:	034bf2b3          	remu	x5,x23,x20
 138:	02778f33          	mul	x30,x15,x7
 13c:	005f0eb3          	add	x29,x30,x5
 140:	0a0d0063          	beqz	x26,1e0 <.L11>
 144:	00c12803          	lw	x16,12(x2)
 148:	00000637          	lui	x12,0x0
 14c:	002e9093          	slli	x1,x29,0x2
 150:	00062407          	flw	f8,0(x12) # 0 <tensorlib_log_softmax>
 154:	01008433          	add	x8,x1,x16
 158:	00040593          	mv	x11,x8
 15c:	00000513          	li	x10,0

00000160 <.L9>:
 160:	0005a787          	flw	f15,0(x11)
 164:	00150513          	addi	x10,x10,1
 168:	015585b3          	add	x11,x11,x21
 16c:	28f41453          	fmax.s	f8,f8,f15
 170:	fead18e3          	bne	x26,x10,160 <.L9>
 174:	f00004d3          	fmv.w.x	f9,x0
 178:	00040e13          	mv	x28,x8
 17c:	00000b13          	li	x22,0

00000180 <.L10>:
 180:	000e2507          	flw	f10,0(x28)
 184:	015e06b3          	add	x13,x28,x21
 188:	00d12823          	sw	x13,16(x2)
 18c:	08857553          	fsub.s	f10,f10,f8
 190:	00d12e23          	sw	x13,28(x2)
 194:	001b0b13          	addi	x22,x22,1
 198:	00000097          	auipc	x1,0x0
 19c:	000080e7          	jalr	x1 # 198 <.L10+0x18>
 1a0:	00a4f4d3          	fadd.s	f9,f9,f10
 1a4:	01012e03          	lw	x28,16(x2)
 1a8:	fd6d1ce3          	bne	x26,x22,180 <.L10>
 1ac:	20948553          	fmv.s	f10,f9
 1b0:	00000097          	auipc	x1,0x0
 1b4:	000080e7          	jalr	x1 # 1b0 <.L10+0x30>
 1b8:	00a47053          	fadd.s	f0,f8,f10
 1bc:	00000f93          	li	x31,0

000001c0 <.L12>:
 1c0:	00042087          	flw	f1,0(x8)
 1c4:	01812703          	lw	x14,24(x2)
 1c8:	001f8f93          	addi	x31,x31,1
 1cc:	0800f153          	fsub.s	f2,f1,f0
 1d0:	008708b3          	add	x17,x14,x8
 1d4:	01540433          	add	x8,x8,x21
 1d8:	0028a027          	fsw	f2,0(x17)
 1dc:	fffd12e3          	bne	x26,x31,1c0 <.L12>

000001e0 <.L11>:
 1e0:	001b8b93          	addi	x23,x23,1 # fc0001 <.L20+0xfbfbcd>
 1e4:	f57994e3          	bne	x19,x23,12c <.L8>

000001e8 <.L5>:
 1e8:	000cad03          	lw	x26,0(x25)
 1ec:	000c2c03          	lw	x24,0(x24)
 1f0:	00092c83          	lw	x25,0(x18)
 1f4:	0004aa03          	lw	x20,0(x9)
 1f8:	000dad83          	lw	x27,0(x27)
 1fc:	019d09b3          	add	x19,x26,x25
 200:	014c0ab3          	add	x21,x24,x20
 204:	01899313          	slli	x6,x19,0x18
 208:	012a9293          	slli	x5,x21,0x12
 20c:	3f0007b7          	lui	x15,0x3f000
 210:	00fc0f37          	lui	x30,0xfc0
 214:	00040837          	lui	x16,0x40
 218:	004d9093          	slli	x1,x27,0x4
 21c:	00f373b3          	and	x7,x6,x15
 220:	01e2feb3          	and	x29,x5,x30
 224:	ff080513          	addi	x10,x16,-16 # 3fff0 <.L20+0x3fbbc>
 228:	01d3e633          	or	x12,x7,x29
 22c:	00a0f5b3          	and	x11,x1,x10
 230:	00b66b33          	or	x22,x12,x11
 234:	c00006b7          	lui	x13,0xc0000
 238:	41001737          	lui	x14,0x41001
 23c:	00db6e33          	or	x28,x22,x13
 240:	d1c72623          	sw	x28,-756(x14) # 41000d0c <.L20+0x410008d8>
 244:	0004a883          	lw	x17,0(x9)
 248:	00092f83          	lw	x31,0(x18)
 24c:	00000637          	lui	x12,0x0
 250:	00488413          	addi	x8,x17,4
 254:	00060713          	mv	x14,x12
 258:	00870bb3          	add	x23,x14,x8
 25c:	018f9d13          	slli	x26,x31,0x18
 260:	01abecb3          	or	x25,x23,x26
 264:	201c0c37          	lui	x24,0x201c0
 268:	018cea33          	or	x20,x25,x24
 26c:	00100d93          	li	x27,1
 270:	01ba0023          	sb	x27,0(x20)
 274:	0004a983          	lw	x19,0(x9)
 278:	00700a93          	li	x21,7
 27c:	07598863          	beq	x19,x21,2ec <.L44>

00000280 <.L13>:
 280:	00100913          	li	x18,1
 284:	0100006f          	j	294 <.L26>

00000288 <.L45>:
 288:	00060593          	mv	x11,x12
 28c:	1405ab2f          	lr.w.aq	x22,(x11)
 290:	012b0863          	beq	x22,x18,2a0 <.L25>

00000294 <.L26>:
 294:	00060813          	mv	x16,x12
 298:	1008252f          	lr.w	x10,(x16)
 29c:	ff2516e3          	bne	x10,x18,288 <.L45>

000002a0 <.L25>:
 2a0:	06c12083          	lw	x1,108(x2)
 2a4:	06812403          	lw	x8,104(x2)
 2a8:	00072023          	sw	x0,0(x14)
 2ac:	06412483          	lw	x9,100(x2)
 2b0:	06012903          	lw	x18,96(x2)
 2b4:	05c12983          	lw	x19,92(x2)
 2b8:	05812a03          	lw	x20,88(x2)
 2bc:	05412a83          	lw	x21,84(x2)
 2c0:	05012b03          	lw	x22,80(x2)
 2c4:	04c12b83          	lw	x23,76(x2)
 2c8:	04812c03          	lw	x24,72(x2)
 2cc:	04412c83          	lw	x25,68(x2)
 2d0:	04012d03          	lw	x26,64(x2)
 2d4:	03c12d83          	lw	x27,60(x2)
 2d8:	02c12407          	flw	f8,44(x2)
 2dc:	02812487          	flw	f9,40(x2)
 2e0:	00000513          	li	x10,0
 2e4:	07010113          	addi	x2,x2,112
 2e8:	00008067          	ret

000002ec <.L44>:
 2ec:	00000337          	lui	x6,0x0
 2f0:	000007b7          	lui	x15,0x0
 2f4:	00430293          	addi	x5,x6,4 # 4 <tensorlib_log_softmax+0x4>
 2f8:	01478393          	addi	x7,x15,20 # 14 <tensorlib_log_softmax+0x14>

000002fc <.L3>:
 2fc:	00028e93          	mv	x29,x5

00000300 <.L15>:
 300:	000ecf03          	lbu	x30,0(x29)
 304:	001e8e93          	addi	x29,x29,1
 308:	0fff7093          	andi	x1,x30,255
 30c:	fe0088e3          	beqz	x1,2fc <.L3>
 310:	ffd398e3          	bne	x7,x29,300 <.L15>
 314:	00092803          	lw	x16,0(x18)
 318:	231c0b37          	lui	x22,0x231c0
 31c:	00100693          	li	x13,1
 320:	01880513          	addi	x10,x16,24
 324:	00a705b3          	add	x11,x14,x10
 328:	0165ee33          	or	x28,x11,x22
 32c:	00de0023          	sb	x13,0(x28)
 330:	0004af83          	lw	x31,0(x9)
 334:	00700893          	li	x17,7
 338:	f51f94e3          	bne	x31,x17,280 <.L13>
 33c:	00092403          	lw	x8,0(x18)
 340:	00300b93          	li	x23,3
 344:	09740263          	beq	x8,x23,3c8 <.L46>

00000348 <.L21>:
 348:	00100f93          	li	x31,1
 34c:	0100006f          	j	35c <.L17>

00000350 <.L47>:
 350:	01470413          	addi	x8,x14,20
 354:	14042baf          	lr.w.aq	x23,(x8)
 358:	01fb8863          	beq	x23,x31,368 <.L22>

0000035c <.L17>:
 35c:	01470693          	addi	x13,x14,20
 360:	1006a8af          	lr.w	x17,(x13)
 364:	fff896e3          	bne	x17,x31,350 <.L47>

00000368 <.L22>:
 368:	00072a23          	sw	x0,20(x14)
 36c:	00000c13          	li	x24,0
 370:	01000d13          	li	x26,16

00000374 <.L23>:
 374:	01870cb3          	add	x25,x14,x24
 378:	000c8223          	sb	x0,4(x25)
 37c:	001c0c13          	addi	x24,x24,1 # 201c0001 <.L20+0x201bfbcd>
 380:	ffac1ae3          	bne	x24,x26,374 <.L23>
 384:	00072023          	sw	x0,0(x14)
 388:	00000313          	li	x6,0
 38c:	20000a37          	lui	x20,0x20000
 390:	00100d93          	li	x27,1
 394:	000409b7          	lui	x19,0x40
 398:	00400ab7          	lui	x21,0x400

0000039c <.L24>:
 39c:	00092283          	lw	x5,0(x18)
 3a0:	00676f33          	or	x30,x14,x6
 3a4:	01330333          	add	x6,x6,x19
 3a8:	01829e93          	slli	x29,x5,0x18
 3ac:	01eee0b3          	or	x1,x29,x30
 3b0:	0140e7b3          	or	x15,x1,x20
 3b4:	01b7a023          	sw	x27,0(x15)
 3b8:	ff5312e3          	bne	x6,x21,39c <.L24>
 3bc:	ec5ff06f          	j	280 <.L13>

000003c0 <.L43>:
 3c0:	00088993          	mv	x19,x17
 3c4:	d4dff06f          	j	110 <.L6>

000003c8 <.L46>:
 3c8:	00000d37          	lui	x26,0x0
 3cc:	00000c37          	lui	x24,0x0
 3d0:	018d0c93          	addi	x25,x26,24 # 18 <tensorlib_log_softmax+0x18>
 3d4:	020c0a13          	addi	x20,x24,32 # 20 <tensorlib_log_softmax+0x20>

000003d8 <.L16>:
 3d8:	000c8993          	mv	x19,x25

000003dc <.L18>:
 3dc:	0009cd83          	lbu	x27,0(x19) # 40000 <.L20+0x3fbcc>
 3e0:	00198993          	addi	x19,x19,1
 3e4:	0ffdfa93          	andi	x21,x27,255
 3e8:	fe0a88e3          	beqz	x21,3d8 <.L16>
 3ec:	ff3a18e3          	bne	x20,x19,3dc <.L18>
 3f0:	00070c23          	sb	x0,24(x14)
 3f4:	00070ca3          	sb	x0,25(x14)
 3f8:	00070d23          	sb	x0,26(x14)
 3fc:	00070da3          	sb	x0,27(x14)
 400:	00070e23          	sb	x0,28(x14)
 404:	00070ea3          	sb	x0,29(x14)
 408:	00070f23          	sb	x0,30(x14)
 40c:	00070fa3          	sb	x0,31(x14)
 410:	00072a23          	sw	x0,20(x14)
 414:	00000e13          	li	x28,0
 418:	03fc02b7          	lui	x5,0x3fc0
 41c:	20000f37          	lui	x30,0x20000
 420:	00100313          	li	x6,1
 424:	01000eb7          	lui	x29,0x1000
 428:	080000b7          	lui	x1,0x8000
 42c:	0080006f          	j	434 <.L20>

00000430 <.L48>:
 430:	0004af83          	lw	x31,0(x9)

00000434 <.L20>:
 434:	012f9793          	slli	x15,x31,0x12
 438:	01c3e833          	or	x16,x7,x28
 43c:	0057f533          	and	x10,x15,x5
 440:	010565b3          	or	x11,x10,x16
 444:	01e5eb33          	or	x22,x11,x30
 448:	006b2023          	sw	x6,0(x22) # 231c0000 <.L20+0x231bfbcc>
 44c:	01de0e33          	add	x28,x28,x29
 450:	fe1e10e3          	bne	x28,x1,430 <.L48>
 454:	0004a483          	lw	x9,0(x9)
 458:	00700393          	li	x7,7
 45c:	ee7486e3          	beq	x9,x7,348 <.L21>
 460:	e21ff06f          	j	280 <.L13>

Disassembly of section .srodata.cst4:

00000000 <.LC0>:
   0:	ffff                	0xffff
   2:	ff7f                	0xff7f
