
kernel_LossNLL_backward.o:     file format elf32-littleriscv


Disassembly of section .group:

00000000 <_ZN8HBTensorIfLln1EEC5EP11hb_tensor_t>:
   0:	0001                	nop
   2:	0000                	unimp
   4:	0008                	0x8
   6:	0000                	unimp
   8:	0009                	c.nop	2
	...

Disassembly of section .group:

00000000 <_ZN8HBTensorIiLln1EEC5EP11hb_tensor_t>:
   0:	0001                	nop
   2:	0000                	unimp
   4:	000a                	c.slli	x0,0x2
   6:	0000                	unimp
   8:	0000000b          	0xb

Disassembly of section .text:

00000000 <tensorlib_lossnll_backward_weight>:
       0:	e7010113          	addi	x2,x2,-400
       4:	17312e23          	sw	x19,380(x2)
       8:	17412c23          	sw	x20,376(x2)
       c:	00058993          	mv	x19,x11
      10:	00050a13          	mv	x20,x10
      14:	00070593          	mv	x11,x14
      18:	00810513          	addi	x10,x2,8
      1c:	18112623          	sw	x1,396(x2)
      20:	18812423          	sw	x8,392(x2)
      24:	18912223          	sw	x9,388(x2)
      28:	00078413          	mv	x8,x15
      2c:	00068493          	mv	x9,x13
      30:	19212023          	sw	x18,384(x2)
      34:	17512a23          	sw	x21,372(x2)
      38:	00060913          	mv	x18,x12
      3c:	00088a93          	mv	x21,x17
      40:	17612823          	sw	x22,368(x2)
      44:	00080b13          	mv	x22,x16
      48:	00000097          	auipc	x1,0x0
      4c:	000080e7          	jalr	x1 # 48 <tensorlib_lossnll_backward_weight+0x48>
      50:	000a0593          	mv	x11,x20
      54:	04410513          	addi	x10,x2,68
      58:	00000097          	auipc	x1,0x0
      5c:	000080e7          	jalr	x1 # 58 <tensorlib_lossnll_backward_weight+0x58>
      60:	00098593          	mv	x11,x19
      64:	08010513          	addi	x10,x2,128
      68:	00000097          	auipc	x1,0x0
      6c:	000080e7          	jalr	x1 # 68 <tensorlib_lossnll_backward_weight+0x68>
      70:	00090593          	mv	x11,x18
      74:	0bc10513          	addi	x10,x2,188
      78:	00000097          	auipc	x1,0x0
      7c:	000080e7          	jalr	x1 # 78 <tensorlib_lossnll_backward_weight+0x78>
      80:	00048593          	mv	x11,x9
      84:	0f810513          	addi	x10,x2,248
      88:	00000097          	auipc	x1,0x0
      8c:	000080e7          	jalr	x1 # 88 <tensorlib_lossnll_backward_weight+0x88>
      90:	00040593          	mv	x11,x8
      94:	13410513          	addi	x10,x2,308
      98:	00000097          	auipc	x1,0x0
      9c:	000080e7          	jalr	x1 # 98 <tensorlib_lossnll_backward_weight+0x98>
      a0:	0c012783          	lw	x15,192(x2)
      a4:	00100713          	li	x14,1
      a8:	08f77863          	bgeu	x14,x15,138 <.L109>
      ac:	0c812683          	lw	x13,200(x2)
      b0:	000b2603          	lw	x12,0(x22)
      b4:	000aa803          	lw	x16,0(x21)
      b8:	0006a503          	lw	x10,0(x13)
      bc:	00061663          	bnez	x12,c8 <.L31>
      c0:	00200593          	li	x11,2
      c4:	12b78063          	beq	x15,x11,1e4 <.L110>

000000c8 <.L31>:
      c8:	13412083          	lw	x1,308(x2)
      cc:	0c008063          	beqz	x1,18c <.L111>
      d0:	14412283          	lw	x5,324(x2)
      d4:	f00007d3          	fmv.w.x	f15,x0
      d8:	0002a707          	flw	f14,0(x5)
      dc:	a0f70353          	fle.s	x6,f14,f15
      e0:	22031c63          	bnez	x6,318 <.L36>
      e4:	08412383          	lw	x7,132(x2)
      e8:	00100893          	li	x17,1
      ec:	0078e663          	bltu	x17,x7,f8 <.L53>
      f0:	08012e03          	lw	x28,128(x2)
      f4:	391e0663          	beq	x28,x17,480 <.L112>

000000f8 <.L53>:
      f8:	00000b37          	lui	x22,0x0
      fc:	00000937          	lui	x18,0x0
     100:	000b0593          	mv	x11,x22
     104:	03300613          	li	x12,51
     108:	00090513          	mv	x10,x18
     10c:	00000097          	auipc	x1,0x0
     110:	000080e7          	jalr	x1 # 10c <.L53+0x14>
     114:	000005b7          	lui	x11,0x0
     118:	0005ae03          	lw	x28,0(x11) # 0 <tensorlib_lossnll_backward_weight>
     11c:	000003b7          	lui	x7,0x0
     120:	0003a283          	lw	x5,0(x7) # 0 <tensorlib_lossnll_backward_weight>
     124:	010e1f93          	slli	x31,x28,0x10
     128:	4100ff37          	lui	x30,0x4100f
     12c:	005f8333          	add	x6,x31,x5
     130:	ac6f2c23          	sw	x6,-1320(x30) # 4100ead8 <.L185+0x4100da30>

00000134 <.L55>:
     134:	0000006f          	j	134 <.L55>

00000138 <.L109>:
     138:	00000eb7          	lui	x29,0x0
     13c:	00000e37          	lui	x28,0x0
     140:	000e8593          	mv	x11,x29
     144:	06f00613          	li	x12,111
     148:	000e0513          	mv	x10,x28
     14c:	00000097          	auipc	x1,0x0
     150:	000080e7          	jalr	x1 # 14c <.L109+0x14>
     154:	0c012583          	lw	x11,192(x2)
     158:	00000937          	lui	x18,0x0
     15c:	00090513          	mv	x10,x18
     160:	00000097          	auipc	x1,0x0
     164:	000080e7          	jalr	x1 # 160 <.L109+0x28>
     168:	000003b7          	lui	x7,0x0
     16c:	0003a883          	lw	x17,0(x7) # 0 <tensorlib_lossnll_backward_weight>
     170:	000002b7          	lui	x5,0x0
     174:	0002af83          	lw	x31,0(x5) # 0 <tensorlib_lossnll_backward_weight>
     178:	01089493          	slli	x9,x17,0x10
     17c:	4100f9b7          	lui	x19,0x4100f
     180:	01f487b3          	add	x15,x9,x31
     184:	acf9ac23          	sw	x15,-1320(x19) # 4100ead8 <.L185+0x4100da30>

00000188 <.L30>:
     188:	0000006f          	j	188 <.L30>

0000018c <.L111>:
     18c:	000008b7          	lui	x17,0x0
     190:	00000eb7          	lui	x29,0x0
     194:	00088593          	mv	x11,x17
     198:	08c00613          	li	x12,140
     19c:	000e8513          	mv	x10,x29
     1a0:	00000097          	auipc	x1,0x0
     1a4:	000080e7          	jalr	x1 # 1a0 <.L111+0x14>
     1a8:	13412583          	lw	x11,308(x2)
     1ac:	00000537          	lui	x10,0x0
     1b0:	00000613          	li	x12,0
     1b4:	00050513          	mv	x10,x10
     1b8:	00000097          	auipc	x1,0x0
     1bc:	000080e7          	jalr	x1 # 1b8 <.L111+0x2c>
     1c0:	000006b7          	lui	x13,0x0
     1c4:	0006a783          	lw	x15,0(x13) # 0 <tensorlib_lossnll_backward_weight>
     1c8:	000009b7          	lui	x19,0x0
     1cc:	0009a703          	lw	x14,0(x19) # 0 <tensorlib_lossnll_backward_weight>
     1d0:	01079a13          	slli	x20,x15,0x10
     1d4:	4100fab7          	lui	x21,0x4100f
     1d8:	00ea04b3          	add	x9,x20,x14
     1dc:	ac9aac23          	sw	x9,-1320(x21) # 4100ead8 <.L185+0x4100da30>

000001e0 <.L52>:
     1e0:	0000006f          	j	1e0 <.L52>

000001e4 <.L110>:
     1e4:	08412083          	lw	x1,132(x2)
     1e8:	00e09863          	bne	x1,x14,1f8 <.L32>
     1ec:	08c12403          	lw	x8,140(x2)
     1f0:	00042603          	lw	x12,0(x8)
     1f4:	04c50263          	beq	x10,x12,238 <.L33>

000001f8 <.L32>:
     1f8:	000006b7          	lui	x13,0x0
     1fc:	00000ab7          	lui	x21,0x0
     200:	02200613          	li	x12,34
     204:	00068593          	mv	x11,x13
     208:	000a8513          	mv	x10,x21
     20c:	00000097          	auipc	x1,0x0
     210:	000080e7          	jalr	x1 # 20c <.L32+0x14>
     214:	00000637          	lui	x12,0x0
     218:	00062403          	lw	x8,0(x12) # 0 <tensorlib_lossnll_backward_weight>
     21c:	00000837          	lui	x16,0x0
     220:	00082503          	lw	x10,0(x16) # 0 <tensorlib_lossnll_backward_weight>
     224:	01041713          	slli	x14,x8,0x10
     228:	4100ff37          	lui	x30,0x4100f
     22c:	00a70333          	add	x6,x14,x10
     230:	ac6f2c23          	sw	x6,-1320(x30) # 4100ead8 <.L185+0x4100da30>

00000234 <.L34>:
     234:	0000006f          	j	234 <.L34>

00000238 <.L33>:
     238:	fff50b13          	addi	x22,x10,-1
     23c:	ffd00913          	li	x18,-3
     240:	0d696c63          	bltu	x18,x22,318 <.L36>
     244:	000005b7          	lui	x11,0x0
     248:	0005ae03          	lw	x28,0(x11) # 0 <tensorlib_lossnll_backward_weight>
     24c:	00755393          	srli	x7,x10,0x7
     250:	00138293          	addi	x5,x7,1
     254:	07fe7f93          	andi	x31,x28,127
     258:	025f8433          	mul	x8,x31,x5
     25c:	00828733          	add	x14,x5,x8
     260:	00e57463          	bgeu	x10,x14,268 <.L37>
     264:	00050713          	mv	x14,x10

00000268 <.L37>:
     268:	0ae47863          	bgeu	x8,x14,318 <.L36>
     26c:	0f812683          	lw	x13,248(x2)
     270:	0fc12503          	lw	x10,252(x2)
     274:	10812083          	lw	x1,264(x2)
     278:	10012583          	lw	x11,256(x2)
     27c:	00812303          	lw	x6,8(x2)
     280:	00c12f03          	lw	x30,12(x2)
     284:	01812e83          	lw	x29,24(x2)
     288:	01012983          	lw	x19,16(x2)
     28c:	08012e03          	lw	x28,128(x2)
     290:	09012903          	lw	x18,144(x2)
     294:	08812383          	lw	x7,136(x2)
     298:	04c12883          	lw	x17,76(x2)
     29c:	05412283          	lw	x5,84(x2)
     2a0:	00100613          	li	x12,1

000002a4 <.L50>:
     2a4:	2cd47a63          	bgeu	x8,x13,578 <.L113>
     2a8:	32c50463          	beq	x10,x12,5d0 <.L41>
     2ac:	00241b13          	slli	x22,x8,0x2
     2b0:	01608ab3          	add	x21,x1,x22

000002b4 <.L42>:
     2b4:	000aa483          	lw	x9,0(x21) # 0 <tensorlib_lossnll_backward_weight>
     2b8:	04980c63          	beq	x16,x9,310 <.L43>
     2bc:	3664fe63          	bgeu	x9,x6,638 <.L114>
     2c0:	3ccf0863          	beq	x30,x12,690 <.L46>
     2c4:	00249b13          	slli	x22,x9,0x2
     2c8:	016e8ab3          	add	x21,x29,x22

000002cc <.L47>:
     2cc:	3dc47c63          	bgeu	x8,x28,6a4 <.L115>
     2d0:	0003af83          	lw	x31,0(x7)
     2d4:	0008a783          	lw	x15,0(x17) # 0 <tensorlib_lossnll_backward_weight>
     2d8:	0048ab03          	lw	x22,4(x17)
     2dc:	03f40a33          	mul	x20,x8,x31
     2e0:	000aa287          	flw	f5,0(x21)
     2e4:	002a1f93          	slli	x31,x20,0x2
     2e8:	02f40ab3          	mul	x21,x8,x15
     2ec:	01f907b3          	add	x15,x18,x31
     2f0:	0007a307          	flw	f6,0(x15)
     2f4:	105373d3          	fmul.s	f7,f6,f5
     2f8:	036484b3          	mul	x9,x9,x22
     2fc:	20739553          	fneg.s	f10,f7
     300:	009a8b33          	add	x22,x21,x9
     304:	002b1a13          	slli	x20,x22,0x2
     308:	01428ab3          	add	x21,x5,x20
     30c:	00aaa027          	fsw	f10,0(x21)

00000310 <.L43>:
     310:	00140413          	addi	x8,x8,1
     314:	f88718e3          	bne	x14,x8,2a4 <.L50>

00000318 <.L36>:
     318:	000009b7          	lui	x19,0x0
     31c:	0009ae83          	lw	x29,0(x19) # 0 <tensorlib_lossnll_backward_weight>
     320:	000000b7          	lui	x1,0x0
     324:	0000ae03          	lw	x28,0(x1) # 0 <tensorlib_lossnll_backward_weight>
     328:	00000637          	lui	x12,0x0
     32c:	004e8913          	addi	x18,x29,4 # 4 <tensorlib_lossnll_backward_weight+0x4>
     330:	00060693          	mv	x13,x12
     334:	012683b3          	add	x7,x13,x18
     338:	018e1893          	slli	x17,x28,0x18
     33c:	0113e2b3          	or	x5,x7,x17
     340:	201c0fb7          	lui	x31,0x201c0
     344:	01f2e7b3          	or	x15,x5,x31
     348:	00100493          	li	x9,1
     34c:	00978023          	sb	x9,0(x15)
     350:	0009ab03          	lw	x22,0(x19)
     354:	00700a13          	li	x20,7
     358:	054b0a63          	beq	x22,x20,3ac <.L116>

0000035c <.L80>:
     35c:	00100093          	li	x1,1
     360:	0100006f          	j	370 <.L93>

00000364 <.L117>:
     364:	00060b13          	mv	x22,x12
     368:	140b2a2f          	lr.w.aq	x20,(x22)
     36c:	001a0863          	beq	x20,x1,37c <.L92>

00000370 <.L93>:
     370:	00060993          	mv	x19,x12
     374:	1009a5af          	lr.w	x11,(x19)
     378:	fe1596e3          	bne	x11,x1,364 <.L117>

0000037c <.L92>:
     37c:	18c12083          	lw	x1,396(x2)
     380:	18812403          	lw	x8,392(x2)
     384:	0006a023          	sw	x0,0(x13) # 0 <tensorlib_lossnll_backward_weight>
     388:	18412483          	lw	x9,388(x2)
     38c:	18012903          	lw	x18,384(x2)
     390:	17c12983          	lw	x19,380(x2)
     394:	17812a03          	lw	x20,376(x2)
     398:	17412a83          	lw	x21,372(x2)
     39c:	17012b03          	lw	x22,368(x2)
     3a0:	00000513          	li	x10,0
     3a4:	19010113          	addi	x2,x2,400
     3a8:	00008067          	ret

000003ac <.L116>:
     3ac:	00000ab7          	lui	x21,0x0
     3b0:	00000837          	lui	x16,0x0
     3b4:	004a8413          	addi	x8,x21,4 # 4 <tensorlib_lossnll_backward_weight+0x4>
     3b8:	01480593          	addi	x11,x16,20 # 14 <tensorlib_lossnll_backward_weight+0x14>

000003bc <.L79>:
     3bc:	00040513          	mv	x10,x8

000003c0 <.L82>:
     3c0:	00054703          	lbu	x14,0(x10)
     3c4:	00150513          	addi	x10,x10,1
     3c8:	0ff77313          	andi	x6,x14,255
     3cc:	fe0308e3          	beqz	x6,3bc <.L79>
     3d0:	fea598e3          	bne	x11,x10,3c0 <.L82>
     3d4:	0000af03          	lw	x30,0(x1)
     3d8:	231c0937          	lui	x18,0x231c0
     3dc:	00100893          	li	x17,1
     3e0:	018f0e93          	addi	x29,x30,24
     3e4:	01d68e33          	add	x28,x13,x29
     3e8:	012e63b3          	or	x7,x28,x18
     3ec:	01138023          	sb	x17,0(x7)
     3f0:	0009a283          	lw	x5,0(x19)
     3f4:	00700f93          	li	x31,7
     3f8:	f7f292e3          	bne	x5,x31,35c <.L80>
     3fc:	0000a483          	lw	x9,0(x1)
     400:	00300793          	li	x15,3
     404:	0cf48c63          	beq	x9,x15,4dc <.L118>

00000408 <.L88>:
     408:	00100b13          	li	x22,1
     40c:	0100006f          	j	41c <.L84>

00000410 <.L119>:
     410:	01468413          	addi	x8,x13,20
     414:	1404282f          	lr.w.aq	x16,(x8)
     418:	01680863          	beq	x16,x22,428 <.L89>

0000041c <.L84>:
     41c:	01468a13          	addi	x20,x13,20
     420:	100a2aaf          	lr.w	x21,(x20)
     424:	ff6a96e3          	bne	x21,x22,410 <.L119>

00000428 <.L89>:
     428:	0006aa23          	sw	x0,20(x13)
     42c:	00000313          	li	x6,0
     430:	01000513          	li	x10,16

00000434 <.L90>:
     434:	00668733          	add	x14,x13,x6
     438:	00070223          	sb	x0,4(x14)
     43c:	00130313          	addi	x6,x6,1
     440:	fea31ae3          	bne	x6,x10,434 <.L90>
     444:	0006a023          	sw	x0,0(x13)
     448:	00000293          	li	x5,0
     44c:	20000f37          	lui	x30,0x20000
     450:	00100e93          	li	x29,1
     454:	00040e37          	lui	x28,0x40
     458:	00400937          	lui	x18,0x400

0000045c <.L91>:
     45c:	0000a383          	lw	x7,0(x1)
     460:	0056e8b3          	or	x17,x13,x5
     464:	01c282b3          	add	x5,x5,x28
     468:	01839f93          	slli	x31,x7,0x18
     46c:	011fe4b3          	or	x9,x31,x17
     470:	01e4e7b3          	or	x15,x9,x30
     474:	01d7a023          	sw	x29,0(x15)
     478:	ff2292e3          	bne	x5,x18,45c <.L91>
     47c:	ee1ff06f          	j	35c <.L80>

00000480 <.L112>:
     480:	00200e93          	li	x29,2
     484:	e9d79ae3          	bne	x15,x29,318 <.L36>
     488:	0fc12b03          	lw	x22,252(x2)
     48c:	140b0c63          	beqz	x22,5e4 <.L120>
     490:	10412f03          	lw	x30,260(x2)
     494:	000f2f83          	lw	x31,0(x30) # 20000000 <.L185+0x1fffef58>
     498:	27f50263          	beq	x10,x31,6fc <.L58>
     49c:	000003b7          	lui	x7,0x0
     4a0:	000002b7          	lui	x5,0x0
     4a4:	03e00613          	li	x12,62
     4a8:	00038593          	mv	x11,x7
     4ac:	00028513          	mv	x10,x5
     4b0:	00000097          	auipc	x1,0x0
     4b4:	000080e7          	jalr	x1 # 4b0 <.L112+0x30>
     4b8:	00000fb7          	lui	x31,0x0
     4bc:	000fa303          	lw	x6,0(x31) # 0 <tensorlib_lossnll_backward_weight>
     4c0:	00000f37          	lui	x30,0x0
     4c4:	000f2883          	lw	x17,0(x30) # 0 <tensorlib_lossnll_backward_weight>
     4c8:	01031e93          	slli	x29,x6,0x10
     4cc:	4100f6b7          	lui	x13,0x4100f
     4d0:	011e8533          	add	x10,x29,x17
     4d4:	aca6ac23          	sw	x10,-1320(x13) # 4100ead8 <.L185+0x4100da30>

000004d8 <.L59>:
     4d8:	0000006f          	j	4d8 <.L59>

000004dc <.L118>:
     4dc:	00000b37          	lui	x22,0x0
     4e0:	00000ab7          	lui	x21,0x0
     4e4:	018b0a13          	addi	x20,x22,24 # 18 <tensorlib_lossnll_backward_weight+0x18>
     4e8:	020a8413          	addi	x8,x21,32 # 20 <tensorlib_lossnll_backward_weight+0x20>

000004ec <.L83>:
     4ec:	000a0513          	mv	x10,x20

000004f0 <.L85>:
     4f0:	00054803          	lbu	x16,0(x10)
     4f4:	00150513          	addi	x10,x10,1
     4f8:	0ff87713          	andi	x14,x16,255
     4fc:	fe0708e3          	beqz	x14,4ec <.L83>
     500:	fea418e3          	bne	x8,x10,4f0 <.L85>
     504:	00068c23          	sb	x0,24(x13)
     508:	00068ca3          	sb	x0,25(x13)
     50c:	00068d23          	sb	x0,26(x13)
     510:	00068da3          	sb	x0,27(x13)
     514:	00068e23          	sb	x0,28(x13)
     518:	00068ea3          	sb	x0,29(x13)
     51c:	00068f23          	sb	x0,30(x13)
     520:	00068fa3          	sb	x0,31(x13)
     524:	0006aa23          	sw	x0,20(x13)
     528:	00000793          	li	x15,0
     52c:	03fc0337          	lui	x6,0x3fc0
     530:	20000f37          	lui	x30,0x20000
     534:	00100e93          	li	x29,1
     538:	01000e37          	lui	x28,0x1000
     53c:	08000937          	lui	x18,0x8000
     540:	0080006f          	j	548 <.L87>

00000544 <.L121>:
     544:	0009a283          	lw	x5,0(x19)

00000548 <.L87>:
     548:	01229393          	slli	x7,x5,0x12
     54c:	00f5e8b3          	or	x17,x11,x15
     550:	0063f2b3          	and	x5,x7,x6
     554:	0112efb3          	or	x31,x5,x17
     558:	01efe4b3          	or	x9,x31,x30
     55c:	01d4a023          	sw	x29,0(x9)
     560:	01c787b3          	add	x15,x15,x28
     564:	ff2790e3          	bne	x15,x18,544 <.L121>
     568:	0009a983          	lw	x19,0(x19)
     56c:	00700593          	li	x11,7
     570:	e8b98ce3          	beq	x19,x11,408 <.L88>
     574:	de9ff06f          	j	35c <.L80>

00000578 <.L113>:
     578:	00000a37          	lui	x20,0x0
     57c:	00000ab7          	lui	x21,0x0
     580:	000a0593          	mv	x11,x20
     584:	08c00613          	li	x12,140
     588:	000a8513          	mv	x10,x21
     58c:	00000097          	auipc	x1,0x0
     590:	000080e7          	jalr	x1 # 58c <.L113+0x14>
     594:	0f812583          	lw	x11,248(x2)
     598:	00040613          	mv	x12,x8
     59c:	00000437          	lui	x8,0x0
     5a0:	00040513          	mv	x10,x8
     5a4:	00000097          	auipc	x1,0x0
     5a8:	000080e7          	jalr	x1 # 5a4 <.L113+0x2c>
     5ac:	00000837          	lui	x16,0x0
     5b0:	00082683          	lw	x13,0(x16) # 0 <tensorlib_lossnll_backward_weight>
     5b4:	00000737          	lui	x14,0x0
     5b8:	00072503          	lw	x10,0(x14) # 0 <tensorlib_lossnll_backward_weight>
     5bc:	01069593          	slli	x11,x13,0x10
     5c0:	4100ff37          	lui	x30,0x4100f
     5c4:	00a58333          	add	x6,x11,x10
     5c8:	ac6f2c23          	sw	x6,-1320(x30) # 4100ead8 <.L185+0x4100da30>

000005cc <.L40>:
     5cc:	0000006f          	j	5cc <.L40>

000005d0 <.L41>:
     5d0:	0005a783          	lw	x15,0(x11)
     5d4:	02f40a33          	mul	x20,x8,x15
     5d8:	002a1493          	slli	x9,x20,0x2
     5dc:	00908ab3          	add	x21,x1,x9
     5e0:	cd5ff06f          	j	2b4 <.L42>

000005e4 <.L120>:
     5e4:	000000b7          	lui	x1,0x0
     5e8:	000007b7          	lui	x15,0x0
     5ec:	06f00613          	li	x12,111
     5f0:	00008593          	mv	x11,x1
     5f4:	00078513          	mv	x10,x15
     5f8:	00000097          	auipc	x1,0x0
     5fc:	000080e7          	jalr	x1 # 5f8 <.L120+0x14>
     600:	0fc12583          	lw	x11,252(x2)
     604:	000009b7          	lui	x19,0x0
     608:	00098513          	mv	x10,x19
     60c:	00000097          	auipc	x1,0x0
     610:	000080e7          	jalr	x1 # 60c <.L120+0x28>
     614:	00000737          	lui	x14,0x0
     618:	00072a03          	lw	x20,0(x14) # 0 <tensorlib_lossnll_backward_weight>
     61c:	000004b7          	lui	x9,0x0
     620:	0004aa83          	lw	x21,0(x9) # 0 <tensorlib_lossnll_backward_weight>
     624:	010a1413          	slli	x8,x20,0x10
     628:	4100f837          	lui	x16,0x4100f
     62c:	01540633          	add	x12,x8,x21
     630:	acc82c23          	sw	x12,-1320(x16) # 4100ead8 <.L185+0x4100da30>

00000634 <.L57>:
     634:	0000006f          	j	634 <.L57>

00000638 <.L114>:
     638:	000000b7          	lui	x1,0x0
     63c:	00000937          	lui	x18,0x0
     640:	00008593          	mv	x11,x1
     644:	08c00613          	li	x12,140
     648:	00090513          	mv	x10,x18
     64c:	00000097          	auipc	x1,0x0
     650:	000080e7          	jalr	x1 # 64c <.L114+0x14>
     654:	00812583          	lw	x11,8(x2)
     658:	000003b7          	lui	x7,0x0
     65c:	00048613          	mv	x12,x9
     660:	00038513          	mv	x10,x7
     664:	00000097          	auipc	x1,0x0
     668:	000080e7          	jalr	x1 # 664 <.L114+0x2c>
     66c:	000008b7          	lui	x17,0x0
     670:	0008a283          	lw	x5,0(x17) # 0 <tensorlib_lossnll_backward_weight>
     674:	00000637          	lui	x12,0x0
     678:	00062f83          	lw	x31,0(x12) # 0 <tensorlib_lossnll_backward_weight>
     67c:	01029793          	slli	x15,x5,0x10
     680:	4100fb37          	lui	x22,0x4100f
     684:	01f784b3          	add	x9,x15,x31
     688:	ac9b2c23          	sw	x9,-1320(x22) # 4100ead8 <.L185+0x4100da30>

0000068c <.L45>:
     68c:	0000006f          	j	68c <.L45>

00000690 <.L46>:
     690:	0009af83          	lw	x31,0(x19) # 0 <tensorlib_lossnll_backward_weight>
     694:	03f487b3          	mul	x15,x9,x31
     698:	00279a13          	slli	x20,x15,0x2
     69c:	014e8ab3          	add	x21,x29,x20
     6a0:	c2dff06f          	j	2cc <.L47>

000006a4 <.L115>:
     6a4:	00000837          	lui	x16,0x0
     6a8:	00000737          	lui	x14,0x0
     6ac:	00080593          	mv	x11,x16
     6b0:	08c00613          	li	x12,140
     6b4:	00070513          	mv	x10,x14
     6b8:	00000097          	auipc	x1,0x0
     6bc:	000080e7          	jalr	x1 # 6b8 <.L115+0x14>
     6c0:	08012583          	lw	x11,128(x2)
     6c4:	000006b7          	lui	x13,0x0
     6c8:	00040613          	mv	x12,x8
     6cc:	00068513          	mv	x10,x13
     6d0:	00000097          	auipc	x1,0x0
     6d4:	000080e7          	jalr	x1 # 6d0 <.L115+0x2c>
     6d8:	00000537          	lui	x10,0x0
     6dc:	00052583          	lw	x11,0(x10) # 0 <tensorlib_lossnll_backward_weight>
     6e0:	00000337          	lui	x6,0x0
     6e4:	00032f03          	lw	x30,0(x6) # 0 <tensorlib_lossnll_backward_weight>
     6e8:	01059e93          	slli	x29,x11,0x10
     6ec:	4100fe37          	lui	x28,0x4100f
     6f0:	01ee89b3          	add	x19,x29,x30
     6f4:	ad3e2c23          	sw	x19,-1320(x28) # 4100ead8 <.L185+0x4100da30>

000006f8 <.L49>:
     6f8:	0000006f          	j	6f8 <.L49>

000006fc <.L58>:
     6fc:	fff50a13          	addi	x20,x10,-1
     700:	ffd00993          	li	x19,-3
     704:	c149eae3          	bltu	x19,x20,318 <.L36>
     708:	00000937          	lui	x18,0x0
     70c:	00092483          	lw	x9,0(x18) # 0 <tensorlib_lossnll_backward_weight>
     710:	00755413          	srli	x8,x10,0x7
     714:	00140a93          	addi	x21,x8,1 # 1 <tensorlib_lossnll_backward_weight+0x1>
     718:	07f4f793          	andi	x15,x9,127
     71c:	03578433          	mul	x8,x15,x21
     720:	008a85b3          	add	x11,x21,x8
     724:	00b57463          	bgeu	x10,x11,72c <.L61>
     728:	00050593          	mv	x11,x10

0000072c <.L61>:
     72c:	beb476e3          	bgeu	x8,x11,318 <.L36>
     730:	00000737          	lui	x14,0x0
     734:	00072007          	flw	f0,0(x14) # 0 <tensorlib_lossnll_backward_weight>
     738:	0046a083          	lw	x1,4(x13) # 4 <tensorlib_lossnll_backward_weight+0x4>
     73c:	09012683          	lw	x13,144(x2)
     740:	18e070d3          	fdiv.s	f1,f0,f14
     744:	0f812903          	lw	x18,248(x2)
     748:	0006a687          	flw	f13,0(x13)
     74c:	10812e03          	lw	x28,264(x2)
     750:	10012383          	lw	x7,256(x2)
     754:	00812283          	lw	x5,8(x2)
     758:	00c12f83          	lw	x31,12(x2)
     75c:	01812303          	lw	x6,24(x2)
     760:	01012f03          	lw	x30,16(x2)
     764:	04c12883          	lw	x17,76(x2)
     768:	05412e83          	lw	x29,84(x2)
     76c:	00100513          	li	x10,1

00000770 <.L78>:
     770:	0b247863          	bgeu	x8,x18,820 <.L122>
     774:	10ab0263          	beq	x22,x10,878 <.L65>
     778:	00241793          	slli	x15,x8,0x2
     77c:	00fe0ab3          	add	x21,x28,x15

00000780 <.L66>:
     780:	000aa983          	lw	x19,0(x21) # 0 <tensorlib_lossnll_backward_weight>
     784:	09380863          	beq	x16,x19,814 <.L68>
     788:	0009c463          	bltz	x19,790 <.L69>
     78c:	0419e263          	bltu	x19,x1,7d0 <.L70>

00000790 <.L69>:
     790:	000000b7          	lui	x1,0x0
     794:	00000f37          	lui	x30,0x0
     798:	04400613          	li	x12,68
     79c:	00008593          	mv	x11,x1
     7a0:	000f0513          	mv	x10,x30
     7a4:	00000097          	auipc	x1,0x0
     7a8:	000080e7          	jalr	x1 # 7a4 <.L69+0x14>
     7ac:	000008b7          	lui	x17,0x0
     7b0:	0008ae83          	lw	x29,0(x17) # 0 <tensorlib_lossnll_backward_weight>
     7b4:	00000537          	lui	x10,0x0
     7b8:	00052683          	lw	x13,0(x10) # 0 <tensorlib_lossnll_backward_weight>
     7bc:	010e9793          	slli	x15,x29,0x10
     7c0:	4100f737          	lui	x14,0x4100f
     7c4:	00d789b3          	add	x19,x15,x13
     7c8:	ad372c23          	sw	x19,-1320(x14) # 4100ead8 <.L185+0x4100da30>

000007cc <.L71>:
     7cc:	0000006f          	j	7cc <.L71>

000007d0 <.L70>:
     7d0:	0a59fe63          	bgeu	x19,x5,88c <.L123>
     7d4:	10af8863          	beq	x31,x10,8e4 <.L74>
     7d8:	00299a93          	slli	x21,x19,0x2
     7dc:	015304b3          	add	x9,x6,x21

000007e0 <.L75>:
     7e0:	0008a783          	lw	x15,0(x17)
     7e4:	0048a683          	lw	x13,4(x17)
     7e8:	0004a107          	flw	f2,0(x9)
     7ec:	02f40733          	mul	x14,x8,x15
     7f0:	1026f1d3          	fmul.s	f3,f13,f2
     7f4:	20319253          	fneg.s	f4,f3
     7f8:	02d989b3          	mul	x19,x19,x13
     7fc:	01370a33          	add	x20,x14,x19
     800:	002a1493          	slli	x9,x20,0x2
     804:	009e8ab3          	add	x21,x29,x9
     808:	00a61463          	bne	x12,x10,810 <.L108>
     80c:	10127253          	fmul.s	f4,f4,f1

00000810 <.L108>:
     810:	004aa027          	fsw	f4,0(x21)

00000814 <.L68>:
     814:	00140413          	addi	x8,x8,1
     818:	f4859ce3          	bne	x11,x8,770 <.L78>
     81c:	afdff06f          	j	318 <.L36>

00000820 <.L122>:
     820:	00000a37          	lui	x20,0x0
     824:	000004b7          	lui	x9,0x0
     828:	000a0593          	mv	x11,x20
     82c:	08c00613          	li	x12,140
     830:	00048513          	mv	x10,x9
     834:	00000097          	auipc	x1,0x0
     838:	000080e7          	jalr	x1 # 834 <.L122+0x14>
     83c:	0f812583          	lw	x11,248(x2)
     840:	00000ab7          	lui	x21,0x0
     844:	00040613          	mv	x12,x8
     848:	000a8513          	mv	x10,x21
     84c:	00000097          	auipc	x1,0x0
     850:	000080e7          	jalr	x1 # 84c <.L122+0x2c>
     854:	00000437          	lui	x8,0x0
     858:	00042603          	lw	x12,0(x8) # 0 <tensorlib_lossnll_backward_weight>
     85c:	00000837          	lui	x16,0x0
     860:	00082b03          	lw	x22,0(x16) # 0 <tensorlib_lossnll_backward_weight>
     864:	01061593          	slli	x11,x12,0x10
     868:	4100fe37          	lui	x28,0x4100f
     86c:	01658933          	add	x18,x11,x22
     870:	ad2e2c23          	sw	x18,-1320(x28) # 4100ead8 <.L185+0x4100da30>

00000874 <.L64>:
     874:	0000006f          	j	874 <.L64>

00000878 <.L65>:
     878:	0003aa03          	lw	x20,0(x7) # 0 <tensorlib_lossnll_backward_weight>
     87c:	034409b3          	mul	x19,x8,x20
     880:	00299493          	slli	x9,x19,0x2
     884:	009e0ab3          	add	x21,x28,x9
     888:	ef9ff06f          	j	780 <.L66>

0000088c <.L123>:
     88c:	00000837          	lui	x16,0x0
     890:	00000637          	lui	x12,0x0
     894:	00060593          	mv	x11,x12
     898:	00080513          	mv	x10,x16
     89c:	08c00613          	li	x12,140
     8a0:	00000097          	auipc	x1,0x0
     8a4:	000080e7          	jalr	x1 # 8a0 <.L123+0x14>
     8a8:	00812583          	lw	x11,8(x2)
     8ac:	00000b37          	lui	x22,0x0
     8b0:	00098613          	mv	x12,x19
     8b4:	000b0513          	mv	x10,x22
     8b8:	00000097          	auipc	x1,0x0
     8bc:	000080e7          	jalr	x1 # 8b8 <.L123+0x2c>
     8c0:	000005b7          	lui	x11,0x0
     8c4:	0005a903          	lw	x18,0(x11) # 0 <tensorlib_lossnll_backward_weight>
     8c8:	00000e37          	lui	x28,0x0
     8cc:	000e2383          	lw	x7,0(x28) # 0 <tensorlib_lossnll_backward_weight>
     8d0:	01091293          	slli	x5,x18,0x10
     8d4:	4100f337          	lui	x6,0x4100f
     8d8:	00728fb3          	add	x31,x5,x7
     8dc:	adf32c23          	sw	x31,-1320(x6) # 4100ead8 <.L185+0x4100da30>

000008e0 <.L73>:
     8e0:	0000006f          	j	8e0 <.L73>

000008e4 <.L74>:
     8e4:	000f2703          	lw	x14,0(x30) # 0 <tensorlib_lossnll_backward_weight>
     8e8:	02e986b3          	mul	x13,x19,x14
     8ec:	00269a13          	slli	x20,x13,0x2
     8f0:	014304b3          	add	x9,x6,x20
     8f4:	eedff06f          	j	7e0 <.L75>

000008f8 <_Z31tensorlib_lossnll_backward_implIZ26tensorlib_lossnll_backwardEUliE_EiP11hb_tensor_tS2_S2_S2_S2_PmPlT_>:
     8f8:	eb010113          	addi	x2,x2,-336
     8fc:	00050893          	mv	x17,x10
     900:	15212023          	sw	x18,320(x2)
     904:	00410513          	addi	x10,x2,4
     908:	00058913          	mv	x18,x11
     90c:	00088593          	mv	x11,x17
     910:	14112623          	sw	x1,332(x2)
     914:	14812423          	sw	x8,328(x2)
     918:	14912223          	sw	x9,324(x2)
     91c:	00080413          	mv	x8,x16
     920:	00078493          	mv	x9,x15
     924:	13312e23          	sw	x19,316(x2)
     928:	13412c23          	sw	x20,312(x2)
     92c:	00070993          	mv	x19,x14
     930:	00068a13          	mv	x20,x13
     934:	13512a23          	sw	x21,308(x2)
     938:	00060a93          	mv	x21,x12
     93c:	00000097          	auipc	x1,0x0
     940:	000080e7          	jalr	x1 # 93c <_Z31tensorlib_lossnll_backward_implIZ26tensorlib_lossnll_backwardEUliE_EiP11hb_tensor_tS2_S2_S2_S2_PmPlT_+0x44>
     944:	00090593          	mv	x11,x18
     948:	04010513          	addi	x10,x2,64
     94c:	00000097          	auipc	x1,0x0
     950:	000080e7          	jalr	x1 # 94c <_Z31tensorlib_lossnll_backward_implIZ26tensorlib_lossnll_backwardEUliE_EiP11hb_tensor_tS2_S2_S2_S2_PmPlT_+0x54>
     954:	000a8593          	mv	x11,x21
     958:	07c10513          	addi	x10,x2,124
     95c:	00000097          	auipc	x1,0x0
     960:	000080e7          	jalr	x1 # 95c <_Z31tensorlib_lossnll_backward_implIZ26tensorlib_lossnll_backwardEUliE_EiP11hb_tensor_tS2_S2_S2_S2_PmPlT_+0x64>
     964:	000a0593          	mv	x11,x20
     968:	0b810513          	addi	x10,x2,184
     96c:	00000097          	auipc	x1,0x0
     970:	000080e7          	jalr	x1 # 96c <_Z31tensorlib_lossnll_backward_implIZ26tensorlib_lossnll_backwardEUliE_EiP11hb_tensor_tS2_S2_S2_S2_PmPlT_+0x74>
     974:	00098593          	mv	x11,x19
     978:	0f410513          	addi	x10,x2,244
     97c:	00000097          	auipc	x1,0x0
     980:	000080e7          	jalr	x1 # 97c <_Z31tensorlib_lossnll_backward_implIZ26tensorlib_lossnll_backwardEUliE_EiP11hb_tensor_tS2_S2_S2_S2_PmPlT_+0x84>
     984:	08012703          	lw	x14,128(x2)
     988:	00100613          	li	x12,1
     98c:	08e67863          	bgeu	x12,x14,a1c <.L168>
     990:	08812583          	lw	x11,136(x2)
     994:	0004a503          	lw	x10,0(x9) # 0 <tensorlib_lossnll_backward_weight>
     998:	00042683          	lw	x13,0(x8)
     99c:	0005a783          	lw	x15,0(x11)
     9a0:	00051663          	bnez	x10,9ac <.L127>
     9a4:	00200813          	li	x16,2
     9a8:	21070663          	beq	x14,x16,bb4 <.L169>

000009ac <.L127>:
     9ac:	0f412083          	lw	x1,244(x2)
     9b0:	0c008063          	beqz	x1,a70 <.L170>
     9b4:	10412283          	lw	x5,260(x2)
     9b8:	f0000753          	fmv.w.x	f14,x0
     9bc:	0002a787          	flw	f15,0(x5) # 0 <tensorlib_lossnll_backward_weight>
     9c0:	a0e78353          	fle.s	x6,f15,f14
     9c4:	1c031463          	bnez	x6,b8c <.L132>
     9c8:	04412383          	lw	x7,68(x2)
     9cc:	00100e13          	li	x28,1
     9d0:	007e6663          	bltu	x28,x7,9dc <.L145>
     9d4:	04012e83          	lw	x29,64(x2)
     9d8:	23ce8863          	beq	x29,x28,c08 <.L171>

000009dc <.L145>:
     9dc:	000000b7          	lui	x1,0x0
     9e0:	000003b7          	lui	x7,0x0
     9e4:	00008593          	mv	x11,x1
     9e8:	03300613          	li	x12,51
     9ec:	00038513          	mv	x10,x7
     9f0:	00000097          	auipc	x1,0x0
     9f4:	000080e7          	jalr	x1 # 9f0 <.L145+0x14>
     9f8:	000008b7          	lui	x17,0x0
     9fc:	0008aa83          	lw	x21,0(x17) # 0 <tensorlib_lossnll_backward_weight>
     a00:	00000437          	lui	x8,0x0
     a04:	00042583          	lw	x11,0(x8) # 0 <tensorlib_lossnll_backward_weight>
     a08:	010a9513          	slli	x10,x21,0x10
     a0c:	4100f937          	lui	x18,0x4100f
     a10:	00b506b3          	add	x13,x10,x11
     a14:	acd92c23          	sw	x13,-1320(x18) # 4100ead8 <.L185+0x4100da30>

00000a18 <.L147>:
     a18:	0000006f          	j	a18 <.L147>

00000a1c <.L168>:
     a1c:	00000eb7          	lui	x29,0x0
     a20:	00000e37          	lui	x28,0x0
     a24:	000e8593          	mv	x11,x29
     a28:	06f00613          	li	x12,111
     a2c:	000e0513          	mv	x10,x28
     a30:	00000097          	auipc	x1,0x0
     a34:	000080e7          	jalr	x1 # a30 <.L168+0x14>
     a38:	08012583          	lw	x11,128(x2)
     a3c:	00000837          	lui	x16,0x0
     a40:	00080513          	mv	x10,x16
     a44:	00000097          	auipc	x1,0x0
     a48:	000080e7          	jalr	x1 # a44 <.L168+0x28>
     a4c:	00000337          	lui	x6,0x0
     a50:	00032483          	lw	x9,0(x6) # 0 <tensorlib_lossnll_backward_weight>
     a54:	000005b7          	lui	x11,0x0
     a58:	0005a383          	lw	x7,0(x11) # 0 <tensorlib_lossnll_backward_weight>
     a5c:	01049713          	slli	x14,x9,0x10
     a60:	4100fab7          	lui	x21,0x4100f
     a64:	007708b3          	add	x17,x14,x7
     a68:	ad1aac23          	sw	x17,-1320(x21) # 4100ead8 <.L185+0x4100da30>

00000a6c <.L126>:
     a6c:	0000006f          	j	a6c <.L126>

00000a70 <.L170>:
     a70:	00000837          	lui	x16,0x0
     a74:	00000f37          	lui	x30,0x0
     a78:	00080593          	mv	x11,x16
     a7c:	08c00613          	li	x12,140
     a80:	000f0513          	mv	x10,x30
     a84:	00000097          	auipc	x1,0x0
     a88:	000080e7          	jalr	x1 # a84 <.L170+0x14>
     a8c:	0f412583          	lw	x11,244(x2)
     a90:	00000eb7          	lui	x29,0x0
     a94:	00000613          	li	x12,0
     a98:	000e8513          	mv	x10,x29
     a9c:	00000097          	auipc	x1,0x0
     aa0:	000080e7          	jalr	x1 # a9c <.L170+0x2c>
     aa4:	00000e37          	lui	x28,0x0
     aa8:	000e2303          	lw	x6,0(x28) # 0 <tensorlib_lossnll_backward_weight>
     aac:	00000fb7          	lui	x31,0x0
     ab0:	000fa283          	lw	x5,0(x31) # 0 <tensorlib_lossnll_backward_weight>
     ab4:	01031a13          	slli	x20,x6,0x10
     ab8:	4100f4b7          	lui	x9,0x4100f
     abc:	005a09b3          	add	x19,x20,x5
     ac0:	ad34ac23          	sw	x19,-1320(x9) # 4100ead8 <.L185+0x4100da30>

00000ac4 <.L144>:
     ac4:	0000006f          	j	ac4 <.L144>

00000ac8 <.L150>:
     ac8:	fff78a93          	addi	x21,x15,-1
     acc:	ffd00a13          	li	x20,-3
     ad0:	0b5a6e63          	bltu	x20,x21,b8c <.L132>
     ad4:	000009b7          	lui	x19,0x0
     ad8:	0009a483          	lw	x9,0(x19) # 0 <tensorlib_lossnll_backward_weight>
     adc:	0077d413          	srli	x8,x15,0x7
     ae0:	00140713          	addi	x14,x8,1
     ae4:	07f4f613          	andi	x12,x9,127
     ae8:	02e60433          	mul	x8,x12,x14
     aec:	00870833          	add	x16,x14,x8
     af0:	0107f463          	bgeu	x15,x16,af8 <.L153>
     af4:	00078813          	mv	x16,x15

00000af8 <.L153>:
     af8:	09047a63          	bgeu	x8,x16,b8c <.L132>
     afc:	0045af03          	lw	x30,4(x11)
     b00:	05012583          	lw	x11,80(x2)
     b04:	0c812083          	lw	x1,200(x2)
     b08:	0b812e83          	lw	x29,184(x2)
     b0c:	0005a007          	flw	f0,0(x11)
     b10:	0c012e03          	lw	x28,192(x2)
     b14:	00c12303          	lw	x6,12(x2)
     b18:	200010d3          	fneg.s	f1,f0
     b1c:	01412f83          	lw	x31,20(x2)
     b20:	00241793          	slli	x15,x8,0x2
     b24:	18f0f153          	fdiv.s	f2,f1,f15
     b28:	00f085b3          	add	x11,x1,x15
     b2c:	00100293          	li	x5,1

00000b30 <.L166>:
     b30:	25d47e63          	bgeu	x8,x29,d8c <.L172>
     b34:	00058a13          	mv	x20,x11
     b38:	00591a63          	bne	x18,x5,b4c <.L158>
     b3c:	000e2383          	lw	x7,0(x28)
     b40:	027408b3          	mul	x17,x8,x7
     b44:	00289a93          	slli	x21,x17,0x2
     b48:	01508a33          	add	x20,x1,x21

00000b4c <.L158>:
     b4c:	000a2983          	lw	x19,0(x20) # 0 <tensorlib_lossnll_backward_weight>
     b50:	03368863          	beq	x13,x19,b80 <.L160>
     b54:	2809cc63          	bltz	x19,dec <.L161>
     b58:	29e9fa63          	bgeu	x19,x30,dec <.L161>
     b5c:	00032483          	lw	x9,0(x6)
     b60:	00432703          	lw	x14,4(x6)
     b64:	029407b3          	mul	x15,x8,x9
     b68:	02e98633          	mul	x12,x19,x14
     b6c:	00c783b3          	add	x7,x15,x12
     b70:	00239893          	slli	x17,x7,0x2
     b74:	011f8ab3          	add	x21,x31,x17
     b78:	26550663          	beq	x10,x5,de4 <.L164>
     b7c:	001aa027          	fsw	f1,0(x21)

00000b80 <.L160>:
     b80:	00140413          	addi	x8,x8,1
     b84:	00458593          	addi	x11,x11,4
     b88:	fa8814e3          	bne	x16,x8,b30 <.L166>

00000b8c <.L132>:
     b8c:	14c12083          	lw	x1,332(x2)
     b90:	14812403          	lw	x8,328(x2)
     b94:	14412483          	lw	x9,324(x2)
     b98:	14012903          	lw	x18,320(x2)
     b9c:	13c12983          	lw	x19,316(x2)
     ba0:	13812a03          	lw	x20,312(x2)
     ba4:	13412a83          	lw	x21,308(x2)
     ba8:	00000513          	li	x10,0
     bac:	15010113          	addi	x2,x2,336
     bb0:	00008067          	ret

00000bb4 <.L169>:
     bb4:	04412703          	lw	x14,68(x2)
     bb8:	00c71863          	bne	x14,x12,bc8 <.L128>
     bbc:	04c12603          	lw	x12,76(x2)
     bc0:	00062083          	lw	x1,0(x12) # 0 <tensorlib_lossnll_backward_weight>
     bc4:	0e178a63          	beq	x15,x1,cb8 <.L129>

00000bc8 <.L128>:
     bc8:	00000937          	lui	x18,0x0
     bcc:	00000437          	lui	x8,0x0
     bd0:	02200613          	li	x12,34
     bd4:	00090593          	mv	x11,x18
     bd8:	00040513          	mv	x10,x8
     bdc:	00000097          	auipc	x1,0x0
     be0:	000080e7          	jalr	x1 # bdc <.L128+0x14>
     be4:	000006b7          	lui	x13,0x0
     be8:	0006aa03          	lw	x20,0(x13) # 0 <tensorlib_lossnll_backward_weight>
     bec:	000009b7          	lui	x19,0x0
     bf0:	0009a603          	lw	x12,0(x19) # 0 <tensorlib_lossnll_backward_weight>
     bf4:	010a1293          	slli	x5,x20,0x10
     bf8:	4100ff37          	lui	x30,0x4100f
     bfc:	00c28fb3          	add	x31,x5,x12
     c00:	adff2c23          	sw	x31,-1320(x30) # 4100ead8 <.L185+0x4100da30>

00000c04 <.L130>:
     c04:	0000006f          	j	c04 <.L130>

00000c08 <.L171>:
     c08:	00200f13          	li	x30,2
     c0c:	f9e710e3          	bne	x14,x30,b8c <.L132>
     c10:	0bc12903          	lw	x18,188(x2)
     c14:	04090863          	beqz	x18,c64 <.L173>
     c18:	0c412f83          	lw	x31,196(x2)
     c1c:	000fa883          	lw	x17,0(x31)
     c20:	eb1784e3          	beq	x15,x17,ac8 <.L150>
     c24:	00000ab7          	lui	x21,0x0
     c28:	00000437          	lui	x8,0x0
     c2c:	000a8593          	mv	x11,x21
     c30:	03e00613          	li	x12,62
     c34:	00040513          	mv	x10,x8
     c38:	00000097          	auipc	x1,0x0
     c3c:	000080e7          	jalr	x1 # c38 <.L171+0x30>
     c40:	000005b7          	lui	x11,0x0
     c44:	0005a503          	lw	x10,0(x11) # 0 <tensorlib_lossnll_backward_weight>
     c48:	000006b7          	lui	x13,0x0
     c4c:	0006a903          	lw	x18,0(x13) # 0 <tensorlib_lossnll_backward_weight>
     c50:	01051813          	slli	x16,x10,0x10
     c54:	4100feb7          	lui	x29,0x4100f
     c58:	01280f33          	add	x30,x16,x18
     c5c:	adeeac23          	sw	x30,-1320(x29) # 4100ead8 <.L185+0x4100da30>

00000c60 <.L151>:
     c60:	0000006f          	j	c60 <.L151>

00000c64 <.L173>:
     c64:	00000e37          	lui	x28,0x0
     c68:	00000337          	lui	x6,0x0
     c6c:	06f00613          	li	x12,111
     c70:	000e0593          	mv	x11,x28
     c74:	00030513          	mv	x10,x6
     c78:	00000097          	auipc	x1,0x0
     c7c:	000080e7          	jalr	x1 # c78 <.L173+0x14>
     c80:	0bc12583          	lw	x11,188(x2)
     c84:	00000fb7          	lui	x31,0x0
     c88:	000f8513          	mv	x10,x31
     c8c:	00000097          	auipc	x1,0x0
     c90:	000080e7          	jalr	x1 # c8c <.L173+0x28>
     c94:	000002b7          	lui	x5,0x0
     c98:	0002aa03          	lw	x20,0(x5) # 0 <tensorlib_lossnll_backward_weight>
     c9c:	000009b7          	lui	x19,0x0
     ca0:	0009a483          	lw	x9,0(x19) # 0 <tensorlib_lossnll_backward_weight>
     ca4:	010a1713          	slli	x14,x20,0x10
     ca8:	4100f7b7          	lui	x15,0x4100f
     cac:	00970633          	add	x12,x14,x9
     cb0:	acc7ac23          	sw	x12,-1320(x15) # 4100ead8 <.L185+0x4100da30>

00000cb4 <.L149>:
     cb4:	0000006f          	j	cb4 <.L149>

00000cb8 <.L129>:
     cb8:	fff78393          	addi	x7,x15,-1
     cbc:	ffd00893          	li	x17,-3
     cc0:	ec78e6e3          	bltu	x17,x7,b8c <.L132>
     cc4:	00000ab7          	lui	x21,0x0
     cc8:	000aa403          	lw	x8,0(x21) # 0 <tensorlib_lossnll_backward_weight>
     ccc:	0077d593          	srli	x11,x15,0x7
     cd0:	00158513          	addi	x10,x11,1
     cd4:	07f47913          	andi	x18,x8,127
     cd8:	02a90433          	mul	x8,x18,x10
     cdc:	00850a33          	add	x20,x10,x8
     ce0:	0147f463          	bgeu	x15,x20,ce8 <.L133>
     ce4:	00078a13          	mv	x20,x15

00000ce8 <.L133>:
     ce8:	eb4472e3          	bgeu	x8,x20,b8c <.L132>
     cec:	0c812983          	lw	x19,200(x2)
     cf0:	0b812603          	lw	x12,184(x2)
     cf4:	0bc12283          	lw	x5,188(x2)
     cf8:	0c012f83          	lw	x31,192(x2)
     cfc:	04012f03          	lw	x30,64(x2)
     d00:	05012e83          	lw	x29,80(x2)
     d04:	04812e03          	lw	x28,72(x2)
     d08:	00c12803          	lw	x16,12(x2)
     d0c:	01412303          	lw	x6,20(x2)
     d10:	00241793          	slli	x15,x8,0x2
     d14:	00f985b3          	add	x11,x19,x15
     d18:	00100093          	li	x1,1

00000d1c <.L142>:
     d1c:	10c47863          	bgeu	x8,x12,e2c <.L174>
     d20:	00058893          	mv	x17,x11
     d24:	00129a63          	bne	x5,x1,d38 <.L138>
     d28:	000fa483          	lw	x9,0(x31) # 0 <tensorlib_lossnll_backward_weight>
     d2c:	02940733          	mul	x14,x8,x9
     d30:	00271393          	slli	x7,x14,0x2
     d34:	007988b3          	add	x17,x19,x7

00000d38 <.L138>:
     d38:	0008aa83          	lw	x21,0(x17)
     d3c:	00458593          	addi	x11,x11,4
     d40:	05568063          	beq	x13,x21,d80 <.L139>
     d44:	15e47063          	bgeu	x8,x30,e84 <.L175>
     d48:	000e2503          	lw	x10,0(x28) # 0 <tensorlib_lossnll_backward_weight>
     d4c:	00082783          	lw	x15,0(x16) # 0 <tensorlib_lossnll_backward_weight>
     d50:	00482903          	lw	x18,4(x16)
     d54:	02a404b3          	mul	x9,x8,x10
     d58:	02f403b3          	mul	x7,x8,x15
     d5c:	00249713          	slli	x14,x9,0x2
     d60:	00ee88b3          	add	x17,x29,x14
     d64:	0008a187          	flw	f3,0(x17)
     d68:	20319253          	fneg.s	f4,f3
     d6c:	032a8ab3          	mul	x21,x21,x18
     d70:	01538533          	add	x10,x7,x21
     d74:	00251793          	slli	x15,x10,0x2
     d78:	00f30933          	add	x18,x6,x15
     d7c:	00492027          	fsw	f4,0(x18) # 0 <tensorlib_lossnll_backward_weight>

00000d80 <.L139>:
     d80:	00140413          	addi	x8,x8,1 # 1 <tensorlib_lossnll_backward_weight+0x1>
     d84:	f88a1ce3          	bne	x20,x8,d1c <.L142>
     d88:	e05ff06f          	j	b8c <.L132>

00000d8c <.L172>:
     d8c:	000000b7          	lui	x1,0x0
     d90:	000002b7          	lui	x5,0x0
     d94:	00008593          	mv	x11,x1
     d98:	08c00613          	li	x12,140
     d9c:	00028513          	mv	x10,x5
     da0:	00000097          	auipc	x1,0x0
     da4:	000080e7          	jalr	x1 # da0 <.L172+0x14>
     da8:	0b812583          	lw	x11,184(x2)
     dac:	00000a37          	lui	x20,0x0
     db0:	00040613          	mv	x12,x8
     db4:	000a0513          	mv	x10,x20
     db8:	00000097          	auipc	x1,0x0
     dbc:	000080e7          	jalr	x1 # db8 <.L172+0x2c>
     dc0:	000009b7          	lui	x19,0x0
     dc4:	0009a483          	lw	x9,0(x19) # 0 <tensorlib_lossnll_backward_weight>
     dc8:	00000737          	lui	x14,0x0
     dcc:	00072603          	lw	x12,0(x14) # 0 <tensorlib_lossnll_backward_weight>
     dd0:	01049793          	slli	x15,x9,0x10
     dd4:	4100f8b7          	lui	x17,0x4100f
     dd8:	00c783b3          	add	x7,x15,x12
     ddc:	ac78ac23          	sw	x7,-1320(x17) # 4100ead8 <.L185+0x4100da30>

00000de0 <.L156>:
     de0:	0000006f          	j	de0 <.L156>

00000de4 <.L164>:
     de4:	002aa027          	fsw	f2,0(x21)
     de8:	d99ff06f          	j	b80 <.L160>

00000dec <.L161>:
     dec:	00000537          	lui	x10,0x0
     df0:	000006b7          	lui	x13,0x0
     df4:	00050593          	mv	x11,x10
     df8:	04400613          	li	x12,68
     dfc:	00068513          	mv	x10,x13
     e00:	00000097          	auipc	x1,0x0
     e04:	000080e7          	jalr	x1 # e00 <.L161+0x14>
     e08:	00000937          	lui	x18,0x0
     e0c:	00092803          	lw	x16,0(x18) # 0 <tensorlib_lossnll_backward_weight>
     e10:	00000f37          	lui	x30,0x0
     e14:	000f2e83          	lw	x29,0(x30) # 0 <tensorlib_lossnll_backward_weight>
     e18:	01081e13          	slli	x28,x16,0x10
     e1c:	4100ffb7          	lui	x31,0x4100f
     e20:	01de0333          	add	x6,x28,x29
     e24:	ac6fac23          	sw	x6,-1320(x31) # 4100ead8 <.L185+0x4100da30>

00000e28 <.L163>:
     e28:	0000006f          	j	e28 <.L163>

00000e2c <.L174>:
     e2c:	00000337          	lui	x6,0x0
     e30:	000000b7          	lui	x1,0x0
     e34:	00030593          	mv	x11,x6
     e38:	08c00613          	li	x12,140
     e3c:	00008513          	mv	x10,x1
     e40:	00000097          	auipc	x1,0x0
     e44:	000080e7          	jalr	x1 # e40 <.L174+0x14>
     e48:	0b812583          	lw	x11,184(x2)
     e4c:	000004b7          	lui	x9,0x0
     e50:	00040613          	mv	x12,x8
     e54:	00048513          	mv	x10,x9
     e58:	00000097          	auipc	x1,0x0
     e5c:	000080e7          	jalr	x1 # e58 <.L174+0x2c>
     e60:	000005b7          	lui	x11,0x0
     e64:	0005a383          	lw	x7,0(x11) # 0 <tensorlib_lossnll_backward_weight>
     e68:	00000737          	lui	x14,0x0
     e6c:	00072883          	lw	x17,0(x14) # 0 <tensorlib_lossnll_backward_weight>
     e70:	01039a93          	slli	x21,x7,0x10
     e74:	4100f7b7          	lui	x15,0x4100f
     e78:	011a8533          	add	x10,x21,x17
     e7c:	aca7ac23          	sw	x10,-1320(x15) # 4100ead8 <.L185+0x4100da30>

00000e80 <.L136>:
     e80:	0000006f          	j	e80 <.L136>

00000e84 <.L175>:
     e84:	000006b7          	lui	x13,0x0
     e88:	00000a37          	lui	x20,0x0
     e8c:	00068593          	mv	x11,x13
     e90:	08c00613          	li	x12,140
     e94:	000a0513          	mv	x10,x20
     e98:	00000097          	auipc	x1,0x0
     e9c:	000080e7          	jalr	x1 # e98 <.L175+0x14>
     ea0:	04012583          	lw	x11,64(x2)
     ea4:	000009b7          	lui	x19,0x0
     ea8:	00040613          	mv	x12,x8
     eac:	00098513          	mv	x10,x19
     eb0:	00000097          	auipc	x1,0x0
     eb4:	000080e7          	jalr	x1 # eb0 <.L175+0x2c>
     eb8:	00000637          	lui	x12,0x0
     ebc:	00062283          	lw	x5,0(x12) # 0 <tensorlib_lossnll_backward_weight>
     ec0:	00000fb7          	lui	x31,0x0
     ec4:	000faf03          	lw	x30,0(x31) # 0 <tensorlib_lossnll_backward_weight>
     ec8:	01029e93          	slli	x29,x5,0x10
     ecc:	4100f837          	lui	x16,0x4100f
     ed0:	01ee8e33          	add	x28,x29,x30
     ed4:	adc82c23          	sw	x28,-1320(x16) # 4100ead8 <.L185+0x4100da30>

00000ed8 <.L141>:
     ed8:	0000006f          	j	ed8 <.L141>

00000edc <tensorlib_lossnll_backward>:
     edc:	ff010113          	addi	x2,x2,-16
     ee0:	00000893          	li	x17,0
     ee4:	00112623          	sw	x1,12(x2)
     ee8:	00000097          	auipc	x1,0x0
     eec:	000080e7          	jalr	x1 # ee8 <tensorlib_lossnll_backward+0xc>
     ef0:	00000637          	lui	x12,0x0
     ef4:	00062703          	lw	x14,0(x12) # 0 <tensorlib_lossnll_backward_weight>
     ef8:	00000837          	lui	x16,0x0
     efc:	00082683          	lw	x13,0(x16) # 0 <tensorlib_lossnll_backward_weight>
     f00:	000005b7          	lui	x11,0x0
     f04:	00470293          	addi	x5,x14,4
     f08:	00058793          	mv	x15,x11
     f0c:	00578333          	add	x6,x15,x5
     f10:	01869393          	slli	x7,x13,0x18
     f14:	00736533          	or	x10,x6,x7
     f18:	201c08b7          	lui	x17,0x201c0
     f1c:	01156e33          	or	x28,x10,x17
     f20:	00100e93          	li	x29,1
     f24:	01de0023          	sb	x29,0(x28)
     f28:	00062f03          	lw	x30,0(x12)
     f2c:	00700f93          	li	x31,7
     f30:	03ff0c63          	beq	x30,x31,f68 <.L206>

00000f34 <.L178>:
     f34:	00100813          	li	x16,1
     f38:	0100006f          	j	f48 <.L191>

00000f3c <.L207>:
     f3c:	00058713          	mv	x14,x11
     f40:	14072faf          	lr.w.aq	x31,(x14)
     f44:	010f8863          	beq	x31,x16,f54 <.L190>

00000f48 <.L191>:
     f48:	00058293          	mv	x5,x11
     f4c:	1002a52f          	lr.w	x10,(x5)
     f50:	ff0516e3          	bne	x10,x16,f3c <.L207>

00000f54 <.L190>:
     f54:	00c12083          	lw	x1,12(x2)
     f58:	0007a023          	sw	x0,0(x15)
     f5c:	00000513          	li	x10,0
     f60:	01010113          	addi	x2,x2,16
     f64:	00008067          	ret

00000f68 <.L206>:
     f68:	000000b7          	lui	x1,0x0
     f6c:	00000737          	lui	x14,0x0
     f70:	00408293          	addi	x5,x1,4 # 4 <tensorlib_lossnll_backward_weight+0x4>
     f74:	01470393          	addi	x7,x14,20 # 14 <tensorlib_lossnll_backward_weight+0x14>

00000f78 <.L177>:
     f78:	00028313          	mv	x6,x5

00000f7c <.L180>:
     f7c:	00034683          	lbu	x13,0(x6) # 0 <tensorlib_lossnll_backward_weight>
     f80:	00130313          	addi	x6,x6,1
     f84:	0ff6f513          	andi	x10,x13,255
     f88:	fe0508e3          	beqz	x10,f78 <.L177>
     f8c:	fe6398e3          	bne	x7,x6,f7c <.L180>
     f90:	00082883          	lw	x17,0(x16)
     f94:	231c0f37          	lui	x30,0x231c0
     f98:	00100093          	li	x1,1
     f9c:	01888e13          	addi	x28,x17,24 # 201c0018 <.L185+0x201bef70>
     fa0:	01c78eb3          	add	x29,x15,x28
     fa4:	01eeefb3          	or	x31,x29,x30
     fa8:	001f8023          	sb	x1,0(x31)
     fac:	00062283          	lw	x5,0(x12)
     fb0:	00700713          	li	x14,7
     fb4:	f8e290e3          	bne	x5,x14,f34 <.L178>
     fb8:	00082303          	lw	x6,0(x16)
     fbc:	00300693          	li	x13,3
     fc0:	06d30e63          	beq	x6,x13,103c <.L208>

00000fc4 <.L186>:
     fc4:	00100893          	li	x17,1
     fc8:	0100006f          	j	fd8 <.L182>

00000fcc <.L209>:
     fcc:	01478e13          	addi	x28,x15,20
     fd0:	140e232f          	lr.w.aq	x6,(x28)
     fd4:	01130863          	beq	x6,x17,fe4 <.L187>

00000fd8 <.L182>:
     fd8:	01478f13          	addi	x30,x15,20
     fdc:	100f2eaf          	lr.w	x29,(x30)
     fe0:	ff1e96e3          	bne	x29,x17,fcc <.L209>

00000fe4 <.L187>:
     fe4:	0007aa23          	sw	x0,20(x15)
     fe8:	00000713          	li	x14,0
     fec:	01000293          	li	x5,16

00000ff0 <.L188>:
     ff0:	00e78533          	add	x10,x15,x14
     ff4:	00050223          	sb	x0,4(x10) # 4 <tensorlib_lossnll_backward_weight+0x4>
     ff8:	00170713          	addi	x14,x14,1
     ffc:	fe571ae3          	bne	x14,x5,ff0 <.L188>
    1000:	0007a023          	sw	x0,0(x15)
    1004:	00000693          	li	x13,0
    1008:	20000fb7          	lui	x31,0x20000
    100c:	00100093          	li	x1,1
    1010:	000403b7          	lui	x7,0x40
    1014:	004008b7          	lui	x17,0x400

00001018 <.L189>:
    1018:	00082f03          	lw	x30,0(x16)
    101c:	00d7e633          	or	x12,x15,x13
    1020:	007686b3          	add	x13,x13,x7
    1024:	018f1e93          	slli	x29,x30,0x18
    1028:	00ceee33          	or	x28,x29,x12
    102c:	01fe6333          	or	x6,x28,x31
    1030:	00132023          	sw	x1,0(x6)
    1034:	ff1692e3          	bne	x13,x17,1018 <.L189>
    1038:	efdff06f          	j	f34 <.L178>

0000103c <.L208>:
    103c:	00000537          	lui	x10,0x0
    1040:	00000e37          	lui	x28,0x0
    1044:	01850893          	addi	x17,x10,24 # 18 <tensorlib_lossnll_backward_weight+0x18>
    1048:	020e0e93          	addi	x29,x28,32 # 20 <tensorlib_lossnll_backward_weight+0x20>

0000104c <.L181>:
    104c:	00088f93          	mv	x31,x17

00001050 <.L183>:
    1050:	000fcf03          	lbu	x30,0(x31) # 20000000 <.L185+0x1fffef58>
    1054:	001f8f93          	addi	x31,x31,1
    1058:	0fff7093          	andi	x1,x30,255
    105c:	fe0088e3          	beqz	x1,104c <.L181>
    1060:	fffe98e3          	bne	x29,x31,1050 <.L183>
    1064:	00078c23          	sb	x0,24(x15)
    1068:	00078ca3          	sb	x0,25(x15)
    106c:	00078d23          	sb	x0,26(x15)
    1070:	00078da3          	sb	x0,27(x15)
    1074:	00078e23          	sb	x0,28(x15)
    1078:	00078ea3          	sb	x0,29(x15)
    107c:	00078f23          	sb	x0,30(x15)
    1080:	00078fa3          	sb	x0,31(x15)
    1084:	0007aa23          	sw	x0,20(x15)
    1088:	00000693          	li	x13,0
    108c:	03fc08b7          	lui	x17,0x3fc0
    1090:	20000f37          	lui	x30,0x20000
    1094:	00100e93          	li	x29,1
    1098:	01000e37          	lui	x28,0x1000
    109c:	08000337          	lui	x6,0x8000
    10a0:	0080006f          	j	10a8 <.L185>

000010a4 <.L210>:
    10a4:	00062283          	lw	x5,0(x12)

000010a8 <.L185>:
    10a8:	01229293          	slli	x5,x5,0x12
    10ac:	00d3e533          	or	x10,x7,x13
    10b0:	0112f733          	and	x14,x5,x17
    10b4:	00a76fb3          	or	x31,x14,x10
    10b8:	01efe0b3          	or	x1,x31,x30
    10bc:	01d0a023          	sw	x29,0(x1)
    10c0:	01c686b3          	add	x13,x13,x28
    10c4:	fe6690e3          	bne	x13,x6,10a4 <.L210>
    10c8:	00062603          	lw	x12,0(x12)
    10cc:	00700393          	li	x7,7
    10d0:	ee760ae3          	beq	x12,x7,fc4 <.L186>
    10d4:	e61ff06f          	j	f34 <.L178>

Disassembly of section .text._ZN8HBTensorIfLln1EEC2EP11hb_tensor_t:

00000000 <_ZN8HBTensorIfLln1EEC1EP11hb_tensor_t>:
   0:	00058713          	mv	x14,x11
   4:	0045a683          	lw	x13,4(x11) # 4 <_ZN8HBTensorIfLln1EEC1EP11hb_tensor_t+0x4>
   8:	00072803          	lw	x16,0(x14)
   c:	0105a583          	lw	x11,16(x11)
  10:	00050793          	mv	x15,x10
  14:	02850613          	addi	x12,x10,40
  18:	01450513          	addi	x10,x10,20
  1c:	0107a023          	sw	x16,0(x15)
  20:	00d7a223          	sw	x13,4(x15)
  24:	00a7a423          	sw	x10,8(x15)
  28:	00c7a623          	sw	x12,12(x15)
  2c:	00b7a823          	sw	x11,16(x15)
  30:	00060613          	mv	x12,x12
  34:	00500293          	li	x5,5
  38:	04d2e463          	bltu	x5,x13,80 <.L14>
  3c:	00872303          	lw	x6,8(x14)
  40:	00c72383          	lw	x7,12(x14)
  44:	02068c63          	beqz	x13,7c <.L1>
  48:	00269893          	slli	x17,x13,0x2
  4c:	00078713          	mv	x14,x15
  50:	01178e33          	add	x28,x15,x17
  54:	40f30eb3          	sub	x29,x6,x15
  58:	40f38f33          	sub	x30,x7,x15

0000005c <.L5>:
  5c:	00ee8fb3          	add	x31,x29,x14
  60:	000fa683          	lw	x13,0(x31)
  64:	00ef05b3          	add	x11,x30,x14
  68:	00470713          	addi	x14,x14,4
  6c:	00d72823          	sw	x13,16(x14)
  70:	0005a803          	lw	x16,0(x11)
  74:	03072223          	sw	x16,36(x14)
  78:	ffc712e3          	bne	x14,x28,5c <.L5>

0000007c <.L1>:
  7c:	00008067          	ret

00000080 <.L14>:
  80:	ff010113          	addi	x2,x2,-16
  84:	000007b7          	lui	x15,0x0
  88:	00112623          	sw	x1,12(x2)
  8c:	000000b7          	lui	x1,0x0
  90:	0d800613          	li	x12,216
  94:	00008593          	mv	x11,x1
  98:	00078513          	mv	x10,x15
  9c:	00000097          	auipc	x1,0x0
  a0:	000080e7          	jalr	x1 # 9c <.L14+0x1c>
  a4:	00000637          	lui	x12,0x0
  a8:	00060513          	mv	x10,x12
  ac:	00000097          	auipc	x1,0x0
  b0:	000080e7          	jalr	x1 # ac <.L14+0x2c>
  b4:	00000537          	lui	x10,0x0
  b8:	00052283          	lw	x5,0(x10) # 0 <_ZN8HBTensorIfLln1EEC1EP11hb_tensor_t>
  bc:	00000337          	lui	x6,0x0
  c0:	00032383          	lw	x7,0(x6) # 0 <_ZN8HBTensorIfLln1EEC1EP11hb_tensor_t>
  c4:	01029893          	slli	x17,x5,0x10
  c8:	4100feb7          	lui	x29,0x4100f
  cc:	00788e33          	add	x28,x17,x7
  d0:	adceac23          	sw	x28,-1320(x29) # 4100ead8 <.L185+0x4100da30>

000000d4 <.L3>:
  d4:	0000006f          	j	d4 <.L3>

Disassembly of section .text._ZN8HBTensorIiLln1EEC2EP11hb_tensor_t:

00000000 <_ZN8HBTensorIiLln1EEC1EP11hb_tensor_t>:
   0:	00058713          	mv	x14,x11
   4:	0045a683          	lw	x13,4(x11)
   8:	00072803          	lw	x16,0(x14)
   c:	0105a583          	lw	x11,16(x11)
  10:	00050793          	mv	x15,x10
  14:	02850613          	addi	x12,x10,40
  18:	01450513          	addi	x10,x10,20
  1c:	0107a023          	sw	x16,0(x15) # 0 <_ZN8HBTensorIiLln1EEC1EP11hb_tensor_t>
  20:	00d7a223          	sw	x13,4(x15)
  24:	00a7a423          	sw	x10,8(x15)
  28:	00c7a623          	sw	x12,12(x15)
  2c:	00b7a823          	sw	x11,16(x15)
  30:	00060613          	mv	x12,x12
  34:	00500293          	li	x5,5
  38:	04d2e463          	bltu	x5,x13,80 <.L27>
  3c:	00872303          	lw	x6,8(x14)
  40:	00c72383          	lw	x7,12(x14)
  44:	02068c63          	beqz	x13,7c <.L15>
  48:	00269893          	slli	x17,x13,0x2
  4c:	00078713          	mv	x14,x15
  50:	01178e33          	add	x28,x15,x17
  54:	40f30eb3          	sub	x29,x6,x15
  58:	40f38f33          	sub	x30,x7,x15

0000005c <.L19>:
  5c:	00ee8fb3          	add	x31,x29,x14
  60:	000fa683          	lw	x13,0(x31)
  64:	00ef05b3          	add	x11,x30,x14
  68:	00470713          	addi	x14,x14,4
  6c:	00d72823          	sw	x13,16(x14)
  70:	0005a803          	lw	x16,0(x11)
  74:	03072223          	sw	x16,36(x14)
  78:	ffc712e3          	bne	x14,x28,5c <.L19>

0000007c <.L15>:
  7c:	00008067          	ret

00000080 <.L27>:
  80:	ff010113          	addi	x2,x2,-16
  84:	000007b7          	lui	x15,0x0
  88:	00112623          	sw	x1,12(x2)
  8c:	000000b7          	lui	x1,0x0
  90:	0d800613          	li	x12,216
  94:	00008593          	mv	x11,x1
  98:	00078513          	mv	x10,x15
  9c:	00000097          	auipc	x1,0x0
  a0:	000080e7          	jalr	x1 # 9c <.L27+0x1c>
  a4:	00000637          	lui	x12,0x0
  a8:	00060513          	mv	x10,x12
  ac:	00000097          	auipc	x1,0x0
  b0:	000080e7          	jalr	x1 # ac <.L27+0x2c>
  b4:	00000537          	lui	x10,0x0
  b8:	00052283          	lw	x5,0(x10) # 0 <_ZN8HBTensorIiLln1EEC1EP11hb_tensor_t>
  bc:	00000337          	lui	x6,0x0
  c0:	00032383          	lw	x7,0(x6) # 0 <_ZN8HBTensorIiLln1EEC1EP11hb_tensor_t>
  c4:	01029893          	slli	x17,x5,0x10
  c8:	4100feb7          	lui	x29,0x4100f
  cc:	00788e33          	add	x28,x17,x7
  d0:	adceac23          	sw	x28,-1320(x29) # 4100ead8 <.L185+0x4100da30>

000000d4 <.L17>:
  d4:	0000006f          	j	d4 <.L17>

Disassembly of section .srodata.cst4:

00000000 <.LC7>:
   0:	0000                	unimp
   2:	3f80                	fld	f8,56(x15)
