
kernel_embedding_backward.o:     file format elf32-littleriscv


Disassembly of section .group:

00000000 <_ZN8HBTensorIfLln1EEC5EP11hb_tensor_t>:
   0:	0001                	nop
   2:	0000                	unimp
   4:	0008                	0x8
   6:	0000                	unimp
   8:	0009                	c.nop	2
	...

Disassembly of section .group:

00000000 <_ZN8HBTensorIlLln1EEC5EP11hb_tensor_t>:
   0:	0001                	nop
   2:	0000                	unimp
   4:	000a                	c.slli	x0,0x2
   6:	0000                	unimp
   8:	0000000b          	0xb

Disassembly of section .text:

00000000 <tensorlib_embedding_backward>:
   0:	f2010113          	addi	x2,x2,-224
   4:	00050813          	mv	x16,x10
   8:	0d412423          	sw	x20,200(x2)
   c:	00c10513          	addi	x10,x2,12
  10:	00058a13          	mv	x20,x11
  14:	00080593          	mv	x11,x16
  18:	0c112e23          	sw	x1,220(x2)
  1c:	0c812c23          	sw	x8,216(x2)
  20:	0c912a23          	sw	x9,212(x2)
  24:	00060413          	mv	x8,x12
  28:	00078493          	mv	x9,x15
  2c:	0d212823          	sw	x18,208(x2)
  30:	0d312623          	sw	x19,204(x2)
  34:	00068913          	mv	x18,x13
  38:	00070993          	mv	x19,x14
  3c:	0d512223          	sw	x21,196(x2)
  40:	00000097          	auipc	x1,0x0
  44:	000080e7          	jalr	x1 # 40 <tensorlib_embedding_backward+0x40>
  48:	000a0593          	mv	x11,x20
  4c:	04810513          	addi	x10,x2,72
  50:	00000097          	auipc	x1,0x0
  54:	000080e7          	jalr	x1 # 50 <tensorlib_embedding_backward+0x50>
  58:	00040593          	mv	x11,x8
  5c:	08410513          	addi	x10,x2,132
  60:	00000097          	auipc	x1,0x0
  64:	000080e7          	jalr	x1 # 60 <tensorlib_embedding_backward+0x60>
  68:	000003b7          	lui	x7,0x0
  6c:	00000537          	lui	x10,0x0
  70:	000002b7          	lui	x5,0x0
  74:	00000eb7          	lui	x29,0x0
  78:	0003a603          	lw	x12,0(x7) # 0 <tensorlib_embedding_backward>
  7c:	00052783          	lw	x15,0(x10) # 0 <tensorlib_embedding_backward>
  80:	0002a583          	lw	x11,0(x5) # 0 <tensorlib_embedding_backward>
  84:	000ea703          	lw	x14,0(x29) # 0 <tensorlib_embedding_backward>
  88:	00000437          	lui	x8,0x0
  8c:	00042303          	lw	x6,0(x8) # 0 <tensorlib_embedding_backward>
  90:	00f606b3          	add	x13,x12,x15
  94:	00e588b3          	add	x17,x11,x14
  98:	01869a93          	slli	x21,x13,0x18
  9c:	01289e13          	slli	x28,x17,0x12
  a0:	3f000f37          	lui	x30,0x3f000
  a4:	00fc0837          	lui	x16,0xfc0
  a8:	00040637          	lui	x12,0x40
  ac:	01eaffb3          	and	x31,x21,x30
  b0:	010e7a33          	and	x20,x28,x16
  b4:	00431793          	slli	x15,x6,0x4
  b8:	ff060713          	addi	x14,x12,-16 # 3fff0 <.L46+0x3fc08>
  bc:	0009a983          	lw	x19,0(x19)
  c0:	014fe5b3          	or	x11,x31,x20
  c4:	00e7f333          	and	x6,x15,x14
  c8:	0065e6b3          	or	x13,x11,x6
  cc:	800008b7          	lui	x17,0x80000
  d0:	0116eab3          	or	x21,x13,x17
  d4:	41001fb7          	lui	x31,0x41001
  d8:	00092303          	lw	x6,0(x18)
  dc:	0004af03          	lw	x30,0(x9)
  e0:	05812903          	lw	x18,88(x2)
  e4:	01c12483          	lw	x9,28(x2)
  e8:	09412683          	lw	x13,148(x2)
  ec:	00198e13          	addi	x28,x19,1
  f0:	d15fa623          	sw	x21,-756(x31) # 41000d0c <.L46+0x41000924>
  f4:	08412803          	lw	x16,132(x2)
  f8:	01c9f463          	bgeu	x19,x28,100 <.L29>
  fc:	00098e13          	mv	x28,x19

00000100 <.L29>:
 100:	41ff5093          	srai	x1,x30,0x1f
 104:	07f0fa13          	andi	x20,x1,127
 108:	000007b7          	lui	x15,0x0
 10c:	0007a983          	lw	x19,0(x15) # 0 <tensorlib_embedding_backward>
 110:	01ea05b3          	add	x11,x20,x30
 114:	4075d613          	srai	x12,x11,0x7
 118:	00160713          	addi	x14,x12,1
 11c:	033708b3          	mul	x17,x14,x19
 120:	011700b3          	add	x1,x14,x17
 124:	001f7463          	bgeu	x30,x1,12c <.L30>
 128:	000f0093          	mv	x1,x30

0000012c <.L30>:
 12c:	08080c63          	beqz	x16,1c4 <.L35>
 130:	01412f83          	lw	x31,20(x2)
 134:	05012f03          	lw	x30,80(x2)
 138:	00000613          	li	x12,0
 13c:	0100006f          	j	14c <.L36>

00000140 <.L37>:
 140:	00160613          	addi	x12,x12,1
 144:	00468693          	addi	x13,x13,4
 148:	07060e63          	beq	x12,x16,1c4 <.L35>

0000014c <.L36>:
 14c:	0006a783          	lw	x15,0(x13)
 150:	fe6788e3          	beq	x15,x6,140 <.L37>
 154:	ffc7f6e3          	bgeu	x15,x28,140 <.L37>
 158:	000f2583          	lw	x11,0(x30) # 3f000000 <.L46+0x3efffc18>
 15c:	000faa83          	lw	x21,0(x31)
 160:	004faa03          	lw	x20,4(x31)
 164:	004f2983          	lw	x19,4(x30)
 168:	035787b3          	mul	x15,x15,x21
 16c:	02b60733          	mul	x14,x12,x11
 170:	03488a33          	mul	x20,x17,x20
 174:	033889b3          	mul	x19,x17,x19
 178:	014785b3          	add	x11,x15,x20
 17c:	00259a93          	slli	x21,x11,0x2
 180:	015487b3          	add	x15,x9,x21
 184:	01370a33          	add	x20,x14,x19
 188:	002a1713          	slli	x14,x20,0x2
 18c:	00e90ab3          	add	x21,x18,x14
 190:	fa18f8e3          	bgeu	x17,x1,140 <.L37>
 194:	00088593          	mv	x11,x17

00000198 <.L38>:
 198:	0007a787          	flw	f15,0(x15)
 19c:	000aa707          	flw	f14,0(x21)
 1a0:	00478793          	addi	x15,x15,4
 1a4:	00158593          	addi	x11,x11,1
 1a8:	00e7f053          	fadd.s	f0,f15,f14
 1ac:	004a8a93          	addi	x21,x21,4
 1b0:	fe07ae27          	fsw	f0,-4(x15)
 1b4:	feb092e3          	bne	x1,x11,198 <.L38>
 1b8:	00160613          	addi	x12,x12,1
 1bc:	00468693          	addi	x13,x13,4
 1c0:	f90616e3          	bne	x12,x16,14c <.L36>

000001c4 <.L35>:
 1c4:	0003a383          	lw	x7,0(x7)
 1c8:	00052303          	lw	x6,0(x10)
 1cc:	0002a283          	lw	x5,0(x5)
 1d0:	000ea483          	lw	x9,0(x29)
 1d4:	00042403          	lw	x8,0(x8)
 1d8:	00638933          	add	x18,x7,x6
 1dc:	00928833          	add	x16,x5,x9
 1e0:	01891e13          	slli	x28,x18,0x18
 1e4:	01281893          	slli	x17,x16,0x12
 1e8:	3f0000b7          	lui	x1,0x3f000
 1ec:	00fc0f37          	lui	x30,0xfc0
 1f0:	00040737          	lui	x14,0x40
 1f4:	001e7fb3          	and	x31,x28,x1
 1f8:	01e8f9b3          	and	x19,x17,x30
 1fc:	00441a13          	slli	x20,x8,0x4
 200:	ff070793          	addi	x15,x14,-16 # 3fff0 <.L46+0x3fc08>
 204:	013fe5b3          	or	x11,x31,x19
 208:	00fa7ab3          	and	x21,x20,x15
 20c:	0155e633          	or	x12,x11,x21
 210:	c00006b7          	lui	x13,0xc0000
 214:	00d663b3          	or	x7,x12,x13
 218:	41001337          	lui	x6,0x41001
 21c:	d0732623          	sw	x7,-756(x6) # 41000d0c <.L46+0x41000924>
 220:	000ea283          	lw	x5,0(x29)
 224:	00052483          	lw	x9,0(x10)
 228:	00000637          	lui	x12,0x0
 22c:	00428413          	addi	x8,x5,4
 230:	00060693          	mv	x13,x12
 234:	00868933          	add	x18,x13,x8
 238:	01849813          	slli	x16,x9,0x18
 23c:	01096e33          	or	x28,x18,x16
 240:	201c08b7          	lui	x17,0x201c0
 244:	011e60b3          	or	x1,x28,x17
 248:	00100f93          	li	x31,1
 24c:	01f08023          	sb	x31,0(x1) # 3f000000 <.L46+0x3efffc18>
 250:	000eaf03          	lw	x30,0(x29)
 254:	00700993          	li	x19,7
 258:	053f0863          	beq	x30,x19,2a8 <.L66>

0000025c <.L39>:
 25c:	00100513          	li	x10,1
 260:	0100006f          	j	270 <.L52>

00000264 <.L67>:
 264:	00060a93          	mv	x21,x12
 268:	140aa5af          	lr.w.aq	x11,(x21)
 26c:	00a58863          	beq	x11,x10,27c <.L51>

00000270 <.L52>:
 270:	00060393          	mv	x7,x12
 274:	1003aa2f          	lr.w	x20,(x7)
 278:	feaa16e3          	bne	x20,x10,264 <.L67>

0000027c <.L51>:
 27c:	0dc12083          	lw	x1,220(x2)
 280:	0d812403          	lw	x8,216(x2)
 284:	0006a023          	sw	x0,0(x13) # c0000000 <.L46+0xbffffc18>
 288:	0d412483          	lw	x9,212(x2)
 28c:	0d012903          	lw	x18,208(x2)
 290:	0cc12983          	lw	x19,204(x2)
 294:	0c812a03          	lw	x20,200(x2)
 298:	0c412a83          	lw	x21,196(x2)
 29c:	00000513          	li	x10,0
 2a0:	0e010113          	addi	x2,x2,224
 2a4:	00008067          	ret

000002a8 <.L66>:
 2a8:	00000a37          	lui	x20,0x0
 2ac:	000005b7          	lui	x11,0x0
 2b0:	004a0a93          	addi	x21,x20,4 # 4 <tensorlib_embedding_backward+0x4>
 2b4:	01458393          	addi	x7,x11,20 # 14 <tensorlib_embedding_backward+0x14>

000002b8 <.L32>:
 2b8:	000a8793          	mv	x15,x21

000002bc <.L41>:
 2bc:	0007c703          	lbu	x14,0(x15)
 2c0:	00178793          	addi	x15,x15,1
 2c4:	0ff77313          	andi	x6,x14,255
 2c8:	fe0308e3          	beqz	x6,2b8 <.L32>
 2cc:	fef398e3          	bne	x7,x15,2bc <.L41>
 2d0:	00052283          	lw	x5,0(x10)
 2d4:	231c0937          	lui	x18,0x231c0
 2d8:	00100e13          	li	x28,1
 2dc:	01828493          	addi	x9,x5,24
 2e0:	00968433          	add	x8,x13,x9
 2e4:	01246833          	or	x16,x8,x18
 2e8:	01c80023          	sb	x28,0(x16) # fc0000 <.L46+0xfbfc18>
 2ec:	000ea083          	lw	x1,0(x29)
 2f0:	00700893          	li	x17,7
 2f4:	f71094e3          	bne	x1,x17,25c <.L39>
 2f8:	00052f83          	lw	x31,0(x10)
 2fc:	00300f13          	li	x30,3
 300:	07ef8e63          	beq	x31,x30,37c <.L68>

00000304 <.L47>:
 304:	00100a13          	li	x20,1
 308:	0100006f          	j	318 <.L43>

0000030c <.L69>:
 30c:	01468713          	addi	x14,x13,20
 310:	140727af          	lr.w.aq	x15,(x14)
 314:	01478863          	beq	x15,x20,324 <.L48>

00000318 <.L43>:
 318:	01468a93          	addi	x21,x13,20
 31c:	100aa5af          	lr.w	x11,(x21)
 320:	ff4596e3          	bne	x11,x20,30c <.L69>

00000324 <.L48>:
 324:	0006aa23          	sw	x0,20(x13)
 328:	00000493          	li	x9,0
 32c:	01000313          	li	x6,16

00000330 <.L49>:
 330:	009682b3          	add	x5,x13,x9
 334:	00028223          	sb	x0,4(x5)
 338:	00148493          	addi	x9,x9,1
 33c:	fe649ae3          	bne	x9,x6,330 <.L49>
 340:	0006a023          	sw	x0,0(x13)
 344:	00000f93          	li	x31,0
 348:	20000437          	lui	x8,0x20000
 34c:	00100913          	li	x18,1
 350:	00040e37          	lui	x28,0x40
 354:	004000b7          	lui	x1,0x400

00000358 <.L50>:
 358:	00052803          	lw	x16,0(x10)
 35c:	01f6e8b3          	or	x17,x13,x31
 360:	01cf8fb3          	add	x31,x31,x28
 364:	01881f13          	slli	x30,x16,0x18
 368:	011f69b3          	or	x19,x30,x17
 36c:	0089eeb3          	or	x29,x19,x8
 370:	012ea023          	sw	x18,0(x29)
 374:	fe1f92e3          	bne	x31,x1,358 <.L50>
 378:	ee5ff06f          	j	25c <.L39>

0000037c <.L68>:
 37c:	000009b7          	lui	x19,0x0
 380:	00000ab7          	lui	x21,0x0
 384:	01898a13          	addi	x20,x19,24 # 18 <tensorlib_embedding_backward+0x18>
 388:	020a8593          	addi	x11,x21,32 # 20 <tensorlib_embedding_backward+0x20>

0000038c <.L42>:
 38c:	000a0793          	mv	x15,x20

00000390 <.L44>:
 390:	0007c703          	lbu	x14,0(x15)
 394:	00178793          	addi	x15,x15,1
 398:	0ff77313          	andi	x6,x14,255
 39c:	fe0308e3          	beqz	x6,38c <.L42>
 3a0:	fef598e3          	bne	x11,x15,390 <.L44>
 3a4:	00068c23          	sb	x0,24(x13)
 3a8:	00068ca3          	sb	x0,25(x13)
 3ac:	00068d23          	sb	x0,26(x13)
 3b0:	00068da3          	sb	x0,27(x13)
 3b4:	00068e23          	sb	x0,28(x13)
 3b8:	00068ea3          	sb	x0,29(x13)
 3bc:	00068f23          	sb	x0,30(x13)
 3c0:	00068fa3          	sb	x0,31(x13)
 3c4:	0006aa23          	sw	x0,20(x13)
 3c8:	00000993          	li	x19,0
 3cc:	03fc02b7          	lui	x5,0x3fc0
 3d0:	200004b7          	lui	x9,0x20000
 3d4:	00100413          	li	x8,1
 3d8:	01000937          	lui	x18,0x1000
 3dc:	08000e37          	lui	x28,0x8000
 3e0:	0080006f          	j	3e8 <.L46>

000003e4 <.L70>:
 3e4:	000ea083          	lw	x1,0(x29)

000003e8 <.L46>:
 3e8:	01209093          	slli	x1,x1,0x12
 3ec:	0133e833          	or	x16,x7,x19
 3f0:	0050f8b3          	and	x17,x1,x5
 3f4:	0108efb3          	or	x31,x17,x16
 3f8:	009fef33          	or	x30,x31,x9
 3fc:	008f2023          	sw	x8,0(x30) # fc0000 <.L46+0xfbfc18>
 400:	012989b3          	add	x19,x19,x18
 404:	ffc990e3          	bne	x19,x28,3e4 <.L70>
 408:	000eae83          	lw	x29,0(x29)
 40c:	00700393          	li	x7,7
 410:	ee7e8ae3          	beq	x29,x7,304 <.L47>
 414:	e49ff06f          	j	25c <.L39>

Disassembly of section .text._ZN8HBTensorIfLln1EEC2EP11hb_tensor_t:

00000000 <_ZN8HBTensorIfLln1EEC1EP11hb_tensor_t>:
   0:	00058713          	mv	x14,x11
   4:	0045a683          	lw	x13,4(x11)
   8:	00072803          	lw	x16,0(x14)
   c:	0105a583          	lw	x11,16(x11)
  10:	00050793          	mv	x15,x10
  14:	02850613          	addi	x12,x10,40
  18:	01450513          	addi	x10,x10,20
  1c:	0107a023          	sw	x16,0(x15)
  20:	00d7a223          	sw	x13,4(x15)
  24:	00a7a423          	sw	x10,8(x15)
  28:	00c7a623          	sw	x12,12(x15)
  2c:	00b7a823          	sw	x11,16(x15)
  30:	00060613          	mv	x12,x12
  34:	00500293          	li	x5,5
  38:	04d2e463          	bltu	x5,x13,80 <.L14>
  3c:	00872303          	lw	x6,8(x14)
  40:	00c72383          	lw	x7,12(x14)
  44:	02068c63          	beqz	x13,7c <.L1>
  48:	00269893          	slli	x17,x13,0x2
  4c:	00078713          	mv	x14,x15
  50:	01178e33          	add	x28,x15,x17
  54:	40f30eb3          	sub	x29,x6,x15
  58:	40f38f33          	sub	x30,x7,x15

0000005c <.L5>:
  5c:	00ee8fb3          	add	x31,x29,x14
  60:	000fa683          	lw	x13,0(x31)
  64:	00ef05b3          	add	x11,x30,x14
  68:	00470713          	addi	x14,x14,4
  6c:	00d72823          	sw	x13,16(x14)
  70:	0005a803          	lw	x16,0(x11)
  74:	03072223          	sw	x16,36(x14)
  78:	ffc712e3          	bne	x14,x28,5c <.L5>

0000007c <.L1>:
  7c:	00008067          	ret

00000080 <.L14>:
  80:	ff010113          	addi	x2,x2,-16
  84:	000007b7          	lui	x15,0x0
  88:	00112623          	sw	x1,12(x2)
  8c:	000000b7          	lui	x1,0x0
  90:	0d800613          	li	x12,216
  94:	00008593          	mv	x11,x1
  98:	00078513          	mv	x10,x15
  9c:	00000097          	auipc	x1,0x0
  a0:	000080e7          	jalr	x1 # 9c <.L14+0x1c>
  a4:	00000637          	lui	x12,0x0
  a8:	00060513          	mv	x10,x12
  ac:	00000097          	auipc	x1,0x0
  b0:	000080e7          	jalr	x1 # ac <.L14+0x2c>
  b4:	00000537          	lui	x10,0x0
  b8:	00052283          	lw	x5,0(x10) # 0 <_ZN8HBTensorIfLln1EEC1EP11hb_tensor_t>
  bc:	00000337          	lui	x6,0x0
  c0:	00032383          	lw	x7,0(x6) # 0 <_ZN8HBTensorIfLln1EEC1EP11hb_tensor_t>
  c4:	01029893          	slli	x17,x5,0x10
  c8:	4100feb7          	lui	x29,0x4100f
  cc:	00788e33          	add	x28,x17,x7
  d0:	adceac23          	sw	x28,-1320(x29) # 4100ead8 <.L46+0x4100e6f0>

000000d4 <.L3>:
  d4:	0000006f          	j	d4 <.L3>

Disassembly of section .text._ZN8HBTensorIlLln1EEC2EP11hb_tensor_t:

00000000 <_ZN8HBTensorIlLln1EEC1EP11hb_tensor_t>:
   0:	00058713          	mv	x14,x11
   4:	0045a683          	lw	x13,4(x11)
   8:	00072803          	lw	x16,0(x14)
   c:	0105a583          	lw	x11,16(x11)
  10:	00050793          	mv	x15,x10
  14:	02850613          	addi	x12,x10,40
  18:	01450513          	addi	x10,x10,20
  1c:	0107a023          	sw	x16,0(x15) # 0 <_ZN8HBTensorIlLln1EEC1EP11hb_tensor_t>
  20:	00d7a223          	sw	x13,4(x15)
  24:	00a7a423          	sw	x10,8(x15)
  28:	00c7a623          	sw	x12,12(x15)
  2c:	00b7a823          	sw	x11,16(x15)
  30:	00060613          	mv	x12,x12
  34:	00500293          	li	x5,5
  38:	04d2e463          	bltu	x5,x13,80 <.L27>
  3c:	00872303          	lw	x6,8(x14)
  40:	00c72383          	lw	x7,12(x14)
  44:	02068c63          	beqz	x13,7c <.L15>
  48:	00269893          	slli	x17,x13,0x2
  4c:	00078713          	mv	x14,x15
  50:	01178e33          	add	x28,x15,x17
  54:	40f30eb3          	sub	x29,x6,x15
  58:	40f38f33          	sub	x30,x7,x15

0000005c <.L19>:
  5c:	00ee8fb3          	add	x31,x29,x14
  60:	000fa683          	lw	x13,0(x31)
  64:	00ef05b3          	add	x11,x30,x14
  68:	00470713          	addi	x14,x14,4
  6c:	00d72823          	sw	x13,16(x14)
  70:	0005a803          	lw	x16,0(x11)
  74:	03072223          	sw	x16,36(x14)
  78:	ffc712e3          	bne	x14,x28,5c <.L19>

0000007c <.L15>:
  7c:	00008067          	ret

00000080 <.L27>:
  80:	ff010113          	addi	x2,x2,-16
  84:	000007b7          	lui	x15,0x0
  88:	00112623          	sw	x1,12(x2)
  8c:	000000b7          	lui	x1,0x0
  90:	0d800613          	li	x12,216
  94:	00008593          	mv	x11,x1
  98:	00078513          	mv	x10,x15
  9c:	00000097          	auipc	x1,0x0
  a0:	000080e7          	jalr	x1 # 9c <.L27+0x1c>
  a4:	00000637          	lui	x12,0x0
  a8:	00060513          	mv	x10,x12
  ac:	00000097          	auipc	x1,0x0
  b0:	000080e7          	jalr	x1 # ac <.L27+0x2c>
  b4:	00000537          	lui	x10,0x0
  b8:	00052283          	lw	x5,0(x10) # 0 <_ZN8HBTensorIlLln1EEC1EP11hb_tensor_t>
  bc:	00000337          	lui	x6,0x0
  c0:	00032383          	lw	x7,0(x6) # 0 <_ZN8HBTensorIlLln1EEC1EP11hb_tensor_t>
  c4:	01029893          	slli	x17,x5,0x10
  c8:	4100feb7          	lui	x29,0x4100f
  cc:	00788e33          	add	x28,x17,x7
  d0:	adceac23          	sw	x28,-1320(x29) # 4100ead8 <.L46+0x4100e6f0>

000000d4 <.L17>:
  d4:	0000006f          	j	d4 <.L17>
