
kernel_addmm.o:     file format elf32-littleriscv


Disassembly of section .group:

00000000 <_ZN8HBTensorIfLl2EEC5EP11hb_tensor_t>:
   0:	0001                	nop
   2:	0000                	unimp
   4:	00000007          	0x7
   8:	0008                	0x8
	...

Disassembly of section .text:

00000000 <tensorlib_addmm>:
       0:	e9010113          	addi	x2,x2,-368
       4:	16112623          	sw	x1,364(x2)
       8:	16812423          	sw	x8,360(x2)
       c:	16912223          	sw	x9,356(x2)
      10:	17010413          	addi	x8,x2,368
      14:	17212023          	sw	x18,352(x2)
      18:	15312e23          	sw	x19,348(x2)
      1c:	15412c23          	sw	x20,344(x2)
      20:	15512a23          	sw	x21,340(x2)
      24:	15612823          	sw	x22,336(x2)
      28:	15712623          	sw	x23,332(x2)
      2c:	15812423          	sw	x24,328(x2)
      30:	15912223          	sw	x25,324(x2)
      34:	15a12023          	sw	x26,320(x2)
      38:	13b12e23          	sw	x27,316(x2)
      3c:	12812627          	fsw	f8,300(x2)
      40:	12912427          	fsw	f9,296(x2)
      44:	00050993          	mv	x19,x10
      48:	f2040513          	addi	x10,x8,-224
      4c:	00060a93          	mv	x21,x12
      50:	00068a13          	mv	x20,x13
      54:	00070913          	mv	x18,x14
      58:	00078493          	mv	x9,x15
      5c:	00000097          	auipc	x1,0x0
      60:	000080e7          	jalr	x1 # 5c <tensorlib_addmm+0x5c>
      64:	000a8593          	mv	x11,x21
      68:	f4440513          	addi	x10,x8,-188
      6c:	00000097          	auipc	x1,0x0
      70:	000080e7          	jalr	x1 # 6c <tensorlib_addmm+0x6c>
      74:	000a0593          	mv	x11,x20
      78:	f6840513          	addi	x10,x8,-152
      7c:	00000097          	auipc	x1,0x0
      80:	000080e7          	jalr	x1 # 7c <tensorlib_addmm+0x7c>
      84:	00098593          	mv	x11,x19
      88:	f8c40513          	addi	x10,x8,-116
      8c:	00000097          	auipc	x1,0x0
      90:	000080e7          	jalr	x1 # 8c <tensorlib_addmm+0x8c>
      94:	000007b7          	lui	x15,0x0
      98:	00000737          	lui	x14,0x0
      9c:	00000337          	lui	x6,0x0
      a0:	000006b7          	lui	x13,0x0
      a4:	0007a283          	lw	x5,0(x15) # 0 <tensorlib_addmm>
      a8:	00072583          	lw	x11,0(x14) # 0 <tensorlib_addmm>
      ac:	00032383          	lw	x7,0(x6) # 0 <tensorlib_addmm>
      b0:	0006a603          	lw	x12,0(x13) # 0 <tensorlib_addmm>
      b4:	00000537          	lui	x10,0x0
      b8:	00052803          	lw	x16,0(x10) # 0 <tensorlib_addmm>
      bc:	00b288b3          	add	x17,x5,x11
      c0:	00c38b33          	add	x22,x7,x12
      c4:	01889b93          	slli	x23,x17,0x18
      c8:	012b1c13          	slli	x24,x22,0x12
      cc:	3f000cb7          	lui	x25,0x3f000
      d0:	00fc0db7          	lui	x27,0xfc0
      d4:	00040fb7          	lui	x31,0x40
      d8:	019bfd33          	and	x26,x23,x25
      dc:	01bc7e33          	and	x28,x24,x27
      e0:	00481e93          	slli	x29,x16,0x4
      e4:	ff0f8993          	addi	x19,x31,-16 # 3fff0 <.L98+0x3efa0>
      e8:	01cd6f33          	or	x30,x26,x28
      ec:	013efab3          	and	x21,x29,x19
      f0:	f4842283          	lw	x5,-184(x8)
      f4:	015f6a33          	or	x20,x30,x21
      f8:	800007b7          	lui	x15,0x80000
      fc:	00092487          	flw	f9,0(x18)
     100:	00fa6733          	or	x14,x20,x15
     104:	41001937          	lui	x18,0x41001
     108:	0004a407          	flw	f8,0(x9)
     10c:	d0e92623          	sw	x14,-756(x18) # 41000d0c <.L98+0x40fffcbc>
     110:	7e028663          	beqz	x5,8fc <.L145>
     114:	00100093          	li	x1,1
     118:	7850f863          	bgeu	x1,x5,8a8 <.L146>
     11c:	f6c42483          	lw	x9,-148(x8)
     120:	060488e3          	beqz	x9,990 <.L147>
     124:	0c90f0e3          	bgeu	x1,x9,9e4 <.L148>
     128:	f5042583          	lw	x11,-176(x8)
     12c:	f7442303          	lw	x6,-140(x8)
     130:	0045a383          	lw	x7,4(x11)
     134:	00032603          	lw	x12,0(x6)
     138:	ec742c23          	sw	x7,-296(x8)
     13c:	00c39ae3          	bne	x7,x12,950 <.L149>
     140:	00432b03          	lw	x22,4(x6)
     144:	0005a683          	lw	x13,0(x11)
     148:	ed842b83          	lw	x23,-296(x8)
     14c:	007b0813          	addi	x16,x22,7
     150:	41f85c93          	srai	x25,x16,0x1f
     154:	00768893          	addi	x17,x13,7
     158:	007cfd93          	andi	x27,x25,7
     15c:	41f8dc13          	srai	x24,x17,0x1f
     160:	010d8eb3          	add	x29,x27,x16
     164:	007c7d13          	andi	x26,x24,7
     168:	403edf93          	srai	x31,x29,0x3
     16c:	00800993          	li	x19,8
     170:	011d0e33          	add	x28,x26,x17
     174:	007bf513          	andi	x10,x23,7
     178:	edf42823          	sw	x31,-304(x8)
     17c:	ef342c23          	sw	x19,-264(x8)
     180:	403e5f13          	srai	x30,x28,0x3
     184:	00050e63          	beqz	x10,1a0 <.L20>
     188:	41fbda93          	srai	x21,x23,0x1f
     18c:	01dada13          	srli	x20,x21,0x1d
     190:	014b82b3          	add	x5,x23,x20
     194:	0072f793          	andi	x15,x5,7
     198:	41478733          	sub	x14,x15,x20
     19c:	eee42c23          	sw	x14,-264(x8)

000001a0 <.L20>:
     1a0:	00800093          	li	x1,8
     1a4:	0076f913          	andi	x18,x13,7
     1a8:	ee142a23          	sw	x1,-268(x8)
     1ac:	00090e63          	beqz	x18,1c8 <.L21>
     1b0:	41f6d493          	srai	x9,x13,0x1f
     1b4:	01d4d593          	srli	x11,x9,0x1d
     1b8:	00b68333          	add	x6,x13,x11
     1bc:	00737393          	andi	x7,x6,7
     1c0:	40b386b3          	sub	x13,x7,x11
     1c4:	eed42a23          	sw	x13,-268(x8)

000001c8 <.L21>:
     1c8:	00800893          	li	x17,8
     1cc:	007b7b93          	andi	x23,x22,7
     1d0:	ed142e23          	sw	x17,-292(x8)
     1d4:	000b8e63          	beqz	x23,1f0 <.L22>
     1d8:	41fb5813          	srai	x16,x22,0x1f
     1dc:	01d85c13          	srli	x24,x16,0x1d
     1e0:	018b0b33          	add	x22,x22,x24
     1e4:	007b7c93          	andi	x25,x22,7
     1e8:	418c8d33          	sub	x26,x25,x24
     1ec:	eda42e23          	sw	x26,-292(x8)

000001f0 <.L22>:
     1f0:	ed042d83          	lw	x27,-304(x8)
     1f4:	fff00e93          	li	x29,-1
     1f8:	03bf0e33          	mul	x28,x30,x27
     1fc:	59de0863          	beq	x28,x29,78c <.L26>
     200:	580e0663          	beqz	x28,78c <.L26>
     204:	00000fb7          	lui	x31,0x0
     208:	000fa983          	lw	x19,0(x31) # 0 <tensorlib_addmm>
     20c:	007e5513          	srli	x10,x28,0x7
     210:	00150a93          	addi	x21,x10,1
     214:	07f9fa13          	andi	x20,x19,127
     218:	035a02b3          	mul	x5,x20,x21
     21c:	005a87b3          	add	x15,x21,x5
     220:	ec542a23          	sw	x5,-300(x8)
     224:	ecf42623          	sw	x15,-308(x8)
     228:	00fe7463          	bgeu	x28,x15,230 <.L27>
     22c:	edc42623          	sw	x28,-308(x8)

00000230 <.L27>:
     230:	ed442703          	lw	x14,-300(x8)
     234:	ecc42903          	lw	x18,-308(x8)
     238:	55277a63          	bgeu	x14,x18,78c <.L26>
     23c:	edc42083          	lw	x1,-292(x8)
     240:	ef442483          	lw	x9,-268(x8)
     244:	ed842583          	lw	x11,-296(x8)
     248:	00760613          	addi	x12,x12,7
     24c:	02908333          	mul	x6,x1,x9
     250:	00758593          	addi	x11,x11,7
     254:	ed042983          	lw	x19,-304(x8)
     258:	41f5d693          	srai	x13,x11,0x1f
     25c:	41f65b93          	srai	x23,x12,0x1f
     260:	0076f893          	andi	x17,x13,7
     264:	007bfc13          	andi	x24,x23,7
     268:	00549c93          	slli	x25,x9,0x5
     26c:	00b88b33          	add	x22,x17,x11
     270:	00cc0e33          	add	x28,x24,x12
     274:	00231d93          	slli	x27,x6,0x2
     278:	00fd8e93          	addi	x29,x27,15 # fc000f <.L98+0xfbefbf>
     27c:	00509813          	slli	x16,x1,0x5
     280:	403b5f93          	srai	x31,x22,0x3
     284:	ffff0f13          	addi	x30,x30,-1
     288:	fff98513          	addi	x10,x19,-1
     28c:	403e5a93          	srai	x21,x28,0x3
     290:	ff0efa13          	andi	x20,x29,-16
     294:	004cd293          	srli	x5,x25,0x4
     298:	ed942423          	sw	x25,-312(x8)
     29c:	eb042623          	sw	x16,-340(x8)
     2a0:	ebb42423          	sw	x27,-344(x8)
     2a4:	f1f42223          	sw	x31,-252(x8)
     2a8:	ebe42223          	sw	x30,-348(x8)
     2ac:	eaa42e23          	sw	x10,-324(x8)
     2b0:	f1542023          	sw	x21,-256(x8)
     2b4:	eb042023          	sw	x16,-352(x8)
     2b8:	e9442e23          	sw	x20,-356(x8)
     2bc:	e8542c23          	sw	x5,-360(x8)

000002c0 <.L43>:
     2c0:	ed442783          	lw	x15,-300(x8)
     2c4:	ed042703          	lw	x14,-304(x8)
     2c8:	ea442483          	lw	x9,-348(x8)
     2cc:	ea242823          	sw	x2,-336(x8)
     2d0:	02e7f933          	remu	x18,x15,x14
     2d4:	f3042083          	lw	x1,-208(x8)
     2d8:	f2842583          	lw	x11,-216(x8)
     2dc:	02e7dbb3          	divu	x23,x15,x14
     2e0:	ef242823          	sw	x18,-272(x8)
     2e4:	349b8ce3          	beq	x23,x9,e3c <.L150>
     2e8:	ef042303          	lw	x6,-272(x8)
     2ec:	ebc42603          	lw	x12,-324(x8)
     2f0:	74c30463          	beq	x6,x12,a38 <.L107>

000002f4 <.L113>:
     2f4:	10000613          	li	x12,256

000002f8 <.L31>:
     2f8:	00f60e13          	addi	x28,x12,15
     2fc:	ff0e7e93          	andi	x29,x28,-16
     300:	ef042f03          	lw	x30,-272(x8)
     304:	41d10133          	sub	x2,x2,x29
     308:	f0242823          	sw	x2,-240(x8)
     30c:	41d10133          	sub	x2,x2,x29
     310:	003f1a93          	slli	x21,x30,0x3
     314:	00010f93          	mv	x31,x2
     318:	003b9b93          	slli	x23,x23,0x3
     31c:	eff42223          	sw	x31,-284(x8)
     320:	f1542423          	sw	x21,-248(x8)
     324:	f1742623          	sw	x23,-244(x8)
     328:	001a8493          	addi	x9,x21,1
     32c:	00000913          	li	x18,0
     330:	00800393          	li	x7,8

00000334 <.L41>:
     334:	0045a283          	lw	x5,4(x11)
     338:	0005a983          	lw	x19,0(x11)
     33c:	01790a33          	add	x20,x18,x23
     340:	02928533          	mul	x10,x5,x9
     344:	033a0733          	mul	x14,x20,x19
     348:	00a286b3          	add	x13,x5,x10
     34c:	00d28333          	add	x6,x5,x13
     350:	006288b3          	add	x17,x5,x6
     354:	01128c33          	add	x24,x5,x17
     358:	01828b33          	add	x22,x5,x24
     35c:	025a8cb3          	mul	x25,x21,x5
     360:	005707b3          	add	x15,x14,x5
     364:	00a70d33          	add	x26,x14,x10
     368:	00670e33          	add	x28,x14,x6
     36c:	01170eb3          	add	x29,x14,x17
     370:	01870f33          	add	x30,x14,x24
     374:	01678a33          	add	x20,x15,x22
     378:	00d70db3          	add	x27,x14,x13
     37c:	01670833          	add	x16,x14,x22
     380:	002d1993          	slli	x19,x26,0x2
     384:	00ec82b3          	add	x5,x25,x14
     388:	002d9693          	slli	x13,x27,0x2
     38c:	002e1c13          	slli	x24,x28,0x2
     390:	002e9313          	slli	x6,x29,0x2
     394:	002f1893          	slli	x17,x30,0x2
     398:	00281b13          	slli	x22,x16,0x2
     39c:	00229713          	slli	x14,x5,0x2
     3a0:	002a1513          	slli	x10,x20,0x2
     3a4:	00e08cb3          	add	x25,x1,x14
     3a8:	013087b3          	add	x15,x1,x19
     3ac:	00d08d33          	add	x26,x1,x13
     3b0:	01808db3          	add	x27,x1,x24
     3b4:	00608e33          	add	x28,x1,x6
     3b8:	01108eb3          	add	x29,x1,x17
     3bc:	01608f33          	add	x30,x1,x22
     3c0:	00a08833          	add	x16,x1,x10
     3c4:	000ca087          	flw	f1,0(x25) # 3f000000 <.L98+0x3effefb0>
     3c8:	0007a007          	flw	f0,0(x15) # 80000000 <.L98+0x7fffefb0>
     3cc:	000d2507          	flw	f10,0(x26)
     3d0:	000da587          	flw	f11,0(x27)
     3d4:	000e2607          	flw	f12,0(x28)
     3d8:	000ea687          	flw	f13,0(x29)
     3dc:	000f2707          	flw	f14,0(x30)
     3e0:	00082787          	flw	f15,0(x16)
     3e4:	1014f153          	fmul.s	f2,f9,f1
     3e8:	1004f1d3          	fmul.s	f3,f9,f0
     3ec:	10a4f253          	fmul.s	f4,f9,f10
     3f0:	10b4f2d3          	fmul.s	f5,f9,f11
     3f4:	10c4f353          	fmul.s	f6,f9,f12
     3f8:	10d4f3d3          	fmul.s	f7,f9,f13
     3fc:	10e4f853          	fmul.s	f16,f9,f14
     400:	10f4f8d3          	fmul.s	f17,f9,f15
     404:	002fa027          	fsw	f2,0(x31)
     408:	003fa227          	fsw	f3,4(x31)
     40c:	004fa427          	fsw	f4,8(x31)
     410:	005fa627          	fsw	f5,12(x31)
     414:	006fa827          	fsw	f6,16(x31)
     418:	007faa27          	fsw	f7,20(x31)
     41c:	010fac27          	fsw	f16,24(x31)
     420:	011fae27          	fsw	f17,28(x31)
     424:	00190913          	addi	x18,x18,1
     428:	020f8f93          	addi	x31,x31,32
     42c:	f07914e3          	bne	x18,x7,334 <.L41>
     430:	00800093          	li	x1,8
     434:	f0142e23          	sw	x1,-228(x8)
     438:	00000c93          	li	x25,0
     43c:	00291493          	slli	x9,x18,0x2

00000440 <.L37>:
     440:	f1042503          	lw	x10,-240(x8)
     444:	00000593          	li	x11,0
     448:	00000097          	auipc	x1,0x0
     44c:	000080e7          	jalr	x1 # 448 <.L37+0x8>
     450:	ed842583          	lw	x11,-296(x8)
     454:	28b05a63          	blez	x11,6e8 <.L42>
     458:	f1c42083          	lw	x1,-228(x8)
     45c:	00008613          	mv	x12,x1
     460:	00509f93          	slli	x31,x1,0x5

00000464 <.L109>:
     464:	ef842983          	lw	x19,-264(x8)
     468:	f0842783          	lw	x15,-248(x8)
     46c:	f0442803          	lw	x16,-252(x8)
     470:	00299293          	slli	x5,x19,0x2
     474:	02c28c33          	mul	x24,x5,x12
     478:	f1c42083          	lw	x1,-228(x8)
     47c:	f0c42583          	lw	x11,-244(x8)
     480:	00191b13          	slli	x22,x18,0x1
     484:	fff90693          	addi	x13,x18,-1
     488:	00391a93          	slli	x21,x18,0x3
     48c:	012b0333          	add	x6,x22,x18
     490:	00878d13          	addi	x26,x15,8
     494:	01248db3          	add	x27,x9,x18
     498:	ff86f713          	andi	x14,x13,-8
     49c:	02590eb3          	mul	x29,x18,x5
     4a0:	00fc0f13          	addi	x30,x24,15
     4a4:	412a8e33          	sub	x28,x21,x18
     4a8:	fff80893          	addi	x17,x16,-1
     4ac:	00b08633          	add	x12,x1,x11
     4b0:	edf42223          	sw	x31,-316(x8)
     4b4:	ff0f7293          	andi	x5,x30,-16
     4b8:	00591f93          	slli	x31,x18,0x5
     4bc:	01a709b3          	add	x19,x14,x26
     4c0:	002d9a13          	slli	x20,x27,0x2
     4c4:	00fe8513          	addi	x10,x29,15
     4c8:	ff057c13          	andi	x24,x10,-16
     4cc:	00231b93          	slli	x23,x6,0x2
     4d0:	00491b13          	slli	x22,x18,0x4
     4d4:	00331d13          	slli	x26,x6,0x3
     4d8:	002e1d93          	slli	x27,x28,0x2
     4dc:	00000393          	li	x7,0
     4e0:	f0042c23          	sw	x0,-232(x8)
     4e4:	ef142e23          	sw	x17,-260(x8)
     4e8:	eec42623          	sw	x12,-276(x8)
     4ec:	edf42023          	sw	x31,-320(x8)
     4f0:	ea542c23          	sw	x5,-328(x8)
     4f4:	eb842a23          	sw	x24,-332(x8)

000004f8 <.L86>:
     4f8:	f0042683          	lw	x13,-256(x8)
     4fc:	f1842303          	lw	x6,-232(x8)
     500:	1ed35063          	bge	x6,x13,6e0 <.L44>
     504:	efc42703          	lw	x14,-260(x8)
     508:	f0242a23          	sw	x2,-236(x8)
     50c:	0c670ee3          	beq	x14,x6,de8 <.L45>
     510:	5e0c8063          	beqz	x25,af0 <.L47>
     514:	00800093          	li	x1,8

00000518 <.L46>:
     518:	f1c42f03          	lw	x30,-228(x8)
     51c:	02190333          	mul	x6,x18,x1
     520:	f1c42783          	lw	x15,-228(x8)
     524:	f4c42c03          	lw	x24,-180(x8)
     528:	f5442c83          	lw	x25,-172(x8)
     52c:	021f08b3          	mul	x17,x30,x1
     530:	00231e93          	slli	x29,x6,0x2
     534:	00fe8693          	addi	x13,x29,15
     538:	ff06f293          	andi	x5,x13,-16
     53c:	00289713          	slli	x14,x17,0x2
     540:	00f70593          	addi	x11,x14,15
     544:	ff05fe13          	andi	x28,x11,-16
     548:	41c10133          	sub	x2,x2,x28
     54c:	00010513          	mv	x10,x2
     550:	40510133          	sub	x2,x2,x5
     554:	00010813          	mv	x16,x2
     558:	0cf056e3          	blez	x15,e24 <.L52>

0000055c <.L153>:
     55c:	f0c42583          	lw	x11,-244(x8)
     560:	eec42f03          	lw	x30,-276(x8)
     564:	00209f93          	slli	x31,x1,0x2
     568:	01f50633          	add	x12,x10,x31
     56c:	00000313          	li	x6,0

00000570 <.L55>:
     570:	04105063          	blez	x1,5b0 <.L56>
     574:	004c2883          	lw	x17,4(x24)
     578:	000c2703          	lw	x14,0(x24)
     57c:	00231e13          	slli	x28,x6,0x2
     580:	02788eb3          	mul	x29,x17,x7
     584:	00289693          	slli	x13,x17,0x2
     588:	01c507b3          	add	x15,x10,x28
     58c:	02e582b3          	mul	x5,x11,x14
     590:	01d288b3          	add	x17,x5,x29
     594:	00289713          	slli	x14,x17,0x2
     598:	00ec8e33          	add	x28,x25,x14

0000059c <.L57>:
     59c:	000e2807          	flw	f16,0(x28)
     5a0:	00478793          	addi	x15,x15,4
     5a4:	00de0e33          	add	x28,x28,x13
     5a8:	ff07ae27          	fsw	f16,-4(x15)
     5ac:	fef618e3          	bne	x12,x15,59c <.L57>

000005b0 <.L56>:
     5b0:	00158593          	addi	x11,x11,1
     5b4:	00130333          	add	x6,x6,x1
     5b8:	01f60633          	add	x12,x12,x31
     5bc:	fabf1ae3          	bne	x30,x11,570 <.L55>
     5c0:	f7042c03          	lw	x24,-144(x8)
     5c4:	f7842c83          	lw	x25,-136(x8)
     5c8:	06105a63          	blez	x1,63c <.L61>

000005cc <.L59>:
     5cc:	f0842f03          	lw	x30,-248(x8)
     5d0:	00980633          	add	x12,x16,x9
     5d4:	00000313          	li	x6,0
     5d8:	00000593          	li	x11,0

000005dc <.L64>:
     5dc:	05205263          	blez	x18,620 <.L65>
     5e0:	004c2e83          	lw	x29,4(x24)
     5e4:	000c2283          	lw	x5,0(x24)
     5e8:	007588b3          	add	x17,x11,x7
     5ec:	03ee8fb3          	mul	x31,x29,x30
     5f0:	002e9693          	slli	x13,x29,0x2
     5f4:	00231713          	slli	x14,x6,0x2
     5f8:	00e807b3          	add	x15,x16,x14
     5fc:	02588e33          	mul	x28,x17,x5
     600:	01fe0eb3          	add	x29,x28,x31
     604:	002e9293          	slli	x5,x29,0x2
     608:	005c88b3          	add	x17,x25,x5

0000060c <.L66>:
     60c:	0008a887          	flw	f17,0(x17)
     610:	00478793          	addi	x15,x15,4
     614:	00d888b3          	add	x17,x17,x13
     618:	ff17ae27          	fsw	f17,-4(x15)
     61c:	fef618e3          	bne	x12,x15,60c <.L66>

00000620 <.L65>:
     620:	00158593          	addi	x11,x11,1
     624:	01230333          	add	x6,x6,x18
     628:	00960633          	add	x12,x12,x9
     62c:	fa15c8e3          	blt	x11,x1,5dc <.L64>
     630:	f1c42c03          	lw	x24,-228(x8)
     634:	09805663          	blez	x24,6c0 <.L60>
     638:	00209f93          	slli	x31,x1,0x2

0000063c <.L61>:
     63c:	f1c42c83          	lw	x25,-228(x8)
     640:	f1042283          	lw	x5,-240(x8)
     644:	01f506b3          	add	x13,x10,x31
     648:	00000f13          	li	x30,0
     64c:	00000e93          	li	x29,0
     650:	00000e13          	li	x28,0

00000654 <.L69>:
     654:	002e9713          	slli	x14,x29,0x2
     658:	00e28633          	add	x12,x5,x14
     65c:	00000593          	li	x11,0
     660:	002f1893          	slli	x17,x30,0x2
     664:	05205463          	blez	x18,6ac <.L72>

00000668 <.L73>:
     668:	00062f87          	flw	f31,0(x12)
     66c:	02105863          	blez	x1,69c <.L70>
     670:	f0000f53          	fmv.w.x	f30,x0
     674:	00259313          	slli	x6,x11,0x2
     678:	011507b3          	add	x15,x10,x17
     67c:	00680c33          	add	x24,x16,x6

00000680 <.L71>:
     680:	0007ae07          	flw	f28,0(x15)
     684:	000c2e87          	flw	f29,0(x24)
     688:	00478793          	addi	x15,x15,4
     68c:	009c0c33          	add	x24,x24,x9
     690:	f1de7f43          	fmadd.s	f30,f28,f29,f30
     694:	fef696e3          	bne	x13,x15,680 <.L71>
     698:	01efffd3          	fadd.s	f31,f31,f30

0000069c <.L70>:
     69c:	01f62027          	fsw	f31,0(x12)
     6a0:	00158593          	addi	x11,x11,1
     6a4:	00460613          	addi	x12,x12,4
     6a8:	fcb910e3          	bne	x18,x11,668 <.L73>

000006ac <.L72>:
     6ac:	001e0e13          	addi	x28,x28,1
     6b0:	012e8eb3          	add	x29,x29,x18
     6b4:	001f0f33          	add	x30,x30,x1
     6b8:	01f686b3          	add	x13,x13,x31
     6bc:	f99e4ce3          	blt	x28,x25,654 <.L69>

000006c0 <.L60>:
     6c0:	00100c93          	li	x25,1
     6c4:	00838393          	addi	x7,x7,8

000006c8 <.L67>:
     6c8:	f1842083          	lw	x1,-232(x8)
     6cc:	00108513          	addi	x10,x1,1
     6d0:	f0a42c23          	sw	x10,-232(x8)
     6d4:	f0442803          	lw	x16,-252(x8)
     6d8:	f1442103          	lw	x2,-236(x8)
     6dc:	e1054ee3          	blt	x10,x16,4f8 <.L86>

000006e0 <.L44>:
     6e0:	f1c42383          	lw	x7,-228(x8)
     6e4:	08705863          	blez	x7,774 <.L88>

000006e8 <.L42>:
     6e8:	f9442b03          	lw	x22,-108(x8)
     6ec:	f9c42983          	lw	x19,-100(x8)
     6f0:	ee442e83          	lw	x29,-284(x8)
     6f4:	f1042883          	lw	x17,-240(x8)
     6f8:	f1c42a03          	lw	x20,-228(x8)
     6fc:	ef042f83          	lw	x31,-272(x8)
     700:	f0c42a83          	lw	x21,-244(x8)
     704:	00000693          	li	x13,0

00000708 <.L89>:
     708:	05205e63          	blez	x18,764 <.L90>
     70c:	004b2b83          	lw	x23,4(x22)
     710:	000b2d03          	lw	x26,0(x22)
     714:	01568db3          	add	x27,x13,x21
     718:	037f8cb3          	mul	x25,x31,x23
     71c:	002b9293          	slli	x5,x23,0x2
     720:	00088613          	mv	x12,x17
     724:	000e8e13          	mv	x28,x29
     728:	00000713          	li	x14,0
     72c:	03ad8333          	mul	x6,x27,x26
     730:	003c9793          	slli	x15,x25,0x3
     734:	00f30c33          	add	x24,x6,x15
     738:	002c1593          	slli	x11,x24,0x2
     73c:	00b98f33          	add	x30,x19,x11

00000740 <.L91>:
     740:	00062087          	flw	f1,0(x12)
     744:	000e2007          	flw	f0,0(x28)
     748:	00170713          	addi	x14,x14,1
     74c:	004e0e13          	addi	x28,x28,4
     750:	001471c3          	fmadd.s	f3,f8,f1,f0
     754:	00460613          	addi	x12,x12,4
     758:	003f2027          	fsw	f3,0(x30)
     75c:	005f0f33          	add	x30,x30,x5
     760:	fee910e3          	bne	x18,x14,740 <.L91>

00000764 <.L90>:
     764:	00168693          	addi	x13,x13,1
     768:	009e8eb3          	add	x29,x29,x9
     76c:	009888b3          	add	x17,x17,x9
     770:	f946cce3          	blt	x13,x20,708 <.L89>

00000774 <.L88>:
     774:	ed442903          	lw	x18,-300(x8)
     778:	00190493          	addi	x9,x18,1
     77c:	ec942a23          	sw	x9,-300(x8)
     780:	ecc42083          	lw	x1,-308(x8)
     784:	eb042103          	lw	x2,-336(x8)
     788:	b2909ce3          	bne	x1,x9,2c0 <.L43>

0000078c <.L26>:
     78c:	00000837          	lui	x16,0x0
     790:	00000fb7          	lui	x31,0x0
     794:	00000537          	lui	x10,0x0
     798:	000009b7          	lui	x19,0x0
     79c:	00052383          	lw	x7,0(x10) # 0 <tensorlib_addmm>
     7a0:	00082b03          	lw	x22,0(x16) # 0 <tensorlib_addmm>
     7a4:	0009aa03          	lw	x20,0(x19) # 0 <tensorlib_addmm>
     7a8:	000faa83          	lw	x21,0(x31) # 0 <tensorlib_addmm>
     7ac:	00000bb7          	lui	x23,0x0
     7b0:	000bad03          	lw	x26,0(x23) # 0 <tensorlib_addmm>
     7b4:	01638db3          	add	x27,x7,x22
     7b8:	015a0cb3          	add	x25,x20,x21
     7bc:	018d9293          	slli	x5,x27,0x18
     7c0:	3f0007b7          	lui	x15,0x3f000
     7c4:	00fc05b7          	lui	x11,0xfc0
     7c8:	012c9313          	slli	x6,x25,0x12
     7cc:	00040f37          	lui	x30,0x40
     7d0:	00f2fc33          	and	x24,x5,x15
     7d4:	00b37733          	and	x14,x6,x11
     7d8:	004d1e13          	slli	x28,x26,0x4
     7dc:	ff0f0693          	addi	x13,x30,-16 # 3fff0 <.L98+0x3efa0>
     7e0:	00ec6633          	or	x12,x24,x14
     7e4:	00de7eb3          	and	x29,x28,x13
     7e8:	01d668b3          	or	x17,x12,x29
     7ec:	c0000937          	lui	x18,0xc0000
     7f0:	0128e4b3          	or	x9,x17,x18
     7f4:	410010b7          	lui	x1,0x41001
     7f8:	d090a623          	sw	x9,-756(x1) # 41000d0c <.L98+0x40fffcbc>
     7fc:	000fa503          	lw	x10,0(x31)
     800:	00082383          	lw	x7,0(x16)
     804:	000005b7          	lui	x11,0x0
     808:	00450813          	addi	x16,x10,4
     80c:	00058793          	mv	x15,x11
     810:	01078b33          	add	x22,x15,x16
     814:	01839993          	slli	x19,x7,0x18
     818:	013b6a33          	or	x20,x22,x19
     81c:	201c0ab7          	lui	x21,0x201c0
     820:	015a6bb3          	or	x23,x20,x21
     824:	00100d13          	li	x26,1
     828:	01ab8023          	sb	x26,0(x23)
     82c:	000faf83          	lw	x31,0(x31)
     830:	00700d93          	li	x27,7
     834:	6dbf8263          	beq	x31,x27,ef8 <.L151>

00000838 <.L100>:
     838:	00100493          	li	x9,1
     83c:	0100006f          	j	84c <.L105>

00000840 <.L152>:
     840:	00058513          	mv	x10,x11
     844:	14052c2f          	lr.w.aq	x24,(x10)
     848:	009c0863          	beq	x24,x9,858 <.L104>

0000084c <.L105>:
     84c:	00058093          	mv	x1,x11
     850:	1000a6af          	lr.w	x13,(x1)
     854:	fe9696e3          	bne	x13,x9,840 <.L152>

00000858 <.L104>:
     858:	0007a023          	sw	x0,0(x15) # 3f000000 <.L98+0x3effefb0>
     85c:	e9040113          	addi	x2,x8,-368
     860:	16c12083          	lw	x1,364(x2)
     864:	16812403          	lw	x8,360(x2)
     868:	16412483          	lw	x9,356(x2)
     86c:	16012903          	lw	x18,352(x2)
     870:	15c12983          	lw	x19,348(x2)
     874:	15812a03          	lw	x20,344(x2)
     878:	15412a83          	lw	x21,340(x2)
     87c:	15012b03          	lw	x22,336(x2)
     880:	14c12b83          	lw	x23,332(x2)
     884:	14812c03          	lw	x24,328(x2)
     888:	14412c83          	lw	x25,324(x2)
     88c:	14012d03          	lw	x26,320(x2)
     890:	13c12d83          	lw	x27,316(x2)
     894:	12c12407          	flw	f8,300(x2)
     898:	12812487          	flw	f9,296(x2)
     89c:	00000513          	li	x10,0
     8a0:	17010113          	addi	x2,x2,368
     8a4:	00008067          	ret

000008a8 <.L146>:
     8a8:	000000b7          	lui	x1,0x0
     8ac:	00000837          	lui	x16,0x0
     8b0:	00008593          	mv	x11,x1
     8b4:	06f00613          	li	x12,111
     8b8:	00080513          	mv	x10,x16
     8bc:	00000097          	auipc	x1,0x0
     8c0:	000080e7          	jalr	x1 # 8bc <.L146+0x14>
     8c4:	f4842583          	lw	x11,-184(x8)
     8c8:	00000b37          	lui	x22,0x0
     8cc:	000b0513          	mv	x10,x22
     8d0:	000009b7          	lui	x19,0x0
     8d4:	00000097          	auipc	x1,0x0
     8d8:	000080e7          	jalr	x1 # 8d4 <.L146+0x2c>
     8dc:	00000ab7          	lui	x21,0x0
     8e0:	0009aa03          	lw	x20,0(x19) # 0 <tensorlib_addmm>
     8e4:	000aab83          	lw	x23,0(x21) # 0 <tensorlib_addmm>
     8e8:	4100fdb7          	lui	x27,0x4100f
     8ec:	010a1d13          	slli	x26,x20,0x10
     8f0:	017d0fb3          	add	x31,x26,x23
     8f4:	adfdac23          	sw	x31,-1320(x27) # 4100ead8 <.L98+0x4100da88>

000008f8 <.L13>:
     8f8:	0000006f          	j	8f8 <.L13>

000008fc <.L145>:
     8fc:	000002b7          	lui	x5,0x0
     900:	00000cb7          	lui	x25,0x0
     904:	06f00613          	li	x12,111
     908:	000c8593          	mv	x11,x25
     90c:	00028513          	mv	x10,x5
     910:	00000097          	auipc	x1,0x0
     914:	000080e7          	jalr	x1 # 910 <.L145+0x14>
     918:	f4842583          	lw	x11,-184(x8)
     91c:	00000e37          	lui	x28,0x0
     920:	000e0513          	mv	x10,x28
     924:	00000097          	auipc	x1,0x0
     928:	000080e7          	jalr	x1 # 924 <.L145+0x28>
     92c:	00000337          	lui	x6,0x0
     930:	00032603          	lw	x12,0(x6) # 0 <tensorlib_addmm>
     934:	00000f37          	lui	x30,0x0
     938:	000f2883          	lw	x17,0(x30) # 0 <tensorlib_addmm>
     93c:	01061713          	slli	x14,x12,0x10
     940:	4100f937          	lui	x18,0x4100f
     944:	01170eb3          	add	x29,x14,x17
     948:	add92c23          	sw	x29,-1320(x18) # 4100ead8 <.L98+0x4100da88>

0000094c <.L11>:
     94c:	0000006f          	j	94c <.L11>

00000950 <.L149>:
     950:	000007b7          	lui	x15,0x0
     954:	000005b7          	lui	x11,0x0
     958:	02400613          	li	x12,36
     95c:	00058593          	mv	x11,x11
     960:	00078513          	mv	x10,x15
     964:	00000097          	auipc	x1,0x0
     968:	000080e7          	jalr	x1 # 964 <.L149+0x14>
     96c:	000003b7          	lui	x7,0x0
     970:	0003a803          	lw	x16,0(x7) # 0 <tensorlib_addmm>
     974:	00000b37          	lui	x22,0x0
     978:	000b2983          	lw	x19,0(x22) # 0 <tensorlib_addmm>
     97c:	01081a13          	slli	x20,x16,0x10
     980:	4100fbb7          	lui	x23,0x4100f
     984:	013a0ab3          	add	x21,x20,x19
     988:	ad5bac23          	sw	x21,-1320(x23) # 4100ead8 <.L98+0x4100da88>

0000098c <.L19>:
     98c:	0000006f          	j	98c <.L19>

00000990 <.L147>:
     990:	00000737          	lui	x14,0x0
     994:	00000eb7          	lui	x29,0x0
     998:	00070593          	mv	x11,x14
     99c:	06f00613          	li	x12,111
     9a0:	000e8513          	mv	x10,x29
     9a4:	00000097          	auipc	x1,0x0
     9a8:	000080e7          	jalr	x1 # 9a4 <.L147+0x14>
     9ac:	f6c42583          	lw	x11,-148(x8)
     9b0:	00000937          	lui	x18,0x0
     9b4:	00090513          	mv	x10,x18
     9b8:	00000097          	auipc	x1,0x0
     9bc:	000080e7          	jalr	x1 # 9b8 <.L147+0x28>
     9c0:	000004b7          	lui	x9,0x0
     9c4:	0004a683          	lw	x13,0(x9) # 0 <tensorlib_addmm>
     9c8:	00000537          	lui	x10,0x0
     9cc:	00052c03          	lw	x24,0(x10) # 0 <tensorlib_addmm>
     9d0:	01069593          	slli	x11,x13,0x10
     9d4:	4100f3b7          	lui	x7,0x4100f
     9d8:	018587b3          	add	x15,x11,x24
     9dc:	acf3ac23          	sw	x15,-1320(x7) # 4100ead8 <.L98+0x4100da88>

000009e0 <.L15>:
     9e0:	0000006f          	j	9e0 <.L15>

000009e4 <.L148>:
     9e4:	00000fb7          	lui	x31,0x0
     9e8:	00000d37          	lui	x26,0x0
     9ec:	06f00613          	li	x12,111
     9f0:	000d0593          	mv	x11,x26
     9f4:	000f8513          	mv	x10,x31
     9f8:	00000097          	auipc	x1,0x0
     9fc:	000080e7          	jalr	x1 # 9f8 <.L148+0x14>
     a00:	f6c42583          	lw	x11,-148(x8)
     a04:	00000db7          	lui	x27,0x0
     a08:	000d8513          	mv	x10,x27
     a0c:	00000097          	auipc	x1,0x0
     a10:	000080e7          	jalr	x1 # a0c <.L148+0x28>
     a14:	00000cb7          	lui	x25,0x0
     a18:	000ca283          	lw	x5,0(x25) # 0 <tensorlib_addmm>
     a1c:	00000e37          	lui	x28,0x0
     a20:	000e2303          	lw	x6,0(x28) # 0 <tensorlib_addmm>
     a24:	01029613          	slli	x12,x5,0x10
     a28:	4100f8b7          	lui	x17,0x4100f
     a2c:	00660f33          	add	x30,x12,x6
     a30:	ade8ac23          	sw	x30,-1320(x17) # 4100ead8 <.L98+0x4100da88>

00000a34 <.L17>:
     a34:	0000006f          	j	a34 <.L17>

00000a38 <.L107>:
     a38:	edc42903          	lw	x18,-292(x8)
     a3c:	00800d93          	li	x27,8
     a40:	8bb90ae3          	beq	x18,x27,2f4 <.L113>
     a44:	ea042603          	lw	x12,-352(x8)
     a48:	00800f93          	li	x31,8
     a4c:	f1f42e23          	sw	x31,-228(x8)
     a50:	40c10133          	sub	x2,x2,x12
     a54:	f0242823          	sw	x2,-240(x8)
     a58:	40c10133          	sub	x2,x2,x12
     a5c:	eac42603          	lw	x12,-340(x8)
     a60:	ee242223          	sw	x2,-284(x8)

00000a64 <.L33>:
     a64:	ef042a03          	lw	x20,-272(x8)
     a68:	ee442283          	lw	x5,-284(x8)
     a6c:	f1c42c03          	lw	x24,-228(x8)
     a70:	00291493          	slli	x9,x18,0x2
     a74:	003b9b93          	slli	x23,x23,0x3
     a78:	003a1993          	slli	x19,x20,0x3
     a7c:	f1742623          	sw	x23,-244(x8)
     a80:	f1342423          	sw	x19,-248(x8)
     a84:	00928533          	add	x10,x5,x9
     a88:	00000893          	li	x17,0
     a8c:	00000813          	li	x16,0

00000a90 <.L38>:
     a90:	05205463          	blez	x18,ad8 <.L39>
     a94:	0045a683          	lw	x13,4(x11) # 4 <tensorlib_addmm+0x4>
     a98:	0005ab03          	lw	x22,0(x11)
     a9c:	01780733          	add	x14,x16,x23
     aa0:	02d98333          	mul	x6,x19,x13
     aa4:	00289793          	slli	x15,x17,0x2
     aa8:	00269d13          	slli	x26,x13,0x2
     aac:	00f28f33          	add	x30,x5,x15
     ab0:	03670db3          	mul	x27,x14,x22
     ab4:	006d8e33          	add	x28,x27,x6
     ab8:	002e1e93          	slli	x29,x28,0x2
     abc:	01d08cb3          	add	x25,x1,x29

00000ac0 <.L40>:
     ac0:	000cae07          	flw	f28,0(x25)
     ac4:	004f0f13          	addi	x30,x30,4
     ac8:	01ac8cb3          	add	x25,x25,x26
     acc:	109e7ed3          	fmul.s	f29,f28,f9
     ad0:	ffdf2e27          	fsw	f29,-4(x30)
     ad4:	ffe516e3          	bne	x10,x30,ac0 <.L40>

00000ad8 <.L39>:
     ad8:	00180813          	addi	x16,x16,1 # 1 <tensorlib_addmm+0x1>
     adc:	012888b3          	add	x17,x17,x18
     ae0:	00950533          	add	x10,x10,x9
     ae4:	fb8846e3          	blt	x16,x24,a90 <.L38>
     ae8:	00100c93          	li	x25,1
     aec:	955ff06f          	j	440 <.L37>

00000af0 <.L47>:
     af0:	ec442e03          	lw	x28,-316(x8)
     af4:	ec042e83          	lw	x29,-320(x8)
     af8:	f1c42f03          	lw	x30,-228(x8)
     afc:	41c10133          	sub	x2,x2,x28
     b00:	00010693          	mv	x13,x2
     b04:	eed42423          	sw	x13,-280(x8)
     b08:	41d10133          	sub	x2,x2,x29
     b0c:	f4c42083          	lw	x1,-180(x8)
     b10:	f5442f83          	lw	x31,-172(x8)
     b14:	f0c42e83          	lw	x29,-244(x8)
     b18:	00010c93          	mv	x25,x2
     b1c:	0fe05063          	blez	x30,bfc <.L74>
     b20:	eec42583          	lw	x11,-276(x8)

00000b24 <.L75>:
     b24:	0040ac03          	lw	x24,4(x1)
     b28:	0000a803          	lw	x16,0(x1)
     b2c:	027c0733          	mul	x14,x24,x7
     b30:	030e8633          	mul	x12,x29,x16
     b34:	00ec0e33          	add	x28,x24,x14
     b38:	01cc0333          	add	x6,x24,x28
     b3c:	006c08b3          	add	x17,x24,x6
     b40:	011c0833          	add	x16,x24,x17
     b44:	010c0533          	add	x10,x24,x16
     b48:	00ac02b3          	add	x5,x24,x10
     b4c:	018607b3          	add	x15,x12,x24
     b50:	01c60f33          	add	x30,x12,x28
     b54:	00e60c33          	add	x24,x12,x14
     b58:	00660e33          	add	x28,x12,x6
     b5c:	011608b3          	add	x17,x12,x17
     b60:	01060833          	add	x16,x12,x16
     b64:	00a60533          	add	x10,x12,x10
     b68:	00560633          	add	x12,x12,x5
     b6c:	005782b3          	add	x5,x15,x5
     b70:	002c1713          	slli	x14,x24,0x2
     b74:	002e1313          	slli	x6,x28,0x2
     b78:	00229793          	slli	x15,x5,0x2
     b7c:	002f1c13          	slli	x24,x30,0x2
     b80:	00289e13          	slli	x28,x17,0x2
     b84:	00281813          	slli	x16,x16,0x2
     b88:	00251513          	slli	x10,x10,0x2
     b8c:	00261613          	slli	x12,x12,0x2
     b90:	00ef82b3          	add	x5,x31,x14
     b94:	018f8f33          	add	x30,x31,x24
     b98:	006f8733          	add	x14,x31,x6
     b9c:	01cf88b3          	add	x17,x31,x28
     ba0:	010f8c33          	add	x24,x31,x16
     ba4:	00af8333          	add	x6,x31,x10
     ba8:	00cf8e33          	add	x28,x31,x12
     bac:	00ff8833          	add	x16,x31,x15
     bb0:	0002af07          	flw	f30,0(x5) # 0 <tensorlib_addmm>
     bb4:	000f2f87          	flw	f31,0(x30)
     bb8:	00072087          	flw	f1,0(x14) # 0 <tensorlib_addmm>
     bbc:	0008a007          	flw	f0,0(x17)
     bc0:	000c2507          	flw	f10,0(x24)
     bc4:	00032587          	flw	f11,0(x6)
     bc8:	000e2607          	flw	f12,0(x28)
     bcc:	00082687          	flw	f13,0(x16)
     bd0:	01e6a027          	fsw	f30,0(x13)
     bd4:	01f6a227          	fsw	f31,4(x13)
     bd8:	0016a427          	fsw	f1,8(x13)
     bdc:	0006a627          	fsw	f0,12(x13)
     be0:	00a6a827          	fsw	f10,16(x13)
     be4:	00b6aa27          	fsw	f11,20(x13)
     be8:	00c6ac27          	fsw	f12,24(x13)
     bec:	00d6ae27          	fsw	f13,28(x13)
     bf0:	001e8e93          	addi	x29,x29,1 # 1 <tensorlib_addmm+0x1>
     bf4:	02068693          	addi	x13,x13,32
     bf8:	f3d596e3          	bne	x11,x29,b24 <.L75>

00000bfc <.L74>:
     bfc:	ef642023          	sw	x22,-288(x8)
     c00:	f7042083          	lw	x1,-144(x8)
     c04:	f7842f83          	lw	x31,-136(x8)
     c08:	f0842b03          	lw	x22,-248(x8)
     c0c:	00038293          	mv	x5,x7
     c10:	00000c13          	li	x24,0
     c14:	00838393          	addi	x7,x7,8

00000c18 <.L50>:
     c18:	002c1593          	slli	x11,x24,0x2
     c1c:	00bc86b3          	add	x13,x25,x11
     c20:	000b0e93          	mv	x29,x22
     c24:	0d205e63          	blez	x18,d00 <.L78>

00000c28 <.L79>:
     c28:	0040a783          	lw	x15,4(x1)
     c2c:	0000a503          	lw	x10,0(x1)
     c30:	03d78333          	mul	x6,x15,x29
     c34:	02a28733          	mul	x14,x5,x10
     c38:	006788b3          	add	x17,x15,x6
     c3c:	01178e33          	add	x28,x15,x17
     c40:	01c78533          	add	x10,x15,x28
     c44:	00a785b3          	add	x11,x15,x10
     c48:	00b78633          	add	x12,x15,x11
     c4c:	00c78f33          	add	x30,x15,x12
     c50:	00f707b3          	add	x15,x14,x15
     c54:	01c70833          	add	x16,x14,x28
     c58:	00b705b3          	add	x11,x14,x11
     c5c:	00a70e33          	add	x28,x14,x10
     c60:	00670333          	add	x6,x14,x6
     c64:	011708b3          	add	x17,x14,x17
     c68:	00c70633          	add	x12,x14,x12
     c6c:	01e70733          	add	x14,x14,x30
     c70:	01e78f33          	add	x30,x15,x30
     c74:	002e1513          	slli	x10,x28,0x2
     c78:	002f1793          	slli	x15,x30,0x2
     c7c:	00231313          	slli	x6,x6,0x2
     c80:	00289893          	slli	x17,x17,0x2
     c84:	00281813          	slli	x16,x16,0x2
     c88:	00259e13          	slli	x28,x11,0x2
     c8c:	00261613          	slli	x12,x12,0x2
     c90:	00271713          	slli	x14,x14,0x2
     c94:	006f8f33          	add	x30,x31,x6
     c98:	01cf85b3          	add	x11,x31,x28
     c9c:	011f8333          	add	x6,x31,x17
     ca0:	00ef8e33          	add	x28,x31,x14
     ca4:	010f88b3          	add	x17,x31,x16
     ca8:	00af8833          	add	x16,x31,x10
     cac:	00cf8533          	add	x10,x31,x12
     cb0:	00ff8633          	add	x12,x31,x15
     cb4:	000f2107          	flw	f2,0(x30)
     cb8:	00032187          	flw	f3,0(x6)
     cbc:	0008a207          	flw	f4,0(x17)
     cc0:	00082287          	flw	f5,0(x16)
     cc4:	0005a307          	flw	f6,0(x11)
     cc8:	00052387          	flw	f7,0(x10)
     ccc:	000e2707          	flw	f14,0(x28)
     cd0:	00062787          	flw	f15,0(x12)
     cd4:	0026a027          	fsw	f2,0(x13)
     cd8:	0036a227          	fsw	f3,4(x13)
     cdc:	0046a427          	fsw	f4,8(x13)
     ce0:	0056a627          	fsw	f5,12(x13)
     ce4:	0066a827          	fsw	f6,16(x13)
     ce8:	0076aa27          	fsw	f7,20(x13)
     cec:	00e6ac27          	fsw	f14,24(x13)
     cf0:	00f6ae27          	fsw	f15,28(x13)
     cf4:	008e8e93          	addi	x29,x29,8
     cf8:	02068693          	addi	x13,x13,32
     cfc:	f3d996e3          	bne	x19,x29,c28 <.L79>

00000d00 <.L78>:
     d00:	00128293          	addi	x5,x5,1
     d04:	012c0c33          	add	x24,x24,x18
     d08:	f05398e3          	bne	x7,x5,c18 <.L50>
     d0c:	f1c42083          	lw	x1,-228(x8)
     d10:	ee042b03          	lw	x22,-288(x8)
     d14:	0c105663          	blez	x1,de0 <.L82>
     d18:	ee842603          	lw	x12,-280(x8)
     d1c:	f1c42f03          	lw	x30,-228(x8)
     d20:	f1042883          	lw	x17,-240(x8)
     d24:	009c8fb3          	add	x31,x25,x9
     d28:	00000813          	li	x16,0
     d2c:	00000513          	li	x10,0

00000d30 <.L83>:
     d30:	0b205063          	blez	x18,dd0 <.L84>
     d34:	00062807          	flw	f16,0(x12)
     d38:	00462887          	flw	f17,4(x12)
     d3c:	00862e07          	flw	f28,8(x12)
     d40:	00c62e87          	flw	f29,12(x12)
     d44:	01062f07          	flw	f30,16(x12)
     d48:	01462f87          	flw	f31,20(x12)
     d4c:	01862087          	flw	f1,24(x12)
     d50:	01c62007          	flw	f0,28(x12)
     d54:	00281713          	slli	x14,x16,0x2
     d58:	00e880b3          	add	x1,x17,x14
     d5c:	000c8793          	mv	x15,x25

00000d60 <.L85>:
     d60:	0000a587          	flw	f11,0(x1)
     d64:	0007a507          	flw	f10,0(x15) # 0 <tensorlib_addmm>
     d68:	00978333          	add	x6,x15,x9
     d6c:	00032687          	flw	f13,0(x6)
     d70:	58a87643          	fmadd.s	f12,f16,f10,f11
     d74:	015785b3          	add	x11,x15,x21
     d78:	0005a107          	flw	f2,0(x11)
     d7c:	01778e33          	add	x28,x15,x23
     d80:	000e2187          	flw	f3,0(x28)
     d84:	60d8f243          	fmadd.s	f4,f17,f13,f12
     d88:	01678eb3          	add	x29,x15,x22
     d8c:	000ea287          	flw	f5,0(x29)
     d90:	014786b3          	add	x13,x15,x20
     d94:	0006a307          	flw	f6,0(x13)
     d98:	202e73c3          	fmadd.s	f7,f28,f2,f4
     d9c:	01a782b3          	add	x5,x15,x26
     da0:	0002a707          	flw	f14,0(x5)
     da4:	01b78c33          	add	x24,x15,x27
     da8:	000c2787          	flw	f15,0(x24)
     dac:	383ef5c3          	fmadd.s	f11,f29,f3,f7
     db0:	00408093          	addi	x1,x1,4
     db4:	00478793          	addi	x15,x15,4
     db8:	585f7543          	fmadd.s	f10,f30,f5,f11
     dbc:	506ff6c3          	fmadd.s	f13,f31,f6,f10
     dc0:	68e0f643          	fmadd.s	f12,f1,f14,f13
     dc4:	60f07143          	fmadd.s	f2,f0,f15,f12
     dc8:	fe20ae27          	fsw	f2,-4(x1)
     dcc:	f8ff9ae3          	bne	x31,x15,d60 <.L85>

00000dd0 <.L84>:
     dd0:	00150513          	addi	x10,x10,1
     dd4:	01280833          	add	x16,x16,x18
     dd8:	02060613          	addi	x12,x12,32
     ddc:	f4af1ae3          	bne	x30,x10,d30 <.L83>

00000de0 <.L82>:
     de0:	00000c93          	li	x25,0
     de4:	8e5ff06f          	j	6c8 <.L67>

00000de8 <.L45>:
     de8:	040c9663          	bnez	x25,e34 <.L117>
     dec:	ef842c83          	lw	x25,-264(x8)
     df0:	00800793          	li	x15,8
     df4:	cefc8ee3          	beq	x25,x15,af0 <.L47>
     df8:	eb842c83          	lw	x25,-328(x8)
     dfc:	eb442f83          	lw	x31,-332(x8)
     e00:	f1c42783          	lw	x15,-228(x8)
     e04:	41910133          	sub	x2,x2,x25
     e08:	00010513          	mv	x10,x2
     e0c:	41f10133          	sub	x2,x2,x31
     e10:	ef842083          	lw	x1,-264(x8)
     e14:	f4c42c03          	lw	x24,-180(x8)
     e18:	f5442c83          	lw	x25,-172(x8)
     e1c:	00010813          	mv	x16,x2
     e20:	f2f04e63          	bgtz	x15,55c <.L153>

00000e24 <.L52>:
     e24:	f7042c03          	lw	x24,-144(x8)
     e28:	f7842c83          	lw	x25,-136(x8)
     e2c:	fa104063          	bgtz	x1,5cc <.L59>
     e30:	891ff06f          	j	6c0 <.L60>

00000e34 <.L117>:
     e34:	ef842083          	lw	x1,-264(x8)
     e38:	ee0ff06f          	j	518 <.L46>

00000e3c <.L150>:
     e3c:	ef042383          	lw	x7,-272(x8)
     e40:	ebc42683          	lw	x13,-324(x8)
     e44:	02d39e63          	bne	x7,x13,e80 <.L154>
     e48:	ef442d03          	lw	x26,-268(x8)
     e4c:	00800813          	li	x16,8
     e50:	bf0d04e3          	beq	x26,x16,a38 <.L107>
     e54:	e9c42a83          	lw	x21,-356(x8)
     e58:	ea842603          	lw	x12,-344(x8)
     e5c:	edc42903          	lw	x18,-292(x8)
     e60:	41510133          	sub	x2,x2,x21
     e64:	f0242823          	sw	x2,-240(x8)
     e68:	41510133          	sub	x2,x2,x21
     e6c:	ee242223          	sw	x2,-284(x8)

00000e70 <.L34>:
     e70:	ef442383          	lw	x7,-268(x8)
     e74:	02705e63          	blez	x7,eb0 <.L35>
     e78:	f0742e23          	sw	x7,-228(x8)
     e7c:	be9ff06f          	j	a64 <.L33>

00000e80 <.L154>:
     e80:	ef442c03          	lw	x24,-268(x8)
     e84:	00800893          	li	x17,8
     e88:	151c0a63          	beq	x24,x17,fdc <.L155>
     e8c:	e9842b03          	lw	x22,-360(x8)
     e90:	ec842603          	lw	x12,-312(x8)
     e94:	00800913          	li	x18,8
     e98:	004b1c93          	slli	x25,x22,0x4
     e9c:	41910133          	sub	x2,x2,x25
     ea0:	f0242823          	sw	x2,-240(x8)
     ea4:	41910133          	sub	x2,x2,x25
     ea8:	ee242223          	sw	x2,-284(x8)
     eac:	fc5ff06f          	j	e70 <.L34>

00000eb0 <.L35>:
     eb0:	f1042503          	lw	x10,-240(x8)
     eb4:	00000593          	li	x11,0
     eb8:	00000097          	auipc	x1,0x0
     ebc:	000080e7          	jalr	x1 # eb8 <.L35+0x8>
     ec0:	ed842483          	lw	x9,-296(x8)
     ec4:	8a9058e3          	blez	x9,774 <.L88>
     ec8:	003b9393          	slli	x7,x23,0x3
     ecc:	ef042b83          	lw	x23,-272(x8)
     ed0:	ef442a83          	lw	x21,-268(x8)
     ed4:	ec842f83          	lw	x31,-312(x8)
     ed8:	003b9a13          	slli	x20,x23,0x3
     edc:	000a8613          	mv	x12,x21
     ee0:	f1542e23          	sw	x21,-228(x8)
     ee4:	00100c93          	li	x25,1
     ee8:	f0742623          	sw	x7,-244(x8)
     eec:	f1442423          	sw	x20,-248(x8)
     ef0:	00291493          	slli	x9,x18,0x2
     ef4:	d70ff06f          	j	464 <.L109>

00000ef8 <.L151>:
     ef8:	00000cb7          	lui	x25,0x0
     efc:	00000337          	lui	x6,0x0
     f00:	004c8293          	addi	x5,x25,4 # 4 <tensorlib_addmm+0x4>
     f04:	01430c13          	addi	x24,x6,20 # 14 <tensorlib_addmm+0x14>

00000f08 <.L24>:
     f08:	00028713          	mv	x14,x5

00000f0c <.L93>:
     f0c:	00074e03          	lbu	x28,0(x14)
     f10:	00170713          	addi	x14,x14,1
     f14:	0ffe7613          	andi	x12,x28,255
     f18:	fe0608e3          	beqz	x12,f08 <.L24>
     f1c:	feec18e3          	bne	x24,x14,f0c <.L93>
     f20:	00000f37          	lui	x30,0x0
     f24:	000f2683          	lw	x13,0(x30) # 0 <tensorlib_addmm>
     f28:	231c0937          	lui	x18,0x231c0
     f2c:	00100093          	li	x1,1
     f30:	01868e93          	addi	x29,x13,24
     f34:	01d788b3          	add	x17,x15,x29
     f38:	0128e4b3          	or	x9,x17,x18
     f3c:	00148023          	sb	x1,0(x9)
     f40:	00000537          	lui	x10,0x0
     f44:	00052383          	lw	x7,0(x10) # 0 <tensorlib_addmm>
     f48:	00700813          	li	x16,7
     f4c:	8f0396e3          	bne	x7,x16,838 <.L100>
     f50:	00000b37          	lui	x22,0x0
     f54:	000b2983          	lw	x19,0(x22) # 0 <tensorlib_addmm>
     f58:	00300a13          	li	x20,3
     f5c:	09498463          	beq	x19,x20,fe4 <.L156>

00000f60 <.L99>:
     f60:	00100813          	li	x16,1
     f64:	0100006f          	j	f74 <.L95>

00000f68 <.L157>:
     f68:	01478a13          	addi	x20,x15,20
     f6c:	140a2aaf          	lr.w.aq	x21,(x20)
     f70:	010a8863          	beq	x21,x16,f80 <.L101>

00000f74 <.L95>:
     f74:	01478b13          	addi	x22,x15,20
     f78:	100b29af          	lr.w	x19,(x22)
     f7c:	ff0996e3          	bne	x19,x16,f68 <.L157>

00000f80 <.L101>:
     f80:	0007aa23          	sw	x0,20(x15)
     f84:	00000f93          	li	x31,0
     f88:	01000b93          	li	x23,16

00000f8c <.L102>:
     f8c:	01f78d33          	add	x26,x15,x31
     f90:	000d0223          	sb	x0,4(x26) # 4 <tensorlib_addmm+0x4>
     f94:	001f8f93          	addi	x31,x31,1 # 1 <tensorlib_addmm+0x1>
     f98:	ff7f9ae3          	bne	x31,x23,f8c <.L102>
     f9c:	0007a023          	sw	x0,0(x15)
     fa0:	00000893          	li	x17,0
     fa4:	20000db7          	lui	x27,0x20000
     fa8:	00100c93          	li	x25,1
     fac:	000402b7          	lui	x5,0x40
     fb0:	00400e37          	lui	x28,0x400

00000fb4 <.L103>:
     fb4:	00000337          	lui	x6,0x0
     fb8:	00032603          	lw	x12,0(x6) # 0 <tensorlib_addmm>
     fbc:	0117ef33          	or	x30,x15,x17
     fc0:	005888b3          	add	x17,x17,x5
     fc4:	01861713          	slli	x14,x12,0x18
     fc8:	01e76eb3          	or	x29,x14,x30
     fcc:	01bee933          	or	x18,x29,x27
     fd0:	01992023          	sw	x25,0(x18) # 231c0000 <.L98+0x231befb0>
     fd4:	ffc890e3          	bne	x17,x28,fb4 <.L103>
     fd8:	861ff06f          	j	838 <.L100>

00000fdc <.L155>:
     fdc:	ec842603          	lw	x12,-312(x8)
     fe0:	b18ff06f          	j	2f8 <.L31>

00000fe4 <.L156>:
     fe4:	00000ab7          	lui	x21,0x0
     fe8:	00000d37          	lui	x26,0x0
     fec:	018a8b93          	addi	x23,x21,24 # 18 <tensorlib_addmm+0x18>
     ff0:	020d0f93          	addi	x31,x26,32 # 20 <tensorlib_addmm+0x20>

00000ff4 <.L94>:
     ff4:	000b8c93          	mv	x25,x23

00000ff8 <.L96>:
     ff8:	000ccd83          	lbu	x27,0(x25)
     ffc:	001c8c93          	addi	x25,x25,1
    1000:	0ffdf293          	andi	x5,x27,255
    1004:	fe0288e3          	beqz	x5,ff4 <.L94>
    1008:	ff9f98e3          	bne	x31,x25,ff8 <.L96>
    100c:	00078c23          	sb	x0,24(x15)
    1010:	00078ca3          	sb	x0,25(x15)
    1014:	00078d23          	sb	x0,26(x15)
    1018:	00078da3          	sb	x0,27(x15)
    101c:	00078e23          	sb	x0,28(x15)
    1020:	00078ea3          	sb	x0,29(x15)
    1024:	00078f23          	sb	x0,30(x15)
    1028:	00078fa3          	sb	x0,31(x15)
    102c:	0007aa23          	sw	x0,20(x15)
    1030:	00000693          	li	x13,0
    1034:	03fc0e37          	lui	x28,0x3fc0
    1038:	20000337          	lui	x6,0x20000
    103c:	00100613          	li	x12,1
    1040:	01000f37          	lui	x30,0x1000
    1044:	080008b7          	lui	x17,0x8000
    1048:	0080006f          	j	1050 <.L98>

0000104c <.L158>:
    104c:	00052383          	lw	x7,0(x10)

00001050 <.L98>:
    1050:	01239713          	slli	x14,x7,0x12
    1054:	00dc6eb3          	or	x29,x24,x13
    1058:	01c77933          	and	x18,x14,x28
    105c:	01d964b3          	or	x9,x18,x29
    1060:	0064e0b3          	or	x1,x9,x6
    1064:	00c0a023          	sw	x12,0(x1)
    1068:	01e686b3          	add	x13,x13,x30
    106c:	00000537          	lui	x10,0x0
    1070:	fd169ee3          	bne	x13,x17,104c <.L158>
    1074:	00052c03          	lw	x24,0(x10) # 0 <tensorlib_addmm>
    1078:	00700393          	li	x7,7
    107c:	ee7c02e3          	beq	x24,x7,f60 <.L99>
    1080:	fb8ff06f          	j	838 <.L100>

Disassembly of section .text._ZN8HBTensorIfLl2EEC2EP11hb_tensor_t:

00000000 <_ZN8HBTensorIfLl2EEC1EP11hb_tensor_t>:
   0:	00058713          	mv	x14,x11
   4:	00072803          	lw	x16,0(x14)
   8:	0105a583          	lw	x11,16(x11)
   c:	00050793          	mv	x15,x10
  10:	01c50693          	addi	x13,x10,28 # 1801c <.L98+0x16fcc>
  14:	00200613          	li	x12,2
  18:	01450513          	addi	x10,x10,20
  1c:	0107a023          	sw	x16,0(x15)
  20:	00c7a223          	sw	x12,4(x15)
  24:	00a7a423          	sw	x10,8(x15)
  28:	00d7a623          	sw	x13,12(x15)
  2c:	00b7a823          	sw	x11,16(x15)
  30:	00068693          	mv	x13,x13
  34:	00472283          	lw	x5,4(x14)
  38:	02c29863          	bne	x5,x12,68 <.L8>
  3c:	00872303          	lw	x6,8(x14)
  40:	00c72383          	lw	x7,12(x14)
  44:	00032883          	lw	x17,0(x6) # ffffb000 <.L98+0xffff9fb0>
  48:	0117aa23          	sw	x17,20(x15)
  4c:	0003ae03          	lw	x28,0(x7)
  50:	01c7ae23          	sw	x28,28(x15)
  54:	00432e83          	lw	x29,4(x6)
  58:	01d7ac23          	sw	x29,24(x15)
  5c:	0043af03          	lw	x30,4(x7)
  60:	03e7a023          	sw	x30,32(x15)
  64:	00008067          	ret

00000068 <.L8>:
  68:	ff010113          	addi	x2,x2,-16
  6c:	00000fb7          	lui	x31,0x0
  70:	00112623          	sw	x1,12(x2)
  74:	000000b7          	lui	x1,0x0
  78:	0ba00613          	li	x12,186
  7c:	00008593          	mv	x11,x1
  80:	000f8513          	mv	x10,x31
  84:	00000097          	auipc	x1,0x0
  88:	000080e7          	jalr	x1 # 84 <.L8+0x1c>
  8c:	00000737          	lui	x14,0x0
  90:	00070513          	mv	x10,x14
  94:	00000097          	auipc	x1,0x0
  98:	000080e7          	jalr	x1 # 94 <.L8+0x2c>
  9c:	000005b7          	lui	x11,0x0
  a0:	0005a803          	lw	x16,0(x11) # 0 <_ZN8HBTensorIfLl2EEC1EP11hb_tensor_t>
  a4:	000007b7          	lui	x15,0x0
  a8:	0007a683          	lw	x13,0(x15) # 0 <_ZN8HBTensorIfLl2EEC1EP11hb_tensor_t>
  ac:	01081613          	slli	x12,x16,0x10
  b0:	4100f2b7          	lui	x5,0x4100f
  b4:	00d60533          	add	x10,x12,x13
  b8:	aca2ac23          	sw	x10,-1320(x5) # 4100ead8 <.L98+0x4100da88>

000000bc <.L3>:
  bc:	0000006f          	j	bc <.L3>
