
main.o:     file format elf32-littleriscv


Disassembly of section .text:

00000000 <write_finish_signal>:
   0:	000007b7          	lui	x15,0x0
   4:	0007a283          	lw	x5,0(x15) # 0 <write_finish_signal>
   8:	00029c63          	bnez	x5,20 <.L2>
   c:	00000337          	lui	x6,0x0
  10:	00000737          	lui	x14,0x0
  14:	00032383          	lw	x7,0(x6) # 0 <write_finish_signal>
  18:	00072503          	lw	x10,0(x14) # 0 <write_finish_signal>
  1c:	00a3a023          	sw	x10,0(x7)

00000020 <.L2>:
  20:	00008067          	ret

Disassembly of section .text.startup:

00000000 <main>:
   0:	00000297          	auipc	x5,0x0
   4:	0002a283          	lw	x5,0(x5) # 0 <main>
   8:	00000417          	auipc	x8,0x0
   c:	00040413          	mv	x8,x8
  10:	1004232f          	lr.w	x6,(x8)
  14:	00629463          	bne	x5,x6,1c <__init_param>
  18:	140422af          	lr.w.aq	x5,(x8)

0000001c <__init_param>:
  1c:	00000297          	auipc	x5,0x0
  20:	00028293          	mv	x5,x5
  24:	0002a483          	lw	x9,0(x5) # 1c <__init_param>
  28:	00000297          	auipc	x5,0x0
  2c:	00028293          	mv	x5,x5
  30:	0002a903          	lw	x18,0(x5) # 28 <__init_param+0xc>
  34:	00000297          	auipc	x5,0x0
  38:	00028293          	mv	x5,x5
  3c:	0002a983          	lw	x19,0(x5) # 34 <__init_param+0x18>
  40:	00000297          	auipc	x5,0x0
  44:	00028293          	mv	x5,x5
  48:	0002aa03          	lw	x20,0(x5) # 40 <__init_param+0x24>

0000004c <__load_argument>:
  4c:	0009a503          	lw	x10,0(x19)
  50:	0049a583          	lw	x11,4(x19)
  54:	0089a603          	lw	x12,8(x19)
  58:	00c9a683          	lw	x13,12(x19)
  5c:	0109a703          	lw	x14,16(x19)
  60:	0149a783          	lw	x15,20(x19)
  64:	0189a803          	lw	x16,24(x19)
  68:	01c9a883          	lw	x17,28(x19)
  6c:	00800293          	li	x5,8
  70:	0322de63          	bge	x5,x18,ac <__invoke_kernel>
  74:	ff890293          	addi	x5,x18,-8
  78:	00229293          	slli	x5,x5,0x2
  7c:	40510133          	sub	x2,x2,x5
  80:	00800293          	li	x5,8
  84:	02000313          	li	x6,32
  88:	00000e13          	li	x28,0

0000008c <__load_stack>:
  8c:	013303b3          	add	x7,x6,x19
  90:	0003ae83          	lw	x29,0(x7)
  94:	002e0f33          	add	x30,x28,x2
  98:	01df2023          	sw	x29,0(x30)
  9c:	00128293          	addi	x5,x5,1
  a0:	00430313          	addi	x6,x6,4
  a4:	004e0e13          	addi	x28,x28,4
  a8:	ff22c2e3          	blt	x5,x18,8c <__load_stack>

000000ac <__invoke_kernel>:
  ac:	000480e7          	jalr	x9
  b0:	00800293          	li	x5,8
  b4:	0122d863          	bge	x5,x18,c4 <__kernel_return>
  b8:	ff890293          	addi	x5,x18,-8
  bc:	00229293          	slli	x5,x5,0x2
  c0:	00510133          	add	x2,x2,x5

000000c4 <__kernel_return>:
  c4:	00000297          	auipc	x5,0x0
  c8:	0002a283          	lw	x5,0(x5) # c4 <__kernel_return>
  cc:	00542023          	sw	x5,0(x8) # 8 <main+0x8>
  d0:	000007b7          	lui	x15,0x0
  d4:	0007a283          	lw	x5,0(x15) # 0 <main>
  d8:	00029c63          	bnez	x5,f0 <.L5>
  dc:	00000337          	lui	x6,0x0
  e0:	00000737          	lui	x14,0x0
  e4:	00032383          	lw	x7,0(x6) # 0 <main>
  e8:	00072503          	lw	x10,0(x14) # 0 <main>
  ec:	00a3a023          	sw	x10,0(x7)

000000f0 <.L5>:
  f0:	f11ff06f          	j	0 <main>
  f4:	00000513          	li	x10,0
  f8:	00008067          	ret

Disassembly of section .sbss:

00000000 <cuda_kernel_not_loaded_val>:
   0:	0000                	unimp
	...

00000004 <cuda_finish_signal_val>:
   4:	0000                	unimp
	...

00000008 <cuda_finish_signal_addr>:
   8:	0000                	unimp
	...

0000000c <cuda_argv_ptr>:
   c:	0000                	unimp
	...

00000010 <cuda_argc>:
  10:	0000                	unimp
	...

00000014 <cuda_kernel_ptr>:
  14:	0000                	unimp
	...

Disassembly of section .comment:

00000000 <.comment>:
   0:	4700                	lw	x8,8(x14)
   2:	203a4343          	fmadd.s	f6,f20,f3,f4,rmm
   6:	4728                	lw	x10,72(x14)
   8:	554e                	lw	x10,240(x2)
   a:	2029                	jal	14 <cuda_kernel_ptr>
   c:	2e39                	jal	32a <.L5+0x23a>
   e:	2e32                	fld	f28,264(x2)
  10:	0030                	addi	x12,x2,8

Disassembly of section .riscv.attributes:

00000000 <.riscv.attributes>:
   0:	2a41                	jal	190 <.L5+0xa0>
   2:	0000                	unimp
   4:	7200                	flw	f8,32(x12)
   6:	7369                	lui	x6,0xffffa
   8:	01007663          	bgeu	x0,x16,14 <.riscv.attributes+0x14>
   c:	0020                	addi	x8,x2,8
   e:	0000                	unimp
  10:	1004                	addi	x9,x2,32
  12:	7205                	lui	x4,0xfffe1
  14:	3376                	fld	f6,376(x2)
  16:	6932                	flw	f18,12(x2)
  18:	7032                	flw	f0,44(x2)
  1a:	5f30                	lw	x12,120(x14)
  1c:	326d                	jal	fffff9c6 <.L5+0xfffff8d6>
  1e:	3070                	fld	f12,224(x8)
  20:	615f 7032 5f30      	0x5f307032615f
  26:	3266                	fld	f4,120(x2)
  28:	3070                	fld	f12,224(x8)
	...
